ARM GAS  C:\Users\ADMINI~1\AppData\Local\Temp\ccaBZmtr.s 			page 1


   1              		.syntax unified
   2              		.cpu cortex-m0
   3              		.fpu softvfp
   4              		.eabi_attribute 20, 1
   5              		.eabi_attribute 21, 1
   6              		.eabi_attribute 23, 3
   7              		.eabi_attribute 24, 1
   8              		.eabi_attribute 25, 1
   9              		.eabi_attribute 26, 1
  10              		.eabi_attribute 30, 6
  11              		.eabi_attribute 34, 0
  12              		.eabi_attribute 18, 4
  13              		.thumb
  14              		.syntax unified
  15              		.file	"cpu_core.c"
  16              		.text
  17              	.Ltext0:
  18              		.cfi_sections	.debug_frame
  19              		.comm	CPU_Name,16,4
  20              		.comm	CPU_TS_TmrFreq_Hz,4,4
  21              		.comm	CPU_IntDisMeasCtr,2,2
  22              		.comm	CPU_IntDisNestCtr,2,2
  23              		.comm	CPU_IntDisMeasStart_cnts,4,4
  24              		.comm	CPU_IntDisMeasStop_cnts,4,4
  25              		.comm	CPU_IntDisMeasOvrhd_cnts,4,4
  26              		.comm	CPU_IntDisMeasMaxCur_cnts,4,4
  27              		.comm	CPU_IntDisMeasMax_cnts,4,4
  28              		.section	.rodata
  29              		.align	2
  30              		.type	CPU_CntLeadZerosTbl, %object
  31              		.size	CPU_CntLeadZerosTbl, 256
  32              	CPU_CntLeadZerosTbl:
  33 0000 08       		.byte	8
  34 0001 07       		.byte	7
  35 0002 06       		.byte	6
  36 0003 06       		.byte	6
  37 0004 05       		.byte	5
  38 0005 05       		.byte	5
  39 0006 05       		.byte	5
  40 0007 05       		.byte	5
  41 0008 04       		.byte	4
  42 0009 04       		.byte	4
  43 000a 04       		.byte	4
  44 000b 04       		.byte	4
  45 000c 04       		.byte	4
  46 000d 04       		.byte	4
  47 000e 04       		.byte	4
  48 000f 04       		.byte	4
  49 0010 03       		.byte	3
  50 0011 03       		.byte	3
  51 0012 03       		.byte	3
  52 0013 03       		.byte	3
  53 0014 03       		.byte	3
  54 0015 03       		.byte	3
  55 0016 03       		.byte	3
  56 0017 03       		.byte	3
  57 0018 03       		.byte	3
ARM GAS  C:\Users\ADMINI~1\AppData\Local\Temp\ccaBZmtr.s 			page 2


  58 0019 03       		.byte	3
  59 001a 03       		.byte	3
  60 001b 03       		.byte	3
  61 001c 03       		.byte	3
  62 001d 03       		.byte	3
  63 001e 03       		.byte	3
  64 001f 03       		.byte	3
  65 0020 02       		.byte	2
  66 0021 02       		.byte	2
  67 0022 02       		.byte	2
  68 0023 02       		.byte	2
  69 0024 02       		.byte	2
  70 0025 02       		.byte	2
  71 0026 02       		.byte	2
  72 0027 02       		.byte	2
  73 0028 02       		.byte	2
  74 0029 02       		.byte	2
  75 002a 02       		.byte	2
  76 002b 02       		.byte	2
  77 002c 02       		.byte	2
  78 002d 02       		.byte	2
  79 002e 02       		.byte	2
  80 002f 02       		.byte	2
  81 0030 02       		.byte	2
  82 0031 02       		.byte	2
  83 0032 02       		.byte	2
  84 0033 02       		.byte	2
  85 0034 02       		.byte	2
  86 0035 02       		.byte	2
  87 0036 02       		.byte	2
  88 0037 02       		.byte	2
  89 0038 02       		.byte	2
  90 0039 02       		.byte	2
  91 003a 02       		.byte	2
  92 003b 02       		.byte	2
  93 003c 02       		.byte	2
  94 003d 02       		.byte	2
  95 003e 02       		.byte	2
  96 003f 02       		.byte	2
  97 0040 01       		.byte	1
  98 0041 01       		.byte	1
  99 0042 01       		.byte	1
 100 0043 01       		.byte	1
 101 0044 01       		.byte	1
 102 0045 01       		.byte	1
 103 0046 01       		.byte	1
 104 0047 01       		.byte	1
 105 0048 01       		.byte	1
 106 0049 01       		.byte	1
 107 004a 01       		.byte	1
 108 004b 01       		.byte	1
 109 004c 01       		.byte	1
 110 004d 01       		.byte	1
 111 004e 01       		.byte	1
 112 004f 01       		.byte	1
 113 0050 01       		.byte	1
 114 0051 01       		.byte	1
ARM GAS  C:\Users\ADMINI~1\AppData\Local\Temp\ccaBZmtr.s 			page 3


 115 0052 01       		.byte	1
 116 0053 01       		.byte	1
 117 0054 01       		.byte	1
 118 0055 01       		.byte	1
 119 0056 01       		.byte	1
 120 0057 01       		.byte	1
 121 0058 01       		.byte	1
 122 0059 01       		.byte	1
 123 005a 01       		.byte	1
 124 005b 01       		.byte	1
 125 005c 01       		.byte	1
 126 005d 01       		.byte	1
 127 005e 01       		.byte	1
 128 005f 01       		.byte	1
 129 0060 01       		.byte	1
 130 0061 01       		.byte	1
 131 0062 01       		.byte	1
 132 0063 01       		.byte	1
 133 0064 01       		.byte	1
 134 0065 01       		.byte	1
 135 0066 01       		.byte	1
 136 0067 01       		.byte	1
 137 0068 01       		.byte	1
 138 0069 01       		.byte	1
 139 006a 01       		.byte	1
 140 006b 01       		.byte	1
 141 006c 01       		.byte	1
 142 006d 01       		.byte	1
 143 006e 01       		.byte	1
 144 006f 01       		.byte	1
 145 0070 01       		.byte	1
 146 0071 01       		.byte	1
 147 0072 01       		.byte	1
 148 0073 01       		.byte	1
 149 0074 01       		.byte	1
 150 0075 01       		.byte	1
 151 0076 01       		.byte	1
 152 0077 01       		.byte	1
 153 0078 01       		.byte	1
 154 0079 01       		.byte	1
 155 007a 01       		.byte	1
 156 007b 01       		.byte	1
 157 007c 01       		.byte	1
 158 007d 01       		.byte	1
 159 007e 01       		.byte	1
 160 007f 01       		.byte	1
 161 0080 00       		.byte	0
 162 0081 00       		.byte	0
 163 0082 00       		.byte	0
 164 0083 00       		.byte	0
 165 0084 00       		.byte	0
 166 0085 00       		.byte	0
 167 0086 00       		.byte	0
 168 0087 00       		.byte	0
 169 0088 00       		.byte	0
 170 0089 00       		.byte	0
 171 008a 00       		.byte	0
ARM GAS  C:\Users\ADMINI~1\AppData\Local\Temp\ccaBZmtr.s 			page 4


 172 008b 00       		.byte	0
 173 008c 00       		.byte	0
 174 008d 00       		.byte	0
 175 008e 00       		.byte	0
 176 008f 00       		.byte	0
 177 0090 00       		.byte	0
 178 0091 00       		.byte	0
 179 0092 00       		.byte	0
 180 0093 00       		.byte	0
 181 0094 00       		.byte	0
 182 0095 00       		.byte	0
 183 0096 00       		.byte	0
 184 0097 00       		.byte	0
 185 0098 00       		.byte	0
 186 0099 00       		.byte	0
 187 009a 00       		.byte	0
 188 009b 00       		.byte	0
 189 009c 00       		.byte	0
 190 009d 00       		.byte	0
 191 009e 00       		.byte	0
 192 009f 00       		.byte	0
 193 00a0 00       		.byte	0
 194 00a1 00       		.byte	0
 195 00a2 00       		.byte	0
 196 00a3 00       		.byte	0
 197 00a4 00       		.byte	0
 198 00a5 00       		.byte	0
 199 00a6 00       		.byte	0
 200 00a7 00       		.byte	0
 201 00a8 00       		.byte	0
 202 00a9 00       		.byte	0
 203 00aa 00       		.byte	0
 204 00ab 00       		.byte	0
 205 00ac 00       		.byte	0
 206 00ad 00       		.byte	0
 207 00ae 00       		.byte	0
 208 00af 00       		.byte	0
 209 00b0 00       		.byte	0
 210 00b1 00       		.byte	0
 211 00b2 00       		.byte	0
 212 00b3 00       		.byte	0
 213 00b4 00       		.byte	0
 214 00b5 00       		.byte	0
 215 00b6 00       		.byte	0
 216 00b7 00       		.byte	0
 217 00b8 00       		.byte	0
 218 00b9 00       		.byte	0
 219 00ba 00       		.byte	0
 220 00bb 00       		.byte	0
 221 00bc 00       		.byte	0
 222 00bd 00       		.byte	0
 223 00be 00       		.byte	0
 224 00bf 00       		.byte	0
 225 00c0 00       		.byte	0
 226 00c1 00       		.byte	0
 227 00c2 00       		.byte	0
 228 00c3 00       		.byte	0
ARM GAS  C:\Users\ADMINI~1\AppData\Local\Temp\ccaBZmtr.s 			page 5


 229 00c4 00       		.byte	0
 230 00c5 00       		.byte	0
 231 00c6 00       		.byte	0
 232 00c7 00       		.byte	0
 233 00c8 00       		.byte	0
 234 00c9 00       		.byte	0
 235 00ca 00       		.byte	0
 236 00cb 00       		.byte	0
 237 00cc 00       		.byte	0
 238 00cd 00       		.byte	0
 239 00ce 00       		.byte	0
 240 00cf 00       		.byte	0
 241 00d0 00       		.byte	0
 242 00d1 00       		.byte	0
 243 00d2 00       		.byte	0
 244 00d3 00       		.byte	0
 245 00d4 00       		.byte	0
 246 00d5 00       		.byte	0
 247 00d6 00       		.byte	0
 248 00d7 00       		.byte	0
 249 00d8 00       		.byte	0
 250 00d9 00       		.byte	0
 251 00da 00       		.byte	0
 252 00db 00       		.byte	0
 253 00dc 00       		.byte	0
 254 00dd 00       		.byte	0
 255 00de 00       		.byte	0
 256 00df 00       		.byte	0
 257 00e0 00       		.byte	0
 258 00e1 00       		.byte	0
 259 00e2 00       		.byte	0
 260 00e3 00       		.byte	0
 261 00e4 00       		.byte	0
 262 00e5 00       		.byte	0
 263 00e6 00       		.byte	0
 264 00e7 00       		.byte	0
 265 00e8 00       		.byte	0
 266 00e9 00       		.byte	0
 267 00ea 00       		.byte	0
 268 00eb 00       		.byte	0
 269 00ec 00       		.byte	0
 270 00ed 00       		.byte	0
 271 00ee 00       		.byte	0
 272 00ef 00       		.byte	0
 273 00f0 00       		.byte	0
 274 00f1 00       		.byte	0
 275 00f2 00       		.byte	0
 276 00f3 00       		.byte	0
 277 00f4 00       		.byte	0
 278 00f5 00       		.byte	0
 279 00f6 00       		.byte	0
 280 00f7 00       		.byte	0
 281 00f8 00       		.byte	0
 282 00f9 00       		.byte	0
 283 00fa 00       		.byte	0
 284 00fb 00       		.byte	0
 285 00fc 00       		.byte	0
ARM GAS  C:\Users\ADMINI~1\AppData\Local\Temp\ccaBZmtr.s 			page 6


 286 00fd 00       		.byte	0
 287 00fe 00       		.byte	0
 288 00ff 00       		.byte	0
 289              		.global	CPU_EndiannessTest
 290              		.align	2
 291              		.type	CPU_EndiannessTest, %object
 292              		.size	CPU_EndiannessTest, 4
 293              	CPU_EndiannessTest:
 294 0100 78563412 		.word	305419896
 295              		.section	.text.CPU_Init,"ax",%progbits
 296              		.align	2
 297              		.global	CPU_Init
 298              		.code	16
 299              		.thumb_func
 300              		.type	CPU_Init, %function
 301              	CPU_Init:
 302              	.LFB0:
 303              		.file 1 "..\\..\\..\\..\\..\\..\\Software\\uC-CPU\\cpu_core.c"
   1:..\..\..\..\..\..\Software\uC-CPU/cpu_core.c **** /*
   2:..\..\..\..\..\..\Software\uC-CPU/cpu_core.c **** ***************************************************************************************************
   3:..\..\..\..\..\..\Software\uC-CPU/cpu_core.c **** *                                                uC/CPU
   4:..\..\..\..\..\..\Software\uC-CPU/cpu_core.c **** *                                    CPU CONFIGURATION & PORT LAYER
   5:..\..\..\..\..\..\Software\uC-CPU/cpu_core.c **** *
   6:..\..\..\..\..\..\Software\uC-CPU/cpu_core.c **** *                          (c) Copyright 2004-2015; Micrium, Inc.; Weston, FL
   7:..\..\..\..\..\..\Software\uC-CPU/cpu_core.c **** *
   8:..\..\..\..\..\..\Software\uC-CPU/cpu_core.c **** *               All rights reserved.  Protected by international copyright laws.
   9:..\..\..\..\..\..\Software\uC-CPU/cpu_core.c **** *
  10:..\..\..\..\..\..\Software\uC-CPU/cpu_core.c **** *               uC/CPU is provided in source form to registered licensees ONLY.  It is
  11:..\..\..\..\..\..\Software\uC-CPU/cpu_core.c **** *               illegal to distribute this source code to any third party unless you receive
  12:..\..\..\..\..\..\Software\uC-CPU/cpu_core.c **** *               written permission by an authorized Micrium representative.  Knowledge of
  13:..\..\..\..\..\..\Software\uC-CPU/cpu_core.c **** *               the source code may NOT be used to develop a similar product.
  14:..\..\..\..\..\..\Software\uC-CPU/cpu_core.c **** *
  15:..\..\..\..\..\..\Software\uC-CPU/cpu_core.c **** *               Please help us continue to provide the Embedded community with the finest
  16:..\..\..\..\..\..\Software\uC-CPU/cpu_core.c **** *               software available.  Your honesty is greatly appreciated.
  17:..\..\..\..\..\..\Software\uC-CPU/cpu_core.c **** *
  18:..\..\..\..\..\..\Software\uC-CPU/cpu_core.c **** *               You can find our product's user manual, API reference, release notes and
  19:..\..\..\..\..\..\Software\uC-CPU/cpu_core.c **** *               more information at https://doc.micrium.com.
  20:..\..\..\..\..\..\Software\uC-CPU/cpu_core.c **** *               You can contact us at www.micrium.com.
  21:..\..\..\..\..\..\Software\uC-CPU/cpu_core.c **** ***************************************************************************************************
  22:..\..\..\..\..\..\Software\uC-CPU/cpu_core.c **** */
  23:..\..\..\..\..\..\Software\uC-CPU/cpu_core.c **** 
  24:..\..\..\..\..\..\Software\uC-CPU/cpu_core.c **** /*
  25:..\..\..\..\..\..\Software\uC-CPU/cpu_core.c **** ***************************************************************************************************
  26:..\..\..\..\..\..\Software\uC-CPU/cpu_core.c **** *
  27:..\..\..\..\..\..\Software\uC-CPU/cpu_core.c **** *                                           CORE CPU MODULE
  28:..\..\..\..\..\..\Software\uC-CPU/cpu_core.c **** *
  29:..\..\..\..\..\..\Software\uC-CPU/cpu_core.c **** * Filename      : cpu_core.c
  30:..\..\..\..\..\..\Software\uC-CPU/cpu_core.c **** * Version       : V1.30.02
  31:..\..\..\..\..\..\Software\uC-CPU/cpu_core.c **** * Programmer(s) : SR
  32:..\..\..\..\..\..\Software\uC-CPU/cpu_core.c **** *                 ITJ
  33:..\..\..\..\..\..\Software\uC-CPU/cpu_core.c **** ***************************************************************************************************
  34:..\..\..\..\..\..\Software\uC-CPU/cpu_core.c **** */
  35:..\..\..\..\..\..\Software\uC-CPU/cpu_core.c **** 
  36:..\..\..\..\..\..\Software\uC-CPU/cpu_core.c **** 
  37:..\..\..\..\..\..\Software\uC-CPU/cpu_core.c **** /*
  38:..\..\..\..\..\..\Software\uC-CPU/cpu_core.c **** ***************************************************************************************************
  39:..\..\..\..\..\..\Software\uC-CPU/cpu_core.c **** *                                            INCLUDE FILES
ARM GAS  C:\Users\ADMINI~1\AppData\Local\Temp\ccaBZmtr.s 			page 7


  40:..\..\..\..\..\..\Software\uC-CPU/cpu_core.c **** ***************************************************************************************************
  41:..\..\..\..\..\..\Software\uC-CPU/cpu_core.c **** */
  42:..\..\..\..\..\..\Software\uC-CPU/cpu_core.c **** 
  43:..\..\..\..\..\..\Software\uC-CPU/cpu_core.c **** #define    MICRIUM_SOURCE
  44:..\..\..\..\..\..\Software\uC-CPU/cpu_core.c **** #define    CPU_CORE_MODULE
  45:..\..\..\..\..\..\Software\uC-CPU/cpu_core.c **** #include  "cpu_core.h"
  46:..\..\..\..\..\..\Software\uC-CPU/cpu_core.c **** 
  47:..\..\..\..\..\..\Software\uC-CPU/cpu_core.c **** #if defined(CPU_CFG_CACHE_MGMT_EN)
  48:..\..\..\..\..\..\Software\uC-CPU/cpu_core.c **** #if (CPU_CFG_CACHE_MGMT_EN == DEF_ENABLED)
  49:..\..\..\..\..\..\Software\uC-CPU/cpu_core.c **** #include  "cpu_cache.h"
  50:..\..\..\..\..\..\Software\uC-CPU/cpu_core.c **** #endif
  51:..\..\..\..\..\..\Software\uC-CPU/cpu_core.c **** #endif
  52:..\..\..\..\..\..\Software\uC-CPU/cpu_core.c **** 
  53:..\..\..\..\..\..\Software\uC-CPU/cpu_core.c **** 
  54:..\..\..\..\..\..\Software\uC-CPU/cpu_core.c **** /*
  55:..\..\..\..\..\..\Software\uC-CPU/cpu_core.c **** ***************************************************************************************************
  56:..\..\..\..\..\..\Software\uC-CPU/cpu_core.c **** *                                            LOCAL DEFINES
  57:..\..\..\..\..\..\Software\uC-CPU/cpu_core.c **** ***************************************************************************************************
  58:..\..\..\..\..\..\Software\uC-CPU/cpu_core.c **** */
  59:..\..\..\..\..\..\Software\uC-CPU/cpu_core.c **** 
  60:..\..\..\..\..\..\Software\uC-CPU/cpu_core.c ****                                                                 /* Pop cnt algorithm csts.         
  61:..\..\..\..\..\..\Software\uC-CPU/cpu_core.c **** #define CRC_UTIL_POPCNT_MASK01010101_32  0x55555555u
  62:..\..\..\..\..\..\Software\uC-CPU/cpu_core.c **** #define CRC_UTIL_POPCNT_MASK00110011_32  0x33333333u
  63:..\..\..\..\..\..\Software\uC-CPU/cpu_core.c **** #define CRC_UTIL_POPCNT_MASK00001111_32  0x0F0F0F0Fu
  64:..\..\..\..\..\..\Software\uC-CPU/cpu_core.c **** #define CRC_UTIL_POPCNT_POWERSOF256_32   0x01010101u
  65:..\..\..\..\..\..\Software\uC-CPU/cpu_core.c **** 
  66:..\..\..\..\..\..\Software\uC-CPU/cpu_core.c **** 
  67:..\..\..\..\..\..\Software\uC-CPU/cpu_core.c **** /*
  68:..\..\..\..\..\..\Software\uC-CPU/cpu_core.c **** ***************************************************************************************************
  69:..\..\..\..\..\..\Software\uC-CPU/cpu_core.c **** *                                           LOCAL CONSTANTS
  70:..\..\..\..\..\..\Software\uC-CPU/cpu_core.c **** ***************************************************************************************************
  71:..\..\..\..\..\..\Software\uC-CPU/cpu_core.c **** */
  72:..\..\..\..\..\..\Software\uC-CPU/cpu_core.c **** 
  73:..\..\..\..\..\..\Software\uC-CPU/cpu_core.c **** 
  74:..\..\..\..\..\..\Software\uC-CPU/cpu_core.c **** /*
  75:..\..\..\..\..\..\Software\uC-CPU/cpu_core.c **** ***************************************************************************************************
  76:..\..\..\..\..\..\Software\uC-CPU/cpu_core.c **** *                                          LOCAL DATA TYPES
  77:..\..\..\..\..\..\Software\uC-CPU/cpu_core.c **** ***************************************************************************************************
  78:..\..\..\..\..\..\Software\uC-CPU/cpu_core.c **** */
  79:..\..\..\..\..\..\Software\uC-CPU/cpu_core.c **** 
  80:..\..\..\..\..\..\Software\uC-CPU/cpu_core.c **** 
  81:..\..\..\..\..\..\Software\uC-CPU/cpu_core.c **** /*
  82:..\..\..\..\..\..\Software\uC-CPU/cpu_core.c **** ***************************************************************************************************
  83:..\..\..\..\..\..\Software\uC-CPU/cpu_core.c **** *                                            LOCAL TABLES
  84:..\..\..\..\..\..\Software\uC-CPU/cpu_core.c **** ***************************************************************************************************
  85:..\..\..\..\..\..\Software\uC-CPU/cpu_core.c **** */
  86:..\..\..\..\..\..\Software\uC-CPU/cpu_core.c **** 
  87:..\..\..\..\..\..\Software\uC-CPU/cpu_core.c **** /*
  88:..\..\..\..\..\..\Software\uC-CPU/cpu_core.c **** ***************************************************************************************************
  89:..\..\..\..\..\..\Software\uC-CPU/cpu_core.c **** *                                  CPU COUNT LEAD ZEROs LOOKUP TABLE
  90:..\..\..\..\..\..\Software\uC-CPU/cpu_core.c **** *
  91:..\..\..\..\..\..\Software\uC-CPU/cpu_core.c **** * Note(s) : (1) Index into bit pattern table determines the number of leading zeros in an 8-bit val
  92:..\..\..\..\..\..\Software\uC-CPU/cpu_core.c **** *
  93:..\..\..\..\..\..\Software\uC-CPU/cpu_core.c **** *                         b07  b06  b05  b04  b03  b02  b01  b00    # Leading Zeros
  94:..\..\..\..\..\..\Software\uC-CPU/cpu_core.c **** *                         ---  ---  ---  ---  ---  ---  ---  ---    ---------------
  95:..\..\..\..\..\..\Software\uC-CPU/cpu_core.c **** *                          1    x    x    x    x    x    x    x            0
  96:..\..\..\..\..\..\Software\uC-CPU/cpu_core.c **** *                          0    1    x    x    x    x    x    x            1
ARM GAS  C:\Users\ADMINI~1\AppData\Local\Temp\ccaBZmtr.s 			page 8


  97:..\..\..\..\..\..\Software\uC-CPU/cpu_core.c **** *                          0    0    1    x    x    x    x    x            2
  98:..\..\..\..\..\..\Software\uC-CPU/cpu_core.c **** *                          0    0    0    1    x    x    x    x            3
  99:..\..\..\..\..\..\Software\uC-CPU/cpu_core.c **** *                          0    0    0    0    1    x    x    x            4
 100:..\..\..\..\..\..\Software\uC-CPU/cpu_core.c **** *                          0    0    0    0    0    1    x    x            5
 101:..\..\..\..\..\..\Software\uC-CPU/cpu_core.c **** *                          0    0    0    0    0    0    1    x            6
 102:..\..\..\..\..\..\Software\uC-CPU/cpu_core.c **** *                          0    0    0    0    0    0    0    1            7
 103:..\..\..\..\..\..\Software\uC-CPU/cpu_core.c **** *                          0    0    0    0    0    0    0    0            8
 104:..\..\..\..\..\..\Software\uC-CPU/cpu_core.c **** ***************************************************************************************************
 105:..\..\..\..\..\..\Software\uC-CPU/cpu_core.c **** */
 106:..\..\..\..\..\..\Software\uC-CPU/cpu_core.c **** 
 107:..\..\..\..\..\..\Software\uC-CPU/cpu_core.c **** #if (!(defined(CPU_CFG_LEAD_ZEROS_ASM_PRESENT)) || \
 108:..\..\..\..\..\..\Software\uC-CPU/cpu_core.c ****       (CPU_CFG_DATA_SIZE_MAX > CPU_CFG_DATA_SIZE))
 109:..\..\..\..\..\..\Software\uC-CPU/cpu_core.c **** static  const  CPU_INT08U  CPU_CntLeadZerosTbl[256] = {                             /* Data vals : 
 110:..\..\..\..\..\..\Software\uC-CPU/cpu_core.c **** /*   0    1    2    3    4    5    6    7    8    9    A    B    C    D    E    F   */
 111:..\..\..\..\..\..\Software\uC-CPU/cpu_core.c ****     8u,  7u,  6u,  6u,  5u,  5u,  5u,  5u,  4u,  4u,  4u,  4u,  4u,  4u,  4u,  4u,  /*   0x00 to 0x
 112:..\..\..\..\..\..\Software\uC-CPU/cpu_core.c ****     3u,  3u,  3u,  3u,  3u,  3u,  3u,  3u,  3u,  3u,  3u,  3u,  3u,  3u,  3u,  3u,  /*   0x10 to 0x
 113:..\..\..\..\..\..\Software\uC-CPU/cpu_core.c ****     2u,  2u,  2u,  2u,  2u,  2u,  2u,  2u,  2u,  2u,  2u,  2u,  2u,  2u,  2u,  2u,  /*   0x20 to 0x
 114:..\..\..\..\..\..\Software\uC-CPU/cpu_core.c ****     2u,  2u,  2u,  2u,  2u,  2u,  2u,  2u,  2u,  2u,  2u,  2u,  2u,  2u,  2u,  2u,  /*   0x30 to 0x
 115:..\..\..\..\..\..\Software\uC-CPU/cpu_core.c ****     1u,  1u,  1u,  1u,  1u,  1u,  1u,  1u,  1u,  1u,  1u,  1u,  1u,  1u,  1u,  1u,  /*   0x40 to 0x
 116:..\..\..\..\..\..\Software\uC-CPU/cpu_core.c ****     1u,  1u,  1u,  1u,  1u,  1u,  1u,  1u,  1u,  1u,  1u,  1u,  1u,  1u,  1u,  1u,  /*   0x50 to 0x
 117:..\..\..\..\..\..\Software\uC-CPU/cpu_core.c ****     1u,  1u,  1u,  1u,  1u,  1u,  1u,  1u,  1u,  1u,  1u,  1u,  1u,  1u,  1u,  1u,  /*   0x60 to 0x
 118:..\..\..\..\..\..\Software\uC-CPU/cpu_core.c ****     1u,  1u,  1u,  1u,  1u,  1u,  1u,  1u,  1u,  1u,  1u,  1u,  1u,  1u,  1u,  1u,  /*   0x70 to 0x
 119:..\..\..\..\..\..\Software\uC-CPU/cpu_core.c ****     0u,  0u,  0u,  0u,  0u,  0u,  0u,  0u,  0u,  0u,  0u,  0u,  0u,  0u,  0u,  0u,  /*   0x80 to 0x
 120:..\..\..\..\..\..\Software\uC-CPU/cpu_core.c ****     0u,  0u,  0u,  0u,  0u,  0u,  0u,  0u,  0u,  0u,  0u,  0u,  0u,  0u,  0u,  0u,  /*   0x90 to 0x
 121:..\..\..\..\..\..\Software\uC-CPU/cpu_core.c ****     0u,  0u,  0u,  0u,  0u,  0u,  0u,  0u,  0u,  0u,  0u,  0u,  0u,  0u,  0u,  0u,  /*   0xA0 to 0x
 122:..\..\..\..\..\..\Software\uC-CPU/cpu_core.c ****     0u,  0u,  0u,  0u,  0u,  0u,  0u,  0u,  0u,  0u,  0u,  0u,  0u,  0u,  0u,  0u,  /*   0xB0 to 0x
 123:..\..\..\..\..\..\Software\uC-CPU/cpu_core.c ****     0u,  0u,  0u,  0u,  0u,  0u,  0u,  0u,  0u,  0u,  0u,  0u,  0u,  0u,  0u,  0u,  /*   0xC0 to 0x
 124:..\..\..\..\..\..\Software\uC-CPU/cpu_core.c ****     0u,  0u,  0u,  0u,  0u,  0u,  0u,  0u,  0u,  0u,  0u,  0u,  0u,  0u,  0u,  0u,  /*   0xD0 to 0x
 125:..\..\..\..\..\..\Software\uC-CPU/cpu_core.c ****     0u,  0u,  0u,  0u,  0u,  0u,  0u,  0u,  0u,  0u,  0u,  0u,  0u,  0u,  0u,  0u,  /*   0xE0 to 0x
 126:..\..\..\..\..\..\Software\uC-CPU/cpu_core.c ****     0u,  0u,  0u,  0u,  0u,  0u,  0u,  0u,  0u,  0u,  0u,  0u,  0u,  0u,  0u,  0u   /*   0xF0 to 0x
 127:..\..\..\..\..\..\Software\uC-CPU/cpu_core.c **** };
 128:..\..\..\..\..\..\Software\uC-CPU/cpu_core.c **** #endif
 129:..\..\..\..\..\..\Software\uC-CPU/cpu_core.c **** 
 130:..\..\..\..\..\..\Software\uC-CPU/cpu_core.c **** 
 131:..\..\..\..\..\..\Software\uC-CPU/cpu_core.c **** /*
 132:..\..\..\..\..\..\Software\uC-CPU/cpu_core.c **** ***************************************************************************************************
 133:..\..\..\..\..\..\Software\uC-CPU/cpu_core.c **** *                                       LOCAL GLOBAL VARIABLES
 134:..\..\..\..\..\..\Software\uC-CPU/cpu_core.c **** ***************************************************************************************************
 135:..\..\..\..\..\..\Software\uC-CPU/cpu_core.c **** */
 136:..\..\..\..\..\..\Software\uC-CPU/cpu_core.c **** 
 137:..\..\..\..\..\..\Software\uC-CPU/cpu_core.c **** CPU_INT32U  const  CPU_EndiannessTest = 0x12345678LU;               /* Variable to test CPU endiann
 138:..\..\..\..\..\..\Software\uC-CPU/cpu_core.c **** 
 139:..\..\..\..\..\..\Software\uC-CPU/cpu_core.c **** 
 140:..\..\..\..\..\..\Software\uC-CPU/cpu_core.c **** /*
 141:..\..\..\..\..\..\Software\uC-CPU/cpu_core.c **** ***************************************************************************************************
 142:..\..\..\..\..\..\Software\uC-CPU/cpu_core.c **** *                                      LOCAL FUNCTION PROTOTYPES
 143:..\..\..\..\..\..\Software\uC-CPU/cpu_core.c **** ***************************************************************************************************
 144:..\..\..\..\..\..\Software\uC-CPU/cpu_core.c **** */
 145:..\..\..\..\..\..\Software\uC-CPU/cpu_core.c **** 
 146:..\..\..\..\..\..\Software\uC-CPU/cpu_core.c **** #if    (CPU_CFG_NAME_EN   == DEF_ENABLED)                           /* ---------------- CPU NAME FN
 147:..\..\..\..\..\..\Software\uC-CPU/cpu_core.c **** static  void        CPU_NameInit         (void);
 148:..\..\..\..\..\..\Software\uC-CPU/cpu_core.c **** #endif
 149:..\..\..\..\..\..\Software\uC-CPU/cpu_core.c **** 
 150:..\..\..\..\..\..\Software\uC-CPU/cpu_core.c **** 
 151:..\..\..\..\..\..\Software\uC-CPU/cpu_core.c ****                                                                     /* ----------------- CPU TS FNC
 152:..\..\..\..\..\..\Software\uC-CPU/cpu_core.c **** #if   ((CPU_CFG_TS_EN     == DEF_ENABLED) || \
 153:..\..\..\..\..\..\Software\uC-CPU/cpu_core.c ****        (CPU_CFG_TS_TMR_EN == DEF_ENABLED))
ARM GAS  C:\Users\ADMINI~1\AppData\Local\Temp\ccaBZmtr.s 			page 9


 154:..\..\..\..\..\..\Software\uC-CPU/cpu_core.c **** static  void        CPU_TS_Init          (void);
 155:..\..\..\..\..\..\Software\uC-CPU/cpu_core.c **** #endif
 156:..\..\..\..\..\..\Software\uC-CPU/cpu_core.c **** 
 157:..\..\..\..\..\..\Software\uC-CPU/cpu_core.c **** 
 158:..\..\..\..\..\..\Software\uC-CPU/cpu_core.c **** #ifdef  CPU_CFG_INT_DIS_MEAS_EN                                     /* ---------- CPU INT DIS TIME 
 159:..\..\..\..\..\..\Software\uC-CPU/cpu_core.c **** static  void        CPU_IntDisMeasInit   (void);
 160:..\..\..\..\..\..\Software\uC-CPU/cpu_core.c **** 
 161:..\..\..\..\..\..\Software\uC-CPU/cpu_core.c **** static  CPU_TS_TMR  CPU_IntDisMeasMaxCalc(CPU_TS_TMR  time_tot_cnts);
 162:..\..\..\..\..\..\Software\uC-CPU/cpu_core.c **** #endif
 163:..\..\..\..\..\..\Software\uC-CPU/cpu_core.c **** 
 164:..\..\..\..\..\..\Software\uC-CPU/cpu_core.c **** 
 165:..\..\..\..\..\..\Software\uC-CPU/cpu_core.c **** /*
 166:..\..\..\..\..\..\Software\uC-CPU/cpu_core.c **** ***************************************************************************************************
 167:..\..\..\..\..\..\Software\uC-CPU/cpu_core.c **** *                                     LOCAL CONFIGURATION ERRORS
 168:..\..\..\..\..\..\Software\uC-CPU/cpu_core.c **** ***************************************************************************************************
 169:..\..\..\..\..\..\Software\uC-CPU/cpu_core.c **** */
 170:..\..\..\..\..\..\Software\uC-CPU/cpu_core.c **** 
 171:..\..\..\..\..\..\Software\uC-CPU/cpu_core.c **** 
 172:..\..\..\..\..\..\Software\uC-CPU/cpu_core.c **** /*
 173:..\..\..\..\..\..\Software\uC-CPU/cpu_core.c **** ***************************************************************************************************
 174:..\..\..\..\..\..\Software\uC-CPU/cpu_core.c **** *                                             CPU_Init()
 175:..\..\..\..\..\..\Software\uC-CPU/cpu_core.c **** *
 176:..\..\..\..\..\..\Software\uC-CPU/cpu_core.c **** * Description : (1) Initialize CPU module :
 177:..\..\..\..\..\..\Software\uC-CPU/cpu_core.c **** *
 178:..\..\..\..\..\..\Software\uC-CPU/cpu_core.c **** *                   (a) Initialize CPU timestamps
 179:..\..\..\..\..\..\Software\uC-CPU/cpu_core.c **** *                   (b) Initialize CPU interrupts disabled time measurements
 180:..\..\..\..\..\..\Software\uC-CPU/cpu_core.c **** *                   (c) Initialize CPU host name
 181:..\..\..\..\..\..\Software\uC-CPU/cpu_core.c **** *
 182:..\..\..\..\..\..\Software\uC-CPU/cpu_core.c **** *
 183:..\..\..\..\..\..\Software\uC-CPU/cpu_core.c **** * Argument(s) : none.
 184:..\..\..\..\..\..\Software\uC-CPU/cpu_core.c **** *
 185:..\..\..\..\..\..\Software\uC-CPU/cpu_core.c **** * Return(s)   : none.
 186:..\..\..\..\..\..\Software\uC-CPU/cpu_core.c **** *
 187:..\..\..\..\..\..\Software\uC-CPU/cpu_core.c **** * Caller(s)   : Your Product's Application.
 188:..\..\..\..\..\..\Software\uC-CPU/cpu_core.c **** *
 189:..\..\..\..\..\..\Software\uC-CPU/cpu_core.c **** *               This function is a CPU initialization function & MAY be called by application/
 190:..\..\..\..\..\..\Software\uC-CPU/cpu_core.c **** *               initialization function(s).
 191:..\..\..\..\..\..\Software\uC-CPU/cpu_core.c **** *
 192:..\..\..\..\..\..\Software\uC-CPU/cpu_core.c **** * Note(s)     : (2) CPU_Init() MUST be called ... :
 193:..\..\..\..\..\..\Software\uC-CPU/cpu_core.c **** *
 194:..\..\..\..\..\..\Software\uC-CPU/cpu_core.c **** *                   (a) ONLY ONCE from a product's application; ...
 195:..\..\..\..\..\..\Software\uC-CPU/cpu_core.c **** *                   (b) BEFORE product's application calls any core CPU module function(s)
 196:..\..\..\..\..\..\Software\uC-CPU/cpu_core.c **** *
 197:..\..\..\..\..\..\Software\uC-CPU/cpu_core.c **** *               (3) The following initialization functions MUST be sequenced as follows :
 198:..\..\..\..\..\..\Software\uC-CPU/cpu_core.c **** *
 199:..\..\..\..\..\..\Software\uC-CPU/cpu_core.c **** *                   (a) CPU_TS_Init()           SHOULD precede ALL calls to other CPU timestamp fun
 200:..\..\..\..\..\..\Software\uC-CPU/cpu_core.c **** *
 201:..\..\..\..\..\..\Software\uC-CPU/cpu_core.c **** *                   (b) CPU_IntDisMeasInit()    SHOULD precede ALL calls to CPU_CRITICAL_ENTER()/CP
 202:..\..\..\..\..\..\Software\uC-CPU/cpu_core.c **** *                                                   & other CPU interrupts disabled time measuremen
 203:..\..\..\..\..\..\Software\uC-CPU/cpu_core.c **** ***************************************************************************************************
 204:..\..\..\..\..\..\Software\uC-CPU/cpu_core.c **** */
 205:..\..\..\..\..\..\Software\uC-CPU/cpu_core.c **** 
 206:..\..\..\..\..\..\Software\uC-CPU/cpu_core.c **** void  CPU_Init (void)
 207:..\..\..\..\..\..\Software\uC-CPU/cpu_core.c **** {
 304              		.loc 1 207 0
 305              		.cfi_startproc
 306              		@ args = 0, pretend = 0, frame = 0
ARM GAS  C:\Users\ADMINI~1\AppData\Local\Temp\ccaBZmtr.s 			page 10


 307              		@ frame_needed = 1, uses_anonymous_args = 0
 308 0000 80B5     		push	{r7, lr}
 309              		.cfi_def_cfa_offset 8
 310              		.cfi_offset 7, -8
 311              		.cfi_offset 14, -4
 312 0002 00AF     		add	r7, sp, #0
 313              		.cfi_def_cfa_register 7
 208:..\..\..\..\..\..\Software\uC-CPU/cpu_core.c ****                                                                 /* --------------------- INIT TS --
 209:..\..\..\..\..\..\Software\uC-CPU/cpu_core.c **** #if ((CPU_CFG_TS_EN     == DEF_ENABLED) || \
 210:..\..\..\..\..\..\Software\uC-CPU/cpu_core.c ****      (CPU_CFG_TS_TMR_EN == DEF_ENABLED))
 211:..\..\..\..\..\..\Software\uC-CPU/cpu_core.c ****     CPU_TS_Init();                                              /* See Note #3a.                   
 314              		.loc 1 211 0
 315 0004 FFF7FEFF 		bl	CPU_TS_Init
 212:..\..\..\..\..\..\Software\uC-CPU/cpu_core.c **** #endif
 213:..\..\..\..\..\..\Software\uC-CPU/cpu_core.c ****                                                                 /* -------------- INIT INT DIS TIME
 214:..\..\..\..\..\..\Software\uC-CPU/cpu_core.c **** #ifdef  CPU_CFG_INT_DIS_MEAS_EN
 215:..\..\..\..\..\..\Software\uC-CPU/cpu_core.c ****     CPU_IntDisMeasInit();                                       /* See Note #3b.                   
 316              		.loc 1 215 0
 317 0008 FFF7FEFF 		bl	CPU_IntDisMeasInit
 216:..\..\..\..\..\..\Software\uC-CPU/cpu_core.c **** #endif
 217:..\..\..\..\..\..\Software\uC-CPU/cpu_core.c **** 
 218:..\..\..\..\..\..\Software\uC-CPU/cpu_core.c ****                                                                 /* ------------------ INIT CPU NAME
 219:..\..\..\..\..\..\Software\uC-CPU/cpu_core.c **** #if (CPU_CFG_NAME_EN == DEF_ENABLED)
 220:..\..\..\..\..\..\Software\uC-CPU/cpu_core.c ****      CPU_NameInit();
 318              		.loc 1 220 0
 319 000c FFF7FEFF 		bl	CPU_NameInit
 221:..\..\..\..\..\..\Software\uC-CPU/cpu_core.c **** #endif
 222:..\..\..\..\..\..\Software\uC-CPU/cpu_core.c **** 
 223:..\..\..\..\..\..\Software\uC-CPU/cpu_core.c **** #if (CPU_CFG_CACHE_MGMT_EN == DEF_ENABLED)
 224:..\..\..\..\..\..\Software\uC-CPU/cpu_core.c ****      CPU_Cache_Init();
 225:..\..\..\..\..\..\Software\uC-CPU/cpu_core.c **** #endif
 226:..\..\..\..\..\..\Software\uC-CPU/cpu_core.c **** }
 320              		.loc 1 226 0
 321 0010 C046     		nop
 322 0012 BD46     		mov	sp, r7
 323              		@ sp needed
 324 0014 80BD     		pop	{r7, pc}
 325              		.cfi_endproc
 326              	.LFE0:
 327              		.size	CPU_Init, .-CPU_Init
 328 0016 C046     		.section	.text.CPU_SW_Exception,"ax",%progbits
 329              		.align	2
 330              		.global	CPU_SW_Exception
 331              		.code	16
 332              		.thumb_func
 333              		.type	CPU_SW_Exception, %function
 334              	CPU_SW_Exception:
 335              	.LFB1:
 227:..\..\..\..\..\..\Software\uC-CPU/cpu_core.c **** 
 228:..\..\..\..\..\..\Software\uC-CPU/cpu_core.c **** 
 229:..\..\..\..\..\..\Software\uC-CPU/cpu_core.c **** /*
 230:..\..\..\..\..\..\Software\uC-CPU/cpu_core.c **** ***************************************************************************************************
 231:..\..\..\..\..\..\Software\uC-CPU/cpu_core.c **** *                                         CPU_SW_Exception()
 232:..\..\..\..\..\..\Software\uC-CPU/cpu_core.c **** *
 233:..\..\..\..\..\..\Software\uC-CPU/cpu_core.c **** * Description : Trap unrecoverable software exception.
 234:..\..\..\..\..\..\Software\uC-CPU/cpu_core.c **** *
 235:..\..\..\..\..\..\Software\uC-CPU/cpu_core.c **** * Argument(s) : none.
ARM GAS  C:\Users\ADMINI~1\AppData\Local\Temp\ccaBZmtr.s 			page 11


 236:..\..\..\..\..\..\Software\uC-CPU/cpu_core.c **** *
 237:..\..\..\..\..\..\Software\uC-CPU/cpu_core.c **** * Return(s)   : none.
 238:..\..\..\..\..\..\Software\uC-CPU/cpu_core.c **** *
 239:..\..\..\..\..\..\Software\uC-CPU/cpu_core.c **** * Caller(s)   : various.
 240:..\..\..\..\..\..\Software\uC-CPU/cpu_core.c **** *
 241:..\..\..\..\..\..\Software\uC-CPU/cpu_core.c **** * Note(s)     : (1) CPU_SW_Exception() deadlocks the current code execution -- whether multi-tasked
 242:..\..\..\..\..\..\Software\uC-CPU/cpu_core.c **** *                   -processed/-threaded or single-threaded -- when the current code execution cann
 243:..\..\..\..\..\..\Software\uC-CPU/cpu_core.c **** *                   gracefully recover or report a fault or exception condition.
 244:..\..\..\..\..\..\Software\uC-CPU/cpu_core.c **** *
 245:..\..\..\..\..\..\Software\uC-CPU/cpu_core.c **** *                   See also 'cpu_core.h  CPU_SW_EXCEPTION()  Note #1'.
 246:..\..\..\..\..\..\Software\uC-CPU/cpu_core.c **** ***************************************************************************************************
 247:..\..\..\..\..\..\Software\uC-CPU/cpu_core.c **** */
 248:..\..\..\..\..\..\Software\uC-CPU/cpu_core.c **** 
 249:..\..\..\..\..\..\Software\uC-CPU/cpu_core.c **** void  CPU_SW_Exception (void)
 250:..\..\..\..\..\..\Software\uC-CPU/cpu_core.c **** {
 336              		.loc 1 250 0
 337              		.cfi_startproc
 338              		@ args = 0, pretend = 0, frame = 0
 339              		@ frame_needed = 1, uses_anonymous_args = 0
 340 0000 80B5     		push	{r7, lr}
 341              		.cfi_def_cfa_offset 8
 342              		.cfi_offset 7, -8
 343              		.cfi_offset 14, -4
 344 0002 00AF     		add	r7, sp, #0
 345              		.cfi_def_cfa_register 7
 346              	.L3:
 251:..\..\..\..\..\..\Software\uC-CPU/cpu_core.c ****     while (DEF_ON) {
 252:..\..\..\..\..\..\Software\uC-CPU/cpu_core.c ****         ;
 253:..\..\..\..\..\..\Software\uC-CPU/cpu_core.c ****     }
 347              		.loc 1 253 0 discriminator 1
 348 0004 FEE7     		b	.L3
 349              		.cfi_endproc
 350              	.LFE1:
 351              		.size	CPU_SW_Exception, .-CPU_SW_Exception
 352 0006 C046     		.section	.text.CPU_NameClr,"ax",%progbits
 353              		.align	2
 354              		.global	CPU_NameClr
 355              		.code	16
 356              		.thumb_func
 357              		.type	CPU_NameClr, %function
 358              	CPU_NameClr:
 359              	.LFB2:
 254:..\..\..\..\..\..\Software\uC-CPU/cpu_core.c **** }
 255:..\..\..\..\..\..\Software\uC-CPU/cpu_core.c **** 
 256:..\..\..\..\..\..\Software\uC-CPU/cpu_core.c **** 
 257:..\..\..\..\..\..\Software\uC-CPU/cpu_core.c **** /*
 258:..\..\..\..\..\..\Software\uC-CPU/cpu_core.c **** ***************************************************************************************************
 259:..\..\..\..\..\..\Software\uC-CPU/cpu_core.c **** *                                            CPU_NameClr()
 260:..\..\..\..\..\..\Software\uC-CPU/cpu_core.c **** *
 261:..\..\..\..\..\..\Software\uC-CPU/cpu_core.c **** * Description : Clear CPU Name.
 262:..\..\..\..\..\..\Software\uC-CPU/cpu_core.c **** *
 263:..\..\..\..\..\..\Software\uC-CPU/cpu_core.c **** * Argument(s) : none.
 264:..\..\..\..\..\..\Software\uC-CPU/cpu_core.c **** *
 265:..\..\..\..\..\..\Software\uC-CPU/cpu_core.c **** * Return(s)   : none.
 266:..\..\..\..\..\..\Software\uC-CPU/cpu_core.c **** *
 267:..\..\..\..\..\..\Software\uC-CPU/cpu_core.c **** * Caller(s)   : CPU_NameInit(),
 268:..\..\..\..\..\..\Software\uC-CPU/cpu_core.c **** *               Application.
ARM GAS  C:\Users\ADMINI~1\AppData\Local\Temp\ccaBZmtr.s 			page 12


 269:..\..\..\..\..\..\Software\uC-CPU/cpu_core.c **** *
 270:..\..\..\..\..\..\Software\uC-CPU/cpu_core.c **** *               This function is a CPU module application programming interface (API) function & MA
 271:..\..\..\..\..\..\Software\uC-CPU/cpu_core.c **** *               called by application function(s).
 272:..\..\..\..\..\..\Software\uC-CPU/cpu_core.c **** *
 273:..\..\..\..\..\..\Software\uC-CPU/cpu_core.c **** * Note(s)     : none.
 274:..\..\..\..\..\..\Software\uC-CPU/cpu_core.c **** ***************************************************************************************************
 275:..\..\..\..\..\..\Software\uC-CPU/cpu_core.c **** */
 276:..\..\..\..\..\..\Software\uC-CPU/cpu_core.c **** 
 277:..\..\..\..\..\..\Software\uC-CPU/cpu_core.c **** #if (CPU_CFG_NAME_EN == DEF_ENABLED)
 278:..\..\..\..\..\..\Software\uC-CPU/cpu_core.c **** void  CPU_NameClr (void)
 279:..\..\..\..\..\..\Software\uC-CPU/cpu_core.c **** {
 360              		.loc 1 279 0
 361              		.cfi_startproc
 362              		@ args = 0, pretend = 0, frame = 8
 363              		@ frame_needed = 1, uses_anonymous_args = 0
 364 0000 80B5     		push	{r7, lr}
 365              		.cfi_def_cfa_offset 8
 366              		.cfi_offset 7, -8
 367              		.cfi_offset 14, -4
 368 0002 82B0     		sub	sp, sp, #8
 369              		.cfi_def_cfa_offset 16
 370 0004 00AF     		add	r7, sp, #0
 371              		.cfi_def_cfa_register 7
 280:..\..\..\..\..\..\Software\uC-CPU/cpu_core.c ****     CPU_SR_ALLOC();
 372              		.loc 1 280 0
 373 0006 0023     		movs	r3, #0
 374 0008 7B60     		str	r3, [r7, #4]
 281:..\..\..\..\..\..\Software\uC-CPU/cpu_core.c **** 
 282:..\..\..\..\..\..\Software\uC-CPU/cpu_core.c **** 
 283:..\..\..\..\..\..\Software\uC-CPU/cpu_core.c ****     CPU_CRITICAL_ENTER();
 375              		.loc 1 283 0
 376 000a FFF7FEFF 		bl	CPU_SR_Save
 377 000e 0300     		movs	r3, r0
 378 0010 7B60     		str	r3, [r7, #4]
 379 0012 FFF7FEFF 		bl	CPU_IntDisMeasStart
 284:..\..\..\..\..\..\Software\uC-CPU/cpu_core.c ****     Mem_Clr((void     *)&CPU_Name[0],
 380              		.loc 1 284 0
 381 0016 074B     		ldr	r3, .L5
 382 0018 1021     		movs	r1, #16
 383 001a 1800     		movs	r0, r3
 384 001c FFF7FEFF 		bl	Mem_Clr
 285:..\..\..\..\..\..\Software\uC-CPU/cpu_core.c ****             (CPU_SIZE_T) CPU_CFG_NAME_SIZE);
 286:..\..\..\..\..\..\Software\uC-CPU/cpu_core.c ****     CPU_CRITICAL_EXIT();
 385              		.loc 1 286 0
 386 0020 FFF7FEFF 		bl	CPU_IntDisMeasStop
 387 0024 7B68     		ldr	r3, [r7, #4]
 388 0026 1800     		movs	r0, r3
 389 0028 FFF7FEFF 		bl	CPU_SR_Restore
 287:..\..\..\..\..\..\Software\uC-CPU/cpu_core.c **** }
 390              		.loc 1 287 0
 391 002c C046     		nop
 392 002e BD46     		mov	sp, r7
 393 0030 02B0     		add	sp, sp, #8
 394              		@ sp needed
 395 0032 80BD     		pop	{r7, pc}
 396              	.L6:
 397              		.align	2
ARM GAS  C:\Users\ADMINI~1\AppData\Local\Temp\ccaBZmtr.s 			page 13


 398              	.L5:
 399 0034 00000000 		.word	CPU_Name
 400              		.cfi_endproc
 401              	.LFE2:
 402              		.size	CPU_NameClr, .-CPU_NameClr
 403              		.section	.text.CPU_NameGet,"ax",%progbits
 404              		.align	2
 405              		.global	CPU_NameGet
 406              		.code	16
 407              		.thumb_func
 408              		.type	CPU_NameGet, %function
 409              	CPU_NameGet:
 410              	.LFB3:
 288:..\..\..\..\..\..\Software\uC-CPU/cpu_core.c **** #endif
 289:..\..\..\..\..\..\Software\uC-CPU/cpu_core.c **** 
 290:..\..\..\..\..\..\Software\uC-CPU/cpu_core.c **** 
 291:..\..\..\..\..\..\Software\uC-CPU/cpu_core.c **** /*
 292:..\..\..\..\..\..\Software\uC-CPU/cpu_core.c **** ***************************************************************************************************
 293:..\..\..\..\..\..\Software\uC-CPU/cpu_core.c **** *                                            CPU_NameGet()
 294:..\..\..\..\..\..\Software\uC-CPU/cpu_core.c **** *
 295:..\..\..\..\..\..\Software\uC-CPU/cpu_core.c **** * Description : Get CPU host name.
 296:..\..\..\..\..\..\Software\uC-CPU/cpu_core.c **** *
 297:..\..\..\..\..\..\Software\uC-CPU/cpu_core.c **** * Argument(s) : p_name      Pointer to an ASCII character array that will receive the return CPU ho
 298:..\..\..\..\..\..\Software\uC-CPU/cpu_core.c **** *                               name ASCII string from this function (see Note #1).
 299:..\..\..\..\..\..\Software\uC-CPU/cpu_core.c **** *
 300:..\..\..\..\..\..\Software\uC-CPU/cpu_core.c **** *               p_err       Pointer to variable that will receive the return error code from this f
 301:..\..\..\..\..\..\Software\uC-CPU/cpu_core.c **** *
 302:..\..\..\..\..\..\Software\uC-CPU/cpu_core.c **** *                               CPU_ERR_NONE                    CPU host name successfully returned
 303:..\..\..\..\..\..\Software\uC-CPU/cpu_core.c **** *                               CPU_ERR_NULL_PTR                Argument 'p_name' passed a NULL poi
 304:..\..\..\..\..\..\Software\uC-CPU/cpu_core.c **** *
 305:..\..\..\..\..\..\Software\uC-CPU/cpu_core.c **** * Return(s)   : none.
 306:..\..\..\..\..\..\Software\uC-CPU/cpu_core.c **** *
 307:..\..\..\..\..\..\Software\uC-CPU/cpu_core.c **** * Caller(s)   : Application.
 308:..\..\..\..\..\..\Software\uC-CPU/cpu_core.c **** *
 309:..\..\..\..\..\..\Software\uC-CPU/cpu_core.c **** *               This function is a CPU module application programming interface (API) function & MA
 310:..\..\..\..\..\..\Software\uC-CPU/cpu_core.c **** *               be called by application function(s).
 311:..\..\..\..\..\..\Software\uC-CPU/cpu_core.c **** *
 312:..\..\..\..\..\..\Software\uC-CPU/cpu_core.c **** * Note(s)     : (1) The size of the ASCII character array that will receive the return CPU host nam
 313:..\..\..\..\..\..\Software\uC-CPU/cpu_core.c **** *                   ASCII string :
 314:..\..\..\..\..\..\Software\uC-CPU/cpu_core.c **** *
 315:..\..\..\..\..\..\Software\uC-CPU/cpu_core.c **** *                   (a) MUST   be greater than or equal to the current CPU host name's ASCII string
 316:..\..\..\..\..\..\Software\uC-CPU/cpu_core.c **** *                           size including the terminating NULL character;
 317:..\..\..\..\..\..\Software\uC-CPU/cpu_core.c **** *                   (b) SHOULD be greater than or equal to CPU_CFG_NAME_SIZE
 318:..\..\..\..\..\..\Software\uC-CPU/cpu_core.c **** ***************************************************************************************************
 319:..\..\..\..\..\..\Software\uC-CPU/cpu_core.c **** */
 320:..\..\..\..\..\..\Software\uC-CPU/cpu_core.c **** 
 321:..\..\..\..\..\..\Software\uC-CPU/cpu_core.c **** #if (CPU_CFG_NAME_EN == DEF_ENABLED)
 322:..\..\..\..\..\..\Software\uC-CPU/cpu_core.c **** void  CPU_NameGet (CPU_CHAR  *p_name,
 323:..\..\..\..\..\..\Software\uC-CPU/cpu_core.c ****                    CPU_ERR   *p_err)
 324:..\..\..\..\..\..\Software\uC-CPU/cpu_core.c **** {
 411              		.loc 1 324 0
 412              		.cfi_startproc
 413              		@ args = 0, pretend = 0, frame = 16
 414              		@ frame_needed = 1, uses_anonymous_args = 0
 415 0000 80B5     		push	{r7, lr}
 416              		.cfi_def_cfa_offset 8
 417              		.cfi_offset 7, -8
ARM GAS  C:\Users\ADMINI~1\AppData\Local\Temp\ccaBZmtr.s 			page 14


 418              		.cfi_offset 14, -4
 419 0002 84B0     		sub	sp, sp, #16
 420              		.cfi_def_cfa_offset 24
 421 0004 00AF     		add	r7, sp, #0
 422              		.cfi_def_cfa_register 7
 423 0006 7860     		str	r0, [r7, #4]
 424 0008 3960     		str	r1, [r7]
 325:..\..\..\..\..\..\Software\uC-CPU/cpu_core.c ****     CPU_SR_ALLOC();
 425              		.loc 1 325 0
 426 000a 0023     		movs	r3, #0
 427 000c FB60     		str	r3, [r7, #12]
 326:..\..\..\..\..\..\Software\uC-CPU/cpu_core.c **** 
 327:..\..\..\..\..\..\Software\uC-CPU/cpu_core.c **** 
 328:..\..\..\..\..\..\Software\uC-CPU/cpu_core.c ****     if (p_err == (CPU_ERR *)0) {
 428              		.loc 1 328 0
 429 000e 3B68     		ldr	r3, [r7]
 430 0010 002B     		cmp	r3, #0
 431 0012 01D1     		bne	.L8
 329:..\..\..\..\..\..\Software\uC-CPU/cpu_core.c ****         CPU_SW_EXCEPTION(;);
 432              		.loc 1 329 0
 433 0014 FFF7FEFF 		bl	CPU_SW_Exception
 434              	.L8:
 330:..\..\..\..\..\..\Software\uC-CPU/cpu_core.c ****     }
 331:..\..\..\..\..\..\Software\uC-CPU/cpu_core.c **** 
 332:..\..\..\..\..\..\Software\uC-CPU/cpu_core.c ****     if (p_name == (CPU_CHAR *)0) {
 435              		.loc 1 332 0
 436 0018 7B68     		ldr	r3, [r7, #4]
 437 001a 002B     		cmp	r3, #0
 438 001c 03D1     		bne	.L9
 333:..\..\..\..\..\..\Software\uC-CPU/cpu_core.c ****        *p_err = CPU_ERR_NULL_PTR;
 439              		.loc 1 333 0
 440 001e 3B68     		ldr	r3, [r7]
 441 0020 0A22     		movs	r2, #10
 442 0022 1A80     		strh	r2, [r3]
 334:..\..\..\..\..\..\Software\uC-CPU/cpu_core.c ****         return;
 443              		.loc 1 334 0
 444 0024 14E0     		b	.L7
 445              	.L9:
 335:..\..\..\..\..\..\Software\uC-CPU/cpu_core.c ****     }
 336:..\..\..\..\..\..\Software\uC-CPU/cpu_core.c **** 
 337:..\..\..\..\..\..\Software\uC-CPU/cpu_core.c ****     CPU_CRITICAL_ENTER();
 446              		.loc 1 337 0
 447 0026 FFF7FEFF 		bl	CPU_SR_Save
 448 002a 0300     		movs	r3, r0
 449 002c FB60     		str	r3, [r7, #12]
 450 002e FFF7FEFF 		bl	CPU_IntDisMeasStart
 338:..\..\..\..\..\..\Software\uC-CPU/cpu_core.c ****    (void)Str_Copy_N(p_name,
 451              		.loc 1 338 0
 452 0032 0949     		ldr	r1, .L11
 453 0034 7B68     		ldr	r3, [r7, #4]
 454 0036 1022     		movs	r2, #16
 455 0038 1800     		movs	r0, r3
 456 003a FFF7FEFF 		bl	Str_Copy_N
 339:..\..\..\..\..\..\Software\uC-CPU/cpu_core.c ****                    &CPU_Name[0],
 340:..\..\..\..\..\..\Software\uC-CPU/cpu_core.c ****                     CPU_CFG_NAME_SIZE);
 341:..\..\..\..\..\..\Software\uC-CPU/cpu_core.c ****     CPU_CRITICAL_EXIT();
 457              		.loc 1 341 0
ARM GAS  C:\Users\ADMINI~1\AppData\Local\Temp\ccaBZmtr.s 			page 15


 458 003e FFF7FEFF 		bl	CPU_IntDisMeasStop
 459 0042 FB68     		ldr	r3, [r7, #12]
 460 0044 1800     		movs	r0, r3
 461 0046 FFF7FEFF 		bl	CPU_SR_Restore
 342:..\..\..\..\..\..\Software\uC-CPU/cpu_core.c **** 
 343:..\..\..\..\..\..\Software\uC-CPU/cpu_core.c ****    *p_err = CPU_ERR_NONE;
 462              		.loc 1 343 0
 463 004a 3B68     		ldr	r3, [r7]
 464 004c 0022     		movs	r2, #0
 465 004e 1A80     		strh	r2, [r3]
 466              	.L7:
 344:..\..\..\..\..\..\Software\uC-CPU/cpu_core.c **** }
 467              		.loc 1 344 0
 468 0050 BD46     		mov	sp, r7
 469 0052 04B0     		add	sp, sp, #16
 470              		@ sp needed
 471 0054 80BD     		pop	{r7, pc}
 472              	.L12:
 473 0056 C046     		.align	2
 474              	.L11:
 475 0058 00000000 		.word	CPU_Name
 476              		.cfi_endproc
 477              	.LFE3:
 478              		.size	CPU_NameGet, .-CPU_NameGet
 479              		.section	.text.CPU_NameSet,"ax",%progbits
 480              		.align	2
 481              		.global	CPU_NameSet
 482              		.code	16
 483              		.thumb_func
 484              		.type	CPU_NameSet, %function
 485              	CPU_NameSet:
 486              	.LFB4:
 345:..\..\..\..\..\..\Software\uC-CPU/cpu_core.c **** #endif
 346:..\..\..\..\..\..\Software\uC-CPU/cpu_core.c **** 
 347:..\..\..\..\..\..\Software\uC-CPU/cpu_core.c **** 
 348:..\..\..\..\..\..\Software\uC-CPU/cpu_core.c **** /*
 349:..\..\..\..\..\..\Software\uC-CPU/cpu_core.c **** ***************************************************************************************************
 350:..\..\..\..\..\..\Software\uC-CPU/cpu_core.c **** *                                            CPU_NameSet()
 351:..\..\..\..\..\..\Software\uC-CPU/cpu_core.c **** *
 352:..\..\..\..\..\..\Software\uC-CPU/cpu_core.c **** * Description : Set CPU host name.
 353:..\..\..\..\..\..\Software\uC-CPU/cpu_core.c **** *
 354:..\..\..\..\..\..\Software\uC-CPU/cpu_core.c **** * Argument(s) : p_name      Pointer to CPU host name to set.
 355:..\..\..\..\..\..\Software\uC-CPU/cpu_core.c **** *
 356:..\..\..\..\..\..\Software\uC-CPU/cpu_core.c **** *               p_err       Pointer to variable that will receive the return error code from this f
 357:..\..\..\..\..\..\Software\uC-CPU/cpu_core.c **** *
 358:..\..\..\..\..\..\Software\uC-CPU/cpu_core.c **** *                               CPU_ERR_NONE                    CPU host name successfully set.
 359:..\..\..\..\..\..\Software\uC-CPU/cpu_core.c **** *                               CPU_ERR_NULL_PTR                Argument 'p_name' passed a NULL poi
 360:..\..\..\..\..\..\Software\uC-CPU/cpu_core.c **** *                               CPU_ERR_NAME_SIZE               Invalid CPU host name size (see Not
 361:..\..\..\..\..\..\Software\uC-CPU/cpu_core.c **** *
 362:..\..\..\..\..\..\Software\uC-CPU/cpu_core.c **** * Return(s)   : none.
 363:..\..\..\..\..\..\Software\uC-CPU/cpu_core.c **** *
 364:..\..\..\..\..\..\Software\uC-CPU/cpu_core.c **** * Caller(s)   : Application.
 365:..\..\..\..\..\..\Software\uC-CPU/cpu_core.c **** *
 366:..\..\..\..\..\..\Software\uC-CPU/cpu_core.c **** *               This function is a CPU module application programming interface (API) function & MA
 367:..\..\..\..\..\..\Software\uC-CPU/cpu_core.c **** *               called by application function(s).
 368:..\..\..\..\..\..\Software\uC-CPU/cpu_core.c **** *
 369:..\..\..\..\..\..\Software\uC-CPU/cpu_core.c **** * Note(s)     : (1) 'p_name' ASCII string size, including the terminating NULL character, MUST be l
ARM GAS  C:\Users\ADMINI~1\AppData\Local\Temp\ccaBZmtr.s 			page 16


 370:..\..\..\..\..\..\Software\uC-CPU/cpu_core.c **** *                    than or equal to CPU_CFG_NAME_SIZE.
 371:..\..\..\..\..\..\Software\uC-CPU/cpu_core.c **** ***************************************************************************************************
 372:..\..\..\..\..\..\Software\uC-CPU/cpu_core.c **** */
 373:..\..\..\..\..\..\Software\uC-CPU/cpu_core.c **** 
 374:..\..\..\..\..\..\Software\uC-CPU/cpu_core.c **** #if (CPU_CFG_NAME_EN == DEF_ENABLED)
 375:..\..\..\..\..\..\Software\uC-CPU/cpu_core.c **** void  CPU_NameSet (const  CPU_CHAR  *p_name,
 376:..\..\..\..\..\..\Software\uC-CPU/cpu_core.c ****                           CPU_ERR   *p_err)
 377:..\..\..\..\..\..\Software\uC-CPU/cpu_core.c **** {
 487              		.loc 1 377 0
 488              		.cfi_startproc
 489              		@ args = 0, pretend = 0, frame = 16
 490              		@ frame_needed = 1, uses_anonymous_args = 0
 491 0000 80B5     		push	{r7, lr}
 492              		.cfi_def_cfa_offset 8
 493              		.cfi_offset 7, -8
 494              		.cfi_offset 14, -4
 495 0002 84B0     		sub	sp, sp, #16
 496              		.cfi_def_cfa_offset 24
 497 0004 00AF     		add	r7, sp, #0
 498              		.cfi_def_cfa_register 7
 499 0006 7860     		str	r0, [r7, #4]
 500 0008 3960     		str	r1, [r7]
 378:..\..\..\..\..\..\Software\uC-CPU/cpu_core.c ****     CPU_SIZE_T  len;
 379:..\..\..\..\..\..\Software\uC-CPU/cpu_core.c ****     CPU_SR_ALLOC();
 501              		.loc 1 379 0
 502 000a 0023     		movs	r3, #0
 503 000c FB60     		str	r3, [r7, #12]
 380:..\..\..\..\..\..\Software\uC-CPU/cpu_core.c **** 
 381:..\..\..\..\..\..\Software\uC-CPU/cpu_core.c **** 
 382:..\..\..\..\..\..\Software\uC-CPU/cpu_core.c ****     if (p_err == (CPU_ERR *)0) {
 504              		.loc 1 382 0
 505 000e 3B68     		ldr	r3, [r7]
 506 0010 002B     		cmp	r3, #0
 507 0012 01D1     		bne	.L14
 383:..\..\..\..\..\..\Software\uC-CPU/cpu_core.c ****         CPU_SW_EXCEPTION(;);
 508              		.loc 1 383 0
 509 0014 FFF7FEFF 		bl	CPU_SW_Exception
 510              	.L14:
 384:..\..\..\..\..\..\Software\uC-CPU/cpu_core.c ****     }
 385:..\..\..\..\..\..\Software\uC-CPU/cpu_core.c **** 
 386:..\..\..\..\..\..\Software\uC-CPU/cpu_core.c ****     if (p_name == (const CPU_CHAR *)0) {
 511              		.loc 1 386 0
 512 0018 7B68     		ldr	r3, [r7, #4]
 513 001a 002B     		cmp	r3, #0
 514 001c 03D1     		bne	.L15
 387:..\..\..\..\..\..\Software\uC-CPU/cpu_core.c ****        *p_err = CPU_ERR_NULL_PTR;
 515              		.loc 1 387 0
 516 001e 3B68     		ldr	r3, [r7]
 517 0020 0A22     		movs	r2, #10
 518 0022 1A80     		strh	r2, [r3]
 388:..\..\..\..\..\..\Software\uC-CPU/cpu_core.c ****         return;
 519              		.loc 1 388 0
 520 0024 23E0     		b	.L13
 521              	.L15:
 389:..\..\..\..\..\..\Software\uC-CPU/cpu_core.c ****     }
 390:..\..\..\..\..\..\Software\uC-CPU/cpu_core.c **** 
 391:..\..\..\..\..\..\Software\uC-CPU/cpu_core.c ****     len = Str_Len_N(p_name,
ARM GAS  C:\Users\ADMINI~1\AppData\Local\Temp\ccaBZmtr.s 			page 17


 522              		.loc 1 391 0
 523 0026 7B68     		ldr	r3, [r7, #4]
 524 0028 1021     		movs	r1, #16
 525 002a 1800     		movs	r0, r3
 526 002c FFF7FEFF 		bl	Str_Len_N
 527 0030 0300     		movs	r3, r0
 528 0032 BB60     		str	r3, [r7, #8]
 392:..\..\..\..\..\..\Software\uC-CPU/cpu_core.c ****                     CPU_CFG_NAME_SIZE);
 393:..\..\..\..\..\..\Software\uC-CPU/cpu_core.c ****     if (len < CPU_CFG_NAME_SIZE) {                              /* If       cfg name len < max name
 529              		.loc 1 393 0
 530 0034 BB68     		ldr	r3, [r7, #8]
 531 0036 0F2B     		cmp	r3, #15
 532 0038 15D8     		bhi	.L17
 394:..\..\..\..\..\..\Software\uC-CPU/cpu_core.c ****         CPU_CRITICAL_ENTER();
 533              		.loc 1 394 0
 534 003a FFF7FEFF 		bl	CPU_SR_Save
 535 003e 0300     		movs	r3, r0
 536 0040 FB60     		str	r3, [r7, #12]
 537 0042 FFF7FEFF 		bl	CPU_IntDisMeasStart
 395:..\..\..\..\..\..\Software\uC-CPU/cpu_core.c ****        (void)Str_Copy_N(&CPU_Name[0],                           /* ... copy cfg name to CPU host na
 538              		.loc 1 395 0
 539 0046 7968     		ldr	r1, [r7, #4]
 540 0048 0A4B     		ldr	r3, .L18
 541 004a 1022     		movs	r2, #16
 542 004c 1800     		movs	r0, r3
 543 004e FFF7FEFF 		bl	Str_Copy_N
 396:..\..\..\..\..\..\Software\uC-CPU/cpu_core.c ****                          p_name,
 397:..\..\..\..\..\..\Software\uC-CPU/cpu_core.c ****                          CPU_CFG_NAME_SIZE);
 398:..\..\..\..\..\..\Software\uC-CPU/cpu_core.c ****         CPU_CRITICAL_EXIT();
 544              		.loc 1 398 0
 545 0052 FFF7FEFF 		bl	CPU_IntDisMeasStop
 546 0056 FB68     		ldr	r3, [r7, #12]
 547 0058 1800     		movs	r0, r3
 548 005a FFF7FEFF 		bl	CPU_SR_Restore
 399:..\..\..\..\..\..\Software\uC-CPU/cpu_core.c ****        *p_err = CPU_ERR_NONE;
 549              		.loc 1 399 0
 550 005e 3B68     		ldr	r3, [r7]
 551 0060 0022     		movs	r2, #0
 552 0062 1A80     		strh	r2, [r3]
 553 0064 03E0     		b	.L13
 554              	.L17:
 400:..\..\..\..\..\..\Software\uC-CPU/cpu_core.c **** 
 401:..\..\..\..\..\..\Software\uC-CPU/cpu_core.c ****     } else {
 402:..\..\..\..\..\..\Software\uC-CPU/cpu_core.c ****        *p_err = CPU_ERR_NAME_SIZE;
 555              		.loc 1 402 0
 556 0066 3B68     		ldr	r3, [r7]
 557 0068 FA22     		movs	r2, #250
 558 006a 9200     		lsls	r2, r2, #2
 559 006c 1A80     		strh	r2, [r3]
 560              	.L13:
 403:..\..\..\..\..\..\Software\uC-CPU/cpu_core.c ****     }
 404:..\..\..\..\..\..\Software\uC-CPU/cpu_core.c **** }
 561              		.loc 1 404 0
 562 006e BD46     		mov	sp, r7
 563 0070 04B0     		add	sp, sp, #16
 564              		@ sp needed
 565 0072 80BD     		pop	{r7, pc}
ARM GAS  C:\Users\ADMINI~1\AppData\Local\Temp\ccaBZmtr.s 			page 18


 566              	.L19:
 567              		.align	2
 568              	.L18:
 569 0074 00000000 		.word	CPU_Name
 570              		.cfi_endproc
 571              	.LFE4:
 572              		.size	CPU_NameSet, .-CPU_NameSet
 573              		.section	.text.CPU_TS_Get32,"ax",%progbits
 574              		.align	2
 575              		.global	CPU_TS_Get32
 576              		.code	16
 577              		.thumb_func
 578              		.type	CPU_TS_Get32, %function
 579              	CPU_TS_Get32:
 580              	.LFB5:
 405:..\..\..\..\..\..\Software\uC-CPU/cpu_core.c **** #endif
 406:..\..\..\..\..\..\Software\uC-CPU/cpu_core.c **** 
 407:..\..\..\..\..\..\Software\uC-CPU/cpu_core.c **** 
 408:..\..\..\..\..\..\Software\uC-CPU/cpu_core.c **** /*
 409:..\..\..\..\..\..\Software\uC-CPU/cpu_core.c **** ***************************************************************************************************
 410:..\..\..\..\..\..\Software\uC-CPU/cpu_core.c **** *                                           CPU_TS_Get32()
 411:..\..\..\..\..\..\Software\uC-CPU/cpu_core.c **** *
 412:..\..\..\..\..\..\Software\uC-CPU/cpu_core.c **** * Description : Get current 32-bit CPU timestamp.
 413:..\..\..\..\..\..\Software\uC-CPU/cpu_core.c **** *
 414:..\..\..\..\..\..\Software\uC-CPU/cpu_core.c **** * Argument(s) : none.
 415:..\..\..\..\..\..\Software\uC-CPU/cpu_core.c **** *
 416:..\..\..\..\..\..\Software\uC-CPU/cpu_core.c **** * Return(s)   : Current 32-bit CPU timestamp (in timestamp timer counts).
 417:..\..\..\..\..\..\Software\uC-CPU/cpu_core.c **** *
 418:..\..\..\..\..\..\Software\uC-CPU/cpu_core.c **** * Caller(s)   : Application.
 419:..\..\..\..\..\..\Software\uC-CPU/cpu_core.c **** *
 420:..\..\..\..\..\..\Software\uC-CPU/cpu_core.c **** *               This function is a CPU module application programming interface (API) function & MA
 421:..\..\..\..\..\..\Software\uC-CPU/cpu_core.c **** *               be called by application function(s).
 422:..\..\..\..\..\..\Software\uC-CPU/cpu_core.c **** *
 423:..\..\..\..\..\..\Software\uC-CPU/cpu_core.c **** * Note(s)     : (1) When applicable, the amount of time measured by CPU timestamps is calculated by
 424:..\..\..\..\..\..\Software\uC-CPU/cpu_core.c **** *                   either of the following equations :
 425:..\..\..\..\..\..\Software\uC-CPU/cpu_core.c **** *
 426:..\..\..\..\..\..\Software\uC-CPU/cpu_core.c **** *                       (a) Time measured  =  Number timer counts  *  Timer period
 427:..\..\..\..\..\..\Software\uC-CPU/cpu_core.c **** *
 428:..\..\..\..\..\..\Software\uC-CPU/cpu_core.c **** *                               where
 429:..\..\..\..\..\..\Software\uC-CPU/cpu_core.c **** *
 430:..\..\..\..\..\..\Software\uC-CPU/cpu_core.c **** *                                   Number timer counts     Number of timer counts measured
 431:..\..\..\..\..\..\Software\uC-CPU/cpu_core.c **** *                                   Timer period            Timer's period in some units of
 432:..\..\..\..\..\..\Software\uC-CPU/cpu_core.c **** *                                                               (fractional) seconds
 433:..\..\..\..\..\..\Software\uC-CPU/cpu_core.c **** *                                   Time measured           Amount of time measured, in same
 434:..\..\..\..\..\..\Software\uC-CPU/cpu_core.c **** *                                                               units of (fractional) seconds
 435:..\..\..\..\..\..\Software\uC-CPU/cpu_core.c **** *                                                               as the Timer period
 436:..\..\..\..\..\..\Software\uC-CPU/cpu_core.c **** *
 437:..\..\..\..\..\..\Software\uC-CPU/cpu_core.c **** *                                              Number timer counts
 438:..\..\..\..\..\..\Software\uC-CPU/cpu_core.c **** *                       (b) Time measured  =  ---------------------
 439:..\..\..\..\..\..\Software\uC-CPU/cpu_core.c **** *                                                Timer frequency
 440:..\..\..\..\..\..\Software\uC-CPU/cpu_core.c **** *
 441:..\..\..\..\..\..\Software\uC-CPU/cpu_core.c **** *                               where
 442:..\..\..\..\..\..\Software\uC-CPU/cpu_core.c **** *
 443:..\..\..\..\..\..\Software\uC-CPU/cpu_core.c **** *                                   Number timer counts     Number of timer counts measured
 444:..\..\..\..\..\..\Software\uC-CPU/cpu_core.c **** *                                   Timer frequency         Timer's frequency in some units
 445:..\..\..\..\..\..\Software\uC-CPU/cpu_core.c **** *                                                               of counts per second
 446:..\..\..\..\..\..\Software\uC-CPU/cpu_core.c **** *                                   Time measured           Amount of time measured, in seconds
ARM GAS  C:\Users\ADMINI~1\AppData\Local\Temp\ccaBZmtr.s 			page 19


 447:..\..\..\..\..\..\Software\uC-CPU/cpu_core.c **** *
 448:..\..\..\..\..\..\Software\uC-CPU/cpu_core.c **** *                   See also 'cpu_core.h  FUNCTION PROTOTYPES  CPU_TS_TmrRd()  Note #2c1'.
 449:..\..\..\..\..\..\Software\uC-CPU/cpu_core.c **** *
 450:..\..\..\..\..\..\Software\uC-CPU/cpu_core.c **** *               (2) In case the CPU timestamp timer has lower precision than the 32-bit CPU timesta
 451:..\..\..\..\..\..\Software\uC-CPU/cpu_core.c **** *                   its precision is extended via periodic updates by accumulating the deltas of th
 452:..\..\..\..\..\..\Software\uC-CPU/cpu_core.c **** *                   timestamp timer count values into the higher-precision 32-bit CPU timestamp.
 453:..\..\..\..\..\..\Software\uC-CPU/cpu_core.c **** *
 454:..\..\..\..\..\..\Software\uC-CPU/cpu_core.c **** *               (3) After initialization, 'CPU_TS_32_Accum' & 'CPU_TS_32_TmrPrev' MUST ALWAYS
 455:..\..\..\..\..\..\Software\uC-CPU/cpu_core.c **** *                   be accessed AND updated exclusively with interrupts disabled -- but NOT
 456:..\..\..\..\..\..\Software\uC-CPU/cpu_core.c **** *                   with critical sections.
 457:..\..\..\..\..\..\Software\uC-CPU/cpu_core.c **** ***************************************************************************************************
 458:..\..\..\..\..\..\Software\uC-CPU/cpu_core.c **** */
 459:..\..\..\..\..\..\Software\uC-CPU/cpu_core.c **** 
 460:..\..\..\..\..\..\Software\uC-CPU/cpu_core.c **** #if (CPU_CFG_TS_32_EN == DEF_ENABLED)
 461:..\..\..\..\..\..\Software\uC-CPU/cpu_core.c **** CPU_TS32  CPU_TS_Get32 (void)
 462:..\..\..\..\..\..\Software\uC-CPU/cpu_core.c **** {
 581              		.loc 1 462 0
 582              		.cfi_startproc
 583              		@ args = 0, pretend = 0, frame = 8
 584              		@ frame_needed = 1, uses_anonymous_args = 0
 585 0000 80B5     		push	{r7, lr}
 586              		.cfi_def_cfa_offset 8
 587              		.cfi_offset 7, -8
 588              		.cfi_offset 14, -4
 589 0002 82B0     		sub	sp, sp, #8
 590              		.cfi_def_cfa_offset 16
 591 0004 00AF     		add	r7, sp, #0
 592              		.cfi_def_cfa_register 7
 463:..\..\..\..\..\..\Software\uC-CPU/cpu_core.c ****     CPU_TS32    ts;
 464:..\..\..\..\..\..\Software\uC-CPU/cpu_core.c **** #if (CPU_CFG_TS_TMR_SIZE <  CPU_WORD_SIZE_32)
 465:..\..\..\..\..\..\Software\uC-CPU/cpu_core.c ****     CPU_TS_TMR  tmr_cur;
 466:..\..\..\..\..\..\Software\uC-CPU/cpu_core.c ****     CPU_TS_TMR  tmr_delta;
 467:..\..\..\..\..\..\Software\uC-CPU/cpu_core.c ****     CPU_SR_ALLOC();
 468:..\..\..\..\..\..\Software\uC-CPU/cpu_core.c **** #endif
 469:..\..\..\..\..\..\Software\uC-CPU/cpu_core.c **** 
 470:..\..\..\..\..\..\Software\uC-CPU/cpu_core.c **** 
 471:..\..\..\..\..\..\Software\uC-CPU/cpu_core.c **** #if (CPU_CFG_TS_TMR_SIZE >= CPU_WORD_SIZE_32)
 472:..\..\..\..\..\..\Software\uC-CPU/cpu_core.c ****     ts = (CPU_TS32)CPU_TS_TmrRd();                                  /* Get cur ts tmr val (in 32-bi
 593              		.loc 1 472 0
 594 0006 FFF7FEFF 		bl	CPU_TS_TmrRd
 595 000a 0300     		movs	r3, r0
 596 000c 7B60     		str	r3, [r7, #4]
 473:..\..\..\..\..\..\Software\uC-CPU/cpu_core.c **** 
 474:..\..\..\..\..\..\Software\uC-CPU/cpu_core.c **** #else
 475:..\..\..\..\..\..\Software\uC-CPU/cpu_core.c ****     CPU_INT_DIS();
 476:..\..\..\..\..\..\Software\uC-CPU/cpu_core.c ****     tmr_cur            = (CPU_TS_TMR) CPU_TS_TmrRd();               /* Get cur ts tmr val (in ts tm
 477:..\..\..\..\..\..\Software\uC-CPU/cpu_core.c ****     tmr_delta          = (CPU_TS_TMR)(tmr_cur - CPU_TS_32_TmrPrev); /* Calc      delta ts tmr cnts.
 478:..\..\..\..\..\..\Software\uC-CPU/cpu_core.c ****     CPU_TS_32_Accum   += (CPU_TS32  ) tmr_delta;                    /* Inc ts by delta ts tmr cnts 
 479:..\..\..\..\..\..\Software\uC-CPU/cpu_core.c ****     CPU_TS_32_TmrPrev  = (CPU_TS_TMR) tmr_cur;                      /* Save cur ts tmr cnts for nex
 480:..\..\..\..\..\..\Software\uC-CPU/cpu_core.c ****     ts                 = (CPU_TS32  ) CPU_TS_32_Accum;
 481:..\..\..\..\..\..\Software\uC-CPU/cpu_core.c ****     CPU_INT_EN();
 482:..\..\..\..\..\..\Software\uC-CPU/cpu_core.c **** #endif
 483:..\..\..\..\..\..\Software\uC-CPU/cpu_core.c **** 
 484:..\..\..\..\..\..\Software\uC-CPU/cpu_core.c ****     return (ts);
 597              		.loc 1 484 0
 598 000e 7B68     		ldr	r3, [r7, #4]
 485:..\..\..\..\..\..\Software\uC-CPU/cpu_core.c **** }
ARM GAS  C:\Users\ADMINI~1\AppData\Local\Temp\ccaBZmtr.s 			page 20


 599              		.loc 1 485 0
 600 0010 1800     		movs	r0, r3
 601 0012 BD46     		mov	sp, r7
 602 0014 02B0     		add	sp, sp, #8
 603              		@ sp needed
 604 0016 80BD     		pop	{r7, pc}
 605              		.cfi_endproc
 606              	.LFE5:
 607              		.size	CPU_TS_Get32, .-CPU_TS_Get32
 608              		.section	.text.CPU_TS_Update,"ax",%progbits
 609              		.align	2
 610              		.global	CPU_TS_Update
 611              		.code	16
 612              		.thumb_func
 613              		.type	CPU_TS_Update, %function
 614              	CPU_TS_Update:
 615              	.LFB6:
 486:..\..\..\..\..\..\Software\uC-CPU/cpu_core.c **** #endif
 487:..\..\..\..\..\..\Software\uC-CPU/cpu_core.c **** 
 488:..\..\..\..\..\..\Software\uC-CPU/cpu_core.c **** 
 489:..\..\..\..\..\..\Software\uC-CPU/cpu_core.c **** /*
 490:..\..\..\..\..\..\Software\uC-CPU/cpu_core.c **** ***************************************************************************************************
 491:..\..\..\..\..\..\Software\uC-CPU/cpu_core.c **** *                                           CPU_TS_Get64()
 492:..\..\..\..\..\..\Software\uC-CPU/cpu_core.c **** *
 493:..\..\..\..\..\..\Software\uC-CPU/cpu_core.c **** * Description : Get current 64-bit CPU timestamp.
 494:..\..\..\..\..\..\Software\uC-CPU/cpu_core.c **** *
 495:..\..\..\..\..\..\Software\uC-CPU/cpu_core.c **** * Argument(s) : none.
 496:..\..\..\..\..\..\Software\uC-CPU/cpu_core.c **** *
 497:..\..\..\..\..\..\Software\uC-CPU/cpu_core.c **** * Return(s)   : Current 64-bit CPU timestamp (in timestamp timer counts).
 498:..\..\..\..\..\..\Software\uC-CPU/cpu_core.c **** *
 499:..\..\..\..\..\..\Software\uC-CPU/cpu_core.c **** * Caller(s)   : Application.
 500:..\..\..\..\..\..\Software\uC-CPU/cpu_core.c **** *
 501:..\..\..\..\..\..\Software\uC-CPU/cpu_core.c **** *               This function is a CPU module application programming interface (API) function & MA
 502:..\..\..\..\..\..\Software\uC-CPU/cpu_core.c **** *               be called by application function(s).
 503:..\..\..\..\..\..\Software\uC-CPU/cpu_core.c **** *
 504:..\..\..\..\..\..\Software\uC-CPU/cpu_core.c **** * Note(s)     : (1) When applicable, the amount of time measured by CPU timestamps is calculated by
 505:..\..\..\..\..\..\Software\uC-CPU/cpu_core.c **** *                   either of the following equations :
 506:..\..\..\..\..\..\Software\uC-CPU/cpu_core.c **** *
 507:..\..\..\..\..\..\Software\uC-CPU/cpu_core.c **** *                       (a) Time measured  =  Number timer counts  *  Timer period
 508:..\..\..\..\..\..\Software\uC-CPU/cpu_core.c **** *
 509:..\..\..\..\..\..\Software\uC-CPU/cpu_core.c **** *                               where
 510:..\..\..\..\..\..\Software\uC-CPU/cpu_core.c **** *
 511:..\..\..\..\..\..\Software\uC-CPU/cpu_core.c **** *                                   Number timer counts     Number of timer counts measured
 512:..\..\..\..\..\..\Software\uC-CPU/cpu_core.c **** *                                   Timer period            Timer's period in some units of
 513:..\..\..\..\..\..\Software\uC-CPU/cpu_core.c **** *                                                               (fractional) seconds
 514:..\..\..\..\..\..\Software\uC-CPU/cpu_core.c **** *                                   Time measured           Amount of time measured, in same
 515:..\..\..\..\..\..\Software\uC-CPU/cpu_core.c **** *                                                               units of (fractional) seconds
 516:..\..\..\..\..\..\Software\uC-CPU/cpu_core.c **** *                                                               as the Timer period
 517:..\..\..\..\..\..\Software\uC-CPU/cpu_core.c **** *
 518:..\..\..\..\..\..\Software\uC-CPU/cpu_core.c **** *                                              Number timer counts
 519:..\..\..\..\..\..\Software\uC-CPU/cpu_core.c **** *                       (b) Time measured  =  ---------------------
 520:..\..\..\..\..\..\Software\uC-CPU/cpu_core.c **** *                                                Timer frequency
 521:..\..\..\..\..\..\Software\uC-CPU/cpu_core.c **** *
 522:..\..\..\..\..\..\Software\uC-CPU/cpu_core.c **** *                               where
 523:..\..\..\..\..\..\Software\uC-CPU/cpu_core.c **** *
 524:..\..\..\..\..\..\Software\uC-CPU/cpu_core.c **** *                                   Number timer counts     Number of timer counts measured
 525:..\..\..\..\..\..\Software\uC-CPU/cpu_core.c **** *                                   Timer frequency         Timer's frequency in some units
ARM GAS  C:\Users\ADMINI~1\AppData\Local\Temp\ccaBZmtr.s 			page 21


 526:..\..\..\..\..\..\Software\uC-CPU/cpu_core.c **** *                                                               of counts per second
 527:..\..\..\..\..\..\Software\uC-CPU/cpu_core.c **** *                                   Time measured           Amount of time measured, in seconds
 528:..\..\..\..\..\..\Software\uC-CPU/cpu_core.c **** *
 529:..\..\..\..\..\..\Software\uC-CPU/cpu_core.c **** *                   See also 'cpu_core.h  FUNCTION PROTOTYPES  CPU_TS_TmrRd()  Note #2c1'.
 530:..\..\..\..\..\..\Software\uC-CPU/cpu_core.c **** *
 531:..\..\..\..\..\..\Software\uC-CPU/cpu_core.c **** *               (2) In case the CPU timestamp timer has lower precision than the 64-bit CPU timesta
 532:..\..\..\..\..\..\Software\uC-CPU/cpu_core.c **** *                   its precision is extended via periodic updates by accumulating the deltas of th
 533:..\..\..\..\..\..\Software\uC-CPU/cpu_core.c **** *                   timestamp timer count values into the higher-precision 64-bit CPU timestamp.
 534:..\..\..\..\..\..\Software\uC-CPU/cpu_core.c **** *
 535:..\..\..\..\..\..\Software\uC-CPU/cpu_core.c **** *               (3) After initialization, 'CPU_TS_64_Accum' & 'CPU_TS_64_TmrPrev' MUST ALWAYS
 536:..\..\..\..\..\..\Software\uC-CPU/cpu_core.c **** *                   be accessed AND updated exclusively with interrupts disabled -- but NOT
 537:..\..\..\..\..\..\Software\uC-CPU/cpu_core.c **** *                   with critical sections.
 538:..\..\..\..\..\..\Software\uC-CPU/cpu_core.c **** ***************************************************************************************************
 539:..\..\..\..\..\..\Software\uC-CPU/cpu_core.c **** */
 540:..\..\..\..\..\..\Software\uC-CPU/cpu_core.c **** 
 541:..\..\..\..\..\..\Software\uC-CPU/cpu_core.c **** #if (CPU_CFG_TS_64_EN == DEF_ENABLED)
 542:..\..\..\..\..\..\Software\uC-CPU/cpu_core.c **** CPU_TS64  CPU_TS_Get64 (void)
 543:..\..\..\..\..\..\Software\uC-CPU/cpu_core.c **** {
 544:..\..\..\..\..\..\Software\uC-CPU/cpu_core.c ****     CPU_TS64    ts;
 545:..\..\..\..\..\..\Software\uC-CPU/cpu_core.c **** #if (CPU_CFG_TS_TMR_SIZE <  CPU_WORD_SIZE_64)
 546:..\..\..\..\..\..\Software\uC-CPU/cpu_core.c ****     CPU_TS_TMR  tmr_cur;
 547:..\..\..\..\..\..\Software\uC-CPU/cpu_core.c ****     CPU_TS_TMR  tmr_delta;
 548:..\..\..\..\..\..\Software\uC-CPU/cpu_core.c ****     CPU_SR_ALLOC();
 549:..\..\..\..\..\..\Software\uC-CPU/cpu_core.c **** #endif
 550:..\..\..\..\..\..\Software\uC-CPU/cpu_core.c **** 
 551:..\..\..\..\..\..\Software\uC-CPU/cpu_core.c **** 
 552:..\..\..\..\..\..\Software\uC-CPU/cpu_core.c **** #if (CPU_CFG_TS_TMR_SIZE >= CPU_WORD_SIZE_64)
 553:..\..\..\..\..\..\Software\uC-CPU/cpu_core.c ****     ts = (CPU_TS64)CPU_TS_TmrRd();                                  /* Get cur ts tmr val (in 64-bi
 554:..\..\..\..\..\..\Software\uC-CPU/cpu_core.c **** 
 555:..\..\..\..\..\..\Software\uC-CPU/cpu_core.c **** #else
 556:..\..\..\..\..\..\Software\uC-CPU/cpu_core.c ****     CPU_INT_DIS();
 557:..\..\..\..\..\..\Software\uC-CPU/cpu_core.c ****     tmr_cur            = (CPU_TS_TMR) CPU_TS_TmrRd();               /* Get cur ts tmr val (in ts tm
 558:..\..\..\..\..\..\Software\uC-CPU/cpu_core.c ****     tmr_delta          = (CPU_TS_TMR)(tmr_cur - CPU_TS_64_TmrPrev); /* Calc      delta ts tmr cnts.
 559:..\..\..\..\..\..\Software\uC-CPU/cpu_core.c ****     CPU_TS_64_Accum   += (CPU_TS64  ) tmr_delta;                    /* Inc ts by delta ts tmr cnts 
 560:..\..\..\..\..\..\Software\uC-CPU/cpu_core.c ****     CPU_TS_64_TmrPrev  = (CPU_TS_TMR) tmr_cur;                      /* Save cur ts tmr cnts for nex
 561:..\..\..\..\..\..\Software\uC-CPU/cpu_core.c ****     ts                 = (CPU_TS64  ) CPU_TS_64_Accum;
 562:..\..\..\..\..\..\Software\uC-CPU/cpu_core.c ****     CPU_INT_EN();
 563:..\..\..\..\..\..\Software\uC-CPU/cpu_core.c **** #endif
 564:..\..\..\..\..\..\Software\uC-CPU/cpu_core.c **** 
 565:..\..\..\..\..\..\Software\uC-CPU/cpu_core.c ****     return (ts);
 566:..\..\..\..\..\..\Software\uC-CPU/cpu_core.c **** }
 567:..\..\..\..\..\..\Software\uC-CPU/cpu_core.c **** #endif
 568:..\..\..\..\..\..\Software\uC-CPU/cpu_core.c **** 
 569:..\..\..\..\..\..\Software\uC-CPU/cpu_core.c **** 
 570:..\..\..\..\..\..\Software\uC-CPU/cpu_core.c **** /*
 571:..\..\..\..\..\..\Software\uC-CPU/cpu_core.c **** ***************************************************************************************************
 572:..\..\..\..\..\..\Software\uC-CPU/cpu_core.c **** *                                           CPU_TS_Update()
 573:..\..\..\..\..\..\Software\uC-CPU/cpu_core.c **** *
 574:..\..\..\..\..\..\Software\uC-CPU/cpu_core.c **** * Description : Update current CPU timestamp(s).
 575:..\..\..\..\..\..\Software\uC-CPU/cpu_core.c **** *
 576:..\..\..\..\..\..\Software\uC-CPU/cpu_core.c **** * Argument(s) : none.
 577:..\..\..\..\..\..\Software\uC-CPU/cpu_core.c **** *
 578:..\..\..\..\..\..\Software\uC-CPU/cpu_core.c **** * Return(s)   : none.
 579:..\..\..\..\..\..\Software\uC-CPU/cpu_core.c **** *
 580:..\..\..\..\..\..\Software\uC-CPU/cpu_core.c **** * Caller(s)   : Application/BSP periodic time handler (see Note #1).
 581:..\..\..\..\..\..\Software\uC-CPU/cpu_core.c **** *
 582:..\..\..\..\..\..\Software\uC-CPU/cpu_core.c **** *               This function is a CPU timestamp BSP function & SHOULD be called only by appropriat
ARM GAS  C:\Users\ADMINI~1\AppData\Local\Temp\ccaBZmtr.s 			page 22


 583:..\..\..\..\..\..\Software\uC-CPU/cpu_core.c **** *               application/BSP function(s).
 584:..\..\..\..\..\..\Software\uC-CPU/cpu_core.c **** *
 585:..\..\..\..\..\..\Software\uC-CPU/cpu_core.c **** * Note(s)     : (1) (a) CPU timestamp(s) MUST be updated periodically by some application (or BSP) 
 586:..\..\..\..\..\..\Software\uC-CPU/cpu_core.c **** *                       handler in order to (adequately) maintain CPU timestamp(s)' time.
 587:..\..\..\..\..\..\Software\uC-CPU/cpu_core.c **** *
 588:..\..\..\..\..\..\Software\uC-CPU/cpu_core.c **** *                   (b) CPU timestamp(s) MUST be updated more frequently than the CPU timestamp tim
 589:..\..\..\..\..\..\Software\uC-CPU/cpu_core.c **** *                       overflows; otherwise, CPU timestamp(s) will lose time.
 590:..\..\..\..\..\..\Software\uC-CPU/cpu_core.c **** *
 591:..\..\..\..\..\..\Software\uC-CPU/cpu_core.c **** *                       See also 'cpu_core.h  FUNCTION PROTOTYPES  CPU_TS_TmrRd()  Note #2c2'.
 592:..\..\..\..\..\..\Software\uC-CPU/cpu_core.c **** ***************************************************************************************************
 593:..\..\..\..\..\..\Software\uC-CPU/cpu_core.c **** */
 594:..\..\..\..\..\..\Software\uC-CPU/cpu_core.c **** 
 595:..\..\..\..\..\..\Software\uC-CPU/cpu_core.c **** #if (CPU_CFG_TS_EN == DEF_ENABLED)
 596:..\..\..\..\..\..\Software\uC-CPU/cpu_core.c **** void  CPU_TS_Update (void)
 597:..\..\..\..\..\..\Software\uC-CPU/cpu_core.c **** {
 616              		.loc 1 597 0
 617              		.cfi_startproc
 618              		@ args = 0, pretend = 0, frame = 0
 619              		@ frame_needed = 1, uses_anonymous_args = 0
 620 0000 80B5     		push	{r7, lr}
 621              		.cfi_def_cfa_offset 8
 622              		.cfi_offset 7, -8
 623              		.cfi_offset 14, -4
 624 0002 00AF     		add	r7, sp, #0
 625              		.cfi_def_cfa_register 7
 598:..\..\..\..\..\..\Software\uC-CPU/cpu_core.c **** #if ((CPU_CFG_TS_32_EN    == DEF_ENABLED)  && \
 599:..\..\..\..\..\..\Software\uC-CPU/cpu_core.c ****      (CPU_CFG_TS_TMR_SIZE <  CPU_WORD_SIZE_32))
 600:..\..\..\..\..\..\Software\uC-CPU/cpu_core.c ****    (void)CPU_TS_Get32();
 601:..\..\..\..\..\..\Software\uC-CPU/cpu_core.c **** #endif
 602:..\..\..\..\..\..\Software\uC-CPU/cpu_core.c **** 
 603:..\..\..\..\..\..\Software\uC-CPU/cpu_core.c **** #if ((CPU_CFG_TS_64_EN    == DEF_ENABLED)  && \
 604:..\..\..\..\..\..\Software\uC-CPU/cpu_core.c ****      (CPU_CFG_TS_TMR_SIZE <  CPU_WORD_SIZE_64))
 605:..\..\..\..\..\..\Software\uC-CPU/cpu_core.c ****    (void)CPU_TS_Get64();
 606:..\..\..\..\..\..\Software\uC-CPU/cpu_core.c **** #endif
 607:..\..\..\..\..\..\Software\uC-CPU/cpu_core.c **** }
 626              		.loc 1 607 0
 627 0004 C046     		nop
 628 0006 BD46     		mov	sp, r7
 629              		@ sp needed
 630 0008 80BD     		pop	{r7, pc}
 631              		.cfi_endproc
 632              	.LFE6:
 633              		.size	CPU_TS_Update, .-CPU_TS_Update
 634              		.section	.text.CPU_TS_TmrFreqGet,"ax",%progbits
 635              		.align	2
 636              		.global	CPU_TS_TmrFreqGet
 637              		.code	16
 638              		.thumb_func
 639              		.type	CPU_TS_TmrFreqGet, %function
 640              	CPU_TS_TmrFreqGet:
 641              	.LFB7:
 608:..\..\..\..\..\..\Software\uC-CPU/cpu_core.c **** #endif
 609:..\..\..\..\..\..\Software\uC-CPU/cpu_core.c **** 
 610:..\..\..\..\..\..\Software\uC-CPU/cpu_core.c **** 
 611:..\..\..\..\..\..\Software\uC-CPU/cpu_core.c **** /*
 612:..\..\..\..\..\..\Software\uC-CPU/cpu_core.c **** ***************************************************************************************************
 613:..\..\..\..\..\..\Software\uC-CPU/cpu_core.c **** *                                         CPU_TS_TmrFreqGet()
ARM GAS  C:\Users\ADMINI~1\AppData\Local\Temp\ccaBZmtr.s 			page 23


 614:..\..\..\..\..\..\Software\uC-CPU/cpu_core.c **** *
 615:..\..\..\..\..\..\Software\uC-CPU/cpu_core.c **** * Description : Get CPU timestamp's timer frequency.
 616:..\..\..\..\..\..\Software\uC-CPU/cpu_core.c **** *
 617:..\..\..\..\..\..\Software\uC-CPU/cpu_core.c **** * Argument(s) : p_err       Pointer to variable that will receive the return error code from this f
 618:..\..\..\..\..\..\Software\uC-CPU/cpu_core.c **** *
 619:..\..\..\..\..\..\Software\uC-CPU/cpu_core.c **** *                               CPU_ERR_NONE                    CPU timestamp's timer frequency suc
 620:..\..\..\..\..\..\Software\uC-CPU/cpu_core.c **** *                                                                   returned.
 621:..\..\..\..\..\..\Software\uC-CPU/cpu_core.c **** *                               CPU_ERR_TS_FREQ_INVALID         CPU timestamp's timer frequency inv
 622:..\..\..\..\..\..\Software\uC-CPU/cpu_core.c **** *                                                                   NOT yet configured.
 623:..\..\..\..\..\..\Software\uC-CPU/cpu_core.c **** *
 624:..\..\..\..\..\..\Software\uC-CPU/cpu_core.c **** * Return(s)   : CPU timestamp's timer frequency (in Hertz), if NO error(s).
 625:..\..\..\..\..\..\Software\uC-CPU/cpu_core.c **** *
 626:..\..\..\..\..\..\Software\uC-CPU/cpu_core.c **** *               0,                                          otherwise.
 627:..\..\..\..\..\..\Software\uC-CPU/cpu_core.c **** *
 628:..\..\..\..\..\..\Software\uC-CPU/cpu_core.c **** * Caller(s)   : Application.
 629:..\..\..\..\..\..\Software\uC-CPU/cpu_core.c **** *
 630:..\..\..\..\..\..\Software\uC-CPU/cpu_core.c **** *               This function is a CPU module application programming interface (API) function & MA
 631:..\..\..\..\..\..\Software\uC-CPU/cpu_core.c **** *               called by application function(s).
 632:..\..\..\..\..\..\Software\uC-CPU/cpu_core.c **** *
 633:..\..\..\..\..\..\Software\uC-CPU/cpu_core.c **** * Note(s)     : none.
 634:..\..\..\..\..\..\Software\uC-CPU/cpu_core.c **** ***************************************************************************************************
 635:..\..\..\..\..\..\Software\uC-CPU/cpu_core.c **** */
 636:..\..\..\..\..\..\Software\uC-CPU/cpu_core.c **** 
 637:..\..\..\..\..\..\Software\uC-CPU/cpu_core.c **** #if (CPU_CFG_TS_TMR_EN == DEF_ENABLED)
 638:..\..\..\..\..\..\Software\uC-CPU/cpu_core.c **** CPU_TS_TMR_FREQ  CPU_TS_TmrFreqGet (CPU_ERR  *p_err)
 639:..\..\..\..\..\..\Software\uC-CPU/cpu_core.c **** {
 642              		.loc 1 639 0
 643              		.cfi_startproc
 644              		@ args = 0, pretend = 0, frame = 16
 645              		@ frame_needed = 1, uses_anonymous_args = 0
 646 0000 80B5     		push	{r7, lr}
 647              		.cfi_def_cfa_offset 8
 648              		.cfi_offset 7, -8
 649              		.cfi_offset 14, -4
 650 0002 84B0     		sub	sp, sp, #16
 651              		.cfi_def_cfa_offset 24
 652 0004 00AF     		add	r7, sp, #0
 653              		.cfi_def_cfa_register 7
 654 0006 7860     		str	r0, [r7, #4]
 640:..\..\..\..\..\..\Software\uC-CPU/cpu_core.c ****     CPU_TS_TMR_FREQ  freq_hz;
 641:..\..\..\..\..\..\Software\uC-CPU/cpu_core.c **** 
 642:..\..\..\..\..\..\Software\uC-CPU/cpu_core.c **** 
 643:..\..\..\..\..\..\Software\uC-CPU/cpu_core.c ****     if (p_err == (CPU_ERR *)0) {
 655              		.loc 1 643 0
 656 0008 7B68     		ldr	r3, [r7, #4]
 657 000a 002B     		cmp	r3, #0
 658 000c 01D1     		bne	.L24
 644:..\..\..\..\..\..\Software\uC-CPU/cpu_core.c ****         CPU_SW_EXCEPTION(;);
 659              		.loc 1 644 0
 660 000e FFF7FEFF 		bl	CPU_SW_Exception
 661              	.L24:
 645:..\..\..\..\..\..\Software\uC-CPU/cpu_core.c ****     }
 646:..\..\..\..\..\..\Software\uC-CPU/cpu_core.c **** 
 647:..\..\..\..\..\..\Software\uC-CPU/cpu_core.c ****     freq_hz =  CPU_TS_TmrFreq_Hz;
 662              		.loc 1 647 0
 663 0012 084B     		ldr	r3, .L28
 664 0014 1B68     		ldr	r3, [r3]
ARM GAS  C:\Users\ADMINI~1\AppData\Local\Temp\ccaBZmtr.s 			page 24


 665 0016 FB60     		str	r3, [r7, #12]
 648:..\..\..\..\..\..\Software\uC-CPU/cpu_core.c ****    *p_err   = (freq_hz != 0u) ? CPU_ERR_NONE : CPU_ERR_TS_FREQ_INVALID;
 666              		.loc 1 648 0
 667 0018 FB68     		ldr	r3, [r7, #12]
 668 001a 002B     		cmp	r3, #0
 669 001c 01D0     		beq	.L25
 670              		.loc 1 648 0 is_stmt 0 discriminator 1
 671 001e 0022     		movs	r2, #0
 672 0020 01E0     		b	.L26
 673              	.L25:
 674              		.loc 1 648 0 discriminator 2
 675 0022 FA23     		movs	r3, #250
 676 0024 DA00     		lsls	r2, r3, #3
 677              	.L26:
 678              		.loc 1 648 0 discriminator 4
 679 0026 7B68     		ldr	r3, [r7, #4]
 680 0028 1A80     		strh	r2, [r3]
 649:..\..\..\..\..\..\Software\uC-CPU/cpu_core.c **** 
 650:..\..\..\..\..\..\Software\uC-CPU/cpu_core.c ****     return (freq_hz);
 681              		.loc 1 650 0 is_stmt 1 discriminator 4
 682 002a FB68     		ldr	r3, [r7, #12]
 651:..\..\..\..\..\..\Software\uC-CPU/cpu_core.c **** }
 683              		.loc 1 651 0 discriminator 4
 684 002c 1800     		movs	r0, r3
 685 002e BD46     		mov	sp, r7
 686 0030 04B0     		add	sp, sp, #16
 687              		@ sp needed
 688 0032 80BD     		pop	{r7, pc}
 689              	.L29:
 690              		.align	2
 691              	.L28:
 692 0034 00000000 		.word	CPU_TS_TmrFreq_Hz
 693              		.cfi_endproc
 694              	.LFE7:
 695              		.size	CPU_TS_TmrFreqGet, .-CPU_TS_TmrFreqGet
 696              		.section	.text.CPU_TS_TmrFreqSet,"ax",%progbits
 697              		.align	2
 698              		.global	CPU_TS_TmrFreqSet
 699              		.code	16
 700              		.thumb_func
 701              		.type	CPU_TS_TmrFreqSet, %function
 702              	CPU_TS_TmrFreqSet:
 703              	.LFB8:
 652:..\..\..\..\..\..\Software\uC-CPU/cpu_core.c **** #endif
 653:..\..\..\..\..\..\Software\uC-CPU/cpu_core.c **** 
 654:..\..\..\..\..\..\Software\uC-CPU/cpu_core.c **** 
 655:..\..\..\..\..\..\Software\uC-CPU/cpu_core.c **** /*
 656:..\..\..\..\..\..\Software\uC-CPU/cpu_core.c **** ***************************************************************************************************
 657:..\..\..\..\..\..\Software\uC-CPU/cpu_core.c **** *                                         CPU_TS_TmrFreqSet()
 658:..\..\..\..\..\..\Software\uC-CPU/cpu_core.c **** *
 659:..\..\..\..\..\..\Software\uC-CPU/cpu_core.c **** * Description : Set CPU timestamp's timer frequency.
 660:..\..\..\..\..\..\Software\uC-CPU/cpu_core.c **** *
 661:..\..\..\..\..\..\Software\uC-CPU/cpu_core.c **** * Argument(s) : freq_hz     Frequency (in Hertz) to set for CPU timestamp's timer.
 662:..\..\..\..\..\..\Software\uC-CPU/cpu_core.c **** *
 663:..\..\..\..\..\..\Software\uC-CPU/cpu_core.c **** * Return(s)   : none.
 664:..\..\..\..\..\..\Software\uC-CPU/cpu_core.c **** *
 665:..\..\..\..\..\..\Software\uC-CPU/cpu_core.c **** * Caller(s)   : CPU_TS_TmrInit(),
ARM GAS  C:\Users\ADMINI~1\AppData\Local\Temp\ccaBZmtr.s 			page 25


 666:..\..\..\..\..\..\Software\uC-CPU/cpu_core.c **** *               Application/BSP initialization function(s).
 667:..\..\..\..\..\..\Software\uC-CPU/cpu_core.c **** *
 668:..\..\..\..\..\..\Software\uC-CPU/cpu_core.c **** *               This function is a CPU module BSP function & SHOULD be called only by appropriate
 669:..\..\..\..\..\..\Software\uC-CPU/cpu_core.c **** *               application/BSP function(s) [see Note #1].
 670:..\..\..\..\..\..\Software\uC-CPU/cpu_core.c **** *
 671:..\..\..\..\..\..\Software\uC-CPU/cpu_core.c **** * Note(s)     : (1) (a) (1) CPU timestamp timer frequency is NOT required for internal CPU timestam
 672:..\..\..\..\..\..\Software\uC-CPU/cpu_core.c **** *                           operations but may OPTIONALLY be configured by CPU_TS_TmrInit() or othe
 673:..\..\..\..\..\..\Software\uC-CPU/cpu_core.c **** *                           application/BSP initialization functions.
 674:..\..\..\..\..\..\Software\uC-CPU/cpu_core.c **** *
 675:..\..\..\..\..\..\Software\uC-CPU/cpu_core.c **** *                       (2) CPU timestamp timer frequency MAY be used with optional CPU_TSxx_to_uSe
 676:..\..\..\..\..\..\Software\uC-CPU/cpu_core.c **** *                           to convert CPU timestamps from timer counts into microseconds.
 677:..\..\..\..\..\..\Software\uC-CPU/cpu_core.c **** *
 678:..\..\..\..\..\..\Software\uC-CPU/cpu_core.c **** *                           See also 'cpu_core.h  FUNCTION PROTOTYPES  CPU_TSxx_to_uSec()  Note #2a
 679:..\..\..\..\..\..\Software\uC-CPU/cpu_core.c **** *
 680:..\..\..\..\..\..\Software\uC-CPU/cpu_core.c **** *                   (b) CPU timestamp timer period SHOULD be less than the typical measured time bu
 681:..\..\..\..\..\..\Software\uC-CPU/cpu_core.c **** *                       be less than the maximum measured time; otherwise, timer resolution inadequ
 682:..\..\..\..\..\..\Software\uC-CPU/cpu_core.c **** *                       measure desired times.
 683:..\..\..\..\..\..\Software\uC-CPU/cpu_core.c **** *
 684:..\..\..\..\..\..\Software\uC-CPU/cpu_core.c **** *                       See also 'cpu_core.h  FUNCTION PROTOTYPES  CPU_TSxx_to_uSec()  Note #2b'.
 685:..\..\..\..\..\..\Software\uC-CPU/cpu_core.c **** ***************************************************************************************************
 686:..\..\..\..\..\..\Software\uC-CPU/cpu_core.c **** */
 687:..\..\..\..\..\..\Software\uC-CPU/cpu_core.c **** 
 688:..\..\..\..\..\..\Software\uC-CPU/cpu_core.c **** #if (CPU_CFG_TS_TMR_EN == DEF_ENABLED)
 689:..\..\..\..\..\..\Software\uC-CPU/cpu_core.c **** void  CPU_TS_TmrFreqSet (CPU_TS_TMR_FREQ  freq_hz)
 690:..\..\..\..\..\..\Software\uC-CPU/cpu_core.c **** {
 704              		.loc 1 690 0
 705              		.cfi_startproc
 706              		@ args = 0, pretend = 0, frame = 8
 707              		@ frame_needed = 1, uses_anonymous_args = 0
 708 0000 80B5     		push	{r7, lr}
 709              		.cfi_def_cfa_offset 8
 710              		.cfi_offset 7, -8
 711              		.cfi_offset 14, -4
 712 0002 82B0     		sub	sp, sp, #8
 713              		.cfi_def_cfa_offset 16
 714 0004 00AF     		add	r7, sp, #0
 715              		.cfi_def_cfa_register 7
 716 0006 7860     		str	r0, [r7, #4]
 691:..\..\..\..\..\..\Software\uC-CPU/cpu_core.c ****     CPU_TS_TmrFreq_Hz = freq_hz;
 717              		.loc 1 691 0
 718 0008 034B     		ldr	r3, .L31
 719 000a 7A68     		ldr	r2, [r7, #4]
 720 000c 1A60     		str	r2, [r3]
 692:..\..\..\..\..\..\Software\uC-CPU/cpu_core.c **** }
 721              		.loc 1 692 0
 722 000e C046     		nop
 723 0010 BD46     		mov	sp, r7
 724 0012 02B0     		add	sp, sp, #8
 725              		@ sp needed
 726 0014 80BD     		pop	{r7, pc}
 727              	.L32:
 728 0016 C046     		.align	2
 729              	.L31:
 730 0018 00000000 		.word	CPU_TS_TmrFreq_Hz
 731              		.cfi_endproc
 732              	.LFE8:
 733              		.size	CPU_TS_TmrFreqSet, .-CPU_TS_TmrFreqSet
ARM GAS  C:\Users\ADMINI~1\AppData\Local\Temp\ccaBZmtr.s 			page 26


 734              		.section	.text.CPU_IntDisMeasMaxCurReset,"ax",%progbits
 735              		.align	2
 736              		.global	CPU_IntDisMeasMaxCurReset
 737              		.code	16
 738              		.thumb_func
 739              		.type	CPU_IntDisMeasMaxCurReset, %function
 740              	CPU_IntDisMeasMaxCurReset:
 741              	.LFB9:
 693:..\..\..\..\..\..\Software\uC-CPU/cpu_core.c **** #endif
 694:..\..\..\..\..\..\Software\uC-CPU/cpu_core.c **** 
 695:..\..\..\..\..\..\Software\uC-CPU/cpu_core.c **** 
 696:..\..\..\..\..\..\Software\uC-CPU/cpu_core.c **** /*
 697:..\..\..\..\..\..\Software\uC-CPU/cpu_core.c **** ***************************************************************************************************
 698:..\..\..\..\..\..\Software\uC-CPU/cpu_core.c **** *                                     CPU_IntDisMeasMaxCurReset()
 699:..\..\..\..\..\..\Software\uC-CPU/cpu_core.c **** *
 700:..\..\..\..\..\..\Software\uC-CPU/cpu_core.c **** * Description : Reset current maximum interrupts disabled time.
 701:..\..\..\..\..\..\Software\uC-CPU/cpu_core.c **** *
 702:..\..\..\..\..\..\Software\uC-CPU/cpu_core.c **** * Argument(s) : none.
 703:..\..\..\..\..\..\Software\uC-CPU/cpu_core.c **** *
 704:..\..\..\..\..\..\Software\uC-CPU/cpu_core.c **** * Return(s)   : Maximum interrupts disabled time (in CPU timestamp timer counts) before resetting.
 705:..\..\..\..\..\..\Software\uC-CPU/cpu_core.c **** *
 706:..\..\..\..\..\..\Software\uC-CPU/cpu_core.c **** *               See also 'cpu_core.h  FUNCTION PROTOTYPES  CPU_TS_TmrRd()      Note #2c'
 707:..\..\..\..\..\..\Software\uC-CPU/cpu_core.c **** *                      & 'cpu_core.h  FUNCTION PROTOTYPES  CPU_TSxx_to_uSec()  Note #2'.
 708:..\..\..\..\..\..\Software\uC-CPU/cpu_core.c **** *
 709:..\..\..\..\..\..\Software\uC-CPU/cpu_core.c **** * Caller(s)   : Application.
 710:..\..\..\..\..\..\Software\uC-CPU/cpu_core.c **** *
 711:..\..\..\..\..\..\Software\uC-CPU/cpu_core.c **** *               This function is a CPU module application programming interface (API) function 
 712:..\..\..\..\..\..\Software\uC-CPU/cpu_core.c **** *               & MAY be called by application function(s).
 713:..\..\..\..\..\..\Software\uC-CPU/cpu_core.c **** *
 714:..\..\..\..\..\..\Software\uC-CPU/cpu_core.c **** * Note(s)     : (1) After initialization, 'CPU_IntDisMeasMaxCur_cnts' MUST ALWAYS be accessed
 715:..\..\..\..\..\..\Software\uC-CPU/cpu_core.c **** *                   exclusively with interrupts disabled -- but NOT with critical sections.
 716:..\..\..\..\..\..\Software\uC-CPU/cpu_core.c **** ***************************************************************************************************
 717:..\..\..\..\..\..\Software\uC-CPU/cpu_core.c **** */
 718:..\..\..\..\..\..\Software\uC-CPU/cpu_core.c **** 
 719:..\..\..\..\..\..\Software\uC-CPU/cpu_core.c **** #ifdef  CPU_CFG_INT_DIS_MEAS_EN
 720:..\..\..\..\..\..\Software\uC-CPU/cpu_core.c **** CPU_TS_TMR  CPU_IntDisMeasMaxCurReset (void)
 721:..\..\..\..\..\..\Software\uC-CPU/cpu_core.c **** {
 742              		.loc 1 721 0
 743              		.cfi_startproc
 744              		@ args = 0, pretend = 0, frame = 8
 745              		@ frame_needed = 1, uses_anonymous_args = 0
 746 0000 80B5     		push	{r7, lr}
 747              		.cfi_def_cfa_offset 8
 748              		.cfi_offset 7, -8
 749              		.cfi_offset 14, -4
 750 0002 82B0     		sub	sp, sp, #8
 751              		.cfi_def_cfa_offset 16
 752 0004 00AF     		add	r7, sp, #0
 753              		.cfi_def_cfa_register 7
 722:..\..\..\..\..\..\Software\uC-CPU/cpu_core.c ****     CPU_TS_TMR  time_max_cnts;
 723:..\..\..\..\..\..\Software\uC-CPU/cpu_core.c ****     CPU_SR_ALLOC();
 754              		.loc 1 723 0
 755 0006 0023     		movs	r3, #0
 756 0008 7B60     		str	r3, [r7, #4]
 724:..\..\..\..\..\..\Software\uC-CPU/cpu_core.c **** 
 725:..\..\..\..\..\..\Software\uC-CPU/cpu_core.c **** 
 726:..\..\..\..\..\..\Software\uC-CPU/cpu_core.c ****     time_max_cnts             = CPU_IntDisMeasMaxCurGet();
ARM GAS  C:\Users\ADMINI~1\AppData\Local\Temp\ccaBZmtr.s 			page 27


 757              		.loc 1 726 0
 758 000a FFF7FEFF 		bl	CPU_IntDisMeasMaxCurGet
 759 000e 0300     		movs	r3, r0
 760 0010 3B60     		str	r3, [r7]
 727:..\..\..\..\..\..\Software\uC-CPU/cpu_core.c ****     CPU_INT_DIS();
 761              		.loc 1 727 0
 762 0012 FFF7FEFF 		bl	CPU_SR_Save
 763 0016 0300     		movs	r3, r0
 764 0018 7B60     		str	r3, [r7, #4]
 728:..\..\..\..\..\..\Software\uC-CPU/cpu_core.c ****     CPU_IntDisMeasMaxCur_cnts = 0u;
 765              		.loc 1 728 0
 766 001a 064B     		ldr	r3, .L35
 767 001c 0022     		movs	r2, #0
 768 001e 1A60     		str	r2, [r3]
 729:..\..\..\..\..\..\Software\uC-CPU/cpu_core.c ****     CPU_INT_EN();
 769              		.loc 1 729 0
 770 0020 7B68     		ldr	r3, [r7, #4]
 771 0022 1800     		movs	r0, r3
 772 0024 FFF7FEFF 		bl	CPU_SR_Restore
 730:..\..\..\..\..\..\Software\uC-CPU/cpu_core.c **** 
 731:..\..\..\..\..\..\Software\uC-CPU/cpu_core.c ****     return (time_max_cnts);
 773              		.loc 1 731 0
 774 0028 3B68     		ldr	r3, [r7]
 732:..\..\..\..\..\..\Software\uC-CPU/cpu_core.c **** }
 775              		.loc 1 732 0
 776 002a 1800     		movs	r0, r3
 777 002c BD46     		mov	sp, r7
 778 002e 02B0     		add	sp, sp, #8
 779              		@ sp needed
 780 0030 80BD     		pop	{r7, pc}
 781              	.L36:
 782 0032 C046     		.align	2
 783              	.L35:
 784 0034 00000000 		.word	CPU_IntDisMeasMaxCur_cnts
 785              		.cfi_endproc
 786              	.LFE9:
 787              		.size	CPU_IntDisMeasMaxCurReset, .-CPU_IntDisMeasMaxCurReset
 788              		.section	.text.CPU_IntDisMeasMaxCurGet,"ax",%progbits
 789              		.align	2
 790              		.global	CPU_IntDisMeasMaxCurGet
 791              		.code	16
 792              		.thumb_func
 793              		.type	CPU_IntDisMeasMaxCurGet, %function
 794              	CPU_IntDisMeasMaxCurGet:
 795              	.LFB10:
 733:..\..\..\..\..\..\Software\uC-CPU/cpu_core.c **** #endif
 734:..\..\..\..\..\..\Software\uC-CPU/cpu_core.c **** 
 735:..\..\..\..\..\..\Software\uC-CPU/cpu_core.c **** 
 736:..\..\..\..\..\..\Software\uC-CPU/cpu_core.c **** /*
 737:..\..\..\..\..\..\Software\uC-CPU/cpu_core.c **** ***************************************************************************************************
 738:..\..\..\..\..\..\Software\uC-CPU/cpu_core.c **** *                                      CPU_IntDisMeasMaxCurGet()
 739:..\..\..\..\..\..\Software\uC-CPU/cpu_core.c **** *
 740:..\..\..\..\..\..\Software\uC-CPU/cpu_core.c **** * Description : Get current maximum interrupts disabled time.
 741:..\..\..\..\..\..\Software\uC-CPU/cpu_core.c **** *
 742:..\..\..\..\..\..\Software\uC-CPU/cpu_core.c **** * Argument(s) : none.
 743:..\..\..\..\..\..\Software\uC-CPU/cpu_core.c **** *
 744:..\..\..\..\..\..\Software\uC-CPU/cpu_core.c **** * Return(s)   : Current maximum interrupts disabled time (in CPU timestamp timer counts).
ARM GAS  C:\Users\ADMINI~1\AppData\Local\Temp\ccaBZmtr.s 			page 28


 745:..\..\..\..\..\..\Software\uC-CPU/cpu_core.c **** *
 746:..\..\..\..\..\..\Software\uC-CPU/cpu_core.c **** *               See also 'cpu_core.h  FUNCTION PROTOTYPES  CPU_TS_TmrRd()      Note #2c'
 747:..\..\..\..\..\..\Software\uC-CPU/cpu_core.c **** *                      & 'cpu_core.h  FUNCTION PROTOTYPES  CPU_TSxx_to_uSec()  Note #2'.
 748:..\..\..\..\..\..\Software\uC-CPU/cpu_core.c **** *
 749:..\..\..\..\..\..\Software\uC-CPU/cpu_core.c **** * Caller(s)   : CPU_IntDisMeasMaxCurReset(),
 750:..\..\..\..\..\..\Software\uC-CPU/cpu_core.c **** *               Application.
 751:..\..\..\..\..\..\Software\uC-CPU/cpu_core.c **** *
 752:..\..\..\..\..\..\Software\uC-CPU/cpu_core.c **** *               This function is a CPU module application programming interface (API) function 
 753:..\..\..\..\..\..\Software\uC-CPU/cpu_core.c **** *               & MAY be called by application function(s).
 754:..\..\..\..\..\..\Software\uC-CPU/cpu_core.c **** *
 755:..\..\..\..\..\..\Software\uC-CPU/cpu_core.c **** * Note(s)     : (1) After initialization, 'CPU_IntDisMeasMaxCur_cnts' MUST ALWAYS be accessed
 756:..\..\..\..\..\..\Software\uC-CPU/cpu_core.c **** *                   exclusively with interrupts disabled -- but NOT with critical sections.
 757:..\..\..\..\..\..\Software\uC-CPU/cpu_core.c **** ***************************************************************************************************
 758:..\..\..\..\..\..\Software\uC-CPU/cpu_core.c **** */
 759:..\..\..\..\..\..\Software\uC-CPU/cpu_core.c **** 
 760:..\..\..\..\..\..\Software\uC-CPU/cpu_core.c **** #ifdef  CPU_CFG_INT_DIS_MEAS_EN
 761:..\..\..\..\..\..\Software\uC-CPU/cpu_core.c **** CPU_TS_TMR  CPU_IntDisMeasMaxCurGet (void)
 762:..\..\..\..\..\..\Software\uC-CPU/cpu_core.c **** {
 796              		.loc 1 762 0
 797              		.cfi_startproc
 798              		@ args = 0, pretend = 0, frame = 16
 799              		@ frame_needed = 1, uses_anonymous_args = 0
 800 0000 80B5     		push	{r7, lr}
 801              		.cfi_def_cfa_offset 8
 802              		.cfi_offset 7, -8
 803              		.cfi_offset 14, -4
 804 0002 84B0     		sub	sp, sp, #16
 805              		.cfi_def_cfa_offset 24
 806 0004 00AF     		add	r7, sp, #0
 807              		.cfi_def_cfa_register 7
 763:..\..\..\..\..\..\Software\uC-CPU/cpu_core.c ****     CPU_TS_TMR  time_tot_cnts;
 764:..\..\..\..\..\..\Software\uC-CPU/cpu_core.c ****     CPU_TS_TMR  time_max_cnts;
 765:..\..\..\..\..\..\Software\uC-CPU/cpu_core.c ****     CPU_SR_ALLOC();
 808              		.loc 1 765 0
 809 0006 0023     		movs	r3, #0
 810 0008 FB60     		str	r3, [r7, #12]
 766:..\..\..\..\..\..\Software\uC-CPU/cpu_core.c **** 
 767:..\..\..\..\..\..\Software\uC-CPU/cpu_core.c **** 
 768:..\..\..\..\..\..\Software\uC-CPU/cpu_core.c ****     CPU_INT_DIS();
 811              		.loc 1 768 0
 812 000a FFF7FEFF 		bl	CPU_SR_Save
 813 000e 0300     		movs	r3, r0
 814 0010 FB60     		str	r3, [r7, #12]
 769:..\..\..\..\..\..\Software\uC-CPU/cpu_core.c ****     time_tot_cnts = CPU_IntDisMeasMaxCur_cnts;
 815              		.loc 1 769 0
 816 0012 094B     		ldr	r3, .L39
 817 0014 1B68     		ldr	r3, [r3]
 818 0016 BB60     		str	r3, [r7, #8]
 770:..\..\..\..\..\..\Software\uC-CPU/cpu_core.c ****     CPU_INT_EN();
 819              		.loc 1 770 0
 820 0018 FB68     		ldr	r3, [r7, #12]
 821 001a 1800     		movs	r0, r3
 822 001c FFF7FEFF 		bl	CPU_SR_Restore
 771:..\..\..\..\..\..\Software\uC-CPU/cpu_core.c ****     time_max_cnts = CPU_IntDisMeasMaxCalc(time_tot_cnts);
 823              		.loc 1 771 0
 824 0020 BB68     		ldr	r3, [r7, #8]
 825 0022 1800     		movs	r0, r3
ARM GAS  C:\Users\ADMINI~1\AppData\Local\Temp\ccaBZmtr.s 			page 29


 826 0024 FFF7FEFF 		bl	CPU_IntDisMeasMaxCalc
 827 0028 0300     		movs	r3, r0
 828 002a 7B60     		str	r3, [r7, #4]
 772:..\..\..\..\..\..\Software\uC-CPU/cpu_core.c **** 
 773:..\..\..\..\..\..\Software\uC-CPU/cpu_core.c ****     return (time_max_cnts);
 829              		.loc 1 773 0
 830 002c 7B68     		ldr	r3, [r7, #4]
 774:..\..\..\..\..\..\Software\uC-CPU/cpu_core.c **** }
 831              		.loc 1 774 0
 832 002e 1800     		movs	r0, r3
 833 0030 BD46     		mov	sp, r7
 834 0032 04B0     		add	sp, sp, #16
 835              		@ sp needed
 836 0034 80BD     		pop	{r7, pc}
 837              	.L40:
 838 0036 C046     		.align	2
 839              	.L39:
 840 0038 00000000 		.word	CPU_IntDisMeasMaxCur_cnts
 841              		.cfi_endproc
 842              	.LFE10:
 843              		.size	CPU_IntDisMeasMaxCurGet, .-CPU_IntDisMeasMaxCurGet
 844              		.section	.text.CPU_IntDisMeasMaxGet,"ax",%progbits
 845              		.align	2
 846              		.global	CPU_IntDisMeasMaxGet
 847              		.code	16
 848              		.thumb_func
 849              		.type	CPU_IntDisMeasMaxGet, %function
 850              	CPU_IntDisMeasMaxGet:
 851              	.LFB11:
 775:..\..\..\..\..\..\Software\uC-CPU/cpu_core.c **** #endif
 776:..\..\..\..\..\..\Software\uC-CPU/cpu_core.c **** 
 777:..\..\..\..\..\..\Software\uC-CPU/cpu_core.c **** 
 778:..\..\..\..\..\..\Software\uC-CPU/cpu_core.c **** /*
 779:..\..\..\..\..\..\Software\uC-CPU/cpu_core.c **** ***************************************************************************************************
 780:..\..\..\..\..\..\Software\uC-CPU/cpu_core.c **** *                                       CPU_IntDisMeasMaxGet()
 781:..\..\..\..\..\..\Software\uC-CPU/cpu_core.c **** *
 782:..\..\..\..\..\..\Software\uC-CPU/cpu_core.c **** * Description : Get (non-resetable) maximum interrupts disabled time.
 783:..\..\..\..\..\..\Software\uC-CPU/cpu_core.c **** *
 784:..\..\..\..\..\..\Software\uC-CPU/cpu_core.c **** * Argument(s) : none.
 785:..\..\..\..\..\..\Software\uC-CPU/cpu_core.c **** *
 786:..\..\..\..\..\..\Software\uC-CPU/cpu_core.c **** * Return(s)   : (Non-resetable) maximum interrupts disabled time (in CPU timestamp timer counts).
 787:..\..\..\..\..\..\Software\uC-CPU/cpu_core.c **** *
 788:..\..\..\..\..\..\Software\uC-CPU/cpu_core.c **** *               See also 'cpu_core.h  FUNCTION PROTOTYPES  CPU_TS_TmrRd()      Note #2c'
 789:..\..\..\..\..\..\Software\uC-CPU/cpu_core.c **** *                      & 'cpu_core.h  FUNCTION PROTOTYPES  CPU_TSxx_to_uSec()  Note #2'.
 790:..\..\..\..\..\..\Software\uC-CPU/cpu_core.c **** *
 791:..\..\..\..\..\..\Software\uC-CPU/cpu_core.c **** * Caller(s)   : CPU_IntDisMeasInit(),
 792:..\..\..\..\..\..\Software\uC-CPU/cpu_core.c **** *               Application.
 793:..\..\..\..\..\..\Software\uC-CPU/cpu_core.c **** *
 794:..\..\..\..\..\..\Software\uC-CPU/cpu_core.c **** *               This function is a CPU module application programming interface (API) function 
 795:..\..\..\..\..\..\Software\uC-CPU/cpu_core.c **** *               & MAY be called by application function(s).
 796:..\..\..\..\..\..\Software\uC-CPU/cpu_core.c **** *
 797:..\..\..\..\..\..\Software\uC-CPU/cpu_core.c **** * Note(s)     : (1) After initialization, 'CPU_IntDisMeasMax_cnts' MUST ALWAYS be accessed
 798:..\..\..\..\..\..\Software\uC-CPU/cpu_core.c **** *                   exclusively with interrupts disabled -- but NOT with critical sections.
 799:..\..\..\..\..\..\Software\uC-CPU/cpu_core.c **** ***************************************************************************************************
 800:..\..\..\..\..\..\Software\uC-CPU/cpu_core.c **** */
 801:..\..\..\..\..\..\Software\uC-CPU/cpu_core.c **** 
 802:..\..\..\..\..\..\Software\uC-CPU/cpu_core.c **** #ifdef  CPU_CFG_INT_DIS_MEAS_EN
ARM GAS  C:\Users\ADMINI~1\AppData\Local\Temp\ccaBZmtr.s 			page 30


 803:..\..\..\..\..\..\Software\uC-CPU/cpu_core.c **** CPU_TS_TMR  CPU_IntDisMeasMaxGet (void)
 804:..\..\..\..\..\..\Software\uC-CPU/cpu_core.c **** {
 852              		.loc 1 804 0
 853              		.cfi_startproc
 854              		@ args = 0, pretend = 0, frame = 16
 855              		@ frame_needed = 1, uses_anonymous_args = 0
 856 0000 80B5     		push	{r7, lr}
 857              		.cfi_def_cfa_offset 8
 858              		.cfi_offset 7, -8
 859              		.cfi_offset 14, -4
 860 0002 84B0     		sub	sp, sp, #16
 861              		.cfi_def_cfa_offset 24
 862 0004 00AF     		add	r7, sp, #0
 863              		.cfi_def_cfa_register 7
 805:..\..\..\..\..\..\Software\uC-CPU/cpu_core.c ****     CPU_TS_TMR  time_tot_cnts;
 806:..\..\..\..\..\..\Software\uC-CPU/cpu_core.c ****     CPU_TS_TMR  time_max_cnts;
 807:..\..\..\..\..\..\Software\uC-CPU/cpu_core.c ****     CPU_SR_ALLOC();
 864              		.loc 1 807 0
 865 0006 0023     		movs	r3, #0
 866 0008 FB60     		str	r3, [r7, #12]
 808:..\..\..\..\..\..\Software\uC-CPU/cpu_core.c **** 
 809:..\..\..\..\..\..\Software\uC-CPU/cpu_core.c **** 
 810:..\..\..\..\..\..\Software\uC-CPU/cpu_core.c ****     CPU_INT_DIS();
 867              		.loc 1 810 0
 868 000a FFF7FEFF 		bl	CPU_SR_Save
 869 000e 0300     		movs	r3, r0
 870 0010 FB60     		str	r3, [r7, #12]
 811:..\..\..\..\..\..\Software\uC-CPU/cpu_core.c ****     time_tot_cnts = CPU_IntDisMeasMax_cnts;
 871              		.loc 1 811 0
 872 0012 094B     		ldr	r3, .L43
 873 0014 1B68     		ldr	r3, [r3]
 874 0016 BB60     		str	r3, [r7, #8]
 812:..\..\..\..\..\..\Software\uC-CPU/cpu_core.c ****     CPU_INT_EN();
 875              		.loc 1 812 0
 876 0018 FB68     		ldr	r3, [r7, #12]
 877 001a 1800     		movs	r0, r3
 878 001c FFF7FEFF 		bl	CPU_SR_Restore
 813:..\..\..\..\..\..\Software\uC-CPU/cpu_core.c ****     time_max_cnts = CPU_IntDisMeasMaxCalc(time_tot_cnts);
 879              		.loc 1 813 0
 880 0020 BB68     		ldr	r3, [r7, #8]
 881 0022 1800     		movs	r0, r3
 882 0024 FFF7FEFF 		bl	CPU_IntDisMeasMaxCalc
 883 0028 0300     		movs	r3, r0
 884 002a 7B60     		str	r3, [r7, #4]
 814:..\..\..\..\..\..\Software\uC-CPU/cpu_core.c **** 
 815:..\..\..\..\..\..\Software\uC-CPU/cpu_core.c ****     return (time_max_cnts);
 885              		.loc 1 815 0
 886 002c 7B68     		ldr	r3, [r7, #4]
 816:..\..\..\..\..\..\Software\uC-CPU/cpu_core.c **** }
 887              		.loc 1 816 0
 888 002e 1800     		movs	r0, r3
 889 0030 BD46     		mov	sp, r7
 890 0032 04B0     		add	sp, sp, #16
 891              		@ sp needed
 892 0034 80BD     		pop	{r7, pc}
 893              	.L44:
 894 0036 C046     		.align	2
ARM GAS  C:\Users\ADMINI~1\AppData\Local\Temp\ccaBZmtr.s 			page 31


 895              	.L43:
 896 0038 00000000 		.word	CPU_IntDisMeasMax_cnts
 897              		.cfi_endproc
 898              	.LFE11:
 899              		.size	CPU_IntDisMeasMaxGet, .-CPU_IntDisMeasMaxGet
 900              		.section	.text.CPU_IntDisMeasStart,"ax",%progbits
 901              		.align	2
 902              		.global	CPU_IntDisMeasStart
 903              		.code	16
 904              		.thumb_func
 905              		.type	CPU_IntDisMeasStart, %function
 906              	CPU_IntDisMeasStart:
 907              	.LFB12:
 817:..\..\..\..\..\..\Software\uC-CPU/cpu_core.c **** #endif
 818:..\..\..\..\..\..\Software\uC-CPU/cpu_core.c **** 
 819:..\..\..\..\..\..\Software\uC-CPU/cpu_core.c **** 
 820:..\..\..\..\..\..\Software\uC-CPU/cpu_core.c **** /*
 821:..\..\..\..\..\..\Software\uC-CPU/cpu_core.c **** ***************************************************************************************************
 822:..\..\..\..\..\..\Software\uC-CPU/cpu_core.c **** *                                        CPU_IntDisMeasStart()
 823:..\..\..\..\..\..\Software\uC-CPU/cpu_core.c **** *
 824:..\..\..\..\..\..\Software\uC-CPU/cpu_core.c **** * Description : Start interrupts disabled time measurement.
 825:..\..\..\..\..\..\Software\uC-CPU/cpu_core.c **** *
 826:..\..\..\..\..\..\Software\uC-CPU/cpu_core.c **** * Argument(s) : none.
 827:..\..\..\..\..\..\Software\uC-CPU/cpu_core.c **** *
 828:..\..\..\..\..\..\Software\uC-CPU/cpu_core.c **** * Return(s)   : none.
 829:..\..\..\..\..\..\Software\uC-CPU/cpu_core.c **** *
 830:..\..\..\..\..\..\Software\uC-CPU/cpu_core.c **** * Caller(s)   : CPU_CRITICAL_ENTER().
 831:..\..\..\..\..\..\Software\uC-CPU/cpu_core.c **** *
 832:..\..\..\..\..\..\Software\uC-CPU/cpu_core.c **** *               This function is an INTERNAL CPU module function & MUST NOT be called by applicatio
 833:..\..\..\..\..\..\Software\uC-CPU/cpu_core.c **** *               function(s).
 834:..\..\..\..\..\..\Software\uC-CPU/cpu_core.c **** *
 835:..\..\..\..\..\..\Software\uC-CPU/cpu_core.c **** * Note(s)     : none.
 836:..\..\..\..\..\..\Software\uC-CPU/cpu_core.c **** ***************************************************************************************************
 837:..\..\..\..\..\..\Software\uC-CPU/cpu_core.c **** */
 838:..\..\..\..\..\..\Software\uC-CPU/cpu_core.c **** 
 839:..\..\..\..\..\..\Software\uC-CPU/cpu_core.c **** #ifdef  CPU_CFG_INT_DIS_MEAS_EN
 840:..\..\..\..\..\..\Software\uC-CPU/cpu_core.c **** void  CPU_IntDisMeasStart (void)
 841:..\..\..\..\..\..\Software\uC-CPU/cpu_core.c **** {
 908              		.loc 1 841 0
 909              		.cfi_startproc
 910              		@ args = 0, pretend = 0, frame = 0
 911              		@ frame_needed = 1, uses_anonymous_args = 0
 912 0000 80B5     		push	{r7, lr}
 913              		.cfi_def_cfa_offset 8
 914              		.cfi_offset 7, -8
 915              		.cfi_offset 14, -4
 916 0002 00AF     		add	r7, sp, #0
 917              		.cfi_def_cfa_register 7
 842:..\..\..\..\..\..\Software\uC-CPU/cpu_core.c ****     CPU_IntDisMeasCtr++;
 918              		.loc 1 842 0
 919 0004 0B4B     		ldr	r3, .L47
 920 0006 1B88     		ldrh	r3, [r3]
 921 0008 0133     		adds	r3, r3, #1
 922 000a 9AB2     		uxth	r2, r3
 923 000c 094B     		ldr	r3, .L47
 924 000e 1A80     		strh	r2, [r3]
 843:..\..\..\..\..\..\Software\uC-CPU/cpu_core.c ****     if (CPU_IntDisNestCtr == 0u) {                                  /* If ints NOT yet dis'd, ...  
ARM GAS  C:\Users\ADMINI~1\AppData\Local\Temp\ccaBZmtr.s 			page 32


 925              		.loc 1 843 0
 926 0010 094B     		ldr	r3, .L47+4
 927 0012 1B88     		ldrh	r3, [r3]
 928 0014 002B     		cmp	r3, #0
 929 0016 04D1     		bne	.L46
 844:..\..\..\..\..\..\Software\uC-CPU/cpu_core.c ****         CPU_IntDisMeasStart_cnts = CPU_TS_TmrRd();                  /* ... get ints dis'd start tim
 930              		.loc 1 844 0
 931 0018 FFF7FEFF 		bl	CPU_TS_TmrRd
 932 001c 0200     		movs	r2, r0
 933 001e 074B     		ldr	r3, .L47+8
 934 0020 1A60     		str	r2, [r3]
 935              	.L46:
 845:..\..\..\..\..\..\Software\uC-CPU/cpu_core.c ****     }
 846:..\..\..\..\..\..\Software\uC-CPU/cpu_core.c ****     CPU_IntDisNestCtr++;
 936              		.loc 1 846 0
 937 0022 054B     		ldr	r3, .L47+4
 938 0024 1B88     		ldrh	r3, [r3]
 939 0026 0133     		adds	r3, r3, #1
 940 0028 9AB2     		uxth	r2, r3
 941 002a 034B     		ldr	r3, .L47+4
 942 002c 1A80     		strh	r2, [r3]
 847:..\..\..\..\..\..\Software\uC-CPU/cpu_core.c **** }
 943              		.loc 1 847 0
 944 002e C046     		nop
 945 0030 BD46     		mov	sp, r7
 946              		@ sp needed
 947 0032 80BD     		pop	{r7, pc}
 948              	.L48:
 949              		.align	2
 950              	.L47:
 951 0034 00000000 		.word	CPU_IntDisMeasCtr
 952 0038 00000000 		.word	CPU_IntDisNestCtr
 953 003c 00000000 		.word	CPU_IntDisMeasStart_cnts
 954              		.cfi_endproc
 955              	.LFE12:
 956              		.size	CPU_IntDisMeasStart, .-CPU_IntDisMeasStart
 957              		.section	.text.CPU_IntDisMeasStop,"ax",%progbits
 958              		.align	2
 959              		.global	CPU_IntDisMeasStop
 960              		.code	16
 961              		.thumb_func
 962              		.type	CPU_IntDisMeasStop, %function
 963              	CPU_IntDisMeasStop:
 964              	.LFB13:
 848:..\..\..\..\..\..\Software\uC-CPU/cpu_core.c **** #endif
 849:..\..\..\..\..\..\Software\uC-CPU/cpu_core.c **** 
 850:..\..\..\..\..\..\Software\uC-CPU/cpu_core.c **** 
 851:..\..\..\..\..\..\Software\uC-CPU/cpu_core.c **** /*
 852:..\..\..\..\..\..\Software\uC-CPU/cpu_core.c **** ***************************************************************************************************
 853:..\..\..\..\..\..\Software\uC-CPU/cpu_core.c **** *                                        CPU_IntDisMeasStop()
 854:..\..\..\..\..\..\Software\uC-CPU/cpu_core.c **** *
 855:..\..\..\..\..\..\Software\uC-CPU/cpu_core.c **** * Description : Stop interrupts disabled time measurement.
 856:..\..\..\..\..\..\Software\uC-CPU/cpu_core.c **** *
 857:..\..\..\..\..\..\Software\uC-CPU/cpu_core.c **** * Argument(s) : none.
 858:..\..\..\..\..\..\Software\uC-CPU/cpu_core.c **** *
 859:..\..\..\..\..\..\Software\uC-CPU/cpu_core.c **** * Return(s)   : none.
 860:..\..\..\..\..\..\Software\uC-CPU/cpu_core.c **** *
ARM GAS  C:\Users\ADMINI~1\AppData\Local\Temp\ccaBZmtr.s 			page 33


 861:..\..\..\..\..\..\Software\uC-CPU/cpu_core.c **** * Caller(s)   : CPU_CRITICAL_EXIT().
 862:..\..\..\..\..\..\Software\uC-CPU/cpu_core.c **** *
 863:..\..\..\..\..\..\Software\uC-CPU/cpu_core.c **** *               This function is an INTERNAL CPU module function & MUST NOT be called by applicatio
 864:..\..\..\..\..\..\Software\uC-CPU/cpu_core.c **** *               function(s).
 865:..\..\..\..\..\..\Software\uC-CPU/cpu_core.c **** *
 866:..\..\..\..\..\..\Software\uC-CPU/cpu_core.c **** * Note(s)     : (1) (a) The total amount of time interrupts are disabled by system &/or application
 867:..\..\..\..\..\..\Software\uC-CPU/cpu_core.c **** *                       during critical sections is calculated by the following equations :
 868:..\..\..\..\..\..\Software\uC-CPU/cpu_core.c **** *
 869:..\..\..\..\..\..\Software\uC-CPU/cpu_core.c **** *                       (1) When interrupts disabled time measurements are disabled :
 870:..\..\..\..\..\..\Software\uC-CPU/cpu_core.c **** *
 871:..\..\..\..\..\..\Software\uC-CPU/cpu_core.c **** *
 872:..\..\..\..\..\..\Software\uC-CPU/cpu_core.c **** *                               |   CRITICAL  |                           |   CRITICAL  |
 873:..\..\..\..\..\..\Software\uC-CPU/cpu_core.c **** *                               |<- SECTION ->|                           |<- SECTION ->|
 874:..\..\..\..\..\..\Software\uC-CPU/cpu_core.c **** *                               |    ENTER    |                           |    EXIT     |
 875:..\..\..\..\..\..\Software\uC-CPU/cpu_core.c **** *
 876:..\..\..\..\..\..\Software\uC-CPU/cpu_core.c **** *                            Disable                                    Enable
 877:..\..\..\..\..\..\Software\uC-CPU/cpu_core.c **** *                           Interrupts                                Interrupts
 878:..\..\..\..\..\..\Software\uC-CPU/cpu_core.c **** *
 879:..\..\..\..\..\..\Software\uC-CPU/cpu_core.c **** *                               ||           ||                           ||           ||
 880:..\..\..\..\..\..\Software\uC-CPU/cpu_core.c **** *                               ||           ||                           ||           ||
 881:..\..\..\..\..\..\Software\uC-CPU/cpu_core.c **** *                               ||       |   ||<------------------------->||       |   ||
 882:..\..\..\..\..\..\Software\uC-CPU/cpu_core.c **** *                               ||       |<->||             |             ||<----->|   ||
 883:..\..\..\..\..\..\Software\uC-CPU/cpu_core.c **** *                               ||       | | ||             |             ||   |   |   ||
 884:..\..\..\..\..\..\Software\uC-CPU/cpu_core.c **** *                                        | |                |                  |   |
 885:..\..\..\..\..\..\Software\uC-CPU/cpu_core.c **** *                                   interrupts            time                 interrupts
 886:..\..\..\..\..\..\Software\uC-CPU/cpu_core.c **** *                                    disabled                 interrupts       |enabled
 887:..\..\..\..\..\..\Software\uC-CPU/cpu_core.c **** *                                          |                   disabled        |
 888:..\..\..\..\..\..\Software\uC-CPU/cpu_core.c **** *                                          |              (via application)    |
 889:..\..\..\..\..\..\Software\uC-CPU/cpu_core.c **** *                                       time                                 time
 890:..\..\..\..\..\..\Software\uC-CPU/cpu_core.c **** *                                           interrupts                           interrupts
 891:..\..\..\..\..\..\Software\uC-CPU/cpu_core.c **** *                                         disabled ovrhd                        enabled ovrhd
 892:..\..\..\..\..\..\Software\uC-CPU/cpu_core.c **** *
 893:..\..\..\..\..\..\Software\uC-CPU/cpu_core.c **** *
 894:..\..\..\..\..\..\Software\uC-CPU/cpu_core.c **** *                           (A) time            =  [ time            -  time           ]  -  time
 895:..\..\..\..\..\..\Software\uC-CPU/cpu_core.c **** *                                   interrupts     [     interrupts         interrupts ]         to
 896:..\..\..\..\..\..\Software\uC-CPU/cpu_core.c **** *                                    disabled      [      enabled            disabled  ]         ov
 897:..\..\..\..\..\..\Software\uC-CPU/cpu_core.c **** *                               (via application)
 898:..\..\..\..\..\..\Software\uC-CPU/cpu_core.c **** *
 899:..\..\..\..\..\..\Software\uC-CPU/cpu_core.c **** *
 900:..\..\..\..\..\..\Software\uC-CPU/cpu_core.c **** *                           (B) time       =  time              +  time
 901:..\..\..\..\..\..\Software\uC-CPU/cpu_core.c **** *                                   total         interrupts           interrupts
 902:..\..\..\..\..\..\Software\uC-CPU/cpu_core.c **** *                                   ovrhd        enabled ovrhd       disabled ovrhd
 903:..\..\..\..\..\..\Software\uC-CPU/cpu_core.c **** *
 904:..\..\..\..\..\..\Software\uC-CPU/cpu_core.c **** *
 905:..\..\..\..\..\..\Software\uC-CPU/cpu_core.c **** *                                   where
 906:..\..\..\..\..\..\Software\uC-CPU/cpu_core.c **** *
 907:..\..\..\..\..\..\Software\uC-CPU/cpu_core.c **** *                                           time                    time interrupts are disabled be
 908:..\..\..\..\..\..\Software\uC-CPU/cpu_core.c **** *                                               interrupts              first critical section ente
 909:..\..\..\..\..\..\Software\uC-CPU/cpu_core.c **** *                                                disabled               last  critical section exit
 910:..\..\..\..\..\..\Software\uC-CPU/cpu_core.c **** *                                           (via application)           minus total overhead time)
 911:..\..\..\..\..\..\Software\uC-CPU/cpu_core.c **** *
 912:..\..\..\..\..\..\Software\uC-CPU/cpu_core.c **** *                                           time                    time when interrupts are disabl
 913:..\..\..\..\..\..\Software\uC-CPU/cpu_core.c **** *                                               interrupts
 914:..\..\..\..\..\..\Software\uC-CPU/cpu_core.c **** *                                                disabled
 915:..\..\..\..\..\..\Software\uC-CPU/cpu_core.c **** *
 916:..\..\..\..\..\..\Software\uC-CPU/cpu_core.c **** *                                           time                    time when interrupts are  enabl
 917:..\..\..\..\..\..\Software\uC-CPU/cpu_core.c **** *                                               interrupts
ARM GAS  C:\Users\ADMINI~1\AppData\Local\Temp\ccaBZmtr.s 			page 34


 918:..\..\..\..\..\..\Software\uC-CPU/cpu_core.c **** *                                                enabled
 919:..\..\..\..\..\..\Software\uC-CPU/cpu_core.c **** *
 920:..\..\..\..\..\..\Software\uC-CPU/cpu_core.c **** *
 921:..\..\..\..\..\..\Software\uC-CPU/cpu_core.c **** *                                           time                    total overhead time to disable/
 922:..\..\..\..\..\..\Software\uC-CPU/cpu_core.c **** *                                               total                   interrupts during critical 
 923:..\..\..\..\..\..\Software\uC-CPU/cpu_core.c **** *                                               ovrhd                   enter & exit
 924:..\..\..\..\..\..\Software\uC-CPU/cpu_core.c **** *
 925:..\..\..\..\..\..\Software\uC-CPU/cpu_core.c **** *                                           time                    total overhead time to disable 
 926:..\..\..\..\..\..\Software\uC-CPU/cpu_core.c **** *                                               interrupts              during critical section ent
 927:..\..\..\..\..\..\Software\uC-CPU/cpu_core.c **** *                                             disabled ovrhd
 928:..\..\..\..\..\..\Software\uC-CPU/cpu_core.c **** *
 929:..\..\..\..\..\..\Software\uC-CPU/cpu_core.c **** *                                           time                    total overhead time to enable  
 930:..\..\..\..\..\..\Software\uC-CPU/cpu_core.c **** *                                               interrupts              during critical section exi
 931:..\..\..\..\..\..\Software\uC-CPU/cpu_core.c **** *                                              enabled ovrhd
 932:..\..\..\..\..\..\Software\uC-CPU/cpu_core.c **** *
 933:..\..\..\..\..\..\Software\uC-CPU/cpu_core.c **** *
 934:..\..\..\..\..\..\Software\uC-CPU/cpu_core.c **** *                       (2) When interrupts disabled time measurements are enabled :
 935:..\..\..\..\..\..\Software\uC-CPU/cpu_core.c **** *
 936:..\..\..\..\..\..\Software\uC-CPU/cpu_core.c **** *
 937:..\..\..\..\..\..\Software\uC-CPU/cpu_core.c **** *        |                                    |                           |                        
 938:..\..\..\..\..\..\Software\uC-CPU/cpu_core.c **** *        |<----- CRITICAL SECTION ENTER ----->|                           |<------- CRITICAL SECTIO
 939:..\..\..\..\..\..\Software\uC-CPU/cpu_core.c **** *        |                                    |                           |                        
 940:..\..\..\..\..\..\Software\uC-CPU/cpu_core.c **** *
 941:..\..\..\..\..\..\Software\uC-CPU/cpu_core.c **** *                   Time                                                 Time
 942:..\..\..\..\..\..\Software\uC-CPU/cpu_core.c **** *     Disable    Measurement                                          Measurement                  
 943:..\..\..\..\..\..\Software\uC-CPU/cpu_core.c **** *    Interrupts     Start                                                Stop                    In
 944:..\..\..\..\..\..\Software\uC-CPU/cpu_core.c **** *
 945:..\..\..\..\..\..\Software\uC-CPU/cpu_core.c **** *        ||           |                      ||                           ||                       
 946:..\..\..\..\..\..\Software\uC-CPU/cpu_core.c **** *        ||           |                      ||                           ||                       
 947:..\..\..\..\..\..\Software\uC-CPU/cpu_core.c **** *        ||           |        |             ||<------------------------->||               |       
 948:..\..\..\..\..\..\Software\uC-CPU/cpu_core.c **** *        ||       |   |        |<----------->||             |             ||<------------->|       
 949:..\..\..\..\..\..\Software\uC-CPU/cpu_core.c **** *        ||       |   |        |      |      ||             |             ||       |       |       
 950:..\..\..\..\..\..\Software\uC-CPU/cpu_core.c **** *                 |            |      |                     |                      |       |       
 951:..\..\..\..\..\..\Software\uC-CPU/cpu_core.c **** *            interrupts       get     |                   time                     |      get      
 952:..\..\..\..\..\..\Software\uC-CPU/cpu_core.c **** *             disabled    start time  |                       interrupts           |   stop time   
 953:..\..\..\..\..\..\Software\uC-CPU/cpu_core.c **** *                            meas     |                        disabled            |     meas
 954:..\..\..\..\..\..\Software\uC-CPU/cpu_core.c **** *                                   time                  (via application)      time
 955:..\..\..\..\..\..\Software\uC-CPU/cpu_core.c **** *                                       start meas                                   stop meas
 956:..\..\..\..\..\..\Software\uC-CPU/cpu_core.c **** *                                         ovrhd                                        ovrhd
 957:..\..\..\..\..\..\Software\uC-CPU/cpu_core.c **** *
 958:..\..\..\..\..\..\Software\uC-CPU/cpu_core.c **** *
 959:..\..\..\..\..\..\Software\uC-CPU/cpu_core.c **** *                           (A) time            =  [ time       -  time      ]  -  time
 960:..\..\..\..\..\..\Software\uC-CPU/cpu_core.c **** *                                   interrupts     [      stop         start ]         total meas
 961:..\..\..\..\..\..\Software\uC-CPU/cpu_core.c **** *                                    disabled      [      meas         meas  ]           ovrhd
 962:..\..\..\..\..\..\Software\uC-CPU/cpu_core.c **** *                               (via application)
 963:..\..\..\..\..\..\Software\uC-CPU/cpu_core.c **** *
 964:..\..\..\..\..\..\Software\uC-CPU/cpu_core.c **** *
 965:..\..\..\..\..\..\Software\uC-CPU/cpu_core.c **** *                           (B) time            =  time            +  time
 966:..\..\..\..\..\..\Software\uC-CPU/cpu_core.c **** *                                   total meas         start meas         stop meas
 967:..\..\..\..\..\..\Software\uC-CPU/cpu_core.c **** *                                     ovrhd              ovrhd              ovrhd
 968:..\..\..\..\..\..\Software\uC-CPU/cpu_core.c **** *
 969:..\..\..\..\..\..\Software\uC-CPU/cpu_core.c **** *
 970:..\..\..\..\..\..\Software\uC-CPU/cpu_core.c **** *                                   where
 971:..\..\..\..\..\..\Software\uC-CPU/cpu_core.c **** *
 972:..\..\..\..\..\..\Software\uC-CPU/cpu_core.c **** *                                           time                    time interrupts are disabled be
 973:..\..\..\..\..\..\Software\uC-CPU/cpu_core.c **** *                                               interrupts              critical section enter & la
 974:..\..\..\..\..\..\Software\uC-CPU/cpu_core.c **** *                                                disabled               section exit (i.e. minus me
ARM GAS  C:\Users\ADMINI~1\AppData\Local\Temp\ccaBZmtr.s 			page 35


 975:..\..\..\..\..\..\Software\uC-CPU/cpu_core.c **** *                                           (via application)           overhead time; however, thi
 976:..\..\..\..\..\..\Software\uC-CPU/cpu_core.c **** *                                                                       include any overhead time t
 977:..\..\..\..\..\..\Software\uC-CPU/cpu_core.c **** *                                                                       or enable interrupts during
 978:..\..\..\..\..\..\Software\uC-CPU/cpu_core.c **** *                                                                       section enter & exit)
 979:..\..\..\..\..\..\Software\uC-CPU/cpu_core.c **** *
 980:..\..\..\..\..\..\Software\uC-CPU/cpu_core.c **** *                                           time                    time of disable interrupts star
 981:..\..\..\..\..\..\Software\uC-CPU/cpu_core.c **** *                                               start                   measurement (in timer count
 982:..\..\..\..\..\..\Software\uC-CPU/cpu_core.c **** *                                               meas
 983:..\..\..\..\..\..\Software\uC-CPU/cpu_core.c **** *
 984:..\..\..\..\..\..\Software\uC-CPU/cpu_core.c **** *                                           time                    time of disable interrupts stop
 985:..\..\..\..\..\..\Software\uC-CPU/cpu_core.c **** *                                               stop                    measurement (in timer count
 986:..\..\..\..\..\..\Software\uC-CPU/cpu_core.c **** *                                               meas
 987:..\..\..\..\..\..\Software\uC-CPU/cpu_core.c **** *
 988:..\..\..\..\..\..\Software\uC-CPU/cpu_core.c **** *
 989:..\..\..\..\..\..\Software\uC-CPU/cpu_core.c **** *                                           time                    total overhead time to start/st
 990:..\..\..\..\..\..\Software\uC-CPU/cpu_core.c **** *                                               total meas              interrupts time measurement
 991:..\..\..\..\..\..\Software\uC-CPU/cpu_core.c **** *                                                 ovrhd                 counts)
 992:..\..\..\..\..\..\Software\uC-CPU/cpu_core.c **** *
 993:..\..\..\..\..\..\Software\uC-CPU/cpu_core.c **** *                                           time                    total overhead time after getti
 994:..\..\..\..\..\..\Software\uC-CPU/cpu_core.c **** *                                               start meas              time until end of start mea
 995:..\..\..\..\..\..\Software\uC-CPU/cpu_core.c **** *                                                 ovrhd                 function  (in timer counts)
 996:..\..\..\..\..\..\Software\uC-CPU/cpu_core.c **** *
 997:..\..\..\..\..\..\Software\uC-CPU/cpu_core.c **** *                                           time                    total overhead time from beginn
 998:..\..\..\..\..\..\Software\uC-CPU/cpu_core.c **** *                                               stop meas               measurement function until 
 999:..\..\..\..\..\..\Software\uC-CPU/cpu_core.c **** *                                                 ovrhd                 stop time (in timer counts)
1000:..\..\..\..\..\..\Software\uC-CPU/cpu_core.c **** *
1001:..\..\..\..\..\..\Software\uC-CPU/cpu_core.c **** *
1002:..\..\..\..\..\..\Software\uC-CPU/cpu_core.c **** *                   (b) (1) (A) In order to correctly handle unsigned subtraction overflows of star
1003:..\..\..\..\..\..\Software\uC-CPU/cpu_core.c **** *                               from stop times, CPU timestamp timer count values MUST be returned 
1004:..\..\..\..\..\..\Software\uC-CPU/cpu_core.c **** *                               word-size-configurable 'CPU_TS_TMR' data type.
1005:..\..\..\..\..\..\Software\uC-CPU/cpu_core.c **** *
1006:..\..\..\..\..\..\Software\uC-CPU/cpu_core.c **** *                               See also 'cpu_core.h  FUNCTION PROTOTYPES  CPU_TS_TmrRd()  Note #2a
1007:..\..\..\..\..\..\Software\uC-CPU/cpu_core.c **** *
1008:..\..\..\..\..\..\Software\uC-CPU/cpu_core.c **** *                           (B) Since unsigned subtraction of start times from stop times assumes i
1009:..\..\..\..\..\..\Software\uC-CPU/cpu_core.c **** *                               values, timestamp timer count values MUST increase with each time c
1010:..\..\..\..\..\..\Software\uC-CPU/cpu_core.c **** *
1011:..\..\..\..\..\..\Software\uC-CPU/cpu_core.c **** *                               See also 'cpu_core.h  FUNCTION PROTOTYPES  CPU_TS_TmrRd()  Note #2b
1012:..\..\..\..\..\..\Software\uC-CPU/cpu_core.c **** *
1013:..\..\..\..\..\..\Software\uC-CPU/cpu_core.c **** *                       (2) (A) To expedite & reduce interrupts disabled time measurement overhead;
1014:..\..\..\..\..\..\Software\uC-CPU/cpu_core.c **** *                               subtraction of start times from stop times is performed.
1015:..\..\..\..\..\..\Software\uC-CPU/cpu_core.c **** *
1016:..\..\..\..\..\..\Software\uC-CPU/cpu_core.c **** *                           (B) The final calculations to subtract the interrupts disabled time mea
1017:..\..\..\..\..\..\Software\uC-CPU/cpu_core.c **** *                               overhead is performed asynchronously in appropriate API functions.
1018:..\..\..\..\..\..\Software\uC-CPU/cpu_core.c **** *
1019:..\..\..\..\..\..\Software\uC-CPU/cpu_core.c **** *                               See also 'CPU_IntDisMeasMaxCalc()  Note #1b'.
1020:..\..\..\..\..\..\Software\uC-CPU/cpu_core.c **** ***************************************************************************************************
1021:..\..\..\..\..\..\Software\uC-CPU/cpu_core.c **** */
1022:..\..\..\..\..\..\Software\uC-CPU/cpu_core.c **** 
1023:..\..\..\..\..\..\Software\uC-CPU/cpu_core.c **** #ifdef  CPU_CFG_INT_DIS_MEAS_EN
1024:..\..\..\..\..\..\Software\uC-CPU/cpu_core.c **** void  CPU_IntDisMeasStop (void)
1025:..\..\..\..\..\..\Software\uC-CPU/cpu_core.c **** {
 965              		.loc 1 1025 0
 966              		.cfi_startproc
 967              		@ args = 0, pretend = 0, frame = 8
 968              		@ frame_needed = 1, uses_anonymous_args = 0
 969 0000 80B5     		push	{r7, lr}
 970              		.cfi_def_cfa_offset 8
ARM GAS  C:\Users\ADMINI~1\AppData\Local\Temp\ccaBZmtr.s 			page 36


 971              		.cfi_offset 7, -8
 972              		.cfi_offset 14, -4
 973 0002 82B0     		sub	sp, sp, #8
 974              		.cfi_def_cfa_offset 16
 975 0004 00AF     		add	r7, sp, #0
 976              		.cfi_def_cfa_register 7
1026:..\..\..\..\..\..\Software\uC-CPU/cpu_core.c ****     CPU_TS_TMR  time_ints_disd_cnts;
1027:..\..\..\..\..\..\Software\uC-CPU/cpu_core.c **** 
1028:..\..\..\..\..\..\Software\uC-CPU/cpu_core.c **** 
1029:..\..\..\..\..\..\Software\uC-CPU/cpu_core.c ****     CPU_IntDisNestCtr--;
 977              		.loc 1 1029 0
 978 0006 144B     		ldr	r3, .L53
 979 0008 1B88     		ldrh	r3, [r3]
 980 000a 013B     		subs	r3, r3, #1
 981 000c 9AB2     		uxth	r2, r3
 982 000e 124B     		ldr	r3, .L53
 983 0010 1A80     		strh	r2, [r3]
1030:..\..\..\..\..\..\Software\uC-CPU/cpu_core.c ****     if (CPU_IntDisNestCtr == 0u) {                                  /* If ints NO longer dis'd,    
 984              		.loc 1 1030 0
 985 0012 114B     		ldr	r3, .L53
 986 0014 1B88     		ldrh	r3, [r3]
 987 0016 002B     		cmp	r3, #0
 988 0018 1AD1     		bne	.L52
1031:..\..\..\..\..\..\Software\uC-CPU/cpu_core.c ****         CPU_IntDisMeasStop_cnts = CPU_TS_TmrRd();                   /* ... get  ints dis'd stop tim
 989              		.loc 1 1031 0
 990 001a FFF7FEFF 		bl	CPU_TS_TmrRd
 991 001e 0200     		movs	r2, r0
 992 0020 0E4B     		ldr	r3, .L53+4
 993 0022 1A60     		str	r2, [r3]
1032:..\..\..\..\..\..\Software\uC-CPU/cpu_core.c ****                                                                     /* ... calc ints dis'd tot  tim
1033:..\..\..\..\..\..\Software\uC-CPU/cpu_core.c ****         time_ints_disd_cnts     = CPU_IntDisMeasStop_cnts -
 994              		.loc 1 1033 0
 995 0024 0D4B     		ldr	r3, .L53+4
 996 0026 1A68     		ldr	r2, [r3]
 997 0028 0D4B     		ldr	r3, .L53+8
 998 002a 1B68     		ldr	r3, [r3]
 999 002c D31A     		subs	r3, r2, r3
 1000 002e 7B60     		str	r3, [r7, #4]
1034:..\..\..\..\..\..\Software\uC-CPU/cpu_core.c ****                                   CPU_IntDisMeasStart_cnts;
1035:..\..\..\..\..\..\Software\uC-CPU/cpu_core.c ****                                                                     /* Calc max ints dis'd times.  
1036:..\..\..\..\..\..\Software\uC-CPU/cpu_core.c ****         if (CPU_IntDisMeasMaxCur_cnts < time_ints_disd_cnts) {
 1001              		.loc 1 1036 0
 1002 0030 0C4B     		ldr	r3, .L53+12
 1003 0032 1A68     		ldr	r2, [r3]
 1004 0034 7B68     		ldr	r3, [r7, #4]
 1005 0036 9A42     		cmp	r2, r3
 1006 0038 02D2     		bcs	.L51
1037:..\..\..\..\..\..\Software\uC-CPU/cpu_core.c ****             CPU_IntDisMeasMaxCur_cnts = time_ints_disd_cnts;
 1007              		.loc 1 1037 0
 1008 003a 0A4B     		ldr	r3, .L53+12
 1009 003c 7A68     		ldr	r2, [r7, #4]
 1010 003e 1A60     		str	r2, [r3]
 1011              	.L51:
1038:..\..\..\..\..\..\Software\uC-CPU/cpu_core.c ****         }
1039:..\..\..\..\..\..\Software\uC-CPU/cpu_core.c ****         if (CPU_IntDisMeasMax_cnts    < time_ints_disd_cnts) {
 1012              		.loc 1 1039 0
 1013 0040 094B     		ldr	r3, .L53+16
ARM GAS  C:\Users\ADMINI~1\AppData\Local\Temp\ccaBZmtr.s 			page 37


 1014 0042 1A68     		ldr	r2, [r3]
 1015 0044 7B68     		ldr	r3, [r7, #4]
 1016 0046 9A42     		cmp	r2, r3
 1017 0048 02D2     		bcs	.L52
1040:..\..\..\..\..\..\Software\uC-CPU/cpu_core.c ****             CPU_IntDisMeasMax_cnts    = time_ints_disd_cnts;
 1018              		.loc 1 1040 0
 1019 004a 074B     		ldr	r3, .L53+16
 1020 004c 7A68     		ldr	r2, [r7, #4]
 1021 004e 1A60     		str	r2, [r3]
 1022              	.L52:
1041:..\..\..\..\..\..\Software\uC-CPU/cpu_core.c ****         }
1042:..\..\..\..\..\..\Software\uC-CPU/cpu_core.c ****     }
1043:..\..\..\..\..\..\Software\uC-CPU/cpu_core.c **** }
 1023              		.loc 1 1043 0
 1024 0050 C046     		nop
 1025 0052 BD46     		mov	sp, r7
 1026 0054 02B0     		add	sp, sp, #8
 1027              		@ sp needed
 1028 0056 80BD     		pop	{r7, pc}
 1029              	.L54:
 1030              		.align	2
 1031              	.L53:
 1032 0058 00000000 		.word	CPU_IntDisNestCtr
 1033 005c 00000000 		.word	CPU_IntDisMeasStop_cnts
 1034 0060 00000000 		.word	CPU_IntDisMeasStart_cnts
 1035 0064 00000000 		.word	CPU_IntDisMeasMaxCur_cnts
 1036 0068 00000000 		.word	CPU_IntDisMeasMax_cnts
 1037              		.cfi_endproc
 1038              	.LFE13:
 1039              		.size	CPU_IntDisMeasStop, .-CPU_IntDisMeasStop
 1040              		.section	.text.CPU_CntLeadZeros,"ax",%progbits
 1041              		.align	2
 1042              		.global	CPU_CntLeadZeros
 1043              		.code	16
 1044              		.thumb_func
 1045              		.type	CPU_CntLeadZeros, %function
 1046              	CPU_CntLeadZeros:
 1047              	.LFB14:
1044:..\..\..\..\..\..\Software\uC-CPU/cpu_core.c **** #endif
1045:..\..\..\..\..\..\Software\uC-CPU/cpu_core.c **** 
1046:..\..\..\..\..\..\Software\uC-CPU/cpu_core.c **** 
1047:..\..\..\..\..\..\Software\uC-CPU/cpu_core.c **** /*
1048:..\..\..\..\..\..\Software\uC-CPU/cpu_core.c **** ***************************************************************************************************
1049:..\..\..\..\..\..\Software\uC-CPU/cpu_core.c **** *                                         CPU_CntLeadZeros()
1050:..\..\..\..\..\..\Software\uC-CPU/cpu_core.c **** *
1051:..\..\..\..\..\..\Software\uC-CPU/cpu_core.c **** * Description : Count the number of contiguous, most-significant, leading zero bits in a data value
1052:..\..\..\..\..\..\Software\uC-CPU/cpu_core.c **** *
1053:..\..\..\..\..\..\Software\uC-CPU/cpu_core.c **** * Argument(s) : val         Data value to count leading zero bits.
1054:..\..\..\..\..\..\Software\uC-CPU/cpu_core.c **** *
1055:..\..\..\..\..\..\Software\uC-CPU/cpu_core.c **** * Return(s)   : Number of contiguous, most-significant, leading zero bits in 'val', if NO error(s).
1056:..\..\..\..\..\..\Software\uC-CPU/cpu_core.c **** *
1057:..\..\..\..\..\..\Software\uC-CPU/cpu_core.c **** *               DEF_INT_CPU_U_MAX_VAL,                                              otherwise.
1058:..\..\..\..\..\..\Software\uC-CPU/cpu_core.c **** *
1059:..\..\..\..\..\..\Software\uC-CPU/cpu_core.c **** * Caller(s)   : CPU_CntTrailZeros(),
1060:..\..\..\..\..\..\Software\uC-CPU/cpu_core.c **** *               Application.
1061:..\..\..\..\..\..\Software\uC-CPU/cpu_core.c **** *
1062:..\..\..\..\..\..\Software\uC-CPU/cpu_core.c **** *               This function is a CPU module application programming interface (API) function & MA
ARM GAS  C:\Users\ADMINI~1\AppData\Local\Temp\ccaBZmtr.s 			page 38


1063:..\..\..\..\..\..\Software\uC-CPU/cpu_core.c **** *               be called by application function(s).
1064:..\..\..\..\..\..\Software\uC-CPU/cpu_core.c **** *
1065:..\..\..\..\..\..\Software\uC-CPU/cpu_core.c **** * Note(s)     : (1) (a) Supports the following data value sizes :
1066:..\..\..\..\..\..\Software\uC-CPU/cpu_core.c **** *
1067:..\..\..\..\..\..\Software\uC-CPU/cpu_core.c **** *                       (1)  8-bits
1068:..\..\..\..\..\..\Software\uC-CPU/cpu_core.c **** *                       (2) 16-bits
1069:..\..\..\..\..\..\Software\uC-CPU/cpu_core.c **** *                       (3) 32-bits
1070:..\..\..\..\..\..\Software\uC-CPU/cpu_core.c **** *                       (4) 64-bits
1071:..\..\..\..\..\..\Software\uC-CPU/cpu_core.c **** *
1072:..\..\..\..\..\..\Software\uC-CPU/cpu_core.c **** *                       See also 'cpu_def.h  CPU WORD CONFIGURATION  Note #1'.
1073:..\..\..\..\..\..\Software\uC-CPU/cpu_core.c **** *
1074:..\..\..\..\..\..\Software\uC-CPU/cpu_core.c **** *                   (b) (1) For  8-bit values :
1075:..\..\..\..\..\..\Software\uC-CPU/cpu_core.c **** *
1076:..\..\..\..\..\..\Software\uC-CPU/cpu_core.c **** *                                  b07  b06  b05  b04  b03  b02  b01  b00    # Leading Zeros
1077:..\..\..\..\..\..\Software\uC-CPU/cpu_core.c **** *                                  ---  ---  ---  ---  ---  ---  ---  ---    ---------------
1078:..\..\..\..\..\..\Software\uC-CPU/cpu_core.c **** *                                   1    x    x    x    x    x    x    x            0
1079:..\..\..\..\..\..\Software\uC-CPU/cpu_core.c **** *                                   0    1    x    x    x    x    x    x            1
1080:..\..\..\..\..\..\Software\uC-CPU/cpu_core.c **** *                                   0    0    1    x    x    x    x    x            2
1081:..\..\..\..\..\..\Software\uC-CPU/cpu_core.c **** *                                   0    0    0    1    x    x    x    x            3
1082:..\..\..\..\..\..\Software\uC-CPU/cpu_core.c **** *                                   0    0    0    0    1    x    x    x            4
1083:..\..\..\..\..\..\Software\uC-CPU/cpu_core.c **** *                                   0    0    0    0    0    1    x    x            5
1084:..\..\..\..\..\..\Software\uC-CPU/cpu_core.c **** *                                   0    0    0    0    0    0    1    x            6
1085:..\..\..\..\..\..\Software\uC-CPU/cpu_core.c **** *                                   0    0    0    0    0    0    0    1            7
1086:..\..\..\..\..\..\Software\uC-CPU/cpu_core.c **** *                                   0    0    0    0    0    0    0    0            8
1087:..\..\..\..\..\..\Software\uC-CPU/cpu_core.c **** *
1088:..\..\..\..\..\..\Software\uC-CPU/cpu_core.c **** *
1089:..\..\..\..\..\..\Software\uC-CPU/cpu_core.c **** *                       (2) For 16-bit values :
1090:..\..\..\..\..\..\Software\uC-CPU/cpu_core.c **** *
1091:..\..\..\..\..\..\Software\uC-CPU/cpu_core.c **** *                             b15  b14  b13  ...  b04  b03  b02  b01  b00    # Leading Zeros
1092:..\..\..\..\..\..\Software\uC-CPU/cpu_core.c **** *                             ---  ---  ---       ---  ---  ---  ---  ---    ---------------
1093:..\..\..\..\..\..\Software\uC-CPU/cpu_core.c **** *                              1    x    x         x    x    x    x    x            0
1094:..\..\..\..\..\..\Software\uC-CPU/cpu_core.c **** *                              0    1    x         x    x    x    x    x            1
1095:..\..\..\..\..\..\Software\uC-CPU/cpu_core.c **** *                              0    0    1         x    x    x    x    x            2
1096:..\..\..\..\..\..\Software\uC-CPU/cpu_core.c **** *                              :    :    :         :    :    :    :    :            :
1097:..\..\..\..\..\..\Software\uC-CPU/cpu_core.c **** *                              :    :    :         :    :    :    :    :            :
1098:..\..\..\..\..\..\Software\uC-CPU/cpu_core.c **** *                              0    0    0         1    x    x    x    x           11
1099:..\..\..\..\..\..\Software\uC-CPU/cpu_core.c **** *                              0    0    0         0    1    x    x    x           12
1100:..\..\..\..\..\..\Software\uC-CPU/cpu_core.c **** *                              0    0    0         0    0    1    x    x           13
1101:..\..\..\..\..\..\Software\uC-CPU/cpu_core.c **** *                              0    0    0         0    0    0    1    x           14
1102:..\..\..\..\..\..\Software\uC-CPU/cpu_core.c **** *                              0    0    0         0    0    0    0    1           15
1103:..\..\..\..\..\..\Software\uC-CPU/cpu_core.c **** *                              0    0    0         0    0    0    0    0           16
1104:..\..\..\..\..\..\Software\uC-CPU/cpu_core.c **** *
1105:..\..\..\..\..\..\Software\uC-CPU/cpu_core.c **** *                       (3) For 32-bit values :
1106:..\..\..\..\..\..\Software\uC-CPU/cpu_core.c **** *
1107:..\..\..\..\..\..\Software\uC-CPU/cpu_core.c **** *                             b31  b30  b29  ...  b04  b03  b02  b01  b00    # Leading Zeros
1108:..\..\..\..\..\..\Software\uC-CPU/cpu_core.c **** *                             ---  ---  ---       ---  ---  ---  ---  ---    ---------------
1109:..\..\..\..\..\..\Software\uC-CPU/cpu_core.c **** *                              1    x    x         x    x    x    x    x            0
1110:..\..\..\..\..\..\Software\uC-CPU/cpu_core.c **** *                              0    1    x         x    x    x    x    x            1
1111:..\..\..\..\..\..\Software\uC-CPU/cpu_core.c **** *                              0    0    1         x    x    x    x    x            2
1112:..\..\..\..\..\..\Software\uC-CPU/cpu_core.c **** *                              :    :    :         :    :    :    :    :            :
1113:..\..\..\..\..\..\Software\uC-CPU/cpu_core.c **** *                              :    :    :         :    :    :    :    :            :
1114:..\..\..\..\..\..\Software\uC-CPU/cpu_core.c **** *                              0    0    0         1    x    x    x    x           27
1115:..\..\..\..\..\..\Software\uC-CPU/cpu_core.c **** *                              0    0    0         0    1    x    x    x           28
1116:..\..\..\..\..\..\Software\uC-CPU/cpu_core.c **** *                              0    0    0         0    0    1    x    x           29
1117:..\..\..\..\..\..\Software\uC-CPU/cpu_core.c **** *                              0    0    0         0    0    0    1    x           30
1118:..\..\..\..\..\..\Software\uC-CPU/cpu_core.c **** *                              0    0    0         0    0    0    0    1           31
1119:..\..\..\..\..\..\Software\uC-CPU/cpu_core.c **** *                              0    0    0         0    0    0    0    0           32
ARM GAS  C:\Users\ADMINI~1\AppData\Local\Temp\ccaBZmtr.s 			page 39


1120:..\..\..\..\..\..\Software\uC-CPU/cpu_core.c **** *
1121:..\..\..\..\..\..\Software\uC-CPU/cpu_core.c **** *
1122:..\..\..\..\..\..\Software\uC-CPU/cpu_core.c **** *                       (4) For 64-bit values :
1123:..\..\..\..\..\..\Software\uC-CPU/cpu_core.c **** *
1124:..\..\..\..\..\..\Software\uC-CPU/cpu_core.c **** *                             b63  b62  b61  ...  b04  b03  b02  b01  b00    # Leading Zeros
1125:..\..\..\..\..\..\Software\uC-CPU/cpu_core.c **** *                             ---  ---  ---       ---  ---  ---  ---  ---    ---------------
1126:..\..\..\..\..\..\Software\uC-CPU/cpu_core.c **** *                              1    x    x         x    x    x    x    x            0
1127:..\..\..\..\..\..\Software\uC-CPU/cpu_core.c **** *                              0    1    x         x    x    x    x    x            1
1128:..\..\..\..\..\..\Software\uC-CPU/cpu_core.c **** *                              0    0    1         x    x    x    x    x            2
1129:..\..\..\..\..\..\Software\uC-CPU/cpu_core.c **** *                              :    :    :         :    :    :    :    :            :
1130:..\..\..\..\..\..\Software\uC-CPU/cpu_core.c **** *                              :    :    :         :    :    :    :    :            :
1131:..\..\..\..\..\..\Software\uC-CPU/cpu_core.c **** *                              0    0    0         1    x    x    x    x           59
1132:..\..\..\..\..\..\Software\uC-CPU/cpu_core.c **** *                              0    0    0         0    1    x    x    x           60
1133:..\..\..\..\..\..\Software\uC-CPU/cpu_core.c **** *                              0    0    0         0    0    1    x    x           61
1134:..\..\..\..\..\..\Software\uC-CPU/cpu_core.c **** *                              0    0    0         0    0    0    1    x           62
1135:..\..\..\..\..\..\Software\uC-CPU/cpu_core.c **** *                              0    0    0         0    0    0    0    1           63
1136:..\..\..\..\..\..\Software\uC-CPU/cpu_core.c **** *                              0    0    0         0    0    0    0    0           64
1137:..\..\..\..\..\..\Software\uC-CPU/cpu_core.c **** *
1138:..\..\..\..\..\..\Software\uC-CPU/cpu_core.c **** *
1139:..\..\..\..\..\..\Software\uC-CPU/cpu_core.c **** *                       See also 'CPU COUNT LEAD ZEROs LOOKUP TABLE  Note #1'.
1140:..\..\..\..\..\..\Software\uC-CPU/cpu_core.c **** ***************************************************************************************************
1141:..\..\..\..\..\..\Software\uC-CPU/cpu_core.c **** */
1142:..\..\..\..\..\..\Software\uC-CPU/cpu_core.c **** 
1143:..\..\..\..\..\..\Software\uC-CPU/cpu_core.c **** #ifndef   CPU_CFG_LEAD_ZEROS_ASM_PRESENT
1144:..\..\..\..\..\..\Software\uC-CPU/cpu_core.c **** CPU_DATA  CPU_CntLeadZeros (CPU_DATA  val)
1145:..\..\..\..\..\..\Software\uC-CPU/cpu_core.c **** {
 1048              		.loc 1 1145 0
 1049              		.cfi_startproc
 1050              		@ args = 0, pretend = 0, frame = 16
 1051              		@ frame_needed = 1, uses_anonymous_args = 0
 1052 0000 80B5     		push	{r7, lr}
 1053              		.cfi_def_cfa_offset 8
 1054              		.cfi_offset 7, -8
 1055              		.cfi_offset 14, -4
 1056 0002 84B0     		sub	sp, sp, #16
 1057              		.cfi_def_cfa_offset 24
 1058 0004 00AF     		add	r7, sp, #0
 1059              		.cfi_def_cfa_register 7
 1060 0006 7860     		str	r0, [r7, #4]
1146:..\..\..\..\..\..\Software\uC-CPU/cpu_core.c ****     CPU_DATA  nbr_lead_zeros;
1147:..\..\..\..\..\..\Software\uC-CPU/cpu_core.c **** 
1148:..\..\..\..\..\..\Software\uC-CPU/cpu_core.c **** 
1149:..\..\..\..\..\..\Software\uC-CPU/cpu_core.c **** #if   (CPU_CFG_DATA_SIZE == CPU_WORD_SIZE_08)
1150:..\..\..\..\..\..\Software\uC-CPU/cpu_core.c ****     nbr_lead_zeros = CPU_CntLeadZeros08((CPU_INT08U)val);
1151:..\..\..\..\..\..\Software\uC-CPU/cpu_core.c **** 
1152:..\..\..\..\..\..\Software\uC-CPU/cpu_core.c **** #elif (CPU_CFG_DATA_SIZE == CPU_WORD_SIZE_16)
1153:..\..\..\..\..\..\Software\uC-CPU/cpu_core.c ****     nbr_lead_zeros = CPU_CntLeadZeros16((CPU_INT16U)val);
1154:..\..\..\..\..\..\Software\uC-CPU/cpu_core.c **** 
1155:..\..\..\..\..\..\Software\uC-CPU/cpu_core.c **** #elif (CPU_CFG_DATA_SIZE == CPU_WORD_SIZE_32)
1156:..\..\..\..\..\..\Software\uC-CPU/cpu_core.c ****     nbr_lead_zeros = CPU_CntLeadZeros32((CPU_INT32U)val);
 1061              		.loc 1 1156 0
 1062 0008 7B68     		ldr	r3, [r7, #4]
 1063 000a 1800     		movs	r0, r3
 1064 000c FFF7FEFF 		bl	CPU_CntLeadZeros32
 1065 0010 0300     		movs	r3, r0
 1066 0012 FB60     		str	r3, [r7, #12]
1157:..\..\..\..\..\..\Software\uC-CPU/cpu_core.c **** 
ARM GAS  C:\Users\ADMINI~1\AppData\Local\Temp\ccaBZmtr.s 			page 40


1158:..\..\..\..\..\..\Software\uC-CPU/cpu_core.c **** #elif (CPU_CFG_DATA_SIZE == CPU_WORD_SIZE_64)
1159:..\..\..\..\..\..\Software\uC-CPU/cpu_core.c ****     nbr_lead_zeros = CPU_CntLeadZeros64((CPU_INT64U)val);
1160:..\..\..\..\..\..\Software\uC-CPU/cpu_core.c **** 
1161:..\..\..\..\..\..\Software\uC-CPU/cpu_core.c **** #else                                                           /* See Note #1a.                   
1162:..\..\..\..\..\..\Software\uC-CPU/cpu_core.c ****     nbr_lead_zeros = DEF_INT_CPU_U_MAX_VAL;
1163:..\..\..\..\..\..\Software\uC-CPU/cpu_core.c **** #endif
1164:..\..\..\..\..\..\Software\uC-CPU/cpu_core.c **** 
1165:..\..\..\..\..\..\Software\uC-CPU/cpu_core.c **** 
1166:..\..\..\..\..\..\Software\uC-CPU/cpu_core.c ****     return (nbr_lead_zeros);
 1067              		.loc 1 1166 0
 1068 0014 FB68     		ldr	r3, [r7, #12]
1167:..\..\..\..\..\..\Software\uC-CPU/cpu_core.c **** }
 1069              		.loc 1 1167 0
 1070 0016 1800     		movs	r0, r3
 1071 0018 BD46     		mov	sp, r7
 1072 001a 04B0     		add	sp, sp, #16
 1073              		@ sp needed
 1074 001c 80BD     		pop	{r7, pc}
 1075              		.cfi_endproc
 1076              	.LFE14:
 1077              		.size	CPU_CntLeadZeros, .-CPU_CntLeadZeros
 1078 001e C046     		.section	.text.CPU_CntLeadZeros08,"ax",%progbits
 1079              		.align	2
 1080              		.global	CPU_CntLeadZeros08
 1081              		.code	16
 1082              		.thumb_func
 1083              		.type	CPU_CntLeadZeros08, %function
 1084              	CPU_CntLeadZeros08:
 1085              	.LFB15:
1168:..\..\..\..\..\..\Software\uC-CPU/cpu_core.c **** #endif
1169:..\..\..\..\..\..\Software\uC-CPU/cpu_core.c **** 
1170:..\..\..\..\..\..\Software\uC-CPU/cpu_core.c **** 
1171:..\..\..\..\..\..\Software\uC-CPU/cpu_core.c **** /*
1172:..\..\..\..\..\..\Software\uC-CPU/cpu_core.c **** ***************************************************************************************************
1173:..\..\..\..\..\..\Software\uC-CPU/cpu_core.c **** *                                        CPU_CntLeadZeros08()
1174:..\..\..\..\..\..\Software\uC-CPU/cpu_core.c **** *
1175:..\..\..\..\..\..\Software\uC-CPU/cpu_core.c **** * Description : Count the number of contiguous, most-significant, leading zero bits in an 8-bit dat
1176:..\..\..\..\..\..\Software\uC-CPU/cpu_core.c **** *
1177:..\..\..\..\..\..\Software\uC-CPU/cpu_core.c **** * Argument(s) : val         Data value to count leading zero bits.
1178:..\..\..\..\..\..\Software\uC-CPU/cpu_core.c **** *
1179:..\..\..\..\..\..\Software\uC-CPU/cpu_core.c **** * Return(s)   : Number of contiguous, most-significant, leading zero bits in 'val'.
1180:..\..\..\..\..\..\Software\uC-CPU/cpu_core.c **** *
1181:..\..\..\..\..\..\Software\uC-CPU/cpu_core.c **** * Caller(s)   : CPU_CntLeadZeros(),
1182:..\..\..\..\..\..\Software\uC-CPU/cpu_core.c **** *               CPU_CntTrailZeros08(),
1183:..\..\..\..\..\..\Software\uC-CPU/cpu_core.c **** *               Application.
1184:..\..\..\..\..\..\Software\uC-CPU/cpu_core.c **** *
1185:..\..\..\..\..\..\Software\uC-CPU/cpu_core.c **** *               This function is a CPU module application programming interface (API) function & MA
1186:..\..\..\..\..\..\Software\uC-CPU/cpu_core.c **** *               called by application function(s).
1187:..\..\..\..\..\..\Software\uC-CPU/cpu_core.c **** *
1188:..\..\..\..\..\..\Software\uC-CPU/cpu_core.c **** * Note(s)     : (1) Supports  8-bit values :
1189:..\..\..\..\..\..\Software\uC-CPU/cpu_core.c **** *
1190:..\..\..\..\..\..\Software\uC-CPU/cpu_core.c **** *                               b07  b06  b05  b04  b03  b02  b01  b00    # Leading Zeros
1191:..\..\..\..\..\..\Software\uC-CPU/cpu_core.c **** *                               ---  ---  ---  ---  ---  ---  ---  ---    ---------------
1192:..\..\..\..\..\..\Software\uC-CPU/cpu_core.c **** *                                1    x    x    x    x    x    x    x            0
1193:..\..\..\..\..\..\Software\uC-CPU/cpu_core.c **** *                                0    1    x    x    x    x    x    x            1
1194:..\..\..\..\..\..\Software\uC-CPU/cpu_core.c **** *                                0    0    1    x    x    x    x    x            2
1195:..\..\..\..\..\..\Software\uC-CPU/cpu_core.c **** *                                0    0    0    1    x    x    x    x            3
ARM GAS  C:\Users\ADMINI~1\AppData\Local\Temp\ccaBZmtr.s 			page 41


1196:..\..\..\..\..\..\Software\uC-CPU/cpu_core.c **** *                                0    0    0    0    1    x    x    x            4
1197:..\..\..\..\..\..\Software\uC-CPU/cpu_core.c **** *                                0    0    0    0    0    1    x    x            5
1198:..\..\..\..\..\..\Software\uC-CPU/cpu_core.c **** *                                0    0    0    0    0    0    1    x            6
1199:..\..\..\..\..\..\Software\uC-CPU/cpu_core.c **** *                                0    0    0    0    0    0    0    1            7
1200:..\..\..\..\..\..\Software\uC-CPU/cpu_core.c **** *                                0    0    0    0    0    0    0    0            8
1201:..\..\..\..\..\..\Software\uC-CPU/cpu_core.c **** *
1202:..\..\..\..\..\..\Software\uC-CPU/cpu_core.c **** *
1203:..\..\..\..\..\..\Software\uC-CPU/cpu_core.c **** *                   See also 'CPU COUNT LEAD ZEROs LOOKUP TABLE  Note #1'.
1204:..\..\..\..\..\..\Software\uC-CPU/cpu_core.c **** ***************************************************************************************************
1205:..\..\..\..\..\..\Software\uC-CPU/cpu_core.c **** */
1206:..\..\..\..\..\..\Software\uC-CPU/cpu_core.c **** 
1207:..\..\..\..\..\..\Software\uC-CPU/cpu_core.c **** #if (CPU_CFG_DATA_SIZE_MAX >= CPU_WORD_SIZE_08)
1208:..\..\..\..\..\..\Software\uC-CPU/cpu_core.c **** CPU_DATA  CPU_CntLeadZeros08 (CPU_INT08U  val)
1209:..\..\..\..\..\..\Software\uC-CPU/cpu_core.c **** {
 1086              		.loc 1 1209 0
 1087              		.cfi_startproc
 1088              		@ args = 0, pretend = 0, frame = 16
 1089              		@ frame_needed = 1, uses_anonymous_args = 0
 1090 0000 80B5     		push	{r7, lr}
 1091              		.cfi_def_cfa_offset 8
 1092              		.cfi_offset 7, -8
 1093              		.cfi_offset 14, -4
 1094 0002 84B0     		sub	sp, sp, #16
 1095              		.cfi_def_cfa_offset 24
 1096 0004 00AF     		add	r7, sp, #0
 1097              		.cfi_def_cfa_register 7
 1098 0006 0200     		movs	r2, r0
 1099 0008 FB1D     		adds	r3, r7, #7
 1100 000a 1A70     		strb	r2, [r3]
1210:..\..\..\..\..\..\Software\uC-CPU/cpu_core.c **** #if  (!((defined(CPU_CFG_LEAD_ZEROS_ASM_PRESENT)) && \
1211:..\..\..\..\..\..\Software\uC-CPU/cpu_core.c ****         (CPU_CFG_DATA_SIZE >= CPU_WORD_SIZE_08)))
1212:..\..\..\..\..\..\Software\uC-CPU/cpu_core.c ****     CPU_DATA  ix;
1213:..\..\..\..\..\..\Software\uC-CPU/cpu_core.c **** #endif
1214:..\..\..\..\..\..\Software\uC-CPU/cpu_core.c ****     CPU_DATA  nbr_lead_zeros;
1215:..\..\..\..\..\..\Software\uC-CPU/cpu_core.c **** 
1216:..\..\..\..\..\..\Software\uC-CPU/cpu_core.c ****                                                                                 /* ---------- ASM-O
1217:..\..\..\..\..\..\Software\uC-CPU/cpu_core.c **** #if ((defined(CPU_CFG_LEAD_ZEROS_ASM_PRESENT)) && \
1218:..\..\..\..\..\..\Software\uC-CPU/cpu_core.c ****      (CPU_CFG_DATA_SIZE >= CPU_WORD_SIZE_08))
1219:..\..\..\..\..\..\Software\uC-CPU/cpu_core.c ****     nbr_lead_zeros  =  CPU_CntLeadZeros((CPU_DATA)val);
1220:..\..\..\..\..\..\Software\uC-CPU/cpu_core.c ****     nbr_lead_zeros -= (CPU_CFG_DATA_SIZE - CPU_WORD_SIZE_08) * DEF_OCTET_NBR_BITS;
1221:..\..\..\..\..\..\Software\uC-CPU/cpu_core.c **** 
1222:..\..\..\..\..\..\Software\uC-CPU/cpu_core.c **** 
1223:..\..\..\..\..\..\Software\uC-CPU/cpu_core.c **** #else                                                                           /* ----------- C-OP
1224:..\..\..\..\..\..\Software\uC-CPU/cpu_core.c ****                                                                                 /* Chk bits [07:00]
1225:..\..\..\..\..\..\Software\uC-CPU/cpu_core.c ****                                                                                 /* .. Nbr lead zero
1226:..\..\..\..\..\..\Software\uC-CPU/cpu_core.c ****     ix              = (CPU_DATA)(val);                                          /* .. lookup tbl ix
 1101              		.loc 1 1226 0
 1102 000c FB1D     		adds	r3, r7, #7
 1103 000e 1B78     		ldrb	r3, [r3]
 1104 0010 FB60     		str	r3, [r7, #12]
1227:..\..\..\..\..\..\Software\uC-CPU/cpu_core.c ****     nbr_lead_zeros  = (CPU_DATA)(CPU_CntLeadZerosTbl[ix]);                      /* .. plus nbr msb 
 1105              		.loc 1 1227 0
 1106 0012 054A     		ldr	r2, .L59
 1107 0014 FB68     		ldr	r3, [r7, #12]
 1108 0016 D318     		adds	r3, r2, r3
 1109 0018 1B78     		ldrb	r3, [r3]
 1110 001a BB60     		str	r3, [r7, #8]
ARM GAS  C:\Users\ADMINI~1\AppData\Local\Temp\ccaBZmtr.s 			page 42


1228:..\..\..\..\..\..\Software\uC-CPU/cpu_core.c **** #endif
1229:..\..\..\..\..\..\Software\uC-CPU/cpu_core.c **** 
1230:..\..\..\..\..\..\Software\uC-CPU/cpu_core.c **** 
1231:..\..\..\..\..\..\Software\uC-CPU/cpu_core.c ****     return (nbr_lead_zeros);
 1111              		.loc 1 1231 0
 1112 001c BB68     		ldr	r3, [r7, #8]
1232:..\..\..\..\..\..\Software\uC-CPU/cpu_core.c **** }
 1113              		.loc 1 1232 0
 1114 001e 1800     		movs	r0, r3
 1115 0020 BD46     		mov	sp, r7
 1116 0022 04B0     		add	sp, sp, #16
 1117              		@ sp needed
 1118 0024 80BD     		pop	{r7, pc}
 1119              	.L60:
 1120 0026 C046     		.align	2
 1121              	.L59:
 1122 0028 00000000 		.word	CPU_CntLeadZerosTbl
 1123              		.cfi_endproc
 1124              	.LFE15:
 1125              		.size	CPU_CntLeadZeros08, .-CPU_CntLeadZeros08
 1126              		.section	.text.CPU_CntLeadZeros16,"ax",%progbits
 1127              		.align	2
 1128              		.global	CPU_CntLeadZeros16
 1129              		.code	16
 1130              		.thumb_func
 1131              		.type	CPU_CntLeadZeros16, %function
 1132              	CPU_CntLeadZeros16:
 1133              	.LFB16:
1233:..\..\..\..\..\..\Software\uC-CPU/cpu_core.c **** #endif
1234:..\..\..\..\..\..\Software\uC-CPU/cpu_core.c **** 
1235:..\..\..\..\..\..\Software\uC-CPU/cpu_core.c **** 
1236:..\..\..\..\..\..\Software\uC-CPU/cpu_core.c **** /*
1237:..\..\..\..\..\..\Software\uC-CPU/cpu_core.c **** ***************************************************************************************************
1238:..\..\..\..\..\..\Software\uC-CPU/cpu_core.c **** *                                        CPU_CntLeadZeros16()
1239:..\..\..\..\..\..\Software\uC-CPU/cpu_core.c **** *
1240:..\..\..\..\..\..\Software\uC-CPU/cpu_core.c **** * Description : Count the number of contiguous, most-significant, leading zero bits in a 16-bit dat
1241:..\..\..\..\..\..\Software\uC-CPU/cpu_core.c **** *
1242:..\..\..\..\..\..\Software\uC-CPU/cpu_core.c **** * Argument(s) : val         Data value to count leading zero bits.
1243:..\..\..\..\..\..\Software\uC-CPU/cpu_core.c **** *
1244:..\..\..\..\..\..\Software\uC-CPU/cpu_core.c **** * Return(s)   : Number of contiguous, most-significant, leading zero bits in 'val'.
1245:..\..\..\..\..\..\Software\uC-CPU/cpu_core.c **** *
1246:..\..\..\..\..\..\Software\uC-CPU/cpu_core.c **** * Caller(s)   : CPU_CntLeadZeros(),
1247:..\..\..\..\..\..\Software\uC-CPU/cpu_core.c **** *               CPU_CntTrailZeros16(),
1248:..\..\..\..\..\..\Software\uC-CPU/cpu_core.c **** *               Application.
1249:..\..\..\..\..\..\Software\uC-CPU/cpu_core.c **** *
1250:..\..\..\..\..\..\Software\uC-CPU/cpu_core.c **** *               This function is a CPU module application programming interface (API) function & MA
1251:..\..\..\..\..\..\Software\uC-CPU/cpu_core.c **** *               called by application function(s).
1252:..\..\..\..\..\..\Software\uC-CPU/cpu_core.c **** *
1253:..\..\..\..\..\..\Software\uC-CPU/cpu_core.c **** * Note(s)     : (1) Supports 16-bit values :
1254:..\..\..\..\..\..\Software\uC-CPU/cpu_core.c **** *
1255:..\..\..\..\..\..\Software\uC-CPU/cpu_core.c **** *                          b15  b14  b13  ...  b04  b03  b02  b01  b00    # Leading Zeros
1256:..\..\..\..\..\..\Software\uC-CPU/cpu_core.c **** *                          ---  ---  ---       ---  ---  ---  ---  ---    ---------------
1257:..\..\..\..\..\..\Software\uC-CPU/cpu_core.c **** *                           1    x    x         x    x    x    x    x            0
1258:..\..\..\..\..\..\Software\uC-CPU/cpu_core.c **** *                           0    1    x         x    x    x    x    x            1
1259:..\..\..\..\..\..\Software\uC-CPU/cpu_core.c **** *                           0    0    1         x    x    x    x    x            2
1260:..\..\..\..\..\..\Software\uC-CPU/cpu_core.c **** *                           :    :    :         :    :    :    :    :            :
1261:..\..\..\..\..\..\Software\uC-CPU/cpu_core.c **** *                           :    :    :         :    :    :    :    :            :
ARM GAS  C:\Users\ADMINI~1\AppData\Local\Temp\ccaBZmtr.s 			page 43


1262:..\..\..\..\..\..\Software\uC-CPU/cpu_core.c **** *                           0    0    0         1    x    x    x    x           11
1263:..\..\..\..\..\..\Software\uC-CPU/cpu_core.c **** *                           0    0    0         0    1    x    x    x           12
1264:..\..\..\..\..\..\Software\uC-CPU/cpu_core.c **** *                           0    0    0         0    0    1    x    x           13
1265:..\..\..\..\..\..\Software\uC-CPU/cpu_core.c **** *                           0    0    0         0    0    0    1    x           14
1266:..\..\..\..\..\..\Software\uC-CPU/cpu_core.c **** *                           0    0    0         0    0    0    0    1           15
1267:..\..\..\..\..\..\Software\uC-CPU/cpu_core.c **** *                           0    0    0         0    0    0    0    0           16
1268:..\..\..\..\..\..\Software\uC-CPU/cpu_core.c **** *
1269:..\..\..\..\..\..\Software\uC-CPU/cpu_core.c **** *
1270:..\..\..\..\..\..\Software\uC-CPU/cpu_core.c **** *                   See also 'CPU COUNT LEAD ZEROs LOOKUP TABLE  Note #1'.
1271:..\..\..\..\..\..\Software\uC-CPU/cpu_core.c **** ***************************************************************************************************
1272:..\..\..\..\..\..\Software\uC-CPU/cpu_core.c **** */
1273:..\..\..\..\..\..\Software\uC-CPU/cpu_core.c **** 
1274:..\..\..\..\..\..\Software\uC-CPU/cpu_core.c **** #if (CPU_CFG_DATA_SIZE_MAX >= CPU_WORD_SIZE_16)
1275:..\..\..\..\..\..\Software\uC-CPU/cpu_core.c **** CPU_DATA  CPU_CntLeadZeros16 (CPU_INT16U  val)
1276:..\..\..\..\..\..\Software\uC-CPU/cpu_core.c **** {
 1134              		.loc 1 1276 0
 1135              		.cfi_startproc
 1136              		@ args = 0, pretend = 0, frame = 16
 1137              		@ frame_needed = 1, uses_anonymous_args = 0
 1138 0000 80B5     		push	{r7, lr}
 1139              		.cfi_def_cfa_offset 8
 1140              		.cfi_offset 7, -8
 1141              		.cfi_offset 14, -4
 1142 0002 84B0     		sub	sp, sp, #16
 1143              		.cfi_def_cfa_offset 24
 1144 0004 00AF     		add	r7, sp, #0
 1145              		.cfi_def_cfa_register 7
 1146 0006 0200     		movs	r2, r0
 1147 0008 BB1D     		adds	r3, r7, #6
 1148 000a 1A80     		strh	r2, [r3]
1277:..\..\..\..\..\..\Software\uC-CPU/cpu_core.c **** #if  (!((defined(CPU_CFG_LEAD_ZEROS_ASM_PRESENT)) && \
1278:..\..\..\..\..\..\Software\uC-CPU/cpu_core.c ****         (CPU_CFG_DATA_SIZE >= CPU_WORD_SIZE_16)))
1279:..\..\..\..\..\..\Software\uC-CPU/cpu_core.c ****     CPU_DATA  ix;
1280:..\..\..\..\..\..\Software\uC-CPU/cpu_core.c **** #endif
1281:..\..\..\..\..\..\Software\uC-CPU/cpu_core.c ****     CPU_DATA  nbr_lead_zeros;
1282:..\..\..\..\..\..\Software\uC-CPU/cpu_core.c **** 
1283:..\..\..\..\..\..\Software\uC-CPU/cpu_core.c ****                                                                                 /* ---------- ASM-O
1284:..\..\..\..\..\..\Software\uC-CPU/cpu_core.c **** #if ((defined(CPU_CFG_LEAD_ZEROS_ASM_PRESENT)) && \
1285:..\..\..\..\..\..\Software\uC-CPU/cpu_core.c ****      (CPU_CFG_DATA_SIZE >= CPU_WORD_SIZE_16))
1286:..\..\..\..\..\..\Software\uC-CPU/cpu_core.c ****     nbr_lead_zeros  =  CPU_CntLeadZeros((CPU_DATA)val);
1287:..\..\..\..\..\..\Software\uC-CPU/cpu_core.c ****     nbr_lead_zeros -= (CPU_CFG_DATA_SIZE - CPU_WORD_SIZE_16) * DEF_OCTET_NBR_BITS;
1288:..\..\..\..\..\..\Software\uC-CPU/cpu_core.c **** 
1289:..\..\..\..\..\..\Software\uC-CPU/cpu_core.c **** 
1290:..\..\..\..\..\..\Software\uC-CPU/cpu_core.c **** #else                                                                           /* ----------- C-OP
1291:..\..\..\..\..\..\Software\uC-CPU/cpu_core.c ****     if (val > 0x00FFu) {                                                        /* Chk bits [15:08]
 1149              		.loc 1 1291 0
 1150 000c BB1D     		adds	r3, r7, #6
 1151 000e 1B88     		ldrh	r3, [r3]
 1152 0010 FF2B     		cmp	r3, #255
 1153 0012 0AD9     		bls	.L62
1292:..\..\..\..\..\..\Software\uC-CPU/cpu_core.c ****                                                                                 /* .. Nbr lead zero
1293:..\..\..\..\..\..\Software\uC-CPU/cpu_core.c ****         ix             = (CPU_DATA)((CPU_DATA)val >> 8u);                       /* .. lookup tbl ix
 1154              		.loc 1 1293 0
 1155 0014 BB1D     		adds	r3, r7, #6
 1156 0016 1B88     		ldrh	r3, [r3]
 1157 0018 1B0A     		lsrs	r3, r3, #8
 1158 001a 9BB2     		uxth	r3, r3
ARM GAS  C:\Users\ADMINI~1\AppData\Local\Temp\ccaBZmtr.s 			page 44


 1159 001c BB60     		str	r3, [r7, #8]
1294:..\..\..\..\..\..\Software\uC-CPU/cpu_core.c ****         nbr_lead_zeros = (CPU_DATA)(CPU_CntLeadZerosTbl[ix]);                   /* .. plus nbr msb 
 1160              		.loc 1 1294 0
 1161 001e 0A4A     		ldr	r2, .L65
 1162 0020 BB68     		ldr	r3, [r7, #8]
 1163 0022 D318     		adds	r3, r2, r3
 1164 0024 1B78     		ldrb	r3, [r3]
 1165 0026 FB60     		str	r3, [r7, #12]
 1166 0028 08E0     		b	.L63
 1167              	.L62:
1295:..\..\..\..\..\..\Software\uC-CPU/cpu_core.c **** 
1296:..\..\..\..\..\..\Software\uC-CPU/cpu_core.c ****     } else {                                                                    /* Chk bits [07:00]
1297:..\..\..\..\..\..\Software\uC-CPU/cpu_core.c ****                                                                                 /* .. Nbr lead zero
1298:..\..\..\..\..\..\Software\uC-CPU/cpu_core.c ****         ix             = (CPU_DATA)(val);                                       /* .. lookup tbl ix
 1168              		.loc 1 1298 0
 1169 002a BB1D     		adds	r3, r7, #6
 1170 002c 1B88     		ldrh	r3, [r3]
 1171 002e BB60     		str	r3, [r7, #8]
1299:..\..\..\..\..\..\Software\uC-CPU/cpu_core.c ****         nbr_lead_zeros = (CPU_DATA)((CPU_DATA)CPU_CntLeadZerosTbl[ix] +  8u);   /* .. plus nbr msb 
 1172              		.loc 1 1299 0
 1173 0030 054A     		ldr	r2, .L65
 1174 0032 BB68     		ldr	r3, [r7, #8]
 1175 0034 D318     		adds	r3, r2, r3
 1176 0036 1B78     		ldrb	r3, [r3]
 1177 0038 0833     		adds	r3, r3, #8
 1178 003a FB60     		str	r3, [r7, #12]
 1179              	.L63:
1300:..\..\..\..\..\..\Software\uC-CPU/cpu_core.c ****     }
1301:..\..\..\..\..\..\Software\uC-CPU/cpu_core.c **** #endif
1302:..\..\..\..\..\..\Software\uC-CPU/cpu_core.c **** 
1303:..\..\..\..\..\..\Software\uC-CPU/cpu_core.c **** 
1304:..\..\..\..\..\..\Software\uC-CPU/cpu_core.c ****     return (nbr_lead_zeros);
 1180              		.loc 1 1304 0
 1181 003c FB68     		ldr	r3, [r7, #12]
1305:..\..\..\..\..\..\Software\uC-CPU/cpu_core.c **** }
 1182              		.loc 1 1305 0
 1183 003e 1800     		movs	r0, r3
 1184 0040 BD46     		mov	sp, r7
 1185 0042 04B0     		add	sp, sp, #16
 1186              		@ sp needed
 1187 0044 80BD     		pop	{r7, pc}
 1188              	.L66:
 1189 0046 C046     		.align	2
 1190              	.L65:
 1191 0048 00000000 		.word	CPU_CntLeadZerosTbl
 1192              		.cfi_endproc
 1193              	.LFE16:
 1194              		.size	CPU_CntLeadZeros16, .-CPU_CntLeadZeros16
 1195              		.section	.text.CPU_CntLeadZeros32,"ax",%progbits
 1196              		.align	2
 1197              		.global	CPU_CntLeadZeros32
 1198              		.code	16
 1199              		.thumb_func
 1200              		.type	CPU_CntLeadZeros32, %function
 1201              	CPU_CntLeadZeros32:
 1202              	.LFB17:
1306:..\..\..\..\..\..\Software\uC-CPU/cpu_core.c **** #endif
ARM GAS  C:\Users\ADMINI~1\AppData\Local\Temp\ccaBZmtr.s 			page 45


1307:..\..\..\..\..\..\Software\uC-CPU/cpu_core.c **** 
1308:..\..\..\..\..\..\Software\uC-CPU/cpu_core.c **** 
1309:..\..\..\..\..\..\Software\uC-CPU/cpu_core.c **** /*
1310:..\..\..\..\..\..\Software\uC-CPU/cpu_core.c **** ***************************************************************************************************
1311:..\..\..\..\..\..\Software\uC-CPU/cpu_core.c **** *                                        CPU_CntLeadZeros32()
1312:..\..\..\..\..\..\Software\uC-CPU/cpu_core.c **** *
1313:..\..\..\..\..\..\Software\uC-CPU/cpu_core.c **** * Description : Count the number of contiguous, most-significant, leading zero bits in a 32-bit dat
1314:..\..\..\..\..\..\Software\uC-CPU/cpu_core.c **** *
1315:..\..\..\..\..\..\Software\uC-CPU/cpu_core.c **** * Argument(s) : val         Data value to count leading zero bits.
1316:..\..\..\..\..\..\Software\uC-CPU/cpu_core.c **** *
1317:..\..\..\..\..\..\Software\uC-CPU/cpu_core.c **** * Return(s)   : Number of contiguous, most-significant, leading zero bits in 'val'.
1318:..\..\..\..\..\..\Software\uC-CPU/cpu_core.c **** *
1319:..\..\..\..\..\..\Software\uC-CPU/cpu_core.c **** * Caller(s)   : CPU_CntLeadZeros(),
1320:..\..\..\..\..\..\Software\uC-CPU/cpu_core.c **** *               CPU_CntTrailZeros32(),
1321:..\..\..\..\..\..\Software\uC-CPU/cpu_core.c **** *               Application.
1322:..\..\..\..\..\..\Software\uC-CPU/cpu_core.c **** *
1323:..\..\..\..\..\..\Software\uC-CPU/cpu_core.c **** *               This function is a CPU module application programming interface (API) function & MA
1324:..\..\..\..\..\..\Software\uC-CPU/cpu_core.c **** *               called by application function(s).
1325:..\..\..\..\..\..\Software\uC-CPU/cpu_core.c **** *
1326:..\..\..\..\..\..\Software\uC-CPU/cpu_core.c **** * Note(s)     : (1) Supports 32-bit values :
1327:..\..\..\..\..\..\Software\uC-CPU/cpu_core.c **** *
1328:..\..\..\..\..\..\Software\uC-CPU/cpu_core.c **** *                          b31  b30  b29  ...  b04  b03  b02  b01  b00    # Leading Zeros
1329:..\..\..\..\..\..\Software\uC-CPU/cpu_core.c **** *                          ---  ---  ---       ---  ---  ---  ---  ---    ---------------
1330:..\..\..\..\..\..\Software\uC-CPU/cpu_core.c **** *                           1    x    x         x    x    x    x    x            0
1331:..\..\..\..\..\..\Software\uC-CPU/cpu_core.c **** *                           0    1    x         x    x    x    x    x            1
1332:..\..\..\..\..\..\Software\uC-CPU/cpu_core.c **** *                           0    0    1         x    x    x    x    x            2
1333:..\..\..\..\..\..\Software\uC-CPU/cpu_core.c **** *                           :    :    :         :    :    :    :    :            :
1334:..\..\..\..\..\..\Software\uC-CPU/cpu_core.c **** *                           :    :    :         :    :    :    :    :            :
1335:..\..\..\..\..\..\Software\uC-CPU/cpu_core.c **** *                           0    0    0         1    x    x    x    x           27
1336:..\..\..\..\..\..\Software\uC-CPU/cpu_core.c **** *                           0    0    0         0    1    x    x    x           28
1337:..\..\..\..\..\..\Software\uC-CPU/cpu_core.c **** *                           0    0    0         0    0    1    x    x           29
1338:..\..\..\..\..\..\Software\uC-CPU/cpu_core.c **** *                           0    0    0         0    0    0    1    x           30
1339:..\..\..\..\..\..\Software\uC-CPU/cpu_core.c **** *                           0    0    0         0    0    0    0    1           31
1340:..\..\..\..\..\..\Software\uC-CPU/cpu_core.c **** *                           0    0    0         0    0    0    0    0           32
1341:..\..\..\..\..\..\Software\uC-CPU/cpu_core.c **** *
1342:..\..\..\..\..\..\Software\uC-CPU/cpu_core.c **** *
1343:..\..\..\..\..\..\Software\uC-CPU/cpu_core.c **** *                   See also 'CPU COUNT LEAD ZEROs LOOKUP TABLE  Note #1'.
1344:..\..\..\..\..\..\Software\uC-CPU/cpu_core.c **** ***************************************************************************************************
1345:..\..\..\..\..\..\Software\uC-CPU/cpu_core.c **** */
1346:..\..\..\..\..\..\Software\uC-CPU/cpu_core.c **** 
1347:..\..\..\..\..\..\Software\uC-CPU/cpu_core.c **** #if (CPU_CFG_DATA_SIZE_MAX >= CPU_WORD_SIZE_32)
1348:..\..\..\..\..\..\Software\uC-CPU/cpu_core.c **** CPU_DATA  CPU_CntLeadZeros32 (CPU_INT32U  val)
1349:..\..\..\..\..\..\Software\uC-CPU/cpu_core.c **** {
 1203              		.loc 1 1349 0
 1204              		.cfi_startproc
 1205              		@ args = 0, pretend = 0, frame = 16
 1206              		@ frame_needed = 1, uses_anonymous_args = 0
 1207 0000 80B5     		push	{r7, lr}
 1208              		.cfi_def_cfa_offset 8
 1209              		.cfi_offset 7, -8
 1210              		.cfi_offset 14, -4
 1211 0002 84B0     		sub	sp, sp, #16
 1212              		.cfi_def_cfa_offset 24
 1213 0004 00AF     		add	r7, sp, #0
 1214              		.cfi_def_cfa_register 7
 1215 0006 7860     		str	r0, [r7, #4]
1350:..\..\..\..\..\..\Software\uC-CPU/cpu_core.c **** #if  (!((defined(CPU_CFG_LEAD_ZEROS_ASM_PRESENT)) && \
ARM GAS  C:\Users\ADMINI~1\AppData\Local\Temp\ccaBZmtr.s 			page 46


1351:..\..\..\..\..\..\Software\uC-CPU/cpu_core.c ****         (CPU_CFG_DATA_SIZE >= CPU_WORD_SIZE_32)))
1352:..\..\..\..\..\..\Software\uC-CPU/cpu_core.c ****     CPU_DATA  ix;
1353:..\..\..\..\..\..\Software\uC-CPU/cpu_core.c **** #endif
1354:..\..\..\..\..\..\Software\uC-CPU/cpu_core.c ****     CPU_DATA  nbr_lead_zeros;
1355:..\..\..\..\..\..\Software\uC-CPU/cpu_core.c **** 
1356:..\..\..\..\..\..\Software\uC-CPU/cpu_core.c ****                                                                                 /* ---------- ASM-O
1357:..\..\..\..\..\..\Software\uC-CPU/cpu_core.c **** #if ((defined(CPU_CFG_LEAD_ZEROS_ASM_PRESENT)) && \
1358:..\..\..\..\..\..\Software\uC-CPU/cpu_core.c ****      (CPU_CFG_DATA_SIZE >= CPU_WORD_SIZE_32))
1359:..\..\..\..\..\..\Software\uC-CPU/cpu_core.c ****     nbr_lead_zeros  =  CPU_CntLeadZeros((CPU_DATA)val);
1360:..\..\..\..\..\..\Software\uC-CPU/cpu_core.c ****     nbr_lead_zeros -= (CPU_CFG_DATA_SIZE - CPU_WORD_SIZE_32) * DEF_OCTET_NBR_BITS;
1361:..\..\..\..\..\..\Software\uC-CPU/cpu_core.c **** 
1362:..\..\..\..\..\..\Software\uC-CPU/cpu_core.c **** 
1363:..\..\..\..\..\..\Software\uC-CPU/cpu_core.c **** #else                                                                           /* ----------- C-OP
1364:..\..\..\..\..\..\Software\uC-CPU/cpu_core.c ****     if (val > 0x0000FFFFu) {
 1216              		.loc 1 1364 0
 1217 0008 7B68     		ldr	r3, [r7, #4]
 1218 000a 1A4A     		ldr	r2, .L74
 1219 000c 9342     		cmp	r3, r2
 1220 000e 16D9     		bls	.L68
1365:..\..\..\..\..\..\Software\uC-CPU/cpu_core.c ****         if (val > 0x00FFFFFFu) {                                                /* Chk bits [31:24]
 1221              		.loc 1 1365 0
 1222 0010 7B68     		ldr	r3, [r7, #4]
 1223 0012 194A     		ldr	r2, .L74+4
 1224 0014 9342     		cmp	r3, r2
 1225 0016 08D9     		bls	.L69
1366:..\..\..\..\..\..\Software\uC-CPU/cpu_core.c ****                                                                                 /* .. Nbr lead zero
1367:..\..\..\..\..\..\Software\uC-CPU/cpu_core.c ****             ix             = (CPU_DATA)((CPU_DATA)(val >> 24u));                /* .. lookup tbl ix
 1226              		.loc 1 1367 0
 1227 0018 7B68     		ldr	r3, [r7, #4]
 1228 001a 1B0E     		lsrs	r3, r3, #24
 1229 001c BB60     		str	r3, [r7, #8]
1368:..\..\..\..\..\..\Software\uC-CPU/cpu_core.c ****             nbr_lead_zeros = (CPU_DATA)(CPU_CntLeadZerosTbl[ix]);               /* .. plus nbr msb 
 1230              		.loc 1 1368 0
 1231 001e 174A     		ldr	r2, .L74+8
 1232 0020 BB68     		ldr	r3, [r7, #8]
 1233 0022 D318     		adds	r3, r2, r3
 1234 0024 1B78     		ldrb	r3, [r3]
 1235 0026 FB60     		str	r3, [r7, #12]
 1236 0028 1EE0     		b	.L71
 1237              	.L69:
1369:..\..\..\..\..\..\Software\uC-CPU/cpu_core.c **** 
1370:..\..\..\..\..\..\Software\uC-CPU/cpu_core.c ****         } else {                                                                /* Chk bits [23:16]
1371:..\..\..\..\..\..\Software\uC-CPU/cpu_core.c ****                                                                                 /* .. Nbr lead zero
1372:..\..\..\..\..\..\Software\uC-CPU/cpu_core.c ****             ix             = (CPU_DATA)((CPU_DATA)(val >> 16u));                /* .. lookup tbl ix
 1238              		.loc 1 1372 0
 1239 002a 7B68     		ldr	r3, [r7, #4]
 1240 002c 1B0C     		lsrs	r3, r3, #16
 1241 002e BB60     		str	r3, [r7, #8]
1373:..\..\..\..\..\..\Software\uC-CPU/cpu_core.c ****             nbr_lead_zeros = (CPU_DATA)((CPU_DATA)CPU_CntLeadZerosTbl[ix] +  8u);/* .. plus nbr msb
 1242              		.loc 1 1373 0
 1243 0030 124A     		ldr	r2, .L74+8
 1244 0032 BB68     		ldr	r3, [r7, #8]
 1245 0034 D318     		adds	r3, r2, r3
 1246 0036 1B78     		ldrb	r3, [r3]
 1247 0038 0833     		adds	r3, r3, #8
 1248 003a FB60     		str	r3, [r7, #12]
 1249 003c 14E0     		b	.L71
ARM GAS  C:\Users\ADMINI~1\AppData\Local\Temp\ccaBZmtr.s 			page 47


 1250              	.L68:
1374:..\..\..\..\..\..\Software\uC-CPU/cpu_core.c ****         }
1375:..\..\..\..\..\..\Software\uC-CPU/cpu_core.c **** 
1376:..\..\..\..\..\..\Software\uC-CPU/cpu_core.c ****     } else {
1377:..\..\..\..\..\..\Software\uC-CPU/cpu_core.c ****         if (val > 0x000000FFu) {                                                /* Chk bits [15:08]
 1251              		.loc 1 1377 0
 1252 003e 7B68     		ldr	r3, [r7, #4]
 1253 0040 FF2B     		cmp	r3, #255
 1254 0042 09D9     		bls	.L72
1378:..\..\..\..\..\..\Software\uC-CPU/cpu_core.c ****                                                                                 /* .. Nbr lead zero
1379:..\..\..\..\..\..\Software\uC-CPU/cpu_core.c ****             ix             = (CPU_DATA)((CPU_DATA)(val >>  8u));                /* .. lookup tbl ix
 1255              		.loc 1 1379 0
 1256 0044 7B68     		ldr	r3, [r7, #4]
 1257 0046 1B0A     		lsrs	r3, r3, #8
 1258 0048 BB60     		str	r3, [r7, #8]
1380:..\..\..\..\..\..\Software\uC-CPU/cpu_core.c ****             nbr_lead_zeros = (CPU_DATA)((CPU_DATA)CPU_CntLeadZerosTbl[ix] + 16u);/* .. plus nbr msb
 1259              		.loc 1 1380 0
 1260 004a 0C4A     		ldr	r2, .L74+8
 1261 004c BB68     		ldr	r3, [r7, #8]
 1262 004e D318     		adds	r3, r2, r3
 1263 0050 1B78     		ldrb	r3, [r3]
 1264 0052 1033     		adds	r3, r3, #16
 1265 0054 FB60     		str	r3, [r7, #12]
 1266 0056 07E0     		b	.L71
 1267              	.L72:
1381:..\..\..\..\..\..\Software\uC-CPU/cpu_core.c **** 
1382:..\..\..\..\..\..\Software\uC-CPU/cpu_core.c ****         } else {                                                                /* Chk bits [07:00]
1383:..\..\..\..\..\..\Software\uC-CPU/cpu_core.c ****                                                                                 /* .. Nbr lead zero
1384:..\..\..\..\..\..\Software\uC-CPU/cpu_core.c ****             ix             = (CPU_DATA)((CPU_DATA)(val >>  0u));                /* .. lookup tbl ix
 1268              		.loc 1 1384 0
 1269 0058 7B68     		ldr	r3, [r7, #4]
 1270 005a BB60     		str	r3, [r7, #8]
1385:..\..\..\..\..\..\Software\uC-CPU/cpu_core.c ****             nbr_lead_zeros = (CPU_DATA)((CPU_DATA)CPU_CntLeadZerosTbl[ix] + 24u);/* .. plus nbr msb
 1271              		.loc 1 1385 0
 1272 005c 074A     		ldr	r2, .L74+8
 1273 005e BB68     		ldr	r3, [r7, #8]
 1274 0060 D318     		adds	r3, r2, r3
 1275 0062 1B78     		ldrb	r3, [r3]
 1276 0064 1833     		adds	r3, r3, #24
 1277 0066 FB60     		str	r3, [r7, #12]
 1278              	.L71:
1386:..\..\..\..\..\..\Software\uC-CPU/cpu_core.c ****         }
1387:..\..\..\..\..\..\Software\uC-CPU/cpu_core.c ****     }
1388:..\..\..\..\..\..\Software\uC-CPU/cpu_core.c **** #endif
1389:..\..\..\..\..\..\Software\uC-CPU/cpu_core.c **** 
1390:..\..\..\..\..\..\Software\uC-CPU/cpu_core.c **** 
1391:..\..\..\..\..\..\Software\uC-CPU/cpu_core.c ****     return (nbr_lead_zeros);
 1279              		.loc 1 1391 0
 1280 0068 FB68     		ldr	r3, [r7, #12]
1392:..\..\..\..\..\..\Software\uC-CPU/cpu_core.c **** }
 1281              		.loc 1 1392 0
 1282 006a 1800     		movs	r0, r3
 1283 006c BD46     		mov	sp, r7
 1284 006e 04B0     		add	sp, sp, #16
 1285              		@ sp needed
 1286 0070 80BD     		pop	{r7, pc}
 1287              	.L75:
ARM GAS  C:\Users\ADMINI~1\AppData\Local\Temp\ccaBZmtr.s 			page 48


 1288 0072 C046     		.align	2
 1289              	.L74:
 1290 0074 FFFF0000 		.word	65535
 1291 0078 FFFFFF00 		.word	16777215
 1292 007c 00000000 		.word	CPU_CntLeadZerosTbl
 1293              		.cfi_endproc
 1294              	.LFE17:
 1295              		.size	CPU_CntLeadZeros32, .-CPU_CntLeadZeros32
 1296              		.section	.text.CPU_CntLeadZeros64,"ax",%progbits
 1297              		.align	2
 1298              		.global	CPU_CntLeadZeros64
 1299              		.code	16
 1300              		.thumb_func
 1301              		.type	CPU_CntLeadZeros64, %function
 1302              	CPU_CntLeadZeros64:
 1303              	.LFB18:
1393:..\..\..\..\..\..\Software\uC-CPU/cpu_core.c **** #endif
1394:..\..\..\..\..\..\Software\uC-CPU/cpu_core.c **** 
1395:..\..\..\..\..\..\Software\uC-CPU/cpu_core.c **** 
1396:..\..\..\..\..\..\Software\uC-CPU/cpu_core.c **** /*
1397:..\..\..\..\..\..\Software\uC-CPU/cpu_core.c **** ***************************************************************************************************
1398:..\..\..\..\..\..\Software\uC-CPU/cpu_core.c **** *                                        CPU_CntLeadZeros64()
1399:..\..\..\..\..\..\Software\uC-CPU/cpu_core.c **** *
1400:..\..\..\..\..\..\Software\uC-CPU/cpu_core.c **** * Description : Count the number of contiguous, most-significant, leading zero bits in a 64-bit dat
1401:..\..\..\..\..\..\Software\uC-CPU/cpu_core.c **** *
1402:..\..\..\..\..\..\Software\uC-CPU/cpu_core.c **** * Argument(s) : val         Data value to count leading zero bits.
1403:..\..\..\..\..\..\Software\uC-CPU/cpu_core.c **** *
1404:..\..\..\..\..\..\Software\uC-CPU/cpu_core.c **** * Return(s)   : Number of contiguous, most-significant, leading zero bits in 'val'.
1405:..\..\..\..\..\..\Software\uC-CPU/cpu_core.c **** *
1406:..\..\..\..\..\..\Software\uC-CPU/cpu_core.c **** * Caller(s)   : CPU_CntLeadZeros(),
1407:..\..\..\..\..\..\Software\uC-CPU/cpu_core.c **** *               CPU_CntTrailZeros64(),
1408:..\..\..\..\..\..\Software\uC-CPU/cpu_core.c **** *               Application.
1409:..\..\..\..\..\..\Software\uC-CPU/cpu_core.c **** *
1410:..\..\..\..\..\..\Software\uC-CPU/cpu_core.c **** *               This function is a CPU module application programming interface (API) function & MA
1411:..\..\..\..\..\..\Software\uC-CPU/cpu_core.c **** *               called by application function(s).
1412:..\..\..\..\..\..\Software\uC-CPU/cpu_core.c **** *
1413:..\..\..\..\..\..\Software\uC-CPU/cpu_core.c **** * Note(s)     : (1) Supports 64-bit values :
1414:..\..\..\..\..\..\Software\uC-CPU/cpu_core.c **** *
1415:..\..\..\..\..\..\Software\uC-CPU/cpu_core.c **** *                          b63  b62  b61  ...  b04  b03  b02  b01  b00    # Leading Zeros
1416:..\..\..\..\..\..\Software\uC-CPU/cpu_core.c **** *                          ---  ---  ---       ---  ---  ---  ---  ---    ---------------
1417:..\..\..\..\..\..\Software\uC-CPU/cpu_core.c **** *                           1    x    x         x    x    x    x    x            0
1418:..\..\..\..\..\..\Software\uC-CPU/cpu_core.c **** *                           0    1    x         x    x    x    x    x            1
1419:..\..\..\..\..\..\Software\uC-CPU/cpu_core.c **** *                           0    0    1         x    x    x    x    x            2
1420:..\..\..\..\..\..\Software\uC-CPU/cpu_core.c **** *                           :    :    :         :    :    :    :    :            :
1421:..\..\..\..\..\..\Software\uC-CPU/cpu_core.c **** *                           :    :    :         :    :    :    :    :            :
1422:..\..\..\..\..\..\Software\uC-CPU/cpu_core.c **** *                           0    0    0         1    x    x    x    x           59
1423:..\..\..\..\..\..\Software\uC-CPU/cpu_core.c **** *                           0    0    0         0    1    x    x    x           60
1424:..\..\..\..\..\..\Software\uC-CPU/cpu_core.c **** *                           0    0    0         0    0    1    x    x           61
1425:..\..\..\..\..\..\Software\uC-CPU/cpu_core.c **** *                           0    0    0         0    0    0    1    x           62
1426:..\..\..\..\..\..\Software\uC-CPU/cpu_core.c **** *                           0    0    0         0    0    0    0    1           63
1427:..\..\..\..\..\..\Software\uC-CPU/cpu_core.c **** *                           0    0    0         0    0    0    0    0           64
1428:..\..\..\..\..\..\Software\uC-CPU/cpu_core.c **** *
1429:..\..\..\..\..\..\Software\uC-CPU/cpu_core.c **** *
1430:..\..\..\..\..\..\Software\uC-CPU/cpu_core.c **** *                   See also 'CPU COUNT LEAD ZEROs LOOKUP TABLE  Note #1'.
1431:..\..\..\..\..\..\Software\uC-CPU/cpu_core.c **** ***************************************************************************************************
1432:..\..\..\..\..\..\Software\uC-CPU/cpu_core.c **** */
1433:..\..\..\..\..\..\Software\uC-CPU/cpu_core.c **** 
ARM GAS  C:\Users\ADMINI~1\AppData\Local\Temp\ccaBZmtr.s 			page 49


1434:..\..\..\..\..\..\Software\uC-CPU/cpu_core.c **** #if (CPU_CFG_DATA_SIZE_MAX >= CPU_WORD_SIZE_64)
1435:..\..\..\..\..\..\Software\uC-CPU/cpu_core.c **** CPU_DATA  CPU_CntLeadZeros64 (CPU_INT64U  val)
1436:..\..\..\..\..\..\Software\uC-CPU/cpu_core.c **** {
 1304              		.loc 1 1436 0
 1305              		.cfi_startproc
 1306              		@ args = 0, pretend = 0, frame = 64
 1307              		@ frame_needed = 1, uses_anonymous_args = 0
 1308 0000 B0B5     		push	{r4, r5, r7, lr}
 1309              		.cfi_def_cfa_offset 16
 1310              		.cfi_offset 4, -16
 1311              		.cfi_offset 5, -12
 1312              		.cfi_offset 7, -8
 1313              		.cfi_offset 14, -4
 1314 0002 90B0     		sub	sp, sp, #64
 1315              		.cfi_def_cfa_offset 80
 1316 0004 00AF     		add	r7, sp, #0
 1317              		.cfi_def_cfa_register 7
 1318 0006 3863     		str	r0, [r7, #48]
 1319 0008 7963     		str	r1, [r7, #52]
1437:..\..\..\..\..\..\Software\uC-CPU/cpu_core.c **** #if  (!((defined(CPU_CFG_LEAD_ZEROS_ASM_PRESENT)) && \
1438:..\..\..\..\..\..\Software\uC-CPU/cpu_core.c ****         (CPU_CFG_DATA_SIZE >= CPU_WORD_SIZE_64)))
1439:..\..\..\..\..\..\Software\uC-CPU/cpu_core.c ****     CPU_DATA  ix;
1440:..\..\..\..\..\..\Software\uC-CPU/cpu_core.c **** #endif
1441:..\..\..\..\..\..\Software\uC-CPU/cpu_core.c ****     CPU_DATA  nbr_lead_zeros;
1442:..\..\..\..\..\..\Software\uC-CPU/cpu_core.c **** 
1443:..\..\..\..\..\..\Software\uC-CPU/cpu_core.c ****                                                                                 /* ---------- ASM-O
1444:..\..\..\..\..\..\Software\uC-CPU/cpu_core.c **** #if ((defined(CPU_CFG_LEAD_ZEROS_ASM_PRESENT)) && \
1445:..\..\..\..\..\..\Software\uC-CPU/cpu_core.c ****      (CPU_CFG_DATA_SIZE >= CPU_WORD_SIZE_64))
1446:..\..\..\..\..\..\Software\uC-CPU/cpu_core.c ****     nbr_lead_zeros  =  CPU_CntLeadZeros((CPU_DATA)val);
1447:..\..\..\..\..\..\Software\uC-CPU/cpu_core.c ****     nbr_lead_zeros -= (CPU_CFG_DATA_SIZE - CPU_WORD_SIZE_64) * DEF_OCTET_NBR_BITS;
1448:..\..\..\..\..\..\Software\uC-CPU/cpu_core.c **** 
1449:..\..\..\..\..\..\Software\uC-CPU/cpu_core.c **** 
1450:..\..\..\..\..\..\Software\uC-CPU/cpu_core.c **** #else                                                                           /* ----------- C-OP
1451:..\..\..\..\..\..\Software\uC-CPU/cpu_core.c ****     if (val > 0x00000000FFFFFFFFu) {
 1320              		.loc 1 1451 0
 1321 000a 7B6B     		ldr	r3, [r7, #52]
 1322 000c 002B     		cmp	r3, #0
 1323 000e 03D1     		bne	.L96
1452:..\..\..\..\..\..\Software\uC-CPU/cpu_core.c ****         if (val > 0x0000FFFFFFFFFFFFu) {
1453:..\..\..\..\..\..\Software\uC-CPU/cpu_core.c ****             if (val > 0x00FFFFFFFFFFFFFFu) {                                    /* Chk bits [63:56]
1454:..\..\..\..\..\..\Software\uC-CPU/cpu_core.c ****                                                                                 /* .. Nbr lead zero
1455:..\..\..\..\..\..\Software\uC-CPU/cpu_core.c ****                 ix             = (CPU_DATA)((CPU_INT64U)val >> 56u);            /* .. lookup tbl ix
1456:..\..\..\..\..\..\Software\uC-CPU/cpu_core.c ****                 nbr_lead_zeros = (CPU_DATA)(CPU_CntLeadZerosTbl[ix]);           /* .. plus nbr msb 
1457:..\..\..\..\..\..\Software\uC-CPU/cpu_core.c **** 
1458:..\..\..\..\..\..\Software\uC-CPU/cpu_core.c ****             } else {                                                            /* Chk bits [55:48]
1459:..\..\..\..\..\..\Software\uC-CPU/cpu_core.c ****                                                                                 /* .. Nbr lead zero
1460:..\..\..\..\..\..\Software\uC-CPU/cpu_core.c ****                 ix             = (CPU_DATA)((CPU_INT64U)val >> 48u);            /* .. lookup tbl ix
1461:..\..\..\..\..\..\Software\uC-CPU/cpu_core.c ****                 nbr_lead_zeros = (CPU_DATA)((CPU_INT64U)CPU_CntLeadZerosTbl[ix] +  8u);/* .. plus n
1462:..\..\..\..\..\..\Software\uC-CPU/cpu_core.c ****             }
1463:..\..\..\..\..\..\Software\uC-CPU/cpu_core.c **** 
1464:..\..\..\..\..\..\Software\uC-CPU/cpu_core.c ****         } else {
1465:..\..\..\..\..\..\Software\uC-CPU/cpu_core.c ****             if (val > 0x000000FFFFFFFFFFu) {                                    /* Chk bits [47:40]
1466:..\..\..\..\..\..\Software\uC-CPU/cpu_core.c ****                                                                                 /* .. Nbr lead zero
1467:..\..\..\..\..\..\Software\uC-CPU/cpu_core.c ****                 ix             = (CPU_DATA)((CPU_INT64U)val >> 40u);            /* .. lookup tbl ix
1468:..\..\..\..\..\..\Software\uC-CPU/cpu_core.c ****                 nbr_lead_zeros = (CPU_DATA)((CPU_INT64U)CPU_CntLeadZerosTbl[ix] + 16u);/* .. plus n
1469:..\..\..\..\..\..\Software\uC-CPU/cpu_core.c **** 
1470:..\..\..\..\..\..\Software\uC-CPU/cpu_core.c ****             } else {                                                            /* Chk bits [39:32]
ARM GAS  C:\Users\ADMINI~1\AppData\Local\Temp\ccaBZmtr.s 			page 50


1471:..\..\..\..\..\..\Software\uC-CPU/cpu_core.c ****                                                                                 /* .. Nbr lead zero
1472:..\..\..\..\..\..\Software\uC-CPU/cpu_core.c ****                 ix             = (CPU_DATA)((CPU_INT64U)val >> 32u);            /* .. lookup tbl ix
1473:..\..\..\..\..\..\Software\uC-CPU/cpu_core.c ****                 nbr_lead_zeros = (CPU_DATA)((CPU_INT64U)CPU_CntLeadZerosTbl[ix] + 24u);/* .. plus n
1474:..\..\..\..\..\..\Software\uC-CPU/cpu_core.c ****             }
1475:..\..\..\..\..\..\Software\uC-CPU/cpu_core.c ****         }
1476:..\..\..\..\..\..\Software\uC-CPU/cpu_core.c **** 
1477:..\..\..\..\..\..\Software\uC-CPU/cpu_core.c ****     } else {
1478:..\..\..\..\..\..\Software\uC-CPU/cpu_core.c ****         if (val > 0x000000000000FFFFu) {
 1324              		.loc 1 1478 0
 1325 0010 7B6B     		ldr	r3, [r7, #52]
 1326 0012 002B     		cmp	r3, #0
 1327 0014 4AD1     		bne	.L100
 1328 0016 42E0     		b	.L103
 1329              	.L96:
1452:..\..\..\..\..\..\Software\uC-CPU/cpu_core.c ****         if (val > 0x0000FFFFFFFFFFFFu) {
 1330              		.loc 1 1452 0
 1331 0018 7B6B     		ldr	r3, [r7, #52]
 1332 001a 504A     		ldr	r2, .L105
 1333 001c 9342     		cmp	r3, r2
 1334 001e 03D8     		bhi	.L97
1465:..\..\..\..\..\..\Software\uC-CPU/cpu_core.c ****                                                                                 /* .. Nbr lead zero
 1335              		.loc 1 1465 0
 1336 0020 7B6B     		ldr	r3, [r7, #52]
 1337 0022 FF2B     		cmp	r3, #255
 1338 0024 2DD8     		bhi	.L99
 1339 0026 1EE0     		b	.L104
 1340              	.L97:
1453:..\..\..\..\..\..\Software\uC-CPU/cpu_core.c ****                                                                                 /* .. Nbr lead zero
 1341              		.loc 1 1453 0
 1342 0028 7B6B     		ldr	r3, [r7, #52]
 1343 002a 4D4A     		ldr	r2, .L105+4
 1344 002c 9342     		cmp	r3, r2
 1345 002e 0DD8     		bhi	.L98
1460:..\..\..\..\..\..\Software\uC-CPU/cpu_core.c ****                 nbr_lead_zeros = (CPU_DATA)((CPU_INT64U)CPU_CntLeadZerosTbl[ix] +  8u);/* .. plus n
 1346              		.loc 1 1460 0
 1347 0030 7B6B     		ldr	r3, [r7, #52]
 1348 0032 1B0C     		lsrs	r3, r3, #16
 1349 0034 3B61     		str	r3, [r7, #16]
 1350 0036 0023     		movs	r3, #0
 1351 0038 7B61     		str	r3, [r7, #20]
 1352 003a 3B69     		ldr	r3, [r7, #16]
 1353 003c BB63     		str	r3, [r7, #56]
1461:..\..\..\..\..\..\Software\uC-CPU/cpu_core.c ****             }
 1354              		.loc 1 1461 0
 1355 003e 494A     		ldr	r2, .L105+8
 1356 0040 BB6B     		ldr	r3, [r7, #56]
 1357 0042 D318     		adds	r3, r2, r3
 1358 0044 1B78     		ldrb	r3, [r3]
 1359 0046 0833     		adds	r3, r3, #8
 1360 0048 FB63     		str	r3, [r7, #60]
 1361 004a 82E0     		b	.L87
 1362              	.L98:
1455:..\..\..\..\..\..\Software\uC-CPU/cpu_core.c ****                 nbr_lead_zeros = (CPU_DATA)(CPU_CntLeadZerosTbl[ix]);           /* .. plus nbr msb 
 1363              		.loc 1 1455 0
 1364 004c 7B6B     		ldr	r3, [r7, #52]
 1365 004e 1B0E     		lsrs	r3, r3, #24
 1366 0050 BB61     		str	r3, [r7, #24]
ARM GAS  C:\Users\ADMINI~1\AppData\Local\Temp\ccaBZmtr.s 			page 51


 1367 0052 0023     		movs	r3, #0
 1368 0054 FB61     		str	r3, [r7, #28]
 1369 0056 BB69     		ldr	r3, [r7, #24]
 1370 0058 BB63     		str	r3, [r7, #56]
1456:..\..\..\..\..\..\Software\uC-CPU/cpu_core.c **** 
 1371              		.loc 1 1456 0
 1372 005a 424A     		ldr	r2, .L105+8
 1373 005c BB6B     		ldr	r3, [r7, #56]
 1374 005e D318     		adds	r3, r2, r3
 1375 0060 1B78     		ldrb	r3, [r3]
 1376 0062 FB63     		str	r3, [r7, #60]
 1377 0064 75E0     		b	.L87
 1378              	.L104:
1472:..\..\..\..\..\..\Software\uC-CPU/cpu_core.c ****                 nbr_lead_zeros = (CPU_DATA)((CPU_INT64U)CPU_CntLeadZerosTbl[ix] + 24u);/* .. plus n
 1379              		.loc 1 1472 0
 1380 0066 7B6B     		ldr	r3, [r7, #52]
 1381 0068 1B00     		lsrs	r3, r3, #0
 1382 006a 3B60     		str	r3, [r7]
 1383 006c 0023     		movs	r3, #0
 1384 006e 7B60     		str	r3, [r7, #4]
 1385 0070 3B68     		ldr	r3, [r7]
 1386 0072 BB63     		str	r3, [r7, #56]
1473:..\..\..\..\..\..\Software\uC-CPU/cpu_core.c ****             }
 1387              		.loc 1 1473 0
 1388 0074 3B4A     		ldr	r2, .L105+8
 1389 0076 BB6B     		ldr	r3, [r7, #56]
 1390 0078 D318     		adds	r3, r2, r3
 1391 007a 1B78     		ldrb	r3, [r3]
 1392 007c 1833     		adds	r3, r3, #24
 1393 007e FB63     		str	r3, [r7, #60]
 1394 0080 67E0     		b	.L87
 1395              	.L99:
1467:..\..\..\..\..\..\Software\uC-CPU/cpu_core.c ****                 nbr_lead_zeros = (CPU_DATA)((CPU_INT64U)CPU_CntLeadZerosTbl[ix] + 16u);/* .. plus n
 1396              		.loc 1 1467 0
 1397 0082 7B6B     		ldr	r3, [r7, #52]
 1398 0084 1B0A     		lsrs	r3, r3, #8
 1399 0086 BB60     		str	r3, [r7, #8]
 1400 0088 0023     		movs	r3, #0
 1401 008a FB60     		str	r3, [r7, #12]
 1402 008c BB68     		ldr	r3, [r7, #8]
 1403 008e BB63     		str	r3, [r7, #56]
1468:..\..\..\..\..\..\Software\uC-CPU/cpu_core.c **** 
 1404              		.loc 1 1468 0
 1405 0090 344A     		ldr	r2, .L105+8
 1406 0092 BB6B     		ldr	r3, [r7, #56]
 1407 0094 D318     		adds	r3, r2, r3
 1408 0096 1B78     		ldrb	r3, [r3]
 1409 0098 1033     		adds	r3, r3, #16
 1410 009a FB63     		str	r3, [r7, #60]
 1411 009c 59E0     		b	.L87
 1412              	.L103:
 1413              		.loc 1 1478 0
 1414 009e 7B6B     		ldr	r3, [r7, #52]
 1415 00a0 002B     		cmp	r3, #0
 1416 00a2 35D1     		bne	.L88
 1417 00a4 3B6B     		ldr	r3, [r7, #48]
 1418 00a6 2D4A     		ldr	r2, .L105
ARM GAS  C:\Users\ADMINI~1\AppData\Local\Temp\ccaBZmtr.s 			page 52


 1419 00a8 9342     		cmp	r3, r2
 1420 00aa 31D9     		bls	.L88
 1421              	.L100:
1479:..\..\..\..\..\..\Software\uC-CPU/cpu_core.c ****             if (val > 0x0000000000FFFFFFu) {                                    /* Chk bits [31:24]
 1422              		.loc 1 1479 0
 1423 00ac 7B6B     		ldr	r3, [r7, #52]
 1424 00ae 002B     		cmp	r3, #0
 1425 00b0 06D1     		bne	.L101
 1426 00b2 7B6B     		ldr	r3, [r7, #52]
 1427 00b4 002B     		cmp	r3, #0
 1428 00b6 17D1     		bne	.L90
 1429 00b8 3B6B     		ldr	r3, [r7, #48]
 1430 00ba 294A     		ldr	r2, .L105+4
 1431 00bc 9342     		cmp	r3, r2
 1432 00be 13D9     		bls	.L90
 1433              	.L101:
1480:..\..\..\..\..\..\Software\uC-CPU/cpu_core.c ****                                                                                 /* .. Nbr lead zero
1481:..\..\..\..\..\..\Software\uC-CPU/cpu_core.c ****                 ix             = (CPU_DATA)((CPU_INT64U)val >> 24u);              /* .. lookup tbl 
 1434              		.loc 1 1481 0
 1435 00c0 7B6B     		ldr	r3, [r7, #52]
 1436 00c2 1B02     		lsls	r3, r3, #8
 1437 00c4 3A6B     		ldr	r2, [r7, #48]
 1438 00c6 120E     		lsrs	r2, r2, #24
 1439 00c8 BA62     		str	r2, [r7, #40]
 1440 00ca BA6A     		ldr	r2, [r7, #40]
 1441 00cc 1A43     		orrs	r2, r3
 1442 00ce BA62     		str	r2, [r7, #40]
 1443 00d0 7B6B     		ldr	r3, [r7, #52]
 1444 00d2 1B0E     		lsrs	r3, r3, #24
 1445 00d4 FB62     		str	r3, [r7, #44]
 1446 00d6 BB6A     		ldr	r3, [r7, #40]
 1447 00d8 BB63     		str	r3, [r7, #56]
1482:..\..\..\..\..\..\Software\uC-CPU/cpu_core.c ****                 nbr_lead_zeros = (CPU_DATA)((CPU_INT64U)CPU_CntLeadZerosTbl[ix] + 32u);/* .. plus n
 1448              		.loc 1 1482 0
 1449 00da 224A     		ldr	r2, .L105+8
 1450 00dc BB6B     		ldr	r3, [r7, #56]
 1451 00de D318     		adds	r3, r2, r3
 1452 00e0 1B78     		ldrb	r3, [r3]
 1453 00e2 2033     		adds	r3, r3, #32
 1454 00e4 FB63     		str	r3, [r7, #60]
 1455 00e6 34E0     		b	.L87
 1456              	.L90:
1483:..\..\..\..\..\..\Software\uC-CPU/cpu_core.c **** 
1484:..\..\..\..\..\..\Software\uC-CPU/cpu_core.c ****             } else {                                                            /* Chk bits [23:16]
1485:..\..\..\..\..\..\Software\uC-CPU/cpu_core.c ****                                                                                 /* .. Nbr lead zero
1486:..\..\..\..\..\..\Software\uC-CPU/cpu_core.c ****                 ix             = (CPU_DATA)((CPU_INT64U)val >> 16u);            /* .. lookup tbl ix
 1457              		.loc 1 1486 0
 1458 00e8 7B6B     		ldr	r3, [r7, #52]
 1459 00ea 1B04     		lsls	r3, r3, #16
 1460 00ec 3A6B     		ldr	r2, [r7, #48]
 1461 00ee 120C     		lsrs	r2, r2, #16
 1462 00f0 3A62     		str	r2, [r7, #32]
 1463 00f2 3A6A     		ldr	r2, [r7, #32]
 1464 00f4 1A43     		orrs	r2, r3
 1465 00f6 3A62     		str	r2, [r7, #32]
 1466 00f8 7B6B     		ldr	r3, [r7, #52]
 1467 00fa 1B0C     		lsrs	r3, r3, #16
ARM GAS  C:\Users\ADMINI~1\AppData\Local\Temp\ccaBZmtr.s 			page 53


 1468 00fc 7B62     		str	r3, [r7, #36]
 1469 00fe 3B6A     		ldr	r3, [r7, #32]
 1470 0100 BB63     		str	r3, [r7, #56]
1487:..\..\..\..\..\..\Software\uC-CPU/cpu_core.c ****                 nbr_lead_zeros = (CPU_DATA)((CPU_INT64U)CPU_CntLeadZerosTbl[ix] + 40u);/* .. plus n
 1471              		.loc 1 1487 0
 1472 0102 184A     		ldr	r2, .L105+8
 1473 0104 BB6B     		ldr	r3, [r7, #56]
 1474 0106 D318     		adds	r3, r2, r3
 1475 0108 1B78     		ldrb	r3, [r3]
 1476 010a 2833     		adds	r3, r3, #40
 1477 010c FB63     		str	r3, [r7, #60]
 1478 010e 20E0     		b	.L87
 1479              	.L88:
1488:..\..\..\..\..\..\Software\uC-CPU/cpu_core.c ****             }
1489:..\..\..\..\..\..\Software\uC-CPU/cpu_core.c **** 
1490:..\..\..\..\..\..\Software\uC-CPU/cpu_core.c ****         } else {
1491:..\..\..\..\..\..\Software\uC-CPU/cpu_core.c ****             if (val > 0x00000000000000FFu) {                                    /* Chk bits [15:08]
 1480              		.loc 1 1491 0
 1481 0110 7B6B     		ldr	r3, [r7, #52]
 1482 0112 002B     		cmp	r3, #0
 1483 0114 05D1     		bne	.L102
 1484 0116 7B6B     		ldr	r3, [r7, #52]
 1485 0118 002B     		cmp	r3, #0
 1486 011a 12D1     		bne	.L93
 1487 011c 3B6B     		ldr	r3, [r7, #48]
 1488 011e FF2B     		cmp	r3, #255
 1489 0120 0FD9     		bls	.L93
 1490              	.L102:
1492:..\..\..\..\..\..\Software\uC-CPU/cpu_core.c ****                                                                                 /* .. Nbr lead zero
1493:..\..\..\..\..\..\Software\uC-CPU/cpu_core.c ****                 ix             = (CPU_DATA)((CPU_INT64U)val >>  8u);            /* .. lookup tbl ix
 1491              		.loc 1 1493 0
 1492 0122 7B6B     		ldr	r3, [r7, #52]
 1493 0124 1B06     		lsls	r3, r3, #24
 1494 0126 3A6B     		ldr	r2, [r7, #48]
 1495 0128 140A     		lsrs	r4, r2, #8
 1496 012a 1C43     		orrs	r4, r3
 1497 012c 7B6B     		ldr	r3, [r7, #52]
 1498 012e 1D0A     		lsrs	r5, r3, #8
 1499 0130 2300     		movs	r3, r4
 1500 0132 BB63     		str	r3, [r7, #56]
1494:..\..\..\..\..\..\Software\uC-CPU/cpu_core.c ****                 nbr_lead_zeros = (CPU_DATA)((CPU_INT64U)CPU_CntLeadZerosTbl[ix] + 48u);/* .. plus n
 1501              		.loc 1 1494 0
 1502 0134 0B4A     		ldr	r2, .L105+8
 1503 0136 BB6B     		ldr	r3, [r7, #56]
 1504 0138 D318     		adds	r3, r2, r3
 1505 013a 1B78     		ldrb	r3, [r3]
 1506 013c 3033     		adds	r3, r3, #48
 1507 013e FB63     		str	r3, [r7, #60]
 1508 0140 07E0     		b	.L87
 1509              	.L93:
1495:..\..\..\..\..\..\Software\uC-CPU/cpu_core.c **** 
1496:..\..\..\..\..\..\Software\uC-CPU/cpu_core.c ****             } else {                                                            /* Chk bits [07:00]
1497:..\..\..\..\..\..\Software\uC-CPU/cpu_core.c ****                                                                                 /* .. Nbr lead zero
1498:..\..\..\..\..\..\Software\uC-CPU/cpu_core.c ****                 ix             = (CPU_DATA)(val);                               /* .. lookup tbl ix
 1510              		.loc 1 1498 0
 1511 0142 3B6B     		ldr	r3, [r7, #48]
 1512 0144 BB63     		str	r3, [r7, #56]
ARM GAS  C:\Users\ADMINI~1\AppData\Local\Temp\ccaBZmtr.s 			page 54


1499:..\..\..\..\..\..\Software\uC-CPU/cpu_core.c ****                 nbr_lead_zeros = (CPU_DATA)((CPU_INT64U)CPU_CntLeadZerosTbl[ix] + 56u);/* .. plus n
 1513              		.loc 1 1499 0
 1514 0146 074A     		ldr	r2, .L105+8
 1515 0148 BB6B     		ldr	r3, [r7, #56]
 1516 014a D318     		adds	r3, r2, r3
 1517 014c 1B78     		ldrb	r3, [r3]
 1518 014e 3833     		adds	r3, r3, #56
 1519 0150 FB63     		str	r3, [r7, #60]
 1520              	.L87:
1500:..\..\..\..\..\..\Software\uC-CPU/cpu_core.c ****             }
1501:..\..\..\..\..\..\Software\uC-CPU/cpu_core.c ****         }
1502:..\..\..\..\..\..\Software\uC-CPU/cpu_core.c ****     }
1503:..\..\..\..\..\..\Software\uC-CPU/cpu_core.c **** #endif
1504:..\..\..\..\..\..\Software\uC-CPU/cpu_core.c **** 
1505:..\..\..\..\..\..\Software\uC-CPU/cpu_core.c **** 
1506:..\..\..\..\..\..\Software\uC-CPU/cpu_core.c ****     return (nbr_lead_zeros);
 1521              		.loc 1 1506 0
 1522 0152 FB6B     		ldr	r3, [r7, #60]
1507:..\..\..\..\..\..\Software\uC-CPU/cpu_core.c **** }
 1523              		.loc 1 1507 0
 1524 0154 1800     		movs	r0, r3
 1525 0156 BD46     		mov	sp, r7
 1526 0158 10B0     		add	sp, sp, #64
 1527              		@ sp needed
 1528 015a B0BD     		pop	{r4, r5, r7, pc}
 1529              	.L106:
 1530              		.align	2
 1531              	.L105:
 1532 015c FFFF0000 		.word	65535
 1533 0160 FFFFFF00 		.word	16777215
 1534 0164 00000000 		.word	CPU_CntLeadZerosTbl
 1535              		.cfi_endproc
 1536              	.LFE18:
 1537              		.size	CPU_CntLeadZeros64, .-CPU_CntLeadZeros64
 1538              		.section	.text.CPU_CntTrailZeros,"ax",%progbits
 1539              		.align	2
 1540              		.global	CPU_CntTrailZeros
 1541              		.code	16
 1542              		.thumb_func
 1543              		.type	CPU_CntTrailZeros, %function
 1544              	CPU_CntTrailZeros:
 1545              	.LFB19:
1508:..\..\..\..\..\..\Software\uC-CPU/cpu_core.c **** #endif
1509:..\..\..\..\..\..\Software\uC-CPU/cpu_core.c **** 
1510:..\..\..\..\..\..\Software\uC-CPU/cpu_core.c **** 
1511:..\..\..\..\..\..\Software\uC-CPU/cpu_core.c **** /*
1512:..\..\..\..\..\..\Software\uC-CPU/cpu_core.c **** ***************************************************************************************************
1513:..\..\..\..\..\..\Software\uC-CPU/cpu_core.c **** *                                         CPU_CntTrailZeros()
1514:..\..\..\..\..\..\Software\uC-CPU/cpu_core.c **** *
1515:..\..\..\..\..\..\Software\uC-CPU/cpu_core.c **** * Description : Count the number of contiguous, least-significant, trailing zero bits in a data val
1516:..\..\..\..\..\..\Software\uC-CPU/cpu_core.c **** *
1517:..\..\..\..\..\..\Software\uC-CPU/cpu_core.c **** * Argument(s) : val         Data value to count trailing zero bits.
1518:..\..\..\..\..\..\Software\uC-CPU/cpu_core.c **** *
1519:..\..\..\..\..\..\Software\uC-CPU/cpu_core.c **** * Return(s)   : Number of contiguous, least-significant, trailing zero bits in 'val'.
1520:..\..\..\..\..\..\Software\uC-CPU/cpu_core.c **** *
1521:..\..\..\..\..\..\Software\uC-CPU/cpu_core.c **** * Caller(s)   : Application.
1522:..\..\..\..\..\..\Software\uC-CPU/cpu_core.c **** *
ARM GAS  C:\Users\ADMINI~1\AppData\Local\Temp\ccaBZmtr.s 			page 55


1523:..\..\..\..\..\..\Software\uC-CPU/cpu_core.c **** *               This function is a CPU module application programming interface (API) function & MA
1524:..\..\..\..\..\..\Software\uC-CPU/cpu_core.c **** *               be called by application function(s).
1525:..\..\..\..\..\..\Software\uC-CPU/cpu_core.c **** *
1526:..\..\..\..\..\..\Software\uC-CPU/cpu_core.c **** * Note(s)     : (1) (a) Supports the following data value sizes :
1527:..\..\..\..\..\..\Software\uC-CPU/cpu_core.c **** *
1528:..\..\..\..\..\..\Software\uC-CPU/cpu_core.c **** *                       (1)  8-bits
1529:..\..\..\..\..\..\Software\uC-CPU/cpu_core.c **** *                       (2) 16-bits
1530:..\..\..\..\..\..\Software\uC-CPU/cpu_core.c **** *                       (3) 32-bits
1531:..\..\..\..\..\..\Software\uC-CPU/cpu_core.c **** *                       (4) 64-bits
1532:..\..\..\..\..\..\Software\uC-CPU/cpu_core.c **** *
1533:..\..\..\..\..\..\Software\uC-CPU/cpu_core.c **** *                       See also 'cpu_def.h  CPU WORD CONFIGURATION  Note #1'.
1534:..\..\..\..\..\..\Software\uC-CPU/cpu_core.c **** *
1535:..\..\..\..\..\..\Software\uC-CPU/cpu_core.c **** *                   (b) (1) For  8-bit values :
1536:..\..\..\..\..\..\Software\uC-CPU/cpu_core.c **** *
1537:..\..\..\..\..\..\Software\uC-CPU/cpu_core.c **** *                                  b07  b06  b05  b04  b03  b02  b01  b00    # Trailing Zeros
1538:..\..\..\..\..\..\Software\uC-CPU/cpu_core.c **** *                                  ---  ---  ---  ---  ---  ---  ---  ---    ----------------
1539:..\..\..\..\..\..\Software\uC-CPU/cpu_core.c **** *                                   x    x    x    x    x    x    x    1            0
1540:..\..\..\..\..\..\Software\uC-CPU/cpu_core.c **** *                                   x    x    x    x    x    x    1    0            1
1541:..\..\..\..\..\..\Software\uC-CPU/cpu_core.c **** *                                   x    x    x    x    x    1    0    0            2
1542:..\..\..\..\..\..\Software\uC-CPU/cpu_core.c **** *                                   x    x    x    x    1    0    0    0            3
1543:..\..\..\..\..\..\Software\uC-CPU/cpu_core.c **** *                                   x    x    x    1    0    0    0    0            4
1544:..\..\..\..\..\..\Software\uC-CPU/cpu_core.c **** *                                   x    x    1    0    0    0    0    0            5
1545:..\..\..\..\..\..\Software\uC-CPU/cpu_core.c **** *                                   x    1    0    0    0    0    0    0            6
1546:..\..\..\..\..\..\Software\uC-CPU/cpu_core.c **** *                                   1    0    0    0    0    0    0    0            7
1547:..\..\..\..\..\..\Software\uC-CPU/cpu_core.c **** *                                   0    0    0    0    0    0    0    0            8
1548:..\..\..\..\..\..\Software\uC-CPU/cpu_core.c **** *
1549:..\..\..\..\..\..\Software\uC-CPU/cpu_core.c **** *
1550:..\..\..\..\..\..\Software\uC-CPU/cpu_core.c **** *                       (2) For 16-bit values :
1551:..\..\..\..\..\..\Software\uC-CPU/cpu_core.c **** *
1552:..\..\..\..\..\..\Software\uC-CPU/cpu_core.c **** *                             b15  b14  b13  b12  b11  ...  b02  b01  b00    # Trailing Zeros
1553:..\..\..\..\..\..\Software\uC-CPU/cpu_core.c **** *                             ---  ---  ---  ---  ---       ---  ---  ---    ----------------
1554:..\..\..\..\..\..\Software\uC-CPU/cpu_core.c **** *                              x    x    x    x    x         x    x    1            0
1555:..\..\..\..\..\..\Software\uC-CPU/cpu_core.c **** *                              x    x    x    x    x         x    1    0            1
1556:..\..\..\..\..\..\Software\uC-CPU/cpu_core.c **** *                              x    x    x    x    x         1    0    0            2
1557:..\..\..\..\..\..\Software\uC-CPU/cpu_core.c **** *                              :    :    :    :    :         :    :    :            :
1558:..\..\..\..\..\..\Software\uC-CPU/cpu_core.c **** *                              :    :    :    :    :         :    :    :            :
1559:..\..\..\..\..\..\Software\uC-CPU/cpu_core.c **** *                              x    x    x    x    1         0    0    0           11
1560:..\..\..\..\..\..\Software\uC-CPU/cpu_core.c **** *                              x    x    x    1    0         0    0    0           12
1561:..\..\..\..\..\..\Software\uC-CPU/cpu_core.c **** *                              x    x    1    0    0         0    0    0           13
1562:..\..\..\..\..\..\Software\uC-CPU/cpu_core.c **** *                              x    1    0    0    0         0    0    0           14
1563:..\..\..\..\..\..\Software\uC-CPU/cpu_core.c **** *                              1    0    0    0    0         0    0    0           15
1564:..\..\..\..\..\..\Software\uC-CPU/cpu_core.c **** *                              0    0    0    0    0         0    0    0           16
1565:..\..\..\..\..\..\Software\uC-CPU/cpu_core.c **** *
1566:..\..\..\..\..\..\Software\uC-CPU/cpu_core.c **** *
1567:..\..\..\..\..\..\Software\uC-CPU/cpu_core.c **** *                       (3) For 32-bit values :
1568:..\..\..\..\..\..\Software\uC-CPU/cpu_core.c **** *
1569:..\..\..\..\..\..\Software\uC-CPU/cpu_core.c **** *                             b31  b30  b29  b28  b27  ...  b02  b01  b00    # Trailing Zeros
1570:..\..\..\..\..\..\Software\uC-CPU/cpu_core.c **** *                             ---  ---  ---  ---  ---       ---  ---  ---    ----------------
1571:..\..\..\..\..\..\Software\uC-CPU/cpu_core.c **** *                              x    x    x    x    x         x    x    1            0
1572:..\..\..\..\..\..\Software\uC-CPU/cpu_core.c **** *                              x    x    x    x    x         x    1    0            1
1573:..\..\..\..\..\..\Software\uC-CPU/cpu_core.c **** *                              x    x    x    x    x         1    0    0            2
1574:..\..\..\..\..\..\Software\uC-CPU/cpu_core.c **** *                              :    :    :    :    :         :    :    :            :
1575:..\..\..\..\..\..\Software\uC-CPU/cpu_core.c **** *                              :    :    :    :    :         :    :    :            :
1576:..\..\..\..\..\..\Software\uC-CPU/cpu_core.c **** *                              x    x    x    x    1         0    0    0           27
1577:..\..\..\..\..\..\Software\uC-CPU/cpu_core.c **** *                              x    x    x    1    0         0    0    0           28
1578:..\..\..\..\..\..\Software\uC-CPU/cpu_core.c **** *                              x    x    1    0    0         0    0    0           29
1579:..\..\..\..\..\..\Software\uC-CPU/cpu_core.c **** *                              x    1    0    0    0         0    0    0           30
ARM GAS  C:\Users\ADMINI~1\AppData\Local\Temp\ccaBZmtr.s 			page 56


1580:..\..\..\..\..\..\Software\uC-CPU/cpu_core.c **** *                              1    0    0    0    0         0    0    0           31
1581:..\..\..\..\..\..\Software\uC-CPU/cpu_core.c **** *                              0    0    0    0    0         0    0    0           32
1582:..\..\..\..\..\..\Software\uC-CPU/cpu_core.c **** *
1583:..\..\..\..\..\..\Software\uC-CPU/cpu_core.c **** *
1584:..\..\..\..\..\..\Software\uC-CPU/cpu_core.c **** *                       (4) For 64-bit values :
1585:..\..\..\..\..\..\Software\uC-CPU/cpu_core.c **** *
1586:..\..\..\..\..\..\Software\uC-CPU/cpu_core.c **** *                             b63  b62  b61  b60  b59  ...  b02  b01  b00    # Trailing Zeros
1587:..\..\..\..\..\..\Software\uC-CPU/cpu_core.c **** *                             ---  ---  ---  ---  ---       ---  ---  ---    ----------------
1588:..\..\..\..\..\..\Software\uC-CPU/cpu_core.c **** *                              x    x    x    x    x         x    x    1            0
1589:..\..\..\..\..\..\Software\uC-CPU/cpu_core.c **** *                              x    x    x    x    x         x    1    0            1
1590:..\..\..\..\..\..\Software\uC-CPU/cpu_core.c **** *                              x    x    x    x    x         1    0    0            2
1591:..\..\..\..\..\..\Software\uC-CPU/cpu_core.c **** *                              :    :    :    :    :         :    :    :            :
1592:..\..\..\..\..\..\Software\uC-CPU/cpu_core.c **** *                              :    :    :    :    :         :    :    :            :
1593:..\..\..\..\..\..\Software\uC-CPU/cpu_core.c **** *                              x    x    x    x    1         0    0    0           59
1594:..\..\..\..\..\..\Software\uC-CPU/cpu_core.c **** *                              x    x    x    1    0         0    0    0           60
1595:..\..\..\..\..\..\Software\uC-CPU/cpu_core.c **** *                              x    x    1    0    0         0    0    0           61
1596:..\..\..\..\..\..\Software\uC-CPU/cpu_core.c **** *                              x    1    0    0    0         0    0    0           62
1597:..\..\..\..\..\..\Software\uC-CPU/cpu_core.c **** *                              1    0    0    0    0         0    0    0           63
1598:..\..\..\..\..\..\Software\uC-CPU/cpu_core.c **** *                              0    0    0    0    0         0    0    0           64
1599:..\..\..\..\..\..\Software\uC-CPU/cpu_core.c **** *
1600:..\..\..\..\..\..\Software\uC-CPU/cpu_core.c **** *               (2) For non-zero values, the returned number of contiguous, least-significant, trai
1601:..\..\..\..\..\..\Software\uC-CPU/cpu_core.c **** *                   zero bits is also equivalent to the bit position of the least-significant set b
1602:..\..\..\..\..\..\Software\uC-CPU/cpu_core.c **** *
1603:..\..\..\..\..\..\Software\uC-CPU/cpu_core.c **** *               (3) 'val' SHOULD be validated for non-'0' PRIOR to all other counting zero calculat
1604:..\..\..\..\..\..\Software\uC-CPU/cpu_core.c **** *
1605:..\..\..\..\..\..\Software\uC-CPU/cpu_core.c **** *                   (a) CPU_CntTrailZeros()'s final conditional statement calculates 'val's number 
1606:..\..\..\..\..\..\Software\uC-CPU/cpu_core.c **** *                       trailing zeros based on its return data size, 'CPU_CFG_DATA_SIZE', & 'val's
1607:..\..\..\..\..\..\Software\uC-CPU/cpu_core.c **** *                       calculated number of lead zeros ONLY if the initial 'val' is non-'0' :
1608:..\..\..\..\..\..\Software\uC-CPU/cpu_core.c **** *
1609:..\..\..\..\..\..\Software\uC-CPU/cpu_core.c **** *                           if (val != 0u) {
1610:..\..\..\..\..\..\Software\uC-CPU/cpu_core.c **** *                               nbr_trail_zeros = ((CPU_CFG_DATA_SIZE * DEF_OCTET_NBR_BITS) - 1u) -
1611:..\..\..\..\..\..\Software\uC-CPU/cpu_core.c **** *                           } else {
1612:..\..\..\..\..\..\Software\uC-CPU/cpu_core.c **** *                               nbr_trail_zeros = nbr_lead_zeros;
1613:..\..\..\..\..\..\Software\uC-CPU/cpu_core.c **** *                           }
1614:..\..\..\..\..\..\Software\uC-CPU/cpu_core.c **** *
1615:..\..\..\..\..\..\Software\uC-CPU/cpu_core.c **** *                       Therefore, initially validating all non-'0' values avoids having to conditi
1616:..\..\..\..\..\..\Software\uC-CPU/cpu_core.c **** *                       execute the final 'if' statement.
1617:..\..\..\..\..\..\Software\uC-CPU/cpu_core.c **** ***************************************************************************************************
1618:..\..\..\..\..\..\Software\uC-CPU/cpu_core.c **** */
1619:..\..\..\..\..\..\Software\uC-CPU/cpu_core.c **** 
1620:..\..\..\..\..\..\Software\uC-CPU/cpu_core.c **** #ifndef   CPU_CFG_TRAIL_ZEROS_ASM_PRESENT
1621:..\..\..\..\..\..\Software\uC-CPU/cpu_core.c **** CPU_DATA  CPU_CntTrailZeros (CPU_DATA  val)
1622:..\..\..\..\..\..\Software\uC-CPU/cpu_core.c **** {
 1546              		.loc 1 1622 0
 1547              		.cfi_startproc
 1548              		@ args = 0, pretend = 0, frame = 24
 1549              		@ frame_needed = 1, uses_anonymous_args = 0
 1550 0000 80B5     		push	{r7, lr}
 1551              		.cfi_def_cfa_offset 8
 1552              		.cfi_offset 7, -8
 1553              		.cfi_offset 14, -4
 1554 0002 86B0     		sub	sp, sp, #24
 1555              		.cfi_def_cfa_offset 32
 1556 0004 00AF     		add	r7, sp, #0
 1557              		.cfi_def_cfa_register 7
 1558 0006 7860     		str	r0, [r7, #4]
1623:..\..\..\..\..\..\Software\uC-CPU/cpu_core.c ****     CPU_DATA  val_bit_mask;
ARM GAS  C:\Users\ADMINI~1\AppData\Local\Temp\ccaBZmtr.s 			page 57


1624:..\..\..\..\..\..\Software\uC-CPU/cpu_core.c ****     CPU_DATA  nbr_lead_zeros;
1625:..\..\..\..\..\..\Software\uC-CPU/cpu_core.c ****     CPU_DATA  nbr_trail_zeros;
1626:..\..\..\..\..\..\Software\uC-CPU/cpu_core.c **** 
1627:..\..\..\..\..\..\Software\uC-CPU/cpu_core.c **** 
1628:..\..\..\..\..\..\Software\uC-CPU/cpu_core.c ****     if (val == 0u) {                                            /* Rtn ALL val bits as zero'd (see 
 1559              		.loc 1 1628 0
 1560 0008 7B68     		ldr	r3, [r7, #4]
 1561 000a 002B     		cmp	r3, #0
 1562 000c 01D1     		bne	.L108
1629:..\..\..\..\..\..\Software\uC-CPU/cpu_core.c ****         return (CPU_CFG_DATA_SIZE * DEF_OCTET_NBR_BITS);
 1563              		.loc 1 1629 0
 1564 000e 2023     		movs	r3, #32
 1565 0010 0FE0     		b	.L109
 1566              	.L108:
1630:..\..\..\..\..\..\Software\uC-CPU/cpu_core.c ****     }
1631:..\..\..\..\..\..\Software\uC-CPU/cpu_core.c **** 
1632:..\..\..\..\..\..\Software\uC-CPU/cpu_core.c **** 
1633:..\..\..\..\..\..\Software\uC-CPU/cpu_core.c ****     val_bit_mask    = val & ((CPU_DATA)~val + 1u);              /* Zero/clr all bits EXCEPT least-s
 1567              		.loc 1 1633 0
 1568 0012 7B68     		ldr	r3, [r7, #4]
 1569 0014 5B42     		rsbs	r3, r3, #0
 1570 0016 7A68     		ldr	r2, [r7, #4]
 1571 0018 1340     		ands	r3, r2
 1572 001a 7B61     		str	r3, [r7, #20]
1634:..\..\..\..\..\..\Software\uC-CPU/cpu_core.c ****     nbr_lead_zeros  = CPU_CntLeadZeros(val_bit_mask);           /* Cnt  nbr lead  0s.              
 1573              		.loc 1 1634 0
 1574 001c 7B69     		ldr	r3, [r7, #20]
 1575 001e 1800     		movs	r0, r3
 1576 0020 FFF7FEFF 		bl	CPU_CntLeadZeros
 1577 0024 0300     		movs	r3, r0
 1578 0026 3B61     		str	r3, [r7, #16]
1635:..\..\..\..\..\..\Software\uC-CPU/cpu_core.c ****                                                                 /* Calc nbr trail 0s = (nbr val bit
1636:..\..\..\..\..\..\Software\uC-CPU/cpu_core.c ****     nbr_trail_zeros = ((CPU_CFG_DATA_SIZE * DEF_OCTET_NBR_BITS) - 1u) - nbr_lead_zeros;
 1579              		.loc 1 1636 0
 1580 0028 3B69     		ldr	r3, [r7, #16]
 1581 002a 1F22     		movs	r2, #31
 1582 002c D31A     		subs	r3, r2, r3
 1583 002e FB60     		str	r3, [r7, #12]
1637:..\..\..\..\..\..\Software\uC-CPU/cpu_core.c **** 
1638:..\..\..\..\..\..\Software\uC-CPU/cpu_core.c **** 
1639:..\..\..\..\..\..\Software\uC-CPU/cpu_core.c ****     return (nbr_trail_zeros);
 1584              		.loc 1 1639 0
 1585 0030 FB68     		ldr	r3, [r7, #12]
 1586              	.L109:
1640:..\..\..\..\..\..\Software\uC-CPU/cpu_core.c **** }
 1587              		.loc 1 1640 0
 1588 0032 1800     		movs	r0, r3
 1589 0034 BD46     		mov	sp, r7
 1590 0036 06B0     		add	sp, sp, #24
 1591              		@ sp needed
 1592 0038 80BD     		pop	{r7, pc}
 1593              		.cfi_endproc
 1594              	.LFE19:
 1595              		.size	CPU_CntTrailZeros, .-CPU_CntTrailZeros
 1596 003a C046     		.section	.text.CPU_CntTrailZeros08,"ax",%progbits
 1597              		.align	2
 1598              		.global	CPU_CntTrailZeros08
ARM GAS  C:\Users\ADMINI~1\AppData\Local\Temp\ccaBZmtr.s 			page 58


 1599              		.code	16
 1600              		.thumb_func
 1601              		.type	CPU_CntTrailZeros08, %function
 1602              	CPU_CntTrailZeros08:
 1603              	.LFB20:
1641:..\..\..\..\..\..\Software\uC-CPU/cpu_core.c **** #endif
1642:..\..\..\..\..\..\Software\uC-CPU/cpu_core.c **** 
1643:..\..\..\..\..\..\Software\uC-CPU/cpu_core.c **** 
1644:..\..\..\..\..\..\Software\uC-CPU/cpu_core.c **** /*
1645:..\..\..\..\..\..\Software\uC-CPU/cpu_core.c **** ***************************************************************************************************
1646:..\..\..\..\..\..\Software\uC-CPU/cpu_core.c **** *                                        CPU_CntTrailZeros08()
1647:..\..\..\..\..\..\Software\uC-CPU/cpu_core.c **** *
1648:..\..\..\..\..\..\Software\uC-CPU/cpu_core.c **** * Description : Count the number of contiguous, least-significant, trailing zero bits in an 8-bit d
1649:..\..\..\..\..\..\Software\uC-CPU/cpu_core.c **** *
1650:..\..\..\..\..\..\Software\uC-CPU/cpu_core.c **** * Argument(s) : val         Data value to count trailing zero bits.
1651:..\..\..\..\..\..\Software\uC-CPU/cpu_core.c **** *
1652:..\..\..\..\..\..\Software\uC-CPU/cpu_core.c **** * Return(s)   : Number of contiguous, least-significant, trailing zero bits in 'val'.
1653:..\..\..\..\..\..\Software\uC-CPU/cpu_core.c **** *
1654:..\..\..\..\..\..\Software\uC-CPU/cpu_core.c **** * Caller(s)   : Application.
1655:..\..\..\..\..\..\Software\uC-CPU/cpu_core.c **** *
1656:..\..\..\..\..\..\Software\uC-CPU/cpu_core.c **** *               This function is a CPU module application programming interface (API) function & MA
1657:..\..\..\..\..\..\Software\uC-CPU/cpu_core.c **** *               called by application function(s).
1658:..\..\..\..\..\..\Software\uC-CPU/cpu_core.c **** *
1659:..\..\..\..\..\..\Software\uC-CPU/cpu_core.c **** * Note(s)     : (1) Supports  8-bit values :
1660:..\..\..\..\..\..\Software\uC-CPU/cpu_core.c **** *
1661:..\..\..\..\..\..\Software\uC-CPU/cpu_core.c **** *                               b07  b06  b05  b04  b03  b02  b01  b00    # Trailing Zeros
1662:..\..\..\..\..\..\Software\uC-CPU/cpu_core.c **** *                               ---  ---  ---  ---  ---  ---  ---  ---    ----------------
1663:..\..\..\..\..\..\Software\uC-CPU/cpu_core.c **** *                                x    x    x    x    x    x    x    1            0
1664:..\..\..\..\..\..\Software\uC-CPU/cpu_core.c **** *                                x    x    x    x    x    x    1    0            1
1665:..\..\..\..\..\..\Software\uC-CPU/cpu_core.c **** *                                x    x    x    x    x    1    0    0            2
1666:..\..\..\..\..\..\Software\uC-CPU/cpu_core.c **** *                                x    x    x    x    1    0    0    0            3
1667:..\..\..\..\..\..\Software\uC-CPU/cpu_core.c **** *                                x    x    x    1    0    0    0    0            4
1668:..\..\..\..\..\..\Software\uC-CPU/cpu_core.c **** *                                x    x    1    0    0    0    0    0            5
1669:..\..\..\..\..\..\Software\uC-CPU/cpu_core.c **** *                                x    1    0    0    0    0    0    0            6
1670:..\..\..\..\..\..\Software\uC-CPU/cpu_core.c **** *                                1    0    0    0    0    0    0    0            7
1671:..\..\..\..\..\..\Software\uC-CPU/cpu_core.c **** *                                0    0    0    0    0    0    0    0            8
1672:..\..\..\..\..\..\Software\uC-CPU/cpu_core.c **** *
1673:..\..\..\..\..\..\Software\uC-CPU/cpu_core.c **** *
1674:..\..\..\..\..\..\Software\uC-CPU/cpu_core.c **** *               (2) For non-zero values, the returned number of contiguous, least-significant, trai
1675:..\..\..\..\..\..\Software\uC-CPU/cpu_core.c **** *                   zero bits is also equivalent to the bit position of the least-significant set b
1676:..\..\..\..\..\..\Software\uC-CPU/cpu_core.c **** *
1677:..\..\..\..\..\..\Software\uC-CPU/cpu_core.c **** *               (3) 'val' SHOULD be validated for non-'0' PRIOR to all other counting zero calculat
1678:..\..\..\..\..\..\Software\uC-CPU/cpu_core.c **** *
1679:..\..\..\..\..\..\Software\uC-CPU/cpu_core.c **** *                   (a) For assembly-optimized implementations, CPU_CntTrailZeros() returns 'val's 
1680:..\..\..\..\..\..\Software\uC-CPU/cpu_core.c **** *                       number of trailing zeros via CPU's native data size, 'CPU_CFG_DATA_SIZE'.  
1681:..\..\..\..\..\..\Software\uC-CPU/cpu_core.c **** *                       If the returned number of zeros exceeds CPU_CntTrailZeros08()'s  8-bit retu
1682:..\..\..\..\..\..\Software\uC-CPU/cpu_core.c **** *                       data size, then the returned number of zeros must be offset by the differen
1683:..\..\..\..\..\..\Software\uC-CPU/cpu_core.c **** *                       between CPU_CntTrailZeros()'s  & CPU_CntTrailZeros08()'s return data size :
1684:..\..\..\..\..\..\Software\uC-CPU/cpu_core.c **** *
1685:..\..\..\..\..\..\Software\uC-CPU/cpu_core.c **** *                           nbr_trail_zeros = CPU_CntTrailZeros((CPU_DATA)val);
1686:..\..\..\..\..\..\Software\uC-CPU/cpu_core.c **** *                           if (nbr_trail_zeros >  (CPU_WORD_SIZE_08  * DEF_OCTET_NBR_BITS)) {
1687:..\..\..\..\..\..\Software\uC-CPU/cpu_core.c **** *                               nbr_trail_zeros -= (CPU_CFG_DATA_SIZE - CPU_WORD_SIZE_08) * DEF_OCT
1688:..\..\..\..\..\..\Software\uC-CPU/cpu_core.c **** *                           }
1689:..\..\..\..\..\..\Software\uC-CPU/cpu_core.c **** *
1690:..\..\..\..\..\..\Software\uC-CPU/cpu_core.c **** *                       However, this ONLY occurs for an initial 'val' of '0' since all non-'0'  8-
1691:..\..\..\..\..\..\Software\uC-CPU/cpu_core.c **** *                       values would return a number of trailing zeros less than or equal to  8 bit
1692:..\..\..\..\..\..\Software\uC-CPU/cpu_core.c **** *
ARM GAS  C:\Users\ADMINI~1\AppData\Local\Temp\ccaBZmtr.s 			page 59


1693:..\..\..\..\..\..\Software\uC-CPU/cpu_core.c **** *                       Therefore, initially validating all non-'0' values prior to calling assembl
1694:..\..\..\..\..\..\Software\uC-CPU/cpu_core.c **** *                       optimized CPU_CntTrailZeros() avoids having to offset the number of returne
1695:..\..\..\..\..\..\Software\uC-CPU/cpu_core.c **** *                       trailing zeros by the difference in CPU data size and  8-bit data value bit
1696:..\..\..\..\..\..\Software\uC-CPU/cpu_core.c **** *
1697:..\..\..\..\..\..\Software\uC-CPU/cpu_core.c **** *                   (b) For CPU_CntTrailZeros08()'s C implementation, the final conditional stateme
1698:..\..\..\..\..\..\Software\uC-CPU/cpu_core.c **** *                       calculates 'val's number of trailing zeros based on CPU_CntTrailZeros08()'s
1699:..\..\..\..\..\..\Software\uC-CPU/cpu_core.c **** *                        8-bit return data size & 'val's calculated number of lead zeros ONLY if th
1700:..\..\..\..\..\..\Software\uC-CPU/cpu_core.c **** *                       initial 'val' is non-'0' :
1701:..\..\..\..\..\..\Software\uC-CPU/cpu_core.c **** *
1702:..\..\..\..\..\..\Software\uC-CPU/cpu_core.c **** *                           if (val != 0u) {
1703:..\..\..\..\..\..\Software\uC-CPU/cpu_core.c **** *                               nbr_trail_zeros = ((CPU_WORD_SIZE_08 * DEF_OCTET_NBR_BITS) - 1u) - 
1704:..\..\..\..\..\..\Software\uC-CPU/cpu_core.c **** *                           } else {
1705:..\..\..\..\..\..\Software\uC-CPU/cpu_core.c **** *                               nbr_trail_zeros = nbr_lead_zeros;
1706:..\..\..\..\..\..\Software\uC-CPU/cpu_core.c **** *                           }
1707:..\..\..\..\..\..\Software\uC-CPU/cpu_core.c **** *
1708:..\..\..\..\..\..\Software\uC-CPU/cpu_core.c **** *                       Therefore, initially validating all non-'0' values avoids having to conditi
1709:..\..\..\..\..\..\Software\uC-CPU/cpu_core.c **** *                       execute the final 'if' statement.
1710:..\..\..\..\..\..\Software\uC-CPU/cpu_core.c **** ***************************************************************************************************
1711:..\..\..\..\..\..\Software\uC-CPU/cpu_core.c **** */
1712:..\..\..\..\..\..\Software\uC-CPU/cpu_core.c **** 
1713:..\..\..\..\..\..\Software\uC-CPU/cpu_core.c **** #if (CPU_CFG_DATA_SIZE_MAX >= CPU_WORD_SIZE_08)
1714:..\..\..\..\..\..\Software\uC-CPU/cpu_core.c **** CPU_DATA  CPU_CntTrailZeros08 (CPU_INT08U  val)
1715:..\..\..\..\..\..\Software\uC-CPU/cpu_core.c **** {
 1604              		.loc 1 1715 0
 1605              		.cfi_startproc
 1606              		@ args = 0, pretend = 0, frame = 24
 1607              		@ frame_needed = 1, uses_anonymous_args = 0
 1608 0000 80B5     		push	{r7, lr}
 1609              		.cfi_def_cfa_offset 8
 1610              		.cfi_offset 7, -8
 1611              		.cfi_offset 14, -4
 1612 0002 86B0     		sub	sp, sp, #24
 1613              		.cfi_def_cfa_offset 32
 1614 0004 00AF     		add	r7, sp, #0
 1615              		.cfi_def_cfa_register 7
 1616 0006 0200     		movs	r2, r0
 1617 0008 FB1D     		adds	r3, r7, #7
 1618 000a 1A70     		strb	r2, [r3]
1716:..\..\..\..\..\..\Software\uC-CPU/cpu_core.c **** #if  (!((defined(CPU_CFG_TRAIL_ZEROS_ASM_PRESENT)) && \
1717:..\..\..\..\..\..\Software\uC-CPU/cpu_core.c ****         (CPU_CFG_DATA_SIZE >= CPU_WORD_SIZE_08)))
1718:..\..\..\..\..\..\Software\uC-CPU/cpu_core.c ****     CPU_INT08U  val_bit_mask;
1719:..\..\..\..\..\..\Software\uC-CPU/cpu_core.c ****     CPU_DATA    nbr_lead_zeros;
1720:..\..\..\..\..\..\Software\uC-CPU/cpu_core.c **** #endif
1721:..\..\..\..\..\..\Software\uC-CPU/cpu_core.c ****     CPU_DATA    nbr_trail_zeros;
1722:..\..\..\..\..\..\Software\uC-CPU/cpu_core.c **** 
1723:..\..\..\..\..\..\Software\uC-CPU/cpu_core.c **** 
1724:..\..\..\..\..\..\Software\uC-CPU/cpu_core.c ****     if (val == 0u) {                                            /* Rtn ALL val bits as zero'd (see 
 1619              		.loc 1 1724 0
 1620 000c FB1D     		adds	r3, r7, #7
 1621 000e 1B78     		ldrb	r3, [r3]
 1622 0010 002B     		cmp	r3, #0
 1623 0012 01D1     		bne	.L111
1725:..\..\..\..\..\..\Software\uC-CPU/cpu_core.c ****         return (CPU_WORD_SIZE_08 * DEF_OCTET_NBR_BITS);
 1624              		.loc 1 1725 0
 1625 0014 0823     		movs	r3, #8
 1626 0016 16E0     		b	.L112
 1627              	.L111:
ARM GAS  C:\Users\ADMINI~1\AppData\Local\Temp\ccaBZmtr.s 			page 60


1726:..\..\..\..\..\..\Software\uC-CPU/cpu_core.c ****     }
1727:..\..\..\..\..\..\Software\uC-CPU/cpu_core.c **** 
1728:..\..\..\..\..\..\Software\uC-CPU/cpu_core.c ****                                                                 /* ------------------ ASM-OPTIMIZED
1729:..\..\..\..\..\..\Software\uC-CPU/cpu_core.c **** #if ((defined(CPU_CFG_TRAIL_ZEROS_ASM_PRESENT)) && \
1730:..\..\..\..\..\..\Software\uC-CPU/cpu_core.c ****      (CPU_CFG_DATA_SIZE >= CPU_WORD_SIZE_08))
1731:..\..\..\..\..\..\Software\uC-CPU/cpu_core.c ****     nbr_trail_zeros = CPU_CntTrailZeros((CPU_DATA)val);
1732:..\..\..\..\..\..\Software\uC-CPU/cpu_core.c **** 
1733:..\..\..\..\..\..\Software\uC-CPU/cpu_core.c **** #else                                                           /* ------------------- C-OPTIMIZED 
1734:..\..\..\..\..\..\Software\uC-CPU/cpu_core.c ****     val_bit_mask    = val & ((CPU_INT08U)~val + 1u);            /* Zero/clr all bits EXCEPT least-s
 1628              		.loc 1 1734 0
 1629 0018 FB1D     		adds	r3, r7, #7
 1630 001a 1B78     		ldrb	r3, [r3]
 1631 001c 5B42     		rsbs	r3, r3, #0
 1632 001e DAB2     		uxtb	r2, r3
 1633 0020 1723     		movs	r3, #23
 1634 0022 FB18     		adds	r3, r7, r3
 1635 0024 F91D     		adds	r1, r7, #7
 1636 0026 0978     		ldrb	r1, [r1]
 1637 0028 0A40     		ands	r2, r1
 1638 002a 1A70     		strb	r2, [r3]
1735:..\..\..\..\..\..\Software\uC-CPU/cpu_core.c ****     nbr_lead_zeros  = CPU_CntLeadZeros08(val_bit_mask);         /* Cnt  nbr lead  0s.              
 1639              		.loc 1 1735 0
 1640 002c 1723     		movs	r3, #23
 1641 002e FB18     		adds	r3, r7, r3
 1642 0030 1B78     		ldrb	r3, [r3]
 1643 0032 1800     		movs	r0, r3
 1644 0034 FFF7FEFF 		bl	CPU_CntLeadZeros08
 1645 0038 0300     		movs	r3, r0
 1646 003a 3B61     		str	r3, [r7, #16]
1736:..\..\..\..\..\..\Software\uC-CPU/cpu_core.c ****                                                                 /* Calc nbr trail 0s = (nbr val bit
1737:..\..\..\..\..\..\Software\uC-CPU/cpu_core.c ****     nbr_trail_zeros = ((CPU_WORD_SIZE_08 * DEF_OCTET_NBR_BITS) - 1u) - nbr_lead_zeros;
 1647              		.loc 1 1737 0
 1648 003c 3B69     		ldr	r3, [r7, #16]
 1649 003e 0722     		movs	r2, #7
 1650 0040 D31A     		subs	r3, r2, r3
 1651 0042 FB60     		str	r3, [r7, #12]
1738:..\..\..\..\..\..\Software\uC-CPU/cpu_core.c **** #endif
1739:..\..\..\..\..\..\Software\uC-CPU/cpu_core.c **** 
1740:..\..\..\..\..\..\Software\uC-CPU/cpu_core.c **** 
1741:..\..\..\..\..\..\Software\uC-CPU/cpu_core.c ****     return (nbr_trail_zeros);
 1652              		.loc 1 1741 0
 1653 0044 FB68     		ldr	r3, [r7, #12]
 1654              	.L112:
1742:..\..\..\..\..\..\Software\uC-CPU/cpu_core.c **** }
 1655              		.loc 1 1742 0
 1656 0046 1800     		movs	r0, r3
 1657 0048 BD46     		mov	sp, r7
 1658 004a 06B0     		add	sp, sp, #24
 1659              		@ sp needed
 1660 004c 80BD     		pop	{r7, pc}
 1661              		.cfi_endproc
 1662              	.LFE20:
 1663              		.size	CPU_CntTrailZeros08, .-CPU_CntTrailZeros08
 1664 004e C046     		.section	.text.CPU_CntTrailZeros16,"ax",%progbits
 1665              		.align	2
 1666              		.global	CPU_CntTrailZeros16
 1667              		.code	16
ARM GAS  C:\Users\ADMINI~1\AppData\Local\Temp\ccaBZmtr.s 			page 61


 1668              		.thumb_func
 1669              		.type	CPU_CntTrailZeros16, %function
 1670              	CPU_CntTrailZeros16:
 1671              	.LFB21:
1743:..\..\..\..\..\..\Software\uC-CPU/cpu_core.c **** #endif
1744:..\..\..\..\..\..\Software\uC-CPU/cpu_core.c **** 
1745:..\..\..\..\..\..\Software\uC-CPU/cpu_core.c **** 
1746:..\..\..\..\..\..\Software\uC-CPU/cpu_core.c **** /*
1747:..\..\..\..\..\..\Software\uC-CPU/cpu_core.c **** ***************************************************************************************************
1748:..\..\..\..\..\..\Software\uC-CPU/cpu_core.c **** *                                        CPU_CntTrailZeros16()
1749:..\..\..\..\..\..\Software\uC-CPU/cpu_core.c **** *
1750:..\..\..\..\..\..\Software\uC-CPU/cpu_core.c **** * Description : Count the number of contiguous, least-significant, trailing zero bits in a 16-bit d
1751:..\..\..\..\..\..\Software\uC-CPU/cpu_core.c **** *
1752:..\..\..\..\..\..\Software\uC-CPU/cpu_core.c **** * Argument(s) : val         Data value to count trailing zero bits.
1753:..\..\..\..\..\..\Software\uC-CPU/cpu_core.c **** *
1754:..\..\..\..\..\..\Software\uC-CPU/cpu_core.c **** * Return(s)   : Number of contiguous, least-significant, trailing zero bits in 'val'.
1755:..\..\..\..\..\..\Software\uC-CPU/cpu_core.c **** *
1756:..\..\..\..\..\..\Software\uC-CPU/cpu_core.c **** * Caller(s)   : Application.
1757:..\..\..\..\..\..\Software\uC-CPU/cpu_core.c **** *
1758:..\..\..\..\..\..\Software\uC-CPU/cpu_core.c **** *               This function is a CPU module application programming interface (API) function & MA
1759:..\..\..\..\..\..\Software\uC-CPU/cpu_core.c **** *               called by application function(s).
1760:..\..\..\..\..\..\Software\uC-CPU/cpu_core.c **** *
1761:..\..\..\..\..\..\Software\uC-CPU/cpu_core.c **** * Note(s)     : (1) Supports 16-bit values :
1762:..\..\..\..\..\..\Software\uC-CPU/cpu_core.c **** *
1763:..\..\..\..\..\..\Software\uC-CPU/cpu_core.c **** *                          b15  b14  b13  b12  b11  ...  b02  b01  b00    # Trailing Zeros
1764:..\..\..\..\..\..\Software\uC-CPU/cpu_core.c **** *                          ---  ---  ---  ---  ---       ---  ---  ---    ----------------
1765:..\..\..\..\..\..\Software\uC-CPU/cpu_core.c **** *                           x    x    x    x    x         x    x    1            0
1766:..\..\..\..\..\..\Software\uC-CPU/cpu_core.c **** *                           x    x    x    x    x         x    1    0            1
1767:..\..\..\..\..\..\Software\uC-CPU/cpu_core.c **** *                           x    x    x    x    x         1    0    0            2
1768:..\..\..\..\..\..\Software\uC-CPU/cpu_core.c **** *                           :    :    :    :    :         :    :    :            :
1769:..\..\..\..\..\..\Software\uC-CPU/cpu_core.c **** *                           :    :    :    :    :         :    :    :            :
1770:..\..\..\..\..\..\Software\uC-CPU/cpu_core.c **** *                           x    x    x    x    1         0    0    0           11
1771:..\..\..\..\..\..\Software\uC-CPU/cpu_core.c **** *                           x    x    x    1    0         0    0    0           12
1772:..\..\..\..\..\..\Software\uC-CPU/cpu_core.c **** *                           x    x    1    0    0         0    0    0           13
1773:..\..\..\..\..\..\Software\uC-CPU/cpu_core.c **** *                           x    1    0    0    0         0    0    0           14
1774:..\..\..\..\..\..\Software\uC-CPU/cpu_core.c **** *                           1    0    0    0    0         0    0    0           15
1775:..\..\..\..\..\..\Software\uC-CPU/cpu_core.c **** *                           0    0    0    0    0         0    0    0           16
1776:..\..\..\..\..\..\Software\uC-CPU/cpu_core.c **** *
1777:..\..\..\..\..\..\Software\uC-CPU/cpu_core.c **** *
1778:..\..\..\..\..\..\Software\uC-CPU/cpu_core.c **** *               (2) For non-zero values, the returned number of contiguous, least-significant, trai
1779:..\..\..\..\..\..\Software\uC-CPU/cpu_core.c **** *                   zero bits is also equivalent to the bit position of the least-significant set b
1780:..\..\..\..\..\..\Software\uC-CPU/cpu_core.c **** *
1781:..\..\..\..\..\..\Software\uC-CPU/cpu_core.c **** *               (3) 'val' SHOULD be validated for non-'0' PRIOR to all other counting zero calculat
1782:..\..\..\..\..\..\Software\uC-CPU/cpu_core.c **** *
1783:..\..\..\..\..\..\Software\uC-CPU/cpu_core.c **** *                   (a) For assembly-optimized implementations, CPU_CntTrailZeros() returns 'val's 
1784:..\..\..\..\..\..\Software\uC-CPU/cpu_core.c **** *                       number of trailing zeros via CPU's native data size, 'CPU_CFG_DATA_SIZE'.  
1785:..\..\..\..\..\..\Software\uC-CPU/cpu_core.c **** *                       If the returned number of zeros exceeds CPU_CntTrailZeros16()'s 16-bit retu
1786:..\..\..\..\..\..\Software\uC-CPU/cpu_core.c **** *                       data size, then the returned number of zeros must be offset by the differen
1787:..\..\..\..\..\..\Software\uC-CPU/cpu_core.c **** *                       between CPU_CntTrailZeros()'s  & CPU_CntTrailZeros16()'s return data size :
1788:..\..\..\..\..\..\Software\uC-CPU/cpu_core.c **** *
1789:..\..\..\..\..\..\Software\uC-CPU/cpu_core.c **** *                           nbr_trail_zeros = CPU_CntTrailZeros((CPU_DATA)val);
1790:..\..\..\..\..\..\Software\uC-CPU/cpu_core.c **** *                           if (nbr_trail_zeros >  (CPU_WORD_SIZE_16  * DEF_OCTET_NBR_BITS)) {
1791:..\..\..\..\..\..\Software\uC-CPU/cpu_core.c **** *                               nbr_trail_zeros -= (CPU_CFG_DATA_SIZE - CPU_WORD_SIZE_16) * DEF_OCT
1792:..\..\..\..\..\..\Software\uC-CPU/cpu_core.c **** *                           }
1793:..\..\..\..\..\..\Software\uC-CPU/cpu_core.c **** *
1794:..\..\..\..\..\..\Software\uC-CPU/cpu_core.c **** *                       However, this ONLY occurs for an initial 'val' of '0' since all non-'0' 16-
1795:..\..\..\..\..\..\Software\uC-CPU/cpu_core.c **** *                       values would return a number of trailing zeros less than or equal to 16 bit
ARM GAS  C:\Users\ADMINI~1\AppData\Local\Temp\ccaBZmtr.s 			page 62


1796:..\..\..\..\..\..\Software\uC-CPU/cpu_core.c **** *
1797:..\..\..\..\..\..\Software\uC-CPU/cpu_core.c **** *                       Therefore, initially validating all non-'0' values prior to calling assembl
1798:..\..\..\..\..\..\Software\uC-CPU/cpu_core.c **** *                       optimized CPU_CntTrailZeros() avoids having to offset the number of returne
1799:..\..\..\..\..\..\Software\uC-CPU/cpu_core.c **** *                       trailing zeros by the difference in CPU data size and 16-bit data value bit
1800:..\..\..\..\..\..\Software\uC-CPU/cpu_core.c **** *
1801:..\..\..\..\..\..\Software\uC-CPU/cpu_core.c **** *                   (b) For CPU_CntTrailZeros16()'s C implementation, the final conditional stateme
1802:..\..\..\..\..\..\Software\uC-CPU/cpu_core.c **** *                       calculates 'val's number of trailing zeros based on CPU_CntTrailZeros16()'s
1803:..\..\..\..\..\..\Software\uC-CPU/cpu_core.c **** *                       16-bit return data size & 'val's calculated number of lead zeros ONLY if th
1804:..\..\..\..\..\..\Software\uC-CPU/cpu_core.c **** *                       initial 'val' is non-'0' :
1805:..\..\..\..\..\..\Software\uC-CPU/cpu_core.c **** *
1806:..\..\..\..\..\..\Software\uC-CPU/cpu_core.c **** *                           if (val != 0u) {
1807:..\..\..\..\..\..\Software\uC-CPU/cpu_core.c **** *                               nbr_trail_zeros = ((CPU_WORD_SIZE_16 * DEF_OCTET_NBR_BITS) - 1u) - 
