ARM GAS  C:\Users\ADMINI~1\AppData\Local\Temp\ccaBZmtr.s 			page 1


   1              		.syntax unified
   2              		.cpu cortex-m0
   3              		.fpu softvfp
   4              		.eabi_attribute 20, 1
   5              		.eabi_attribute 21, 1
   6              		.eabi_attribute 23, 3
   7              		.eabi_attribute 24, 1
   8              		.eabi_attribute 25, 1
   9              		.eabi_attribute 26, 1
  10              		.eabi_attribute 30, 6
  11              		.eabi_attribute 34, 0
  12              		.eabi_attribute 18, 4
  13              		.thumb
  14              		.syntax unified
  15              		.file	"cpu_core.c"
  16              		.text
  17              	.Ltext0:
  18              		.cfi_sections	.debug_frame
  19              		.comm	CPU_Name,16,4
  20              		.comm	CPU_TS_TmrFreq_Hz,4,4
  21              		.comm	CPU_IntDisMeasCtr,2,2
  22              		.comm	CPU_IntDisNestCtr,2,2
  23              		.comm	CPU_IntDisMeasStart_cnts,4,4
  24              		.comm	CPU_IntDisMeasStop_cnts,4,4
  25              		.comm	CPU_IntDisMeasOvrhd_cnts,4,4
  26              		.comm	CPU_IntDisMeasMaxCur_cnts,4,4
  27              		.comm	CPU_IntDisMeasMax_cnts,4,4
  28              		.section	.rodata
  29              		.align	2
  30              		.type	CPU_CntLeadZerosTbl, %object
  31              		.size	CPU_CntLeadZerosTbl, 256
  32              	CPU_CntLeadZerosTbl:
  33 0000 08       		.byte	8
  34 0001 07       		.byte	7
  35 0002 06       		.byte	6
  36 0003 06       		.byte	6
  37 0004 05       		.byte	5
  38 0005 05       		.byte	5
  39 0006 05       		.byte	5
  40 0007 05       		.byte	5
  41 0008 04       		.byte	4
  42 0009 04       		.byte	4
  43 000a 04       		.byte	4
  44 000b 04       		.byte	4
  45 000c 04       		.byte	4
  46 000d 04       		.byte	4
  47 000e 04       		.byte	4
  48 000f 04       		.byte	4
  49 0010 03       		.byte	3
  50 0011 03       		.byte	3
  51 0012 03       		.byte	3
  52 0013 03       		.byte	3
  53 0014 03       		.byte	3
  54 0015 03       		.byte	3
  55 0016 03       		.byte	3
  56 0017 03       		.byte	3
  57 0018 03       		.byte	3
ARM GAS  C:\Users\ADMINI~1\AppData\Local\Temp\ccaBZmtr.s 			page 2


  58 0019 03       		.byte	3
  59 001a 03       		.byte	3
  60 001b 03       		.byte	3
  61 001c 03       		.byte	3
  62 001d 03       		.byte	3
  63 001e 03       		.byte	3
  64 001f 03       		.byte	3
  65 0020 02       		.byte	2
  66 0021 02       		.byte	2
  67 0022 02       		.byte	2
  68 0023 02       		.byte	2
  69 0024 02       		.byte	2
  70 0025 02       		.byte	2
  71 0026 02       		.byte	2
  72 0027 02       		.byte	2
  73 0028 02       		.byte	2
  74 0029 02       		.byte	2
  75 002a 02       		.byte	2
  76 002b 02       		.byte	2
  77 002c 02       		.byte	2
  78 002d 02       		.byte	2
  79 002e 02       		.byte	2
  80 002f 02       		.byte	2
  81 0030 02       		.byte	2
  82 0031 02       		.byte	2
  83 0032 02       		.byte	2
  84 0033 02       		.byte	2
  85 0034 02       		.byte	2
  86 0035 02       		.byte	2
  87 0036 02       		.byte	2
  88 0037 02       		.byte	2
  89 0038 02       		.byte	2
  90 0039 02       		.byte	2
  91 003a 02       		.byte	2
  92 003b 02       		.byte	2
  93 003c 02       		.byte	2
  94 003d 02       		.byte	2
  95 003e 02       		.byte	2
  96 003f 02       		.byte	2
  97 0040 01       		.byte	1
  98 0041 01       		.byte	1
  99 0042 01       		.byte	1
 100 0043 01       		.byte	1
 101 0044 01       		.byte	1
 102 0045 01       		.byte	1
 103 0046 01       		.byte	1
 104 0047 01       		.byte	1
 105 0048 01       		.byte	1
 106 0049 01       		.byte	1
 107 004a 01       		.byte	1
 108 004b 01       		.byte	1
 109 004c 01       		.byte	1
 110 004d 01       		.byte	1
 111 004e 01       		.byte	1
 112 004f 01       		.byte	1
 113 0050 01       		.byte	1
 114 0051 01       		.byte	1
ARM GAS  C:\Users\ADMINI~1\AppData\Local\Temp\ccaBZmtr.s 			page 3


 115 0052 01       		.byte	1
 116 0053 01       		.byte	1
 117 0054 01       		.byte	1
 118 0055 01       		.byte	1
 119 0056 01       		.byte	1
 120 0057 01       		.byte	1
 121 0058 01       		.byte	1
 122 0059 01       		.byte	1
 123 005a 01       		.byte	1
 124 005b 01       		.byte	1
 125 005c 01       		.byte	1
 126 005d 01       		.byte	1
 127 005e 01       		.byte	1
 128 005f 01       		.byte	1
 129 0060 01       		.byte	1
 130 0061 01       		.byte	1
 131 0062 01       		.byte	1
 132 0063 01       		.byte	1
 133 0064 01       		.byte	1
 134 0065 01       		.byte	1
 135 0066 01       		.byte	1
 136 0067 01       		.byte	1
 137 0068 01       		.byte	1
 138 0069 01       		.byte	1
 139 006a 01       		.byte	1
 140 006b 01       		.byte	1
 141 006c 01       		.byte	1
 142 006d 01       		.byte	1
 143 006e 01       		.byte	1
 144 006f 01       		.byte	1
 145 0070 01       		.byte	1
 146 0071 01       		.byte	1
 147 0072 01       		.byte	1
 148 0073 01       		.byte	1
 149 0074 01       		.byte	1
 150 0075 01       		.byte	1
 151 0076 01       		.byte	1
 152 0077 01       		.byte	1
 153 0078 01       		.byte	1
 154 0079 01       		.byte	1
 155 007a 01       		.byte	1
 156 007b 01       		.byte	1
 157 007c 01       		.byte	1
 158 007d 01       		.byte	1
 159 007e 01       		.byte	1
 160 007f 01       		.byte	1
 161 0080 00       		.byte	0
 162 0081 00       		.byte	0
 163 0082 00       		.byte	0
 164 0083 00       		.byte	0
 165 0084 00       		.byte	0
 166 0085 00       		.byte	0
 167 0086 00       		.byte	0
 168 0087 00       		.byte	0
 169 0088 00       		.byte	0
 170 0089 00       		.byte	0
 171 008a 00       		.byte	0
ARM GAS  C:\Users\ADMINI~1\AppData\Local\Temp\ccaBZmtr.s 			page 4


 172 008b 00       		.byte	0
 173 008c 00       		.byte	0
 174 008d 00       		.byte	0
 175 008e 00       		.byte	0
 176 008f 00       		.byte	0
 177 0090 00       		.byte	0
 178 0091 00       		.byte	0
 179 0092 00       		.byte	0
 180 0093 00       		.byte	0
 181 0094 00       		.byte	0
 182 0095 00       		.byte	0
 183 0096 00       		.byte	0
 184 0097 00       		.byte	0
 185 0098 00       		.byte	0
 186 0099 00       		.byte	0
 187 009a 00       		.byte	0
 188 009b 00       		.byte	0
 189 009c 00       		.byte	0
 190 009d 00       		.byte	0
 191 009e 00       		.byte	0
 192 009f 00       		.byte	0
 193 00a0 00       		.byte	0
 194 00a1 00       		.byte	0
 195 00a2 00       		.byte	0
 196 00a3 00       		.byte	0
 197 00a4 00       		.byte	0
 198 00a5 00       		.byte	0
 199 00a6 00       		.byte	0
 200 00a7 00       		.byte	0
 201 00a8 00       		.byte	0
 202 00a9 00       		.byte	0
 203 00aa 00       		.byte	0
 204 00ab 00       		.byte	0
 205 00ac 00       		.byte	0
 206 00ad 00       		.byte	0
 207 00ae 00       		.byte	0
 208 00af 00       		.byte	0
 209 00b0 00       		.byte	0
 210 00b1 00       		.byte	0
 211 00b2 00       		.byte	0
 212 00b3 00       		.byte	0
 213 00b4 00       		.byte	0
 214 00b5 00       		.byte	0
 215 00b6 00       		.byte	0
 216 00b7 00       		.byte	0
 217 00b8 00       		.byte	0
 218 00b9 00       		.byte	0
 219 00ba 00       		.byte	0
 220 00bb 00       		.byte	0
 221 00bc 00       		.byte	0
 222 00bd 00       		.byte	0
 223 00be 00       		.byte	0
 224 00bf 00       		.byte	0
 225 00c0 00       		.byte	0
 226 00c1 00       		.byte	0
 227 00c2 00       		.byte	0
 228 00c3 00       		.byte	0
ARM GAS  C:\Users\ADMINI~1\AppData\Local\Temp\ccaBZmtr.s 			page 5


 229 00c4 00       		.byte	0
 230 00c5 00       		.byte	0
 231 00c6 00       		.byte	0
 232 00c7 00       		.byte	0
 233 00c8 00       		.byte	0
 234 00c9 00       		.byte	0
 235 00ca 00       		.byte	0
 236 00cb 00       		.byte	0
 237 00cc 00       		.byte	0
 238 00cd 00       		.byte	0
 239 00ce 00       		.byte	0
 240 00cf 00       		.byte	0
 241 00d0 00       		.byte	0
 242 00d1 00       		.byte	0
 243 00d2 00       		.byte	0
 244 00d3 00       		.byte	0
 245 00d4 00       		.byte	0
 246 00d5 00       		.byte	0
 247 00d6 00       		.byte	0
 248 00d7 00       		.byte	0
 249 00d8 00       		.byte	0
 250 00d9 00       		.byte	0
 251 00da 00       		.byte	0
 252 00db 00       		.byte	0
 253 00dc 00       		.byte	0
 254 00dd 00       		.byte	0
 255 00de 00       		.byte	0
 256 00df 00       		.byte	0
 257 00e0 00       		.byte	0
 258 00e1 00       		.byte	0
 259 00e2 00       		.byte	0
 260 00e3 00       		.byte	0
 261 00e4 00       		.byte	0
 262 00e5 00       		.byte	0
 263 00e6 00       		.byte	0
 264 00e7 00       		.byte	0
 265 00e8 00       		.byte	0
 266 00e9 00       		.byte	0
 267 00ea 00       		.byte	0
 268 00eb 00       		.byte	0
 269 00ec 00       		.byte	0
 270 00ed 00       		.byte	0
 271 00ee 00       		.byte	0
 272 00ef 00       		.byte	0
 273 00f0 00       		.byte	0
 274 00f1 00       		.byte	0
 275 00f2 00       		.byte	0
 276 00f3 00       		.byte	0
 277 00f4 00       		.byte	0
 278 00f5 00       		.byte	0
 279 00f6 00       		.byte	0
 280 00f7 00       		.byte	0
 281 00f8 00       		.byte	0
 282 00f9 00       		.byte	0
 283 00fa 00       		.byte	0
 284 00fb 00       		.byte	0
 285 00fc 00       		.byte	0
ARM GAS  C:\Users\ADMINI~1\AppData\Local\Temp\ccaBZmtr.s 			page 6


 286 00fd 00       		.byte	0
 287 00fe 00       		.byte	0
 288 00ff 00       		.byte	0
 289              		.global	CPU_EndiannessTest
 290              		.align	2
 291              		.type	CPU_EndiannessTest, %object
 292              		.size	CPU_EndiannessTest, 4
 293              	CPU_EndiannessTest:
 294 0100 78563412 		.word	305419896
 295              		.section	.text.CPU_Init,"ax",%progbits
 296              		.align	2
 297              		.global	CPU_Init
 298              		.code	16
 299              		.thumb_func
 300              		.type	CPU_Init, %function
 301              	CPU_Init:
 302              	.LFB0:
 303              		.file 1 "..\\..\\..\\..\\..\\..\\Software\\uC-CPU\\cpu_core.c"
   1:..\..\..\..\..\..\Software\uC-CPU/cpu_core.c **** /*
   2:..\..\..\..\..\..\Software\uC-CPU/cpu_core.c **** ***************************************************************************************************
   3:..\..\..\..\..\..\Software\uC-CPU/cpu_core.c **** *                                                uC/CPU
   4:..\..\..\..\..\..\Software\uC-CPU/cpu_core.c **** *                                    CPU CONFIGURATION & PORT LAYER
   5:..\..\..\..\..\..\Software\uC-CPU/cpu_core.c **** *
   6:..\..\..\..\..\..\Software\uC-CPU/cpu_core.c **** *                          (c) Copyright 2004-2015; Micrium, Inc.; Weston, FL
   7:..\..\..\..\..\..\Software\uC-CPU/cpu_core.c **** *
   8:..\..\..\..\..\..\Software\uC-CPU/cpu_core.c **** *               All rights reserved.  Protected by international copyright laws.
   9:..\..\..\..\..\..\Software\uC-CPU/cpu_core.c **** *
  10:..\..\..\..\..\..\Software\uC-CPU/cpu_core.c **** *               uC/CPU is provided in source form to registered licensees ONLY.  It is
  11:..\..\..\..\..\..\Software\uC-CPU/cpu_core.c **** *               illegal to distribute this source code to any third party unless you receive
  12:..\..\..\..\..\..\Software\uC-CPU/cpu_core.c **** *               written permission by an authorized Micrium representative.  Knowledge of
  13:..\..\..\..\..\..\Software\uC-CPU/cpu_core.c **** *               the source code may NOT be used to develop a similar product.
  14:..\..\..\..\..\..\Software\uC-CPU/cpu_core.c **** *
  15:..\..\..\..\..\..\Software\uC-CPU/cpu_core.c **** *               Please help us continue to provide the Embedded community with the finest
  16:..\..\..\..\..\..\Software\uC-CPU/cpu_core.c **** *               software available.  Your honesty is greatly appreciated.
  17:..\..\..\..\..\..\Software\uC-CPU/cpu_core.c **** *
  18:..\..\..\..\..\..\Software\uC-CPU/cpu_core.c **** *               You can find our product's user manual, API reference, release notes and
  19:..\..\..\..\..\..\Software\uC-CPU/cpu_core.c **** *               more information at https://doc.micrium.com.
  20:..\..\..\..\..\..\Software\uC-CPU/cpu_core.c **** *               You can contact us at www.micrium.com.
  21:..\..\..\..\..\..\Software\uC-CPU/cpu_core.c **** ***************************************************************************************************
  22:..\..\..\..\..\..\Software\uC-CPU/cpu_core.c **** */
  23:..\..\..\..\..\..\Software\uC-CPU/cpu_core.c **** 
  24:..\..\..\..\..\..\Software\uC-CPU/cpu_core.c **** /*
  25:..\..\..\..\..\..\Software\uC-CPU/cpu_core.c **** ***************************************************************************************************
  26:..\..\..\..\..\..\Software\uC-CPU/cpu_core.c **** *
  27:..\..\..\..\..\..\Software\uC-CPU/cpu_core.c **** *                                           CORE CPU MODULE
  28:..\..\..\..\..\..\Software\uC-CPU/cpu_core.c **** *
  29:..\..\..\..\..\..\Software\uC-CPU/cpu_core.c **** * Filename      : cpu_core.c
  30:..\..\..\..\..\..\Software\uC-CPU/cpu_core.c **** * Version       : V1.30.02
  31:..\..\..\..\..\..\Software\uC-CPU/cpu_core.c **** * Programmer(s) : SR
  32:..\..\..\..\..\..\Software\uC-CPU/cpu_core.c **** *                 ITJ
  33:..\..\..\..\..\..\Software\uC-CPU/cpu_core.c **** ***************************************************************************************************
  34:..\..\..\..\..\..\Software\uC-CPU/cpu_core.c **** */
  35:..\..\..\..\..\..\Software\uC-CPU/cpu_core.c **** 
  36:..\..\..\..\..\..\Software\uC-CPU/cpu_core.c **** 
  37:..\..\..\..\..\..\Software\uC-CPU/cpu_core.c **** /*
  38:..\..\..\..\..\..\Software\uC-CPU/cpu_core.c **** ***************************************************************************************************
  39:..\..\..\..\..\..\Software\uC-CPU/cpu_core.c **** *                                            INCLUDE FILES
ARM GAS  C:\Users\ADMINI~1\AppData\Local\Temp\ccaBZmtr.s 			page 7


  40:..\..\..\..\..\..\Software\uC-CPU/cpu_core.c **** ***************************************************************************************************
  41:..\..\..\..\..\..\Software\uC-CPU/cpu_core.c **** */
  42:..\..\..\..\..\..\Software\uC-CPU/cpu_core.c **** 
  43:..\..\..\..\..\..\Software\uC-CPU/cpu_core.c **** #define    MICRIUM_SOURCE
  44:..\..\..\..\..\..\Software\uC-CPU/cpu_core.c **** #define    CPU_CORE_MODULE
  45:..\..\..\..\..\..\Software\uC-CPU/cpu_core.c **** #include  "cpu_core.h"
  46:..\..\..\..\..\..\Software\uC-CPU/cpu_core.c **** 
  47:..\..\..\..\..\..\Software\uC-CPU/cpu_core.c **** #if defined(CPU_CFG_CACHE_MGMT_EN)
  48:..\..\..\..\..\..\Software\uC-CPU/cpu_core.c **** #if (CPU_CFG_CACHE_MGMT_EN == DEF_ENABLED)
  49:..\..\..\..\..\..\Software\uC-CPU/cpu_core.c **** #include  "cpu_cache.h"
  50:..\..\..\..\..\..\Software\uC-CPU/cpu_core.c **** #endif
  51:..\..\..\..\..\..\Software\uC-CPU/cpu_core.c **** #endif
  52:..\..\..\..\..\..\Software\uC-CPU/cpu_core.c **** 
  53:..\..\..\..\..\..\Software\uC-CPU/cpu_core.c **** 
  54:..\..\..\..\..\..\Software\uC-CPU/cpu_core.c **** /*
  55:..\..\..\..\..\..\Software\uC-CPU/cpu_core.c **** ***************************************************************************************************
  56:..\..\..\..\..\..\Software\uC-CPU/cpu_core.c **** *                                            LOCAL DEFINES
  57:..\..\..\..\..\..\Software\uC-CPU/cpu_core.c **** ***************************************************************************************************
  58:..\..\..\..\..\..\Software\uC-CPU/cpu_core.c **** */
  59:..\..\..\..\..\..\Software\uC-CPU/cpu_core.c **** 
  60:..\..\..\..\..\..\Software\uC-CPU/cpu_core.c ****                                                                 /* Pop cnt algorithm csts.         
  61:..\..\..\..\..\..\Software\uC-CPU/cpu_core.c **** #define CRC_UTIL_POPCNT_MASK01010101_32  0x55555555u
  62:..\..\..\..\..\..\Software\uC-CPU/cpu_core.c **** #define CRC_UTIL_POPCNT_MASK00110011_32  0x33333333u
  63:..\..\..\..\..\..\Software\uC-CPU/cpu_core.c **** #define CRC_UTIL_POPCNT_MASK00001111_32  0x0F0F0F0Fu
  64:..\..\..\..\..\..\Software\uC-CPU/cpu_core.c **** #define CRC_UTIL_POPCNT_POWERSOF256_32   0x01010101u
  65:..\..\..\..\..\..\Software\uC-CPU/cpu_core.c **** 
  66:..\..\..\..\..\..\Software\uC-CPU/cpu_core.c **** 
  67:..\..\..\..\..\..\Software\uC-CPU/cpu_core.c **** /*
  68:..\..\..\..\..\..\Software\uC-CPU/cpu_core.c **** ***************************************************************************************************
  69:..\..\..\..\..\..\Software\uC-CPU/cpu_core.c **** *                                           LOCAL CONSTANTS
  70:..\..\..\..\..\..\Software\uC-CPU/cpu_core.c **** ***************************************************************************************************
  71:..\..\..\..\..\..\Software\uC-CPU/cpu_core.c **** */
  72:..\..\..\..\..\..\Software\uC-CPU/cpu_core.c **** 
  73:..\..\..\..\..\..\Software\uC-CPU/cpu_core.c **** 
  74:..\..\..\..\..\..\Software\uC-CPU/cpu_core.c **** /*
  75:..\..\..\..\..\..\Software\uC-CPU/cpu_core.c **** ***************************************************************************************************
  76:..\..\..\..\..\..\Software\uC-CPU/cpu_core.c **** *                                          LOCAL DATA TYPES
  77:..\..\..\..\..\..\Software\uC-CPU/cpu_core.c **** ***************************************************************************************************
  78:..\..\..\..\..\..\Software\uC-CPU/cpu_core.c **** */
  79:..\..\..\..\..\..\Software\uC-CPU/cpu_core.c **** 
  80:..\..\..\..\..\..\Software\uC-CPU/cpu_core.c **** 
  81:..\..\..\..\..\..\Software\uC-CPU/cpu_core.c **** /*
  82:..\..\..\..\..\..\Software\uC-CPU/cpu_core.c **** ***************************************************************************************************
  83:..\..\..\..\..\..\Software\uC-CPU/cpu_core.c **** *                                            LOCAL TABLES
  84:..\..\..\..\..\..\Software\uC-CPU/cpu_core.c **** ***************************************************************************************************
  85:..\..\..\..\..\..\Software\uC-CPU/cpu_core.c **** */
  86:..\..\..\..\..\..\Software\uC-CPU/cpu_core.c **** 
  87:..\..\..\..\..\..\Software\uC-CPU/cpu_core.c **** /*
  88:..\..\..\..\..\..\Software\uC-CPU/cpu_core.c **** ***************************************************************************************************
  89:..\..\..\..\..\..\Software\uC-CPU/cpu_core.c **** *                                  CPU COUNT LEAD ZEROs LOOKUP TABLE
  90:..\..\..\..\..\..\Software\uC-CPU/cpu_core.c **** *
  91:..\..\..\..\..\..\Software\uC-CPU/cpu_core.c **** * Note(s) : (1) Index into bit pattern table determines the number of leading zeros in an 8-bit val
  92:..\..\..\..\..\..\Software\uC-CPU/cpu_core.c **** *
  93:..\..\..\..\..\..\Software\uC-CPU/cpu_core.c **** *                         b07  b06  b05  b04  b03  b02  b01  b00    # Leading Zeros
  94:..\..\..\..\..\..\Software\uC-CPU/cpu_core.c **** *                         ---  ---  ---  ---  ---  ---  ---  ---    ---------------
  95:..\..\..\..\..\..\Software\uC-CPU/cpu_core.c **** *                          1    x    x    x    x    x    x    x            0
  96:..\..\..\..\..\..\Software\uC-CPU/cpu_core.c **** *                          0    1    x    x    x    x    x    x            1
ARM GAS  C:\Users\ADMINI~1\AppData\Local\Temp\ccaBZmtr.s 			page 8


  97:..\..\..\..\..\..\Software\uC-CPU/cpu_core.c **** *                          0    0    1    x    x    x    x    x            2
  98:..\..\..\..\..\..\Software\uC-CPU/cpu_core.c **** *                          0    0    0    1    x    x    x    x            3
  99:..\..\..\..\..\..\Software\uC-CPU/cpu_core.c **** *                          0    0    0    0    1    x    x    x            4
 100:..\..\..\..\..\..\Software\uC-CPU/cpu_core.c **** *                          0    0    0    0    0    1    x    x            5
 101:..\..\..\..\..\..\Software\uC-CPU/cpu_core.c **** *                          0    0    0    0    0    0    1    x            6
 102:..\..\..\..\..\..\Software\uC-CPU/cpu_core.c **** *                          0    0    0    0    0    0    0    1            7
 103:..\..\..\..\..\..\Software\uC-CPU/cpu_core.c **** *                          0    0    0    0    0    0    0    0            8
 104:..\..\..\..\..\..\Software\uC-CPU/cpu_core.c **** ***************************************************************************************************
 105:..\..\..\..\..\..\Software\uC-CPU/cpu_core.c **** */
 106:..\..\..\..\..\..\Software\uC-CPU/cpu_core.c **** 
 107:..\..\..\..\..\..\Software\uC-CPU/cpu_core.c **** #if (!(defined(CPU_CFG_LEAD_ZEROS_ASM_PRESENT)) || \
 108:..\..\..\..\..\..\Software\uC-CPU/cpu_core.c ****       (CPU_CFG_DATA_SIZE_MAX > CPU_CFG_DATA_SIZE))
 109:..\..\..\..\..\..\Software\uC-CPU/cpu_core.c **** static  const  CPU_INT08U  CPU_CntLeadZerosTbl[256] = {                             /* Data vals : 
 110:..\..\..\..\..\..\Software\uC-CPU/cpu_core.c **** /*   0    1    2    3    4    5    6    7    8    9    A    B    C    D    E    F   */
 111:..\..\..\..\..\..\Software\uC-CPU/cpu_core.c ****     8u,  7u,  6u,  6u,  5u,  5u,  5u,  5u,  4u,  4u,  4u,  4u,  4u,  4u,  4u,  4u,  /*   0x00 to 0x
 112:..\..\..\..\..\..\Software\uC-CPU/cpu_core.c ****     3u,  3u,  3u,  3u,  3u,  3u,  3u,  3u,  3u,  3u,  3u,  3u,  3u,  3u,  3u,  3u,  /*   0x10 to 0x
 113:..\..\..\..\..\..\Software\uC-CPU/cpu_core.c ****     2u,  2u,  2u,  2u,  2u,  2u,  2u,  2u,  2u,  2u,  2u,  2u,  2u,  2u,  2u,  2u,  /*   0x20 to 0x
 114:..\..\..\..\..\..\Software\uC-CPU/cpu_core.c ****     2u,  2u,  2u,  2u,  2u,  2u,  2u,  2u,  2u,  2u,  2u,  2u,  2u,  2u,  2u,  2u,  /*   0x30 to 0x
 115:..\..\..\..\..\..\Software\uC-CPU/cpu_core.c ****     1u,  1u,  1u,  1u,  1u,  1u,  1u,  1u,  1u,  1u,  1u,  1u,  1u,  1u,  1u,  1u,  /*   0x40 to 0x
 116:..\..\..\..\..\..\Software\uC-CPU/cpu_core.c ****     1u,  1u,  1u,  1u,  1u,  1u,  1u,  1u,  1u,  1u,  1u,  1u,  1u,  1u,  1u,  1u,  /*   0x50 to 0x
 117:..\..\..\..\..\..\Software\uC-CPU/cpu_core.c ****     1u,  1u,  1u,  1u,  1u,  1u,  1u,  1u,  1u,  1u,  1u,  1u,  1u,  1u,  1u,  1u,  /*   0x60 to 0x
 118:..\..\..\..\..\..\Software\uC-CPU/cpu_core.c ****     1u,  1u,  1u,  1u,  1u,  1u,  1u,  1u,  1u,  1u,  1u,  1u,  1u,  1u,  1u,  1u,  /*   0x70 to 0x
 119:..\..\..\..\..\..\Software\uC-CPU/cpu_core.c ****     0u,  0u,  0u,  0u,  0u,  0u,  0u,  0u,  0u,  0u,  0u,  0u,  0u,  0u,  0u,  0u,  /*   0x80 to 0x
 120:..\..\..\..\..\..\Software\uC-CPU/cpu_core.c ****     0u,  0u,  0u,  0u,  0u,  0u,  0u,  0u,  0u,  0u,  0u,  0u,  0u,  0u,  0u,  0u,  /*   0x90 to 0x
 121:..\..\..\..\..\..\Software\uC-CPU/cpu_core.c ****     0u,  0u,  0u,  0u,  0u,  0u,  0u,  0u,  0u,  0u,  0u,  0u,  0u,  0u,  0u,  0u,  /*   0xA0 to 0x
 122:..\..\..\..\..\..\Software\uC-CPU/cpu_core.c ****     0u,  0u,  0u,  0u,  0u,  0u,  0u,  0u,  0u,  0u,  0u,  0u,  0u,  0u,  0u,  0u,  /*   0xB0 to 0x
 123:..\..\..\..\..\..\Software\uC-CPU/cpu_core.c ****     0u,  0u,  0u,  0u,  0u,  0u,  0u,  0u,  0u,  0u,  0u,  0u,  0u,  0u,  0u,  0u,  /*   0xC0 to 0x
 124:..\..\..\..\..\..\Software\uC-CPU/cpu_core.c ****     0u,  0u,  0u,  0u,  0u,  0u,  0u,  0u,  0u,  0u,  0u,  0u,  0u,  0u,  0u,  0u,  /*   0xD0 to 0x
 125:..\..\..\..\..\..\Software\uC-CPU/cpu_core.c ****     0u,  0u,  0u,  0u,  0u,  0u,  0u,  0u,  0u,  0u,  0u,  0u,  0u,  0u,  0u,  0u,  /*   0xE0 to 0x
 126:..\..\..\..\..\..\Software\uC-CPU/cpu_core.c ****     0u,  0u,  0u,  0u,  0u,  0u,  0u,  0u,  0u,  0u,  0u,  0u,  0u,  0u,  0u,  0u   /*   0xF0 to 0x
 127:..\..\..\..\..\..\Software\uC-CPU/cpu_core.c **** };
 128:..\..\..\..\..\..\Software\uC-CPU/cpu_core.c **** #endif
 129:..\..\..\..\..\..\Software\uC-CPU/cpu_core.c **** 
 130:..\..\..\..\..\..\Software\uC-CPU/cpu_core.c **** 
 131:..\..\..\..\..\..\Software\uC-CPU/cpu_core.c **** /*
 132:..\..\..\..\..\..\Software\uC-CPU/cpu_core.c **** ***************************************************************************************************
 133:..\..\..\..\..\..\Software\uC-CPU/cpu_core.c **** *                                       LOCAL GLOBAL VARIABLES
 134:..\..\..\..\..\..\Software\uC-CPU/cpu_core.c **** ***************************************************************************************************
 135:..\..\..\..\..\..\Software\uC-CPU/cpu_core.c **** */
 136:..\..\..\..\..\..\Software\uC-CPU/cpu_core.c **** 
 137:..\..\..\..\..\..\Software\uC-CPU/cpu_core.c **** CPU_INT32U  const  CPU_EndiannessTest = 0x12345678LU;               /* Variable to test CPU endiann
 138:..\..\..\..\..\..\Software\uC-CPU/cpu_core.c **** 
 139:..\..\..\..\..\..\Software\uC-CPU/cpu_core.c **** 
 140:..\..\..\..\..\..\Software\uC-CPU/cpu_core.c **** /*
 141:..\..\..\..\..\..\Software\uC-CPU/cpu_core.c **** ***************************************************************************************************
 142:..\..\..\..\..\..\Software\uC-CPU/cpu_core.c **** *                                      LOCAL FUNCTION PROTOTYPES
 143:..\..\..\..\..\..\Software\uC-CPU/cpu_core.c **** ***************************************************************************************************
 144:..\..\..\..\..\..\Software\uC-CPU/cpu_core.c **** */
 145:..\..\..\..\..\..\Software\uC-CPU/cpu_core.c **** 
 146:..\..\..\..\..\..\Software\uC-CPU/cpu_core.c **** #if    (CPU_CFG_NAME_EN   == DEF_ENABLED)                           /* ---------------- CPU NAME FN
 147:..\..\..\..\..\..\Software\uC-CPU/cpu_core.c **** static  void        CPU_NameInit         (void);
 148:..\..\..\..\..\..\Software\uC-CPU/cpu_core.c **** #endif
 149:..\..\..\..\..\..\Software\uC-CPU/cpu_core.c **** 
 150:..\..\..\..\..\..\Software\uC-CPU/cpu_core.c **** 
 151:..\..\..\..\..\..\Software\uC-CPU/cpu_core.c ****                                                                     /* ----------------- CPU TS FNC
 152:..\..\..\..\..\..\Software\uC-CPU/cpu_core.c **** #if   ((CPU_CFG_TS_EN     == DEF_ENABLED) || \
 153:..\..\..\..\..\..\Software\uC-CPU/cpu_core.c ****        (CPU_CFG_TS_TMR_EN == DEF_ENABLED))
ARM GAS  C:\Users\ADMINI~1\AppData\Local\Temp\ccaBZmtr.s 			page 9


 154:..\..\..\..\..\..\Software\uC-CPU/cpu_core.c **** static  void        CPU_TS_Init          (void);
 155:..\..\..\..\..\..\Software\uC-CPU/cpu_core.c **** #endif
 156:..\..\..\..\..\..\Software\uC-CPU/cpu_core.c **** 
 157:..\..\..\..\..\..\Software\uC-CPU/cpu_core.c **** 
 158:..\..\..\..\..\..\Software\uC-CPU/cpu_core.c **** #ifdef  CPU_CFG_INT_DIS_MEAS_EN                                     /* ---------- CPU INT DIS TIME 
 159:..\..\..\..\..\..\Software\uC-CPU/cpu_core.c **** static  void        CPU_IntDisMeasInit   (void);
 160:..\..\..\..\..\..\Software\uC-CPU/cpu_core.c **** 
 161:..\..\..\..\..\..\Software\uC-CPU/cpu_core.c **** static  CPU_TS_TMR  CPU_IntDisMeasMaxCalc(CPU_TS_TMR  time_tot_cnts);
 162:..\..\..\..\..\..\Software\uC-CPU/cpu_core.c **** #endif
 163:..\..\..\..\..\..\Software\uC-CPU/cpu_core.c **** 
 164:..\..\..\..\..\..\Software\uC-CPU/cpu_core.c **** 
 165:..\..\..\..\..\..\Software\uC-CPU/cpu_core.c **** /*
 166:..\..\..\..\..\..\Software\uC-CPU/cpu_core.c **** ***************************************************************************************************
 167:..\..\..\..\..\..\Software\uC-CPU/cpu_core.c **** *                                     LOCAL CONFIGURATION ERRORS
 168:..\..\..\..\..\..\Software\uC-CPU/cpu_core.c **** ***************************************************************************************************
 169:..\..\..\..\..\..\Software\uC-CPU/cpu_core.c **** */
 170:..\..\..\..\..\..\Software\uC-CPU/cpu_core.c **** 
 171:..\..\..\..\..\..\Software\uC-CPU/cpu_core.c **** 
 172:..\..\..\..\..\..\Software\uC-CPU/cpu_core.c **** /*
 173:..\..\..\..\..\..\Software\uC-CPU/cpu_core.c **** ***************************************************************************************************
 174:..\..\..\..\..\..\Software\uC-CPU/cpu_core.c **** *                                             CPU_Init()
 175:..\..\..\..\..\..\Software\uC-CPU/cpu_core.c **** *
 176:..\..\..\..\..\..\Software\uC-CPU/cpu_core.c **** * Description : (1) Initialize CPU module :
 177:..\..\..\..\..\..\Software\uC-CPU/cpu_core.c **** *
 178:..\..\..\..\..\..\Software\uC-CPU/cpu_core.c **** *                   (a) Initialize CPU timestamps
 179:..\..\..\..\..\..\Software\uC-CPU/cpu_core.c **** *                   (b) Initialize CPU interrupts disabled time measurements
 180:..\..\..\..\..\..\Software\uC-CPU/cpu_core.c **** *                   (c) Initialize CPU host name
 181:..\..\..\..\..\..\Software\uC-CPU/cpu_core.c **** *
 182:..\..\..\..\..\..\Software\uC-CPU/cpu_core.c **** *
 183:..\..\..\..\..\..\Software\uC-CPU/cpu_core.c **** * Argument(s) : none.
 184:..\..\..\..\..\..\Software\uC-CPU/cpu_core.c **** *
 185:..\..\..\..\..\..\Software\uC-CPU/cpu_core.c **** * Return(s)   : none.
 186:..\..\..\..\..\..\Software\uC-CPU/cpu_core.c **** *
 187:..\..\..\..\..\..\Software\uC-CPU/cpu_core.c **** * Caller(s)   : Your Product's Application.
 188:..\..\..\..\..\..\Software\uC-CPU/cpu_core.c **** *
 189:..\..\..\..\..\..\Software\uC-CPU/cpu_core.c **** *               This function is a CPU initialization function & MAY be called by application/
 190:..\..\..\..\..\..\Software\uC-CPU/cpu_core.c **** *               initialization function(s).
 191:..\..\..\..\..\..\Software\uC-CPU/cpu_core.c **** *
 192:..\..\..\..\..\..\Software\uC-CPU/cpu_core.c **** * Note(s)     : (2) CPU_Init() MUST be called ... :
 193:..\..\..\..\..\..\Software\uC-CPU/cpu_core.c **** *
 194:..\..\..\..\..\..\Software\uC-CPU/cpu_core.c **** *                   (a) ONLY ONCE from a product's application; ...
 195:..\..\..\..\..\..\Software\uC-CPU/cpu_core.c **** *                   (b) BEFORE product's application calls any core CPU module function(s)
 196:..\..\..\..\..\..\Software\uC-CPU/cpu_core.c **** *
 197:..\..\..\..\..\..\Software\uC-CPU/cpu_core.c **** *               (3) The following initialization functions MUST be sequenced as follows :
 198:..\..\..\..\..\..\Software\uC-CPU/cpu_core.c **** *
 199:..\..\..\..\..\..\Software\uC-CPU/cpu_core.c **** *                   (a) CPU_TS_Init()           SHOULD precede ALL calls to other CPU timestamp fun
 200:..\..\..\..\..\..\Software\uC-CPU/cpu_core.c **** *
 201:..\..\..\..\..\..\Software\uC-CPU/cpu_core.c **** *                   (b) CPU_IntDisMeasInit()    SHOULD precede ALL calls to CPU_CRITICAL_ENTER()/CP
 202:..\..\..\..\..\..\Software\uC-CPU/cpu_core.c **** *                                                   & other CPU interrupts disabled time measuremen
 203:..\..\..\..\..\..\Software\uC-CPU/cpu_core.c **** ***************************************************************************************************
 204:..\..\..\..\..\..\Software\uC-CPU/cpu_core.c **** */
 205:..\..\..\..\..\..\Software\uC-CPU/cpu_core.c **** 
 206:..\..\..\..\..\..\Software\uC-CPU/cpu_core.c **** void  CPU_Init (void)
 207:..\..\..\..\..\..\Software\uC-CPU/cpu_core.c **** {
 304              		.loc 1 207 0
 305              		.cfi_startproc
 306              		@ args = 0, pretend = 0, frame = 0
ARM GAS  C:\Users\ADMINI~1\AppData\Local\Temp\ccaBZmtr.s 			page 10


 307              		@ frame_needed = 1, uses_anonymous_args = 0
 308 0000 80B5     		push	{r7, lr}
 309              		.cfi_def_cfa_offset 8
 310              		.cfi_offset 7, -8
 311              		.cfi_offset 14, -4
 312 0002 00AF     		add	r7, sp, #0
 313              		.cfi_def_cfa_register 7
 208:..\..\..\..\..\..\Software\uC-CPU/cpu_core.c ****                                                                 /* --------------------- INIT TS --
 209:..\..\..\..\..\..\Software\uC-CPU/cpu_core.c **** #if ((CPU_CFG_TS_EN     == DEF_ENABLED) || \
 210:..\..\..\..\..\..\Software\uC-CPU/cpu_core.c ****      (CPU_CFG_TS_TMR_EN == DEF_ENABLED))
 211:..\..\..\..\..\..\Software\uC-CPU/cpu_core.c ****     CPU_TS_Init();                                              /* See Note #3a.                   
 314              		.loc 1 211 0
 315 0004 FFF7FEFF 		bl	CPU_TS_Init
 212:..\..\..\..\..\..\Software\uC-CPU/cpu_core.c **** #endif
 213:..\..\..\..\..\..\Software\uC-CPU/cpu_core.c ****                                                                 /* -------------- INIT INT DIS TIME
 214:..\..\..\..\..\..\Software\uC-CPU/cpu_core.c **** #ifdef  CPU_CFG_INT_DIS_MEAS_EN
 215:..\..\..\..\..\..\Software\uC-CPU/cpu_core.c ****     CPU_IntDisMeasInit();                                       /* See Note #3b.                   
 316              		.loc 1 215 0
 317 0008 FFF7FEFF 		bl	CPU_IntDisMeasInit
 216:..\..\..\..\..\..\Software\uC-CPU/cpu_core.c **** #endif
 217:..\..\..\..\..\..\Software\uC-CPU/cpu_core.c **** 
 218:..\..\..\..\..\..\Software\uC-CPU/cpu_core.c ****                                                                 /* ------------------ INIT CPU NAME
 219:..\..\..\..\..\..\Software\uC-CPU/cpu_core.c **** #if (CPU_CFG_NAME_EN == DEF_ENABLED)
 220:..\..\..\..\..\..\Software\uC-CPU/cpu_core.c ****      CPU_NameInit();
 318              		.loc 1 220 0
 319 000c FFF7FEFF 		bl	CPU_NameInit
 221:..\..\..\..\..\..\Software\uC-CPU/cpu_core.c **** #endif
 222:..\..\..\..\..\..\Software\uC-CPU/cpu_core.c **** 
 223:..\..\..\..\..\..\Software\uC-CPU/cpu_core.c **** #if (CPU_CFG_CACHE_MGMT_EN == DEF_ENABLED)
 224:..\..\..\..\..\..\Software\uC-CPU/cpu_core.c ****      CPU_Cache_Init();
 225:..\..\..\..\..\..\Software\uC-CPU/cpu_core.c **** #endif
 226:..\..\..\..\..\..\Software\uC-CPU/cpu_core.c **** }
 320              		.loc 1 226 0
 321 0010 C046     		nop
 322 0012 BD46     		mov	sp, r7
 323              		@ sp needed
 324 0014 80BD     		pop	{r7, pc}
 325              		.cfi_endproc
 326              	.LFE0:
 327              		.size	CPU_Init, .-CPU_Init
 328 0016 C046     		.section	.text.CPU_SW_Exception,"ax",%progbits
 329              		.align	2
 330              		.global	CPU_SW_Exception
 331              		.code	16
 332              		.thumb_func
 333              		.type	CPU_SW_Exception, %function
 334              	CPU_SW_Exception:
 335              	.LFB1:
 227:..\..\..\..\..\..\Software\uC-CPU/cpu_core.c **** 
 228:..\..\..\..\..\..\Software\uC-CPU/cpu_core.c **** 
 229:..\..\..\..\..\..\Software\uC-CPU/cpu_core.c **** /*
 230:..\..\..\..\..\..\Software\uC-CPU/cpu_core.c **** ***************************************************************************************************
 231:..\..\..\..\..\..\Software\uC-CPU/cpu_core.c **** *                                         CPU_SW_Exception()
 232:..\..\..\..\..\..\Software\uC-CPU/cpu_core.c **** *
 233:..\..\..\..\..\..\Software\uC-CPU/cpu_core.c **** * Description : Trap unrecoverable software exception.
 234:..\..\..\..\..\..\Software\uC-CPU/cpu_core.c **** *
 235:..\..\..\..\..\..\Software\uC-CPU/cpu_core.c **** * Argument(s) : none.
ARM GAS  C:\Users\ADMINI~1\AppData\Local\Temp\ccaBZmtr.s 			page 11


 236:..\..\..\..\..\..\Software\uC-CPU/cpu_core.c **** *
 237:..\..\..\..\..\..\Software\uC-CPU/cpu_core.c **** * Return(s)   : none.
 238:..\..\..\..\..\..\Software\uC-CPU/cpu_core.c **** *
 239:..\..\..\..\..\..\Software\uC-CPU/cpu_core.c **** * Caller(s)   : various.
 240:..\..\..\..\..\..\Software\uC-CPU/cpu_core.c **** *
 241:..\..\..\..\..\..\Software\uC-CPU/cpu_core.c **** * Note(s)     : (1) CPU_SW_Exception() deadlocks the current code execution -- whether multi-tasked
 242:..\..\..\..\..\..\Software\uC-CPU/cpu_core.c **** *                   -processed/-threaded or single-threaded -- when the current code execution cann
 243:..\..\..\..\..\..\Software\uC-CPU/cpu_core.c **** *                   gracefully recover or report a fault or exception condition.
 244:..\..\..\..\..\..\Software\uC-CPU/cpu_core.c **** *
 245:..\..\..\..\..\..\Software\uC-CPU/cpu_core.c **** *                   See also 'cpu_core.h  CPU_SW_EXCEPTION()  Note #1'.
 246:..\..\..\..\..\..\Software\uC-CPU/cpu_core.c **** ***************************************************************************************************
 247:..\..\..\..\..\..\Software\uC-CPU/cpu_core.c **** */
 248:..\..\..\..\..\..\Software\uC-CPU/cpu_core.c **** 
 249:..\..\..\..\..\..\Software\uC-CPU/cpu_core.c **** void  CPU_SW_Exception (void)
 250:..\..\..\..\..\..\Software\uC-CPU/cpu_core.c **** {
 336              		.loc 1 250 0
 337              		.cfi_startproc
 338              		@ args = 0, pretend = 0, frame = 0
 339              		@ frame_needed = 1, uses_anonymous_args = 0
 340 0000 80B5     		push	{r7, lr}
 341              		.cfi_def_cfa_offset 8
 342              		.cfi_offset 7, -8
 343              		.cfi_offset 14, -4
 344 0002 00AF     		add	r7, sp, #0
 345              		.cfi_def_cfa_register 7
 346              	.L3:
 251:..\..\..\..\..\..\Software\uC-CPU/cpu_core.c ****     while (DEF_ON) {
 252:..\..\..\..\..\..\Software\uC-CPU/cpu_core.c ****         ;
 253:..\..\..\..\..\..\Software\uC-CPU/cpu_core.c ****     }
 347              		.loc 1 253 0 discriminator 1
 348 0004 FEE7     		b	.L3
 349              		.cfi_endproc
 350              	.LFE1:
 351              		.size	CPU_SW_Exception, .-CPU_SW_Exception
 352 0006 C046     		.section	.text.CPU_NameClr,"ax",%progbits
 353              		.align	2
 354              		.global	CPU_NameClr
 355              		.code	16
 356              		.thumb_func
 357              		.type	CPU_NameClr, %function
 358              	CPU_NameClr:
 359              	.LFB2:
 254:..\..\..\..\..\..\Software\uC-CPU/cpu_core.c **** }
 255:..\..\..\..\..\..\Software\uC-CPU/cpu_core.c **** 
 256:..\..\..\..\..\..\Software\uC-CPU/cpu_core.c **** 
 257:..\..\..\..\..\..\Software\uC-CPU/cpu_core.c **** /*
 258:..\..\..\..\..\..\Software\uC-CPU/cpu_core.c **** ***************************************************************************************************
 259:..\..\..\..\..\..\Software\uC-CPU/cpu_core.c **** *                                            CPU_NameClr()
 260:..\..\..\..\..\..\Software\uC-CPU/cpu_core.c **** *
 261:..\..\..\..\..\..\Software\uC-CPU/cpu_core.c **** * Description : Clear CPU Name.
 262:..\..\..\..\..\..\Software\uC-CPU/cpu_core.c **** *
 263:..\..\..\..\..\..\Software\uC-CPU/cpu_core.c **** * Argument(s) : none.
 264:..\..\..\..\..\..\Software\uC-CPU/cpu_core.c **** *
 265:..\..\..\..\..\..\Software\uC-CPU/cpu_core.c **** * Return(s)   : none.
 266:..\..\..\..\..\..\Software\uC-CPU/cpu_core.c **** *
 267:..\..\..\..\..\..\Software\uC-CPU/cpu_core.c **** * Caller(s)   : CPU_NameInit(),
 268:..\..\..\..\..\..\Software\uC-CPU/cpu_core.c **** *               Application.
ARM GAS  C:\Users\ADMINI~1\AppData\Local\Temp\ccaBZmtr.s 			page 12


 269:..\..\..\..\..\..\Software\uC-CPU/cpu_core.c **** *
 270:..\..\..\..\..\..\Software\uC-CPU/cpu_core.c **** *               This function is a CPU module application programming interface (API) function & MA
 271:..\..\..\..\..\..\Software\uC-CPU/cpu_core.c **** *               called by application function(s).
 272:..\..\..\..\..\..\Software\uC-CPU/cpu_core.c **** *
 273:..\..\..\..\..\..\Software\uC-CPU/cpu_core.c **** * Note(s)     : none.
 274:..\..\..\..\..\..\Software\uC-CPU/cpu_core.c **** ***************************************************************************************************
 275:..\..\..\..\..\..\Software\uC-CPU/cpu_core.c **** */
 276:..\..\..\..\..\..\Software\uC-CPU/cpu_core.c **** 
 277:..\..\..\..\..\..\Software\uC-CPU/cpu_core.c **** #if (CPU_CFG_NAME_EN == DEF_ENABLED)
 278:..\..\..\..\..\..\Software\uC-CPU/cpu_core.c **** void  CPU_NameClr (void)
 279:..\..\..\..\..\..\Software\uC-CPU/cpu_core.c **** {
 360              		.loc 1 279 0
 361              		.cfi_startproc
 362              		@ args = 0, pretend = 0, frame = 8
 363              		@ frame_needed = 1, uses_anonymous_args = 0
 364 0000 80B5     		push	{r7, lr}
 365              		.cfi_def_cfa_offset 8
 366              		.cfi_offset 7, -8
 367              		.cfi_offset 14, -4
 368 0002 82B0     		sub	sp, sp, #8
 369              		.cfi_def_cfa_offset 16
 370 0004 00AF     		add	r7, sp, #0
 371              		.cfi_def_cfa_register 7
 280:..\..\..\..\..\..\Software\uC-CPU/cpu_core.c ****     CPU_SR_ALLOC();
 372              		.loc 1 280 0
 373 0006 0023     		movs	r3, #0
 374 0008 7B60     		str	r3, [r7, #4]
 281:..\..\..\..\..\..\Software\uC-CPU/cpu_core.c **** 
 282:..\..\..\..\..\..\Software\uC-CPU/cpu_core.c **** 
 283:..\..\..\..\..\..\Software\uC-CPU/cpu_core.c ****     CPU_CRITICAL_ENTER();
 375              		.loc 1 283 0
 376 000a FFF7FEFF 		bl	CPU_SR_Save
 377 000e 0300     		movs	r3, r0
 378 0010 7B60     		str	r3, [r7, #4]
 379 0012 FFF7FEFF 		bl	CPU_IntDisMeasStart
 284:..\..\..\..\..\..\Software\uC-CPU/cpu_core.c ****     Mem_Clr((void     *)&CPU_Name[0],
 380              		.loc 1 284 0
 381 0016 074B     		ldr	r3, .L5
 382 0018 1021     		movs	r1, #16
 383 001a 1800     		movs	r0, r3
 384 001c FFF7FEFF 		bl	Mem_Clr
 285:..\..\..\..\..\..\Software\uC-CPU/cpu_core.c ****             (CPU_SIZE_T) CPU_CFG_NAME_SIZE);
 286:..\..\..\..\..\..\Software\uC-CPU/cpu_core.c ****     CPU_CRITICAL_EXIT();
 385              		.loc 1 286 0
 386 0020 FFF7FEFF 		bl	CPU_IntDisMeasStop
 387 0024 7B68     		ldr	r3, [r7, #4]
 388 0026 1800     		movs	r0, r3
 389 0028 FFF7FEFF 		bl	CPU_SR_Restore
 287:..\..\..\..\..\..\Software\uC-CPU/cpu_core.c **** }
 390              		.loc 1 287 0
 391 002c C046     		nop
 392 002e BD46     		mov	sp, r7
 393 0030 02B0     		add	sp, sp, #8
 394              		@ sp needed
 395 0032 80BD     		pop	{r7, pc}
 396              	.L6:
 397              		.align	2
ARM GAS  C:\Users\ADMINI~1\AppData\Local\Temp\ccaBZmtr.s 			page 13


 398              	.L5:
 399 0034 00000000 		.word	CPU_Name
 400              		.cfi_endproc
 401              	.LFE2:
 402              		.size	CPU_NameClr, .-CPU_NameClr
 403              		.section	.text.CPU_NameGet,"ax",%progbits
 404              		.align	2
 405              		.global	CPU_NameGet
 406              		.code	16
 407              		.thumb_func
 408              		.type	CPU_NameGet, %function
 409              	CPU_NameGet:
 410              	.LFB3:
 288:..\..\..\..\..\..\Software\uC-CPU/cpu_core.c **** #endif
 289:..\..\..\..\..\..\Software\uC-CPU/cpu_core.c **** 
 290:..\..\..\..\..\..\Software\uC-CPU/cpu_core.c **** 
 291:..\..\..\..\..\..\Software\uC-CPU/cpu_core.c **** /*
 292:..\..\..\..\..\..\Software\uC-CPU/cpu_core.c **** ***************************************************************************************************
 293:..\..\..\..\..\..\Software\uC-CPU/cpu_core.c **** *                                            CPU_NameGet()
 294:..\..\..\..\..\..\Software\uC-CPU/cpu_core.c **** *
 295:..\..\..\..\..\..\Software\uC-CPU/cpu_core.c **** * Description : Get CPU host name.
 296:..\..\..\..\..\..\Software\uC-CPU/cpu_core.c **** *
 297:..\..\..\..\..\..\Software\uC-CPU/cpu_core.c **** * Argument(s) : p_name      Pointer to an ASCII character array that will receive the return CPU ho
 298:..\..\..\..\..\..\Software\uC-CPU/cpu_core.c **** *                               name ASCII string from this function (see Note #1).
 299:..\..\..\..\..\..\Software\uC-CPU/cpu_core.c **** *
 300:..\..\..\..\..\..\Software\uC-CPU/cpu_core.c **** *               p_err       Pointer to variable that will receive the return error code from this f
 301:..\..\..\..\..\..\Software\uC-CPU/cpu_core.c **** *
 302:..\..\..\..\..\..\Software\uC-CPU/cpu_core.c **** *                               CPU_ERR_NONE                    CPU host name successfully returned
 303:..\..\..\..\..\..\Software\uC-CPU/cpu_core.c **** *                               CPU_ERR_NULL_PTR                Argument 'p_name' passed a NULL poi
 304:..\..\..\..\..\..\Software\uC-CPU/cpu_core.c **** *
 305:..\..\..\..\..\..\Software\uC-CPU/cpu_core.c **** * Return(s)   : none.
 306:..\..\..\..\..\..\Software\uC-CPU/cpu_core.c **** *
 307:..\..\..\..\..\..\Software\uC-CPU/cpu_core.c **** * Caller(s)   : Application.
 308:..\..\..\..\..\..\Software\uC-CPU/cpu_core.c **** *
 309:..\..\..\..\..\..\Software\uC-CPU/cpu_core.c **** *               This function is a CPU module application programming interface (API) function & MA
 310:..\..\..\..\..\..\Software\uC-CPU/cpu_core.c **** *               be called by application function(s).
 311:..\..\..\..\..\..\Software\uC-CPU/cpu_core.c **** *
 312:..\..\..\..\..\..\Software\uC-CPU/cpu_core.c **** * Note(s)     : (1) The size of the ASCII character array that will receive the return CPU host nam
 313:..\..\..\..\..\..\Software\uC-CPU/cpu_core.c **** *                   ASCII string :
 314:..\..\..\..\..\..\Software\uC-CPU/cpu_core.c **** *
 315:..\..\..\..\..\..\Software\uC-CPU/cpu_core.c **** *                   (a) MUST   be greater than or equal to the current CPU host name's ASCII string
 316:..\..\..\..\..\..\Software\uC-CPU/cpu_core.c **** *                           size including the terminating NULL character;
 317:..\..\..\..\..\..\Software\uC-CPU/cpu_core.c **** *                   (b) SHOULD be greater than or equal to CPU_CFG_NAME_SIZE
 318:..\..\..\..\..\..\Software\uC-CPU/cpu_core.c **** ***************************************************************************************************
 319:..\..\..\..\..\..\Software\uC-CPU/cpu_core.c **** */
 320:..\..\..\..\..\..\Software\uC-CPU/cpu_core.c **** 
 321:..\..\..\..\..\..\Software\uC-CPU/cpu_core.c **** #if (CPU_CFG_NAME_EN == DEF_ENABLED)
 322:..\..\..\..\..\..\Software\uC-CPU/cpu_core.c **** void  CPU_NameGet (CPU_CHAR  *p_name,
 323:..\..\..\..\..\..\Software\uC-CPU/cpu_core.c ****                    CPU_ERR   *p_err)
 324:..\..\..\..\..\..\Software\uC-CPU/cpu_core.c **** {
 411              		.loc 1 324 0
 412              		.cfi_startproc
 413              		@ args = 0, pretend = 0, frame = 16
 414              		@ frame_needed = 1, uses_anonymous_args = 0
 415 0000 80B5     		push	{r7, lr}
 416              		.cfi_def_cfa_offset 8
 417              		.cfi_offset 7, -8
ARM GAS  C:\Users\ADMINI~1\AppData\Local\Temp\ccaBZmtr.s 			page 14


 418              		.cfi_offset 14, -4
 419 0002 84B0     		sub	sp, sp, #16
 420              		.cfi_def_cfa_offset 24
 421 0004 00AF     		add	r7, sp, #0
 422              		.cfi_def_cfa_register 7
 423 0006 7860     		str	r0, [r7, #4]
 424 0008 3960     		str	r1, [r7]
 325:..\..\..\..\..\..\Software\uC-CPU/cpu_core.c ****     CPU_SR_ALLOC();
 425              		.loc 1 325 0
 426 000a 0023     		movs	r3, #0
 427 000c FB60     		str	r3, [r7, #12]
 326:..\..\..\..\..\..\Software\uC-CPU/cpu_core.c **** 
 327:..\..\..\..\..\..\Software\uC-CPU/cpu_core.c **** 
 328:..\..\..\..\..\..\Software\uC-CPU/cpu_core.c ****     if (p_err == (CPU_ERR *)0) {
 428              		.loc 1 328 0
 429 000e 3B68     		ldr	r3, [r7]
 430 0010 002B     		cmp	r3, #0
 431 0012 01D1     		bne	.L8
 329:..\..\..\..\..\..\Software\uC-CPU/cpu_core.c ****         CPU_SW_EXCEPTION(;);
 432              		.loc 1 329 0
 433 0014 FFF7FEFF 		bl	CPU_SW_Exception
 434              	.L8:
 330:..\..\..\..\..\..\Software\uC-CPU/cpu_core.c ****     }
 331:..\..\..\..\..\..\Software\uC-CPU/cpu_core.c **** 
 332:..\..\..\..\..\..\Software\uC-CPU/cpu_core.c ****     if (p_name == (CPU_CHAR *)0) {
 435              		.loc 1 332 0
 436 0018 7B68     		ldr	r3, [r7, #4]
 437 001a 002B     		cmp	r3, #0
 438 001c 03D1     		bne	.L9
 333:..\..\..\..\..\..\Software\uC-CPU/cpu_core.c ****        *p_err = CPU_ERR_NULL_PTR;
 439              		.loc 1 333 0
 440 001e 3B68     		ldr	r3, [r7]
 441 0020 0A22     		movs	r2, #10
 442 0022 1A80     		strh	r2, [r3]
 334:..\..\..\..\..\..\Software\uC-CPU/cpu_core.c ****         return;
 443              		.loc 1 334 0
 444 0024 14E0     		b	.L7
 445              	.L9:
 335:..\..\..\..\..\..\Software\uC-CPU/cpu_core.c ****     }
 336:..\..\..\..\..\..\Software\uC-CPU/cpu_core.c **** 
 337:..\..\..\..\..\..\Software\uC-CPU/cpu_core.c ****     CPU_CRITICAL_ENTER();
 446              		.loc 1 337 0
 447 0026 FFF7FEFF 		bl	CPU_SR_Save
 448 002a 0300     		movs	r3, r0
 449 002c FB60     		str	r3, [r7, #12]
 450 002e FFF7FEFF 		bl	CPU_IntDisMeasStart
 338:..\..\..\..\..\..\Software\uC-CPU/cpu_core.c ****    (void)Str_Copy_N(p_name,
 451              		.loc 1 338 0
 452 0032 0949     		ldr	r1, .L11
 453 0034 7B68     		ldr	r3, [r7, #4]
 454 0036 1022     		movs	r2, #16
 455 0038 1800     		movs	r0, r3
 456 003a FFF7FEFF 		bl	Str_Copy_N
 339:..\..\..\..\..\..\Software\uC-CPU/cpu_core.c ****                    &CPU_Name[0],
 340:..\..\..\..\..\..\Software\uC-CPU/cpu_core.c ****                     CPU_CFG_NAME_SIZE);
 341:..\..\..\..\..\..\Software\uC-CPU/cpu_core.c ****     CPU_CRITICAL_EXIT();
 457              		.loc 1 341 0
ARM GAS  C:\Users\ADMINI~1\AppData\Local\Temp\ccaBZmtr.s 			page 15


 458 003e FFF7FEFF 		bl	CPU_IntDisMeasStop
 459 0042 FB68     		ldr	r3, [r7, #12]
 460 0044 1800     		movs	r0, r3
 461 0046 FFF7FEFF 		bl	CPU_SR_Restore
 342:..\..\..\..\..\..\Software\uC-CPU/cpu_core.c **** 
 343:..\..\..\..\..\..\Software\uC-CPU/cpu_core.c ****    *p_err = CPU_ERR_NONE;
 462              		.loc 1 343 0
 463 004a 3B68     		ldr	r3, [r7]
 464 004c 0022     		movs	r2, #0
 465 004e 1A80     		strh	r2, [r3]
 466              	.L7:
 344:..\..\..\..\..\..\Software\uC-CPU/cpu_core.c **** }
 467              		.loc 1 344 0
 468 0050 BD46     		mov	sp, r7
 469 0052 04B0     		add	sp, sp, #16
 470              		@ sp needed
 471 0054 80BD     		pop	{r7, pc}
 472              	.L12:
 473 0056 C046     		.align	2
 474              	.L11:
 475 0058 00000000 		.word	CPU_Name
 476              		.cfi_endproc
 477              	.LFE3:
 478              		.size	CPU_NameGet, .-CPU_NameGet
 479              		.section	.text.CPU_NameSet,"ax",%progbits
 480              		.align	2
 481              		.global	CPU_NameSet
 482              		.code	16
 483              		.thumb_func
 484              		.type	CPU_NameSet, %function
 485              	CPU_NameSet:
 486              	.LFB4:
 345:..\..\..\..\..\..\Software\uC-CPU/cpu_core.c **** #endif
 346:..\..\..\..\..\..\Software\uC-CPU/cpu_core.c **** 
 347:..\..\..\..\..\..\Software\uC-CPU/cpu_core.c **** 
 348:..\..\..\..\..\..\Software\uC-CPU/cpu_core.c **** /*
 349:..\..\..\..\..\..\Software\uC-CPU/cpu_core.c **** ***************************************************************************************************
 350:..\..\..\..\..\..\Software\uC-CPU/cpu_core.c **** *                                            CPU_NameSet()
 351:..\..\..\..\..\..\Software\uC-CPU/cpu_core.c **** *
 352:..\..\..\..\..\..\Software\uC-CPU/cpu_core.c **** * Description : Set CPU host name.
 353:..\..\..\..\..\..\Software\uC-CPU/cpu_core.c **** *
 354:..\..\..\..\..\..\Software\uC-CPU/cpu_core.c **** * Argument(s) : p_name      Pointer to CPU host name to set.
 355:..\..\..\..\..\..\Software\uC-CPU/cpu_core.c **** *
 356:..\..\..\..\..\..\Software\uC-CPU/cpu_core.c **** *               p_err       Pointer to variable that will receive the return error code from this f
 357:..\..\..\..\..\..\Software\uC-CPU/cpu_core.c **** *
 358:..\..\..\..\..\..\Software\uC-CPU/cpu_core.c **** *                               CPU_ERR_NONE                    CPU host name successfully set.
 359:..\..\..\..\..\..\Software\uC-CPU/cpu_core.c **** *                               CPU_ERR_NULL_PTR                Argument 'p_name' passed a NULL poi
 360:..\..\..\..\..\..\Software\uC-CPU/cpu_core.c **** *                               CPU_ERR_NAME_SIZE               Invalid CPU host name size (see Not
 361:..\..\..\..\..\..\Software\uC-CPU/cpu_core.c **** *
 362:..\..\..\..\..\..\Software\uC-CPU/cpu_core.c **** * Return(s)   : none.
 363:..\..\..\..\..\..\Software\uC-CPU/cpu_core.c **** *
 364:..\..\..\..\..\..\Software\uC-CPU/cpu_core.c **** * Caller(s)   : Application.
 365:..\..\..\..\..\..\Software\uC-CPU/cpu_core.c **** *
 366:..\..\..\..\..\..\Software\uC-CPU/cpu_core.c **** *               This function is a CPU module application programming interface (API) function & MA
 367:..\..\..\..\..\..\Software\uC-CPU/cpu_core.c **** *               called by application function(s).
 368:..\..\..\..\..\..\Software\uC-CPU/cpu_core.c **** *
 369:..\..\..\..\..\..\Software\uC-CPU/cpu_core.c **** * Note(s)     : (1) 'p_name' ASCII string size, including the terminating NULL character, MUST be l
ARM GAS  C:\Users\ADMINI~1\AppData\Local\Temp\ccaBZmtr.s 			page 16


 370:..\..\..\..\..\..\Software\uC-CPU/cpu_core.c **** *                    than or equal to CPU_CFG_NAME_SIZE.
 371:..\..\..\..\..\..\Software\uC-CPU/cpu_core.c **** ***************************************************************************************************
 372:..\..\..\..\..\..\Software\uC-CPU/cpu_core.c **** */
 373:..\..\..\..\..\..\Software\uC-CPU/cpu_core.c **** 
 374:..\..\..\..\..\..\Software\uC-CPU/cpu_core.c **** #if (CPU_CFG_NAME_EN == DEF_ENABLED)
 375:..\..\..\..\..\..\Software\uC-CPU/cpu_core.c **** void  CPU_NameSet (const  CPU_CHAR  *p_name,
 376:..\..\..\..\..\..\Software\uC-CPU/cpu_core.c ****                           CPU_ERR   *p_err)
 377:..\..\..\..\..\..\Software\uC-CPU/cpu_core.c **** {
 487              		.loc 1 377 0
 488              		.cfi_startproc
 489              		@ args = 0, pretend = 0, frame = 16
 490              		@ frame_needed = 1, uses_anonymous_args = 0
 491 0000 80B5     		push	{r7, lr}
 492              		.cfi_def_cfa_offset 8
 493              		.cfi_offset 7, -8
 494              		.cfi_offset 14, -4
 495 0002 84B0     		sub	sp, sp, #16
 496              		.cfi_def_cfa_offset 24
 497 0004 00AF     		add	r7, sp, #0
 498              		.cfi_def_cfa_register 7
 499 0006 7860     		str	r0, [r7, #4]
 500 0008 3960     		str	r1, [r7]
 378:..\..\..\..\..\..\Software\uC-CPU/cpu_core.c ****     CPU_SIZE_T  len;
 379:..\..\..\..\..\..\Software\uC-CPU/cpu_core.c ****     CPU_SR_ALLOC();
 501              		.loc 1 379 0
 502 000a 0023     		movs	r3, #0
 503 000c FB60     		str	r3, [r7, #12]
 380:..\..\..\..\..\..\Software\uC-CPU/cpu_core.c **** 
 381:..\..\..\..\..\..\Software\uC-CPU/cpu_core.c **** 
 382:..\..\..\..\..\..\Software\uC-CPU/cpu_core.c ****     if (p_err == (CPU_ERR *)0) {
 504              		.loc 1 382 0
 505 000e 3B68     		ldr	r3, [r7]
 506 0010 002B     		cmp	r3, #0
 507 0012 01D1     		bne	.L14
 383:..\..\..\..\..\..\Software\uC-CPU/cpu_core.c ****         CPU_SW_EXCEPTION(;);
 508              		.loc 1 383 0
 509 0014 FFF7FEFF 		bl	CPU_SW_Exception
 510              	.L14:
 384:..\..\..\..\..\..\Software\uC-CPU/cpu_core.c ****     }
 385:..\..\..\..\..\..\Software\uC-CPU/cpu_core.c **** 
 386:..\..\..\..\..\..\Software\uC-CPU/cpu_core.c ****     if (p_name == (const CPU_CHAR *)0) {
 511              		.loc 1 386 0
 512 0018 7B68     		ldr	r3, [r7, #4]
 513 001a 002B     		cmp	r3, #0
 514 001c 03D1     		bne	.L15
 387:..\..\..\..\..\..\Software\uC-CPU/cpu_core.c ****        *p_err = CPU_ERR_NULL_PTR;
 515              		.loc 1 387 0
 516 001e 3B68     		ldr	r3, [r7]
 517 0020 0A22     		movs	r2, #10
 518 0022 1A80     		strh	r2, [r3]
 388:..\..\..\..\..\..\Software\uC-CPU/cpu_core.c ****         return;
 519              		.loc 1 388 0
 520 0024 23E0     		b	.L13
 521              	.L15:
 389:..\..\..\..\..\..\Software\uC-CPU/cpu_core.c ****     }
 390:..\..\..\..\..\..\Software\uC-CPU/cpu_core.c **** 
 391:..\..\..\..\..\..\Software\uC-CPU/cpu_core.c ****     len = Str_Len_N(p_name,
ARM GAS  C:\Users\ADMINI~1\AppData\Local\Temp\ccaBZmtr.s 			page 17


 522              		.loc 1 391 0
 523 0026 7B68     		ldr	r3, [r7, #4]
 524 0028 1021     		movs	r1, #16
 525 002a 1800     		movs	r0, r3
 526 002c FFF7FEFF 		bl	Str_Len_N
 527 0030 0300     		movs	r3, r0
 528 0032 BB60     		str	r3, [r7, #8]
 392:..\..\..\..\..\..\Software\uC-CPU/cpu_core.c ****                     CPU_CFG_NAME_SIZE);
 393:..\..\..\..\..\..\Software\uC-CPU/cpu_core.c ****     if (len < CPU_CFG_NAME_SIZE) {                              /* If       cfg name len < max name
 529              		.loc 1 393 0
 530 0034 BB68     		ldr	r3, [r7, #8]
 531 0036 0F2B     		cmp	r3, #15
 532 0038 15D8     		bhi	.L17
 394:..\..\..\..\..\..\Software\uC-CPU/cpu_core.c ****         CPU_CRITICAL_ENTER();
 533              		.loc 1 394 0
 534 003a FFF7FEFF 		bl	CPU_SR_Save
 535 003e 0300     		movs	r3, r0
 536 0040 FB60     		str	r3, [r7, #12]
 537 0042 FFF7FEFF 		bl	CPU_IntDisMeasStart
 395:..\..\..\..\..\..\Software\uC-CPU/cpu_core.c ****        (void)Str_Copy_N(&CPU_Name[0],                           /* ... copy cfg name to CPU host na
 538              		.loc 1 395 0
 539 0046 7968     		ldr	r1, [r7, #4]
 540 0048 0A4B     		ldr	r3, .L18
 541 004a 1022     		movs	r2, #16
 542 004c 1800     		movs	r0, r3
 543 004e FFF7FEFF 		bl	Str_Copy_N
 396:..\..\..\..\..\..\Software\uC-CPU/cpu_core.c ****                          p_name,
 397:..\..\..\..\..\..\Software\uC-CPU/cpu_core.c ****                          CPU_CFG_NAME_SIZE);
 398:..\..\..\..\..\..\Software\uC-CPU/cpu_core.c ****         CPU_CRITICAL_EXIT();
 544              		.loc 1 398 0
 545 0052 FFF7FEFF 		bl	CPU_IntDisMeasStop
 546 0056 FB68     		ldr	r3, [r7, #12]
 547 0058 1800     		movs	r0, r3
 548 005a FFF7FEFF 		bl	CPU_SR_Restore
 399:..\..\..\..\..\..\Software\uC-CPU/cpu_core.c ****        *p_err = CPU_ERR_NONE;
 549              		.loc 1 399 0
 550 005e 3B68     		ldr	r3, [r7]
 551 0060 0022     		movs	r2, #0
 552 0062 1A80     		strh	r2, [r3]
 553 0064 03E0     		b	.L13
 554              	.L17:
 400:..\..\..\..\..\..\Software\uC-CPU/cpu_core.c **** 
 401:..\..\..\..\..\..\Software\uC-CPU/cpu_core.c ****     } else {
 402:..\..\..\..\..\..\Software\uC-CPU/cpu_core.c ****        *p_err = CPU_ERR_NAME_SIZE;
 555              		.loc 1 402 0
 556 0066 3B68     		ldr	r3, [r7]
 557 0068 FA22     		movs	r2, #250
 558 006a 9200     		lsls	r2, r2, #2
 559 006c 1A80     		strh	r2, [r3]
 560              	.L13:
 403:..\..\..\..\..\..\Software\uC-CPU/cpu_core.c ****     }
 404:..\..\..\..\..\..\Software\uC-CPU/cpu_core.c **** }
 561              		.loc 1 404 0
 562 006e BD46     		mov	sp, r7
 563 0070 04B0     		add	sp, sp, #16
 564              		@ sp needed
 565 0072 80BD     		pop	{r7, pc}
ARM GAS  C:\Users\ADMINI~1\AppData\Local\Temp\ccaBZmtr.s 			page 18


 566              	.L19:
 567              		.align	2
 568              	.L18:
 569 0074 00000000 		.word	CPU_Name
 570              		.cfi_endproc
 571              	.LFE4:
 572              		.size	CPU_NameSet, .-CPU_NameSet
 573              		.section	.text.CPU_TS_Get32,"ax",%progbits
 574              		.align	2
 575              		.global	CPU_TS_Get32
 576              		.code	16
 577              		.thumb_func
 578              		.type	CPU_TS_Get32, %function
 579              	CPU_TS_Get32:
 580              	.LFB5:
 405:..\..\..\..\..\..\Software\uC-CPU/cpu_core.c **** #endif
 406:..\..\..\..\..\..\Software\uC-CPU/cpu_core.c **** 
 407:..\..\..\..\..\..\Software\uC-CPU/cpu_core.c **** 
 408:..\..\..\..\..\..\Software\uC-CPU/cpu_core.c **** /*
 409:..\..\..\..\..\..\Software\uC-CPU/cpu_core.c **** ***************************************************************************************************
 410:..\..\..\..\..\..\Software\uC-CPU/cpu_core.c **** *                                           CPU_TS_Get32()
 411:..\..\..\..\..\..\Software\uC-CPU/cpu_core.c **** *
 412:..\..\..\..\..\..\Software\uC-CPU/cpu_core.c **** * Description : Get current 32-bit CPU timestamp.
 413:..\..\..\..\..\..\Software\uC-CPU/cpu_core.c **** *
 414:..\..\..\..\..\..\Software\uC-CPU/cpu_core.c **** * Argument(s) : none.
 415:..\..\..\..\..\..\Software\uC-CPU/cpu_core.c **** *
 416:..\..\..\..\..\..\Software\uC-CPU/cpu_core.c **** * Return(s)   : Current 32-bit CPU timestamp (in timestamp timer counts).
 417:..\..\..\..\..\..\Software\uC-CPU/cpu_core.c **** *
 418:..\..\..\..\..\..\Software\uC-CPU/cpu_core.c **** * Caller(s)   : Application.
 419:..\..\..\..\..\..\Software\uC-CPU/cpu_core.c **** *
 420:..\..\..\..\..\..\Software\uC-CPU/cpu_core.c **** *               This function is a CPU module application programming interface (API) function & MA
 421:..\..\..\..\..\..\Software\uC-CPU/cpu_core.c **** *               be called by application function(s).
 422:..\..\..\..\..\..\Software\uC-CPU/cpu_core.c **** *
 423:..\..\..\..\..\..\Software\uC-CPU/cpu_core.c **** * Note(s)     : (1) When applicable, the amount of time measured by CPU timestamps is calculated by
 424:..\..\..\..\..\..\Software\uC-CPU/cpu_core.c **** *                   either of the following equations :
 425:..\..\..\..\..\..\Software\uC-CPU/cpu_core.c **** *
 426:..\..\..\..\..\..\Software\uC-CPU/cpu_core.c **** *                       (a) Time measured  =  Number timer counts  *  Timer period
 427:..\..\..\..\..\..\Software\uC-CPU/cpu_core.c **** *
 428:..\..\..\..\..\..\Software\uC-CPU/cpu_core.c **** *                               where
 429:..\..\..\..\..\..\Software\uC-CPU/cpu_core.c **** *
 430:..\..\..\..\..\..\Software\uC-CPU/cpu_core.c **** *                                   Number timer counts     Number of timer counts measured
 431:..\..\..\..\..\..\Software\uC-CPU/cpu_core.c **** *                                   Timer period            Timer's period in some units of
 432:..\..\..\..\..\..\Software\uC-CPU/cpu_core.c **** *                                                               (fractional) seconds
 433:..\..\..\..\..\..\Software\uC-CPU/cpu_core.c **** *                                   Time measured           Amount of time measured, in same
 434:..\..\..\..\..\..\Software\uC-CPU/cpu_core.c **** *                                                               units of (fractional) seconds
 435:..\..\..\..\..\..\Software\uC-CPU/cpu_core.c **** *                                                               as the Timer period
 436:..\..\..\..\..\..\Software\uC-CPU/cpu_core.c **** *
 437:..\..\..\..\..\..\Software\uC-CPU/cpu_core.c **** *                                              Number timer counts
 438:..\..\..\..\..\..\Software\uC-CPU/cpu_core.c **** *                       (b) Time measured  =  ---------------------
 439:..\..\..\..\..\..\Software\uC-CPU/cpu_core.c **** *                                                Timer frequency
 440:..\..\..\..\..\..\Software\uC-CPU/cpu_core.c **** *
 441:..\..\..\..\..\..\Software\uC-CPU/cpu_core.c **** *                               where
 442:..\..\..\..\..\..\Software\uC-CPU/cpu_core.c **** *
 443:..\..\..\..\..\..\Software\uC-CPU/cpu_core.c **** *                                   Number timer counts     Number of timer counts measured
 444:..\..\..\..\..\..\Software\uC-CPU/cpu_core.c **** *                                   Timer frequency         Timer's frequency in some units
 445:..\..\..\..\..\..\Software\uC-CPU/cpu_core.c **** *                                                               of counts per second
 446:..\..\..\..\..\..\Software\uC-CPU/cpu_core.c **** *                                   Time measured           Amount of time measured, in seconds
ARM GAS  C:\Users\ADMINI~1\AppData\Local\Temp\ccaBZmtr.s 			page 19


 447:..\..\..\..\..\..\Software\uC-CPU/cpu_core.c **** *
 448:..\..\..\..\..\..\Software\uC-CPU/cpu_core.c **** *                   See also 'cpu_core.h  FUNCTION PROTOTYPES  CPU_TS_TmrRd()  Note #2c1'.
 449:..\..\..\..\..\..\Software\uC-CPU/cpu_core.c **** *
 450:..\..\..\..\..\..\Software\uC-CPU/cpu_core.c **** *               (2) In case the CPU timestamp timer has lower precision than the 32-bit CPU timesta
 451:..\..\..\..\..\..\Software\uC-CPU/cpu_core.c **** *                   its precision is extended via periodic updates by accumulating the deltas of th
 452:..\..\..\..\..\..\Software\uC-CPU/cpu_core.c **** *                   timestamp timer count values into the higher-precision 32-bit CPU timestamp.
 453:..\..\..\..\..\..\Software\uC-CPU/cpu_core.c **** *
 454:..\..\..\..\..\..\Software\uC-CPU/cpu_core.c **** *               (3) After initialization, 'CPU_TS_32_Accum' & 'CPU_TS_32_TmrPrev' MUST ALWAYS
 455:..\..\..\..\..\..\Software\uC-CPU/cpu_core.c **** *                   be accessed AND updated exclusively with interrupts disabled -- but NOT
 456:..\..\..\..\..\..\Software\uC-CPU/cpu_core.c **** *                   with critical sections.
 457:..\..\..\..\..\..\Software\uC-CPU/cpu_core.c **** ***************************************************************************************************
 458:..\..\..\..\..\..\Software\uC-CPU/cpu_core.c **** */
 459:..\..\..\..\..\..\Software\uC-CPU/cpu_core.c **** 
 460:..\..\..\..\..\..\Software\uC-CPU/cpu_core.c **** #if (CPU_CFG_TS_32_EN == DEF_ENABLED)
 461:..\..\..\..\..\..\Software\uC-CPU/cpu_core.c **** CPU_TS32  CPU_TS_Get32 (void)
 462:..\..\..\..\..\..\Software\uC-CPU/cpu_core.c **** {
 581              		.loc 1 462 0
 582              		.cfi_startproc
 583              		@ args = 0, pretend = 0, frame = 8
 584              		@ frame_needed = 1, uses_anonymous_args = 0
 585 0000 80B5     		push	{r7, lr}
 586              		.cfi_def_cfa_offset 8
 587              		.cfi_offset 7, -8
 588              		.cfi_offset 14, -4
 589 0002 82B0     		sub	sp, sp, #8
 590              		.cfi_def_cfa_offset 16
 591 0004 00AF     		add	r7, sp, #0
 592              		.cfi_def_cfa_register 7
 463:..\..\..\..\..\..\Software\uC-CPU/cpu_core.c ****     CPU_TS32    ts;
 464:..\..\..\..\..\..\Software\uC-CPU/cpu_core.c **** #if (CPU_CFG_TS_TMR_SIZE <  CPU_WORD_SIZE_32)
 465:..\..\..\..\..\..\Software\uC-CPU/cpu_core.c ****     CPU_TS_TMR  tmr_cur;
 466:..\..\..\..\..\..\Software\uC-CPU/cpu_core.c ****     CPU_TS_TMR  tmr_delta;
 467:..\..\..\..\..\..\Software\uC-CPU/cpu_core.c ****     CPU_SR_ALLOC();
 468:..\..\..\..\..\..\Software\uC-CPU/cpu_core.c **** #endif
 469:..\..\..\..\..\..\Software\uC-CPU/cpu_core.c **** 
 470:..\..\..\..\..\..\Software\uC-CPU/cpu_core.c **** 
 471:..\..\..\..\..\..\Software\uC-CPU/cpu_core.c **** #if (CPU_CFG_TS_TMR_SIZE >= CPU_WORD_SIZE_32)
 472:..\..\..\..\..\..\Software\uC-CPU/cpu_core.c ****     ts = (CPU_TS32)CPU_TS_TmrRd();                                  /* Get cur ts tmr val (in 32-bi
 593              		.loc 1 472 0
 594 0006 FFF7FEFF 		bl	CPU_TS_TmrRd
 595 000a 0300     		movs	r3, r0
 596 000c 7B60     		str	r3, [r7, #4]
 473:..\..\..\..\..\..\Software\uC-CPU/cpu_core.c **** 
 474:..\..\..\..\..\..\Software\uC-CPU/cpu_core.c **** #else
 475:..\..\..\..\..\..\Software\uC-CPU/cpu_core.c ****     CPU_INT_DIS();
 476:..\..\..\..\..\..\Software\uC-CPU/cpu_core.c ****     tmr_cur            = (CPU_TS_TMR) CPU_TS_TmrRd();               /* Get cur ts tmr val (in ts tm
 477:..\..\..\..\..\..\Software\uC-CPU/cpu_core.c ****     tmr_delta          = (CPU_TS_TMR)(tmr_cur - CPU_TS_32_TmrPrev); /* Calc      delta ts tmr cnts.
 478:..\..\..\..\..\..\Software\uC-CPU/cpu_core.c ****     CPU_TS_32_Accum   += (CPU_TS32  ) tmr_delta;                    /* Inc ts by delta ts tmr cnts 
 479:..\..\..\..\..\..\Software\uC-CPU/cpu_core.c ****     CPU_TS_32_TmrPrev  = (CPU_TS_TMR) tmr_cur;                      /* Save cur ts tmr cnts for nex
 480:..\..\..\..\..\..\Software\uC-CPU/cpu_core.c ****     ts                 = (CPU_TS32  ) CPU_TS_32_Accum;
 481:..\..\..\..\..\..\Software\uC-CPU/cpu_core.c ****     CPU_INT_EN();
 482:..\..\..\..\..\..\Software\uC-CPU/cpu_core.c **** #endif
 483:..\..\..\..\..\..\Software\uC-CPU/cpu_core.c **** 
 484:..\..\..\..\..\..\Software\uC-CPU/cpu_core.c ****     return (ts);
 597              		.loc 1 484 0
 598 000e 7B68     		ldr	r3, [r7, #4]
 485:..\..\..\..\..\..\Software\uC-CPU/cpu_core.c **** }
ARM GAS  C:\Users\ADMINI~1\AppData\Local\Temp\ccaBZmtr.s 			page 20


 599              		.loc 1 485 0
 600 0010 1800     		movs	r0, r3
 601 0012 BD46     		mov	sp, r7
 602 0014 02B0     		add	sp, sp, #8
 603              		@ sp needed
 604 0016 80BD     		pop	{r7, pc}
 605              		.cfi_endproc
 606              	.LFE5:
 607              		.size	CPU_TS_Get32, .-CPU_TS_Get32
 608              		.section	.text.CPU_TS_Update,"ax",%progbits
 609              		.align	2
 610              		.global	CPU_TS_Update
 611              		.code	16
 612              		.thumb_func
 613              		.type	CPU_TS_Update, %function
 614              	CPU_TS_Update:
 615              	.LFB6:
 486:..\..\..\..\..\..\Software\uC-CPU/cpu_core.c **** #endif
 487:..\..\..\..\..\..\Software\uC-CPU/cpu_core.c **** 
 488:..\..\..\..\..\..\Software\uC-CPU/cpu_core.c **** 
 489:..\..\..\..\..\..\Software\uC-CPU/cpu_core.c **** /*
 490:..\..\..\..\..\..\Software\uC-CPU/cpu_core.c **** ***************************************************************************************************
 491:..\..\..\..\..\..\Software\uC-CPU/cpu_core.c **** *                                           CPU_TS_Get64()
 492:..\..\..\..\..\..\Software\uC-CPU/cpu_core.c **** *
 493:..\..\..\..\..\..\Software\uC-CPU/cpu_core.c **** * Description : Get current 64-bit CPU timestamp.
 494:..\..\..\..\..\..\Software\uC-CPU/cpu_core.c **** *
 495:..\..\..\..\..\..\Software\uC-CPU/cpu_core.c **** * Argument(s) : none.
 496:..\..\..\..\..\..\Software\uC-CPU/cpu_core.c **** *
 497:..\..\..\..\..\..\Software\uC-CPU/cpu_core.c **** * Return(s)   : Current 64-bit CPU timestamp (in timestamp timer counts).
 498:..\..\..\..\..\..\Software\uC-CPU/cpu_core.c **** *
 499:..\..\..\..\..\..\Software\uC-CPU/cpu_core.c **** * Caller(s)   : Application.
 500:..\..\..\..\..\..\Software\uC-CPU/cpu_core.c **** *
 501:..\..\..\..\..\..\Software\uC-CPU/cpu_core.c **** *               This function is a CPU module application programming interface (API) function & MA
 502:..\..\..\..\..\..\Software\uC-CPU/cpu_core.c **** *               be called by application function(s).
 503:..\..\..\..\..\..\Software\uC-CPU/cpu_core.c **** *
 504:..\..\..\..\..\..\Software\uC-CPU/cpu_core.c **** * Note(s)     : (1) When applicable, the amount of time measured by CPU timestamps is calculated by
 505:..\..\..\..\..\..\Software\uC-CPU/cpu_core.c **** *                   either of the following equations :
 506:..\..\..\..\..\..\Software\uC-CPU/cpu_core.c **** *
 507:..\..\..\..\..\..\Software\uC-CPU/cpu_core.c **** *                       (a) Time measured  =  Number timer counts  *  Timer period
 508:..\..\..\..\..\..\Software\uC-CPU/cpu_core.c **** *
 509:..\..\..\..\..\..\Software\uC-CPU/cpu_core.c **** *                               where
 510:..\..\..\..\..\..\Software\uC-CPU/cpu_core.c **** *
 511:..\..\..\..\..\..\Software\uC-CPU/cpu_core.c **** *                                   Number timer counts     Number of timer counts measured
 512:..\..\..\..\..\..\Software\uC-CPU/cpu_core.c **** *                                   Timer period            Timer's period in some units of
 513:..\..\..\..\..\..\Software\uC-CPU/cpu_core.c **** *                                                               (fractional) seconds
 514:..\..\..\..\..\..\Software\uC-CPU/cpu_core.c **** *                                   Time measured           Amount of time measured, in same
 515:..\..\..\..\..\..\Software\uC-CPU/cpu_core.c **** *                                                               units of (fractional) seconds
 516:..\..\..\..\..\..\Software\uC-CPU/cpu_core.c **** *                                                               as the Timer period
 517:..\..\..\..\..\..\Software\uC-CPU/cpu_core.c **** *
 518:..\..\..\..\..\..\Software\uC-CPU/cpu_core.c **** *                                              Number timer counts
 519:..\..\..\..\..\..\Software\uC-CPU/cpu_core.c **** *                       (b) Time measured  =  ---------------------
 520:..\..\..\..\..\..\Software\uC-CPU/cpu_core.c **** *                                                Timer frequency
 521:..\..\..\..\..\..\Software\uC-CPU/cpu_core.c **** *
 522:..\..\..\..\..\..\Software\uC-CPU/cpu_core.c **** *                               where
 523:..\..\..\..\..\..\Software\uC-CPU/cpu_core.c **** *
 524:..\..\..\..\..\..\Software\uC-CPU/cpu_core.c **** *                                   Number timer counts     Number of timer counts measured
 525:..\..\..\..\..\..\Software\uC-CPU/cpu_core.c **** *                                   Timer frequency         Timer's frequency in some units
ARM GAS  C:\Users\ADMINI~1\AppData\Local\Temp\ccaBZmtr.s 			page 21


 526:..\..\..\..\..\..\Software\uC-CPU/cpu_core.c **** *                                                               of counts per second
 527:..\..\..\..\..\..\Software\uC-CPU/cpu_core.c **** *                                   Time measured           Amount of time measured, in seconds
 528:..\..\..\..\..\..\Software\uC-CPU/cpu_core.c **** *
 529:..\..\..\..\..\..\Software\uC-CPU/cpu_core.c **** *                   See also 'cpu_core.h  FUNCTION PROTOTYPES  CPU_TS_TmrRd()  Note #2c1'.
 530:..\..\..\..\..\..\Software\uC-CPU/cpu_core.c **** *
 531:..\..\..\..\..\..\Software\uC-CPU/cpu_core.c **** *               (2) In case the CPU timestamp timer has lower precision than the 64-bit CPU timesta
 532:..\..\..\..\..\..\Software\uC-CPU/cpu_core.c **** *                   its precision is extended via periodic updates by accumulating the deltas of th
 533:..\..\..\..\..\..\Software\uC-CPU/cpu_core.c **** *                   timestamp timer count values into the higher-precision 64-bit CPU timestamp.
 534:..\..\..\..\..\..\Software\uC-CPU/cpu_core.c **** *
 535:..\..\..\..\..\..\Software\uC-CPU/cpu_core.c **** *               (3) After initialization, 'CPU_TS_64_Accum' & 'CPU_TS_64_TmrPrev' MUST ALWAYS
 536:..\..\..\..\..\..\Software\uC-CPU/cpu_core.c **** *                   be accessed AND updated exclusively with interrupts disabled -- but NOT
 537:..\..\..\..\..\..\Software\uC-CPU/cpu_core.c **** *                   with critical sections.
 538:..\..\..\..\..\..\Software\uC-CPU/cpu_core.c **** ***************************************************************************************************
 539:..\..\..\..\..\..\Software\uC-CPU/cpu_core.c **** */
 540:..\..\..\..\..\..\Software\uC-CPU/cpu_core.c **** 
 541:..\..\..\..\..\..\Software\uC-CPU/cpu_core.c **** #if (CPU_CFG_TS_64_EN == DEF_ENABLED)
 542:..\..\..\..\..\..\Software\uC-CPU/cpu_core.c **** CPU_TS64  CPU_TS_Get64 (void)
 543:..\..\..\..\..\..\Software\uC-CPU/cpu_core.c **** {
 544:..\..\..\..\..\..\Software\uC-CPU/cpu_core.c ****     CPU_TS64    ts;
 545:..\..\..\..\..\..\Software\uC-CPU/cpu_core.c **** #if (CPU_CFG_TS_TMR_SIZE <  CPU_WORD_SIZE_64)
 546:..\..\..\..\..\..\Software\uC-CPU/cpu_core.c ****     CPU_TS_TMR  tmr_cur;
 547:..\..\..\..\..\..\Software\uC-CPU/cpu_core.c ****     CPU_TS_TMR  tmr_delta;
 548:..\..\..\..\..\..\Software\uC-CPU/cpu_core.c ****     CPU_SR_ALLOC();
 549:..\..\..\..\..\..\Software\uC-CPU/cpu_core.c **** #endif
 550:..\..\..\..\..\..\Software\uC-CPU/cpu_core.c **** 
 551:..\..\..\..\..\..\Software\uC-CPU/cpu_core.c **** 
 552:..\..\..\..\..\..\Software\uC-CPU/cpu_core.c **** #if (CPU_CFG_TS_TMR_SIZE >= CPU_WORD_SIZE_64)
 553:..\..\..\..\..\..\Software\uC-CPU/cpu_core.c ****     ts = (CPU_TS64)CPU_TS_TmrRd();                                  /* Get cur ts tmr val (in 64-bi
 554:..\..\..\..\..\..\Software\uC-CPU/cpu_core.c **** 
 555:..\..\..\..\..\..\Software\uC-CPU/cpu_core.c **** #else
 556:..\..\..\..\..\..\Software\uC-CPU/cpu_core.c ****     CPU_INT_DIS();
 557:..\..\..\..\..\..\Software\uC-CPU/cpu_core.c ****     tmr_cur            = (CPU_TS_TMR) CPU_TS_TmrRd();               /* Get cur ts tmr val (in ts tm
 558:..\..\..\..\..\..\Software\uC-CPU/cpu_core.c ****     tmr_delta          = (CPU_TS_TMR)(tmr_cur - CPU_TS_64_TmrPrev); /* Calc      delta ts tmr cnts.
 559:..\..\..\..\..\..\Software\uC-CPU/cpu_core.c ****     CPU_TS_64_Accum   += (CPU_TS64  ) tmr_delta;                    /* Inc ts by delta ts tmr cnts 
 560:..\..\..\..\..\..\Software\uC-CPU/cpu_core.c ****     CPU_TS_64_TmrPrev  = (CPU_TS_TMR) tmr_cur;                      /* Save cur ts tmr cnts for nex
 561:..\..\..\..\..\..\Software\uC-CPU/cpu_core.c ****     ts                 = (CPU_TS64  ) CPU_TS_64_Accum;
 562:..\..\..\..\..\..\Software\uC-CPU/cpu_core.c ****     CPU_INT_EN();
 563:..\..\..\..\..\..\Software\uC-CPU/cpu_core.c **** #endif
 564:..\..\..\..\..\..\Software\uC-CPU/cpu_core.c **** 
 565:..\..\..\..\..\..\Software\uC-CPU/cpu_core.c ****     return (ts);
 566:..\..\..\..\..\..\Software\uC-CPU/cpu_core.c **** }
 567:..\..\..\..\..\..\Software\uC-CPU/cpu_core.c **** #endif
 568:..\..\..\..\..\..\Software\uC-CPU/cpu_core.c **** 
 569:..\..\..\..\..\..\Software\uC-CPU/cpu_core.c **** 
 570:..\..\..\..\..\..\Software\uC-CPU/cpu_core.c **** /*
 571:..\..\..\..\..\..\Software\uC-CPU/cpu_core.c **** ***************************************************************************************************
 572:..\..\..\..\..\..\Software\uC-CPU/cpu_core.c **** *                                           CPU_TS_Update()
 573:..\..\..\..\..\..\Software\uC-CPU/cpu_core.c **** *
 574:..\..\..\..\..\..\Software\uC-CPU/cpu_core.c **** * Description : Update current CPU timestamp(s).
 575:..\..\..\..\..\..\Software\uC-CPU/cpu_core.c **** *
 576:..\..\..\..\..\..\Software\uC-CPU/cpu_core.c **** * Argument(s) : none.
 577:..\..\..\..\..\..\Software\uC-CPU/cpu_core.c **** *
 578:..\..\..\..\..\..\Software\uC-CPU/cpu_core.c **** * Return(s)   : none.
 579:..\..\..\..\..\..\Software\uC-CPU/cpu_core.c **** *
 580:..\..\..\..\..\..\Software\uC-CPU/cpu_core.c **** * Caller(s)   : Application/BSP periodic time handler (see Note #1).
 581:..\..\..\..\..\..\Software\uC-CPU/cpu_core.c **** *
 582:..\..\..\..\..\..\Software\uC-CPU/cpu_core.c **** *               This function is a CPU timestamp BSP function & SHOULD be called only by appropriat
ARM GAS  C:\Users\ADMINI~1\AppData\Local\Temp\ccaBZmtr.s 			page 22


 583:..\..\..\..\..\..\Software\uC-CPU/cpu_core.c **** *               application/BSP function(s).
 584:..\..\..\..\..\..\Software\uC-CPU/cpu_core.c **** *
 585:..\..\..\..\..\..\Software\uC-CPU/cpu_core.c **** * Note(s)     : (1) (a) CPU timestamp(s) MUST be updated periodically by some application (or BSP) 
 586:..\..\..\..\..\..\Software\uC-CPU/cpu_core.c **** *                       handler in order to (adequately) maintain CPU timestamp(s)' time.
 587:..\..\..\..\..\..\Software\uC-CPU/cpu_core.c **** *
 588:..\..\..\..\..\..\Software\uC-CPU/cpu_core.c **** *                   (b) CPU timestamp(s) MUST be updated more frequently than the CPU timestamp tim
 589:..\..\..\..\..\..\Software\uC-CPU/cpu_core.c **** *                       overflows; otherwise, CPU timestamp(s) will lose time.
 590:..\..\..\..\..\..\Software\uC-CPU/cpu_core.c **** *
 591:..\..\..\..\..\..\Software\uC-CPU/cpu_core.c **** *                       See also 'cpu_core.h  FUNCTION PROTOTYPES  CPU_TS_TmrRd()  Note #2c2'.
 592:..\..\..\..\..\..\Software\uC-CPU/cpu_core.c **** ***************************************************************************************************
 593:..\..\..\..\..\..\Software\uC-CPU/cpu_core.c **** */
 594:..\..\..\..\..\..\Software\uC-CPU/cpu_core.c **** 
 595:..\..\..\..\..\..\Software\uC-CPU/cpu_core.c **** #if (CPU_CFG_TS_EN == DEF_ENABLED)
 596:..\..\..\..\..\..\Software\uC-CPU/cpu_core.c **** void  CPU_TS_Update (void)
 597:..\..\..\..\..\..\Software\uC-CPU/cpu_core.c **** {
 616              		.loc 1 597 0
 617              		.cfi_startproc
 618              		@ args = 0, pretend = 0, frame = 0
 619              		@ frame_needed = 1, uses_anonymous_args = 0
 620 0000 80B5     		push	{r7, lr}
 621              		.cfi_def_cfa_offset 8
 622              		.cfi_offset 7, -8
 623              		.cfi_offset 14, -4
 624 0002 00AF     		add	r7, sp, #0
 625              		.cfi_def_cfa_register 7
 598:..\..\..\..\..\..\Software\uC-CPU/cpu_core.c **** #if ((CPU_CFG_TS_32_EN    == DEF_ENABLED)  && \
 599:..\..\..\..\..\..\Software\uC-CPU/cpu_core.c ****      (CPU_CFG_TS_TMR_SIZE <  CPU_WORD_SIZE_32))
 600:..\..\..\..\..\..\Software\uC-CPU/cpu_core.c ****    (void)CPU_TS_Get32();
 601:..\..\..\..\..\..\Software\uC-CPU/cpu_core.c **** #endif
 602:..\..\..\..\..\..\Software\uC-CPU/cpu_core.c **** 
 603:..\..\..\..\..\..\Software\uC-CPU/cpu_core.c **** #if ((CPU_CFG_TS_64_EN    == DEF_ENABLED)  && \
 604:..\..\..\..\..\..\Software\uC-CPU/cpu_core.c ****      (CPU_CFG_TS_TMR_SIZE <  CPU_WORD_SIZE_64))
 605:..\..\..\..\..\..\Software\uC-CPU/cpu_core.c ****    (void)CPU_TS_Get64();
 606:..\..\..\..\..\..\Software\uC-CPU/cpu_core.c **** #endif
 607:..\..\..\..\..\..\Software\uC-CPU/cpu_core.c **** }
 626              		.loc 1 607 0
 627 0004 C046     		nop
 628 0006 BD46     		mov	sp, r7
 629              		@ sp needed
 630 0008 80BD     		pop	{r7, pc}
 631              		.cfi_endproc
 632              	.LFE6:
 633              		.size	CPU_TS_Update, .-CPU_TS_Update
 634              		.section	.text.CPU_TS_TmrFreqGet,"ax",%progbits
 635              		.align	2
 636              		.global	CPU_TS_TmrFreqGet
 637              		.code	16
 638              		.thumb_func
 639              		.type	CPU_TS_TmrFreqGet, %function
 640              	CPU_TS_TmrFreqGet:
 641              	.LFB7:
 608:..\..\..\..\..\..\Software\uC-CPU/cpu_core.c **** #endif
 609:..\..\..\..\..\..\Software\uC-CPU/cpu_core.c **** 
 610:..\..\..\..\..\..\Software\uC-CPU/cpu_core.c **** 
 611:..\..\..\..\..\..\Software\uC-CPU/cpu_core.c **** /*
 612:..\..\..\..\..\..\Software\uC-CPU/cpu_core.c **** ***************************************************************************************************
 613:..\..\..\..\..\..\Software\uC-CPU/cpu_core.c **** *                                         CPU_TS_TmrFreqGet()
ARM GAS  C:\Users\ADMINI~1\AppData\Local\Temp\ccaBZmtr.s 			page 23


 614:..\..\..\..\..\..\Software\uC-CPU/cpu_core.c **** *
 615:..\..\..\..\..\..\Software\uC-CPU/cpu_core.c **** * Description : Get CPU timestamp's timer frequency.
 616:..\..\..\..\..\..\Software\uC-CPU/cpu_core.c **** *
 617:..\..\..\..\..\..\Software\uC-CPU/cpu_core.c **** * Argument(s) : p_err       Pointer to variable that will receive the return error code from this f
 618:..\..\..\..\..\..\Software\uC-CPU/cpu_core.c **** *
 619:..\..\..\..\..\..\Software\uC-CPU/cpu_core.c **** *                               CPU_ERR_NONE                    CPU timestamp's timer frequency suc
 620:..\..\..\..\..\..\Software\uC-CPU/cpu_core.c **** *                                                                   returned.
 621:..\..\..\..\..\..\Software\uC-CPU/cpu_core.c **** *                               CPU_ERR_TS_FREQ_INVALID         CPU timestamp's timer frequency inv
 622:..\..\..\..\..\..\Software\uC-CPU/cpu_core.c **** *                                                                   NOT yet configured.
 623:..\..\..\..\..\..\Software\uC-CPU/cpu_core.c **** *
 624:..\..\..\..\..\..\Software\uC-CPU/cpu_core.c **** * Return(s)   : CPU timestamp's timer frequency (in Hertz), if NO error(s).
 625:..\..\..\..\..\..\Software\uC-CPU/cpu_core.c **** *
 626:..\..\..\..\..\..\Software\uC-CPU/cpu_core.c **** *               0,                                          otherwise.
 627:..\..\..\..\..\..\Software\uC-CPU/cpu_core.c **** *
 628:..\..\..\..\..\..\Software\uC-CPU/cpu_core.c **** * Caller(s)   : Application.
 629:..\..\..\..\..\..\Software\uC-CPU/cpu_core.c **** *
 630:..\..\..\..\..\..\Software\uC-CPU/cpu_core.c **** *               This function is a CPU module application programming interface (API) function & MA
 631:..\..\..\..\..\..\Software\uC-CPU/cpu_core.c **** *               called by application function(s).
 632:..\..\..\..\..\..\Software\uC-CPU/cpu_core.c **** *
 633:..\..\..\..\..\..\Software\uC-CPU/cpu_core.c **** * Note(s)     : none.
 634:..\..\..\..\..\..\Software\uC-CPU/cpu_core.c **** ***************************************************************************************************
 635:..\..\..\..\..\..\Software\uC-CPU/cpu_core.c **** */
 636:..\..\..\..\..\..\Software\uC-CPU/cpu_core.c **** 
 637:..\..\..\..\..\..\Software\uC-CPU/cpu_core.c **** #if (CPU_CFG_TS_TMR_EN == DEF_ENABLED)
 638:..\..\..\..\..\..\Software\uC-CPU/cpu_core.c **** CPU_TS_TMR_FREQ  CPU_TS_TmrFreqGet (CPU_ERR  *p_err)
 639:..\..\..\..\..\..\Software\uC-CPU/cpu_core.c **** {
 642              		.loc 1 639 0
 643              		.cfi_startproc
 644              		@ args = 0, pretend = 0, frame = 16
 645              		@ frame_needed = 1, uses_anonymous_args = 0
 646 0000 80B5     		push	{r7, lr}
 647              		.cfi_def_cfa_offset 8
 648              		.cfi_offset 7, -8
 649              		.cfi_offset 14, -4
 650 0002 84B0     		sub	sp, sp, #16
 651              		.cfi_def_cfa_offset 24
 652 0004 00AF     		add	r7, sp, #0
 653              		.cfi_def_cfa_register 7
 654 0006 7860     		str	r0, [r7, #4]
 640:..\..\..\..\..\..\Software\uC-CPU/cpu_core.c ****     CPU_TS_TMR_FREQ  freq_hz;
 641:..\..\..\..\..\..\Software\uC-CPU/cpu_core.c **** 
 642:..\..\..\..\..\..\Software\uC-CPU/cpu_core.c **** 
 643:..\..\..\..\..\..\Software\uC-CPU/cpu_core.c ****     if (p_err == (CPU_ERR *)0) {
 655              		.loc 1 643 0
 656 0008 7B68     		ldr	r3, [r7, #4]
 657 000a 002B     		cmp	r3, #0
 658 000c 01D1     		bne	.L24
 644:..\..\..\..\..\..\Software\uC-CPU/cpu_core.c ****         CPU_SW_EXCEPTION(;);
 659              		.loc 1 644 0
 660 000e FFF7FEFF 		bl	CPU_SW_Exception
 661              	.L24:
 645:..\..\..\..\..\..\Software\uC-CPU/cpu_core.c ****     }
 646:..\..\..\..\..\..\Software\uC-CPU/cpu_core.c **** 
 647:..\..\..\..\..\..\Software\uC-CPU/cpu_core.c ****     freq_hz =  CPU_TS_TmrFreq_Hz;
 662              		.loc 1 647 0
 663 0012 084B     		ldr	r3, .L28
 664 0014 1B68     		ldr	r3, [r3]
ARM GAS  C:\Users\ADMINI~1\AppData\Local\Temp\ccaBZmtr.s 			page 24


 665 0016 FB60     		str	r3, [r7, #12]
 648:..\..\..\..\..\..\Software\uC-CPU/cpu_core.c ****    *p_err   = (freq_hz != 0u) ? CPU_ERR_NONE : CPU_ERR_TS_FREQ_INVALID;
 666              		.loc 1 648 0
 667 0018 FB68     		ldr	r3, [r7, #12]
 668 001a 002B     		cmp	r3, #0
 669 001c 01D0     		beq	.L25
 670              		.loc 1 648 0 is_stmt 0 discriminator 1
 671 001e 0022     		movs	r2, #0
 672 0020 01E0     		b	.L26
 673              	.L25:
 674              		.loc 1 648 0 discriminator 2
 675 0022 FA23     		movs	r3, #250
 676 0024 DA00     		lsls	r2, r3, #3
 677              	.L26:
 678              		.loc 1 648 0 discriminator 4
 679 0026 7B68     		ldr	r3, [r7, #4]
 680 0028 1A80     		strh	r2, [r3]
 649:..\..\..\..\..\..\Software\uC-CPU/cpu_core.c **** 
 650:..\..\..\..\..\..\Software\uC-CPU/cpu_core.c ****     return (freq_hz);
 681              		.loc 1 650 0 is_stmt 1 discriminator 4
 682 002a FB68     		ldr	r3, [r7, #12]
 651:..\..\..\..\..\..\Software\uC-CPU/cpu_core.c **** }
 683              		.loc 1 651 0 discriminator 4
 684 002c 1800     		movs	r0, r3
 685 002e BD46     		mov	sp, r7
 686 0030 04B0     		add	sp, sp, #16
 687              		@ sp needed
 688 0032 80BD     		pop	{r7, pc}
 689              	.L29:
 690              		.align	2
 691              	.L28:
 692 0034 00000000 		.word	CPU_TS_TmrFreq_Hz
 693              		.cfi_endproc
 694              	.LFE7:
 695              		.size	CPU_TS_TmrFreqGet, .-CPU_TS_TmrFreqGet
 696              		.section	.text.CPU_TS_TmrFreqSet,"ax",%progbits
 697              		.align	2
 698              		.global	CPU_TS_TmrFreqSet
 699              		.code	16
 700              		.thumb_func
 701              		.type	CPU_TS_TmrFreqSet, %function
 702              	CPU_TS_TmrFreqSet:
 703              	.LFB8:
 652:..\..\..\..\..\..\Software\uC-CPU/cpu_core.c **** #endif
 653:..\..\..\..\..\..\Software\uC-CPU/cpu_core.c **** 
 654:..\..\..\..\..\..\Software\uC-CPU/cpu_core.c **** 
 655:..\..\..\..\..\..\Software\uC-CPU/cpu_core.c **** /*
 656:..\..\..\..\..\..\Software\uC-CPU/cpu_core.c **** ***************************************************************************************************
 657:..\..\..\..\..\..\Software\uC-CPU/cpu_core.c **** *                                         CPU_TS_TmrFreqSet()
 658:..\..\..\..\..\..\Software\uC-CPU/cpu_core.c **** *
 659:..\..\..\..\..\..\Software\uC-CPU/cpu_core.c **** * Description : Set CPU timestamp's timer frequency.
 660:..\..\..\..\..\..\Software\uC-CPU/cpu_core.c **** *
 661:..\..\..\..\..\..\Software\uC-CPU/cpu_core.c **** * Argument(s) : freq_hz     Frequency (in Hertz) to set for CPU timestamp's timer.
 662:..\..\..\..\..\..\Software\uC-CPU/cpu_core.c **** *
 663:..\..\..\..\..\..\Software\uC-CPU/cpu_core.c **** * Return(s)   : none.
 664:..\..\..\..\..\..\Software\uC-CPU/cpu_core.c **** *
 665:..\..\..\..\..\..\Software\uC-CPU/cpu_core.c **** * Caller(s)   : CPU_TS_TmrInit(),
ARM GAS  C:\Users\ADMINI~1\AppData\Local\Temp\ccaBZmtr.s 			page 25


 666:..\..\..\..\..\..\Software\uC-CPU/cpu_core.c **** *               Application/BSP initialization function(s).
 667:..\..\..\..\..\..\Software\uC-CPU/cpu_core.c **** *
 668:..\..\..\..\..\..\Software\uC-CPU/cpu_core.c **** *               This function is a CPU module BSP function & SHOULD be called only by appropriate
 669:..\..\..\..\..\..\Software\uC-CPU/cpu_core.c **** *               application/BSP function(s) [see Note #1].
 670:..\..\..\..\..\..\Software\uC-CPU/cpu_core.c **** *
 671:..\..\..\..\..\..\Software\uC-CPU/cpu_core.c **** * Note(s)     : (1) (a) (1) CPU timestamp timer frequency is NOT required for internal CPU timestam
 672:..\..\..\..\..\..\Software\uC-CPU/cpu_core.c **** *                           operations but may OPTIONALLY be configured by CPU_TS_TmrInit() or othe
 673:..\..\..\..\..\..\Software\uC-CPU/cpu_core.c **** *                           application/BSP initialization functions.
 674:..\..\..\..\..\..\Software\uC-CPU/cpu_core.c **** *
 675:..\..\..\..\..\..\Software\uC-CPU/cpu_core.c **** *                       (2) CPU timestamp timer frequency MAY be used with optional CPU_TSxx_to_uSe
 676:..\..\..\..\..\..\Software\uC-CPU/cpu_core.c **** *                           to convert CPU timestamps from timer counts into microseconds.
 677:..\..\..\..\..\..\Software\uC-CPU/cpu_core.c **** *
 678:..\..\..\..\..\..\Software\uC-CPU/cpu_core.c **** *                           See also 'cpu_core.h  FUNCTION PROTOTYPES  CPU_TSxx_to_uSec()  Note #2a
 679:..\..\..\..\..\..\Software\uC-CPU/cpu_core.c **** *
 680:..\..\..\..\..\..\Software\uC-CPU/cpu_core.c **** *                   (b) CPU timestamp timer period SHOULD be less than the typical measured time bu
 681:..\..\..\..\..\..\Software\uC-CPU/cpu_core.c **** *                       be less than the maximum measured time; otherwise, timer resolution inadequ
 682:..\..\..\..\..\..\Software\uC-CPU/cpu_core.c **** *                       measure desired times.
 683:..\..\..\..\..\..\Software\uC-CPU/cpu_core.c **** *
 684:..\..\..\..\..\..\Software\uC-CPU/cpu_core.c **** *                       See also 'cpu_core.h  FUNCTION PROTOTYPES  CPU_TSxx_to_uSec()  Note #2b'.
 685:..\..\..\..\..\..\Software\uC-CPU/cpu_core.c **** ***************************************************************************************************
 686:..\..\..\..\..\..\Software\uC-CPU/cpu_core.c **** */
 687:..\..\..\..\..\..\Software\uC-CPU/cpu_core.c **** 
 688:..\..\..\..\..\..\Software\uC-CPU/cpu_core.c **** #if (CPU_CFG_TS_TMR_EN == DEF_ENABLED)
 689:..\..\..\..\..\..\Software\uC-CPU/cpu_core.c **** void  CPU_TS_TmrFreqSet (CPU_TS_TMR_FREQ  freq_hz)
 690:..\..\..\..\..\..\Software\uC-CPU/cpu_core.c **** {
 704              		.loc 1 690 0
 705              		.cfi_startproc
 706              		@ args = 0, pretend = 0, frame = 8
 707              		@ frame_needed = 1, uses_anonymous_args = 0
 708 0000 80B5     		push	{r7, lr}
 709              		.cfi_def_cfa_offset 8
 710              		.cfi_offset 7, -8
 711              		.cfi_offset 14, -4
 712 0002 82B0     		sub	sp, sp, #8
 713              		.cfi_def_cfa_offset 16
 714 0004 00AF     		add	r7, sp, #0
 715              		.cfi_def_cfa_register 7
 716 0006 7860     		str	r0, [r7, #4]
 691:..\..\..\..\..\..\Software\uC-CPU/cpu_core.c ****     CPU_TS_TmrFreq_Hz = freq_hz;
 717              		.loc 1 691 0
 718 0008 034B     		ldr	r3, .L31
 719 000a 7A68     		ldr	r2, [r7, #4]
 720 000c 1A60     		str	r2, [r3]
 692:..\..\..\..\..\..\Software\uC-CPU/cpu_core.c **** }
 721              		.loc 1 692 0
 722 000e C046     		nop
 723 0010 BD46     		mov	sp, r7
 724 0012 02B0     		add	sp, sp, #8
 725              		@ sp needed
 726 0014 80BD     		pop	{r7, pc}
 727              	.L32:
 728 0016 C046     		.align	2
 729              	.L31:
 730 0018 00000000 		.word	CPU_TS_TmrFreq_Hz
 731              		.cfi_endproc
 732              	.LFE8:
 733              		.size	CPU_TS_TmrFreqSet, .-CPU_TS_TmrFreqSet
ARM GAS  C:\Users\ADMINI~1\AppData\Local\Temp\ccaBZmtr.s 			page 26


 734              		.section	.text.CPU_IntDisMeasMaxCurReset,"ax",%progbits
 735              		.align	2
 736              		.global	CPU_IntDisMeasMaxCurReset
 737              		.code	16
 738              		.thumb_func
 739              		.type	CPU_IntDisMeasMaxCurReset, %function
 740              	CPU_IntDisMeasMaxCurReset:
 741              	.LFB9:
 693:..\..\..\..\..\..\Software\uC-CPU/cpu_core.c **** #endif
 694:..\..\..\..\..\..\Software\uC-CPU/cpu_core.c **** 
 695:..\..\..\..\..\..\Software\uC-CPU/cpu_core.c **** 
 696:..\..\..\..\..\..\Software\uC-CPU/cpu_core.c **** /*
 697:..\..\..\..\..\..\Software\uC-CPU/cpu_core.c **** ***************************************************************************************************
 698:..\..\..\..\..\..\Software\uC-CPU/cpu_core.c **** *                                     CPU_IntDisMeasMaxCurReset()
 699:..\..\..\..\..\..\Software\uC-CPU/cpu_core.c **** *
 700:..\..\..\..\..\..\Software\uC-CPU/cpu_core.c **** * Description : Reset current maximum interrupts disabled time.
 701:..\..\..\..\..\..\Software\uC-CPU/cpu_core.c **** *
 702:..\..\..\..\..\..\Software\uC-CPU/cpu_core.c **** * Argument(s) : none.
 703:..\..\..\..\..\..\Software\uC-CPU/cpu_core.c **** *
 704:..\..\..\..\..\..\Software\uC-CPU/cpu_core.c **** * Return(s)   : Maximum interrupts disabled time (in CPU timestamp timer counts) before resetting.
 705:..\..\..\..\..\..\Software\uC-CPU/cpu_core.c **** *
 706:..\..\..\..\..\..\Software\uC-CPU/cpu_core.c **** *               See also 'cpu_core.h  FUNCTION PROTOTYPES  CPU_TS_TmrRd()      Note #2c'
 707:..\..\..\..\..\..\Software\uC-CPU/cpu_core.c **** *                      & 'cpu_core.h  FUNCTION PROTOTYPES  CPU_TSxx_to_uSec()  Note #2'.
 708:..\..\..\..\..\..\Software\uC-CPU/cpu_core.c **** *
 709:..\..\..\..\..\..\Software\uC-CPU/cpu_core.c **** * Caller(s)   : Application.
 710:..\..\..\..\..\..\Software\uC-CPU/cpu_core.c **** *
 711:..\..\..\..\..\..\Software\uC-CPU/cpu_core.c **** *               This function is a CPU module application programming interface (API) function 
 712:..\..\..\..\..\..\Software\uC-CPU/cpu_core.c **** *               & MAY be called by application function(s).
 713:..\..\..\..\..\..\Software\uC-CPU/cpu_core.c **** *
 714:..\..\..\..\..\..\Software\uC-CPU/cpu_core.c **** * Note(s)     : (1) After initialization, 'CPU_IntDisMeasMaxCur_cnts' MUST ALWAYS be accessed
 715:..\..\..\..\..\..\Software\uC-CPU/cpu_core.c **** *                   exclusively with interrupts disabled -- but NOT with critical sections.
 716:..\..\..\..\..\..\Software\uC-CPU/cpu_core.c **** ***************************************************************************************************
 717:..\..\..\..\..\..\Software\uC-CPU/cpu_core.c **** */
 718:..\..\..\..\..\..\Software\uC-CPU/cpu_core.c **** 
 719:..\..\..\..\..\..\Software\uC-CPU/cpu_core.c **** #ifdef  CPU_CFG_INT_DIS_MEAS_EN
 720:..\..\..\..\..\..\Software\uC-CPU/cpu_core.c **** CPU_TS_TMR  CPU_IntDisMeasMaxCurReset (void)
 721:..\..\..\..\..\..\Software\uC-CPU/cpu_core.c **** {
 742              		.loc 1 721 0
 743              		.cfi_startproc
 744              		@ args = 0, pretend = 0, frame = 8
 745              		@ frame_needed = 1, uses_anonymous_args = 0
 746 0000 80B5     		push	{r7, lr}
 747              		.cfi_def_cfa_offset 8
 748              		.cfi_offset 7, -8
 749              		.cfi_offset 14, -4
 750 0002 82B0     		sub	sp, sp, #8
 751              		.cfi_def_cfa_offset 16
 752 0004 00AF     		add	r7, sp, #0
 753              		.cfi_def_cfa_register 7
 722:..\..\..\..\..\..\Software\uC-CPU/cpu_core.c ****     CPU_TS_TMR  time_max_cnts;
 723:..\..\..\..\..\..\Software\uC-CPU/cpu_core.c ****     CPU_SR_ALLOC();
 754              		.loc 1 723 0
 755 0006 0023     		movs	r3, #0
 756 0008 7B60     		str	r3, [r7, #4]
 724:..\..\..\..\..\..\Software\uC-CPU/cpu_core.c **** 
 725:..\..\..\..\..\..\Software\uC-CPU/cpu_core.c **** 
 726:..\..\..\..\..\..\Software\uC-CPU/cpu_core.c ****     time_max_cnts             = CPU_IntDisMeasMaxCurGet();
ARM GAS  C:\Users\ADMINI~1\AppData\Local\Temp\ccaBZmtr.s 			page 27


 757              		.loc 1 726 0
 758 000a FFF7FEFF 		bl	CPU_IntDisMeasMaxCurGet
 759 000e 0300     		movs	r3, r0
 760 0010 3B60     		str	r3, [r7]
 727:..\..\..\..\..\..\Software\uC-CPU/cpu_core.c ****     CPU_INT_DIS();
 761              		.loc 1 727 0
 762 0012 FFF7FEFF 		bl	CPU_SR_Save
 763 0016 0300     		movs	r3, r0
 764 0018 7B60     		str	r3, [r7, #4]
 728:..\..\..\..\..\..\Software\uC-CPU/cpu_core.c ****     CPU_IntDisMeasMaxCur_cnts = 0u;
 765              		.loc 1 728 0
 766 001a 064B     		ldr	r3, .L35
 767 001c 0022     		movs	r2, #0
 768 001e 1A60     		str	r2, [r3]
 729:..\..\..\..\..\..\Software\uC-CPU/cpu_core.c ****     CPU_INT_EN();
 769              		.loc 1 729 0
 770 0020 7B68     		ldr	r3, [r7, #4]
 771 0022 1800     		movs	r0, r3
 772 0024 FFF7FEFF 		bl	CPU_SR_Restore
 730:..\..\..\..\..\..\Software\uC-CPU/cpu_core.c **** 
 731:..\..\..\..\..\..\Software\uC-CPU/cpu_core.c ****     return (time_max_cnts);
 773              		.loc 1 731 0
 774 0028 3B68     		ldr	r3, [r7]
 732:..\..\..\..\..\..\Software\uC-CPU/cpu_core.c **** }
 775              		.loc 1 732 0
 776 002a 1800     		movs	r0, r3
 777 002c BD46     		mov	sp, r7
 778 002e 02B0     		add	sp, sp, #8
 779              		@ sp needed
 780 0030 80BD     		pop	{r7, pc}
 781              	.L36:
 782 0032 C046     		.align	2
 783              	.L35:
 784 0034 00000000 		.word	CPU_IntDisMeasMaxCur_cnts
 785              		.cfi_endproc
 786              	.LFE9:
 787              		.size	CPU_IntDisMeasMaxCurReset, .-CPU_IntDisMeasMaxCurReset
 788              		.section	.text.CPU_IntDisMeasMaxCurGet,"ax",%progbits
 789              		.align	2
 790              		.global	CPU_IntDisMeasMaxCurGet
 791              		.code	16
 792              		.thumb_func
 793              		.type	CPU_IntDisMeasMaxCurGet, %function
 794              	CPU_IntDisMeasMaxCurGet:
 795              	.LFB10:
 733:..\..\..\..\..\..\Software\uC-CPU/cpu_core.c **** #endif
 734:..\..\..\..\..\..\Software\uC-CPU/cpu_core.c **** 
 735:..\..\..\..\..\..\Software\uC-CPU/cpu_core.c **** 
 736:..\..\..\..\..\..\Software\uC-CPU/cpu_core.c **** /*
 737:..\..\..\..\..\..\Software\uC-CPU/cpu_core.c **** ***************************************************************************************************
 738:..\..\..\..\..\..\Software\uC-CPU/cpu_core.c **** *                                      CPU_IntDisMeasMaxCurGet()
 739:..\..\..\..\..\..\Software\uC-CPU/cpu_core.c **** *
 740:..\..\..\..\..\..\Software\uC-CPU/cpu_core.c **** * Description : Get current maximum interrupts disabled time.
 741:..\..\..\..\..\..\Software\uC-CPU/cpu_core.c **** *
 742:..\..\..\..\..\..\Software\uC-CPU/cpu_core.c **** * Argument(s) : none.
 743:..\..\..\..\..\..\Software\uC-CPU/cpu_core.c **** *
 744:..\..\..\..\..\..\Software\uC-CPU/cpu_core.c **** * Return(s)   : Current maximum interrupts disabled time (in CPU timestamp timer counts).
ARM GAS  C:\Users\ADMINI~1\AppData\Local\Temp\ccaBZmtr.s 			page 28


 745:..\..\..\..\..\..\Software\uC-CPU/cpu_core.c **** *
 746:..\..\..\..\..\..\Software\uC-CPU/cpu_core.c **** *               See also 'cpu_core.h  FUNCTION PROTOTYPES  CPU_TS_TmrRd()      Note #2c'
 747:..\..\..\..\..\..\Software\uC-CPU/cpu_core.c **** *                      & 'cpu_core.h  FUNCTION PROTOTYPES  CPU_TSxx_to_uSec()  Note #2'.
 748:..\..\..\..\..\..\Software\uC-CPU/cpu_core.c **** *
 749:..\..\..\..\..\..\Software\uC-CPU/cpu_core.c **** * Caller(s)   : CPU_IntDisMeasMaxCurReset(),
 750:..\..\..\..\..\..\Software\uC-CPU/cpu_core.c **** *               Application.
 751:..\..\..\..\..\..\Software\uC-CPU/cpu_core.c **** *
 752:..\..\..\..\..\..\Software\uC-CPU/cpu_core.c **** *               This function is a CPU module application programming interface (API) function 
 753:..\..\..\..\..\..\Software\uC-CPU/cpu_core.c **** *               & MAY be called by application function(s).
 754:..\..\..\..\..\..\Software\uC-CPU/cpu_core.c **** *
 755:..\..\..\..\..\..\Software\uC-CPU/cpu_core.c **** * Note(s)     : (1) After initialization, 'CPU_IntDisMeasMaxCur_cnts' MUST ALWAYS be accessed
 756:..\..\..\..\..\..\Software\uC-CPU/cpu_core.c **** *                   exclusively with interrupts disabled -- but NOT with critical sections.
 757:..\..\..\..\..\..\Software\uC-CPU/cpu_core.c **** ***************************************************************************************************
 758:..\..\..\..\..\..\Software\uC-CPU/cpu_core.c **** */
 759:..\..\..\..\..\..\Software\uC-CPU/cpu_core.c **** 
 760:..\..\..\..\..\..\Software\uC-CPU/cpu_core.c **** #ifdef  CPU_CFG_INT_DIS_MEAS_EN
 761:..\..\..\..\..\..\Software\uC-CPU/cpu_core.c **** CPU_TS_TMR  CPU_IntDisMeasMaxCurGet (void)
 762:..\..\..\..\..\..\Software\uC-CPU/cpu_core.c **** {
 796              		.loc 1 762 0
 797              		.cfi_startproc
 798              		@ args = 0, pretend = 0, frame = 16
 799              		@ frame_needed = 1, uses_anonymous_args = 0
 800 0000 80B5     		push	{r7, lr}
 801              		.cfi_def_cfa_offset 8
 802              		.cfi_offset 7, -8
 803              		.cfi_offset 14, -4
 804 0002 84B0     		sub	sp, sp, #16
 805              		.cfi_def_cfa_offset 24
 806 0004 00AF     		add	r7, sp, #0
 807              		.cfi_def_cfa_register 7
 763:..\..\..\..\..\..\Software\uC-CPU/cpu_core.c ****     CPU_TS_TMR  time_tot_cnts;
 764:..\..\..\..\..\..\Software\uC-CPU/cpu_core.c ****     CPU_TS_TMR  time_max_cnts;
 765:..\..\..\..\..\..\Software\uC-CPU/cpu_core.c ****     CPU_SR_ALLOC();
 808              		.loc 1 765 0
 809 0006 0023     		movs	r3, #0
 810 0008 FB60     		str	r3, [r7, #12]
 766:..\..\..\..\..\..\Software\uC-CPU/cpu_core.c **** 
 767:..\..\..\..\..\..\Software\uC-CPU/cpu_core.c **** 
 768:..\..\..\..\..\..\Software\uC-CPU/cpu_core.c ****     CPU_INT_DIS();
 811              		.loc 1 768 0
 812 000a FFF7FEFF 		bl	CPU_SR_Save
 813 000e 0300     		movs	r3, r0
 814 0010 FB60     		str	r3, [r7, #12]
 769:..\..\..\..\..\..\Software\uC-CPU/cpu_core.c ****     time_tot_cnts = CPU_IntDisMeasMaxCur_cnts;
 815              		.loc 1 769 0
 816 0012 094B     		ldr	r3, .L39
 817 0014 1B68     		ldr	r3, [r3]
 818 0016 BB60     		str	r3, [r7, #8]
 770:..\..\..\..\..\..\Software\uC-CPU/cpu_core.c ****     CPU_INT_EN();
 819              		.loc 1 770 0
 820 0018 FB68     		ldr	r3, [r7, #12]
 821 001a 1800     		movs	r0, r3
 822 001c FFF7FEFF 		bl	CPU_SR_Restore
 771:..\..\..\..\..\..\Software\uC-CPU/cpu_core.c ****     time_max_cnts = CPU_IntDisMeasMaxCalc(time_tot_cnts);
 823              		.loc 1 771 0
 824 0020 BB68     		ldr	r3, [r7, #8]
 825 0022 1800     		movs	r0, r3
ARM GAS  C:\Users\ADMINI~1\AppData\Local\Temp\ccaBZmtr.s 			page 29


 826 0024 FFF7FEFF 		bl	CPU_IntDisMeasMaxCalc
 827 0028 0300     		movs	r3, r0
 828 002a 7B60     		str	r3, [r7, #4]
 772:..\..\..\..\..\..\Software\uC-CPU/cpu_core.c **** 
 773:..\..\..\..\..\..\Software\uC-CPU/cpu_core.c ****     return (time_max_cnts);
 829              		.loc 1 773 0
 830 002c 7B68     		ldr	r3, [r7, #4]
 774:..\..\..\..\..\..\Software\uC-CPU/cpu_core.c **** }
 831              		.loc 1 774 0
 832 002e 1800     		movs	r0, r3
 833 0030 BD46     		mov	sp, r7
 834 0032 04B0     		add	sp, sp, #16
 835              		@ sp needed
 836 0034 80BD     		pop	{r7, pc}
 837              	.L40:
 838 0036 C046     		.align	2
 839              	.L39:
 840 0038 00000000 		.word	CPU_IntDisMeasMaxCur_cnts
 841              		.cfi_endproc
 842              	.LFE10:
 843              		.size	CPU_IntDisMeasMaxCurGet, .-CPU_IntDisMeasMaxCurGet
 844              		.section	.text.CPU_IntDisMeasMaxGet,"ax",%progbits
 845              		.align	2
 846              		.global	CPU_IntDisMeasMaxGet
 847              		.code	16
 848              		.thumb_func
 849              		.type	CPU_IntDisMeasMaxGet, %function
 850              	CPU_IntDisMeasMaxGet:
 851              	.LFB11:
 775:..\..\..\..\..\..\Software\uC-CPU/cpu_core.c **** #endif
 776:..\..\..\..\..\..\Software\uC-CPU/cpu_core.c **** 
 777:..\..\..\..\..\..\Software\uC-CPU/cpu_core.c **** 
 778:..\..\..\..\..\..\Software\uC-CPU/cpu_core.c **** /*
 779:..\..\..\..\..\..\Software\uC-CPU/cpu_core.c **** ***************************************************************************************************
 780:..\..\..\..\..\..\Software\uC-CPU/cpu_core.c **** *                                       CPU_IntDisMeasMaxGet()
 781:..\..\..\..\..\..\Software\uC-CPU/cpu_core.c **** *
 782:..\..\..\..\..\..\Software\uC-CPU/cpu_core.c **** * Description : Get (non-resetable) maximum interrupts disabled time.
 783:..\..\..\..\..\..\Software\uC-CPU/cpu_core.c **** *
 784:..\..\..\..\..\..\Software\uC-CPU/cpu_core.c **** * Argument(s) : none.
 785:..\..\..\..\..\..\Software\uC-CPU/cpu_core.c **** *
 786:..\..\..\..\..\..\Software\uC-CPU/cpu_core.c **** * Return(s)   : (Non-resetable) maximum interrupts disabled time (in CPU timestamp timer counts).
 787:..\..\..\..\..\..\Software\uC-CPU/cpu_core.c **** *
 788:..\..\..\..\..\..\Software\uC-CPU/cpu_core.c **** *               See also 'cpu_core.h  FUNCTION PROTOTYPES  CPU_TS_TmrRd()      Note #2c'
 789:..\..\..\..\..\..\Software\uC-CPU/cpu_core.c **** *                      & 'cpu_core.h  FUNCTION PROTOTYPES  CPU_TSxx_to_uSec()  Note #2'.
 790:..\..\..\..\..\..\Software\uC-CPU/cpu_core.c **** *
 791:..\..\..\..\..\..\Software\uC-CPU/cpu_core.c **** * Caller(s)   : CPU_IntDisMeasInit(),
 792:..\..\..\..\..\..\Software\uC-CPU/cpu_core.c **** *               Application.
 793:..\..\..\..\..\..\Software\uC-CPU/cpu_core.c **** *
 794:..\..\..\..\..\..\Software\uC-CPU/cpu_core.c **** *               This function is a CPU module application programming interface (API) function 
 795:..\..\..\..\..\..\Software\uC-CPU/cpu_core.c **** *               & MAY be called by application function(s).
 796:..\..\..\..\..\..\Software\uC-CPU/cpu_core.c **** *
 797:..\..\..\..\..\..\Software\uC-CPU/cpu_core.c **** * Note(s)     : (1) After initialization, 'CPU_IntDisMeasMax_cnts' MUST ALWAYS be accessed
 798:..\..\..\..\..\..\Software\uC-CPU/cpu_core.c **** *                   exclusively with interrupts disabled -- but NOT with critical sections.
 799:..\..\..\..\..\..\Software\uC-CPU/cpu_core.c **** ***************************************************************************************************
 800:..\..\..\..\..\..\Software\uC-CPU/cpu_core.c **** */
 801:..\..\..\..\..\..\Software\uC-CPU/cpu_core.c **** 
 802:..\..\..\..\..\..\Software\uC-CPU/cpu_core.c **** #ifdef  CPU_CFG_INT_DIS_MEAS_EN
ARM GAS  C:\Users\ADMINI~1\AppData\Local\Temp\ccaBZmtr.s 			page 30


 803:..\..\..\..\..\..\Software\uC-CPU/cpu_core.c **** CPU_TS_TMR  CPU_IntDisMeasMaxGet (void)
 804:..\..\..\..\..\..\Software\uC-CPU/cpu_core.c **** {
 852              		.loc 1 804 0
 853              		.cfi_startproc
 854              		@ args = 0, pretend = 0, frame = 16
 855              		@ frame_needed = 1, uses_anonymous_args = 0
 856 0000 80B5     		push	{r7, lr}
 857              		.cfi_def_cfa_offset 8
 858              		.cfi_offset 7, -8
 859              		.cfi_offset 14, -4
 860 0002 84B0     		sub	sp, sp, #16
 861              		.cfi_def_cfa_offset 24
 862 0004 00AF     		add	r7, sp, #0
 863              		.cfi_def_cfa_register 7
 805:..\..\..\..\..\..\Software\uC-CPU/cpu_core.c ****     CPU_TS_TMR  time_tot_cnts;
 806:..\..\..\..\..\..\Software\uC-CPU/cpu_core.c ****     CPU_TS_TMR  time_max_cnts;
 807:..\..\..\..\..\..\Software\uC-CPU/cpu_core.c ****     CPU_SR_ALLOC();
 864              		.loc 1 807 0
 865 0006 0023     		movs	r3, #0
 866 0008 FB60     		str	r3, [r7, #12]
 808:..\..\..\..\..\..\Software\uC-CPU/cpu_core.c **** 
 809:..\..\..\..\..\..\Software\uC-CPU/cpu_core.c **** 
 810:..\..\..\..\..\..\Software\uC-CPU/cpu_core.c ****     CPU_INT_DIS();
 867              		.loc 1 810 0
 868 000a FFF7FEFF 		bl	CPU_SR_Save
 869 000e 0300     		movs	r3, r0
 870 0010 FB60     		str	r3, [r7, #12]
 811:..\..\..\..\..\..\Software\uC-CPU/cpu_core.c ****     time_tot_cnts = CPU_IntDisMeasMax_cnts;
 871              		.loc 1 811 0
 872 0012 094B     		ldr	r3, .L43
 873 0014 1B68     		ldr	r3, [r3]
 874 0016 BB60     		str	r3, [r7, #8]
 812:..\..\..\..\..\..\Software\uC-CPU/cpu_core.c ****     CPU_INT_EN();
 875              		.loc 1 812 0
 876 0018 FB68     		ldr	r3, [r7, #12]
 877 001a 1800     		movs	r0, r3
 878 001c FFF7FEFF 		bl	CPU_SR_Restore
 813:..\..\..\..\..\..\Software\uC-CPU/cpu_core.c ****     time_max_cnts = CPU_IntDisMeasMaxCalc(time_tot_cnts);
 879              		.loc 1 813 0
 880 0020 BB68     		ldr	r3, [r7, #8]
 881 0022 1800     		movs	r0, r3
 882 0024 FFF7FEFF 		bl	CPU_IntDisMeasMaxCalc
 883 0028 0300     		movs	r3, r0
 884 002a 7B60     		str	r3, [r7, #4]
 814:..\..\..\..\..\..\Software\uC-CPU/cpu_core.c **** 
 815:..\..\..\..\..\..\Software\uC-CPU/cpu_core.c ****     return (time_max_cnts);
 885              		.loc 1 815 0
 886 002c 7B68     		ldr	r3, [r7, #4]
 816:..\..\..\..\..\..\Software\uC-CPU/cpu_core.c **** }
 887              		.loc 1 816 0
 888 002e 1800     		movs	r0, r3
 889 0030 BD46     		mov	sp, r7
 890 0032 04B0     		add	sp, sp, #16
 891              		@ sp needed
 892 0034 80BD     		pop	{r7, pc}
 893              	.L44:
 894 0036 C046     		.align	2
ARM GAS  C:\Users\ADMINI~1\AppData\Local\Temp\ccaBZmtr.s 			page 31


 895              	.L43:
 896 0038 00000000 		.word	CPU_IntDisMeasMax_cnts
 897              		.cfi_endproc
 898              	.LFE11:
 899              		.size	CPU_IntDisMeasMaxGet, .-CPU_IntDisMeasMaxGet
 900              		.section	.text.CPU_IntDisMeasStart,"ax",%progbits
 901              		.align	2
 902              		.global	CPU_IntDisMeasStart
 903              		.code	16
 904              		.thumb_func
 905              		.type	CPU_IntDisMeasStart, %function
 906              	CPU_IntDisMeasStart:
 907              	.LFB12:
 817:..\..\..\..\..\..\Software\uC-CPU/cpu_core.c **** #endif
 818:..\..\..\..\..\..\Software\uC-CPU/cpu_core.c **** 
 819:..\..\..\..\..\..\Software\uC-CPU/cpu_core.c **** 
 820:..\..\..\..\..\..\Software\uC-CPU/cpu_core.c **** /*
 821:..\..\..\..\..\..\Software\uC-CPU/cpu_core.c **** ***************************************************************************************************
 822:..\..\..\..\..\..\Software\uC-CPU/cpu_core.c **** *                                        CPU_IntDisMeasStart()
 823:..\..\..\..\..\..\Software\uC-CPU/cpu_core.c **** *
 824:..\..\..\..\..\..\Software\uC-CPU/cpu_core.c **** * Description : Start interrupts disabled time measurement.
 825:..\..\..\..\..\..\Software\uC-CPU/cpu_core.c **** *
 826:..\..\..\..\..\..\Software\uC-CPU/cpu_core.c **** * Argument(s) : none.
 827:..\..\..\..\..\..\Software\uC-CPU/cpu_core.c **** *
 828:..\..\..\..\..\..\Software\uC-CPU/cpu_core.c **** * Return(s)   : none.
 829:..\..\..\..\..\..\Software\uC-CPU/cpu_core.c **** *
 830:..\..\..\..\..\..\Software\uC-CPU/cpu_core.c **** * Caller(s)   : CPU_CRITICAL_ENTER().
 831:..\..\..\..\..\..\Software\uC-CPU/cpu_core.c **** *
 832:..\..\..\..\..\..\Software\uC-CPU/cpu_core.c **** *               This function is an INTERNAL CPU module function & MUST NOT be called by applicatio
 833:..\..\..\..\..\..\Software\uC-CPU/cpu_core.c **** *               function(s).
 834:..\..\..\..\..\..\Software\uC-CPU/cpu_core.c **** *
 835:..\..\..\..\..\..\Software\uC-CPU/cpu_core.c **** * Note(s)     : none.
 836:..\..\..\..\..\..\Software\uC-CPU/cpu_core.c **** ***************************************************************************************************
 837:..\..\..\..\..\..\Software\uC-CPU/cpu_core.c **** */
 838:..\..\..\..\..\..\Software\uC-CPU/cpu_core.c **** 
 839:..\..\..\..\..\..\Software\uC-CPU/cpu_core.c **** #ifdef  CPU_CFG_INT_DIS_MEAS_EN
 840:..\..\..\..\..\..\Software\uC-CPU/cpu_core.c **** void  CPU_IntDisMeasStart (void)
 841:..\..\..\..\..\..\Software\uC-CPU/cpu_core.c **** {
 908              		.loc 1 841 0
 909              		.cfi_startproc
 910              		@ args = 0, pretend = 0, frame = 0
 911              		@ frame_needed = 1, uses_anonymous_args = 0
 912 0000 80B5     		push	{r7, lr}
 913              		.cfi_def_cfa_offset 8
 914              		.cfi_offset 7, -8
 915              		.cfi_offset 14, -4
 916 0002 00AF     		add	r7, sp, #0
 917              		.cfi_def_cfa_register 7
 842:..\..\..\..\..\..\Software\uC-CPU/cpu_core.c ****     CPU_IntDisMeasCtr++;
 918              		.loc 1 842 0
 919 0004 0B4B     		ldr	r3, .L47
 920 0006 1B88     		ldrh	r3, [r3]
 921 0008 0133     		adds	r3, r3, #1
 922 000a 9AB2     		uxth	r2, r3
 923 000c 094B     		ldr	r3, .L47
 924 000e 1A80     		strh	r2, [r3]
 843:..\..\..\..\..\..\Software\uC-CPU/cpu_core.c ****     if (CPU_IntDisNestCtr == 0u) {                                  /* If ints NOT yet dis'd, ...  
ARM GAS  C:\Users\ADMINI~1\AppData\Local\Temp\ccaBZmtr.s 			page 32


 925              		.loc 1 843 0
 926 0010 094B     		ldr	r3, .L47+4
 927 0012 1B88     		ldrh	r3, [r3]
 928 0014 002B     		cmp	r3, #0
 929 0016 04D1     		bne	.L46
 844:..\..\..\..\..\..\Software\uC-CPU/cpu_core.c ****         CPU_IntDisMeasStart_cnts = CPU_TS_TmrRd();                  /* ... get ints dis'd start tim
 930              		.loc 1 844 0
 931 0018 FFF7FEFF 		bl	CPU_TS_TmrRd
 932 001c 0200     		movs	r2, r0
 933 001e 074B     		ldr	r3, .L47+8
 934 0020 1A60     		str	r2, [r3]
 935              	.L46:
 845:..\..\..\..\..\..\Software\uC-CPU/cpu_core.c ****     }
 846:..\..\..\..\..\..\Software\uC-CPU/cpu_core.c ****     CPU_IntDisNestCtr++;
 936              		.loc 1 846 0
 937 0022 054B     		ldr	r3, .L47+4
 938 0024 1B88     		ldrh	r3, [r3]
 939 0026 0133     		adds	r3, r3, #1
 940 0028 9AB2     		uxth	r2, r3
 941 002a 034B     		ldr	r3, .L47+4
 942 002c 1A80     		strh	r2, [r3]
 847:..\..\..\..\..\..\Software\uC-CPU/cpu_core.c **** }
 943              		.loc 1 847 0
 944 002e C046     		nop
 945 0030 BD46     		mov	sp, r7
 946              		@ sp needed
 947 0032 80BD     		pop	{r7, pc}
 948              	.L48:
 949              		.align	2
 950              	.L47:
 951 0034 00000000 		.word	CPU_IntDisMeasCtr
 952 0038 00000000 		.word	CPU_IntDisNestCtr
 953 003c 00000000 		.word	CPU_IntDisMeasStart_cnts
 954              		.cfi_endproc
 955              	.LFE12:
 956              		.size	CPU_IntDisMeasStart, .-CPU_IntDisMeasStart
 957              		.section	.text.CPU_IntDisMeasStop,"ax",%progbits
 958              		.align	2
 959              		.global	CPU_IntDisMeasStop
 960              		.code	16
 961              		.thumb_func
 962              		.type	CPU_IntDisMeasStop, %function
 963              	CPU_IntDisMeasStop:
 964              	.LFB13:
 848:..\..\..\..\..\..\Software\uC-CPU/cpu_core.c **** #endif
 849:..\..\..\..\..\..\Software\uC-CPU/cpu_core.c **** 
 850:..\..\..\..\..\..\Software\uC-CPU/cpu_core.c **** 
 851:..\..\..\..\..\..\Software\uC-CPU/cpu_core.c **** /*
 852:..\..\..\..\..\..\Software\uC-CPU/cpu_core.c **** ***************************************************************************************************
 853:..\..\..\..\..\..\Software\uC-CPU/cpu_core.c **** *                                        CPU_IntDisMeasStop()
 854:..\..\..\..\..\..\Software\uC-CPU/cpu_core.c **** *
 855:..\..\..\..\..\..\Software\uC-CPU/cpu_core.c **** * Description : Stop interrupts disabled time measurement.
 856:..\..\..\..\..\..\Software\uC-CPU/cpu_core.c **** *
 857:..\..\..\..\..\..\Software\uC-CPU/cpu_core.c **** * Argument(s) : none.
 858:..\..\..\..\..\..\Software\uC-CPU/cpu_core.c **** *
 859:..\..\..\..\..\..\Software\uC-CPU/cpu_core.c **** * Return(s)   : none.
 860:..\..\..\..\..\..\Software\uC-CPU/cpu_core.c **** *
ARM GAS  C:\Users\ADMINI~1\AppData\Local\Temp\ccaBZmtr.s 			page 33


 861:..\..\..\..\..\..\Software\uC-CPU/cpu_core.c **** * Caller(s)   : CPU_CRITICAL_EXIT().
 862:..\..\..\..\..\..\Software\uC-CPU/cpu_core.c **** *
 863:..\..\..\..\..\..\Software\uC-CPU/cpu_core.c **** *               This function is an INTERNAL CPU module function & MUST NOT be called by applicatio
 864:..\..\..\..\..\..\Software\uC-CPU/cpu_core.c **** *               function(s).
 865:..\..\..\..\..\..\Software\uC-CPU/cpu_core.c **** *
 866:..\..\..\..\..\..\Software\uC-CPU/cpu_core.c **** * Note(s)     : (1) (a) The total amount of time interrupts are disabled by system &/or application
 867:..\..\..\..\..\..\Software\uC-CPU/cpu_core.c **** *                       during critical sections is calculated by the following equations :
 868:..\..\..\..\..\..\Software\uC-CPU/cpu_core.c **** *
 869:..\..\..\..\..\..\Software\uC-CPU/cpu_core.c **** *                       (1) When interrupts disabled time measurements are disabled :
 870:..\..\..\..\..\..\Software\uC-CPU/cpu_core.c **** *
 871:..\..\..\..\..\..\Software\uC-CPU/cpu_core.c **** *
 872:..\..\..\..\..\..\Software\uC-CPU/cpu_core.c **** *                               |   CRITICAL  |                           |   CRITICAL  |
 873:..\..\..\..\..\..\Software\uC-CPU/cpu_core.c **** *                               |<- SECTION ->|                           |<- SECTION ->|
 874:..\..\..\..\..\..\Software\uC-CPU/cpu_core.c **** *                               |    ENTER    |                           |    EXIT     |
 875:..\..\..\..\..\..\Software\uC-CPU/cpu_core.c **** *
 876:..\..\..\..\..\..\Software\uC-CPU/cpu_core.c **** *                            Disable                                    Enable
 877:..\..\..\..\..\..\Software\uC-CPU/cpu_core.c **** *                           Interrupts                                Interrupts
 878:..\..\..\..\..\..\Software\uC-CPU/cpu_core.c **** *
 879:..\..\..\..\..\..\Software\uC-CPU/cpu_core.c **** *                               ||           ||                           ||           ||
 880:..\..\..\..\..\..\Software\uC-CPU/cpu_core.c **** *                               ||           ||                           ||           ||
 881:..\..\..\..\..\..\Software\uC-CPU/cpu_core.c **** *                               ||       |   ||<------------------------->||       |   ||
 882:..\..\..\..\..\..\Software\uC-CPU/cpu_core.c **** *                               ||       |<->||             |             ||<----->|   ||
 883:..\..\..\..\..\..\Software\uC-CPU/cpu_core.c **** *                               ||       | | ||             |             ||   |   |   ||
 884:..\..\..\..\..\..\Software\uC-CPU/cpu_core.c **** *                                        | |                |                  |   |
 885:..\..\..\..\..\..\Software\uC-CPU/cpu_core.c **** *                                   interrupts            time                 interrupts
 886:..\..\..\..\..\..\Software\uC-CPU/cpu_core.c **** *                                    disabled                 interrupts       |enabled
 887:..\..\..\..\..\..\Software\uC-CPU/cpu_core.c **** *                                          |                   disabled        |
 888:..\..\..\..\..\..\Software\uC-CPU/cpu_core.c **** *                                          |              (via application)    |
 889:..\..\..\..\..\..\Software\uC-CPU/cpu_core.c **** *                                       time                                 time
 890:..\..\..\..\..\..\Software\uC-CPU/cpu_core.c **** *                                           interrupts                           interrupts
 891:..\..\..\..\..\..\Software\uC-CPU/cpu_core.c **** *                                         disabled ovrhd                        enabled ovrhd
 892:..\..\..\..\..\..\Software\uC-CPU/cpu_core.c **** *
 893:..\..\..\..\..\..\Software\uC-CPU/cpu_core.c **** *
 894:..\..\..\..\..\..\Software\uC-CPU/cpu_core.c **** *                           (A) time            =  [ time            -  time           ]  -  time
 895:..\..\..\..\..\..\Software\uC-CPU/cpu_core.c **** *                                   interrupts     [     interrupts         interrupts ]         to
 896:..\..\..\..\..\..\Software\uC-CPU/cpu_core.c **** *                                    disabled      [      enabled            disabled  ]         ov
 897:..\..\..\..\..\..\Software\uC-CPU/cpu_core.c **** *                               (via application)
 898:..\..\..\..\..\..\Software\uC-CPU/cpu_core.c **** *
 899:..\..\..\..\..\..\Software\uC-CPU/cpu_core.c **** *
 900:..\..\..\..\..\..\Software\uC-CPU/cpu_core.c **** *                           (B) time       =  time              +  time
 901:..\..\..\..\..\..\Software\uC-CPU/cpu_core.c **** *                                   total         interrupts           interrupts
 902:..\..\..\..\..\..\Software\uC-CPU/cpu_core.c **** *                                   ovrhd        enabled ovrhd       disabled ovrhd
 903:..\..\..\..\..\..\Software\uC-CPU/cpu_core.c **** *
 904:..\..\..\..\..\..\Software\uC-CPU/cpu_core.c **** *
 905:..\..\..\..\..\..\Software\uC-CPU/cpu_core.c **** *                                   where
 906:..\..\..\..\..\..\Software\uC-CPU/cpu_core.c **** *
 907:..\..\..\..\..\..\Software\uC-CPU/cpu_core.c **** *                                           time                    time interrupts are disabled be
 908:..\..\..\..\..\..\Software\uC-CPU/cpu_core.c **** *                                               interrupts              first critical section ente
 909:..\..\..\..\..\..\Software\uC-CPU/cpu_core.c **** *                                                disabled               last  critical section exit
 910:..\..\..\..\..\..\Software\uC-CPU/cpu_core.c **** *                                           (via application)           minus total overhead time)
 911:..\..\..\..\..\..\Software\uC-CPU/cpu_core.c **** *
 912:..\..\..\..\..\..\Software\uC-CPU/cpu_core.c **** *                                           time                    time when interrupts are disabl
 913:..\..\..\..\..\..\Software\uC-CPU/cpu_core.c **** *                                               interrupts
 914:..\..\..\..\..\..\Software\uC-CPU/cpu_core.c **** *                                                disabled
 915:..\..\..\..\..\..\Software\uC-CPU/cpu_core.c **** *
 916:..\..\..\..\..\..\Software\uC-CPU/cpu_core.c **** *                                           time                    time when interrupts are  enabl
 917:..\..\..\..\..\..\Software\uC-CPU/cpu_core.c **** *                                               interrupts
ARM GAS  C:\Users\ADMINI~1\AppData\Local\Temp\ccaBZmtr.s 			page 34


 918:..\..\..\..\..\..\Software\uC-CPU/cpu_core.c **** *                                                enabled
 919:..\..\..\..\..\..\Software\uC-CPU/cpu_core.c **** *
 920:..\..\..\..\..\..\Software\uC-CPU/cpu_core.c **** *
 921:..\..\..\..\..\..\Software\uC-CPU/cpu_core.c **** *                                           time                    total overhead time to disable/
 922:..\..\..\..\..\..\Software\uC-CPU/cpu_core.c **** *                                               total                   interrupts during critical 
 923:..\..\..\..\..\..\Software\uC-CPU/cpu_core.c **** *                                               ovrhd                   enter & exit
 924:..\..\..\..\..\..\Software\uC-CPU/cpu_core.c **** *
 925:..\..\..\..\..\..\Software\uC-CPU/cpu_core.c **** *                                           time                    total overhead time to disable 
 926:..\..\..\..\..\..\Software\uC-CPU/cpu_core.c **** *                                               interrupts              during critical section ent
 927:..\..\..\..\..\..\Software\uC-CPU/cpu_core.c **** *                                             disabled ovrhd
 928:..\..\..\..\..\..\Software\uC-CPU/cpu_core.c **** *
 929:..\..\..\..\..\..\Software\uC-CPU/cpu_core.c **** *                                           time                    total overhead time to enable  
 930:..\..\..\..\..\..\Software\uC-CPU/cpu_core.c **** *                                               interrupts              during critical section exi
 931:..\..\..\..\..\..\Software\uC-CPU/cpu_core.c **** *                                              enabled ovrhd
 932:..\..\..\..\..\..\Software\uC-CPU/cpu_core.c **** *
 933:..\..\..\..\..\..\Software\uC-CPU/cpu_core.c **** *
 934:..\..\..\..\..\..\Software\uC-CPU/cpu_core.c **** *                       (2) When interrupts disabled time measurements are enabled :
 935:..\..\..\..\..\..\Software\uC-CPU/cpu_core.c **** *
 936:..\..\..\..\..\..\Software\uC-CPU/cpu_core.c **** *
 937:..\..\..\..\..\..\Software\uC-CPU/cpu_core.c **** *        |                                    |                           |                        
 938:..\..\..\..\..\..\Software\uC-CPU/cpu_core.c **** *        |<----- CRITICAL SECTION ENTER ----->|                           |<------- CRITICAL SECTIO
 939:..\..\..\..\..\..\Software\uC-CPU/cpu_core.c **** *        |                                    |                           |                        
 940:..\..\..\..\..\..\Software\uC-CPU/cpu_core.c **** *
 941:..\..\..\..\..\..\Software\uC-CPU/cpu_core.c **** *                   Time                                                 Time
 942:..\..\..\..\..\..\Software\uC-CPU/cpu_core.c **** *     Disable    Measurement                                          Measurement                  
 943:..\..\..\..\..\..\Software\uC-CPU/cpu_core.c **** *    Interrupts     Start                                                Stop                    In
 944:..\..\..\..\..\..\Software\uC-CPU/cpu_core.c **** *
 945:..\..\..\..\..\..\Software\uC-CPU/cpu_core.c **** *        ||           |                      ||                           ||                       
 946:..\..\..\..\..\..\Software\uC-CPU/cpu_core.c **** *        ||           |                      ||                           ||                       
 947:..\..\..\..\..\..\Software\uC-CPU/cpu_core.c **** *        ||           |        |             ||<------------------------->||               |       
 948:..\..\..\..\..\..\Software\uC-CPU/cpu_core.c **** *        ||       |   |        |<----------->||             |             ||<------------->|       
 949:..\..\..\..\..\..\Software\uC-CPU/cpu_core.c **** *        ||       |   |        |      |      ||             |             ||       |       |       
 950:..\..\..\..\..\..\Software\uC-CPU/cpu_core.c **** *                 |            |      |                     |                      |       |       
 951:..\..\..\..\..\..\Software\uC-CPU/cpu_core.c **** *            interrupts       get     |                   time                     |      get      
 952:..\..\..\..\..\..\Software\uC-CPU/cpu_core.c **** *             disabled    start time  |                       interrupts           |   stop time   
 953:..\..\..\..\..\..\Software\uC-CPU/cpu_core.c **** *                            meas     |                        disabled            |     meas
 954:..\..\..\..\..\..\Software\uC-CPU/cpu_core.c **** *                                   time                  (via application)      time
 955:..\..\..\..\..\..\Software\uC-CPU/cpu_core.c **** *                                       start meas                                   stop meas
 956:..\..\..\..\..\..\Software\uC-CPU/cpu_core.c **** *                                         ovrhd                                        ovrhd
 957:..\..\..\..\..\..\Software\uC-CPU/cpu_core.c **** *
 958:..\..\..\..\..\..\Software\uC-CPU/cpu_core.c **** *
 959:..\..\..\..\..\..\Software\uC-CPU/cpu_core.c **** *                           (A) time            =  [ time       -  time      ]  -  time
 960:..\..\..\..\..\..\Software\uC-CPU/cpu_core.c **** *                                   interrupts     [      stop         start ]         total meas
 961:..\..\..\..\..\..\Software\uC-CPU/cpu_core.c **** *                                    disabled      [      meas         meas  ]           ovrhd
 962:..\..\..\..\..\..\Software\uC-CPU/cpu_core.c **** *                               (via application)
 963:..\..\..\..\..\..\Software\uC-CPU/cpu_core.c **** *
 964:..\..\..\..\..\..\Software\uC-CPU/cpu_core.c **** *
 965:..\..\..\..\..\..\Software\uC-CPU/cpu_core.c **** *                           (B) time            =  time            +  time
 966:..\..\..\..\..\..\Software\uC-CPU/cpu_core.c **** *                                   total meas         start meas         stop meas
 967:..\..\..\..\..\..\Software\uC-CPU/cpu_core.c **** *                                     ovrhd              ovrhd              ovrhd
 968:..\..\..\..\..\..\Software\uC-CPU/cpu_core.c **** *
 969:..\..\..\..\..\..\Software\uC-CPU/cpu_core.c **** *
 970:..\..\..\..\..\..\Software\uC-CPU/cpu_core.c **** *                                   where
 971:..\..\..\..\..\..\Software\uC-CPU/cpu_core.c **** *
 972:..\..\..\..\..\..\Software\uC-CPU/cpu_core.c **** *                                           time                    time interrupts are disabled be
 973:..\..\..\..\..\..\Software\uC-CPU/cpu_core.c **** *                                               interrupts              critical section enter & la
 974:..\..\..\..\..\..\Software\uC-CPU/cpu_core.c **** *                                                disabled               section exit (i.e. minus me
ARM GAS  C:\Users\ADMINI~1\AppData\Local\Temp\ccaBZmtr.s 			page 35


 975:..\..\..\..\..\..\Software\uC-CPU/cpu_core.c **** *                                           (via application)           overhead time; however, thi
 976:..\..\..\..\..\..\Software\uC-CPU/cpu_core.c **** *                                                                       include any overhead time t
 977:..\..\..\..\..\..\Software\uC-CPU/cpu_core.c **** *                                                                       or enable interrupts during
 978:..\..\..\..\..\..\Software\uC-CPU/cpu_core.c **** *                                                                       section enter & exit)
 979:..\..\..\..\..\..\Software\uC-CPU/cpu_core.c **** *
 980:..\..\..\..\..\..\Software\uC-CPU/cpu_core.c **** *                                           time                    time of disable interrupts star
 981:..\..\..\..\..\..\Software\uC-CPU/cpu_core.c **** *                                               start                   measurement (in timer count
 982:..\..\..\..\..\..\Software\uC-CPU/cpu_core.c **** *                                               meas
 983:..\..\..\..\..\..\Software\uC-CPU/cpu_core.c **** *
 984:..\..\..\..\..\..\Software\uC-CPU/cpu_core.c **** *                                           time                    time of disable interrupts stop
 985:..\..\..\..\..\..\Software\uC-CPU/cpu_core.c **** *                                               stop                    measurement (in timer count
 986:..\..\..\..\..\..\Software\uC-CPU/cpu_core.c **** *                                               meas
 987:..\..\..\..\..\..\Software\uC-CPU/cpu_core.c **** *
 988:..\..\..\..\..\..\Software\uC-CPU/cpu_core.c **** *
 989:..\..\..\..\..\..\Software\uC-CPU/cpu_core.c **** *                                           time                    total overhead time to start/st
 990:..\..\..\..\..\..\Software\uC-CPU/cpu_core.c **** *                                               total meas              interrupts time measurement
 991:..\..\..\..\..\..\Software\uC-CPU/cpu_core.c **** *                                                 ovrhd                 counts)
 992:..\..\..\..\..\..\Software\uC-CPU/cpu_core.c **** *
 993:..\..\..\..\..\..\Software\uC-CPU/cpu_core.c **** *                                           time                    total overhead time after getti
 994:..\..\..\..\..\..\Software\uC-CPU/cpu_core.c **** *                                               start meas              time until end of start mea
 995:..\..\..\..\..\..\Software\uC-CPU/cpu_core.c **** *                                                 ovrhd                 function  (in timer counts)
 996:..\..\..\..\..\..\Software\uC-CPU/cpu_core.c **** *
 997:..\..\..\..\..\..\Software\uC-CPU/cpu_core.c **** *                                           time                    total overhead time from beginn
 998:..\..\..\..\..\..\Software\uC-CPU/cpu_core.c **** *                                               stop meas               measurement function until 
 999:..\..\..\..\..\..\Software\uC-CPU/cpu_core.c **** *                                                 ovrhd                 stop time (in timer counts)
1000:..\..\..\..\..\..\Software\uC-CPU/cpu_core.c **** *
1001:..\..\..\..\..\..\Software\uC-CPU/cpu_core.c **** *
1002:..\..\..\..\..\..\Software\uC-CPU/cpu_core.c **** *                   (b) (1) (A) In order to correctly handle unsigned subtraction overflows of star
1003:..\..\..\..\..\..\Software\uC-CPU/cpu_core.c **** *                               from stop times, CPU timestamp timer count values MUST be returned 
1004:..\..\..\..\..\..\Software\uC-CPU/cpu_core.c **** *                               word-size-configurable 'CPU_TS_TMR' data type.
1005:..\..\..\..\..\..\Software\uC-CPU/cpu_core.c **** *
1006:..\..\..\..\..\..\Software\uC-CPU/cpu_core.c **** *                               See also 'cpu_core.h  FUNCTION PROTOTYPES  CPU_TS_TmrRd()  Note #2a
1007:..\..\..\..\..\..\Software\uC-CPU/cpu_core.c **** *
1008:..\..\..\..\..\..\Software\uC-CPU/cpu_core.c **** *                           (B) Since unsigned subtraction of start times from stop times assumes i
1009:..\..\..\..\..\..\Software\uC-CPU/cpu_core.c **** *                               values, timestamp timer count values MUST increase with each time c
1010:..\..\..\..\..\..\Software\uC-CPU/cpu_core.c **** *
1011:..\..\..\..\..\..\Software\uC-CPU/cpu_core.c **** *                               See also 'cpu_core.h  FUNCTION PROTOTYPES  CPU_TS_TmrRd()  Note #2b
1012:..\..\..\..\..\..\Software\uC-CPU/cpu_core.c **** *
1013:..\..\..\..\..\..\Software\uC-CPU/cpu_core.c **** *                       (2) (A) To expedite & reduce interrupts disabled time measurement overhead;
1014:..\..\..\..\..\..\Software\uC-CPU/cpu_core.c **** *                               subtraction of start times from stop times is performed.
1015:..\..\..\..\..\..\Software\uC-CPU/cpu_core.c **** *
1016:..\..\..\..\..\..\Software\uC-CPU/cpu_core.c **** *                           (B) The final calculations to subtract the interrupts disabled time mea
1017:..\..\..\..\..\..\Software\uC-CPU/cpu_core.c **** *                               overhead is performed asynchronously in appropriate API functions.
1018:..\..\..\..\..\..\Software\uC-CPU/cpu_core.c **** *
1019:..\..\..\..\..\..\Software\uC-CPU/cpu_core.c **** *                               See also 'CPU_IntDisMeasMaxCalc()  Note #1b'.
1020:..\..\..\..\..\..\Software\uC-CPU/cpu_core.c **** ***************************************************************************************************
1021:..\..\..\..\..\..\Software\uC-CPU/cpu_core.c **** */
1022:..\..\..\..\..\..\Software\uC-CPU/cpu_core.c **** 
1023:..\..\..\..\..\..\Software\uC-CPU/cpu_core.c **** #ifdef  CPU_CFG_INT_DIS_MEAS_EN
1024:..\..\..\..\..\..\Software\uC-CPU/cpu_core.c **** void  CPU_IntDisMeasStop (void)
1025:..\..\..\..\..\..\Software\uC-CPU/cpu_core.c **** {
 965              		.loc 1 1025 0
 966              		.cfi_startproc
 967              		@ args = 0, pretend = 0, frame = 8
 968              		@ frame_needed = 1, uses_anonymous_args = 0
 969 0000 80B5     		push	{r7, lr}
 970              		.cfi_def_cfa_offset 8
ARM GAS  C:\Users\ADMINI~1\AppData\Local\Temp\ccaBZmtr.s 			page 36


 971              		.cfi_offset 7, -8
 972              		.cfi_offset 14, -4
 973 0002 82B0     		sub	sp, sp, #8
 974              		.cfi_def_cfa_offset 16
 975 0004 00AF     		add	r7, sp, #0
 976              		.cfi_def_cfa_register 7
1026:..\..\..\..\..\..\Software\uC-CPU/cpu_core.c ****     CPU_TS_TMR  time_ints_disd_cnts;
1027:..\..\..\..\..\..\Software\uC-CPU/cpu_core.c **** 
1028:..\..\..\..\..\..\Software\uC-CPU/cpu_core.c **** 
1029:..\..\..\..\..\..\Software\uC-CPU/cpu_core.c ****     CPU_IntDisNestCtr--;
 977              		.loc 1 1029 0
 978 0006 144B     		ldr	r3, .L53
 979 0008 1B88     		ldrh	r3, [r3]
 980 000a 013B     		subs	r3, r3, #1
 981 000c 9AB2     		uxth	r2, r3
 982 000e 124B     		ldr	r3, .L53
 983 0010 1A80     		strh	r2, [r3]
1030:..\..\..\..\..\..\Software\uC-CPU/cpu_core.c ****     if (CPU_IntDisNestCtr == 0u) {                                  /* If ints NO longer dis'd,    
 984              		.loc 1 1030 0
 985 0012 114B     		ldr	r3, .L53
 986 0014 1B88     		ldrh	r3, [r3]
 987 0016 002B     		cmp	r3, #0
 988 0018 1AD1     		bne	.L52
1031:..\..\..\..\..\..\Software\uC-CPU/cpu_core.c ****         CPU_IntDisMeasStop_cnts = CPU_TS_TmrRd();                   /* ... get  ints dis'd stop tim
 989              		.loc 1 1031 0
 990 001a FFF7FEFF 		bl	CPU_TS_TmrRd
 991 001e 0200     		movs	r2, r0
 992 0020 0E4B     		ldr	r3, .L53+4
 993 0022 1A60     		str	r2, [r3]
1032:..\..\..\..\..\..\Software\uC-CPU/cpu_core.c ****                                                                     /* ... calc ints dis'd tot  tim
1033:..\..\..\..\..\..\Software\uC-CPU/cpu_core.c ****         time_ints_disd_cnts     = CPU_IntDisMeasStop_cnts -
 994              		.loc 1 1033 0
 995 0024 0D4B     		ldr	r3, .L53+4
 996 0026 1A68     		ldr	r2, [r3]
 997 0028 0D4B     		ldr	r3, .L53+8
 998 002a 1B68     		ldr	r3, [r3]
 999 002c D31A     		subs	r3, r2, r3
 1000 002e 7B60     		str	r3, [r7, #4]
1034:..\..\..\..\..\..\Software\uC-CPU/cpu_core.c ****                                   CPU_IntDisMeasStart_cnts;
1035:..\..\..\..\..\..\Software\uC-CPU/cpu_core.c ****                                                                     /* Calc max ints dis'd times.  
1036:..\..\..\..\..\..\Software\uC-CPU/cpu_core.c ****         if (CPU_IntDisMeasMaxCur_cnts < time_ints_disd_cnts) {
 1001              		.loc 1 1036 0
 1002 0030 0C4B     		ldr	r3, .L53+12
 1003 0032 1A68     		ldr	r2, [r3]
 1004 0034 7B68     		ldr	r3, [r7, #4]
 1005 0036 9A42     		cmp	r2, r3
 1006 0038 02D2     		bcs	.L51
1037:..\..\..\..\..\..\Software\uC-CPU/cpu_core.c ****             CPU_IntDisMeasMaxCur_cnts = time_ints_disd_cnts;
 1007              		.loc 1 1037 0
 1008 003a 0A4B     		ldr	r3, .L53+12
 1009 003c 7A68     		ldr	r2, [r7, #4]
 1010 003e 1A60     		str	r2, [r3]
 1011              	.L51:
1038:..\..\..\..\..\..\Software\uC-CPU/cpu_core.c ****         }
1039:..\..\..\..\..\..\Software\uC-CPU/cpu_core.c ****         if (CPU_IntDisMeasMax_cnts    < time_ints_disd_cnts) {
 1012              		.loc 1 1039 0
 1013 0040 094B     		ldr	r3, .L53+16
ARM GAS  C:\Users\ADMINI~1\AppData\Local\Temp\ccaBZmtr.s 			page 37


 1014 0042 1A68     		ldr	r2, [r3]
 1015 0044 7B68     		ldr	r3, [r7, #4]
 1016 0046 9A42     		cmp	r2, r3
 1017 0048 02D2     		bcs	.L52
1040:..\..\..\..\..\..\Software\uC-CPU/cpu_core.c ****             CPU_IntDisMeasMax_cnts    = time_ints_disd_cnts;
 1018              		.loc 1 1040 0
 1019 004a 074B     		ldr	r3, .L53+16
 1020 004c 7A68     		ldr	r2, [r7, #4]
 1021 004e 1A60     		str	r2, [r3]
 1022              	.L52:
1041:..\..\..\..\..\..\Software\uC-CPU/cpu_core.c ****         }
1042:..\..\..\..\..\..\Software\uC-CPU/cpu_core.c ****     }
1043:..\..\..\..\..\..\Software\uC-CPU/cpu_core.c **** }
 1023              		.loc 1 1043 0
 1024 0050 C046     		nop
 1025 0052 BD46     		mov	sp, r7
 1026 0054 02B0     		add	sp, sp, #8
 1027              		@ sp needed
 1028 0056 80BD     		pop	{r7, pc}
 1029              	.L54:
 1030              		.align	2
 1031              	.L53:
 1032 0058 00000000 		.word	CPU_IntDisNestCtr
 1033 005c 00000000 		.word	CPU_IntDisMeasStop_cnts
 1034 0060 00000000 		.word	CPU_IntDisMeasStart_cnts
 1035 0064 00000000 		.word	CPU_IntDisMeasMaxCur_cnts
 1036 0068 00000000 		.word	CPU_IntDisMeasMax_cnts
 1037              		.cfi_endproc
 1038              	.LFE13:
 1039              		.size	CPU_IntDisMeasStop, .-CPU_IntDisMeasStop
 1040              		.section	.text.CPU_CntLeadZeros,"ax",%progbits
 1041              		.align	2
 1042              		.global	CPU_CntLeadZeros
 1043              		.code	16
 1044              		.thumb_func
 1045              		.type	CPU_CntLeadZeros, %function
 1046              	CPU_CntLeadZeros:
 1047              	.LFB14:
1044:..\..\..\..\..\..\Software\uC-CPU/cpu_core.c **** #endif
1045:..\..\..\..\..\..\Software\uC-CPU/cpu_core.c **** 
1046:..\..\..\..\..\..\Software\uC-CPU/cpu_core.c **** 
1047:..\..\..\..\..\..\Software\uC-CPU/cpu_core.c **** /*
1048:..\..\..\..\..\..\Software\uC-CPU/cpu_core.c **** ***************************************************************************************************
1049:..\..\..\..\..\..\Software\uC-CPU/cpu_core.c **** *                                         CPU_CntLeadZeros()
1050:..\..\..\..\..\..\Software\uC-CPU/cpu_core.c **** *
1051:..\..\..\..\..\..\Software\uC-CPU/cpu_core.c **** * Description : Count the number of contiguous, most-significant, leading zero bits in a data value
1052:..\..\..\..\..\..\Software\uC-CPU/cpu_core.c **** *
1053:..\..\..\..\..\..\Software\uC-CPU/cpu_core.c **** * Argument(s) : val         Data value to count leading zero bits.
1054:..\..\..\..\..\..\Software\uC-CPU/cpu_core.c **** *
1055:..\..\..\..\..\..\Software\uC-CPU/cpu_core.c **** * Return(s)   : Number of contiguous, most-significant, leading zero bits in 'val', if NO error(s).
1056:..\..\..\..\..\..\Software\uC-CPU/cpu_core.c **** *
1057:..\..\..\..\..\..\Software\uC-CPU/cpu_core.c **** *               DEF_INT_CPU_U_MAX_VAL,                                              otherwise.
1058:..\..\..\..\..\..\Software\uC-CPU/cpu_core.c **** *
1059:..\..\..\..\..\..\Software\uC-CPU/cpu_core.c **** * Caller(s)   : CPU_CntTrailZeros(),
1060:..\..\..\..\..\..\Software\uC-CPU/cpu_core.c **** *               Application.
1061:..\..\..\..\..\..\Software\uC-CPU/cpu_core.c **** *
1062:..\..\..\..\..\..\Software\uC-CPU/cpu_core.c **** *               This function is a CPU module application programming interface (API) function & MA
ARM GAS  C:\Users\ADMINI~1\AppData\Local\Temp\ccaBZmtr.s 			page 38


1063:..\..\..\..\..\..\Software\uC-CPU/cpu_core.c **** *               be called by application function(s).
1064:..\..\..\..\..\..\Software\uC-CPU/cpu_core.c **** *
1065:..\..\..\..\..\..\Software\uC-CPU/cpu_core.c **** * Note(s)     : (1) (a) Supports the following data value sizes :
1066:..\..\..\..\..\..\Software\uC-CPU/cpu_core.c **** *
1067:..\..\..\..\..\..\Software\uC-CPU/cpu_core.c **** *                       (1)  8-bits
1068:..\..\..\..\..\..\Software\uC-CPU/cpu_core.c **** *                       (2) 16-bits
1069:..\..\..\..\..\..\Software\uC-CPU/cpu_core.c **** *                       (3) 32-bits
1070:..\..\..\..\..\..\Software\uC-CPU/cpu_core.c **** *                       (4) 64-bits
1071:..\..\..\..\..\..\Software\uC-CPU/cpu_core.c **** *
1072:..\..\..\..\..\..\Software\uC-CPU/cpu_core.c **** *                       See also 'cpu_def.h  CPU WORD CONFIGURATION  Note #1'.
1073:..\..\..\..\..\..\Software\uC-CPU/cpu_core.c **** *
1074:..\..\..\..\..\..\Software\uC-CPU/cpu_core.c **** *                   (b) (1) For  8-bit values :
1075:..\..\..\..\..\..\Software\uC-CPU/cpu_core.c **** *
1076:..\..\..\..\..\..\Software\uC-CPU/cpu_core.c **** *                                  b07  b06  b05  b04  b03  b02  b01  b00    # Leading Zeros
1077:..\..\..\..\..\..\Software\uC-CPU/cpu_core.c **** *                                  ---  ---  ---  ---  ---  ---  ---  ---    ---------------
1078:..\..\..\..\..\..\Software\uC-CPU/cpu_core.c **** *                                   1    x    x    x    x    x    x    x            0
1079:..\..\..\..\..\..\Software\uC-CPU/cpu_core.c **** *                                   0    1    x    x    x    x    x    x            1
1080:..\..\..\..\..\..\Software\uC-CPU/cpu_core.c **** *                                   0    0    1    x    x    x    x    x            2
1081:..\..\..\..\..\..\Software\uC-CPU/cpu_core.c **** *                                   0    0    0    1    x    x    x    x            3
1082:..\..\..\..\..\..\Software\uC-CPU/cpu_core.c **** *                                   0    0    0    0    1    x    x    x            4
1083:..\..\..\..\..\..\Software\uC-CPU/cpu_core.c **** *                                   0    0    0    0    0    1    x    x            5
1084:..\..\..\..\..\..\Software\uC-CPU/cpu_core.c **** *                                   0    0    0    0    0    0    1    x            6
1085:..\..\..\..\..\..\Software\uC-CPU/cpu_core.c **** *                                   0    0    0    0    0    0    0    1            7
1086:..\..\..\..\..\..\Software\uC-CPU/cpu_core.c **** *                                   0    0    0    0    0    0    0    0            8
1087:..\..\..\..\..\..\Software\uC-CPU/cpu_core.c **** *
1088:..\..\..\..\..\..\Software\uC-CPU/cpu_core.c **** *
1089:..\..\..\..\..\..\Software\uC-CPU/cpu_core.c **** *                       (2) For 16-bit values :
1090:..\..\..\..\..\..\Software\uC-CPU/cpu_core.c **** *
1091:..\..\..\..\..\..\Software\uC-CPU/cpu_core.c **** *                             b15  b14  b13  ...  b04  b03  b02  b01  b00    # Leading Zeros
1092:..\..\..\..\..\..\Software\uC-CPU/cpu_core.c **** *                             ---  ---  ---       ---  ---  ---  ---  ---    ---------------
1093:..\..\..\..\..\..\Software\uC-CPU/cpu_core.c **** *                              1    x    x         x    x    x    x    x            0
1094:..\..\..\..\..\..\Software\uC-CPU/cpu_core.c **** *                              0    1    x         x    x    x    x    x            1
1095:..\..\..\..\..\..\Software\uC-CPU/cpu_core.c **** *                              0    0    1         x    x    x    x    x            2
1096:..\..\..\..\..\..\Software\uC-CPU/cpu_core.c **** *                              :    :    :         :    :    :    :    :            :
1097:..\..\..\..\..\..\Software\uC-CPU/cpu_core.c **** *                              :    :    :         :    :    :    :    :            :
1098:..\..\..\..\..\..\Software\uC-CPU/cpu_core.c **** *                              0    0    0         1    x    x    x    x           11
1099:..\..\..\..\..\..\Software\uC-CPU/cpu_core.c **** *                              0    0    0         0    1    x    x    x           12
1100:..\..\..\..\..\..\Software\uC-CPU/cpu_core.c **** *                              0    0    0         0    0    1    x    x           13
1101:..\..\..\..\..\..\Software\uC-CPU/cpu_core.c **** *                              0    0    0         0    0    0    1    x           14
1102:..\..\..\..\..\..\Software\uC-CPU/cpu_core.c **** *                              0    0    0         0    0    0    0    1           15
1103:..\..\..\..\..\..\Software\uC-CPU/cpu_core.c **** *                              0    0    0         0    0    0    0    0           16
1104:..\..\..\..\..\..\Software\uC-CPU/cpu_core.c **** *
1105:..\..\..\..\..\..\Software\uC-CPU/cpu_core.c **** *                       (3) For 32-bit values :
1106:..\..\..\..\..\..\Software\uC-CPU/cpu_core.c **** *
1107:..\..\..\..\..\..\Software\uC-CPU/cpu_core.c **** *                             b31  b30  b29  ...  b04  b03  b02  b01  b00    # Leading Zeros
1108:..\..\..\..\..\..\Software\uC-CPU/cpu_core.c **** *                             ---  ---  ---       ---  ---  ---  ---  ---    ---------------
1109:..\..\..\..\..\..\Software\uC-CPU/cpu_core.c **** *                              1    x    x         x    x    x    x    x            0
1110:..\..\..\..\..\..\Software\uC-CPU/cpu_core.c **** *                              0    1    x         x    x    x    x    x            1
1111:..\..\..\..\..\..\Software\uC-CPU/cpu_core.c **** *                              0    0    1         x    x    x    x    x            2
1112:..\..\..\..\..\..\Software\uC-CPU/cpu_core.c **** *                              :    :    :         :    :    :    :    :            :
1113:..\..\..\..\..\..\Software\uC-CPU/cpu_core.c **** *                              :    :    :         :    :    :    :    :            :
1114:..\..\..\..\..\..\Software\uC-CPU/cpu_core.c **** *                              0    0    0         1    x    x    x    x           27
1115:..\..\..\..\..\..\Software\uC-CPU/cpu_core.c **** *                              0    0    0         0    1    x    x    x           28
1116:..\..\..\..\..\..\Software\uC-CPU/cpu_core.c **** *                              0    0    0         0    0    1    x    x           29
1117:..\..\..\..\..\..\Software\uC-CPU/cpu_core.c **** *                              0    0    0         0    0    0    1    x           30
1118:..\..\..\..\..\..\Software\uC-CPU/cpu_core.c **** *                              0    0    0         0    0    0    0    1           31
1119:..\..\..\..\..\..\Software\uC-CPU/cpu_core.c **** *                              0    0    0         0    0    0    0    0           32
ARM GAS  C:\Users\ADMINI~1\AppData\Local\Temp\ccaBZmtr.s 			page 39


1120:..\..\..\..\..\..\Software\uC-CPU/cpu_core.c **** *
1121:..\..\..\..\..\..\Software\uC-CPU/cpu_core.c **** *
1122:..\..\..\..\..\..\Software\uC-CPU/cpu_core.c **** *                       (4) For 64-bit values :
1123:..\..\..\..\..\..\Software\uC-CPU/cpu_core.c **** *
1124:..\..\..\..\..\..\Software\uC-CPU/cpu_core.c **** *                             b63  b62  b61  ...  b04  b03  b02  b01  b00    # Leading Zeros
1125:..\..\..\..\..\..\Software\uC-CPU/cpu_core.c **** *                             ---  ---  ---       ---  ---  ---  ---  ---    ---------------
1126:..\..\..\..\..\..\Software\uC-CPU/cpu_core.c **** *                              1    x    x         x    x    x    x    x            0
1127:..\..\..\..\..\..\Software\uC-CPU/cpu_core.c **** *                              0    1    x         x    x    x    x    x            1
1128:..\..\..\..\..\..\Software\uC-CPU/cpu_core.c **** *                              0    0    1         x    x    x    x    x            2
1129:..\..\..\..\..\..\Software\uC-CPU/cpu_core.c **** *                              :    :    :         :    :    :    :    :            :
1130:..\..\..\..\..\..\Software\uC-CPU/cpu_core.c **** *                              :    :    :         :    :    :    :    :            :
1131:..\..\..\..\..\..\Software\uC-CPU/cpu_core.c **** *                              0    0    0         1    x    x    x    x           59
1132:..\..\..\..\..\..\Software\uC-CPU/cpu_core.c **** *                              0    0    0         0    1    x    x    x           60
1133:..\..\..\..\..\..\Software\uC-CPU/cpu_core.c **** *                              0    0    0         0    0    1    x    x           61
1134:..\..\..\..\..\..\Software\uC-CPU/cpu_core.c **** *                              0    0    0         0    0    0    1    x           62
1135:..\..\..\..\..\..\Software\uC-CPU/cpu_core.c **** *                              0    0    0         0    0    0    0    1           63
1136:..\..\..\..\..\..\Software\uC-CPU/cpu_core.c **** *                              0    0    0         0    0    0    0    0           64
1137:..\..\..\..\..\..\Software\uC-CPU/cpu_core.c **** *
1138:..\..\..\..\..\..\Software\uC-CPU/cpu_core.c **** *
1139:..\..\..\..\..\..\Software\uC-CPU/cpu_core.c **** *                       See also 'CPU COUNT LEAD ZEROs LOOKUP TABLE  Note #1'.
1140:..\..\..\..\..\..\Software\uC-CPU/cpu_core.c **** ***************************************************************************************************
1141:..\..\..\..\..\..\Software\uC-CPU/cpu_core.c **** */
1142:..\..\..\..\..\..\Software\uC-CPU/cpu_core.c **** 
1143:..\..\..\..\..\..\Software\uC-CPU/cpu_core.c **** #ifndef   CPU_CFG_LEAD_ZEROS_ASM_PRESENT
1144:..\..\..\..\..\..\Software\uC-CPU/cpu_core.c **** CPU_DATA  CPU_CntLeadZeros (CPU_DATA  val)
1145:..\..\..\..\..\..\Software\uC-CPU/cpu_core.c **** {
 1048              		.loc 1 1145 0
 1049              		.cfi_startproc
 1050              		@ args = 0, pretend = 0, frame = 16
 1051              		@ frame_needed = 1, uses_anonymous_args = 0
 1052 0000 80B5     		push	{r7, lr}
 1053              		.cfi_def_cfa_offset 8
 1054              		.cfi_offset 7, -8
 1055              		.cfi_offset 14, -4
 1056 0002 84B0     		sub	sp, sp, #16
 1057              		.cfi_def_cfa_offset 24
 1058 0004 00AF     		add	r7, sp, #0
 1059              		.cfi_def_cfa_register 7
 1060 0006 7860     		str	r0, [r7, #4]
1146:..\..\..\..\..\..\Software\uC-CPU/cpu_core.c ****     CPU_DATA  nbr_lead_zeros;
1147:..\..\..\..\..\..\Software\uC-CPU/cpu_core.c **** 
1148:..\..\..\..\..\..\Software\uC-CPU/cpu_core.c **** 
1149:..\..\..\..\..\..\Software\uC-CPU/cpu_core.c **** #if   (CPU_CFG_DATA_SIZE == CPU_WORD_SIZE_08)
1150:..\..\..\..\..\..\Software\uC-CPU/cpu_core.c ****     nbr_lead_zeros = CPU_CntLeadZeros08((CPU_INT08U)val);
1151:..\..\..\..\..\..\Software\uC-CPU/cpu_core.c **** 
1152:..\..\..\..\..\..\Software\uC-CPU/cpu_core.c **** #elif (CPU_CFG_DATA_SIZE == CPU_WORD_SIZE_16)
1153:..\..\..\..\..\..\Software\uC-CPU/cpu_core.c ****     nbr_lead_zeros = CPU_CntLeadZeros16((CPU_INT16U)val);
1154:..\..\..\..\..\..\Software\uC-CPU/cpu_core.c **** 
1155:..\..\..\..\..\..\Software\uC-CPU/cpu_core.c **** #elif (CPU_CFG_DATA_SIZE == CPU_WORD_SIZE_32)
1156:..\..\..\..\..\..\Software\uC-CPU/cpu_core.c ****     nbr_lead_zeros = CPU_CntLeadZeros32((CPU_INT32U)val);
 1061              		.loc 1 1156 0
 1062 0008 7B68     		ldr	r3, [r7, #4]
 1063 000a 1800     		movs	r0, r3
 1064 000c FFF7FEFF 		bl	CPU_CntLeadZeros32
 1065 0010 0300     		movs	r3, r0
 1066 0012 FB60     		str	r3, [r7, #12]
1157:..\..\..\..\..\..\Software\uC-CPU/cpu_core.c **** 
ARM GAS  C:\Users\ADMINI~1\AppData\Local\Temp\ccaBZmtr.s 			page 40


1158:..\..\..\..\..\..\Software\uC-CPU/cpu_core.c **** #elif (CPU_CFG_DATA_SIZE == CPU_WORD_SIZE_64)
1159:..\..\..\..\..\..\Software\uC-CPU/cpu_core.c ****     nbr_lead_zeros = CPU_CntLeadZeros64((CPU_INT64U)val);
1160:..\..\..\..\..\..\Software\uC-CPU/cpu_core.c **** 
1161:..\..\..\..\..\..\Software\uC-CPU/cpu_core.c **** #else                                                           /* See Note #1a.                   
1162:..\..\..\..\..\..\Software\uC-CPU/cpu_core.c ****     nbr_lead_zeros = DEF_INT_CPU_U_MAX_VAL;
1163:..\..\..\..\..\..\Software\uC-CPU/cpu_core.c **** #endif
1164:..\..\..\..\..\..\Software\uC-CPU/cpu_core.c **** 
1165:..\..\..\..\..\..\Software\uC-CPU/cpu_core.c **** 
1166:..\..\..\..\..\..\Software\uC-CPU/cpu_core.c ****     return (nbr_lead_zeros);
 1067              		.loc 1 1166 0
 1068 0014 FB68     		ldr	r3, [r7, #12]
1167:..\..\..\..\..\..\Software\uC-CPU/cpu_core.c **** }
 1069              		.loc 1 1167 0
 1070 0016 1800     		movs	r0, r3
 1071 0018 BD46     		mov	sp, r7
 1072 001a 04B0     		add	sp, sp, #16
 1073              		@ sp needed
 1074 001c 80BD     		pop	{r7, pc}
 1075              		.cfi_endproc
 1076              	.LFE14:
 1077              		.size	CPU_CntLeadZeros, .-CPU_CntLeadZeros
 1078 001e C046     		.section	.text.CPU_CntLeadZeros08,"ax",%progbits
 1079              		.align	2
 1080              		.global	CPU_CntLeadZeros08
 1081              		.code	16
 1082              		.thumb_func
 1083              		.type	CPU_CntLeadZeros08, %function
 1084              	CPU_CntLeadZeros08:
 1085              	.LFB15:
1168:..\..\..\..\..\..\Software\uC-CPU/cpu_core.c **** #endif
1169:..\..\..\..\..\..\Software\uC-CPU/cpu_core.c **** 
1170:..\..\..\..\..\..\Software\uC-CPU/cpu_core.c **** 
1171:..\..\..\..\..\..\Software\uC-CPU/cpu_core.c **** /*
1172:..\..\..\..\..\..\Software\uC-CPU/cpu_core.c **** ***************************************************************************************************
1173:..\..\..\..\..\..\Software\uC-CPU/cpu_core.c **** *                                        CPU_CntLeadZeros08()
1174:..\..\..\..\..\..\Software\uC-CPU/cpu_core.c **** *
1175:..\..\..\..\..\..\Software\uC-CPU/cpu_core.c **** * Description : Count the number of contiguous, most-significant, leading zero bits in an 8-bit dat
1176:..\..\..\..\..\..\Software\uC-CPU/cpu_core.c **** *
1177:..\..\..\..\..\..\Software\uC-CPU/cpu_core.c **** * Argument(s) : val         Data value to count leading zero bits.
1178:..\..\..\..\..\..\Software\uC-CPU/cpu_core.c **** *
1179:..\..\..\..\..\..\Software\uC-CPU/cpu_core.c **** * Return(s)   : Number of contiguous, most-significant, leading zero bits in 'val'.
1180:..\..\..\..\..\..\Software\uC-CPU/cpu_core.c **** *
1181:..\..\..\..\..\..\Software\uC-CPU/cpu_core.c **** * Caller(s)   : CPU_CntLeadZeros(),
1182:..\..\..\..\..\..\Software\uC-CPU/cpu_core.c **** *               CPU_CntTrailZeros08(),
1183:..\..\..\..\..\..\Software\uC-CPU/cpu_core.c **** *               Application.
1184:..\..\..\..\..\..\Software\uC-CPU/cpu_core.c **** *
1185:..\..\..\..\..\..\Software\uC-CPU/cpu_core.c **** *               This function is a CPU module application programming interface (API) function & MA
1186:..\..\..\..\..\..\Software\uC-CPU/cpu_core.c **** *               called by application function(s).
1187:..\..\..\..\..\..\Software\uC-CPU/cpu_core.c **** *
1188:..\..\..\..\..\..\Software\uC-CPU/cpu_core.c **** * Note(s)     : (1) Supports  8-bit values :
1189:..\..\..\..\..\..\Software\uC-CPU/cpu_core.c **** *
1190:..\..\..\..\..\..\Software\uC-CPU/cpu_core.c **** *                               b07  b06  b05  b04  b03  b02  b01  b00    # Leading Zeros
1191:..\..\..\..\..\..\Software\uC-CPU/cpu_core.c **** *                               ---  ---  ---  ---  ---  ---  ---  ---    ---------------
1192:..\..\..\..\..\..\Software\uC-CPU/cpu_core.c **** *                                1    x    x    x    x    x    x    x            0
1193:..\..\..\..\..\..\Software\uC-CPU/cpu_core.c **** *                                0    1    x    x    x    x    x    x            1
1194:..\..\..\..\..\..\Software\uC-CPU/cpu_core.c **** *                                0    0    1    x    x    x    x    x            2
1195:..\..\..\..\..\..\Software\uC-CPU/cpu_core.c **** *                                0    0    0    1    x    x    x    x            3
ARM GAS  C:\Users\ADMINI~1\AppData\Local\Temp\ccaBZmtr.s 			page 41


1196:..\..\..\..\..\..\Software\uC-CPU/cpu_core.c **** *                                0    0    0    0    1    x    x    x            4
1197:..\..\..\..\..\..\Software\uC-CPU/cpu_core.c **** *                                0    0    0    0    0    1    x    x            5
1198:..\..\..\..\..\..\Software\uC-CPU/cpu_core.c **** *                                0    0    0    0    0    0    1    x            6
1199:..\..\..\..\..\..\Software\uC-CPU/cpu_core.c **** *                                0    0    0    0    0    0    0    1            7
1200:..\..\..\..\..\..\Software\uC-CPU/cpu_core.c **** *                                0    0    0    0    0    0    0    0            8
1201:..\..\..\..\..\..\Software\uC-CPU/cpu_core.c **** *
1202:..\..\..\..\..\..\Software\uC-CPU/cpu_core.c **** *
1203:..\..\..\..\..\..\Software\uC-CPU/cpu_core.c **** *                   See also 'CPU COUNT LEAD ZEROs LOOKUP TABLE  Note #1'.
1204:..\..\..\..\..\..\Software\uC-CPU/cpu_core.c **** ***************************************************************************************************
1205:..\..\..\..\..\..\Software\uC-CPU/cpu_core.c **** */
1206:..\..\..\..\..\..\Software\uC-CPU/cpu_core.c **** 
1207:..\..\..\..\..\..\Software\uC-CPU/cpu_core.c **** #if (CPU_CFG_DATA_SIZE_MAX >= CPU_WORD_SIZE_08)
1208:..\..\..\..\..\..\Software\uC-CPU/cpu_core.c **** CPU_DATA  CPU_CntLeadZeros08 (CPU_INT08U  val)
1209:..\..\..\..\..\..\Software\uC-CPU/cpu_core.c **** {
 1086              		.loc 1 1209 0
 1087              		.cfi_startproc
 1088              		@ args = 0, pretend = 0, frame = 16
 1089              		@ frame_needed = 1, uses_anonymous_args = 0
 1090 0000 80B5     		push	{r7, lr}
 1091              		.cfi_def_cfa_offset 8
 1092              		.cfi_offset 7, -8
 1093              		.cfi_offset 14, -4
 1094 0002 84B0     		sub	sp, sp, #16
 1095              		.cfi_def_cfa_offset 24
 1096 0004 00AF     		add	r7, sp, #0
 1097              		.cfi_def_cfa_register 7
 1098 0006 0200     		movs	r2, r0
 1099 0008 FB1D     		adds	r3, r7, #7
 1100 000a 1A70     		strb	r2, [r3]
1210:..\..\..\..\..\..\Software\uC-CPU/cpu_core.c **** #if  (!((defined(CPU_CFG_LEAD_ZEROS_ASM_PRESENT)) && \
1211:..\..\..\..\..\..\Software\uC-CPU/cpu_core.c ****         (CPU_CFG_DATA_SIZE >= CPU_WORD_SIZE_08)))
1212:..\..\..\..\..\..\Software\uC-CPU/cpu_core.c ****     CPU_DATA  ix;
1213:..\..\..\..\..\..\Software\uC-CPU/cpu_core.c **** #endif
1214:..\..\..\..\..\..\Software\uC-CPU/cpu_core.c ****     CPU_DATA  nbr_lead_zeros;
1215:..\..\..\..\..\..\Software\uC-CPU/cpu_core.c **** 
1216:..\..\..\..\..\..\Software\uC-CPU/cpu_core.c ****                                                                                 /* ---------- ASM-O
1217:..\..\..\..\..\..\Software\uC-CPU/cpu_core.c **** #if ((defined(CPU_CFG_LEAD_ZEROS_ASM_PRESENT)) && \
1218:..\..\..\..\..\..\Software\uC-CPU/cpu_core.c ****      (CPU_CFG_DATA_SIZE >= CPU_WORD_SIZE_08))
1219:..\..\..\..\..\..\Software\uC-CPU/cpu_core.c ****     nbr_lead_zeros  =  CPU_CntLeadZeros((CPU_DATA)val);
1220:..\..\..\..\..\..\Software\uC-CPU/cpu_core.c ****     nbr_lead_zeros -= (CPU_CFG_DATA_SIZE - CPU_WORD_SIZE_08) * DEF_OCTET_NBR_BITS;
1221:..\..\..\..\..\..\Software\uC-CPU/cpu_core.c **** 
1222:..\..\..\..\..\..\Software\uC-CPU/cpu_core.c **** 
1223:..\..\..\..\..\..\Software\uC-CPU/cpu_core.c **** #else                                                                           /* ----------- C-OP
1224:..\..\..\..\..\..\Software\uC-CPU/cpu_core.c ****                                                                                 /* Chk bits [07:00]
1225:..\..\..\..\..\..\Software\uC-CPU/cpu_core.c ****                                                                                 /* .. Nbr lead zero
1226:..\..\..\..\..\..\Software\uC-CPU/cpu_core.c ****     ix              = (CPU_DATA)(val);                                          /* .. lookup tbl ix
 1101              		.loc 1 1226 0
 1102 000c FB1D     		adds	r3, r7, #7
 1103 000e 1B78     		ldrb	r3, [r3]
 1104 0010 FB60     		str	r3, [r7, #12]
1227:..\..\..\..\..\..\Software\uC-CPU/cpu_core.c ****     nbr_lead_zeros  = (CPU_DATA)(CPU_CntLeadZerosTbl[ix]);                      /* .. plus nbr msb 
 1105              		.loc 1 1227 0
 1106 0012 054A     		ldr	r2, .L59
 1107 0014 FB68     		ldr	r3, [r7, #12]
 1108 0016 D318     		adds	r3, r2, r3
 1109 0018 1B78     		ldrb	r3, [r3]
 1110 001a BB60     		str	r3, [r7, #8]
ARM GAS  C:\Users\ADMINI~1\AppData\Local\Temp\ccaBZmtr.s 			page 42


1228:..\..\..\..\..\..\Software\uC-CPU/cpu_core.c **** #endif
1229:..\..\..\..\..\..\Software\uC-CPU/cpu_core.c **** 
1230:..\..\..\..\..\..\Software\uC-CPU/cpu_core.c **** 
1231:..\..\..\..\..\..\Software\uC-CPU/cpu_core.c ****     return (nbr_lead_zeros);
 1111              		.loc 1 1231 0
 1112 001c BB68     		ldr	r3, [r7, #8]
1232:..\..\..\..\..\..\Software\uC-CPU/cpu_core.c **** }
 1113              		.loc 1 1232 0
 1114 001e 1800     		movs	r0, r3
 1115 0020 BD46     		mov	sp, r7
 1116 0022 04B0     		add	sp, sp, #16
 1117              		@ sp needed
 1118 0024 80BD     		pop	{r7, pc}
 1119              	.L60:
 1120 0026 C046     		.align	2
 1121              	.L59:
 1122 0028 00000000 		.word	CPU_CntLeadZerosTbl
 1123              		.cfi_endproc
 1124              	.LFE15:
 1125              		.size	CPU_CntLeadZeros08, .-CPU_CntLeadZeros08
 1126              		.section	.text.CPU_CntLeadZeros16,"ax",%progbits
 1127              		.align	2
 1128              		.global	CPU_CntLeadZeros16
 1129              		.code	16
 1130              		.thumb_func
 1131              		.type	CPU_CntLeadZeros16, %function
 1132              	CPU_CntLeadZeros16:
 1133              	.LFB16:
1233:..\..\..\..\..\..\Software\uC-CPU/cpu_core.c **** #endif
1234:..\..\..\..\..\..\Software\uC-CPU/cpu_core.c **** 
1235:..\..\..\..\..\..\Software\uC-CPU/cpu_core.c **** 
1236:..\..\..\..\..\..\Software\uC-CPU/cpu_core.c **** /*
1237:..\..\..\..\..\..\Software\uC-CPU/cpu_core.c **** ***************************************************************************************************
1238:..\..\..\..\..\..\Software\uC-CPU/cpu_core.c **** *                                        CPU_CntLeadZeros16()
1239:..\..\..\..\..\..\Software\uC-CPU/cpu_core.c **** *
1240:..\..\..\..\..\..\Software\uC-CPU/cpu_core.c **** * Description : Count the number of contiguous, most-significant, leading zero bits in a 16-bit dat
1241:..\..\..\..\..\..\Software\uC-CPU/cpu_core.c **** *
1242:..\..\..\..\..\..\Software\uC-CPU/cpu_core.c **** * Argument(s) : val         Data value to count leading zero bits.
1243:..\..\..\..\..\..\Software\uC-CPU/cpu_core.c **** *
1244:..\..\..\..\..\..\Software\uC-CPU/cpu_core.c **** * Return(s)   : Number of contiguous, most-significant, leading zero bits in 'val'.
1245:..\..\..\..\..\..\Software\uC-CPU/cpu_core.c **** *
1246:..\..\..\..\..\..\Software\uC-CPU/cpu_core.c **** * Caller(s)   : CPU_CntLeadZeros(),
1247:..\..\..\..\..\..\Software\uC-CPU/cpu_core.c **** *               CPU_CntTrailZeros16(),
1248:..\..\..\..\..\..\Software\uC-CPU/cpu_core.c **** *               Application.
1249:..\..\..\..\..\..\Software\uC-CPU/cpu_core.c **** *
1250:..\..\..\..\..\..\Software\uC-CPU/cpu_core.c **** *               This function is a CPU module application programming interface (API) function & MA
1251:..\..\..\..\..\..\Software\uC-CPU/cpu_core.c **** *               called by application function(s).
1252:..\..\..\..\..\..\Software\uC-CPU/cpu_core.c **** *
1253:..\..\..\..\..\..\Software\uC-CPU/cpu_core.c **** * Note(s)     : (1) Supports 16-bit values :
1254:..\..\..\..\..\..\Software\uC-CPU/cpu_core.c **** *
1255:..\..\..\..\..\..\Software\uC-CPU/cpu_core.c **** *                          b15  b14  b13  ...  b04  b03  b02  b01  b00    # Leading Zeros
1256:..\..\..\..\..\..\Software\uC-CPU/cpu_core.c **** *                          ---  ---  ---       ---  ---  ---  ---  ---    ---------------
1257:..\..\..\..\..\..\Software\uC-CPU/cpu_core.c **** *                           1    x    x         x    x    x    x    x            0
1258:..\..\..\..\..\..\Software\uC-CPU/cpu_core.c **** *                           0    1    x         x    x    x    x    x            1
1259:..\..\..\..\..\..\Software\uC-CPU/cpu_core.c **** *                           0    0    1         x    x    x    x    x            2
1260:..\..\..\..\..\..\Software\uC-CPU/cpu_core.c **** *                           :    :    :         :    :    :    :    :            :
1261:..\..\..\..\..\..\Software\uC-CPU/cpu_core.c **** *                           :    :    :         :    :    :    :    :            :
ARM GAS  C:\Users\ADMINI~1\AppData\Local\Temp\ccaBZmtr.s 			page 43


1262:..\..\..\..\..\..\Software\uC-CPU/cpu_core.c **** *                           0    0    0         1    x    x    x    x           11
1263:..\..\..\..\..\..\Software\uC-CPU/cpu_core.c **** *                           0    0    0         0    1    x    x    x           12
1264:..\..\..\..\..\..\Software\uC-CPU/cpu_core.c **** *                           0    0    0         0    0    1    x    x           13
1265:..\..\..\..\..\..\Software\uC-CPU/cpu_core.c **** *                           0    0    0         0    0    0    1    x           14
1266:..\..\..\..\..\..\Software\uC-CPU/cpu_core.c **** *                           0    0    0         0    0    0    0    1           15
1267:..\..\..\..\..\..\Software\uC-CPU/cpu_core.c **** *                           0    0    0         0    0    0    0    0           16
1268:..\..\..\..\..\..\Software\uC-CPU/cpu_core.c **** *
1269:..\..\..\..\..\..\Software\uC-CPU/cpu_core.c **** *
1270:..\..\..\..\..\..\Software\uC-CPU/cpu_core.c **** *                   See also 'CPU COUNT LEAD ZEROs LOOKUP TABLE  Note #1'.
1271:..\..\..\..\..\..\Software\uC-CPU/cpu_core.c **** ***************************************************************************************************
1272:..\..\..\..\..\..\Software\uC-CPU/cpu_core.c **** */
1273:..\..\..\..\..\..\Software\uC-CPU/cpu_core.c **** 
1274:..\..\..\..\..\..\Software\uC-CPU/cpu_core.c **** #if (CPU_CFG_DATA_SIZE_MAX >= CPU_WORD_SIZE_16)
1275:..\..\..\..\..\..\Software\uC-CPU/cpu_core.c **** CPU_DATA  CPU_CntLeadZeros16 (CPU_INT16U  val)
1276:..\..\..\..\..\..\Software\uC-CPU/cpu_core.c **** {
 1134              		.loc 1 1276 0
 1135              		.cfi_startproc
 1136              		@ args = 0, pretend = 0, frame = 16
 1137              		@ frame_needed = 1, uses_anonymous_args = 0
 1138 0000 80B5     		push	{r7, lr}
 1139              		.cfi_def_cfa_offset 8
 1140              		.cfi_offset 7, -8
 1141              		.cfi_offset 14, -4
 1142 0002 84B0     		sub	sp, sp, #16
 1143              		.cfi_def_cfa_offset 24
 1144 0004 00AF     		add	r7, sp, #0
 1145              		.cfi_def_cfa_register 7
 1146 0006 0200     		movs	r2, r0
 1147 0008 BB1D     		adds	r3, r7, #6
 1148 000a 1A80     		strh	r2, [r3]
1277:..\..\..\..\..\..\Software\uC-CPU/cpu_core.c **** #if  (!((defined(CPU_CFG_LEAD_ZEROS_ASM_PRESENT)) && \
1278:..\..\..\..\..\..\Software\uC-CPU/cpu_core.c ****         (CPU_CFG_DATA_SIZE >= CPU_WORD_SIZE_16)))
1279:..\..\..\..\..\..\Software\uC-CPU/cpu_core.c ****     CPU_DATA  ix;
1280:..\..\..\..\..\..\Software\uC-CPU/cpu_core.c **** #endif
1281:..\..\..\..\..\..\Software\uC-CPU/cpu_core.c ****     CPU_DATA  nbr_lead_zeros;
1282:..\..\..\..\..\..\Software\uC-CPU/cpu_core.c **** 
1283:..\..\..\..\..\..\Software\uC-CPU/cpu_core.c ****                                                                                 /* ---------- ASM-O
1284:..\..\..\..\..\..\Software\uC-CPU/cpu_core.c **** #if ((defined(CPU_CFG_LEAD_ZEROS_ASM_PRESENT)) && \
1285:..\..\..\..\..\..\Software\uC-CPU/cpu_core.c ****      (CPU_CFG_DATA_SIZE >= CPU_WORD_SIZE_16))
1286:..\..\..\..\..\..\Software\uC-CPU/cpu_core.c ****     nbr_lead_zeros  =  CPU_CntLeadZeros((CPU_DATA)val);
1287:..\..\..\..\..\..\Software\uC-CPU/cpu_core.c ****     nbr_lead_zeros -= (CPU_CFG_DATA_SIZE - CPU_WORD_SIZE_16) * DEF_OCTET_NBR_BITS;
1288:..\..\..\..\..\..\Software\uC-CPU/cpu_core.c **** 
1289:..\..\..\..\..\..\Software\uC-CPU/cpu_core.c **** 
1290:..\..\..\..\..\..\Software\uC-CPU/cpu_core.c **** #else                                                                           /* ----------- C-OP
1291:..\..\..\..\..\..\Software\uC-CPU/cpu_core.c ****     if (val > 0x00FFu) {                                                        /* Chk bits [15:08]
 1149              		.loc 1 1291 0
 1150 000c BB1D     		adds	r3, r7, #6
 1151 000e 1B88     		ldrh	r3, [r3]
 1152 0010 FF2B     		cmp	r3, #255
 1153 0012 0AD9     		bls	.L62
1292:..\..\..\..\..\..\Software\uC-CPU/cpu_core.c ****                                                                                 /* .. Nbr lead zero
1293:..\..\..\..\..\..\Software\uC-CPU/cpu_core.c ****         ix             = (CPU_DATA)((CPU_DATA)val >> 8u);                       /* .. lookup tbl ix
 1154              		.loc 1 1293 0
 1155 0014 BB1D     		adds	r3, r7, #6
 1156 0016 1B88     		ldrh	r3, [r3]
 1157 0018 1B0A     		lsrs	r3, r3, #8
 1158 001a 9BB2     		uxth	r3, r3
ARM GAS  C:\Users\ADMINI~1\AppData\Local\Temp\ccaBZmtr.s 			page 44


 1159 001c BB60     		str	r3, [r7, #8]
1294:..\..\..\..\..\..\Software\uC-CPU/cpu_core.c ****         nbr_lead_zeros = (CPU_DATA)(CPU_CntLeadZerosTbl[ix]);                   /* .. plus nbr msb 
 1160              		.loc 1 1294 0
 1161 001e 0A4A     		ldr	r2, .L65
 1162 0020 BB68     		ldr	r3, [r7, #8]
 1163 0022 D318     		adds	r3, r2, r3
 1164 0024 1B78     		ldrb	r3, [r3]
 1165 0026 FB60     		str	r3, [r7, #12]
 1166 0028 08E0     		b	.L63
 1167              	.L62:
1295:..\..\..\..\..\..\Software\uC-CPU/cpu_core.c **** 
1296:..\..\..\..\..\..\Software\uC-CPU/cpu_core.c ****     } else {                                                                    /* Chk bits [07:00]
1297:..\..\..\..\..\..\Software\uC-CPU/cpu_core.c ****                                                                                 /* .. Nbr lead zero
1298:..\..\..\..\..\..\Software\uC-CPU/cpu_core.c ****         ix             = (CPU_DATA)(val);                                       /* .. lookup tbl ix
 1168              		.loc 1 1298 0
 1169 002a BB1D     		adds	r3, r7, #6
 1170 002c 1B88     		ldrh	r3, [r3]
 1171 002e BB60     		str	r3, [r7, #8]
1299:..\..\..\..\..\..\Software\uC-CPU/cpu_core.c ****         nbr_lead_zeros = (CPU_DATA)((CPU_DATA)CPU_CntLeadZerosTbl[ix] +  8u);   /* .. plus nbr msb 
 1172              		.loc 1 1299 0
 1173 0030 054A     		ldr	r2, .L65
 1174 0032 BB68     		ldr	r3, [r7, #8]
 1175 0034 D318     		adds	r3, r2, r3
 1176 0036 1B78     		ldrb	r3, [r3]
 1177 0038 0833     		adds	r3, r3, #8
 1178 003a FB60     		str	r3, [r7, #12]
 1179              	.L63:
1300:..\..\..\..\..\..\Software\uC-CPU/cpu_core.c ****     }
1301:..\..\..\..\..\..\Software\uC-CPU/cpu_core.c **** #endif
1302:..\..\..\..\..\..\Software\uC-CPU/cpu_core.c **** 
1303:..\..\..\..\..\..\Software\uC-CPU/cpu_core.c **** 
1304:..\..\..\..\..\..\Software\uC-CPU/cpu_core.c ****     return (nbr_lead_zeros);
 1180              		.loc 1 1304 0
 1181 003c FB68     		ldr	r3, [r7, #12]
1305:..\..\..\..\..\..\Software\uC-CPU/cpu_core.c **** }
 1182              		.loc 1 1305 0
 1183 003e 1800     		movs	r0, r3
 1184 0040 BD46     		mov	sp, r7
 1185 0042 04B0     		add	sp, sp, #16
 1186              		@ sp needed
 1187 0044 80BD     		pop	{r7, pc}
 1188              	.L66:
 1189 0046 C046     		.align	2
 1190              	.L65:
 1191 0048 00000000 		.word	CPU_CntLeadZerosTbl
 1192              		.cfi_endproc
 1193              	.LFE16:
 1194              		.size	CPU_CntLeadZeros16, .-CPU_CntLeadZeros16
 1195              		.section	.text.CPU_CntLeadZeros32,"ax",%progbits
 1196              		.align	2
 1197              		.global	CPU_CntLeadZeros32
 1198              		.code	16
 1199              		.thumb_func
 1200              		.type	CPU_CntLeadZeros32, %function
 1201              	CPU_CntLeadZeros32:
 1202              	.LFB17:
1306:..\..\..\..\..\..\Software\uC-CPU/cpu_core.c **** #endif
ARM GAS  C:\Users\ADMINI~1\AppData\Local\Temp\ccaBZmtr.s 			page 45


1307:..\..\..\..\..\..\Software\uC-CPU/cpu_core.c **** 
1308:..\..\..\..\..\..\Software\uC-CPU/cpu_core.c **** 
1309:..\..\..\..\..\..\Software\uC-CPU/cpu_core.c **** /*
1310:..\..\..\..\..\..\Software\uC-CPU/cpu_core.c **** ***************************************************************************************************
1311:..\..\..\..\..\..\Software\uC-CPU/cpu_core.c **** *                                        CPU_CntLeadZeros32()
1312:..\..\..\..\..\..\Software\uC-CPU/cpu_core.c **** *
1313:..\..\..\..\..\..\Software\uC-CPU/cpu_core.c **** * Description : Count the number of contiguous, most-significant, leading zero bits in a 32-bit dat
1314:..\..\..\..\..\..\Software\uC-CPU/cpu_core.c **** *
1315:..\..\..\..\..\..\Software\uC-CPU/cpu_core.c **** * Argument(s) : val         Data value to count leading zero bits.
1316:..\..\..\..\..\..\Software\uC-CPU/cpu_core.c **** *
1317:..\..\..\..\..\..\Software\uC-CPU/cpu_core.c **** * Return(s)   : Number of contiguous, most-significant, leading zero bits in 'val'.
1318:..\..\..\..\..\..\Software\uC-CPU/cpu_core.c **** *
1319:..\..\..\..\..\..\Software\uC-CPU/cpu_core.c **** * Caller(s)   : CPU_CntLeadZeros(),
1320:..\..\..\..\..\..\Software\uC-CPU/cpu_core.c **** *               CPU_CntTrailZeros32(),
1321:..\..\..\..\..\..\Software\uC-CPU/cpu_core.c **** *               Application.
1322:..\..\..\..\..\..\Software\uC-CPU/cpu_core.c **** *
1323:..\..\..\..\..\..\Software\uC-CPU/cpu_core.c **** *               This function is a CPU module application programming interface (API) function & MA
1324:..\..\..\..\..\..\Software\uC-CPU/cpu_core.c **** *               called by application function(s).
1325:..\..\..\..\..\..\Software\uC-CPU/cpu_core.c **** *
1326:..\..\..\..\..\..\Software\uC-CPU/cpu_core.c **** * Note(s)     : (1) Supports 32-bit values :
1327:..\..\..\..\..\..\Software\uC-CPU/cpu_core.c **** *
1328:..\..\..\..\..\..\Software\uC-CPU/cpu_core.c **** *                          b31  b30  b29  ...  b04  b03  b02  b01  b00    # Leading Zeros
1329:..\..\..\..\..\..\Software\uC-CPU/cpu_core.c **** *                          ---  ---  ---       ---  ---  ---  ---  ---    ---------------
1330:..\..\..\..\..\..\Software\uC-CPU/cpu_core.c **** *                           1    x    x         x    x    x    x    x            0
1331:..\..\..\..\..\..\Software\uC-CPU/cpu_core.c **** *                           0    1    x         x    x    x    x    x            1
1332:..\..\..\..\..\..\Software\uC-CPU/cpu_core.c **** *                           0    0    1         x    x    x    x    x            2
1333:..\..\..\..\..\..\Software\uC-CPU/cpu_core.c **** *                           :    :    :         :    :    :    :    :            :
1334:..\..\..\..\..\..\Software\uC-CPU/cpu_core.c **** *                           :    :    :         :    :    :    :    :            :
1335:..\..\..\..\..\..\Software\uC-CPU/cpu_core.c **** *                           0    0    0         1    x    x    x    x           27
1336:..\..\..\..\..\..\Software\uC-CPU/cpu_core.c **** *                           0    0    0         0    1    x    x    x           28
1337:..\..\..\..\..\..\Software\uC-CPU/cpu_core.c **** *                           0    0    0         0    0    1    x    x           29
1338:..\..\..\..\..\..\Software\uC-CPU/cpu_core.c **** *                           0    0    0         0    0    0    1    x           30
1339:..\..\..\..\..\..\Software\uC-CPU/cpu_core.c **** *                           0    0    0         0    0    0    0    1           31
1340:..\..\..\..\..\..\Software\uC-CPU/cpu_core.c **** *                           0    0    0         0    0    0    0    0           32
1341:..\..\..\..\..\..\Software\uC-CPU/cpu_core.c **** *
1342:..\..\..\..\..\..\Software\uC-CPU/cpu_core.c **** *
1343:..\..\..\..\..\..\Software\uC-CPU/cpu_core.c **** *                   See also 'CPU COUNT LEAD ZEROs LOOKUP TABLE  Note #1'.
1344:..\..\..\..\..\..\Software\uC-CPU/cpu_core.c **** ***************************************************************************************************
1345:..\..\..\..\..\..\Software\uC-CPU/cpu_core.c **** */
1346:..\..\..\..\..\..\Software\uC-CPU/cpu_core.c **** 
1347:..\..\..\..\..\..\Software\uC-CPU/cpu_core.c **** #if (CPU_CFG_DATA_SIZE_MAX >= CPU_WORD_SIZE_32)
1348:..\..\..\..\..\..\Software\uC-CPU/cpu_core.c **** CPU_DATA  CPU_CntLeadZeros32 (CPU_INT32U  val)
1349:..\..\..\..\..\..\Software\uC-CPU/cpu_core.c **** {
 1203              		.loc 1 1349 0
 1204              		.cfi_startproc
 1205              		@ args = 0, pretend = 0, frame = 16
 1206              		@ frame_needed = 1, uses_anonymous_args = 0
 1207 0000 80B5     		push	{r7, lr}
 1208              		.cfi_def_cfa_offset 8
 1209              		.cfi_offset 7, -8
 1210              		.cfi_offset 14, -4
 1211 0002 84B0     		sub	sp, sp, #16
 1212              		.cfi_def_cfa_offset 24
 1213 0004 00AF     		add	r7, sp, #0
 1214              		.cfi_def_cfa_register 7
 1215 0006 7860     		str	r0, [r7, #4]
1350:..\..\..\..\..\..\Software\uC-CPU/cpu_core.c **** #if  (!((defined(CPU_CFG_LEAD_ZEROS_ASM_PRESENT)) && \
ARM GAS  C:\Users\ADMINI~1\AppData\Local\Temp\ccaBZmtr.s 			page 46


1351:..\..\..\..\..\..\Software\uC-CPU/cpu_core.c ****         (CPU_CFG_DATA_SIZE >= CPU_WORD_SIZE_32)))
1352:..\..\..\..\..\..\Software\uC-CPU/cpu_core.c ****     CPU_DATA  ix;
1353:..\..\..\..\..\..\Software\uC-CPU/cpu_core.c **** #endif
1354:..\..\..\..\..\..\Software\uC-CPU/cpu_core.c ****     CPU_DATA  nbr_lead_zeros;
1355:..\..\..\..\..\..\Software\uC-CPU/cpu_core.c **** 
1356:..\..\..\..\..\..\Software\uC-CPU/cpu_core.c ****                                                                                 /* ---------- ASM-O
1357:..\..\..\..\..\..\Software\uC-CPU/cpu_core.c **** #if ((defined(CPU_CFG_LEAD_ZEROS_ASM_PRESENT)) && \
1358:..\..\..\..\..\..\Software\uC-CPU/cpu_core.c ****      (CPU_CFG_DATA_SIZE >= CPU_WORD_SIZE_32))
1359:..\..\..\..\..\..\Software\uC-CPU/cpu_core.c ****     nbr_lead_zeros  =  CPU_CntLeadZeros((CPU_DATA)val);
1360:..\..\..\..\..\..\Software\uC-CPU/cpu_core.c ****     nbr_lead_zeros -= (CPU_CFG_DATA_SIZE - CPU_WORD_SIZE_32) * DEF_OCTET_NBR_BITS;
1361:..\..\..\..\..\..\Software\uC-CPU/cpu_core.c **** 
1362:..\..\..\..\..\..\Software\uC-CPU/cpu_core.c **** 
1363:..\..\..\..\..\..\Software\uC-CPU/cpu_core.c **** #else                                                                           /* ----------- C-OP
1364:..\..\..\..\..\..\Software\uC-CPU/cpu_core.c ****     if (val > 0x0000FFFFu) {
 1216              		.loc 1 1364 0
 1217 0008 7B68     		ldr	r3, [r7, #4]
 1218 000a 1A4A     		ldr	r2, .L74
 1219 000c 9342     		cmp	r3, r2
 1220 000e 16D9     		bls	.L68
1365:..\..\..\..\..\..\Software\uC-CPU/cpu_core.c ****         if (val > 0x00FFFFFFu) {                                                /* Chk bits [31:24]
 1221              		.loc 1 1365 0
 1222 0010 7B68     		ldr	r3, [r7, #4]
 1223 0012 194A     		ldr	r2, .L74+4
 1224 0014 9342     		cmp	r3, r2
 1225 0016 08D9     		bls	.L69
1366:..\..\..\..\..\..\Software\uC-CPU/cpu_core.c ****                                                                                 /* .. Nbr lead zero
1367:..\..\..\..\..\..\Software\uC-CPU/cpu_core.c ****             ix             = (CPU_DATA)((CPU_DATA)(val >> 24u));                /* .. lookup tbl ix
 1226              		.loc 1 1367 0
 1227 0018 7B68     		ldr	r3, [r7, #4]
 1228 001a 1B0E     		lsrs	r3, r3, #24
 1229 001c BB60     		str	r3, [r7, #8]
1368:..\..\..\..\..\..\Software\uC-CPU/cpu_core.c ****             nbr_lead_zeros = (CPU_DATA)(CPU_CntLeadZerosTbl[ix]);               /* .. plus nbr msb 
 1230              		.loc 1 1368 0
 1231 001e 174A     		ldr	r2, .L74+8
 1232 0020 BB68     		ldr	r3, [r7, #8]
 1233 0022 D318     		adds	r3, r2, r3
 1234 0024 1B78     		ldrb	r3, [r3]
 1235 0026 FB60     		str	r3, [r7, #12]
 1236 0028 1EE0     		b	.L71
 1237              	.L69:
1369:..\..\..\..\..\..\Software\uC-CPU/cpu_core.c **** 
1370:..\..\..\..\..\..\Software\uC-CPU/cpu_core.c ****         } else {                                                                /* Chk bits [23:16]
1371:..\..\..\..\..\..\Software\uC-CPU/cpu_core.c ****                                                                                 /* .. Nbr lead zero
1372:..\..\..\..\..\..\Software\uC-CPU/cpu_core.c ****             ix             = (CPU_DATA)((CPU_DATA)(val >> 16u));                /* .. lookup tbl ix
 1238              		.loc 1 1372 0
 1239 002a 7B68     		ldr	r3, [r7, #4]
 1240 002c 1B0C     		lsrs	r3, r3, #16
 1241 002e BB60     		str	r3, [r7, #8]
1373:..\..\..\..\..\..\Software\uC-CPU/cpu_core.c ****             nbr_lead_zeros = (CPU_DATA)((CPU_DATA)CPU_CntLeadZerosTbl[ix] +  8u);/* .. plus nbr msb
 1242              		.loc 1 1373 0
 1243 0030 124A     		ldr	r2, .L74+8
 1244 0032 BB68     		ldr	r3, [r7, #8]
 1245 0034 D318     		adds	r3, r2, r3
 1246 0036 1B78     		ldrb	r3, [r3]
 1247 0038 0833     		adds	r3, r3, #8
 1248 003a FB60     		str	r3, [r7, #12]
 1249 003c 14E0     		b	.L71
ARM GAS  C:\Users\ADMINI~1\AppData\Local\Temp\ccaBZmtr.s 			page 47


 1250              	.L68:
1374:..\..\..\..\..\..\Software\uC-CPU/cpu_core.c ****         }
1375:..\..\..\..\..\..\Software\uC-CPU/cpu_core.c **** 
1376:..\..\..\..\..\..\Software\uC-CPU/cpu_core.c ****     } else {
1377:..\..\..\..\..\..\Software\uC-CPU/cpu_core.c ****         if (val > 0x000000FFu) {                                                /* Chk bits [15:08]
 1251              		.loc 1 1377 0
 1252 003e 7B68     		ldr	r3, [r7, #4]
 1253 0040 FF2B     		cmp	r3, #255
 1254 0042 09D9     		bls	.L72
1378:..\..\..\..\..\..\Software\uC-CPU/cpu_core.c ****                                                                                 /* .. Nbr lead zero
1379:..\..\..\..\..\..\Software\uC-CPU/cpu_core.c ****             ix             = (CPU_DATA)((CPU_DATA)(val >>  8u));                /* .. lookup tbl ix
 1255              		.loc 1 1379 0
 1256 0044 7B68     		ldr	r3, [r7, #4]
 1257 0046 1B0A     		lsrs	r3, r3, #8
 1258 0048 BB60     		str	r3, [r7, #8]
1380:..\..\..\..\..\..\Software\uC-CPU/cpu_core.c ****             nbr_lead_zeros = (CPU_DATA)((CPU_DATA)CPU_CntLeadZerosTbl[ix] + 16u);/* .. plus nbr msb
 1259              		.loc 1 1380 0
 1260 004a 0C4A     		ldr	r2, .L74+8
 1261 004c BB68     		ldr	r3, [r7, #8]
 1262 004e D318     		adds	r3, r2, r3
 1263 0050 1B78     		ldrb	r3, [r3]
 1264 0052 1033     		adds	r3, r3, #16
 1265 0054 FB60     		str	r3, [r7, #12]
 1266 0056 07E0     		b	.L71
 1267              	.L72:
1381:..\..\..\..\..\..\Software\uC-CPU/cpu_core.c **** 
1382:..\..\..\..\..\..\Software\uC-CPU/cpu_core.c ****         } else {                                                                /* Chk bits [07:00]
1383:..\..\..\..\..\..\Software\uC-CPU/cpu_core.c ****                                                                                 /* .. Nbr lead zero
1384:..\..\..\..\..\..\Software\uC-CPU/cpu_core.c ****             ix             = (CPU_DATA)((CPU_DATA)(val >>  0u));                /* .. lookup tbl ix
 1268              		.loc 1 1384 0
 1269 0058 7B68     		ldr	r3, [r7, #4]
 1270 005a BB60     		str	r3, [r7, #8]
1385:..\..\..\..\..\..\Software\uC-CPU/cpu_core.c ****             nbr_lead_zeros = (CPU_DATA)((CPU_DATA)CPU_CntLeadZerosTbl[ix] + 24u);/* .. plus nbr msb
 1271              		.loc 1 1385 0
 1272 005c 074A     		ldr	r2, .L74+8
 1273 005e BB68     		ldr	r3, [r7, #8]
 1274 0060 D318     		adds	r3, r2, r3
 1275 0062 1B78     		ldrb	r3, [r3]
 1276 0064 1833     		adds	r3, r3, #24
 1277 0066 FB60     		str	r3, [r7, #12]
 1278              	.L71:
1386:..\..\..\..\..\..\Software\uC-CPU/cpu_core.c ****         }
1387:..\..\..\..\..\..\Software\uC-CPU/cpu_core.c ****     }
1388:..\..\..\..\..\..\Software\uC-CPU/cpu_core.c **** #endif
1389:..\..\..\..\..\..\Software\uC-CPU/cpu_core.c **** 
1390:..\..\..\..\..\..\Software\uC-CPU/cpu_core.c **** 
1391:..\..\..\..\..\..\Software\uC-CPU/cpu_core.c ****     return (nbr_lead_zeros);
 1279              		.loc 1 1391 0
 1280 0068 FB68     		ldr	r3, [r7, #12]
1392:..\..\..\..\..\..\Software\uC-CPU/cpu_core.c **** }
 1281              		.loc 1 1392 0
 1282 006a 1800     		movs	r0, r3
 1283 006c BD46     		mov	sp, r7
 1284 006e 04B0     		add	sp, sp, #16
 1285              		@ sp needed
 1286 0070 80BD     		pop	{r7, pc}
 1287              	.L75:
ARM GAS  C:\Users\ADMINI~1\AppData\Local\Temp\ccaBZmtr.s 			page 48


 1288 0072 C046     		.align	2
 1289              	.L74:
 1290 0074 FFFF0000 		.word	65535
 1291 0078 FFFFFF00 		.word	16777215
 1292 007c 00000000 		.word	CPU_CntLeadZerosTbl
 1293              		.cfi_endproc
 1294              	.LFE17:
 1295              		.size	CPU_CntLeadZeros32, .-CPU_CntLeadZeros32
 1296              		.section	.text.CPU_CntLeadZeros64,"ax",%progbits
 1297              		.align	2
 1298              		.global	CPU_CntLeadZeros64
 1299              		.code	16
 1300              		.thumb_func
 1301              		.type	CPU_CntLeadZeros64, %function
 1302              	CPU_CntLeadZeros64:
 1303              	.LFB18:
1393:..\..\..\..\..\..\Software\uC-CPU/cpu_core.c **** #endif
1394:..\..\..\..\..\..\Software\uC-CPU/cpu_core.c **** 
1395:..\..\..\..\..\..\Software\uC-CPU/cpu_core.c **** 
1396:..\..\..\..\..\..\Software\uC-CPU/cpu_core.c **** /*
1397:..\..\..\..\..\..\Software\uC-CPU/cpu_core.c **** ***************************************************************************************************
1398:..\..\..\..\..\..\Software\uC-CPU/cpu_core.c **** *                                        CPU_CntLeadZeros64()
1399:..\..\..\..\..\..\Software\uC-CPU/cpu_core.c **** *
1400:..\..\..\..\..\..\Software\uC-CPU/cpu_core.c **** * Description : Count the number of contiguous, most-significant, leading zero bits in a 64-bit dat
1401:..\..\..\..\..\..\Software\uC-CPU/cpu_core.c **** *
1402:..\..\..\..\..\..\Software\uC-CPU/cpu_core.c **** * Argument(s) : val         Data value to count leading zero bits.
1403:..\..\..\..\..\..\Software\uC-CPU/cpu_core.c **** *
1404:..\..\..\..\..\..\Software\uC-CPU/cpu_core.c **** * Return(s)   : Number of contiguous, most-significant, leading zero bits in 'val'.
1405:..\..\..\..\..\..\Software\uC-CPU/cpu_core.c **** *
1406:..\..\..\..\..\..\Software\uC-CPU/cpu_core.c **** * Caller(s)   : CPU_CntLeadZeros(),
1407:..\..\..\..\..\..\Software\uC-CPU/cpu_core.c **** *               CPU_CntTrailZeros64(),
1408:..\..\..\..\..\..\Software\uC-CPU/cpu_core.c **** *               Application.
1409:..\..\..\..\..\..\Software\uC-CPU/cpu_core.c **** *
1410:..\..\..\..\..\..\Software\uC-CPU/cpu_core.c **** *               This function is a CPU module application programming interface (API) function & MA
1411:..\..\..\..\..\..\Software\uC-CPU/cpu_core.c **** *               called by application function(s).
1412:..\..\..\..\..\..\Software\uC-CPU/cpu_core.c **** *
1413:..\..\..\..\..\..\Software\uC-CPU/cpu_core.c **** * Note(s)     : (1) Supports 64-bit values :
1414:..\..\..\..\..\..\Software\uC-CPU/cpu_core.c **** *
1415:..\..\..\..\..\..\Software\uC-CPU/cpu_core.c **** *                          b63  b62  b61  ...  b04  b03  b02  b01  b00    # Leading Zeros
1416:..\..\..\..\..\..\Software\uC-CPU/cpu_core.c **** *                          ---  ---  ---       ---  ---  ---  ---  ---    ---------------
1417:..\..\..\..\..\..\Software\uC-CPU/cpu_core.c **** *                           1    x    x         x    x    x    x    x            0
1418:..\..\..\..\..\..\Software\uC-CPU/cpu_core.c **** *                           0    1    x         x    x    x    x    x            1
1419:..\..\..\..\..\..\Software\uC-CPU/cpu_core.c **** *                           0    0    1         x    x    x    x    x            2
1420:..\..\..\..\..\..\Software\uC-CPU/cpu_core.c **** *                           :    :    :         :    :    :    :    :            :
1421:..\..\..\..\..\..\Software\uC-CPU/cpu_core.c **** *                           :    :    :         :    :    :    :    :            :
1422:..\..\..\..\..\..\Software\uC-CPU/cpu_core.c **** *                           0    0    0         1    x    x    x    x           59
1423:..\..\..\..\..\..\Software\uC-CPU/cpu_core.c **** *                           0    0    0         0    1    x    x    x           60
1424:..\..\..\..\..\..\Software\uC-CPU/cpu_core.c **** *                           0    0    0         0    0    1    x    x           61
1425:..\..\..\..\..\..\Software\uC-CPU/cpu_core.c **** *                           0    0    0         0    0    0    1    x           62
1426:..\..\..\..\..\..\Software\uC-CPU/cpu_core.c **** *                           0    0    0         0    0    0    0    1           63
1427:..\..\..\..\..\..\Software\uC-CPU/cpu_core.c **** *                           0    0    0         0    0    0    0    0           64
1428:..\..\..\..\..\..\Software\uC-CPU/cpu_core.c **** *
1429:..\..\..\..\..\..\Software\uC-CPU/cpu_core.c **** *
1430:..\..\..\..\..\..\Software\uC-CPU/cpu_core.c **** *                   See also 'CPU COUNT LEAD ZEROs LOOKUP TABLE  Note #1'.
1431:..\..\..\..\..\..\Software\uC-CPU/cpu_core.c **** ***************************************************************************************************
1432:..\..\..\..\..\..\Software\uC-CPU/cpu_core.c **** */
1433:..\..\..\..\..\..\Software\uC-CPU/cpu_core.c **** 
ARM GAS  C:\Users\ADMINI~1\AppData\Local\Temp\ccaBZmtr.s 			page 49


1434:..\..\..\..\..\..\Software\uC-CPU/cpu_core.c **** #if (CPU_CFG_DATA_SIZE_MAX >= CPU_WORD_SIZE_64)
1435:..\..\..\..\..\..\Software\uC-CPU/cpu_core.c **** CPU_DATA  CPU_CntLeadZeros64 (CPU_INT64U  val)
1436:..\..\..\..\..\..\Software\uC-CPU/cpu_core.c **** {
 1304              		.loc 1 1436 0
 1305              		.cfi_startproc
 1306              		@ args = 0, pretend = 0, frame = 64
 1307              		@ frame_needed = 1, uses_anonymous_args = 0
 1308 0000 B0B5     		push	{r4, r5, r7, lr}
 1309              		.cfi_def_cfa_offset 16
 1310              		.cfi_offset 4, -16
 1311              		.cfi_offset 5, -12
 1312              		.cfi_offset 7, -8
 1313              		.cfi_offset 14, -4
 1314 0002 90B0     		sub	sp, sp, #64
 1315              		.cfi_def_cfa_offset 80
 1316 0004 00AF     		add	r7, sp, #0
 1317              		.cfi_def_cfa_register 7
 1318 0006 3863     		str	r0, [r7, #48]
 1319 0008 7963     		str	r1, [r7, #52]
1437:..\..\..\..\..\..\Software\uC-CPU/cpu_core.c **** #if  (!((defined(CPU_CFG_LEAD_ZEROS_ASM_PRESENT)) && \
1438:..\..\..\..\..\..\Software\uC-CPU/cpu_core.c ****         (CPU_CFG_DATA_SIZE >= CPU_WORD_SIZE_64)))
1439:..\..\..\..\..\..\Software\uC-CPU/cpu_core.c ****     CPU_DATA  ix;
1440:..\..\..\..\..\..\Software\uC-CPU/cpu_core.c **** #endif
1441:..\..\..\..\..\..\Software\uC-CPU/cpu_core.c ****     CPU_DATA  nbr_lead_zeros;
1442:..\..\..\..\..\..\Software\uC-CPU/cpu_core.c **** 
1443:..\..\..\..\..\..\Software\uC-CPU/cpu_core.c ****                                                                                 /* ---------- ASM-O
1444:..\..\..\..\..\..\Software\uC-CPU/cpu_core.c **** #if ((defined(CPU_CFG_LEAD_ZEROS_ASM_PRESENT)) && \
1445:..\..\..\..\..\..\Software\uC-CPU/cpu_core.c ****      (CPU_CFG_DATA_SIZE >= CPU_WORD_SIZE_64))
1446:..\..\..\..\..\..\Software\uC-CPU/cpu_core.c ****     nbr_lead_zeros  =  CPU_CntLeadZeros((CPU_DATA)val);
1447:..\..\..\..\..\..\Software\uC-CPU/cpu_core.c ****     nbr_lead_zeros -= (CPU_CFG_DATA_SIZE - CPU_WORD_SIZE_64) * DEF_OCTET_NBR_BITS;
1448:..\..\..\..\..\..\Software\uC-CPU/cpu_core.c **** 
1449:..\..\..\..\..\..\Software\uC-CPU/cpu_core.c **** 
1450:..\..\..\..\..\..\Software\uC-CPU/cpu_core.c **** #else                                                                           /* ----------- C-OP
1451:..\..\..\..\..\..\Software\uC-CPU/cpu_core.c ****     if (val > 0x00000000FFFFFFFFu) {
 1320              		.loc 1 1451 0
 1321 000a 7B6B     		ldr	r3, [r7, #52]
 1322 000c 002B     		cmp	r3, #0
 1323 000e 03D1     		bne	.L96
1452:..\..\..\..\..\..\Software\uC-CPU/cpu_core.c ****         if (val > 0x0000FFFFFFFFFFFFu) {
1453:..\..\..\..\..\..\Software\uC-CPU/cpu_core.c ****             if (val > 0x00FFFFFFFFFFFFFFu) {                                    /* Chk bits [63:56]
1454:..\..\..\..\..\..\Software\uC-CPU/cpu_core.c ****                                                                                 /* .. Nbr lead zero
1455:..\..\..\..\..\..\Software\uC-CPU/cpu_core.c ****                 ix             = (CPU_DATA)((CPU_INT64U)val >> 56u);            /* .. lookup tbl ix
1456:..\..\..\..\..\..\Software\uC-CPU/cpu_core.c ****                 nbr_lead_zeros = (CPU_DATA)(CPU_CntLeadZerosTbl[ix]);           /* .. plus nbr msb 
1457:..\..\..\..\..\..\Software\uC-CPU/cpu_core.c **** 
1458:..\..\..\..\..\..\Software\uC-CPU/cpu_core.c ****             } else {                                                            /* Chk bits [55:48]
1459:..\..\..\..\..\..\Software\uC-CPU/cpu_core.c ****                                                                                 /* .. Nbr lead zero
1460:..\..\..\..\..\..\Software\uC-CPU/cpu_core.c ****                 ix             = (CPU_DATA)((CPU_INT64U)val >> 48u);            /* .. lookup tbl ix
1461:..\..\..\..\..\..\Software\uC-CPU/cpu_core.c ****                 nbr_lead_zeros = (CPU_DATA)((CPU_INT64U)CPU_CntLeadZerosTbl[ix] +  8u);/* .. plus n
1462:..\..\..\..\..\..\Software\uC-CPU/cpu_core.c ****             }
1463:..\..\..\..\..\..\Software\uC-CPU/cpu_core.c **** 
1464:..\..\..\..\..\..\Software\uC-CPU/cpu_core.c ****         } else {
1465:..\..\..\..\..\..\Software\uC-CPU/cpu_core.c ****             if (val > 0x000000FFFFFFFFFFu) {                                    /* Chk bits [47:40]
1466:..\..\..\..\..\..\Software\uC-CPU/cpu_core.c ****                                                                                 /* .. Nbr lead zero
1467:..\..\..\..\..\..\Software\uC-CPU/cpu_core.c ****                 ix             = (CPU_DATA)((CPU_INT64U)val >> 40u);            /* .. lookup tbl ix
1468:..\..\..\..\..\..\Software\uC-CPU/cpu_core.c ****                 nbr_lead_zeros = (CPU_DATA)((CPU_INT64U)CPU_CntLeadZerosTbl[ix] + 16u);/* .. plus n
1469:..\..\..\..\..\..\Software\uC-CPU/cpu_core.c **** 
1470:..\..\..\..\..\..\Software\uC-CPU/cpu_core.c ****             } else {                                                            /* Chk bits [39:32]
ARM GAS  C:\Users\ADMINI~1\AppData\Local\Temp\ccaBZmtr.s 			page 50


1471:..\..\..\..\..\..\Software\uC-CPU/cpu_core.c ****                                                                                 /* .. Nbr lead zero
1472:..\..\..\..\..\..\Software\uC-CPU/cpu_core.c ****                 ix             = (CPU_DATA)((CPU_INT64U)val >> 32u);            /* .. lookup tbl ix
1473:..\..\..\..\..\..\Software\uC-CPU/cpu_core.c ****                 nbr_lead_zeros = (CPU_DATA)((CPU_INT64U)CPU_CntLeadZerosTbl[ix] + 24u);/* .. plus n
1474:..\..\..\..\..\..\Software\uC-CPU/cpu_core.c ****             }
1475:..\..\..\..\..\..\Software\uC-CPU/cpu_core.c ****         }
1476:..\..\..\..\..\..\Software\uC-CPU/cpu_core.c **** 
1477:..\..\..\..\..\..\Software\uC-CPU/cpu_core.c ****     } else {
1478:..\..\..\..\..\..\Software\uC-CPU/cpu_core.c ****         if (val > 0x000000000000FFFFu) {
 1324              		.loc 1 1478 0
 1325 0010 7B6B     		ldr	r3, [r7, #52]
 1326 0012 002B     		cmp	r3, #0
 1327 0014 4AD1     		bne	.L100
 1328 0016 42E0     		b	.L103
 1329              	.L96:
1452:..\..\..\..\..\..\Software\uC-CPU/cpu_core.c ****         if (val > 0x0000FFFFFFFFFFFFu) {
 1330              		.loc 1 1452 0
 1331 0018 7B6B     		ldr	r3, [r7, #52]
 1332 001a 504A     		ldr	r2, .L105
 1333 001c 9342     		cmp	r3, r2
 1334 001e 03D8     		bhi	.L97
1465:..\..\..\..\..\..\Software\uC-CPU/cpu_core.c ****                                                                                 /* .. Nbr lead zero
 1335              		.loc 1 1465 0
 1336 0020 7B6B     		ldr	r3, [r7, #52]
 1337 0022 FF2B     		cmp	r3, #255
 1338 0024 2DD8     		bhi	.L99
 1339 0026 1EE0     		b	.L104
 1340              	.L97:
1453:..\..\..\..\..\..\Software\uC-CPU/cpu_core.c ****                                                                                 /* .. Nbr lead zero
 1341              		.loc 1 1453 0
 1342 0028 7B6B     		ldr	r3, [r7, #52]
 1343 002a 4D4A     		ldr	r2, .L105+4
 1344 002c 9342     		cmp	r3, r2
 1345 002e 0DD8     		bhi	.L98
1460:..\..\..\..\..\..\Software\uC-CPU/cpu_core.c ****                 nbr_lead_zeros = (CPU_DATA)((CPU_INT64U)CPU_CntLeadZerosTbl[ix] +  8u);/* .. plus n
 1346              		.loc 1 1460 0
 1347 0030 7B6B     		ldr	r3, [r7, #52]
 1348 0032 1B0C     		lsrs	r3, r3, #16
 1349 0034 3B61     		str	r3, [r7, #16]
 1350 0036 0023     		movs	r3, #0
 1351 0038 7B61     		str	r3, [r7, #20]
 1352 003a 3B69     		ldr	r3, [r7, #16]
 1353 003c BB63     		str	r3, [r7, #56]
1461:..\..\..\..\..\..\Software\uC-CPU/cpu_core.c ****             }
 1354              		.loc 1 1461 0
 1355 003e 494A     		ldr	r2, .L105+8
 1356 0040 BB6B     		ldr	r3, [r7, #56]
 1357 0042 D318     		adds	r3, r2, r3
 1358 0044 1B78     		ldrb	r3, [r3]
 1359 0046 0833     		adds	r3, r3, #8
 1360 0048 FB63     		str	r3, [r7, #60]
 1361 004a 82E0     		b	.L87
 1362              	.L98:
1455:..\..\..\..\..\..\Software\uC-CPU/cpu_core.c ****                 nbr_lead_zeros = (CPU_DATA)(CPU_CntLeadZerosTbl[ix]);           /* .. plus nbr msb 
 1363              		.loc 1 1455 0
 1364 004c 7B6B     		ldr	r3, [r7, #52]
 1365 004e 1B0E     		lsrs	r3, r3, #24
 1366 0050 BB61     		str	r3, [r7, #24]
ARM GAS  C:\Users\ADMINI~1\AppData\Local\Temp\ccaBZmtr.s 			page 51


 1367 0052 0023     		movs	r3, #0
 1368 0054 FB61     		str	r3, [r7, #28]
 1369 0056 BB69     		ldr	r3, [r7, #24]
 1370 0058 BB63     		str	r3, [r7, #56]
1456:..\..\..\..\..\..\Software\uC-CPU/cpu_core.c **** 
 1371              		.loc 1 1456 0
 1372 005a 424A     		ldr	r2, .L105+8
 1373 005c BB6B     		ldr	r3, [r7, #56]
 1374 005e D318     		adds	r3, r2, r3
 1375 0060 1B78     		ldrb	r3, [r3]
 1376 0062 FB63     		str	r3, [r7, #60]
 1377 0064 75E0     		b	.L87
 1378              	.L104:
1472:..\..\..\..\..\..\Software\uC-CPU/cpu_core.c ****                 nbr_lead_zeros = (CPU_DATA)((CPU_INT64U)CPU_CntLeadZerosTbl[ix] + 24u);/* .. plus n
 1379              		.loc 1 1472 0
 1380 0066 7B6B     		ldr	r3, [r7, #52]
 1381 0068 1B00     		lsrs	r3, r3, #0
 1382 006a 3B60     		str	r3, [r7]
 1383 006c 0023     		movs	r3, #0
 1384 006e 7B60     		str	r3, [r7, #4]
 1385 0070 3B68     		ldr	r3, [r7]
 1386 0072 BB63     		str	r3, [r7, #56]
1473:..\..\..\..\..\..\Software\uC-CPU/cpu_core.c ****             }
 1387              		.loc 1 1473 0
 1388 0074 3B4A     		ldr	r2, .L105+8
 1389 0076 BB6B     		ldr	r3, [r7, #56]
 1390 0078 D318     		adds	r3, r2, r3
 1391 007a 1B78     		ldrb	r3, [r3]
 1392 007c 1833     		adds	r3, r3, #24
 1393 007e FB63     		str	r3, [r7, #60]
 1394 0080 67E0     		b	.L87
 1395              	.L99:
1467:..\..\..\..\..\..\Software\uC-CPU/cpu_core.c ****                 nbr_lead_zeros = (CPU_DATA)((CPU_INT64U)CPU_CntLeadZerosTbl[ix] + 16u);/* .. plus n
 1396              		.loc 1 1467 0
 1397 0082 7B6B     		ldr	r3, [r7, #52]
 1398 0084 1B0A     		lsrs	r3, r3, #8
 1399 0086 BB60     		str	r3, [r7, #8]
 1400 0088 0023     		movs	r3, #0
 1401 008a FB60     		str	r3, [r7, #12]
 1402 008c BB68     		ldr	r3, [r7, #8]
 1403 008e BB63     		str	r3, [r7, #56]
1468:..\..\..\..\..\..\Software\uC-CPU/cpu_core.c **** 
 1404              		.loc 1 1468 0
 1405 0090 344A     		ldr	r2, .L105+8
 1406 0092 BB6B     		ldr	r3, [r7, #56]
 1407 0094 D318     		adds	r3, r2, r3
 1408 0096 1B78     		ldrb	r3, [r3]
 1409 0098 1033     		adds	r3, r3, #16
 1410 009a FB63     		str	r3, [r7, #60]
 1411 009c 59E0     		b	.L87
 1412              	.L103:
 1413              		.loc 1 1478 0
 1414 009e 7B6B     		ldr	r3, [r7, #52]
 1415 00a0 002B     		cmp	r3, #0
 1416 00a2 35D1     		bne	.L88
 1417 00a4 3B6B     		ldr	r3, [r7, #48]
 1418 00a6 2D4A     		ldr	r2, .L105
ARM GAS  C:\Users\ADMINI~1\AppData\Local\Temp\ccaBZmtr.s 			page 52


 1419 00a8 9342     		cmp	r3, r2
 1420 00aa 31D9     		bls	.L88
 1421              	.L100:
1479:..\..\..\..\..\..\Software\uC-CPU/cpu_core.c ****             if (val > 0x0000000000FFFFFFu) {                                    /* Chk bits [31:24]
 1422              		.loc 1 1479 0
 1423 00ac 7B6B     		ldr	r3, [r7, #52]
 1424 00ae 002B     		cmp	r3, #0
 1425 00b0 06D1     		bne	.L101
 1426 00b2 7B6B     		ldr	r3, [r7, #52]
 1427 00b4 002B     		cmp	r3, #0
 1428 00b6 17D1     		bne	.L90
 1429 00b8 3B6B     		ldr	r3, [r7, #48]
 1430 00ba 294A     		ldr	r2, .L105+4
 1431 00bc 9342     		cmp	r3, r2
 1432 00be 13D9     		bls	.L90
 1433              	.L101:
1480:..\..\..\..\..\..\Software\uC-CPU/cpu_core.c ****                                                                                 /* .. Nbr lead zero
1481:..\..\..\..\..\..\Software\uC-CPU/cpu_core.c ****                 ix             = (CPU_DATA)((CPU_INT64U)val >> 24u);              /* .. lookup tbl 
 1434              		.loc 1 1481 0
 1435 00c0 7B6B     		ldr	r3, [r7, #52]
 1436 00c2 1B02     		lsls	r3, r3, #8
 1437 00c4 3A6B     		ldr	r2, [r7, #48]
 1438 00c6 120E     		lsrs	r2, r2, #24
 1439 00c8 BA62     		str	r2, [r7, #40]
 1440 00ca BA6A     		ldr	r2, [r7, #40]
 1441 00cc 1A43     		orrs	r2, r3
 1442 00ce BA62     		str	r2, [r7, #40]
 1443 00d0 7B6B     		ldr	r3, [r7, #52]
 1444 00d2 1B0E     		lsrs	r3, r3, #24
 1445 00d4 FB62     		str	r3, [r7, #44]
 1446 00d6 BB6A     		ldr	r3, [r7, #40]
 1447 00d8 BB63     		str	r3, [r7, #56]
1482:..\..\..\..\..\..\Software\uC-CPU/cpu_core.c ****                 nbr_lead_zeros = (CPU_DATA)((CPU_INT64U)CPU_CntLeadZerosTbl[ix] + 32u);/* .. plus n
 1448              		.loc 1 1482 0
 1449 00da 224A     		ldr	r2, .L105+8
 1450 00dc BB6B     		ldr	r3, [r7, #56]
 1451 00de D318     		adds	r3, r2, r3
 1452 00e0 1B78     		ldrb	r3, [r3]
 1453 00e2 2033     		adds	r3, r3, #32
 1454 00e4 FB63     		str	r3, [r7, #60]
 1455 00e6 34E0     		b	.L87
 1456              	.L90:
1483:..\..\..\..\..\..\Software\uC-CPU/cpu_core.c **** 
1484:..\..\..\..\..\..\Software\uC-CPU/cpu_core.c ****             } else {                                                            /* Chk bits [23:16]
1485:..\..\..\..\..\..\Software\uC-CPU/cpu_core.c ****                                                                                 /* .. Nbr lead zero
1486:..\..\..\..\..\..\Software\uC-CPU/cpu_core.c ****                 ix             = (CPU_DATA)((CPU_INT64U)val >> 16u);            /* .. lookup tbl ix
 1457              		.loc 1 1486 0
 1458 00e8 7B6B     		ldr	r3, [r7, #52]
 1459 00ea 1B04     		lsls	r3, r3, #16
 1460 00ec 3A6B     		ldr	r2, [r7, #48]
 1461 00ee 120C     		lsrs	r2, r2, #16
 1462 00f0 3A62     		str	r2, [r7, #32]
 1463 00f2 3A6A     		ldr	r2, [r7, #32]
 1464 00f4 1A43     		orrs	r2, r3
 1465 00f6 3A62     		str	r2, [r7, #32]
 1466 00f8 7B6B     		ldr	r3, [r7, #52]
 1467 00fa 1B0C     		lsrs	r3, r3, #16
ARM GAS  C:\Users\ADMINI~1\AppData\Local\Temp\ccaBZmtr.s 			page 53


 1468 00fc 7B62     		str	r3, [r7, #36]
 1469 00fe 3B6A     		ldr	r3, [r7, #32]
 1470 0100 BB63     		str	r3, [r7, #56]
1487:..\..\..\..\..\..\Software\uC-CPU/cpu_core.c ****                 nbr_lead_zeros = (CPU_DATA)((CPU_INT64U)CPU_CntLeadZerosTbl[ix] + 40u);/* .. plus n
 1471              		.loc 1 1487 0
 1472 0102 184A     		ldr	r2, .L105+8
 1473 0104 BB6B     		ldr	r3, [r7, #56]
 1474 0106 D318     		adds	r3, r2, r3
 1475 0108 1B78     		ldrb	r3, [r3]
 1476 010a 2833     		adds	r3, r3, #40
 1477 010c FB63     		str	r3, [r7, #60]
 1478 010e 20E0     		b	.L87
 1479              	.L88:
1488:..\..\..\..\..\..\Software\uC-CPU/cpu_core.c ****             }
1489:..\..\..\..\..\..\Software\uC-CPU/cpu_core.c **** 
1490:..\..\..\..\..\..\Software\uC-CPU/cpu_core.c ****         } else {
1491:..\..\..\..\..\..\Software\uC-CPU/cpu_core.c ****             if (val > 0x00000000000000FFu) {                                    /* Chk bits [15:08]
 1480              		.loc 1 1491 0
 1481 0110 7B6B     		ldr	r3, [r7, #52]
 1482 0112 002B     		cmp	r3, #0
 1483 0114 05D1     		bne	.L102
 1484 0116 7B6B     		ldr	r3, [r7, #52]
 1485 0118 002B     		cmp	r3, #0
 1486 011a 12D1     		bne	.L93
 1487 011c 3B6B     		ldr	r3, [r7, #48]
 1488 011e FF2B     		cmp	r3, #255
 1489 0120 0FD9     		bls	.L93
 1490              	.L102:
1492:..\..\..\..\..\..\Software\uC-CPU/cpu_core.c ****                                                                                 /* .. Nbr lead zero
1493:..\..\..\..\..\..\Software\uC-CPU/cpu_core.c ****                 ix             = (CPU_DATA)((CPU_INT64U)val >>  8u);            /* .. lookup tbl ix
 1491              		.loc 1 1493 0
 1492 0122 7B6B     		ldr	r3, [r7, #52]
 1493 0124 1B06     		lsls	r3, r3, #24
 1494 0126 3A6B     		ldr	r2, [r7, #48]
 1495 0128 140A     		lsrs	r4, r2, #8
 1496 012a 1C43     		orrs	r4, r3
 1497 012c 7B6B     		ldr	r3, [r7, #52]
 1498 012e 1D0A     		lsrs	r5, r3, #8
 1499 0130 2300     		movs	r3, r4
 1500 0132 BB63     		str	r3, [r7, #56]
1494:..\..\..\..\..\..\Software\uC-CPU/cpu_core.c ****                 nbr_lead_zeros = (CPU_DATA)((CPU_INT64U)CPU_CntLeadZerosTbl[ix] + 48u);/* .. plus n
 1501              		.loc 1 1494 0
 1502 0134 0B4A     		ldr	r2, .L105+8
 1503 0136 BB6B     		ldr	r3, [r7, #56]
 1504 0138 D318     		adds	r3, r2, r3
 1505 013a 1B78     		ldrb	r3, [r3]
 1506 013c 3033     		adds	r3, r3, #48
 1507 013e FB63     		str	r3, [r7, #60]
 1508 0140 07E0     		b	.L87
 1509              	.L93:
1495:..\..\..\..\..\..\Software\uC-CPU/cpu_core.c **** 
1496:..\..\..\..\..\..\Software\uC-CPU/cpu_core.c ****             } else {                                                            /* Chk bits [07:00]
1497:..\..\..\..\..\..\Software\uC-CPU/cpu_core.c ****                                                                                 /* .. Nbr lead zero
1498:..\..\..\..\..\..\Software\uC-CPU/cpu_core.c ****                 ix             = (CPU_DATA)(val);                               /* .. lookup tbl ix
 1510              		.loc 1 1498 0
 1511 0142 3B6B     		ldr	r3, [r7, #48]
 1512 0144 BB63     		str	r3, [r7, #56]
ARM GAS  C:\Users\ADMINI~1\AppData\Local\Temp\ccaBZmtr.s 			page 54


1499:..\..\..\..\..\..\Software\uC-CPU/cpu_core.c ****                 nbr_lead_zeros = (CPU_DATA)((CPU_INT64U)CPU_CntLeadZerosTbl[ix] + 56u);/* .. plus n
 1513              		.loc 1 1499 0
 1514 0146 074A     		ldr	r2, .L105+8
 1515 0148 BB6B     		ldr	r3, [r7, #56]
 1516 014a D318     		adds	r3, r2, r3
 1517 014c 1B78     		ldrb	r3, [r3]
 1518 014e 3833     		adds	r3, r3, #56
 1519 0150 FB63     		str	r3, [r7, #60]
 1520              	.L87:
1500:..\..\..\..\..\..\Software\uC-CPU/cpu_core.c ****             }
1501:..\..\..\..\..\..\Software\uC-CPU/cpu_core.c ****         }
1502:..\..\..\..\..\..\Software\uC-CPU/cpu_core.c ****     }
1503:..\..\..\..\..\..\Software\uC-CPU/cpu_core.c **** #endif
1504:..\..\..\..\..\..\Software\uC-CPU/cpu_core.c **** 
1505:..\..\..\..\..\..\Software\uC-CPU/cpu_core.c **** 
1506:..\..\..\..\..\..\Software\uC-CPU/cpu_core.c ****     return (nbr_lead_zeros);
 1521              		.loc 1 1506 0
 1522 0152 FB6B     		ldr	r3, [r7, #60]
1507:..\..\..\..\..\..\Software\uC-CPU/cpu_core.c **** }
 1523              		.loc 1 1507 0
 1524 0154 1800     		movs	r0, r3
 1525 0156 BD46     		mov	sp, r7
 1526 0158 10B0     		add	sp, sp, #64
 1527              		@ sp needed
 1528 015a B0BD     		pop	{r4, r5, r7, pc}
 1529              	.L106:
 1530              		.align	2
 1531              	.L105:
 1532 015c FFFF0000 		.word	65535
 1533 0160 FFFFFF00 		.word	16777215
 1534 0164 00000000 		.word	CPU_CntLeadZerosTbl
 1535              		.cfi_endproc
 1536              	.LFE18:
 1537              		.size	CPU_CntLeadZeros64, .-CPU_CntLeadZeros64
 1538              		.section	.text.CPU_CntTrailZeros,"ax",%progbits
 1539              		.align	2
 1540              		.global	CPU_CntTrailZeros
 1541              		.code	16
 1542              		.thumb_func
 1543              		.type	CPU_CntTrailZeros, %function
 1544              	CPU_CntTrailZeros:
 1545              	.LFB19:
1508:..\..\..\..\..\..\Software\uC-CPU/cpu_core.c **** #endif
1509:..\..\..\..\..\..\Software\uC-CPU/cpu_core.c **** 
1510:..\..\..\..\..\..\Software\uC-CPU/cpu_core.c **** 
1511:..\..\..\..\..\..\Software\uC-CPU/cpu_core.c **** /*
1512:..\..\..\..\..\..\Software\uC-CPU/cpu_core.c **** ***************************************************************************************************
1513:..\..\..\..\..\..\Software\uC-CPU/cpu_core.c **** *                                         CPU_CntTrailZeros()
1514:..\..\..\..\..\..\Software\uC-CPU/cpu_core.c **** *
1515:..\..\..\..\..\..\Software\uC-CPU/cpu_core.c **** * Description : Count the number of contiguous, least-significant, trailing zero bits in a data val
1516:..\..\..\..\..\..\Software\uC-CPU/cpu_core.c **** *
1517:..\..\..\..\..\..\Software\uC-CPU/cpu_core.c **** * Argument(s) : val         Data value to count trailing zero bits.
1518:..\..\..\..\..\..\Software\uC-CPU/cpu_core.c **** *
1519:..\..\..\..\..\..\Software\uC-CPU/cpu_core.c **** * Return(s)   : Number of contiguous, least-significant, trailing zero bits in 'val'.
1520:..\..\..\..\..\..\Software\uC-CPU/cpu_core.c **** *
1521:..\..\..\..\..\..\Software\uC-CPU/cpu_core.c **** * Caller(s)   : Application.
1522:..\..\..\..\..\..\Software\uC-CPU/cpu_core.c **** *
ARM GAS  C:\Users\ADMINI~1\AppData\Local\Temp\ccaBZmtr.s 			page 55


1523:..\..\..\..\..\..\Software\uC-CPU/cpu_core.c **** *               This function is a CPU module application programming interface (API) function & MA
1524:..\..\..\..\..\..\Software\uC-CPU/cpu_core.c **** *               be called by application function(s).
1525:..\..\..\..\..\..\Software\uC-CPU/cpu_core.c **** *
1526:..\..\..\..\..\..\Software\uC-CPU/cpu_core.c **** * Note(s)     : (1) (a) Supports the following data value sizes :
1527:..\..\..\..\..\..\Software\uC-CPU/cpu_core.c **** *
1528:..\..\..\..\..\..\Software\uC-CPU/cpu_core.c **** *                       (1)  8-bits
1529:..\..\..\..\..\..\Software\uC-CPU/cpu_core.c **** *                       (2) 16-bits
1530:..\..\..\..\..\..\Software\uC-CPU/cpu_core.c **** *                       (3) 32-bits
1531:..\..\..\..\..\..\Software\uC-CPU/cpu_core.c **** *                       (4) 64-bits
1532:..\..\..\..\..\..\Software\uC-CPU/cpu_core.c **** *
1533:..\..\..\..\..\..\Software\uC-CPU/cpu_core.c **** *                       See also 'cpu_def.h  CPU WORD CONFIGURATION  Note #1'.
1534:..\..\..\..\..\..\Software\uC-CPU/cpu_core.c **** *
1535:..\..\..\..\..\..\Software\uC-CPU/cpu_core.c **** *                   (b) (1) For  8-bit values :
1536:..\..\..\..\..\..\Software\uC-CPU/cpu_core.c **** *
1537:..\..\..\..\..\..\Software\uC-CPU/cpu_core.c **** *                                  b07  b06  b05  b04  b03  b02  b01  b00    # Trailing Zeros
1538:..\..\..\..\..\..\Software\uC-CPU/cpu_core.c **** *                                  ---  ---  ---  ---  ---  ---  ---  ---    ----------------
1539:..\..\..\..\..\..\Software\uC-CPU/cpu_core.c **** *                                   x    x    x    x    x    x    x    1            0
1540:..\..\..\..\..\..\Software\uC-CPU/cpu_core.c **** *                                   x    x    x    x    x    x    1    0            1
1541:..\..\..\..\..\..\Software\uC-CPU/cpu_core.c **** *                                   x    x    x    x    x    1    0    0            2
1542:..\..\..\..\..\..\Software\uC-CPU/cpu_core.c **** *                                   x    x    x    x    1    0    0    0            3
1543:..\..\..\..\..\..\Software\uC-CPU/cpu_core.c **** *                                   x    x    x    1    0    0    0    0            4
1544:..\..\..\..\..\..\Software\uC-CPU/cpu_core.c **** *                                   x    x    1    0    0    0    0    0            5
1545:..\..\..\..\..\..\Software\uC-CPU/cpu_core.c **** *                                   x    1    0    0    0    0    0    0            6
1546:..\..\..\..\..\..\Software\uC-CPU/cpu_core.c **** *                                   1    0    0    0    0    0    0    0            7
1547:..\..\..\..\..\..\Software\uC-CPU/cpu_core.c **** *                                   0    0    0    0    0    0    0    0            8
1548:..\..\..\..\..\..\Software\uC-CPU/cpu_core.c **** *
1549:..\..\..\..\..\..\Software\uC-CPU/cpu_core.c **** *
1550:..\..\..\..\..\..\Software\uC-CPU/cpu_core.c **** *                       (2) For 16-bit values :
1551:..\..\..\..\..\..\Software\uC-CPU/cpu_core.c **** *
1552:..\..\..\..\..\..\Software\uC-CPU/cpu_core.c **** *                             b15  b14  b13  b12  b11  ...  b02  b01  b00    # Trailing Zeros
1553:..\..\..\..\..\..\Software\uC-CPU/cpu_core.c **** *                             ---  ---  ---  ---  ---       ---  ---  ---    ----------------
1554:..\..\..\..\..\..\Software\uC-CPU/cpu_core.c **** *                              x    x    x    x    x         x    x    1            0
1555:..\..\..\..\..\..\Software\uC-CPU/cpu_core.c **** *                              x    x    x    x    x         x    1    0            1
1556:..\..\..\..\..\..\Software\uC-CPU/cpu_core.c **** *                              x    x    x    x    x         1    0    0            2
1557:..\..\..\..\..\..\Software\uC-CPU/cpu_core.c **** *                              :    :    :    :    :         :    :    :            :
1558:..\..\..\..\..\..\Software\uC-CPU/cpu_core.c **** *                              :    :    :    :    :         :    :    :            :
1559:..\..\..\..\..\..\Software\uC-CPU/cpu_core.c **** *                              x    x    x    x    1         0    0    0           11
1560:..\..\..\..\..\..\Software\uC-CPU/cpu_core.c **** *                              x    x    x    1    0         0    0    0           12
1561:..\..\..\..\..\..\Software\uC-CPU/cpu_core.c **** *                              x    x    1    0    0         0    0    0           13
1562:..\..\..\..\..\..\Software\uC-CPU/cpu_core.c **** *                              x    1    0    0    0         0    0    0           14
1563:..\..\..\..\..\..\Software\uC-CPU/cpu_core.c **** *                              1    0    0    0    0         0    0    0           15
1564:..\..\..\..\..\..\Software\uC-CPU/cpu_core.c **** *                              0    0    0    0    0         0    0    0           16
1565:..\..\..\..\..\..\Software\uC-CPU/cpu_core.c **** *
1566:..\..\..\..\..\..\Software\uC-CPU/cpu_core.c **** *
1567:..\..\..\..\..\..\Software\uC-CPU/cpu_core.c **** *                       (3) For 32-bit values :
1568:..\..\..\..\..\..\Software\uC-CPU/cpu_core.c **** *
1569:..\..\..\..\..\..\Software\uC-CPU/cpu_core.c **** *                             b31  b30  b29  b28  b27  ...  b02  b01  b00    # Trailing Zeros
1570:..\..\..\..\..\..\Software\uC-CPU/cpu_core.c **** *                             ---  ---  ---  ---  ---       ---  ---  ---    ----------------
1571:..\..\..\..\..\..\Software\uC-CPU/cpu_core.c **** *                              x    x    x    x    x         x    x    1            0
1572:..\..\..\..\..\..\Software\uC-CPU/cpu_core.c **** *                              x    x    x    x    x         x    1    0            1
1573:..\..\..\..\..\..\Software\uC-CPU/cpu_core.c **** *                              x    x    x    x    x         1    0    0            2
1574:..\..\..\..\..\..\Software\uC-CPU/cpu_core.c **** *                              :    :    :    :    :         :    :    :            :
1575:..\..\..\..\..\..\Software\uC-CPU/cpu_core.c **** *                              :    :    :    :    :         :    :    :            :
1576:..\..\..\..\..\..\Software\uC-CPU/cpu_core.c **** *                              x    x    x    x    1         0    0    0           27
1577:..\..\..\..\..\..\Software\uC-CPU/cpu_core.c **** *                              x    x    x    1    0         0    0    0           28
1578:..\..\..\..\..\..\Software\uC-CPU/cpu_core.c **** *                              x    x    1    0    0         0    0    0           29
1579:..\..\..\..\..\..\Software\uC-CPU/cpu_core.c **** *                              x    1    0    0    0         0    0    0           30
ARM GAS  C:\Users\ADMINI~1\AppData\Local\Temp\ccaBZmtr.s 			page 56


1580:..\..\..\..\..\..\Software\uC-CPU/cpu_core.c **** *                              1    0    0    0    0         0    0    0           31
1581:..\..\..\..\..\..\Software\uC-CPU/cpu_core.c **** *                              0    0    0    0    0         0    0    0           32
1582:..\..\..\..\..\..\Software\uC-CPU/cpu_core.c **** *
1583:..\..\..\..\..\..\Software\uC-CPU/cpu_core.c **** *
1584:..\..\..\..\..\..\Software\uC-CPU/cpu_core.c **** *                       (4) For 64-bit values :
1585:..\..\..\..\..\..\Software\uC-CPU/cpu_core.c **** *
1586:..\..\..\..\..\..\Software\uC-CPU/cpu_core.c **** *                             b63  b62  b61  b60  b59  ...  b02  b01  b00    # Trailing Zeros
1587:..\..\..\..\..\..\Software\uC-CPU/cpu_core.c **** *                             ---  ---  ---  ---  ---       ---  ---  ---    ----------------
1588:..\..\..\..\..\..\Software\uC-CPU/cpu_core.c **** *                              x    x    x    x    x         x    x    1            0
1589:..\..\..\..\..\..\Software\uC-CPU/cpu_core.c **** *                              x    x    x    x    x         x    1    0            1
1590:..\..\..\..\..\..\Software\uC-CPU/cpu_core.c **** *                              x    x    x    x    x         1    0    0            2
1591:..\..\..\..\..\..\Software\uC-CPU/cpu_core.c **** *                              :    :    :    :    :         :    :    :            :
1592:..\..\..\..\..\..\Software\uC-CPU/cpu_core.c **** *                              :    :    :    :    :         :    :    :            :
1593:..\..\..\..\..\..\Software\uC-CPU/cpu_core.c **** *                              x    x    x    x    1         0    0    0           59
1594:..\..\..\..\..\..\Software\uC-CPU/cpu_core.c **** *                              x    x    x    1    0         0    0    0           60
1595:..\..\..\..\..\..\Software\uC-CPU/cpu_core.c **** *                              x    x    1    0    0         0    0    0           61
1596:..\..\..\..\..\..\Software\uC-CPU/cpu_core.c **** *                              x    1    0    0    0         0    0    0           62
1597:..\..\..\..\..\..\Software\uC-CPU/cpu_core.c **** *                              1    0    0    0    0         0    0    0           63
1598:..\..\..\..\..\..\Software\uC-CPU/cpu_core.c **** *                              0    0    0    0    0         0    0    0           64
1599:..\..\..\..\..\..\Software\uC-CPU/cpu_core.c **** *
1600:..\..\..\..\..\..\Software\uC-CPU/cpu_core.c **** *               (2) For non-zero values, the returned number of contiguous, least-significant, trai
1601:..\..\..\..\..\..\Software\uC-CPU/cpu_core.c **** *                   zero bits is also equivalent to the bit position of the least-significant set b
1602:..\..\..\..\..\..\Software\uC-CPU/cpu_core.c **** *
1603:..\..\..\..\..\..\Software\uC-CPU/cpu_core.c **** *               (3) 'val' SHOULD be validated for non-'0' PRIOR to all other counting zero calculat
1604:..\..\..\..\..\..\Software\uC-CPU/cpu_core.c **** *
1605:..\..\..\..\..\..\Software\uC-CPU/cpu_core.c **** *                   (a) CPU_CntTrailZeros()'s final conditional statement calculates 'val's number 
1606:..\..\..\..\..\..\Software\uC-CPU/cpu_core.c **** *                       trailing zeros based on its return data size, 'CPU_CFG_DATA_SIZE', & 'val's
1607:..\..\..\..\..\..\Software\uC-CPU/cpu_core.c **** *                       calculated number of lead zeros ONLY if the initial 'val' is non-'0' :
1608:..\..\..\..\..\..\Software\uC-CPU/cpu_core.c **** *
1609:..\..\..\..\..\..\Software\uC-CPU/cpu_core.c **** *                           if (val != 0u) {
1610:..\..\..\..\..\..\Software\uC-CPU/cpu_core.c **** *                               nbr_trail_zeros = ((CPU_CFG_DATA_SIZE * DEF_OCTET_NBR_BITS) - 1u) -
1611:..\..\..\..\..\..\Software\uC-CPU/cpu_core.c **** *                           } else {
1612:..\..\..\..\..\..\Software\uC-CPU/cpu_core.c **** *                               nbr_trail_zeros = nbr_lead_zeros;
1613:..\..\..\..\..\..\Software\uC-CPU/cpu_core.c **** *                           }
1614:..\..\..\..\..\..\Software\uC-CPU/cpu_core.c **** *
1615:..\..\..\..\..\..\Software\uC-CPU/cpu_core.c **** *                       Therefore, initially validating all non-'0' values avoids having to conditi
1616:..\..\..\..\..\..\Software\uC-CPU/cpu_core.c **** *                       execute the final 'if' statement.
1617:..\..\..\..\..\..\Software\uC-CPU/cpu_core.c **** ***************************************************************************************************
1618:..\..\..\..\..\..\Software\uC-CPU/cpu_core.c **** */
1619:..\..\..\..\..\..\Software\uC-CPU/cpu_core.c **** 
1620:..\..\..\..\..\..\Software\uC-CPU/cpu_core.c **** #ifndef   CPU_CFG_TRAIL_ZEROS_ASM_PRESENT
1621:..\..\..\..\..\..\Software\uC-CPU/cpu_core.c **** CPU_DATA  CPU_CntTrailZeros (CPU_DATA  val)
1622:..\..\..\..\..\..\Software\uC-CPU/cpu_core.c **** {
 1546              		.loc 1 1622 0
 1547              		.cfi_startproc
 1548              		@ args = 0, pretend = 0, frame = 24
 1549              		@ frame_needed = 1, uses_anonymous_args = 0
 1550 0000 80B5     		push	{r7, lr}
 1551              		.cfi_def_cfa_offset 8
 1552              		.cfi_offset 7, -8
 1553              		.cfi_offset 14, -4
 1554 0002 86B0     		sub	sp, sp, #24
 1555              		.cfi_def_cfa_offset 32
 1556 0004 00AF     		add	r7, sp, #0
 1557              		.cfi_def_cfa_register 7
 1558 0006 7860     		str	r0, [r7, #4]
1623:..\..\..\..\..\..\Software\uC-CPU/cpu_core.c ****     CPU_DATA  val_bit_mask;
ARM GAS  C:\Users\ADMINI~1\AppData\Local\Temp\ccaBZmtr.s 			page 57


1624:..\..\..\..\..\..\Software\uC-CPU/cpu_core.c ****     CPU_DATA  nbr_lead_zeros;
1625:..\..\..\..\..\..\Software\uC-CPU/cpu_core.c ****     CPU_DATA  nbr_trail_zeros;
1626:..\..\..\..\..\..\Software\uC-CPU/cpu_core.c **** 
1627:..\..\..\..\..\..\Software\uC-CPU/cpu_core.c **** 
1628:..\..\..\..\..\..\Software\uC-CPU/cpu_core.c ****     if (val == 0u) {                                            /* Rtn ALL val bits as zero'd (see 
 1559              		.loc 1 1628 0
 1560 0008 7B68     		ldr	r3, [r7, #4]
 1561 000a 002B     		cmp	r3, #0
 1562 000c 01D1     		bne	.L108
1629:..\..\..\..\..\..\Software\uC-CPU/cpu_core.c ****         return (CPU_CFG_DATA_SIZE * DEF_OCTET_NBR_BITS);
 1563              		.loc 1 1629 0
 1564 000e 2023     		movs	r3, #32
 1565 0010 0FE0     		b	.L109
 1566              	.L108:
1630:..\..\..\..\..\..\Software\uC-CPU/cpu_core.c ****     }
1631:..\..\..\..\..\..\Software\uC-CPU/cpu_core.c **** 
1632:..\..\..\..\..\..\Software\uC-CPU/cpu_core.c **** 
1633:..\..\..\..\..\..\Software\uC-CPU/cpu_core.c ****     val_bit_mask    = val & ((CPU_DATA)~val + 1u);              /* Zero/clr all bits EXCEPT least-s
 1567              		.loc 1 1633 0
 1568 0012 7B68     		ldr	r3, [r7, #4]
 1569 0014 5B42     		rsbs	r3, r3, #0
 1570 0016 7A68     		ldr	r2, [r7, #4]
 1571 0018 1340     		ands	r3, r2
 1572 001a 7B61     		str	r3, [r7, #20]
1634:..\..\..\..\..\..\Software\uC-CPU/cpu_core.c ****     nbr_lead_zeros  = CPU_CntLeadZeros(val_bit_mask);           /* Cnt  nbr lead  0s.              
 1573              		.loc 1 1634 0
 1574 001c 7B69     		ldr	r3, [r7, #20]
 1575 001e 1800     		movs	r0, r3
 1576 0020 FFF7FEFF 		bl	CPU_CntLeadZeros
 1577 0024 0300     		movs	r3, r0
 1578 0026 3B61     		str	r3, [r7, #16]
1635:..\..\..\..\..\..\Software\uC-CPU/cpu_core.c ****                                                                 /* Calc nbr trail 0s = (nbr val bit
1636:..\..\..\..\..\..\Software\uC-CPU/cpu_core.c ****     nbr_trail_zeros = ((CPU_CFG_DATA_SIZE * DEF_OCTET_NBR_BITS) - 1u) - nbr_lead_zeros;
 1579              		.loc 1 1636 0
 1580 0028 3B69     		ldr	r3, [r7, #16]
 1581 002a 1F22     		movs	r2, #31
 1582 002c D31A     		subs	r3, r2, r3
 1583 002e FB60     		str	r3, [r7, #12]
1637:..\..\..\..\..\..\Software\uC-CPU/cpu_core.c **** 
1638:..\..\..\..\..\..\Software\uC-CPU/cpu_core.c **** 
1639:..\..\..\..\..\..\Software\uC-CPU/cpu_core.c ****     return (nbr_trail_zeros);
 1584              		.loc 1 1639 0
 1585 0030 FB68     		ldr	r3, [r7, #12]
 1586              	.L109:
1640:..\..\..\..\..\..\Software\uC-CPU/cpu_core.c **** }
 1587              		.loc 1 1640 0
 1588 0032 1800     		movs	r0, r3
 1589 0034 BD46     		mov	sp, r7
 1590 0036 06B0     		add	sp, sp, #24
 1591              		@ sp needed
 1592 0038 80BD     		pop	{r7, pc}
 1593              		.cfi_endproc
 1594              	.LFE19:
 1595              		.size	CPU_CntTrailZeros, .-CPU_CntTrailZeros
 1596 003a C046     		.section	.text.CPU_CntTrailZeros08,"ax",%progbits
 1597              		.align	2
 1598              		.global	CPU_CntTrailZeros08
ARM GAS  C:\Users\ADMINI~1\AppData\Local\Temp\ccaBZmtr.s 			page 58


 1599              		.code	16
 1600              		.thumb_func
 1601              		.type	CPU_CntTrailZeros08, %function
 1602              	CPU_CntTrailZeros08:
 1603              	.LFB20:
1641:..\..\..\..\..\..\Software\uC-CPU/cpu_core.c **** #endif
1642:..\..\..\..\..\..\Software\uC-CPU/cpu_core.c **** 
1643:..\..\..\..\..\..\Software\uC-CPU/cpu_core.c **** 
1644:..\..\..\..\..\..\Software\uC-CPU/cpu_core.c **** /*
1645:..\..\..\..\..\..\Software\uC-CPU/cpu_core.c **** ***************************************************************************************************
1646:..\..\..\..\..\..\Software\uC-CPU/cpu_core.c **** *                                        CPU_CntTrailZeros08()
1647:..\..\..\..\..\..\Software\uC-CPU/cpu_core.c **** *
1648:..\..\..\..\..\..\Software\uC-CPU/cpu_core.c **** * Description : Count the number of contiguous, least-significant, trailing zero bits in an 8-bit d
1649:..\..\..\..\..\..\Software\uC-CPU/cpu_core.c **** *
1650:..\..\..\..\..\..\Software\uC-CPU/cpu_core.c **** * Argument(s) : val         Data value to count trailing zero bits.
1651:..\..\..\..\..\..\Software\uC-CPU/cpu_core.c **** *
1652:..\..\..\..\..\..\Software\uC-CPU/cpu_core.c **** * Return(s)   : Number of contiguous, least-significant, trailing zero bits in 'val'.
1653:..\..\..\..\..\..\Software\uC-CPU/cpu_core.c **** *
1654:..\..\..\..\..\..\Software\uC-CPU/cpu_core.c **** * Caller(s)   : Application.
1655:..\..\..\..\..\..\Software\uC-CPU/cpu_core.c **** *
1656:..\..\..\..\..\..\Software\uC-CPU/cpu_core.c **** *               This function is a CPU module application programming interface (API) function & MA
1657:..\..\..\..\..\..\Software\uC-CPU/cpu_core.c **** *               called by application function(s).
1658:..\..\..\..\..\..\Software\uC-CPU/cpu_core.c **** *
1659:..\..\..\..\..\..\Software\uC-CPU/cpu_core.c **** * Note(s)     : (1) Supports  8-bit values :
1660:..\..\..\..\..\..\Software\uC-CPU/cpu_core.c **** *
1661:..\..\..\..\..\..\Software\uC-CPU/cpu_core.c **** *                               b07  b06  b05  b04  b03  b02  b01  b00    # Trailing Zeros
1662:..\..\..\..\..\..\Software\uC-CPU/cpu_core.c **** *                               ---  ---  ---  ---  ---  ---  ---  ---    ----------------
1663:..\..\..\..\..\..\Software\uC-CPU/cpu_core.c **** *                                x    x    x    x    x    x    x    1            0
1664:..\..\..\..\..\..\Software\uC-CPU/cpu_core.c **** *                                x    x    x    x    x    x    1    0            1
1665:..\..\..\..\..\..\Software\uC-CPU/cpu_core.c **** *                                x    x    x    x    x    1    0    0            2
1666:..\..\..\..\..\..\Software\uC-CPU/cpu_core.c **** *                                x    x    x    x    1    0    0    0            3
1667:..\..\..\..\..\..\Software\uC-CPU/cpu_core.c **** *                                x    x    x    1    0    0    0    0            4
1668:..\..\..\..\..\..\Software\uC-CPU/cpu_core.c **** *                                x    x    1    0    0    0    0    0            5
1669:..\..\..\..\..\..\Software\uC-CPU/cpu_core.c **** *                                x    1    0    0    0    0    0    0            6
1670:..\..\..\..\..\..\Software\uC-CPU/cpu_core.c **** *                                1    0    0    0    0    0    0    0            7
1671:..\..\..\..\..\..\Software\uC-CPU/cpu_core.c **** *                                0    0    0    0    0    0    0    0            8
1672:..\..\..\..\..\..\Software\uC-CPU/cpu_core.c **** *
1673:..\..\..\..\..\..\Software\uC-CPU/cpu_core.c **** *
1674:..\..\..\..\..\..\Software\uC-CPU/cpu_core.c **** *               (2) For non-zero values, the returned number of contiguous, least-significant, trai
1675:..\..\..\..\..\..\Software\uC-CPU/cpu_core.c **** *                   zero bits is also equivalent to the bit position of the least-significant set b
1676:..\..\..\..\..\..\Software\uC-CPU/cpu_core.c **** *
1677:..\..\..\..\..\..\Software\uC-CPU/cpu_core.c **** *               (3) 'val' SHOULD be validated for non-'0' PRIOR to all other counting zero calculat
1678:..\..\..\..\..\..\Software\uC-CPU/cpu_core.c **** *
1679:..\..\..\..\..\..\Software\uC-CPU/cpu_core.c **** *                   (a) For assembly-optimized implementations, CPU_CntTrailZeros() returns 'val's 
1680:..\..\..\..\..\..\Software\uC-CPU/cpu_core.c **** *                       number of trailing zeros via CPU's native data size, 'CPU_CFG_DATA_SIZE'.  
1681:..\..\..\..\..\..\Software\uC-CPU/cpu_core.c **** *                       If the returned number of zeros exceeds CPU_CntTrailZeros08()'s  8-bit retu
1682:..\..\..\..\..\..\Software\uC-CPU/cpu_core.c **** *                       data size, then the returned number of zeros must be offset by the differen
1683:..\..\..\..\..\..\Software\uC-CPU/cpu_core.c **** *                       between CPU_CntTrailZeros()'s  & CPU_CntTrailZeros08()'s return data size :
1684:..\..\..\..\..\..\Software\uC-CPU/cpu_core.c **** *
1685:..\..\..\..\..\..\Software\uC-CPU/cpu_core.c **** *                           nbr_trail_zeros = CPU_CntTrailZeros((CPU_DATA)val);
1686:..\..\..\..\..\..\Software\uC-CPU/cpu_core.c **** *                           if (nbr_trail_zeros >  (CPU_WORD_SIZE_08  * DEF_OCTET_NBR_BITS)) {
1687:..\..\..\..\..\..\Software\uC-CPU/cpu_core.c **** *                               nbr_trail_zeros -= (CPU_CFG_DATA_SIZE - CPU_WORD_SIZE_08) * DEF_OCT
1688:..\..\..\..\..\..\Software\uC-CPU/cpu_core.c **** *                           }
1689:..\..\..\..\..\..\Software\uC-CPU/cpu_core.c **** *
1690:..\..\..\..\..\..\Software\uC-CPU/cpu_core.c **** *                       However, this ONLY occurs for an initial 'val' of '0' since all non-'0'  8-
1691:..\..\..\..\..\..\Software\uC-CPU/cpu_core.c **** *                       values would return a number of trailing zeros less than or equal to  8 bit
1692:..\..\..\..\..\..\Software\uC-CPU/cpu_core.c **** *
ARM GAS  C:\Users\ADMINI~1\AppData\Local\Temp\ccaBZmtr.s 			page 59


1693:..\..\..\..\..\..\Software\uC-CPU/cpu_core.c **** *                       Therefore, initially validating all non-'0' values prior to calling assembl
1694:..\..\..\..\..\..\Software\uC-CPU/cpu_core.c **** *                       optimized CPU_CntTrailZeros() avoids having to offset the number of returne
1695:..\..\..\..\..\..\Software\uC-CPU/cpu_core.c **** *                       trailing zeros by the difference in CPU data size and  8-bit data value bit
1696:..\..\..\..\..\..\Software\uC-CPU/cpu_core.c **** *
1697:..\..\..\..\..\..\Software\uC-CPU/cpu_core.c **** *                   (b) For CPU_CntTrailZeros08()'s C implementation, the final conditional stateme
1698:..\..\..\..\..\..\Software\uC-CPU/cpu_core.c **** *                       calculates 'val's number of trailing zeros based on CPU_CntTrailZeros08()'s
1699:..\..\..\..\..\..\Software\uC-CPU/cpu_core.c **** *                        8-bit return data size & 'val's calculated number of lead zeros ONLY if th
1700:..\..\..\..\..\..\Software\uC-CPU/cpu_core.c **** *                       initial 'val' is non-'0' :
1701:..\..\..\..\..\..\Software\uC-CPU/cpu_core.c **** *
1702:..\..\..\..\..\..\Software\uC-CPU/cpu_core.c **** *                           if (val != 0u) {
1703:..\..\..\..\..\..\Software\uC-CPU/cpu_core.c **** *                               nbr_trail_zeros = ((CPU_WORD_SIZE_08 * DEF_OCTET_NBR_BITS) - 1u) - 
1704:..\..\..\..\..\..\Software\uC-CPU/cpu_core.c **** *                           } else {
1705:..\..\..\..\..\..\Software\uC-CPU/cpu_core.c **** *                               nbr_trail_zeros = nbr_lead_zeros;
1706:..\..\..\..\..\..\Software\uC-CPU/cpu_core.c **** *                           }
1707:..\..\..\..\..\..\Software\uC-CPU/cpu_core.c **** *
1708:..\..\..\..\..\..\Software\uC-CPU/cpu_core.c **** *                       Therefore, initially validating all non-'0' values avoids having to conditi
1709:..\..\..\..\..\..\Software\uC-CPU/cpu_core.c **** *                       execute the final 'if' statement.
1710:..\..\..\..\..\..\Software\uC-CPU/cpu_core.c **** ***************************************************************************************************
1711:..\..\..\..\..\..\Software\uC-CPU/cpu_core.c **** */
1712:..\..\..\..\..\..\Software\uC-CPU/cpu_core.c **** 
1713:..\..\..\..\..\..\Software\uC-CPU/cpu_core.c **** #if (CPU_CFG_DATA_SIZE_MAX >= CPU_WORD_SIZE_08)
1714:..\..\..\..\..\..\Software\uC-CPU/cpu_core.c **** CPU_DATA  CPU_CntTrailZeros08 (CPU_INT08U  val)
1715:..\..\..\..\..\..\Software\uC-CPU/cpu_core.c **** {
 1604              		.loc 1 1715 0
 1605              		.cfi_startproc
 1606              		@ args = 0, pretend = 0, frame = 24
 1607              		@ frame_needed = 1, uses_anonymous_args = 0
 1608 0000 80B5     		push	{r7, lr}
 1609              		.cfi_def_cfa_offset 8
 1610              		.cfi_offset 7, -8
 1611              		.cfi_offset 14, -4
 1612 0002 86B0     		sub	sp, sp, #24
 1613              		.cfi_def_cfa_offset 32
 1614 0004 00AF     		add	r7, sp, #0
 1615              		.cfi_def_cfa_register 7
 1616 0006 0200     		movs	r2, r0
 1617 0008 FB1D     		adds	r3, r7, #7
 1618 000a 1A70     		strb	r2, [r3]
1716:..\..\..\..\..\..\Software\uC-CPU/cpu_core.c **** #if  (!((defined(CPU_CFG_TRAIL_ZEROS_ASM_PRESENT)) && \
1717:..\..\..\..\..\..\Software\uC-CPU/cpu_core.c ****         (CPU_CFG_DATA_SIZE >= CPU_WORD_SIZE_08)))
1718:..\..\..\..\..\..\Software\uC-CPU/cpu_core.c ****     CPU_INT08U  val_bit_mask;
1719:..\..\..\..\..\..\Software\uC-CPU/cpu_core.c ****     CPU_DATA    nbr_lead_zeros;
1720:..\..\..\..\..\..\Software\uC-CPU/cpu_core.c **** #endif
1721:..\..\..\..\..\..\Software\uC-CPU/cpu_core.c ****     CPU_DATA    nbr_trail_zeros;
1722:..\..\..\..\..\..\Software\uC-CPU/cpu_core.c **** 
1723:..\..\..\..\..\..\Software\uC-CPU/cpu_core.c **** 
1724:..\..\..\..\..\..\Software\uC-CPU/cpu_core.c ****     if (val == 0u) {                                            /* Rtn ALL val bits as zero'd (see 
 1619              		.loc 1 1724 0
 1620 000c FB1D     		adds	r3, r7, #7
 1621 000e 1B78     		ldrb	r3, [r3]
 1622 0010 002B     		cmp	r3, #0
 1623 0012 01D1     		bne	.L111
1725:..\..\..\..\..\..\Software\uC-CPU/cpu_core.c ****         return (CPU_WORD_SIZE_08 * DEF_OCTET_NBR_BITS);
 1624              		.loc 1 1725 0
 1625 0014 0823     		movs	r3, #8
 1626 0016 16E0     		b	.L112
 1627              	.L111:
ARM GAS  C:\Users\ADMINI~1\AppData\Local\Temp\ccaBZmtr.s 			page 60


1726:..\..\..\..\..\..\Software\uC-CPU/cpu_core.c ****     }
1727:..\..\..\..\..\..\Software\uC-CPU/cpu_core.c **** 
1728:..\..\..\..\..\..\Software\uC-CPU/cpu_core.c ****                                                                 /* ------------------ ASM-OPTIMIZED
1729:..\..\..\..\..\..\Software\uC-CPU/cpu_core.c **** #if ((defined(CPU_CFG_TRAIL_ZEROS_ASM_PRESENT)) && \
1730:..\..\..\..\..\..\Software\uC-CPU/cpu_core.c ****      (CPU_CFG_DATA_SIZE >= CPU_WORD_SIZE_08))
1731:..\..\..\..\..\..\Software\uC-CPU/cpu_core.c ****     nbr_trail_zeros = CPU_CntTrailZeros((CPU_DATA)val);
1732:..\..\..\..\..\..\Software\uC-CPU/cpu_core.c **** 
1733:..\..\..\..\..\..\Software\uC-CPU/cpu_core.c **** #else                                                           /* ------------------- C-OPTIMIZED 
1734:..\..\..\..\..\..\Software\uC-CPU/cpu_core.c ****     val_bit_mask    = val & ((CPU_INT08U)~val + 1u);            /* Zero/clr all bits EXCEPT least-s
 1628              		.loc 1 1734 0
 1629 0018 FB1D     		adds	r3, r7, #7
 1630 001a 1B78     		ldrb	r3, [r3]
 1631 001c 5B42     		rsbs	r3, r3, #0
 1632 001e DAB2     		uxtb	r2, r3
 1633 0020 1723     		movs	r3, #23
 1634 0022 FB18     		adds	r3, r7, r3
 1635 0024 F91D     		adds	r1, r7, #7
 1636 0026 0978     		ldrb	r1, [r1]
 1637 0028 0A40     		ands	r2, r1
 1638 002a 1A70     		strb	r2, [r3]
1735:..\..\..\..\..\..\Software\uC-CPU/cpu_core.c ****     nbr_lead_zeros  = CPU_CntLeadZeros08(val_bit_mask);         /* Cnt  nbr lead  0s.              
 1639              		.loc 1 1735 0
 1640 002c 1723     		movs	r3, #23
 1641 002e FB18     		adds	r3, r7, r3
 1642 0030 1B78     		ldrb	r3, [r3]
 1643 0032 1800     		movs	r0, r3
 1644 0034 FFF7FEFF 		bl	CPU_CntLeadZeros08
 1645 0038 0300     		movs	r3, r0
 1646 003a 3B61     		str	r3, [r7, #16]
1736:..\..\..\..\..\..\Software\uC-CPU/cpu_core.c ****                                                                 /* Calc nbr trail 0s = (nbr val bit
1737:..\..\..\..\..\..\Software\uC-CPU/cpu_core.c ****     nbr_trail_zeros = ((CPU_WORD_SIZE_08 * DEF_OCTET_NBR_BITS) - 1u) - nbr_lead_zeros;
 1647              		.loc 1 1737 0
 1648 003c 3B69     		ldr	r3, [r7, #16]
 1649 003e 0722     		movs	r2, #7
 1650 0040 D31A     		subs	r3, r2, r3
 1651 0042 FB60     		str	r3, [r7, #12]
1738:..\..\..\..\..\..\Software\uC-CPU/cpu_core.c **** #endif
1739:..\..\..\..\..\..\Software\uC-CPU/cpu_core.c **** 
1740:..\..\..\..\..\..\Software\uC-CPU/cpu_core.c **** 
1741:..\..\..\..\..\..\Software\uC-CPU/cpu_core.c ****     return (nbr_trail_zeros);
 1652              		.loc 1 1741 0
 1653 0044 FB68     		ldr	r3, [r7, #12]
 1654              	.L112:
1742:..\..\..\..\..\..\Software\uC-CPU/cpu_core.c **** }
 1655              		.loc 1 1742 0
 1656 0046 1800     		movs	r0, r3
 1657 0048 BD46     		mov	sp, r7
 1658 004a 06B0     		add	sp, sp, #24
 1659              		@ sp needed
 1660 004c 80BD     		pop	{r7, pc}
 1661              		.cfi_endproc
 1662              	.LFE20:
 1663              		.size	CPU_CntTrailZeros08, .-CPU_CntTrailZeros08
 1664 004e C046     		.section	.text.CPU_CntTrailZeros16,"ax",%progbits
 1665              		.align	2
 1666              		.global	CPU_CntTrailZeros16
 1667              		.code	16
ARM GAS  C:\Users\ADMINI~1\AppData\Local\Temp\ccaBZmtr.s 			page 61


 1668              		.thumb_func
 1669              		.type	CPU_CntTrailZeros16, %function
 1670              	CPU_CntTrailZeros16:
 1671              	.LFB21:
1743:..\..\..\..\..\..\Software\uC-CPU/cpu_core.c **** #endif
1744:..\..\..\..\..\..\Software\uC-CPU/cpu_core.c **** 
1745:..\..\..\..\..\..\Software\uC-CPU/cpu_core.c **** 
1746:..\..\..\..\..\..\Software\uC-CPU/cpu_core.c **** /*
1747:..\..\..\..\..\..\Software\uC-CPU/cpu_core.c **** ***************************************************************************************************
1748:..\..\..\..\..\..\Software\uC-CPU/cpu_core.c **** *                                        CPU_CntTrailZeros16()
1749:..\..\..\..\..\..\Software\uC-CPU/cpu_core.c **** *
1750:..\..\..\..\..\..\Software\uC-CPU/cpu_core.c **** * Description : Count the number of contiguous, least-significant, trailing zero bits in a 16-bit d
1751:..\..\..\..\..\..\Software\uC-CPU/cpu_core.c **** *
1752:..\..\..\..\..\..\Software\uC-CPU/cpu_core.c **** * Argument(s) : val         Data value to count trailing zero bits.
1753:..\..\..\..\..\..\Software\uC-CPU/cpu_core.c **** *
1754:..\..\..\..\..\..\Software\uC-CPU/cpu_core.c **** * Return(s)   : Number of contiguous, least-significant, trailing zero bits in 'val'.
1755:..\..\..\..\..\..\Software\uC-CPU/cpu_core.c **** *
1756:..\..\..\..\..\..\Software\uC-CPU/cpu_core.c **** * Caller(s)   : Application.
1757:..\..\..\..\..\..\Software\uC-CPU/cpu_core.c **** *
1758:..\..\..\..\..\..\Software\uC-CPU/cpu_core.c **** *               This function is a CPU module application programming interface (API) function & MA
1759:..\..\..\..\..\..\Software\uC-CPU/cpu_core.c **** *               called by application function(s).
1760:..\..\..\..\..\..\Software\uC-CPU/cpu_core.c **** *
1761:..\..\..\..\..\..\Software\uC-CPU/cpu_core.c **** * Note(s)     : (1) Supports 16-bit values :
1762:..\..\..\..\..\..\Software\uC-CPU/cpu_core.c **** *
1763:..\..\..\..\..\..\Software\uC-CPU/cpu_core.c **** *                          b15  b14  b13  b12  b11  ...  b02  b01  b00    # Trailing Zeros
1764:..\..\..\..\..\..\Software\uC-CPU/cpu_core.c **** *                          ---  ---  ---  ---  ---       ---  ---  ---    ----------------
1765:..\..\..\..\..\..\Software\uC-CPU/cpu_core.c **** *                           x    x    x    x    x         x    x    1            0
1766:..\..\..\..\..\..\Software\uC-CPU/cpu_core.c **** *                           x    x    x    x    x         x    1    0            1
1767:..\..\..\..\..\..\Software\uC-CPU/cpu_core.c **** *                           x    x    x    x    x         1    0    0            2
1768:..\..\..\..\..\..\Software\uC-CPU/cpu_core.c **** *                           :    :    :    :    :         :    :    :            :
1769:..\..\..\..\..\..\Software\uC-CPU/cpu_core.c **** *                           :    :    :    :    :         :    :    :            :
1770:..\..\..\..\..\..\Software\uC-CPU/cpu_core.c **** *                           x    x    x    x    1         0    0    0           11
1771:..\..\..\..\..\..\Software\uC-CPU/cpu_core.c **** *                           x    x    x    1    0         0    0    0           12
1772:..\..\..\..\..\..\Software\uC-CPU/cpu_core.c **** *                           x    x    1    0    0         0    0    0           13
1773:..\..\..\..\..\..\Software\uC-CPU/cpu_core.c **** *                           x    1    0    0    0         0    0    0           14
1774:..\..\..\..\..\..\Software\uC-CPU/cpu_core.c **** *                           1    0    0    0    0         0    0    0           15
1775:..\..\..\..\..\..\Software\uC-CPU/cpu_core.c **** *                           0    0    0    0    0         0    0    0           16
1776:..\..\..\..\..\..\Software\uC-CPU/cpu_core.c **** *
1777:..\..\..\..\..\..\Software\uC-CPU/cpu_core.c **** *
1778:..\..\..\..\..\..\Software\uC-CPU/cpu_core.c **** *               (2) For non-zero values, the returned number of contiguous, least-significant, trai
1779:..\..\..\..\..\..\Software\uC-CPU/cpu_core.c **** *                   zero bits is also equivalent to the bit position of the least-significant set b
1780:..\..\..\..\..\..\Software\uC-CPU/cpu_core.c **** *
1781:..\..\..\..\..\..\Software\uC-CPU/cpu_core.c **** *               (3) 'val' SHOULD be validated for non-'0' PRIOR to all other counting zero calculat
1782:..\..\..\..\..\..\Software\uC-CPU/cpu_core.c **** *
1783:..\..\..\..\..\..\Software\uC-CPU/cpu_core.c **** *                   (a) For assembly-optimized implementations, CPU_CntTrailZeros() returns 'val's 
1784:..\..\..\..\..\..\Software\uC-CPU/cpu_core.c **** *                       number of trailing zeros via CPU's native data size, 'CPU_CFG_DATA_SIZE'.  
1785:..\..\..\..\..\..\Software\uC-CPU/cpu_core.c **** *                       If the returned number of zeros exceeds CPU_CntTrailZeros16()'s 16-bit retu
1786:..\..\..\..\..\..\Software\uC-CPU/cpu_core.c **** *                       data size, then the returned number of zeros must be offset by the differen
1787:..\..\..\..\..\..\Software\uC-CPU/cpu_core.c **** *                       between CPU_CntTrailZeros()'s  & CPU_CntTrailZeros16()'s return data size :
1788:..\..\..\..\..\..\Software\uC-CPU/cpu_core.c **** *
1789:..\..\..\..\..\..\Software\uC-CPU/cpu_core.c **** *                           nbr_trail_zeros = CPU_CntTrailZeros((CPU_DATA)val);
1790:..\..\..\..\..\..\Software\uC-CPU/cpu_core.c **** *                           if (nbr_trail_zeros >  (CPU_WORD_SIZE_16  * DEF_OCTET_NBR_BITS)) {
1791:..\..\..\..\..\..\Software\uC-CPU/cpu_core.c **** *                               nbr_trail_zeros -= (CPU_CFG_DATA_SIZE - CPU_WORD_SIZE_16) * DEF_OCT
1792:..\..\..\..\..\..\Software\uC-CPU/cpu_core.c **** *                           }
1793:..\..\..\..\..\..\Software\uC-CPU/cpu_core.c **** *
1794:..\..\..\..\..\..\Software\uC-CPU/cpu_core.c **** *                       However, this ONLY occurs for an initial 'val' of '0' since all non-'0' 16-
1795:..\..\..\..\..\..\Software\uC-CPU/cpu_core.c **** *                       values would return a number of trailing zeros less than or equal to 16 bit
ARM GAS  C:\Users\ADMINI~1\AppData\Local\Temp\ccaBZmtr.s 			page 62


1796:..\..\..\..\..\..\Software\uC-CPU/cpu_core.c **** *
1797:..\..\..\..\..\..\Software\uC-CPU/cpu_core.c **** *                       Therefore, initially validating all non-'0' values prior to calling assembl
1798:..\..\..\..\..\..\Software\uC-CPU/cpu_core.c **** *                       optimized CPU_CntTrailZeros() avoids having to offset the number of returne
1799:..\..\..\..\..\..\Software\uC-CPU/cpu_core.c **** *                       trailing zeros by the difference in CPU data size and 16-bit data value bit
1800:..\..\..\..\..\..\Software\uC-CPU/cpu_core.c **** *
1801:..\..\..\..\..\..\Software\uC-CPU/cpu_core.c **** *                   (b) For CPU_CntTrailZeros16()'s C implementation, the final conditional stateme
1802:..\..\..\..\..\..\Software\uC-CPU/cpu_core.c **** *                       calculates 'val's number of trailing zeros based on CPU_CntTrailZeros16()'s
1803:..\..\..\..\..\..\Software\uC-CPU/cpu_core.c **** *                       16-bit return data size & 'val's calculated number of lead zeros ONLY if th
1804:..\..\..\..\..\..\Software\uC-CPU/cpu_core.c **** *                       initial 'val' is non-'0' :
1805:..\..\..\..\..\..\Software\uC-CPU/cpu_core.c **** *
1806:..\..\..\..\..\..\Software\uC-CPU/cpu_core.c **** *                           if (val != 0u) {
1807:..\..\..\..\..\..\Software\uC-CPU/cpu_core.c **** *                               nbr_trail_zeros = ((CPU_WORD_SIZE_16 * DEF_OCTET_NBR_BITS) - 1u) - 
1808:..\..\..\..\..\..\Software\uC-CPU/cpu_core.c **** *                           } else {
1809:..\..\..\..\..\..\Software\uC-CPU/cpu_core.c **** *                               nbr_trail_zeros = nbr_lead_zeros;
1810:..\..\..\..\..\..\Software\uC-CPU/cpu_core.c **** *                           }
1811:..\..\..\..\..\..\Software\uC-CPU/cpu_core.c **** *
1812:..\..\..\..\..\..\Software\uC-CPU/cpu_core.c **** *                       Therefore, initially validating all non-'0' values avoids having to conditi
1813:..\..\..\..\..\..\Software\uC-CPU/cpu_core.c **** *                       execute the final 'if' statement.
1814:..\..\..\..\..\..\Software\uC-CPU/cpu_core.c **** ***************************************************************************************************
1815:..\..\..\..\..\..\Software\uC-CPU/cpu_core.c **** */
1816:..\..\..\..\..\..\Software\uC-CPU/cpu_core.c **** 
1817:..\..\..\..\..\..\Software\uC-CPU/cpu_core.c **** #if (CPU_CFG_DATA_SIZE_MAX >= CPU_WORD_SIZE_16)
1818:..\..\..\..\..\..\Software\uC-CPU/cpu_core.c **** CPU_DATA  CPU_CntTrailZeros16 (CPU_INT16U  val)
1819:..\..\..\..\..\..\Software\uC-CPU/cpu_core.c **** {
 1672              		.loc 1 1819 0
 1673              		.cfi_startproc
 1674              		@ args = 0, pretend = 0, frame = 24
 1675              		@ frame_needed = 1, uses_anonymous_args = 0
 1676 0000 80B5     		push	{r7, lr}
 1677              		.cfi_def_cfa_offset 8
 1678              		.cfi_offset 7, -8
 1679              		.cfi_offset 14, -4
 1680 0002 86B0     		sub	sp, sp, #24
 1681              		.cfi_def_cfa_offset 32
 1682 0004 00AF     		add	r7, sp, #0
 1683              		.cfi_def_cfa_register 7
 1684 0006 0200     		movs	r2, r0
 1685 0008 BB1D     		adds	r3, r7, #6
 1686 000a 1A80     		strh	r2, [r3]
1820:..\..\..\..\..\..\Software\uC-CPU/cpu_core.c **** #if  (!((defined(CPU_CFG_TRAIL_ZEROS_ASM_PRESENT)) && \
1821:..\..\..\..\..\..\Software\uC-CPU/cpu_core.c ****         (CPU_CFG_DATA_SIZE >= CPU_WORD_SIZE_16)))
1822:..\..\..\..\..\..\Software\uC-CPU/cpu_core.c ****     CPU_INT16U  val_bit_mask;
1823:..\..\..\..\..\..\Software\uC-CPU/cpu_core.c ****     CPU_DATA    nbr_lead_zeros;
1824:..\..\..\..\..\..\Software\uC-CPU/cpu_core.c **** #endif
1825:..\..\..\..\..\..\Software\uC-CPU/cpu_core.c ****     CPU_DATA    nbr_trail_zeros;
1826:..\..\..\..\..\..\Software\uC-CPU/cpu_core.c **** 
1827:..\..\..\..\..\..\Software\uC-CPU/cpu_core.c **** 
1828:..\..\..\..\..\..\Software\uC-CPU/cpu_core.c ****     if (val == 0u) {                                            /* Rtn ALL val bits as zero'd (see 
 1687              		.loc 1 1828 0
 1688 000c BB1D     		adds	r3, r7, #6
 1689 000e 1B88     		ldrh	r3, [r3]
 1690 0010 002B     		cmp	r3, #0
 1691 0012 01D1     		bne	.L114
1829:..\..\..\..\..\..\Software\uC-CPU/cpu_core.c ****         return (CPU_WORD_SIZE_16 * DEF_OCTET_NBR_BITS);
 1692              		.loc 1 1829 0
 1693 0014 1023     		movs	r3, #16
 1694 0016 16E0     		b	.L115
ARM GAS  C:\Users\ADMINI~1\AppData\Local\Temp\ccaBZmtr.s 			page 63


 1695              	.L114:
1830:..\..\..\..\..\..\Software\uC-CPU/cpu_core.c ****     }
1831:..\..\..\..\..\..\Software\uC-CPU/cpu_core.c **** 
1832:..\..\..\..\..\..\Software\uC-CPU/cpu_core.c ****                                                                 /* ------------------ ASM-OPTIMIZED
1833:..\..\..\..\..\..\Software\uC-CPU/cpu_core.c **** #if ((defined(CPU_CFG_TRAIL_ZEROS_ASM_PRESENT)) && \
1834:..\..\..\..\..\..\Software\uC-CPU/cpu_core.c ****      (CPU_CFG_DATA_SIZE >= CPU_WORD_SIZE_16))
1835:..\..\..\..\..\..\Software\uC-CPU/cpu_core.c ****     nbr_trail_zeros = CPU_CntTrailZeros((CPU_DATA)val);
1836:..\..\..\..\..\..\Software\uC-CPU/cpu_core.c **** 
1837:..\..\..\..\..\..\Software\uC-CPU/cpu_core.c **** #else                                                           /* ------------------- C-OPTIMIZED 
1838:..\..\..\..\..\..\Software\uC-CPU/cpu_core.c ****     val_bit_mask    = val & ((CPU_INT16U)~val + 1u);            /* Zero/clr all bits EXCEPT least-s
 1696              		.loc 1 1838 0
 1697 0018 BB1D     		adds	r3, r7, #6
 1698 001a 1B88     		ldrh	r3, [r3]
 1699 001c 5B42     		rsbs	r3, r3, #0
 1700 001e 9AB2     		uxth	r2, r3
 1701 0020 1623     		movs	r3, #22
 1702 0022 FB18     		adds	r3, r7, r3
 1703 0024 B91D     		adds	r1, r7, #6
 1704 0026 0988     		ldrh	r1, [r1]
 1705 0028 0A40     		ands	r2, r1
 1706 002a 1A80     		strh	r2, [r3]
1839:..\..\..\..\..\..\Software\uC-CPU/cpu_core.c ****     nbr_lead_zeros  = CPU_CntLeadZeros16(val_bit_mask);         /* Cnt  nbr lead  0s.              
 1707              		.loc 1 1839 0
 1708 002c 1623     		movs	r3, #22
 1709 002e FB18     		adds	r3, r7, r3
 1710 0030 1B88     		ldrh	r3, [r3]
 1711 0032 1800     		movs	r0, r3
 1712 0034 FFF7FEFF 		bl	CPU_CntLeadZeros16
 1713 0038 0300     		movs	r3, r0
 1714 003a 3B61     		str	r3, [r7, #16]
1840:..\..\..\..\..\..\Software\uC-CPU/cpu_core.c ****                                                                 /* Calc nbr trail 0s = (nbr val bit
1841:..\..\..\..\..\..\Software\uC-CPU/cpu_core.c ****     nbr_trail_zeros = ((CPU_WORD_SIZE_16 * DEF_OCTET_NBR_BITS) - 1u) - nbr_lead_zeros;
 1715              		.loc 1 1841 0
 1716 003c 3B69     		ldr	r3, [r7, #16]
 1717 003e 0F22     		movs	r2, #15
 1718 0040 D31A     		subs	r3, r2, r3
 1719 0042 FB60     		str	r3, [r7, #12]
1842:..\..\..\..\..\..\Software\uC-CPU/cpu_core.c **** #endif
1843:..\..\..\..\..\..\Software\uC-CPU/cpu_core.c **** 
1844:..\..\..\..\..\..\Software\uC-CPU/cpu_core.c **** 
1845:..\..\..\..\..\..\Software\uC-CPU/cpu_core.c ****     return (nbr_trail_zeros);
 1720              		.loc 1 1845 0
 1721 0044 FB68     		ldr	r3, [r7, #12]
 1722              	.L115:
1846:..\..\..\..\..\..\Software\uC-CPU/cpu_core.c **** }
 1723              		.loc 1 1846 0
 1724 0046 1800     		movs	r0, r3
 1725 0048 BD46     		mov	sp, r7
 1726 004a 06B0     		add	sp, sp, #24
 1727              		@ sp needed
 1728 004c 80BD     		pop	{r7, pc}
 1729              		.cfi_endproc
 1730              	.LFE21:
 1731              		.size	CPU_CntTrailZeros16, .-CPU_CntTrailZeros16
 1732 004e C046     		.section	.text.CPU_CntTrailZeros32,"ax",%progbits
 1733              		.align	2
 1734              		.global	CPU_CntTrailZeros32
ARM GAS  C:\Users\ADMINI~1\AppData\Local\Temp\ccaBZmtr.s 			page 64


 1735              		.code	16
 1736              		.thumb_func
 1737              		.type	CPU_CntTrailZeros32, %function
 1738              	CPU_CntTrailZeros32:
 1739              	.LFB22:
1847:..\..\..\..\..\..\Software\uC-CPU/cpu_core.c **** #endif
1848:..\..\..\..\..\..\Software\uC-CPU/cpu_core.c **** 
1849:..\..\..\..\..\..\Software\uC-CPU/cpu_core.c **** 
1850:..\..\..\..\..\..\Software\uC-CPU/cpu_core.c **** /*
1851:..\..\..\..\..\..\Software\uC-CPU/cpu_core.c **** ***************************************************************************************************
1852:..\..\..\..\..\..\Software\uC-CPU/cpu_core.c **** *                                        CPU_CntTrailZeros32()
1853:..\..\..\..\..\..\Software\uC-CPU/cpu_core.c **** *
1854:..\..\..\..\..\..\Software\uC-CPU/cpu_core.c **** * Description : Count the number of contiguous, least-significant, trailing zero bits in a 32-bit d
1855:..\..\..\..\..\..\Software\uC-CPU/cpu_core.c **** *
1856:..\..\..\..\..\..\Software\uC-CPU/cpu_core.c **** * Argument(s) : val         Data value to count trailing zero bits.
1857:..\..\..\..\..\..\Software\uC-CPU/cpu_core.c **** *
1858:..\..\..\..\..\..\Software\uC-CPU/cpu_core.c **** * Return(s)   : Number of contiguous, least-significant, trailing zero bits in 'val'.
1859:..\..\..\..\..\..\Software\uC-CPU/cpu_core.c **** *
1860:..\..\..\..\..\..\Software\uC-CPU/cpu_core.c **** * Caller(s)   : Application.
1861:..\..\..\..\..\..\Software\uC-CPU/cpu_core.c **** *
1862:..\..\..\..\..\..\Software\uC-CPU/cpu_core.c **** *               This function is a CPU module application programming interface (API) function & MA
1863:..\..\..\..\..\..\Software\uC-CPU/cpu_core.c **** *               called by application function(s).
1864:..\..\..\..\..\..\Software\uC-CPU/cpu_core.c **** *
1865:..\..\..\..\..\..\Software\uC-CPU/cpu_core.c **** * Note(s)     : (1) Supports 32-bit values :
1866:..\..\..\..\..\..\Software\uC-CPU/cpu_core.c **** *
1867:..\..\..\..\..\..\Software\uC-CPU/cpu_core.c **** *                          b31  b30  b29  b28  b27  ...  b02  b01  b00    # Trailing Zeros
1868:..\..\..\..\..\..\Software\uC-CPU/cpu_core.c **** *                          ---  ---  ---  ---  ---       ---  ---  ---    ----------------
1869:..\..\..\..\..\..\Software\uC-CPU/cpu_core.c **** *                           x    x    x    x    x         x    x    1            0
1870:..\..\..\..\..\..\Software\uC-CPU/cpu_core.c **** *                           x    x    x    x    x         x    1    0            1
1871:..\..\..\..\..\..\Software\uC-CPU/cpu_core.c **** *                           x    x    x    x    x         1    0    0            2
1872:..\..\..\..\..\..\Software\uC-CPU/cpu_core.c **** *                           :    :    :    :    :         :    :    :            :
1873:..\..\..\..\..\..\Software\uC-CPU/cpu_core.c **** *                           :    :    :    :    :         :    :    :            :
1874:..\..\..\..\..\..\Software\uC-CPU/cpu_core.c **** *                           x    x    x    x    1         0    0    0           27
1875:..\..\..\..\..\..\Software\uC-CPU/cpu_core.c **** *                           x    x    x    1    0         0    0    0           28
1876:..\..\..\..\..\..\Software\uC-CPU/cpu_core.c **** *                           x    x    1    0    0         0    0    0           29
1877:..\..\..\..\..\..\Software\uC-CPU/cpu_core.c **** *                           x    1    0    0    0         0    0    0           30
1878:..\..\..\..\..\..\Software\uC-CPU/cpu_core.c **** *                           1    0    0    0    0         0    0    0           31
1879:..\..\..\..\..\..\Software\uC-CPU/cpu_core.c **** *                           0    0    0    0    0         0    0    0           32
1880:..\..\..\..\..\..\Software\uC-CPU/cpu_core.c **** *
1881:..\..\..\..\..\..\Software\uC-CPU/cpu_core.c **** *
1882:..\..\..\..\..\..\Software\uC-CPU/cpu_core.c **** *               (2) For non-zero values, the returned number of contiguous, least-significant, trai
1883:..\..\..\..\..\..\Software\uC-CPU/cpu_core.c **** *                   zero bits is also equivalent to the bit position of the least-significant set b
1884:..\..\..\..\..\..\Software\uC-CPU/cpu_core.c **** *
1885:..\..\..\..\..\..\Software\uC-CPU/cpu_core.c **** *               (3) 'val' SHOULD be validated for non-'0' PRIOR to all other counting zero calculat
1886:..\..\..\..\..\..\Software\uC-CPU/cpu_core.c **** *
1887:..\..\..\..\..\..\Software\uC-CPU/cpu_core.c **** *                   (a) For assembly-optimized implementations, CPU_CntTrailZeros() returns 'val's 
1888:..\..\..\..\..\..\Software\uC-CPU/cpu_core.c **** *                       number of trailing zeros via CPU's native data size, 'CPU_CFG_DATA_SIZE'.  
1889:..\..\..\..\..\..\Software\uC-CPU/cpu_core.c **** *                       If the returned number of zeros exceeds CPU_CntTrailZeros32()'s 32-bit retu
1890:..\..\..\..\..\..\Software\uC-CPU/cpu_core.c **** *                       data size, then the returned number of zeros must be offset by the differen
1891:..\..\..\..\..\..\Software\uC-CPU/cpu_core.c **** *                       between CPU_CntTrailZeros()'s  & CPU_CntTrailZeros32()'s return data size :
1892:..\..\..\..\..\..\Software\uC-CPU/cpu_core.c **** *
1893:..\..\..\..\..\..\Software\uC-CPU/cpu_core.c **** *                           nbr_trail_zeros = CPU_CntTrailZeros((CPU_DATA)val);
1894:..\..\..\..\..\..\Software\uC-CPU/cpu_core.c **** *                           if (nbr_trail_zeros >  (CPU_WORD_SIZE_32  * DEF_OCTET_NBR_BITS)) {
1895:..\..\..\..\..\..\Software\uC-CPU/cpu_core.c **** *                               nbr_trail_zeros -= (CPU_CFG_DATA_SIZE - CPU_WORD_SIZE_32) * DEF_OCT
1896:..\..\..\..\..\..\Software\uC-CPU/cpu_core.c **** *                           }
1897:..\..\..\..\..\..\Software\uC-CPU/cpu_core.c **** *
1898:..\..\..\..\..\..\Software\uC-CPU/cpu_core.c **** *                       However, this ONLY occurs for an initial 'val' of '0' since all non-'0' 32-
ARM GAS  C:\Users\ADMINI~1\AppData\Local\Temp\ccaBZmtr.s 			page 65


1899:..\..\..\..\..\..\Software\uC-CPU/cpu_core.c **** *                       values would return a number of trailing zeros less than or equal to 32 bit
1900:..\..\..\..\..\..\Software\uC-CPU/cpu_core.c **** *
1901:..\..\..\..\..\..\Software\uC-CPU/cpu_core.c **** *                       Therefore, initially validating all non-'0' values prior to calling assembl
1902:..\..\..\..\..\..\Software\uC-CPU/cpu_core.c **** *                       optimized CPU_CntTrailZeros() avoids having to offset the number of returne
1903:..\..\..\..\..\..\Software\uC-CPU/cpu_core.c **** *                       trailing zeros by the difference in CPU data size and 32-bit data value bit
1904:..\..\..\..\..\..\Software\uC-CPU/cpu_core.c **** *
1905:..\..\..\..\..\..\Software\uC-CPU/cpu_core.c **** *                   (b) For CPU_CntTrailZeros32()'s C implementation, the final conditional stateme
1906:..\..\..\..\..\..\Software\uC-CPU/cpu_core.c **** *                       calculates 'val's number of trailing zeros based on CPU_CntTrailZeros32()'s
1907:..\..\..\..\..\..\Software\uC-CPU/cpu_core.c **** *                       32-bit return data size & 'val's calculated number of lead zeros ONLY if th
1908:..\..\..\..\..\..\Software\uC-CPU/cpu_core.c **** *                       initial 'val' is non-'0' :
1909:..\..\..\..\..\..\Software\uC-CPU/cpu_core.c **** *
1910:..\..\..\..\..\..\Software\uC-CPU/cpu_core.c **** *                           if (val != 0u) {
1911:..\..\..\..\..\..\Software\uC-CPU/cpu_core.c **** *                               nbr_trail_zeros = ((CPU_WORD_SIZE_32 * DEF_OCTET_NBR_BITS) - 1u) - 
1912:..\..\..\..\..\..\Software\uC-CPU/cpu_core.c **** *                           } else {
1913:..\..\..\..\..\..\Software\uC-CPU/cpu_core.c **** *                               nbr_trail_zeros = nbr_lead_zeros;
1914:..\..\..\..\..\..\Software\uC-CPU/cpu_core.c **** *                           }
1915:..\..\..\..\..\..\Software\uC-CPU/cpu_core.c **** *
1916:..\..\..\..\..\..\Software\uC-CPU/cpu_core.c **** *                       Therefore, initially validating all non-'0' values avoids having to conditi
1917:..\..\..\..\..\..\Software\uC-CPU/cpu_core.c **** *                       execute the final 'if' statement.
1918:..\..\..\..\..\..\Software\uC-CPU/cpu_core.c **** ***************************************************************************************************
1919:..\..\..\..\..\..\Software\uC-CPU/cpu_core.c **** */
1920:..\..\..\..\..\..\Software\uC-CPU/cpu_core.c **** 
1921:..\..\..\..\..\..\Software\uC-CPU/cpu_core.c **** #if (CPU_CFG_DATA_SIZE_MAX >= CPU_WORD_SIZE_32)
1922:..\..\..\..\..\..\Software\uC-CPU/cpu_core.c **** CPU_DATA  CPU_CntTrailZeros32 (CPU_INT32U  val)
1923:..\..\..\..\..\..\Software\uC-CPU/cpu_core.c **** {
 1740              		.loc 1 1923 0
 1741              		.cfi_startproc
 1742              		@ args = 0, pretend = 0, frame = 24
 1743              		@ frame_needed = 1, uses_anonymous_args = 0
 1744 0000 80B5     		push	{r7, lr}
 1745              		.cfi_def_cfa_offset 8
 1746              		.cfi_offset 7, -8
 1747              		.cfi_offset 14, -4
 1748 0002 86B0     		sub	sp, sp, #24
 1749              		.cfi_def_cfa_offset 32
 1750 0004 00AF     		add	r7, sp, #0
 1751              		.cfi_def_cfa_register 7
 1752 0006 7860     		str	r0, [r7, #4]
1924:..\..\..\..\..\..\Software\uC-CPU/cpu_core.c **** #if  (!((defined(CPU_CFG_TRAIL_ZEROS_ASM_PRESENT)) && \
1925:..\..\..\..\..\..\Software\uC-CPU/cpu_core.c ****         (CPU_CFG_DATA_SIZE >= CPU_WORD_SIZE_32)))
1926:..\..\..\..\..\..\Software\uC-CPU/cpu_core.c ****     CPU_INT32U  val_bit_mask;
1927:..\..\..\..\..\..\Software\uC-CPU/cpu_core.c ****     CPU_DATA    nbr_lead_zeros;
1928:..\..\..\..\..\..\Software\uC-CPU/cpu_core.c **** #endif
1929:..\..\..\..\..\..\Software\uC-CPU/cpu_core.c ****     CPU_DATA    nbr_trail_zeros;
1930:..\..\..\..\..\..\Software\uC-CPU/cpu_core.c **** 
1931:..\..\..\..\..\..\Software\uC-CPU/cpu_core.c **** 
1932:..\..\..\..\..\..\Software\uC-CPU/cpu_core.c ****     if (val == 0u) {                                            /* Rtn ALL val bits as zero'd (see 
 1753              		.loc 1 1932 0
 1754 0008 7B68     		ldr	r3, [r7, #4]
 1755 000a 002B     		cmp	r3, #0
 1756 000c 01D1     		bne	.L117
1933:..\..\..\..\..\..\Software\uC-CPU/cpu_core.c ****         return (CPU_WORD_SIZE_32 * DEF_OCTET_NBR_BITS);
 1757              		.loc 1 1933 0
 1758 000e 2023     		movs	r3, #32
 1759 0010 0FE0     		b	.L118
 1760              	.L117:
1934:..\..\..\..\..\..\Software\uC-CPU/cpu_core.c ****     }
ARM GAS  C:\Users\ADMINI~1\AppData\Local\Temp\ccaBZmtr.s 			page 66


1935:..\..\..\..\..\..\Software\uC-CPU/cpu_core.c **** 
1936:..\..\..\..\..\..\Software\uC-CPU/cpu_core.c ****                                                                 /* ------------------ ASM-OPTIMIZED
1937:..\..\..\..\..\..\Software\uC-CPU/cpu_core.c **** #if ((defined(CPU_CFG_TRAIL_ZEROS_ASM_PRESENT)) && \
1938:..\..\..\..\..\..\Software\uC-CPU/cpu_core.c ****      (CPU_CFG_DATA_SIZE >= CPU_WORD_SIZE_32))
1939:..\..\..\..\..\..\Software\uC-CPU/cpu_core.c ****     nbr_trail_zeros = CPU_CntTrailZeros((CPU_DATA)val);
1940:..\..\..\..\..\..\Software\uC-CPU/cpu_core.c **** 
1941:..\..\..\..\..\..\Software\uC-CPU/cpu_core.c **** #else                                                           /* ------------------- C-OPTIMIZED 
1942:..\..\..\..\..\..\Software\uC-CPU/cpu_core.c ****     val_bit_mask    = val & ((CPU_INT32U)~val + 1u);            /* Zero/clr all bits EXCEPT least-s
 1761              		.loc 1 1942 0
 1762 0012 7B68     		ldr	r3, [r7, #4]
 1763 0014 5B42     		rsbs	r3, r3, #0
 1764 0016 7A68     		ldr	r2, [r7, #4]
 1765 0018 1340     		ands	r3, r2
 1766 001a 7B61     		str	r3, [r7, #20]
1943:..\..\..\..\..\..\Software\uC-CPU/cpu_core.c ****     nbr_lead_zeros  = CPU_CntLeadZeros32(val_bit_mask);         /* Cnt  nbr lead  0s.              
 1767              		.loc 1 1943 0
 1768 001c 7B69     		ldr	r3, [r7, #20]
 1769 001e 1800     		movs	r0, r3
 1770 0020 FFF7FEFF 		bl	CPU_CntLeadZeros32
 1771 0024 0300     		movs	r3, r0
 1772 0026 3B61     		str	r3, [r7, #16]
1944:..\..\..\..\..\..\Software\uC-CPU/cpu_core.c ****                                                                 /* Calc nbr trail 0s = (nbr val bit
1945:..\..\..\..\..\..\Software\uC-CPU/cpu_core.c ****     nbr_trail_zeros = ((CPU_WORD_SIZE_32 * DEF_OCTET_NBR_BITS) - 1u) - nbr_lead_zeros;
 1773              		.loc 1 1945 0
 1774 0028 3B69     		ldr	r3, [r7, #16]
 1775 002a 1F22     		movs	r2, #31
 1776 002c D31A     		subs	r3, r2, r3
 1777 002e FB60     		str	r3, [r7, #12]
1946:..\..\..\..\..\..\Software\uC-CPU/cpu_core.c **** #endif
1947:..\..\..\..\..\..\Software\uC-CPU/cpu_core.c **** 
1948:..\..\..\..\..\..\Software\uC-CPU/cpu_core.c **** 
1949:..\..\..\..\..\..\Software\uC-CPU/cpu_core.c ****     return (nbr_trail_zeros);
 1778              		.loc 1 1949 0
 1779 0030 FB68     		ldr	r3, [r7, #12]
 1780              	.L118:
1950:..\..\..\..\..\..\Software\uC-CPU/cpu_core.c **** }
 1781              		.loc 1 1950 0
 1782 0032 1800     		movs	r0, r3
 1783 0034 BD46     		mov	sp, r7
 1784 0036 06B0     		add	sp, sp, #24
 1785              		@ sp needed
 1786 0038 80BD     		pop	{r7, pc}
 1787              		.cfi_endproc
 1788              	.LFE22:
 1789              		.size	CPU_CntTrailZeros32, .-CPU_CntTrailZeros32
 1790 003a C046     		.section	.text.CPU_CntTrailZeros64,"ax",%progbits
 1791              		.align	2
 1792              		.global	CPU_CntTrailZeros64
 1793              		.code	16
 1794              		.thumb_func
 1795              		.type	CPU_CntTrailZeros64, %function
 1796              	CPU_CntTrailZeros64:
 1797              	.LFB23:
1951:..\..\..\..\..\..\Software\uC-CPU/cpu_core.c **** #endif
1952:..\..\..\..\..\..\Software\uC-CPU/cpu_core.c **** 
1953:..\..\..\..\..\..\Software\uC-CPU/cpu_core.c **** 
1954:..\..\..\..\..\..\Software\uC-CPU/cpu_core.c **** /*
ARM GAS  C:\Users\ADMINI~1\AppData\Local\Temp\ccaBZmtr.s 			page 67


1955:..\..\..\..\..\..\Software\uC-CPU/cpu_core.c **** ***************************************************************************************************
1956:..\..\..\..\..\..\Software\uC-CPU/cpu_core.c **** *                                        CPU_CntTrailZeros64()
1957:..\..\..\..\..\..\Software\uC-CPU/cpu_core.c **** *
1958:..\..\..\..\..\..\Software\uC-CPU/cpu_core.c **** * Description : Count the number of contiguous, least-significant, trailing zero bits in a 64-bit d
1959:..\..\..\..\..\..\Software\uC-CPU/cpu_core.c **** *
1960:..\..\..\..\..\..\Software\uC-CPU/cpu_core.c **** * Argument(s) : val         Data value to count trailing zero bits.
1961:..\..\..\..\..\..\Software\uC-CPU/cpu_core.c **** *
1962:..\..\..\..\..\..\Software\uC-CPU/cpu_core.c **** * Return(s)   : Number of contiguous, least-significant, trailing zero bits in 'val'.
1963:..\..\..\..\..\..\Software\uC-CPU/cpu_core.c **** *
1964:..\..\..\..\..\..\Software\uC-CPU/cpu_core.c **** * Caller(s)   : Application.
1965:..\..\..\..\..\..\Software\uC-CPU/cpu_core.c **** *
1966:..\..\..\..\..\..\Software\uC-CPU/cpu_core.c **** *               This function is a CPU module application programming interface (API) function & MA
1967:..\..\..\..\..\..\Software\uC-CPU/cpu_core.c **** *               called by application function(s).
1968:..\..\..\..\..\..\Software\uC-CPU/cpu_core.c **** *
1969:..\..\..\..\..\..\Software\uC-CPU/cpu_core.c **** * Note(s)     : (1) Supports 64-bit values :
1970:..\..\..\..\..\..\Software\uC-CPU/cpu_core.c **** *
1971:..\..\..\..\..\..\Software\uC-CPU/cpu_core.c **** *                          b63  b62  b61  b60  b59  ...  b02  b01  b00    # Trailing Zeros
1972:..\..\..\..\..\..\Software\uC-CPU/cpu_core.c **** *                          ---  ---  ---  ---  ---       ---  ---  ---    ----------------
1973:..\..\..\..\..\..\Software\uC-CPU/cpu_core.c **** *                           x    x    x    x    x         x    x    1            0
1974:..\..\..\..\..\..\Software\uC-CPU/cpu_core.c **** *                           x    x    x    x    x         x    1    0            1
1975:..\..\..\..\..\..\Software\uC-CPU/cpu_core.c **** *                           x    x    x    x    x         1    0    0            2
1976:..\..\..\..\..\..\Software\uC-CPU/cpu_core.c **** *                           :    :    :    :    :         :    :    :            :
1977:..\..\..\..\..\..\Software\uC-CPU/cpu_core.c **** *                           :    :    :    :    :         :    :    :            :
1978:..\..\..\..\..\..\Software\uC-CPU/cpu_core.c **** *                           x    x    x    x    1         0    0    0           59
1979:..\..\..\..\..\..\Software\uC-CPU/cpu_core.c **** *                           x    x    x    1    0         0    0    0           60
1980:..\..\..\..\..\..\Software\uC-CPU/cpu_core.c **** *                           x    x    1    0    0         0    0    0           61
1981:..\..\..\..\..\..\Software\uC-CPU/cpu_core.c **** *                           x    1    0    0    0         0    0    0           62
1982:..\..\..\..\..\..\Software\uC-CPU/cpu_core.c **** *                           1    0    0    0    0         0    0    0           63
1983:..\..\..\..\..\..\Software\uC-CPU/cpu_core.c **** *                           0    0    0    0    0         0    0    0           64
1984:..\..\..\..\..\..\Software\uC-CPU/cpu_core.c **** *
1985:..\..\..\..\..\..\Software\uC-CPU/cpu_core.c **** *
1986:..\..\..\..\..\..\Software\uC-CPU/cpu_core.c **** *               (2) For non-zero values, the returned number of contiguous, least-significant, trai
1987:..\..\..\..\..\..\Software\uC-CPU/cpu_core.c **** *                   zero bits is also equivalent to the bit position of the least-significant set b
1988:..\..\..\..\..\..\Software\uC-CPU/cpu_core.c **** *
1989:..\..\..\..\..\..\Software\uC-CPU/cpu_core.c **** *               (3) 'val' SHOULD be validated for non-'0' PRIOR to all other counting zero calculat
1990:..\..\..\..\..\..\Software\uC-CPU/cpu_core.c **** *
1991:..\..\..\..\..\..\Software\uC-CPU/cpu_core.c **** *                   (a) For assembly-optimized implementations, CPU_CntTrailZeros() returns 'val's 
1992:..\..\..\..\..\..\Software\uC-CPU/cpu_core.c **** *                       number of trailing zeros via CPU's native data size, 'CPU_CFG_DATA_SIZE'.  
1993:..\..\..\..\..\..\Software\uC-CPU/cpu_core.c **** *                       If the returned number of zeros exceeds CPU_CntTrailZeros64()'s 64-bit retu
1994:..\..\..\..\..\..\Software\uC-CPU/cpu_core.c **** *                       data size, then the returned number of zeros must be offset by the differen
1995:..\..\..\..\..\..\Software\uC-CPU/cpu_core.c **** *                       between CPU_CntTrailZeros()'s  & CPU_CntTrailZeros64()'s return data size :
1996:..\..\..\..\..\..\Software\uC-CPU/cpu_core.c **** *
1997:..\..\..\..\..\..\Software\uC-CPU/cpu_core.c **** *                           nbr_trail_zeros = CPU_CntTrailZeros((CPU_DATA)val);
1998:..\..\..\..\..\..\Software\uC-CPU/cpu_core.c **** *                           if (nbr_trail_zeros >  (CPU_WORD_SIZE_64  * DEF_OCTET_NBR_BITS)) {
1999:..\..\..\..\..\..\Software\uC-CPU/cpu_core.c **** *                               nbr_trail_zeros -= (CPU_CFG_DATA_SIZE - CPU_WORD_SIZE_64) * DEF_OCT
2000:..\..\..\..\..\..\Software\uC-CPU/cpu_core.c **** *                           }
2001:..\..\..\..\..\..\Software\uC-CPU/cpu_core.c **** *
2002:..\..\..\..\..\..\Software\uC-CPU/cpu_core.c **** *                       However, this ONLY occurs for an initial 'val' of '0' since all non-'0' 64-
2003:..\..\..\..\..\..\Software\uC-CPU/cpu_core.c **** *                       values would return a number of trailing zeros less than or equal to 64 bit
2004:..\..\..\..\..\..\Software\uC-CPU/cpu_core.c **** *
2005:..\..\..\..\..\..\Software\uC-CPU/cpu_core.c **** *                       Therefore, initially validating all non-'0' values prior to calling assembl
2006:..\..\..\..\..\..\Software\uC-CPU/cpu_core.c **** *                       optimized CPU_CntTrailZeros() avoids having to offset the number of returne
2007:..\..\..\..\..\..\Software\uC-CPU/cpu_core.c **** *                       trailing zeros by the difference in CPU data size and 64-bit data value bit
2008:..\..\..\..\..\..\Software\uC-CPU/cpu_core.c **** *
2009:..\..\..\..\..\..\Software\uC-CPU/cpu_core.c **** *                   (b) For CPU_CntTrailZeros64()'s C implementation, the final conditional stateme
2010:..\..\..\..\..\..\Software\uC-CPU/cpu_core.c **** *                       calculates 'val's number of trailing zeros based on CPU_CntTrailZeros64()'s
2011:..\..\..\..\..\..\Software\uC-CPU/cpu_core.c **** *                       64-bit return data size & 'val's calculated number of lead zeros ONLY if th
ARM GAS  C:\Users\ADMINI~1\AppData\Local\Temp\ccaBZmtr.s 			page 68


2012:..\..\..\..\..\..\Software\uC-CPU/cpu_core.c **** *                       initial 'val' is non-'0' :
2013:..\..\..\..\..\..\Software\uC-CPU/cpu_core.c **** *
2014:..\..\..\..\..\..\Software\uC-CPU/cpu_core.c **** *                           if (val != 0u) {
2015:..\..\..\..\..\..\Software\uC-CPU/cpu_core.c **** *                               nbr_trail_zeros = ((CPU_WORD_SIZE_64 * DEF_OCTET_NBR_BITS) - 1u) - 
2016:..\..\..\..\..\..\Software\uC-CPU/cpu_core.c **** *                           } else {
2017:..\..\..\..\..\..\Software\uC-CPU/cpu_core.c **** *                               nbr_trail_zeros = nbr_lead_zeros;
2018:..\..\..\..\..\..\Software\uC-CPU/cpu_core.c **** *                           }
2019:..\..\..\..\..\..\Software\uC-CPU/cpu_core.c **** *
2020:..\..\..\..\..\..\Software\uC-CPU/cpu_core.c **** *                       Therefore, initially validating all non-'0' values avoids having to conditi
2021:..\..\..\..\..\..\Software\uC-CPU/cpu_core.c **** *                       execute the final 'if' statement.
2022:..\..\..\..\..\..\Software\uC-CPU/cpu_core.c **** ***************************************************************************************************
2023:..\..\..\..\..\..\Software\uC-CPU/cpu_core.c **** */
2024:..\..\..\..\..\..\Software\uC-CPU/cpu_core.c **** 
2025:..\..\..\..\..\..\Software\uC-CPU/cpu_core.c **** #if (CPU_CFG_DATA_SIZE_MAX >= CPU_WORD_SIZE_64)
2026:..\..\..\..\..\..\Software\uC-CPU/cpu_core.c **** CPU_DATA  CPU_CntTrailZeros64 (CPU_INT64U  val)
2027:..\..\..\..\..\..\Software\uC-CPU/cpu_core.c **** {
 1798              		.loc 1 2027 0
 1799              		.cfi_startproc
 1800              		@ args = 0, pretend = 0, frame = 24
 1801              		@ frame_needed = 1, uses_anonymous_args = 0
 1802 0000 90B5     		push	{r4, r7, lr}
 1803              		.cfi_def_cfa_offset 12
 1804              		.cfi_offset 4, -12
 1805              		.cfi_offset 7, -8
 1806              		.cfi_offset 14, -4
 1807 0002 87B0     		sub	sp, sp, #28
 1808              		.cfi_def_cfa_offset 40
 1809 0004 00AF     		add	r7, sp, #0
 1810              		.cfi_def_cfa_register 7
 1811 0006 3860     		str	r0, [r7]
 1812 0008 7960     		str	r1, [r7, #4]
2028:..\..\..\..\..\..\Software\uC-CPU/cpu_core.c **** #if  (!((defined(CPU_CFG_TRAIL_ZEROS_ASM_PRESENT)) && \
2029:..\..\..\..\..\..\Software\uC-CPU/cpu_core.c ****         (CPU_CFG_DATA_SIZE >= CPU_WORD_SIZE_64)))
2030:..\..\..\..\..\..\Software\uC-CPU/cpu_core.c ****     CPU_INT64U  val_bit_mask;
2031:..\..\..\..\..\..\Software\uC-CPU/cpu_core.c ****     CPU_DATA    nbr_lead_zeros;
2032:..\..\..\..\..\..\Software\uC-CPU/cpu_core.c **** #endif
2033:..\..\..\..\..\..\Software\uC-CPU/cpu_core.c ****     CPU_DATA    nbr_trail_zeros;
2034:..\..\..\..\..\..\Software\uC-CPU/cpu_core.c **** 
2035:..\..\..\..\..\..\Software\uC-CPU/cpu_core.c **** 
2036:..\..\..\..\..\..\Software\uC-CPU/cpu_core.c ****     if (val == 0u) {                                            /* Rtn ALL val bits as zero'd (see 
 1813              		.loc 1 2036 0
 1814 000a 3B68     		ldr	r3, [r7]
 1815 000c 7A68     		ldr	r2, [r7, #4]
 1816 000e 1343     		orrs	r3, r2
 1817 0010 01D1     		bne	.L120
2037:..\..\..\..\..\..\Software\uC-CPU/cpu_core.c ****         return (CPU_WORD_SIZE_64 * DEF_OCTET_NBR_BITS);
 1818              		.loc 1 2037 0
 1819 0012 4023     		movs	r3, #64
 1820 0014 18E0     		b	.L121
 1821              	.L120:
2038:..\..\..\..\..\..\Software\uC-CPU/cpu_core.c ****     }
2039:..\..\..\..\..\..\Software\uC-CPU/cpu_core.c **** 
2040:..\..\..\..\..\..\Software\uC-CPU/cpu_core.c ****                                                                 /* ------------------ ASM-OPTIMIZED
2041:..\..\..\..\..\..\Software\uC-CPU/cpu_core.c **** #if ((defined(CPU_CFG_TRAIL_ZEROS_ASM_PRESENT)) && \
2042:..\..\..\..\..\..\Software\uC-CPU/cpu_core.c ****      (CPU_CFG_DATA_SIZE >= CPU_WORD_SIZE_64))
2043:..\..\..\..\..\..\Software\uC-CPU/cpu_core.c ****     nbr_trail_zeros = CPU_CntTrailZeros((CPU_DATA)val);
2044:..\..\..\..\..\..\Software\uC-CPU/cpu_core.c **** 
ARM GAS  C:\Users\ADMINI~1\AppData\Local\Temp\ccaBZmtr.s 			page 69


2045:..\..\..\..\..\..\Software\uC-CPU/cpu_core.c **** #else                                                           /* ------------------- C-OPTIMIZED 
2046:..\..\..\..\..\..\Software\uC-CPU/cpu_core.c ****     val_bit_mask    = val & ((CPU_INT64U)~val + 1u);            /* Zero/clr all bits EXCEPT least-s
 1822              		.loc 1 2046 0
 1823 0016 3B68     		ldr	r3, [r7]
 1824 0018 7C68     		ldr	r4, [r7, #4]
 1825 001a 0022     		movs	r2, #0
 1826 001c 5942     		rsbs	r1, r3, #0
 1827 001e A241     		sbcs	r2, r4
 1828 0020 3B68     		ldr	r3, [r7]
 1829 0022 0800     		movs	r0, r1
 1830 0024 0340     		ands	r3, r0
 1831 0026 3B61     		str	r3, [r7, #16]
 1832 0028 7B68     		ldr	r3, [r7, #4]
 1833 002a 1340     		ands	r3, r2
 1834 002c 7B61     		str	r3, [r7, #20]
2047:..\..\..\..\..\..\Software\uC-CPU/cpu_core.c ****     nbr_lead_zeros  = CPU_CntLeadZeros64(val_bit_mask);         /* Cnt  nbr lead  0s.              
 1835              		.loc 1 2047 0
 1836 002e 3B69     		ldr	r3, [r7, #16]
 1837 0030 7C69     		ldr	r4, [r7, #20]
 1838 0032 1800     		movs	r0, r3
 1839 0034 2100     		movs	r1, r4
 1840 0036 FFF7FEFF 		bl	CPU_CntLeadZeros64
 1841 003a 0300     		movs	r3, r0
 1842 003c FB60     		str	r3, [r7, #12]
2048:..\..\..\..\..\..\Software\uC-CPU/cpu_core.c ****                                                                 /* Calc nbr trail 0s = (nbr val bit
2049:..\..\..\..\..\..\Software\uC-CPU/cpu_core.c ****     nbr_trail_zeros = ((CPU_WORD_SIZE_64 * DEF_OCTET_NBR_BITS) - 1u) - nbr_lead_zeros;
 1843              		.loc 1 2049 0
 1844 003e FB68     		ldr	r3, [r7, #12]
 1845 0040 3F22     		movs	r2, #63
 1846 0042 D31A     		subs	r3, r2, r3
 1847 0044 BB60     		str	r3, [r7, #8]
2050:..\..\..\..\..\..\Software\uC-CPU/cpu_core.c **** #endif
2051:..\..\..\..\..\..\Software\uC-CPU/cpu_core.c **** 
2052:..\..\..\..\..\..\Software\uC-CPU/cpu_core.c **** 
2053:..\..\..\..\..\..\Software\uC-CPU/cpu_core.c ****     return (nbr_trail_zeros);
 1848              		.loc 1 2053 0
 1849 0046 BB68     		ldr	r3, [r7, #8]
 1850              	.L121:
2054:..\..\..\..\..\..\Software\uC-CPU/cpu_core.c **** }
 1851              		.loc 1 2054 0
 1852 0048 1800     		movs	r0, r3
 1853 004a BD46     		mov	sp, r7
 1854 004c 07B0     		add	sp, sp, #28
 1855              		@ sp needed
 1856 004e 90BD     		pop	{r4, r7, pc}
 1857              		.cfi_endproc
 1858              	.LFE23:
 1859              		.size	CPU_CntTrailZeros64, .-CPU_CntTrailZeros64
 1860              		.section	.text.CPU_PopCnt32,"ax",%progbits
 1861              		.align	2
 1862              		.global	CPU_PopCnt32
 1863              		.code	16
 1864              		.thumb_func
 1865              		.type	CPU_PopCnt32, %function
 1866              	CPU_PopCnt32:
 1867              	.LFB24:
2055:..\..\..\..\..\..\Software\uC-CPU/cpu_core.c **** #endif
ARM GAS  C:\Users\ADMINI~1\AppData\Local\Temp\ccaBZmtr.s 			page 70


2056:..\..\..\..\..\..\Software\uC-CPU/cpu_core.c **** 
2057:..\..\..\..\..\..\Software\uC-CPU/cpu_core.c **** 
2058:..\..\..\..\..\..\Software\uC-CPU/cpu_core.c **** /*
2059:..\..\..\..\..\..\Software\uC-CPU/cpu_core.c **** ***************************************************************************************************
2060:..\..\..\..\..\..\Software\uC-CPU/cpu_core.c **** *                                           CRCUtil_PopCnt_32()
2061:..\..\..\..\..\..\Software\uC-CPU/cpu_core.c **** *
2062:..\..\..\..\..\..\Software\uC-CPU/cpu_core.c **** * Description : Compute population count (hamming weight) for value (number of bits set).
2063:..\..\..\..\..\..\Software\uC-CPU/cpu_core.c **** *
2064:..\..\..\..\..\..\Software\uC-CPU/cpu_core.c **** * Argument(s) : value           Value to compute population count on.
2065:..\..\..\..\..\..\Software\uC-CPU/cpu_core.c **** *
2066:..\..\..\..\..\..\Software\uC-CPU/cpu_core.c **** *
2067:..\..\..\..\..\..\Software\uC-CPU/cpu_core.c **** * Return(s)   : value's population count.
2068:..\..\..\..\..\..\Software\uC-CPU/cpu_core.c **** *
2069:..\..\..\..\..\..\Software\uC-CPU/cpu_core.c **** * Caller(s)   : various.
2070:..\..\..\..\..\..\Software\uC-CPU/cpu_core.c **** *
2071:..\..\..\..\..\..\Software\uC-CPU/cpu_core.c **** * Note(s)     : (1) Algorithm taken from http://en.wikipedia.org/wiki/Hamming_weight
2072:..\..\..\..\..\..\Software\uC-CPU/cpu_core.c **** ***************************************************************************************************
2073:..\..\..\..\..\..\Software\uC-CPU/cpu_core.c **** */
2074:..\..\..\..\..\..\Software\uC-CPU/cpu_core.c **** 
2075:..\..\..\..\..\..\Software\uC-CPU/cpu_core.c **** CPU_INT08U  CPU_PopCnt32 (CPU_INT32U  value)
2076:..\..\..\..\..\..\Software\uC-CPU/cpu_core.c **** {
 1868              		.loc 1 2076 0
 1869              		.cfi_startproc
 1870              		@ args = 0, pretend = 0, frame = 24
 1871              		@ frame_needed = 1, uses_anonymous_args = 0
 1872 0000 80B5     		push	{r7, lr}
 1873              		.cfi_def_cfa_offset 8
 1874              		.cfi_offset 7, -8
 1875              		.cfi_offset 14, -4
 1876 0002 86B0     		sub	sp, sp, #24
 1877              		.cfi_def_cfa_offset 32
 1878 0004 00AF     		add	r7, sp, #0
 1879              		.cfi_def_cfa_register 7
 1880 0006 7860     		str	r0, [r7, #4]
2077:..\..\..\..\..\..\Software\uC-CPU/cpu_core.c ****     CPU_INT32U  even_cnt;
2078:..\..\..\..\..\..\Software\uC-CPU/cpu_core.c ****     CPU_INT32U  odd_cnt;
2079:..\..\..\..\..\..\Software\uC-CPU/cpu_core.c ****     CPU_INT32U  result;
2080:..\..\..\..\..\..\Software\uC-CPU/cpu_core.c **** 
2081:..\..\..\..\..\..\Software\uC-CPU/cpu_core.c **** 
2082:..\..\..\..\..\..\Software\uC-CPU/cpu_core.c ****     odd_cnt  = (value >> 1u) & CRC_UTIL_POPCNT_MASK01010101_32; /* 2-bits pieces.                  
 1881              		.loc 1 2082 0
 1882 0008 7B68     		ldr	r3, [r7, #4]
 1883 000a 5B08     		lsrs	r3, r3, #1
 1884 000c 174A     		ldr	r2, .L124
 1885 000e 1340     		ands	r3, r2
 1886 0010 7B61     		str	r3, [r7, #20]
2083:..\..\..\..\..\..\Software\uC-CPU/cpu_core.c ****     result   =  value - odd_cnt;                                /* Same result as result=odd_cnt+(v
 1887              		.loc 1 2083 0
 1888 0012 7A68     		ldr	r2, [r7, #4]
 1889 0014 7B69     		ldr	r3, [r7, #20]
 1890 0016 D31A     		subs	r3, r2, r3
 1891 0018 3B61     		str	r3, [r7, #16]
2084:..\..\..\..\..\..\Software\uC-CPU/cpu_core.c **** 
2085:..\..\..\..\..\..\Software\uC-CPU/cpu_core.c ****     even_cnt =  result & CRC_UTIL_POPCNT_MASK00110011_32;       /* 4-bits pieces.                  
 1892              		.loc 1 2085 0
 1893 001a 3B69     		ldr	r3, [r7, #16]
 1894 001c 144A     		ldr	r2, .L124+4
ARM GAS  C:\Users\ADMINI~1\AppData\Local\Temp\ccaBZmtr.s 			page 71


 1895 001e 1340     		ands	r3, r2
 1896 0020 FB60     		str	r3, [r7, #12]
2086:..\..\..\..\..\..\Software\uC-CPU/cpu_core.c ****     odd_cnt  = (result >> 2u) & CRC_UTIL_POPCNT_MASK00110011_32;
 1897              		.loc 1 2086 0
 1898 0022 3B69     		ldr	r3, [r7, #16]
 1899 0024 9B08     		lsrs	r3, r3, #2
 1900 0026 124A     		ldr	r2, .L124+4
 1901 0028 1340     		ands	r3, r2
 1902 002a 7B61     		str	r3, [r7, #20]
2087:..\..\..\..\..\..\Software\uC-CPU/cpu_core.c ****     result   =  even_cnt + odd_cnt;
 1903              		.loc 1 2087 0
 1904 002c FA68     		ldr	r2, [r7, #12]
 1905 002e 7B69     		ldr	r3, [r7, #20]
 1906 0030 D318     		adds	r3, r2, r3
 1907 0032 3B61     		str	r3, [r7, #16]
2088:..\..\..\..\..\..\Software\uC-CPU/cpu_core.c **** 
2089:..\..\..\..\..\..\Software\uC-CPU/cpu_core.c ****     even_cnt =  result & CRC_UTIL_POPCNT_MASK00001111_32;       /* 8-bits pieces.                  
 1908              		.loc 1 2089 0
 1909 0034 3B69     		ldr	r3, [r7, #16]
 1910 0036 0F4A     		ldr	r2, .L124+8
 1911 0038 1340     		ands	r3, r2
 1912 003a FB60     		str	r3, [r7, #12]
2090:..\..\..\..\..\..\Software\uC-CPU/cpu_core.c ****     odd_cnt  = (result >> 4u) & CRC_UTIL_POPCNT_MASK00001111_32;
 1913              		.loc 1 2090 0
 1914 003c 3B69     		ldr	r3, [r7, #16]
 1915 003e 1B09     		lsrs	r3, r3, #4
 1916 0040 0C4A     		ldr	r2, .L124+8
 1917 0042 1340     		ands	r3, r2
 1918 0044 7B61     		str	r3, [r7, #20]
2091:..\..\..\..\..\..\Software\uC-CPU/cpu_core.c ****     result   =  even_cnt + odd_cnt;
 1919              		.loc 1 2091 0
 1920 0046 FA68     		ldr	r2, [r7, #12]
 1921 0048 7B69     		ldr	r3, [r7, #20]
 1922 004a D318     		adds	r3, r2, r3
 1923 004c 3B61     		str	r3, [r7, #16]
2092:..\..\..\..\..\..\Software\uC-CPU/cpu_core.c **** 
2093:..\..\..\..\..\..\Software\uC-CPU/cpu_core.c ****     result = (result * CRC_UTIL_POPCNT_POWERSOF256_32) >> 24u;
 1924              		.loc 1 2093 0
 1925 004e 3A69     		ldr	r2, [r7, #16]
 1926 0050 1300     		movs	r3, r2
 1927 0052 1B02     		lsls	r3, r3, #8
 1928 0054 9B18     		adds	r3, r3, r2
 1929 0056 1A04     		lsls	r2, r3, #16
 1930 0058 9B18     		adds	r3, r3, r2
 1931 005a 1B0E     		lsrs	r3, r3, #24
 1932 005c 3B61     		str	r3, [r7, #16]
2094:..\..\..\..\..\..\Software\uC-CPU/cpu_core.c **** 
2095:..\..\..\..\..\..\Software\uC-CPU/cpu_core.c ****     return (result);
 1933              		.loc 1 2095 0
 1934 005e 3B69     		ldr	r3, [r7, #16]
 1935 0060 DBB2     		uxtb	r3, r3
2096:..\..\..\..\..\..\Software\uC-CPU/cpu_core.c **** }
 1936              		.loc 1 2096 0
 1937 0062 1800     		movs	r0, r3
 1938 0064 BD46     		mov	sp, r7
 1939 0066 06B0     		add	sp, sp, #24
 1940              		@ sp needed
ARM GAS  C:\Users\ADMINI~1\AppData\Local\Temp\ccaBZmtr.s 			page 72


 1941 0068 80BD     		pop	{r7, pc}
 1942              	.L125:
 1943 006a C046     		.align	2
 1944              	.L124:
 1945 006c 55555555 		.word	1431655765
 1946 0070 33333333 		.word	858993459
 1947 0074 0F0F0F0F 		.word	252645135
 1948              		.cfi_endproc
 1949              	.LFE24:
 1950              		.size	CPU_PopCnt32, .-CPU_PopCnt32
 1951              		.section	.text.CPU_NameInit,"ax",%progbits
 1952              		.align	2
 1953              		.code	16
 1954              		.thumb_func
 1955              		.type	CPU_NameInit, %function
 1956              	CPU_NameInit:
 1957              	.LFB25:
2097:..\..\..\..\..\..\Software\uC-CPU/cpu_core.c **** 
2098:..\..\..\..\..\..\Software\uC-CPU/cpu_core.c **** 
2099:..\..\..\..\..\..\Software\uC-CPU/cpu_core.c **** /*
2100:..\..\..\..\..\..\Software\uC-CPU/cpu_core.c **** ***************************************************************************************************
2101:..\..\..\..\..\..\Software\uC-CPU/cpu_core.c **** ***************************************************************************************************
2102:..\..\..\..\..\..\Software\uC-CPU/cpu_core.c **** *                                           LOCAL FUNCTIONS
2103:..\..\..\..\..\..\Software\uC-CPU/cpu_core.c **** ***************************************************************************************************
2104:..\..\..\..\..\..\Software\uC-CPU/cpu_core.c **** ***************************************************************************************************
2105:..\..\..\..\..\..\Software\uC-CPU/cpu_core.c **** */
2106:..\..\..\..\..\..\Software\uC-CPU/cpu_core.c **** 
2107:..\..\..\..\..\..\Software\uC-CPU/cpu_core.c **** /*
2108:..\..\..\..\..\..\Software\uC-CPU/cpu_core.c **** ***************************************************************************************************
2109:..\..\..\..\..\..\Software\uC-CPU/cpu_core.c **** *                                           CPU_NameInit()
2110:..\..\..\..\..\..\Software\uC-CPU/cpu_core.c **** *
2111:..\..\..\..\..\..\Software\uC-CPU/cpu_core.c **** * Description : Initialize CPU Name.
2112:..\..\..\..\..\..\Software\uC-CPU/cpu_core.c **** *
2113:..\..\..\..\..\..\Software\uC-CPU/cpu_core.c **** * Argument(s) : none.
2114:..\..\..\..\..\..\Software\uC-CPU/cpu_core.c **** *
2115:..\..\..\..\..\..\Software\uC-CPU/cpu_core.c **** * Return(s)   : none.
2116:..\..\..\..\..\..\Software\uC-CPU/cpu_core.c **** *
2117:..\..\..\..\..\..\Software\uC-CPU/cpu_core.c **** * Caller(s)   : CPU_Init().
2118:..\..\..\..\..\..\Software\uC-CPU/cpu_core.c **** *
2119:..\..\..\..\..\..\Software\uC-CPU/cpu_core.c **** * Note(s)     : none.
2120:..\..\..\..\..\..\Software\uC-CPU/cpu_core.c **** ***************************************************************************************************
2121:..\..\..\..\..\..\Software\uC-CPU/cpu_core.c **** */
2122:..\..\..\..\..\..\Software\uC-CPU/cpu_core.c **** 
2123:..\..\..\..\..\..\Software\uC-CPU/cpu_core.c **** #if (CPU_CFG_NAME_EN == DEF_ENABLED)
2124:..\..\..\..\..\..\Software\uC-CPU/cpu_core.c **** static  void  CPU_NameInit (void)
2125:..\..\..\..\..\..\Software\uC-CPU/cpu_core.c **** {
 1958              		.loc 1 2125 0
 1959              		.cfi_startproc
 1960              		@ args = 0, pretend = 0, frame = 0
 1961              		@ frame_needed = 1, uses_anonymous_args = 0
 1962 0000 80B5     		push	{r7, lr}
 1963              		.cfi_def_cfa_offset 8
 1964              		.cfi_offset 7, -8
 1965              		.cfi_offset 14, -4
 1966 0002 00AF     		add	r7, sp, #0
 1967              		.cfi_def_cfa_register 7
2126:..\..\..\..\..\..\Software\uC-CPU/cpu_core.c ****     CPU_NameClr();
ARM GAS  C:\Users\ADMINI~1\AppData\Local\Temp\ccaBZmtr.s 			page 73


 1968              		.loc 1 2126 0
 1969 0004 FFF7FEFF 		bl	CPU_NameClr
2127:..\..\..\..\..\..\Software\uC-CPU/cpu_core.c **** }
 1970              		.loc 1 2127 0
 1971 0008 C046     		nop
 1972 000a BD46     		mov	sp, r7
 1973              		@ sp needed
 1974 000c 80BD     		pop	{r7, pc}
 1975              		.cfi_endproc
 1976              	.LFE25:
 1977              		.size	CPU_NameInit, .-CPU_NameInit
 1978 000e C046     		.section	.text.CPU_TS_Init,"ax",%progbits
 1979              		.align	2
 1980              		.code	16
 1981              		.thumb_func
 1982              		.type	CPU_TS_Init, %function
 1983              	CPU_TS_Init:
 1984              	.LFB26:
2128:..\..\..\..\..\..\Software\uC-CPU/cpu_core.c **** #endif
2129:..\..\..\..\..\..\Software\uC-CPU/cpu_core.c **** 
2130:..\..\..\..\..\..\Software\uC-CPU/cpu_core.c **** 
2131:..\..\..\..\..\..\Software\uC-CPU/cpu_core.c **** /*
2132:..\..\..\..\..\..\Software\uC-CPU/cpu_core.c **** ***************************************************************************************************
2133:..\..\..\..\..\..\Software\uC-CPU/cpu_core.c **** *                                            CPU_TS_Init()
2134:..\..\..\..\..\..\Software\uC-CPU/cpu_core.c **** *
2135:..\..\..\..\..\..\Software\uC-CPU/cpu_core.c **** * Description : (1) Initialize CPU timestamp :
2136:..\..\..\..\..\..\Software\uC-CPU/cpu_core.c **** *
2137:..\..\..\..\..\..\Software\uC-CPU/cpu_core.c **** *                   (a) Initialize/start CPU timestamp timer                            See Note #1
2138:..\..\..\..\..\..\Software\uC-CPU/cpu_core.c **** *                   (b) Initialize       CPU timestamp controls
2139:..\..\..\..\..\..\Software\uC-CPU/cpu_core.c **** *
2140:..\..\..\..\..\..\Software\uC-CPU/cpu_core.c **** *
2141:..\..\..\..\..\..\Software\uC-CPU/cpu_core.c **** * Argument(s) : none.
2142:..\..\..\..\..\..\Software\uC-CPU/cpu_core.c **** *
2143:..\..\..\..\..\..\Software\uC-CPU/cpu_core.c **** * Return(s)   : none.
2144:..\..\..\..\..\..\Software\uC-CPU/cpu_core.c **** *
2145:..\..\..\..\..\..\Software\uC-CPU/cpu_core.c **** * Caller(s)   : CPU_Init().
2146:..\..\..\..\..\..\Software\uC-CPU/cpu_core.c **** *
2147:..\..\..\..\..\..\Software\uC-CPU/cpu_core.c **** * Note(s)     : (1) The following initialization MUST be sequenced as follows :
2148:..\..\..\..\..\..\Software\uC-CPU/cpu_core.c **** *
2149:..\..\..\..\..\..\Software\uC-CPU/cpu_core.c **** *                   (a) CPU_TS_TmrFreq_Hz     MUST be initialized prior to CPU_TS_TmrInit()
2150:..\..\..\..\..\..\Software\uC-CPU/cpu_core.c **** *                   (b) CPU_TS_TmrInit()      SHOULD precede calls to all other CPU timestamp funct
2151:..\..\..\..\..\..\Software\uC-CPU/cpu_core.c **** *                                                 otherwise, invalid time measurements may be calcu
2152:..\..\..\..\..\..\Software\uC-CPU/cpu_core.c **** *                                                 returned.
2153:..\..\..\..\..\..\Software\uC-CPU/cpu_core.c **** *
2154:..\..\..\..\..\..\Software\uC-CPU/cpu_core.c **** *                   See also 'CPU_Init()  Note #3a'.
2155:..\..\..\..\..\..\Software\uC-CPU/cpu_core.c **** ***************************************************************************************************
2156:..\..\..\..\..\..\Software\uC-CPU/cpu_core.c **** */
2157:..\..\..\..\..\..\Software\uC-CPU/cpu_core.c **** 
2158:..\..\..\..\..\..\Software\uC-CPU/cpu_core.c **** #if ((CPU_CFG_TS_EN     == DEF_ENABLED) || \
2159:..\..\..\..\..\..\Software\uC-CPU/cpu_core.c ****      (CPU_CFG_TS_TMR_EN == DEF_ENABLED))
2160:..\..\..\..\..\..\Software\uC-CPU/cpu_core.c **** static  void  CPU_TS_Init (void)
2161:..\..\..\..\..\..\Software\uC-CPU/cpu_core.c **** {
 1985              		.loc 1 2161 0
 1986              		.cfi_startproc
 1987              		@ args = 0, pretend = 0, frame = 0
 1988              		@ frame_needed = 1, uses_anonymous_args = 0
 1989 0000 80B5     		push	{r7, lr}
ARM GAS  C:\Users\ADMINI~1\AppData\Local\Temp\ccaBZmtr.s 			page 74


 1990              		.cfi_def_cfa_offset 8
 1991              		.cfi_offset 7, -8
 1992              		.cfi_offset 14, -4
 1993 0002 00AF     		add	r7, sp, #0
 1994              		.cfi_def_cfa_register 7
2162:..\..\..\..\..\..\Software\uC-CPU/cpu_core.c **** #if (((CPU_CFG_TS_32_EN    == DEF_ENABLED     )  && \
2163:..\..\..\..\..\..\Software\uC-CPU/cpu_core.c ****       (CPU_CFG_TS_TMR_SIZE <  CPU_WORD_SIZE_32)) || \
2164:..\..\..\..\..\..\Software\uC-CPU/cpu_core.c ****      ((CPU_CFG_TS_64_EN    == DEF_ENABLED     )  && \
2165:..\..\..\..\..\..\Software\uC-CPU/cpu_core.c ****       (CPU_CFG_TS_TMR_SIZE <  CPU_WORD_SIZE_64)))
2166:..\..\..\..\..\..\Software\uC-CPU/cpu_core.c ****     CPU_TS_TMR  ts_tmr_cnts;
2167:..\..\..\..\..\..\Software\uC-CPU/cpu_core.c **** #endif
2168:..\..\..\..\..\..\Software\uC-CPU/cpu_core.c **** 
2169:..\..\..\..\..\..\Software\uC-CPU/cpu_core.c **** 
2170:..\..\..\..\..\..\Software\uC-CPU/cpu_core.c ****                                                                 /* ----------------- INIT CPU TS TM
2171:..\..\..\..\..\..\Software\uC-CPU/cpu_core.c **** #if (CPU_CFG_TS_TMR_EN == DEF_ENABLED)
2172:..\..\..\..\..\..\Software\uC-CPU/cpu_core.c ****     CPU_TS_TmrFreq_Hz   = 0u;                                   /* Init/clr     ts tmr freq (see No
 1995              		.loc 1 2172 0
 1996 0004 034B     		ldr	r3, .L128
 1997 0006 0022     		movs	r2, #0
 1998 0008 1A60     		str	r2, [r3]
2173:..\..\..\..\..\..\Software\uC-CPU/cpu_core.c ****     CPU_TS_TmrInit();                                           /* Init & start ts tmr      (see No
 1999              		.loc 1 2173 0
 2000 000a FFF7FEFF 		bl	CPU_TS_TmrInit
2174:..\..\..\..\..\..\Software\uC-CPU/cpu_core.c **** #endif
2175:..\..\..\..\..\..\Software\uC-CPU/cpu_core.c **** 
2176:..\..\..\..\..\..\Software\uC-CPU/cpu_core.c **** 
2177:..\..\..\..\..\..\Software\uC-CPU/cpu_core.c ****                                                                 /* ------------------- INIT CPU TS 
2178:..\..\..\..\..\..\Software\uC-CPU/cpu_core.c **** #if (((CPU_CFG_TS_32_EN    == DEF_ENABLED     )  && \
2179:..\..\..\..\..\..\Software\uC-CPU/cpu_core.c ****       (CPU_CFG_TS_TMR_SIZE <  CPU_WORD_SIZE_32)) || \
2180:..\..\..\..\..\..\Software\uC-CPU/cpu_core.c ****      ((CPU_CFG_TS_64_EN    == DEF_ENABLED     )  && \
2181:..\..\..\..\..\..\Software\uC-CPU/cpu_core.c ****       (CPU_CFG_TS_TMR_SIZE <  CPU_WORD_SIZE_64)))
2182:..\..\..\..\..\..\Software\uC-CPU/cpu_core.c ****     ts_tmr_cnts = CPU_TS_TmrRd();                               /* Get init ts tmr val (in ts tmr c
2183:..\..\..\..\..\..\Software\uC-CPU/cpu_core.c **** #endif
2184:..\..\..\..\..\..\Software\uC-CPU/cpu_core.c **** 
2185:..\..\..\..\..\..\Software\uC-CPU/cpu_core.c **** #if  ((CPU_CFG_TS_32_EN    == DEF_ENABLED)  && \
2186:..\..\..\..\..\..\Software\uC-CPU/cpu_core.c ****       (CPU_CFG_TS_TMR_SIZE <  CPU_WORD_SIZE_32))
2187:..\..\..\..\..\..\Software\uC-CPU/cpu_core.c ****     CPU_TS_32_Accum   = 0u;                                     /* Init 32-bit accum'd ts.         
2188:..\..\..\..\..\..\Software\uC-CPU/cpu_core.c ****     CPU_TS_32_TmrPrev = ts_tmr_cnts;                            /* Init 32-bit ts prev tmr val.    
2189:..\..\..\..\..\..\Software\uC-CPU/cpu_core.c **** #endif
2190:..\..\..\..\..\..\Software\uC-CPU/cpu_core.c **** 
2191:..\..\..\..\..\..\Software\uC-CPU/cpu_core.c **** #if  ((CPU_CFG_TS_64_EN    == DEF_ENABLED)  && \
2192:..\..\..\..\..\..\Software\uC-CPU/cpu_core.c ****       (CPU_CFG_TS_TMR_SIZE <  CPU_WORD_SIZE_64))
2193:..\..\..\..\..\..\Software\uC-CPU/cpu_core.c ****     CPU_TS_64_Accum   = 0u;                                     /* Init 64-bit accum'd ts.         
2194:..\..\..\..\..\..\Software\uC-CPU/cpu_core.c ****     CPU_TS_64_TmrPrev = ts_tmr_cnts;                            /* Init 64-bit ts prev tmr val.    
2195:..\..\..\..\..\..\Software\uC-CPU/cpu_core.c **** #endif
2196:..\..\..\..\..\..\Software\uC-CPU/cpu_core.c **** }
 2001              		.loc 1 2196 0
 2002 000e C046     		nop
 2003 0010 BD46     		mov	sp, r7
 2004              		@ sp needed
 2005 0012 80BD     		pop	{r7, pc}
 2006              	.L129:
 2007              		.align	2
 2008              	.L128:
 2009 0014 00000000 		.word	CPU_TS_TmrFreq_Hz
 2010              		.cfi_endproc
 2011              	.LFE26:
ARM GAS  C:\Users\ADMINI~1\AppData\Local\Temp\ccaBZmtr.s 			page 75


 2012              		.size	CPU_TS_Init, .-CPU_TS_Init
 2013              		.section	.text.CPU_IntDisMeasInit,"ax",%progbits
 2014              		.align	2
 2015              		.code	16
 2016              		.thumb_func
 2017              		.type	CPU_IntDisMeasInit, %function
 2018              	CPU_IntDisMeasInit:
 2019              	.LFB27:
2197:..\..\..\..\..\..\Software\uC-CPU/cpu_core.c **** #endif
2198:..\..\..\..\..\..\Software\uC-CPU/cpu_core.c **** 
2199:..\..\..\..\..\..\Software\uC-CPU/cpu_core.c **** 
2200:..\..\..\..\..\..\Software\uC-CPU/cpu_core.c **** /*
2201:..\..\..\..\..\..\Software\uC-CPU/cpu_core.c **** ***************************************************************************************************
2202:..\..\..\..\..\..\Software\uC-CPU/cpu_core.c **** *                                        CPU_IntDisMeasInit()
2203:..\..\..\..\..\..\Software\uC-CPU/cpu_core.c **** *
2204:..\..\..\..\..\..\Software\uC-CPU/cpu_core.c **** * Description : (1) Initialize interrupts disabled time measurements feature :
2205:..\..\..\..\..\..\Software\uC-CPU/cpu_core.c **** *
2206:..\..\..\..\..\..\Software\uC-CPU/cpu_core.c **** *                   (a) Initialize interrupts disabled time measurement controls
2207:..\..\..\..\..\..\Software\uC-CPU/cpu_core.c **** *                   (b) Calculate  interrupts disabled time measurement overhead
2208:..\..\..\..\..\..\Software\uC-CPU/cpu_core.c **** *
2209:..\..\..\..\..\..\Software\uC-CPU/cpu_core.c **** *
2210:..\..\..\..\..\..\Software\uC-CPU/cpu_core.c **** * Argument(s) : none.
2211:..\..\..\..\..\..\Software\uC-CPU/cpu_core.c **** *
2212:..\..\..\..\..\..\Software\uC-CPU/cpu_core.c **** * Return(s)   : none.
2213:..\..\..\..\..\..\Software\uC-CPU/cpu_core.c **** *
2214:..\..\..\..\..\..\Software\uC-CPU/cpu_core.c **** * Caller(s)   : CPU_Init().
2215:..\..\..\..\..\..\Software\uC-CPU/cpu_core.c **** *
2216:..\..\..\..\..\..\Software\uC-CPU/cpu_core.c **** * Note(s)     : (2) CPU_IntDisMeasInit() SHOULD precede ALL calls to CPU_CRITICAL_ENTER()/CPU_CRITI
2217:..\..\..\..\..\..\Software\uC-CPU/cpu_core.c **** *                   & other CPU interrupts disabled time measurement functions; otherwise, invalid 
2218:..\..\..\..\..\..\Software\uC-CPU/cpu_core.c **** *                   disabled time measurements may be calculated/returned.
2219:..\..\..\..\..\..\Software\uC-CPU/cpu_core.c **** *
2220:..\..\..\..\..\..\Software\uC-CPU/cpu_core.c **** *                   See also 'CPU_Init()  Note #3b'.
2221:..\..\..\..\..\..\Software\uC-CPU/cpu_core.c **** *
2222:..\..\..\..\..\..\Software\uC-CPU/cpu_core.c **** *               (3) (a) (1) Interrupts disabled time measurement overhead performed multiple times 
2223:..\..\..\..\..\..\Software\uC-CPU/cpu_core.c **** *                           a rounded average with better accuracy, hopefully of +/- one timer coun
2224:..\..\..\..\..\..\Software\uC-CPU/cpu_core.c **** *
2225:..\..\..\..\..\..\Software\uC-CPU/cpu_core.c **** *                       (2) However, a single overhead time measurement is recommended, even for in
2226:..\..\..\..\..\..\Software\uC-CPU/cpu_core.c **** *                           cache-enabled CPUs, since critical sections are NOT typically called wi
2227:..\..\..\..\..\..\Software\uC-CPU/cpu_core.c **** *                           instruction-cached loops.  Thus a single non-cached/non-averaged time m
2228:..\..\..\..\..\..\Software\uC-CPU/cpu_core.c **** *                           is a more realistic overhead for the majority of non-cached interrupts 
2229:..\..\..\..\..\..\Software\uC-CPU/cpu_core.c **** *                           time measurements.
2230:..\..\..\..\..\..\Software\uC-CPU/cpu_core.c **** *
2231:..\..\..\..\..\..\Software\uC-CPU/cpu_core.c **** *                   (b) Interrupts MUST be disabled while measuring the interrupts disabled time me
2232:..\..\..\..\..\..\Software\uC-CPU/cpu_core.c **** *                       overhead; otherwise, overhead measurements could be interrupted which would
2233:..\..\..\..\..\..\Software\uC-CPU/cpu_core.c **** *                       calculate an inflated overhead time which would then incorrectly calculate 
2234:..\..\..\..\..\..\Software\uC-CPU/cpu_core.c **** *                       interrupts disabled times.
2235:..\..\..\..\..\..\Software\uC-CPU/cpu_core.c **** ***************************************************************************************************
2236:..\..\..\..\..\..\Software\uC-CPU/cpu_core.c **** */
2237:..\..\..\..\..\..\Software\uC-CPU/cpu_core.c **** 
2238:..\..\..\..\..\..\Software\uC-CPU/cpu_core.c **** #ifdef  CPU_CFG_INT_DIS_MEAS_EN
2239:..\..\..\..\..\..\Software\uC-CPU/cpu_core.c **** static  void  CPU_IntDisMeasInit (void)
2240:..\..\..\..\..\..\Software\uC-CPU/cpu_core.c **** {
 2020              		.loc 1 2240 0
 2021              		.cfi_startproc
 2022              		@ args = 0, pretend = 0, frame = 16
 2023              		@ frame_needed = 1, uses_anonymous_args = 0
 2024 0000 80B5     		push	{r7, lr}
ARM GAS  C:\Users\ADMINI~1\AppData\Local\Temp\ccaBZmtr.s 			page 76


 2025              		.cfi_def_cfa_offset 8
 2026              		.cfi_offset 7, -8
 2027              		.cfi_offset 14, -4
 2028 0002 84B0     		sub	sp, sp, #16
 2029              		.cfi_def_cfa_offset 24
 2030 0004 00AF     		add	r7, sp, #0
 2031              		.cfi_def_cfa_register 7
2241:..\..\..\..\..\..\Software\uC-CPU/cpu_core.c ****     CPU_TS_TMR  time_meas_tot_cnts;
2242:..\..\..\..\..\..\Software\uC-CPU/cpu_core.c ****     CPU_INT16U  i;
2243:..\..\..\..\..\..\Software\uC-CPU/cpu_core.c ****     CPU_SR_ALLOC();
 2032              		.loc 1 2243 0
 2033 0006 0023     		movs	r3, #0
 2034 0008 7B60     		str	r3, [r7, #4]
2244:..\..\..\..\..\..\Software\uC-CPU/cpu_core.c **** 
2245:..\..\..\..\..\..\Software\uC-CPU/cpu_core.c ****                                                                 /* ----------- INIT INT DIS TIME ME
2246:..\..\..\..\..\..\Software\uC-CPU/cpu_core.c ****     CPU_IntDisMeasCtr         = 0u;
 2035              		.loc 1 2246 0
 2036 000a 244B     		ldr	r3, .L133
 2037 000c 0022     		movs	r2, #0
 2038 000e 1A80     		strh	r2, [r3]
2247:..\..\..\..\..\..\Software\uC-CPU/cpu_core.c ****     CPU_IntDisNestCtr         = 0u;
 2039              		.loc 1 2247 0
 2040 0010 234B     		ldr	r3, .L133+4
 2041 0012 0022     		movs	r2, #0
 2042 0014 1A80     		strh	r2, [r3]
2248:..\..\..\..\..\..\Software\uC-CPU/cpu_core.c ****     CPU_IntDisMeasStart_cnts  = 0u;
 2043              		.loc 1 2248 0
 2044 0016 234B     		ldr	r3, .L133+8
 2045 0018 0022     		movs	r2, #0
 2046 001a 1A60     		str	r2, [r3]
2249:..\..\..\..\..\..\Software\uC-CPU/cpu_core.c ****     CPU_IntDisMeasStop_cnts   = 0u;
 2047              		.loc 1 2249 0
 2048 001c 224B     		ldr	r3, .L133+12
 2049 001e 0022     		movs	r2, #0
 2050 0020 1A60     		str	r2, [r3]
2250:..\..\..\..\..\..\Software\uC-CPU/cpu_core.c ****     CPU_IntDisMeasMaxCur_cnts = 0u;
 2051              		.loc 1 2250 0
 2052 0022 224B     		ldr	r3, .L133+16
 2053 0024 0022     		movs	r2, #0
 2054 0026 1A60     		str	r2, [r3]
2251:..\..\..\..\..\..\Software\uC-CPU/cpu_core.c ****     CPU_IntDisMeasMax_cnts    = 0u;
 2055              		.loc 1 2251 0
 2056 0028 214B     		ldr	r3, .L133+20
 2057 002a 0022     		movs	r2, #0
 2058 002c 1A60     		str	r2, [r3]
2252:..\..\..\..\..\..\Software\uC-CPU/cpu_core.c ****     CPU_IntDisMeasOvrhd_cnts  = 0u;
 2059              		.loc 1 2252 0
 2060 002e 214B     		ldr	r3, .L133+24
 2061 0030 0022     		movs	r2, #0
 2062 0032 1A60     		str	r2, [r3]
2253:..\..\..\..\..\..\Software\uC-CPU/cpu_core.c **** 
2254:..\..\..\..\..\..\Software\uC-CPU/cpu_core.c ****                                                                 /* ----------- CALC INT DIS TIME ME
2255:..\..\..\..\..\..\Software\uC-CPU/cpu_core.c ****     time_meas_tot_cnts = 0u;
 2063              		.loc 1 2255 0
 2064 0034 0023     		movs	r3, #0
 2065 0036 FB60     		str	r3, [r7, #12]
2256:..\..\..\..\..\..\Software\uC-CPU/cpu_core.c ****     CPU_INT_DIS();                                              /* Ints MUST be dis'd for ovrhd cal
ARM GAS  C:\Users\ADMINI~1\AppData\Local\Temp\ccaBZmtr.s 			page 77


 2066              		.loc 1 2256 0
 2067 0038 FFF7FEFF 		bl	CPU_SR_Save
 2068 003c 0300     		movs	r3, r0
 2069 003e 7B60     		str	r3, [r7, #4]
2257:..\..\..\..\..\..\Software\uC-CPU/cpu_core.c ****     for (i = 0u; i < CPU_CFG_INT_DIS_MEAS_OVRHD_NBR; i++) {
 2070              		.loc 1 2257 0
 2071 0040 0A23     		movs	r3, #10
 2072 0042 FB18     		adds	r3, r7, r3
 2073 0044 0022     		movs	r2, #0
 2074 0046 1A80     		strh	r2, [r3]
 2075 0048 12E0     		b	.L131
 2076              	.L132:
2258:..\..\..\..\..\..\Software\uC-CPU/cpu_core.c ****         CPU_IntDisMeasMaxCur_cnts = 0u;
 2077              		.loc 1 2258 0 discriminator 3
 2078 004a 184B     		ldr	r3, .L133+16
 2079 004c 0022     		movs	r2, #0
 2080 004e 1A60     		str	r2, [r3]
2259:..\..\..\..\..\..\Software\uC-CPU/cpu_core.c ****         CPU_IntDisMeasStart();                                  /* Perform multiple consecutive sta
 2081              		.loc 1 2259 0 discriminator 3
 2082 0050 FFF7FEFF 		bl	CPU_IntDisMeasStart
2260:..\..\..\..\..\..\Software\uC-CPU/cpu_core.c ****         CPU_IntDisMeasStop();
 2083              		.loc 1 2260 0 discriminator 3
 2084 0054 FFF7FEFF 		bl	CPU_IntDisMeasStop
2261:..\..\..\..\..\..\Software\uC-CPU/cpu_core.c ****         time_meas_tot_cnts += CPU_IntDisMeasMaxCur_cnts;        /* ...       & sum time meas max's 
 2085              		.loc 1 2261 0 discriminator 3
 2086 0058 144B     		ldr	r3, .L133+16
 2087 005a 1B68     		ldr	r3, [r3]
 2088 005c FA68     		ldr	r2, [r7, #12]
 2089 005e D318     		adds	r3, r2, r3
 2090 0060 FB60     		str	r3, [r7, #12]
2257:..\..\..\..\..\..\Software\uC-CPU/cpu_core.c ****         CPU_IntDisMeasMaxCur_cnts = 0u;
 2091              		.loc 1 2257 0 discriminator 3
 2092 0062 0A23     		movs	r3, #10
 2093 0064 FB18     		adds	r3, r7, r3
 2094 0066 1A88     		ldrh	r2, [r3]
 2095 0068 0A23     		movs	r3, #10
 2096 006a FB18     		adds	r3, r7, r3
 2097 006c 0132     		adds	r2, r2, #1
 2098 006e 1A80     		strh	r2, [r3]
 2099              	.L131:
2257:..\..\..\..\..\..\Software\uC-CPU/cpu_core.c ****         CPU_IntDisMeasMaxCur_cnts = 0u;
 2100              		.loc 1 2257 0 is_stmt 0 discriminator 1
 2101 0070 0A23     		movs	r3, #10
 2102 0072 FB18     		adds	r3, r7, r3
 2103 0074 1B88     		ldrh	r3, [r3]
 2104 0076 002B     		cmp	r3, #0
 2105 0078 E7D0     		beq	.L132
2262:..\..\..\..\..\..\Software\uC-CPU/cpu_core.c ****     }
2263:..\..\..\..\..\..\Software\uC-CPU/cpu_core.c ****                                                                 /* ... to calc avg time meas ovrhd 
2264:..\..\..\..\..\..\Software\uC-CPU/cpu_core.c ****     CPU_IntDisMeasOvrhd_cnts  = (time_meas_tot_cnts + (CPU_CFG_INT_DIS_MEAS_OVRHD_NBR / 2u))
 2106              		.loc 1 2264 0 is_stmt 1
 2107 007a 0E4B     		ldr	r3, .L133+24
 2108 007c FA68     		ldr	r2, [r7, #12]
 2109 007e 1A60     		str	r2, [r3]
2265:..\..\..\..\..\..\Software\uC-CPU/cpu_core.c ****                                                     /  CPU_CFG_INT_DIS_MEAS_OVRHD_NBR;
2266:..\..\..\..\..\..\Software\uC-CPU/cpu_core.c ****     CPU_IntDisMeasMaxCur_cnts =  0u;                            /* Reset max ints dis'd times.     
 2110              		.loc 1 2266 0
ARM GAS  C:\Users\ADMINI~1\AppData\Local\Temp\ccaBZmtr.s 			page 78


 2111 0080 0A4B     		ldr	r3, .L133+16
 2112 0082 0022     		movs	r2, #0
 2113 0084 1A60     		str	r2, [r3]
2267:..\..\..\..\..\..\Software\uC-CPU/cpu_core.c ****     CPU_IntDisMeasMax_cnts    =  0u;
 2114              		.loc 1 2267 0
 2115 0086 0A4B     		ldr	r3, .L133+20
 2116 0088 0022     		movs	r2, #0
 2117 008a 1A60     		str	r2, [r3]
2268:..\..\..\..\..\..\Software\uC-CPU/cpu_core.c ****     CPU_INT_EN();
 2118              		.loc 1 2268 0
 2119 008c 7B68     		ldr	r3, [r7, #4]
 2120 008e 1800     		movs	r0, r3
 2121 0090 FFF7FEFF 		bl	CPU_SR_Restore
2269:..\..\..\..\..\..\Software\uC-CPU/cpu_core.c **** }
 2122              		.loc 1 2269 0
 2123 0094 C046     		nop
 2124 0096 BD46     		mov	sp, r7
 2125 0098 04B0     		add	sp, sp, #16
 2126              		@ sp needed
 2127 009a 80BD     		pop	{r7, pc}
 2128              	.L134:
 2129              		.align	2
 2130              	.L133:
 2131 009c 00000000 		.word	CPU_IntDisMeasCtr
 2132 00a0 00000000 		.word	CPU_IntDisNestCtr
 2133 00a4 00000000 		.word	CPU_IntDisMeasStart_cnts
 2134 00a8 00000000 		.word	CPU_IntDisMeasStop_cnts
 2135 00ac 00000000 		.word	CPU_IntDisMeasMaxCur_cnts
 2136 00b0 00000000 		.word	CPU_IntDisMeasMax_cnts
 2137 00b4 00000000 		.word	CPU_IntDisMeasOvrhd_cnts
 2138              		.cfi_endproc
 2139              	.LFE27:
 2140              		.size	CPU_IntDisMeasInit, .-CPU_IntDisMeasInit
 2141              		.section	.text.CPU_IntDisMeasMaxCalc,"ax",%progbits
 2142              		.align	2
 2143              		.code	16
 2144              		.thumb_func
 2145              		.type	CPU_IntDisMeasMaxCalc, %function
 2146              	CPU_IntDisMeasMaxCalc:
 2147              	.LFB28:
2270:..\..\..\..\..\..\Software\uC-CPU/cpu_core.c **** #endif
2271:..\..\..\..\..\..\Software\uC-CPU/cpu_core.c **** 
2272:..\..\..\..\..\..\Software\uC-CPU/cpu_core.c **** 
2273:..\..\..\..\..\..\Software\uC-CPU/cpu_core.c **** /*
2274:..\..\..\..\..\..\Software\uC-CPU/cpu_core.c **** ***************************************************************************************************
2275:..\..\..\..\..\..\Software\uC-CPU/cpu_core.c **** *                                       CPU_IntDisMeasMaxCalc()
2276:..\..\..\..\..\..\Software\uC-CPU/cpu_core.c **** *
2277:..\..\..\..\..\..\Software\uC-CPU/cpu_core.c **** * Description : Calculate maximum interrupts disabled time.
2278:..\..\..\..\..\..\Software\uC-CPU/cpu_core.c **** *
2279:..\..\..\..\..\..\Software\uC-CPU/cpu_core.c **** * Argument(s) : time_tot_cnts   Total interrupt disabled time, in timer counts.
2280:..\..\..\..\..\..\Software\uC-CPU/cpu_core.c **** *
2281:..\..\..\..\..\..\Software\uC-CPU/cpu_core.c **** * Return(s)   : Maximum interrupts disabled time (in CPU timestamp timer counts).
2282:..\..\..\..\..\..\Software\uC-CPU/cpu_core.c **** *
2283:..\..\..\..\..\..\Software\uC-CPU/cpu_core.c **** * Caller(s)   : CPU_IntDisMeasMaxCurGet(),
2284:..\..\..\..\..\..\Software\uC-CPU/cpu_core.c **** *               CPU_IntDisMeasMaxGet().
2285:..\..\..\..\..\..\Software\uC-CPU/cpu_core.c **** *
2286:..\..\..\..\..\..\Software\uC-CPU/cpu_core.c **** * Note(s)     : (1) (a) The total amount of time interrupts are disabled by system &/or application
ARM GAS  C:\Users\ADMINI~1\AppData\Local\Temp\ccaBZmtr.s 			page 79


2287:..\..\..\..\..\..\Software\uC-CPU/cpu_core.c **** *                       during critical sections is calculated by the following equations :
2288:..\..\..\..\..\..\Software\uC-CPU/cpu_core.c **** *
2289:..\..\..\..\..\..\Software\uC-CPU/cpu_core.c **** *                       (1) time            =   [ time      -  time      ]  -  time
2290:..\..\..\..\..\..\Software\uC-CPU/cpu_core.c **** *                               interrupts      [     stop         start ]         total meas
2291:..\..\..\..\..\..\Software\uC-CPU/cpu_core.c **** *                                disabled       [     meas         meas  ]           ovrhd
2292:..\..\..\..\..\..\Software\uC-CPU/cpu_core.c **** *                           (via application)
2293:..\..\..\..\..\..\Software\uC-CPU/cpu_core.c **** *
2294:..\..\..\..\..\..\Software\uC-CPU/cpu_core.c **** *
2295:..\..\..\..\..\..\Software\uC-CPU/cpu_core.c **** *                       (2) time            =  time            +  time
2296:..\..\..\..\..\..\Software\uC-CPU/cpu_core.c **** *                               total meas         start meas         stop meas
2297:..\..\..\..\..\..\Software\uC-CPU/cpu_core.c **** *                                 ovrhd              ovrhd              ovrhd
2298:..\..\..\..\..\..\Software\uC-CPU/cpu_core.c **** *
2299:..\..\..\..\..\..\Software\uC-CPU/cpu_core.c **** *
2300:..\..\..\..\..\..\Software\uC-CPU/cpu_core.c **** *                               where
2301:..\..\..\..\..\..\Software\uC-CPU/cpu_core.c **** *
2302:..\..\..\..\..\..\Software\uC-CPU/cpu_core.c **** *                                       time                    time interrupts are disabled betwee
2303:..\..\..\..\..\..\Software\uC-CPU/cpu_core.c **** *                                           interrupts              first critical section enter &
2304:..\..\..\..\..\..\Software\uC-CPU/cpu_core.c **** *                                            disabled               last  critical section exit min
2305:..\..\..\..\..\..\Software\uC-CPU/cpu_core.c **** *                                       (via application)           time measurement overhead
2306:..\..\..\..\..\..\Software\uC-CPU/cpu_core.c **** *
2307:..\..\..\..\..\..\Software\uC-CPU/cpu_core.c **** *                                       time                    time of disable interrupts start ti
2308:..\..\..\..\..\..\Software\uC-CPU/cpu_core.c **** *                                           start                   measurement (in timer counts)
2309:..\..\..\..\..\..\Software\uC-CPU/cpu_core.c **** *                                           meas
2310:..\..\..\..\..\..\Software\uC-CPU/cpu_core.c **** *
2311:..\..\..\..\..\..\Software\uC-CPU/cpu_core.c **** *                                       time                    time of disable interrupts stop  ti
2312:..\..\..\..\..\..\Software\uC-CPU/cpu_core.c **** *                                           stop                    measurement (in timer counts)
2313:..\..\..\..\..\..\Software\uC-CPU/cpu_core.c **** *                                           meas
2314:..\..\..\..\..\..\Software\uC-CPU/cpu_core.c **** *
2315:..\..\..\..\..\..\Software\uC-CPU/cpu_core.c **** *                                       time                    total overhead time to start/stop d
2316:..\..\..\..\..\..\Software\uC-CPU/cpu_core.c **** *                                           total meas              interrupts time measurements (i
2317:..\..\..\..\..\..\Software\uC-CPU/cpu_core.c **** *                                             ovrhd                 counts)
2318:..\..\..\..\..\..\Software\uC-CPU/cpu_core.c **** *
2319:..\..\..\..\..\..\Software\uC-CPU/cpu_core.c **** *                                       time                    total overhead time after getting s
2320:..\..\..\..\..\..\Software\uC-CPU/cpu_core.c **** *                                           start meas              time until end of start measure
2321:..\..\..\..\..\..\Software\uC-CPU/cpu_core.c **** *                                             ovrhd                 function  (in timer counts)
2322:..\..\..\..\..\..\Software\uC-CPU/cpu_core.c **** *
2323:..\..\..\..\..\..\Software\uC-CPU/cpu_core.c **** *                                       time                    total overhead time from beginning 
2324:..\..\..\..\..\..\Software\uC-CPU/cpu_core.c **** *                                           stop meas               measurement function until afte
2325:..\..\..\..\..\..\Software\uC-CPU/cpu_core.c **** *                                             ovrhd                 stop time (in timer counts)
2326:..\..\..\..\..\..\Software\uC-CPU/cpu_core.c **** *
2327:..\..\..\..\..\..\Software\uC-CPU/cpu_core.c **** *
2328:..\..\..\..\..\..\Software\uC-CPU/cpu_core.c **** *                   (b) To expedite & reduce interrupts disabled time measurement overhead, the fin
2329:..\..\..\..\..\..\Software\uC-CPU/cpu_core.c **** *                       calculations to subtract the interrupts disabled time measurement overhead 
2330:..\..\..\..\..\..\Software\uC-CPU/cpu_core.c **** *                       performed asynchronously in API functions.
2331:..\..\..\..\..\..\Software\uC-CPU/cpu_core.c **** *
2332:..\..\..\..\..\..\Software\uC-CPU/cpu_core.c **** *                       See also 'CPU_IntDisMeasStop()  Note #1b2'.
2333:..\..\..\..\..\..\Software\uC-CPU/cpu_core.c **** *
2334:..\..\..\..\..\..\Software\uC-CPU/cpu_core.c **** *                   (c) The amount of time interrupts are disabled is calculated by either of the
2335:..\..\..\..\..\..\Software\uC-CPU/cpu_core.c **** *                       following equations :
2336:..\..\..\..\..\..\Software\uC-CPU/cpu_core.c **** *
2337:..\..\..\..\..\..\Software\uC-CPU/cpu_core.c **** *                       (1) Interrupts disabled time  =  Number timer counts  *  Timer period
2338:..\..\..\..\..\..\Software\uC-CPU/cpu_core.c **** *
2339:..\..\..\..\..\..\Software\uC-CPU/cpu_core.c **** *                               where
2340:..\..\..\..\..\..\Software\uC-CPU/cpu_core.c **** *
2341:..\..\..\..\..\..\Software\uC-CPU/cpu_core.c **** *                                   Number timer counts             Number of timer counts measured
2342:..\..\..\..\..\..\Software\uC-CPU/cpu_core.c **** *                                   Timer period                    Timer's period in some units of
2343:..\..\..\..\..\..\Software\uC-CPU/cpu_core.c **** *                                                                       (fractional) seconds
ARM GAS  C:\Users\ADMINI~1\AppData\Local\Temp\ccaBZmtr.s 			page 80


2344:..\..\..\..\..\..\Software\uC-CPU/cpu_core.c **** *                                   Interrupts disabled time        Amount of time interrupts are
2345:..\..\..\..\..\..\Software\uC-CPU/cpu_core.c **** *                                                                       disabled, in same units of
2346:..\..\..\..\..\..\Software\uC-CPU/cpu_core.c **** *                                                                       (fractional) seconds as the
2347:..\..\..\..\..\..\Software\uC-CPU/cpu_core.c **** *                                                                       Timer period
2348:..\..\..\..\..\..\Software\uC-CPU/cpu_core.c **** *
2349:..\..\..\..\..\..\Software\uC-CPU/cpu_core.c **** *                                                         Number timer counts
2350:..\..\..\..\..\..\Software\uC-CPU/cpu_core.c **** *                       (2) Interrupts disabled time  =  ---------------------
2351:..\..\..\..\..\..\Software\uC-CPU/cpu_core.c **** *                                                           Timer frequency
2352:..\..\..\..\..\..\Software\uC-CPU/cpu_core.c **** *
2353:..\..\..\..\..\..\Software\uC-CPU/cpu_core.c **** *                               where
2354:..\..\..\..\..\..\Software\uC-CPU/cpu_core.c **** *
2355:..\..\..\..\..\..\Software\uC-CPU/cpu_core.c **** *                                   Number timer counts             Number of timer counts measured
2356:..\..\..\..\..\..\Software\uC-CPU/cpu_core.c **** *                                   Timer frequency                 Timer's frequency in some units
2357:..\..\..\..\..\..\Software\uC-CPU/cpu_core.c **** *                                                                       of counts per second
2358:..\..\..\..\..\..\Software\uC-CPU/cpu_core.c **** *                                   Interrupts disabled time        Amount of time interrupts are
2359:..\..\..\..\..\..\Software\uC-CPU/cpu_core.c **** *                                                                       disabled, in seconds
2360:..\..\..\..\..\..\Software\uC-CPU/cpu_core.c **** *
2361:..\..\..\..\..\..\Software\uC-CPU/cpu_core.c **** *                       See also 'cpu_core.h  FUNCTION PROTOTYPES  CPU_TS_TmrRd()      Note #2c'
2362:..\..\..\..\..\..\Software\uC-CPU/cpu_core.c **** *                              & 'cpu_core.h  FUNCTION PROTOTYPES  CPU_TSxx_to_uSec()  Note #2'.
2363:..\..\..\..\..\..\Software\uC-CPU/cpu_core.c **** *
2364:..\..\..\..\..\..\Software\uC-CPU/cpu_core.c **** *               (2) Although it is not typical, it is possible for an interrupts disabled time
2365:..\..\..\..\..\..\Software\uC-CPU/cpu_core.c **** *                   measurement to be less than the interrupts disabled time measurement overhead;
2366:..\..\..\..\..\..\Software\uC-CPU/cpu_core.c **** *                   especially if the overhead was calculated with a single, non-cached measurement
2367:..\..\..\..\..\..\Software\uC-CPU/cpu_core.c **** *                   & critical sections are called within instruction-cached loops.
2368:..\..\..\..\..\..\Software\uC-CPU/cpu_core.c **** ***************************************************************************************************
2369:..\..\..\..\..\..\Software\uC-CPU/cpu_core.c **** */
2370:..\..\..\..\..\..\Software\uC-CPU/cpu_core.c **** 
2371:..\..\..\..\..\..\Software\uC-CPU/cpu_core.c **** #ifdef  CPU_CFG_INT_DIS_MEAS_EN
2372:..\..\..\..\..\..\Software\uC-CPU/cpu_core.c **** static  CPU_TS_TMR  CPU_IntDisMeasMaxCalc (CPU_TS_TMR  time_tot_cnts)
2373:..\..\..\..\..\..\Software\uC-CPU/cpu_core.c **** {
 2148              		.loc 1 2373 0
 2149              		.cfi_startproc
 2150              		@ args = 0, pretend = 0, frame = 16
 2151              		@ frame_needed = 1, uses_anonymous_args = 0
 2152 0000 80B5     		push	{r7, lr}
 2153              		.cfi_def_cfa_offset 8
 2154              		.cfi_offset 7, -8
 2155              		.cfi_offset 14, -4
 2156 0002 84B0     		sub	sp, sp, #16
 2157              		.cfi_def_cfa_offset 24
 2158 0004 00AF     		add	r7, sp, #0
 2159              		.cfi_def_cfa_register 7
 2160 0006 7860     		str	r0, [r7, #4]
2374:..\..\..\..\..\..\Software\uC-CPU/cpu_core.c ****     CPU_TS_TMR  time_max_cnts;
2375:..\..\..\..\..\..\Software\uC-CPU/cpu_core.c **** 
2376:..\..\..\..\..\..\Software\uC-CPU/cpu_core.c **** 
2377:..\..\..\..\..\..\Software\uC-CPU/cpu_core.c ****     time_max_cnts = time_tot_cnts;
 2161              		.loc 1 2377 0
 2162 0008 7B68     		ldr	r3, [r7, #4]
 2163 000a FB60     		str	r3, [r7, #12]
2378:..\..\..\..\..\..\Software\uC-CPU/cpu_core.c ****     if (time_max_cnts >  CPU_IntDisMeasOvrhd_cnts) {            /* If       max ints dis'd time >  
 2164              		.loc 1 2378 0
 2165 000c 084B     		ldr	r3, .L139
 2166 000e 1B68     		ldr	r3, [r3]
 2167 0010 FA68     		ldr	r2, [r7, #12]
 2168 0012 9A42     		cmp	r2, r3
 2169 0014 05D9     		bls	.L136
ARM GAS  C:\Users\ADMINI~1\AppData\Local\Temp\ccaBZmtr.s 			page 81


2379:..\..\..\..\..\..\Software\uC-CPU/cpu_core.c ****         time_max_cnts -= CPU_IntDisMeasOvrhd_cnts;              /* ... adj  max ints dis'd time by 
 2170              		.loc 1 2379 0
 2171 0016 064B     		ldr	r3, .L139
 2172 0018 1B68     		ldr	r3, [r3]
 2173 001a FA68     		ldr	r2, [r7, #12]
 2174 001c D31A     		subs	r3, r2, r3
 2175 001e FB60     		str	r3, [r7, #12]
 2176 0020 01E0     		b	.L137
 2177              	.L136:
2380:..\..\..\..\..\..\Software\uC-CPU/cpu_core.c ****     } else {                                                    /* ... else max ints dis'd time <  
2381:..\..\..\..\..\..\Software\uC-CPU/cpu_core.c ****         time_max_cnts  = 0u;                                    /* ... clr  max ints dis'd time (se
 2178              		.loc 1 2381 0
 2179 0022 0023     		movs	r3, #0
 2180 0024 FB60     		str	r3, [r7, #12]
 2181              	.L137:
2382:..\..\..\..\..\..\Software\uC-CPU/cpu_core.c ****     }
2383:..\..\..\..\..\..\Software\uC-CPU/cpu_core.c **** 
2384:..\..\..\..\..\..\Software\uC-CPU/cpu_core.c ****     return (time_max_cnts);
 2182              		.loc 1 2384 0
 2183 0026 FB68     		ldr	r3, [r7, #12]
2385:..\..\..\..\..\..\Software\uC-CPU/cpu_core.c **** }
 2184              		.loc 1 2385 0
 2185 0028 1800     		movs	r0, r3
 2186 002a BD46     		mov	sp, r7
 2187 002c 04B0     		add	sp, sp, #16
 2188              		@ sp needed
 2189 002e 80BD     		pop	{r7, pc}
 2190              	.L140:
 2191              		.align	2
 2192              	.L139:
 2193 0030 00000000 		.word	CPU_IntDisMeasOvrhd_cnts
 2194              		.cfi_endproc
 2195              	.LFE28:
 2196              		.size	CPU_IntDisMeasMaxCalc, .-CPU_IntDisMeasMaxCalc
 2197              		.text
 2198              	.Letext0:
 2199              		.file 2 "..\\..\\..\\..\\..\\..\\Software\\uC-CPU\\ARM-Cortex-M0\\GNU/cpu.h"
 2200              		.file 3 "..\\..\\..\\..\\..\\..\\Software\\uC-CPU\\cpu_core.h"
 2201              		.section	.debug_info,"",%progbits
 2202              	.Ldebug_info0:
 2203 0000 AE080000 		.4byte	0x8ae
 2204 0004 0400     		.2byte	0x4
 2205 0006 00000000 		.4byte	.Ldebug_abbrev0
 2206 000a 04       		.byte	0x4
 2207 000b 01       		.uleb128 0x1
 2208 000c 29020000 		.4byte	.LASF81
 2209 0010 0C       		.byte	0xc
 2210 0011 06040000 		.4byte	.LASF82
 2211 0015 D4000000 		.4byte	.LASF83
 2212 0019 00000000 		.4byte	.Ldebug_ranges0+0
 2213 001d 00000000 		.4byte	0
 2214 0021 00000000 		.4byte	.Ldebug_line0
 2215 0025 02       		.uleb128 0x2
 2216 0026 27030000 		.4byte	.LASF2
 2217 002a 02       		.byte	0x2
 2218 002b 7C       		.byte	0x7c
 2219 002c 30000000 		.4byte	0x30
ARM GAS  C:\Users\ADMINI~1\AppData\Local\Temp\ccaBZmtr.s 			page 82


 2220 0030 03       		.uleb128 0x3
 2221 0031 01       		.byte	0x1
 2222 0032 08       		.byte	0x8
 2223 0033 01040000 		.4byte	.LASF0
 2224 0037 03       		.uleb128 0x3
 2225 0038 01       		.byte	0x1
 2226 0039 08       		.byte	0x8
 2227 003a C8020000 		.4byte	.LASF1
 2228 003e 02       		.uleb128 0x2
 2229 003f E9030000 		.4byte	.LASF3
 2230 0043 02       		.byte	0x2
 2231 0044 7E       		.byte	0x7e
 2232 0045 37000000 		.4byte	0x37
 2233 0049 03       		.uleb128 0x3
 2234 004a 01       		.byte	0x1
 2235 004b 06       		.byte	0x6
 2236 004c EF020000 		.4byte	.LASF4
 2237 0050 02       		.uleb128 0x2
 2238 0051 CC050000 		.4byte	.LASF5
 2239 0055 02       		.byte	0x2
 2240 0056 80       		.byte	0x80
 2241 0057 5B000000 		.4byte	0x5b
 2242 005b 03       		.uleb128 0x3
 2243 005c 02       		.byte	0x2
 2244 005d 07       		.byte	0x7
 2245 005e B9030000 		.4byte	.LASF6
 2246 0062 03       		.uleb128 0x3
 2247 0063 02       		.byte	0x2
 2248 0064 05       		.byte	0x5
 2249 0065 7D000000 		.4byte	.LASF7
 2250 0069 02       		.uleb128 0x2
 2251 006a 4D040000 		.4byte	.LASF8
 2252 006e 02       		.byte	0x2
 2253 006f 82       		.byte	0x82
 2254 0070 74000000 		.4byte	0x74
 2255 0074 03       		.uleb128 0x3
 2256 0075 04       		.byte	0x4
 2257 0076 07       		.byte	0x7
 2258 0077 30030000 		.4byte	.LASF9
 2259 007b 04       		.uleb128 0x4
 2260 007c 04       		.byte	0x4
 2261 007d 05       		.byte	0x5
 2262 007e 696E7400 		.ascii	"int\000"
 2263 0082 02       		.uleb128 0x2
 2264 0083 43050000 		.4byte	.LASF10
 2265 0087 02       		.byte	0x2
 2266 0088 84       		.byte	0x84
 2267 0089 8D000000 		.4byte	0x8d
 2268 008d 03       		.uleb128 0x3
 2269 008e 08       		.byte	0x8
 2270 008f 07       		.byte	0x7
 2271 0090 03030000 		.4byte	.LASF11
 2272 0094 03       		.uleb128 0x3
 2273 0095 08       		.byte	0x8
 2274 0096 05       		.byte	0x5
 2275 0097 C9010000 		.4byte	.LASF12
 2276 009b 03       		.uleb128 0x3
ARM GAS  C:\Users\ADMINI~1\AppData\Local\Temp\ccaBZmtr.s 			page 83


 2277 009c 04       		.byte	0x4
 2278 009d 04       		.byte	0x4
 2279 009e BA010000 		.4byte	.LASF13
 2280 00a2 03       		.uleb128 0x3
 2281 00a3 08       		.byte	0x8
 2282 00a4 04       		.byte	0x4
 2283 00a5 97040000 		.4byte	.LASF14
 2284 00a9 02       		.uleb128 0x2
 2285 00aa A9010000 		.4byte	.LASF15
 2286 00ae 02       		.byte	0x2
 2287 00af BA       		.byte	0xba
 2288 00b0 69000000 		.4byte	0x69
 2289 00b4 02       		.uleb128 0x2
 2290 00b5 E0030000 		.4byte	.LASF16
 2291 00b9 02       		.byte	0x2
 2292 00ba C3       		.byte	0xc3
 2293 00bb 69000000 		.4byte	0x69
 2294 00bf 02       		.uleb128 0x2
 2295 00c0 DF040000 		.4byte	.LASF17
 2296 00c4 02       		.byte	0x2
 2297 00c5 CC       		.byte	0xcc
 2298 00c6 A9000000 		.4byte	0xa9
 2299 00ca 05       		.uleb128 0x5
 2300 00cb 83050000 		.4byte	.LASF18
 2301 00cf 02       		.byte	0x2
 2302 00d0 3301     		.2byte	0x133
 2303 00d2 69000000 		.4byte	0x69
 2304 00d6 06       		.uleb128 0x6
 2305 00d7 B2010000 		.4byte	.LASF84
 2306 00db 02       		.byte	0x2
 2307 00dc 5B000000 		.4byte	0x5b
 2308 00e0 03       		.byte	0x3
 2309 00e1 AE       		.byte	0xae
 2310 00e2 01010000 		.4byte	0x101
 2311 00e6 07       		.uleb128 0x7
 2312 00e7 1A030000 		.4byte	.LASF19
 2313 00eb 00       		.byte	0
 2314 00ec 07       		.uleb128 0x7
 2315 00ed B7020000 		.4byte	.LASF20
 2316 00f1 0A       		.byte	0xa
 2317 00f2 08       		.uleb128 0x8
 2318 00f3 58040000 		.4byte	.LASF21
 2319 00f7 E803     		.2byte	0x3e8
 2320 00f9 08       		.uleb128 0x8
 2321 00fa 54000000 		.4byte	.LASF22
 2322 00fe D007     		.2byte	0x7d0
 2323 0100 00       		.byte	0
 2324 0101 02       		.uleb128 0x2
 2325 0102 A4000000 		.4byte	.LASF23
 2326 0106 03       		.byte	0x3
 2327 0107 B7       		.byte	0xb7
 2328 0108 D6000000 		.4byte	0xd6
 2329 010c 02       		.uleb128 0x2
 2330 010d D6040000 		.4byte	.LASF24
 2331 0111 03       		.byte	0x3
 2332 0112 C3       		.byte	0xc3
 2333 0113 69000000 		.4byte	0x69
ARM GAS  C:\Users\ADMINI~1\AppData\Local\Temp\ccaBZmtr.s 			page 84


 2334 0117 02       		.uleb128 0x2
 2335 0118 26010000 		.4byte	.LASF25
 2336 011c 03       		.byte	0x3
 2337 011d D1       		.byte	0xd1
 2338 011e 69000000 		.4byte	0x69
 2339 0122 02       		.uleb128 0x2
 2340 0123 1F000000 		.4byte	.LASF26
 2341 0127 03       		.byte	0x3
 2342 0128 DC       		.byte	0xdc
 2343 0129 69000000 		.4byte	0x69
 2344 012d 09       		.uleb128 0x9
 2345 012e 27050000 		.4byte	.LASF27
 2346 0132 01       		.byte	0x1
 2347 0133 CE       		.byte	0xce
 2348 0134 00000000 		.4byte	.LFB0
 2349 0138 16000000 		.4byte	.LFE0-.LFB0
 2350 013c 01       		.uleb128 0x1
 2351 013d 9C       		.byte	0x9c
 2352 013e 0A       		.uleb128 0xa
 2353 013f 6C000000 		.4byte	.LASF28
 2354 0143 01       		.byte	0x1
 2355 0144 F9       		.byte	0xf9
 2356 0145 00000000 		.4byte	.LFB1
 2357 0149 06000000 		.4byte	.LFE1-.LFB1
 2358 014d 01       		.uleb128 0x1
 2359 014e 9C       		.byte	0x9c
 2360 014f 0B       		.uleb128 0xb
 2361 0150 7E040000 		.4byte	.LASF29
 2362 0154 01       		.byte	0x1
 2363 0155 1601     		.2byte	0x116
 2364 0157 00000000 		.4byte	.LFB2
 2365 015b 38000000 		.4byte	.LFE2-.LFB2
 2366 015f 01       		.uleb128 0x1
 2367 0160 9C       		.byte	0x9c
 2368 0161 75010000 		.4byte	0x175
 2369 0165 0C       		.uleb128 0xc
 2370 0166 4E050000 		.4byte	.LASF33
 2371 016a 01       		.byte	0x1
 2372 016b 1801     		.2byte	0x118
 2373 016d CA000000 		.4byte	0xca
 2374 0171 02       		.uleb128 0x2
 2375 0172 91       		.byte	0x91
 2376 0173 74       		.sleb128 -12
 2377 0174 00       		.byte	0
 2378 0175 0B       		.uleb128 0xb
 2379 0176 9E040000 		.4byte	.LASF30
 2380 017a 01       		.byte	0x1
 2381 017b 4201     		.2byte	0x142
 2382 017d 00000000 		.4byte	.LFB3
 2383 0181 5C000000 		.4byte	.LFE3-.LFB3
 2384 0185 01       		.uleb128 0x1
 2385 0186 9C       		.byte	0x9c
 2386 0187 B9010000 		.4byte	0x1b9
 2387 018b 0D       		.uleb128 0xd
 2388 018c 33040000 		.4byte	.LASF31
 2389 0190 01       		.byte	0x1
 2390 0191 4201     		.2byte	0x142
ARM GAS  C:\Users\ADMINI~1\AppData\Local\Temp\ccaBZmtr.s 			page 85


 2391 0193 B9010000 		.4byte	0x1b9
 2392 0197 02       		.uleb128 0x2
 2393 0198 91       		.byte	0x91
 2394 0199 6C       		.sleb128 -20
 2395 019a 0D       		.uleb128 0xd
 2396 019b AC000000 		.4byte	.LASF32
 2397 019f 01       		.byte	0x1
 2398 01a0 4301     		.2byte	0x143
 2399 01a2 BF010000 		.4byte	0x1bf
 2400 01a6 02       		.uleb128 0x2
 2401 01a7 91       		.byte	0x91
 2402 01a8 68       		.sleb128 -24
 2403 01a9 0C       		.uleb128 0xc
 2404 01aa 4E050000 		.4byte	.LASF33
 2405 01ae 01       		.byte	0x1
 2406 01af 4501     		.2byte	0x145
 2407 01b1 CA000000 		.4byte	0xca
 2408 01b5 02       		.uleb128 0x2
 2409 01b6 91       		.byte	0x91
 2410 01b7 74       		.sleb128 -12
 2411 01b8 00       		.byte	0
 2412 01b9 0E       		.uleb128 0xe
 2413 01ba 04       		.byte	0x4
 2414 01bb 25000000 		.4byte	0x25
 2415 01bf 0E       		.uleb128 0xe
 2416 01c0 04       		.byte	0x4
 2417 01c1 01010000 		.4byte	0x101
 2418 01c5 0B       		.uleb128 0xb
 2419 01c6 09020000 		.4byte	.LASF34
 2420 01ca 01       		.byte	0x1
 2421 01cb 7701     		.2byte	0x177
 2422 01cd 00000000 		.4byte	.LFB4
 2423 01d1 78000000 		.4byte	.LFE4-.LFB4
 2424 01d5 01       		.uleb128 0x1
 2425 01d6 9C       		.byte	0x9c
 2426 01d7 18020000 		.4byte	0x218
 2427 01db 0D       		.uleb128 0xd
 2428 01dc 33040000 		.4byte	.LASF31
 2429 01e0 01       		.byte	0x1
 2430 01e1 7701     		.2byte	0x177
 2431 01e3 18020000 		.4byte	0x218
 2432 01e7 02       		.uleb128 0x2
 2433 01e8 91       		.byte	0x91
 2434 01e9 6C       		.sleb128 -20
 2435 01ea 0D       		.uleb128 0xd
 2436 01eb AC000000 		.4byte	.LASF32
 2437 01ef 01       		.byte	0x1
 2438 01f0 7801     		.2byte	0x178
 2439 01f2 BF010000 		.4byte	0x1bf
 2440 01f6 02       		.uleb128 0x2
 2441 01f7 91       		.byte	0x91
 2442 01f8 68       		.sleb128 -24
 2443 01f9 0F       		.uleb128 0xf
 2444 01fa 6C656E00 		.ascii	"len\000"
 2445 01fe 01       		.byte	0x1
 2446 01ff 7A01     		.2byte	0x17a
 2447 0201 BF000000 		.4byte	0xbf
ARM GAS  C:\Users\ADMINI~1\AppData\Local\Temp\ccaBZmtr.s 			page 86


 2448 0205 02       		.uleb128 0x2
 2449 0206 91       		.byte	0x91
 2450 0207 70       		.sleb128 -16
 2451 0208 0C       		.uleb128 0xc
 2452 0209 4E050000 		.4byte	.LASF33
 2453 020d 01       		.byte	0x1
 2454 020e 7B01     		.2byte	0x17b
 2455 0210 CA000000 		.4byte	0xca
 2456 0214 02       		.uleb128 0x2
 2457 0215 91       		.byte	0x91
 2458 0216 74       		.sleb128 -12
 2459 0217 00       		.byte	0
 2460 0218 0E       		.uleb128 0xe
 2461 0219 04       		.byte	0x4
 2462 021a 1E020000 		.4byte	0x21e
 2463 021e 10       		.uleb128 0x10
 2464 021f 25000000 		.4byte	0x25
 2465 0223 11       		.uleb128 0x11
 2466 0224 F4030000 		.4byte	.LASF36
 2467 0228 01       		.byte	0x1
 2468 0229 CD01     		.2byte	0x1cd
 2469 022b 0C010000 		.4byte	0x10c
 2470 022f 00000000 		.4byte	.LFB5
 2471 0233 18000000 		.4byte	.LFE5-.LFB5
 2472 0237 01       		.uleb128 0x1
 2473 0238 9C       		.byte	0x9c
 2474 0239 4C020000 		.4byte	0x24c
 2475 023d 0F       		.uleb128 0xf
 2476 023e 747300   		.ascii	"ts\000"
 2477 0241 01       		.byte	0x1
 2478 0242 CF01     		.2byte	0x1cf
 2479 0244 0C010000 		.4byte	0x10c
 2480 0248 02       		.uleb128 0x2
 2481 0249 91       		.byte	0x91
 2482 024a 74       		.sleb128 -12
 2483 024b 00       		.byte	0
 2484 024c 12       		.uleb128 0x12
 2485 024d A3030000 		.4byte	.LASF35
 2486 0251 01       		.byte	0x1
 2487 0252 5402     		.2byte	0x254
 2488 0254 00000000 		.4byte	.LFB6
 2489 0258 0A000000 		.4byte	.LFE6-.LFB6
 2490 025c 01       		.uleb128 0x1
 2491 025d 9C       		.byte	0x9c
 2492 025e 11       		.uleb128 0x11
 2493 025f D7050000 		.4byte	.LASF37
 2494 0263 01       		.byte	0x1
 2495 0264 7E02     		.2byte	0x27e
 2496 0266 22010000 		.4byte	0x122
 2497 026a 00000000 		.4byte	.LFB7
 2498 026e 38000000 		.4byte	.LFE7-.LFB7
 2499 0272 01       		.uleb128 0x1
 2500 0273 9C       		.byte	0x9c
 2501 0274 97020000 		.4byte	0x297
 2502 0278 0D       		.uleb128 0xd
 2503 0279 AC000000 		.4byte	.LASF32
 2504 027d 01       		.byte	0x1
ARM GAS  C:\Users\ADMINI~1\AppData\Local\Temp\ccaBZmtr.s 			page 87


 2505 027e 7E02     		.2byte	0x27e
 2506 0280 BF010000 		.4byte	0x1bf
 2507 0284 02       		.uleb128 0x2
 2508 0285 91       		.byte	0x91
 2509 0286 6C       		.sleb128 -20
 2510 0287 0C       		.uleb128 0xc
 2511 0288 FB020000 		.4byte	.LASF38
 2512 028c 01       		.byte	0x1
 2513 028d 8002     		.2byte	0x280
 2514 028f 22010000 		.4byte	0x122
 2515 0293 02       		.uleb128 0x2
 2516 0294 91       		.byte	0x91
 2517 0295 74       		.sleb128 -12
 2518 0296 00       		.byte	0
 2519 0297 13       		.uleb128 0x13
 2520 0298 7D010000 		.4byte	.LASF39
 2521 029c 01       		.byte	0x1
 2522 029d B102     		.2byte	0x2b1
 2523 029f 00000000 		.4byte	.LFB8
 2524 02a3 1C000000 		.4byte	.LFE8-.LFB8
 2525 02a7 01       		.uleb128 0x1
 2526 02a8 9C       		.byte	0x9c
 2527 02a9 BD020000 		.4byte	0x2bd
 2528 02ad 0D       		.uleb128 0xd
 2529 02ae FB020000 		.4byte	.LASF38
 2530 02b2 01       		.byte	0x1
 2531 02b3 B102     		.2byte	0x2b1
 2532 02b5 22010000 		.4byte	0x122
 2533 02b9 02       		.uleb128 0x2
 2534 02ba 91       		.byte	0x91
 2535 02bb 74       		.sleb128 -12
 2536 02bc 00       		.byte	0
 2537 02bd 11       		.uleb128 0x11
 2538 02be BC040000 		.4byte	.LASF40
 2539 02c2 01       		.byte	0x1
 2540 02c3 D002     		.2byte	0x2d0
 2541 02c5 17010000 		.4byte	0x117
 2542 02c9 00000000 		.4byte	.LFB9
 2543 02cd 38000000 		.4byte	.LFE9-.LFB9
 2544 02d1 01       		.uleb128 0x1
 2545 02d2 9C       		.byte	0x9c
 2546 02d3 F6020000 		.4byte	0x2f6
 2547 02d7 0C       		.uleb128 0xc
 2548 02d8 5D030000 		.4byte	.LASF41
 2549 02dc 01       		.byte	0x1
 2550 02dd D202     		.2byte	0x2d2
 2551 02df 17010000 		.4byte	0x117
 2552 02e3 02       		.uleb128 0x2
 2553 02e4 91       		.byte	0x91
 2554 02e5 70       		.sleb128 -16
 2555 02e6 0C       		.uleb128 0xc
 2556 02e7 4E050000 		.4byte	.LASF33
 2557 02eb 01       		.byte	0x1
 2558 02ec D302     		.2byte	0x2d3
 2559 02ee CA000000 		.4byte	0xca
 2560 02f2 02       		.uleb128 0x2
 2561 02f3 91       		.byte	0x91
ARM GAS  C:\Users\ADMINI~1\AppData\Local\Temp\ccaBZmtr.s 			page 88


 2562 02f4 74       		.sleb128 -12
 2563 02f5 00       		.byte	0
 2564 02f6 11       		.uleb128 0x11
 2565 02f7 6B030000 		.4byte	.LASF42
 2566 02fb 01       		.byte	0x1
 2567 02fc F902     		.2byte	0x2f9
 2568 02fe 17010000 		.4byte	0x117
 2569 0302 00000000 		.4byte	.LFB10
 2570 0306 3C000000 		.4byte	.LFE10-.LFB10
 2571 030a 01       		.uleb128 0x1
 2572 030b 9C       		.byte	0x9c
 2573 030c 3E030000 		.4byte	0x33e
 2574 0310 0C       		.uleb128 0xc
 2575 0311 83030000 		.4byte	.LASF43
 2576 0315 01       		.byte	0x1
 2577 0316 FB02     		.2byte	0x2fb
 2578 0318 17010000 		.4byte	0x117
 2579 031c 02       		.uleb128 0x2
 2580 031d 91       		.byte	0x91
 2581 031e 70       		.sleb128 -16
 2582 031f 0C       		.uleb128 0xc
 2583 0320 5D030000 		.4byte	.LASF41
 2584 0324 01       		.byte	0x1
 2585 0325 FC02     		.2byte	0x2fc
 2586 0327 17010000 		.4byte	0x117
 2587 032b 02       		.uleb128 0x2
 2588 032c 91       		.byte	0x91
 2589 032d 6C       		.sleb128 -20
 2590 032e 0C       		.uleb128 0xc
 2591 032f 4E050000 		.4byte	.LASF33
 2592 0333 01       		.byte	0x1
 2593 0334 FD02     		.2byte	0x2fd
 2594 0336 CA000000 		.4byte	0xca
 2595 033a 02       		.uleb128 0x2
 2596 033b 91       		.byte	0x91
 2597 033c 74       		.sleb128 -12
 2598 033d 00       		.byte	0
 2599 033e 11       		.uleb128 0x11
 2600 033f B7050000 		.4byte	.LASF44
 2601 0343 01       		.byte	0x1
 2602 0344 2303     		.2byte	0x323
 2603 0346 17010000 		.4byte	0x117
 2604 034a 00000000 		.4byte	.LFB11
 2605 034e 3C000000 		.4byte	.LFE11-.LFB11
 2606 0352 01       		.uleb128 0x1
 2607 0353 9C       		.byte	0x9c
 2608 0354 86030000 		.4byte	0x386
 2609 0358 0C       		.uleb128 0xc
 2610 0359 83030000 		.4byte	.LASF43
 2611 035d 01       		.byte	0x1
 2612 035e 2503     		.2byte	0x325
 2613 0360 17010000 		.4byte	0x117
 2614 0364 02       		.uleb128 0x2
 2615 0365 91       		.byte	0x91
 2616 0366 70       		.sleb128 -16
 2617 0367 0C       		.uleb128 0xc
 2618 0368 5D030000 		.4byte	.LASF41
ARM GAS  C:\Users\ADMINI~1\AppData\Local\Temp\ccaBZmtr.s 			page 89


 2619 036c 01       		.byte	0x1
 2620 036d 2603     		.2byte	0x326
 2621 036f 17010000 		.4byte	0x117
 2622 0373 02       		.uleb128 0x2
 2623 0374 91       		.byte	0x91
 2624 0375 6C       		.sleb128 -20
 2625 0376 0C       		.uleb128 0xc
 2626 0377 4E050000 		.4byte	.LASF33
 2627 037b 01       		.byte	0x1
 2628 037c 2703     		.2byte	0x327
 2629 037e CA000000 		.4byte	0xca
 2630 0382 02       		.uleb128 0x2
 2631 0383 91       		.byte	0x91
 2632 0384 74       		.sleb128 -12
 2633 0385 00       		.byte	0
 2634 0386 14       		.uleb128 0x14
 2635 0387 55050000 		.4byte	.LASF45
 2636 038b 01       		.byte	0x1
 2637 038c 4803     		.2byte	0x348
 2638 038e 00000000 		.4byte	.LFB12
 2639 0392 40000000 		.4byte	.LFE12-.LFB12
 2640 0396 01       		.uleb128 0x1
 2641 0397 9C       		.byte	0x9c
 2642 0398 0B       		.uleb128 0xb
 2643 0399 14050000 		.4byte	.LASF46
 2644 039d 01       		.byte	0x1
 2645 039e 0004     		.2byte	0x400
 2646 03a0 00000000 		.4byte	.LFB13
 2647 03a4 6C000000 		.4byte	.LFE13-.LFB13
 2648 03a8 01       		.uleb128 0x1
 2649 03a9 9C       		.byte	0x9c
 2650 03aa BE030000 		.4byte	0x3be
 2651 03ae 0C       		.uleb128 0xc
 2652 03af 87000000 		.4byte	.LASF47
 2653 03b3 01       		.byte	0x1
 2654 03b4 0204     		.2byte	0x402
 2655 03b6 17010000 		.4byte	0x117
 2656 03ba 02       		.uleb128 0x2
 2657 03bb 91       		.byte	0x91
 2658 03bc 74       		.sleb128 -12
 2659 03bd 00       		.byte	0
 2660 03be 11       		.uleb128 0x11
 2661 03bf 98010000 		.4byte	.LASF48
 2662 03c3 01       		.byte	0x1
 2663 03c4 7804     		.2byte	0x478
 2664 03c6 B4000000 		.4byte	0xb4
 2665 03ca 00000000 		.4byte	.LFB14
 2666 03ce 1E000000 		.4byte	.LFE14-.LFB14
 2667 03d2 01       		.uleb128 0x1
 2668 03d3 9C       		.byte	0x9c
 2669 03d4 F7030000 		.4byte	0x3f7
 2670 03d8 15       		.uleb128 0x15
 2671 03d9 76616C00 		.ascii	"val\000"
 2672 03dd 01       		.byte	0x1
 2673 03de 7804     		.2byte	0x478
 2674 03e0 B4000000 		.4byte	0xb4
 2675 03e4 02       		.uleb128 0x2
ARM GAS  C:\Users\ADMINI~1\AppData\Local\Temp\ccaBZmtr.s 			page 90


 2676 03e5 91       		.byte	0x91
 2677 03e6 6C       		.sleb128 -20
 2678 03e7 0C       		.uleb128 0xc
 2679 03e8 6E010000 		.4byte	.LASF49
 2680 03ec 01       		.byte	0x1
 2681 03ed 7A04     		.2byte	0x47a
 2682 03ef B4000000 		.4byte	0xb4
 2683 03f3 02       		.uleb128 0x2
 2684 03f4 91       		.byte	0x91
 2685 03f5 74       		.sleb128 -12
 2686 03f6 00       		.byte	0
 2687 03f7 16       		.uleb128 0x16
 2688 03f8 2F000000 		.4byte	.LASF50
 2689 03fc 01       		.byte	0x1
 2690 03fd B804     		.2byte	0x4b8
 2691 03ff B4000000 		.4byte	0xb4
 2692 0403 00000000 		.4byte	.LFB15
 2693 0407 2C000000 		.4byte	.LFE15-.LFB15
 2694 040b 01       		.uleb128 0x1
 2695 040c 9C       		.byte	0x9c
 2696 040d 3E040000 		.4byte	0x43e
 2697 0411 15       		.uleb128 0x15
 2698 0412 76616C00 		.ascii	"val\000"
 2699 0416 01       		.byte	0x1
 2700 0417 B804     		.2byte	0x4b8
 2701 0419 3E000000 		.4byte	0x3e
 2702 041d 02       		.uleb128 0x2
 2703 041e 91       		.byte	0x91
 2704 041f 6F       		.sleb128 -17
 2705 0420 0F       		.uleb128 0xf
 2706 0421 697800   		.ascii	"ix\000"
 2707 0424 01       		.byte	0x1
 2708 0425 BC04     		.2byte	0x4bc
 2709 0427 B4000000 		.4byte	0xb4
 2710 042b 02       		.uleb128 0x2
 2711 042c 91       		.byte	0x91
 2712 042d 74       		.sleb128 -12
 2713 042e 0C       		.uleb128 0xc
 2714 042f 6E010000 		.4byte	.LASF49
 2715 0433 01       		.byte	0x1
 2716 0434 BE04     		.2byte	0x4be
 2717 0436 B4000000 		.4byte	0xb4
 2718 043a 02       		.uleb128 0x2
 2719 043b 91       		.byte	0x91
 2720 043c 70       		.sleb128 -16
 2721 043d 00       		.byte	0
 2722 043e 16       		.uleb128 0x16
 2723 043f D7010000 		.4byte	.LASF51
 2724 0443 01       		.byte	0x1
 2725 0444 FB04     		.2byte	0x4fb
 2726 0446 B4000000 		.4byte	0xb4
 2727 044a 00000000 		.4byte	.LFB16
 2728 044e 4C000000 		.4byte	.LFE16-.LFB16
 2729 0452 01       		.uleb128 0x1
 2730 0453 9C       		.byte	0x9c
 2731 0454 85040000 		.4byte	0x485
 2732 0458 15       		.uleb128 0x15
ARM GAS  C:\Users\ADMINI~1\AppData\Local\Temp\ccaBZmtr.s 			page 91


 2733 0459 76616C00 		.ascii	"val\000"
 2734 045d 01       		.byte	0x1
 2735 045e FB04     		.2byte	0x4fb
 2736 0460 50000000 		.4byte	0x50
 2737 0464 02       		.uleb128 0x2
 2738 0465 91       		.byte	0x91
 2739 0466 6E       		.sleb128 -18
 2740 0467 0F       		.uleb128 0xf
 2741 0468 697800   		.ascii	"ix\000"
 2742 046b 01       		.byte	0x1
 2743 046c FF04     		.2byte	0x4ff
 2744 046e B4000000 		.4byte	0xb4
 2745 0472 02       		.uleb128 0x2
 2746 0473 91       		.byte	0x91
 2747 0474 70       		.sleb128 -16
 2748 0475 0C       		.uleb128 0xc
 2749 0476 6E010000 		.4byte	.LASF49
 2750 047a 01       		.byte	0x1
 2751 047b 0105     		.2byte	0x501
 2752 047d B4000000 		.4byte	0xb4
 2753 0481 02       		.uleb128 0x2
 2754 0482 91       		.byte	0x91
 2755 0483 74       		.sleb128 -12
 2756 0484 00       		.byte	0
 2757 0485 16       		.uleb128 0x16
 2758 0486 30050000 		.4byte	.LASF52
 2759 048a 01       		.byte	0x1
 2760 048b 4405     		.2byte	0x544
 2761 048d B4000000 		.4byte	0xb4
 2762 0491 00000000 		.4byte	.LFB17
 2763 0495 80000000 		.4byte	.LFE17-.LFB17
 2764 0499 01       		.uleb128 0x1
 2765 049a 9C       		.byte	0x9c
 2766 049b CC040000 		.4byte	0x4cc
 2767 049f 15       		.uleb128 0x15
 2768 04a0 76616C00 		.ascii	"val\000"
 2769 04a4 01       		.byte	0x1
 2770 04a5 4405     		.2byte	0x544
 2771 04a7 69000000 		.4byte	0x69
 2772 04ab 02       		.uleb128 0x2
 2773 04ac 91       		.byte	0x91
 2774 04ad 6C       		.sleb128 -20
 2775 04ae 0F       		.uleb128 0xf
 2776 04af 697800   		.ascii	"ix\000"
 2777 04b2 01       		.byte	0x1
 2778 04b3 4805     		.2byte	0x548
 2779 04b5 B4000000 		.4byte	0xb4
 2780 04b9 02       		.uleb128 0x2
 2781 04ba 91       		.byte	0x91
 2782 04bb 70       		.sleb128 -16
 2783 04bc 0C       		.uleb128 0xc
 2784 04bd 6E010000 		.4byte	.LASF49
 2785 04c1 01       		.byte	0x1
 2786 04c2 4A05     		.2byte	0x54a
 2787 04c4 B4000000 		.4byte	0xb4
 2788 04c8 02       		.uleb128 0x2
 2789 04c9 91       		.byte	0x91
ARM GAS  C:\Users\ADMINI~1\AppData\Local\Temp\ccaBZmtr.s 			page 92


 2790 04ca 74       		.sleb128 -12
 2791 04cb 00       		.byte	0
 2792 04cc 16       		.uleb128 0x16
 2793 04cd 3A040000 		.4byte	.LASF53
 2794 04d1 01       		.byte	0x1
 2795 04d2 9B05     		.2byte	0x59b
 2796 04d4 B4000000 		.4byte	0xb4
 2797 04d8 00000000 		.4byte	.LFB18
 2798 04dc 68010000 		.4byte	.LFE18-.LFB18
 2799 04e0 01       		.uleb128 0x1
 2800 04e1 9C       		.byte	0x9c
 2801 04e2 13050000 		.4byte	0x513
 2802 04e6 15       		.uleb128 0x15
 2803 04e7 76616C00 		.ascii	"val\000"
 2804 04eb 01       		.byte	0x1
 2805 04ec 9B05     		.2byte	0x59b
 2806 04ee 82000000 		.4byte	0x82
 2807 04f2 02       		.uleb128 0x2
 2808 04f3 91       		.byte	0x91
 2809 04f4 60       		.sleb128 -32
 2810 04f5 0F       		.uleb128 0xf
 2811 04f6 697800   		.ascii	"ix\000"
 2812 04f9 01       		.byte	0x1
 2813 04fa 9F05     		.2byte	0x59f
 2814 04fc B4000000 		.4byte	0xb4
 2815 0500 02       		.uleb128 0x2
 2816 0501 91       		.byte	0x91
 2817 0502 68       		.sleb128 -24
 2818 0503 0C       		.uleb128 0xc
 2819 0504 6E010000 		.4byte	.LASF49
 2820 0508 01       		.byte	0x1
 2821 0509 A105     		.2byte	0x5a1
 2822 050b B4000000 		.4byte	0xb4
 2823 050f 02       		.uleb128 0x2
 2824 0510 91       		.byte	0x91
 2825 0511 6C       		.sleb128 -20
 2826 0512 00       		.byte	0
 2827 0513 11       		.uleb128 0x11
 2828 0514 91030000 		.4byte	.LASF54
 2829 0518 01       		.byte	0x1
 2830 0519 5506     		.2byte	0x655
 2831 051b B4000000 		.4byte	0xb4
 2832 051f 00000000 		.4byte	.LFB19
 2833 0523 3A000000 		.4byte	.LFE19-.LFB19
 2834 0527 01       		.uleb128 0x1
 2835 0528 9C       		.byte	0x9c
 2836 0529 6A050000 		.4byte	0x56a
 2837 052d 15       		.uleb128 0x15
 2838 052e 76616C00 		.ascii	"val\000"
 2839 0532 01       		.byte	0x1
 2840 0533 5506     		.2byte	0x655
 2841 0535 B4000000 		.4byte	0xb4
 2842 0539 02       		.uleb128 0x2
 2843 053a 91       		.byte	0x91
 2844 053b 64       		.sleb128 -28
 2845 053c 0C       		.uleb128 0xc
 2846 053d 3D030000 		.4byte	.LASF55
ARM GAS  C:\Users\ADMINI~1\AppData\Local\Temp\ccaBZmtr.s 			page 93


 2847 0541 01       		.byte	0x1
 2848 0542 5706     		.2byte	0x657
 2849 0544 B4000000 		.4byte	0xb4
 2850 0548 02       		.uleb128 0x2
 2851 0549 91       		.byte	0x91
 2852 054a 74       		.sleb128 -12
 2853 054b 0C       		.uleb128 0xc
 2854 054c 6E010000 		.4byte	.LASF49
 2855 0550 01       		.byte	0x1
 2856 0551 5806     		.2byte	0x658
 2857 0553 B4000000 		.4byte	0xb4
 2858 0557 02       		.uleb128 0x2
 2859 0558 91       		.byte	0x91
 2860 0559 70       		.sleb128 -16
 2861 055a 0C       		.uleb128 0xc
 2862 055b C4000000 		.4byte	.LASF56
 2863 055f 01       		.byte	0x1
 2864 0560 5906     		.2byte	0x659
 2865 0562 B4000000 		.4byte	0xb4
 2866 0566 02       		.uleb128 0x2
 2867 0567 91       		.byte	0x91
 2868 0568 6C       		.sleb128 -20
 2869 0569 00       		.byte	0
 2870 056a 11       		.uleb128 0x11
 2871 056b EA040000 		.4byte	.LASF57
 2872 056f 01       		.byte	0x1
 2873 0570 B206     		.2byte	0x6b2
 2874 0572 B4000000 		.4byte	0xb4
 2875 0576 00000000 		.4byte	.LFB20
 2876 057a 4E000000 		.4byte	.LFE20-.LFB20
 2877 057e 01       		.uleb128 0x1
 2878 057f 9C       		.byte	0x9c
 2879 0580 C1050000 		.4byte	0x5c1
 2880 0584 15       		.uleb128 0x15
 2881 0585 76616C00 		.ascii	"val\000"
 2882 0589 01       		.byte	0x1
 2883 058a B206     		.2byte	0x6b2
 2884 058c 3E000000 		.4byte	0x3e
 2885 0590 02       		.uleb128 0x2
 2886 0591 91       		.byte	0x91
 2887 0592 67       		.sleb128 -25
 2888 0593 0C       		.uleb128 0xc
 2889 0594 3D030000 		.4byte	.LASF55
 2890 0598 01       		.byte	0x1
 2891 0599 B606     		.2byte	0x6b6
 2892 059b 3E000000 		.4byte	0x3e
 2893 059f 02       		.uleb128 0x2
 2894 05a0 91       		.byte	0x91
 2895 05a1 77       		.sleb128 -9
 2896 05a2 0C       		.uleb128 0xc
 2897 05a3 6E010000 		.4byte	.LASF49
 2898 05a7 01       		.byte	0x1
 2899 05a8 B706     		.2byte	0x6b7
 2900 05aa B4000000 		.4byte	0xb4
 2901 05ae 02       		.uleb128 0x2
 2902 05af 91       		.byte	0x91
 2903 05b0 70       		.sleb128 -16
ARM GAS  C:\Users\ADMINI~1\AppData\Local\Temp\ccaBZmtr.s 			page 94


 2904 05b1 0C       		.uleb128 0xc
 2905 05b2 C4000000 		.4byte	.LASF56
 2906 05b6 01       		.byte	0x1
 2907 05b7 B906     		.2byte	0x6b9
 2908 05b9 B4000000 		.4byte	0xb4
 2909 05bd 02       		.uleb128 0x2
 2910 05be 91       		.byte	0x91
 2911 05bf 6C       		.sleb128 -20
 2912 05c0 00       		.byte	0
 2913 05c1 11       		.uleb128 0x11
 2914 05c2 6A040000 		.4byte	.LASF58
 2915 05c6 01       		.byte	0x1
 2916 05c7 1A07     		.2byte	0x71a
 2917 05c9 B4000000 		.4byte	0xb4
 2918 05cd 00000000 		.4byte	.LFB21
 2919 05d1 4E000000 		.4byte	.LFE21-.LFB21
 2920 05d5 01       		.uleb128 0x1
 2921 05d6 9C       		.byte	0x9c
 2922 05d7 18060000 		.4byte	0x618
 2923 05db 15       		.uleb128 0x15
 2924 05dc 76616C00 		.ascii	"val\000"
 2925 05e0 01       		.byte	0x1
 2926 05e1 1A07     		.2byte	0x71a
 2927 05e3 50000000 		.4byte	0x50
 2928 05e7 02       		.uleb128 0x2
 2929 05e8 91       		.byte	0x91
 2930 05e9 66       		.sleb128 -26
 2931 05ea 0C       		.uleb128 0xc
 2932 05eb 3D030000 		.4byte	.LASF55
 2933 05ef 01       		.byte	0x1
 2934 05f0 1E07     		.2byte	0x71e
 2935 05f2 50000000 		.4byte	0x50
 2936 05f6 02       		.uleb128 0x2
 2937 05f7 91       		.byte	0x91
 2938 05f8 76       		.sleb128 -10
 2939 05f9 0C       		.uleb128 0xc
 2940 05fa 6E010000 		.4byte	.LASF49
 2941 05fe 01       		.byte	0x1
 2942 05ff 1F07     		.2byte	0x71f
 2943 0601 B4000000 		.4byte	0xb4
 2944 0605 02       		.uleb128 0x2
 2945 0606 91       		.byte	0x91
 2946 0607 70       		.sleb128 -16
 2947 0608 0C       		.uleb128 0xc
 2948 0609 C4000000 		.4byte	.LASF56
 2949 060d 01       		.byte	0x1
 2950 060e 2107     		.2byte	0x721
 2951 0610 B4000000 		.4byte	0xb4
 2952 0614 02       		.uleb128 0x2
 2953 0615 91       		.byte	0x91
 2954 0616 6C       		.sleb128 -20
 2955 0617 00       		.byte	0
 2956 0618 11       		.uleb128 0x11
 2957 0619 CC030000 		.4byte	.LASF59
 2958 061d 01       		.byte	0x1
 2959 061e 8207     		.2byte	0x782
 2960 0620 B4000000 		.4byte	0xb4
ARM GAS  C:\Users\ADMINI~1\AppData\Local\Temp\ccaBZmtr.s 			page 95


 2961 0624 00000000 		.4byte	.LFB22
 2962 0628 3A000000 		.4byte	.LFE22-.LFB22
 2963 062c 01       		.uleb128 0x1
 2964 062d 9C       		.byte	0x9c
 2965 062e 6F060000 		.4byte	0x66f
 2966 0632 15       		.uleb128 0x15
 2967 0633 76616C00 		.ascii	"val\000"
 2968 0637 01       		.byte	0x1
 2969 0638 8207     		.2byte	0x782
 2970 063a 69000000 		.4byte	0x69
 2971 063e 02       		.uleb128 0x2
 2972 063f 91       		.byte	0x91
 2973 0640 64       		.sleb128 -28
 2974 0641 0C       		.uleb128 0xc
 2975 0642 3D030000 		.4byte	.LASF55
 2976 0646 01       		.byte	0x1
 2977 0647 8607     		.2byte	0x786
 2978 0649 69000000 		.4byte	0x69
 2979 064d 02       		.uleb128 0x2
 2980 064e 91       		.byte	0x91
 2981 064f 74       		.sleb128 -12
 2982 0650 0C       		.uleb128 0xc
 2983 0651 6E010000 		.4byte	.LASF49
 2984 0655 01       		.byte	0x1
 2985 0656 8707     		.2byte	0x787
 2986 0658 B4000000 		.4byte	0xb4
 2987 065c 02       		.uleb128 0x2
 2988 065d 91       		.byte	0x91
 2989 065e 70       		.sleb128 -16
 2990 065f 0C       		.uleb128 0xc
 2991 0660 C4000000 		.4byte	.LASF56
 2992 0664 01       		.byte	0x1
 2993 0665 8907     		.2byte	0x789
 2994 0667 B4000000 		.4byte	0xb4
 2995 066b 02       		.uleb128 0x2
 2996 066c 91       		.byte	0x91
 2997 066d 6C       		.sleb128 -20
 2998 066e 00       		.byte	0
 2999 066f 11       		.uleb128 0x11
 3000 0670 15020000 		.4byte	.LASF60
 3001 0674 01       		.byte	0x1
 3002 0675 EA07     		.2byte	0x7ea
 3003 0677 B4000000 		.4byte	0xb4
 3004 067b 00000000 		.4byte	.LFB23
 3005 067f 50000000 		.4byte	.LFE23-.LFB23
 3006 0683 01       		.uleb128 0x1
 3007 0684 9C       		.byte	0x9c
 3008 0685 C6060000 		.4byte	0x6c6
 3009 0689 15       		.uleb128 0x15
 3010 068a 76616C00 		.ascii	"val\000"
 3011 068e 01       		.byte	0x1
 3012 068f EA07     		.2byte	0x7ea
 3013 0691 82000000 		.4byte	0x82
 3014 0695 02       		.uleb128 0x2
 3015 0696 91       		.byte	0x91
 3016 0697 58       		.sleb128 -40
 3017 0698 0C       		.uleb128 0xc
ARM GAS  C:\Users\ADMINI~1\AppData\Local\Temp\ccaBZmtr.s 			page 96


 3018 0699 3D030000 		.4byte	.LASF55
 3019 069d 01       		.byte	0x1
 3020 069e EE07     		.2byte	0x7ee
 3021 06a0 82000000 		.4byte	0x82
 3022 06a4 02       		.uleb128 0x2
 3023 06a5 91       		.byte	0x91
 3024 06a6 68       		.sleb128 -24
 3025 06a7 0C       		.uleb128 0xc
 3026 06a8 6E010000 		.4byte	.LASF49
 3027 06ac 01       		.byte	0x1
 3028 06ad EF07     		.2byte	0x7ef
 3029 06af B4000000 		.4byte	0xb4
 3030 06b3 02       		.uleb128 0x2
 3031 06b4 91       		.byte	0x91
 3032 06b5 64       		.sleb128 -28
 3033 06b6 0C       		.uleb128 0xc
 3034 06b7 C4000000 		.4byte	.LASF56
 3035 06bb 01       		.byte	0x1
 3036 06bc F107     		.2byte	0x7f1
 3037 06be B4000000 		.4byte	0xb4
 3038 06c2 02       		.uleb128 0x2
 3039 06c3 91       		.byte	0x91
 3040 06c4 60       		.sleb128 -32
 3041 06c5 00       		.byte	0
 3042 06c6 16       		.uleb128 0x16
 3043 06c7 8A040000 		.4byte	.LASF61
 3044 06cb 01       		.byte	0x1
 3045 06cc 1B08     		.2byte	0x81b
 3046 06ce 3E000000 		.4byte	0x3e
 3047 06d2 00000000 		.4byte	.LFB24
 3048 06d6 78000000 		.4byte	.LFE24-.LFB24
 3049 06da 01       		.uleb128 0x1
 3050 06db 9C       		.byte	0x9c
 3051 06dc 1D070000 		.4byte	0x71d
 3052 06e0 0D       		.uleb128 0xd
 3053 06e1 31010000 		.4byte	.LASF62
 3054 06e5 01       		.byte	0x1
 3055 06e6 1B08     		.2byte	0x81b
 3056 06e8 69000000 		.4byte	0x69
 3057 06ec 02       		.uleb128 0x2
 3058 06ed 91       		.byte	0x91
 3059 06ee 64       		.sleb128 -28
 3060 06ef 0C       		.uleb128 0xc
 3061 06f0 8F010000 		.4byte	.LASF63
 3062 06f4 01       		.byte	0x1
 3063 06f5 1D08     		.2byte	0x81d
 3064 06f7 69000000 		.4byte	0x69
 3065 06fb 02       		.uleb128 0x2
 3066 06fc 91       		.byte	0x91
 3067 06fd 6C       		.sleb128 -20
 3068 06fe 0C       		.uleb128 0xc
 3069 06ff B1030000 		.4byte	.LASF64
 3070 0703 01       		.byte	0x1
 3071 0704 1E08     		.2byte	0x81e
 3072 0706 69000000 		.4byte	0x69
 3073 070a 02       		.uleb128 0x2
 3074 070b 91       		.byte	0x91
ARM GAS  C:\Users\ADMINI~1\AppData\Local\Temp\ccaBZmtr.s 			page 97


 3075 070c 74       		.sleb128 -12
 3076 070d 0C       		.uleb128 0xc
 3077 070e 00000000 		.4byte	.LASF65
 3078 0712 01       		.byte	0x1
 3079 0713 1F08     		.2byte	0x81f
 3080 0715 69000000 		.4byte	0x69
 3081 0719 02       		.uleb128 0x2
 3082 071a 91       		.byte	0x91
 3083 071b 70       		.sleb128 -16
 3084 071c 00       		.byte	0
 3085 071d 17       		.uleb128 0x17
 3086 071e 37010000 		.4byte	.LASF66
 3087 0722 01       		.byte	0x1
 3088 0723 4C08     		.2byte	0x84c
 3089 0725 00000000 		.4byte	.LFB25
 3090 0729 0E000000 		.4byte	.LFE25-.LFB25
 3091 072d 01       		.uleb128 0x1
 3092 072e 9C       		.byte	0x9c
 3093 072f 17       		.uleb128 0x17
 3094 0730 FD010000 		.4byte	.LASF67
 3095 0734 01       		.byte	0x1
 3096 0735 7008     		.2byte	0x870
 3097 0737 00000000 		.4byte	.LFB26
 3098 073b 18000000 		.4byte	.LFE26-.LFB26
 3099 073f 01       		.uleb128 0x1
 3100 0740 9C       		.byte	0x9c
 3101 0741 18       		.uleb128 0x18
 3102 0742 EA010000 		.4byte	.LASF85
 3103 0746 01       		.byte	0x1
 3104 0747 BF08     		.2byte	0x8bf
 3105 0749 00000000 		.4byte	.LFB27
 3106 074d B8000000 		.4byte	.LFE27-.LFB27
 3107 0751 01       		.uleb128 0x1
 3108 0752 9C       		.byte	0x9c
 3109 0753 83070000 		.4byte	0x783
 3110 0757 0C       		.uleb128 0xc
 3111 0758 4A030000 		.4byte	.LASF68
 3112 075c 01       		.byte	0x1
 3113 075d C108     		.2byte	0x8c1
 3114 075f 17010000 		.4byte	0x117
 3115 0763 02       		.uleb128 0x2
 3116 0764 91       		.byte	0x91
 3117 0765 74       		.sleb128 -12
 3118 0766 0F       		.uleb128 0xf
 3119 0767 6900     		.ascii	"i\000"
 3120 0769 01       		.byte	0x1
 3121 076a C208     		.2byte	0x8c2
 3122 076c 50000000 		.4byte	0x50
 3123 0770 02       		.uleb128 0x2
 3124 0771 91       		.byte	0x91
 3125 0772 72       		.sleb128 -14
 3126 0773 0C       		.uleb128 0xc
 3127 0774 4E050000 		.4byte	.LASF33
 3128 0778 01       		.byte	0x1
 3129 0779 C308     		.2byte	0x8c3
 3130 077b CA000000 		.4byte	0xca
 3131 077f 02       		.uleb128 0x2
ARM GAS  C:\Users\ADMINI~1\AppData\Local\Temp\ccaBZmtr.s 			page 98


 3132 0780 91       		.byte	0x91
 3133 0781 6C       		.sleb128 -20
 3134 0782 00       		.byte	0
 3135 0783 19       		.uleb128 0x19
 3136 0784 FE040000 		.4byte	.LASF86
 3137 0788 01       		.byte	0x1
 3138 0789 4409     		.2byte	0x944
 3139 078b 17010000 		.4byte	0x117
 3140 078f 00000000 		.4byte	.LFB28
 3141 0793 34000000 		.4byte	.LFE28-.LFB28
 3142 0797 01       		.uleb128 0x1
 3143 0798 9C       		.byte	0x9c
 3144 0799 BC070000 		.4byte	0x7bc
 3145 079d 0D       		.uleb128 0xd
 3146 079e 83030000 		.4byte	.LASF43
 3147 07a2 01       		.byte	0x1
 3148 07a3 4409     		.2byte	0x944
 3149 07a5 17010000 		.4byte	0x117
 3150 07a9 02       		.uleb128 0x2
 3151 07aa 91       		.byte	0x91
 3152 07ab 6C       		.sleb128 -20
 3153 07ac 0C       		.uleb128 0xc
 3154 07ad 5D030000 		.4byte	.LASF41
 3155 07b1 01       		.byte	0x1
 3156 07b2 4609     		.2byte	0x946
 3157 07b4 17010000 		.4byte	0x117
 3158 07b8 02       		.uleb128 0x2
 3159 07b9 91       		.byte	0x91
 3160 07ba 74       		.sleb128 -12
 3161 07bb 00       		.byte	0
 3162 07bc 1A       		.uleb128 0x1a
 3163 07bd D3070000 		.4byte	0x7d3
 3164 07c1 CC070000 		.4byte	0x7cc
 3165 07c5 1B       		.uleb128 0x1b
 3166 07c6 CC070000 		.4byte	0x7cc
 3167 07ca FF       		.byte	0xff
 3168 07cb 00       		.byte	0
 3169 07cc 03       		.uleb128 0x3
 3170 07cd 04       		.byte	0x4
 3171 07ce 07       		.byte	0x7
 3172 07cf 9B000000 		.4byte	.LASF69
 3173 07d3 10       		.uleb128 0x10
 3174 07d4 3E000000 		.4byte	0x3e
 3175 07d8 1C       		.uleb128 0x1c
 3176 07d9 8A050000 		.4byte	.LASF70
 3177 07dd 01       		.byte	0x1
 3178 07de 6D       		.byte	0x6d
 3179 07df E9070000 		.4byte	0x7e9
 3180 07e3 05       		.uleb128 0x5
 3181 07e4 03       		.byte	0x3
 3182 07e5 00000000 		.4byte	CPU_CntLeadZerosTbl
 3183 07e9 10       		.uleb128 0x10
 3184 07ea BC070000 		.4byte	0x7bc
 3185 07ee 1A       		.uleb128 0x1a
 3186 07ef 25000000 		.4byte	0x25
 3187 07f3 FE070000 		.4byte	0x7fe
 3188 07f7 1B       		.uleb128 0x1b
ARM GAS  C:\Users\ADMINI~1\AppData\Local\Temp\ccaBZmtr.s 			page 99


 3189 07f8 CC070000 		.4byte	0x7cc
 3190 07fc 0F       		.byte	0xf
 3191 07fd 00       		.byte	0
 3192 07fe 1D       		.uleb128 0x1d
 3193 07ff C0010000 		.4byte	.LASF71
 3194 0803 03       		.byte	0x3
 3195 0804 E6       		.byte	0xe6
 3196 0805 EE070000 		.4byte	0x7ee
 3197 0809 05       		.uleb128 0x5
 3198 080a 03       		.byte	0x3
 3199 080b 00000000 		.4byte	CPU_Name
 3200 080f 1D       		.uleb128 0x1d
 3201 0810 B2000000 		.4byte	.LASF72
 3202 0814 03       		.byte	0x3
 3203 0815 F7       		.byte	0xf7
 3204 0816 22010000 		.4byte	0x122
 3205 081a 05       		.uleb128 0x5
 3206 081b 03       		.byte	0x3
 3207 081c 00000000 		.4byte	CPU_TS_TmrFreq_Hz
 3208 0820 1D       		.uleb128 0x1d
 3209 0821 AA040000 		.4byte	.LASF73
 3210 0825 03       		.byte	0x3
 3211 0826 FC       		.byte	0xfc
 3212 0827 50000000 		.4byte	0x50
 3213 082b 05       		.uleb128 0x5
 3214 082c 03       		.byte	0x3
 3215 082d 00000000 		.4byte	CPU_IntDisMeasCtr
 3216 0831 1D       		.uleb128 0x1d
 3217 0832 42000000 		.4byte	.LASF74
 3218 0836 03       		.byte	0x3
 3219 0837 FD       		.byte	0xfd
 3220 0838 50000000 		.4byte	0x50
 3221 083c 05       		.uleb128 0x5
 3222 083d 03       		.byte	0x3
 3223 083e 00000000 		.4byte	CPU_IntDisNestCtr
 3224 0842 1D       		.uleb128 0x1d
 3225 0843 D6020000 		.4byte	.LASF75
 3226 0847 03       		.byte	0x3
 3227 0848 FF       		.byte	0xff
 3228 0849 17010000 		.4byte	0x117
 3229 084d 05       		.uleb128 0x5
 3230 084e 03       		.byte	0x3
 3231 084f 00000000 		.4byte	CPU_IntDisMeasStart_cnts
 3232 0853 1E       		.uleb128 0x1e
 3233 0854 07000000 		.4byte	.LASF76
 3234 0858 03       		.byte	0x3
 3235 0859 0001     		.2byte	0x100
 3236 085b 17010000 		.4byte	0x117
 3237 085f 05       		.uleb128 0x5
 3238 0860 03       		.byte	0x3
 3239 0861 00000000 		.4byte	CPU_IntDisMeasStop_cnts
 3240 0865 1E       		.uleb128 0x1e
 3241 0866 9E050000 		.4byte	.LASF77
 3242 086a 03       		.byte	0x3
 3243 086b 0101     		.2byte	0x101
 3244 086d 17010000 		.4byte	0x117
 3245 0871 05       		.uleb128 0x5
ARM GAS  C:\Users\ADMINI~1\AppData\Local\Temp\ccaBZmtr.s 			page 100


 3246 0872 03       		.byte	0x3
 3247 0873 00000000 		.4byte	CPU_IntDisMeasOvrhd_cnts
 3248 0877 1E       		.uleb128 0x1e
 3249 0878 69050000 		.4byte	.LASF78
 3250 087c 03       		.byte	0x3
 3251 087d 0201     		.2byte	0x102
 3252 087f 17010000 		.4byte	0x117
 3253 0883 05       		.uleb128 0x5
 3254 0884 03       		.byte	0x3
 3255 0885 00000000 		.4byte	CPU_IntDisMeasMaxCur_cnts
 3256 0889 1E       		.uleb128 0x1e
 3257 088a 57010000 		.4byte	.LASF79
 3258 088e 03       		.byte	0x3
 3259 088f 0301     		.2byte	0x103
 3260 0891 17010000 		.4byte	0x117
 3261 0895 05       		.uleb128 0x5
 3262 0896 03       		.byte	0x3
 3263 0897 00000000 		.4byte	CPU_IntDisMeasMax_cnts
 3264 089b 1D       		.uleb128 0x1d
 3265 089c 44010000 		.4byte	.LASF80
 3266 08a0 01       		.byte	0x1
 3267 08a1 89       		.byte	0x89
 3268 08a2 AC080000 		.4byte	0x8ac
 3269 08a6 05       		.uleb128 0x5
 3270 08a7 03       		.byte	0x3
 3271 08a8 00000000 		.4byte	CPU_EndiannessTest
 3272 08ac 10       		.uleb128 0x10
 3273 08ad 69000000 		.4byte	0x69
 3274 08b1 00       		.byte	0
 3275              		.section	.debug_abbrev,"",%progbits
 3276              	.Ldebug_abbrev0:
 3277 0000 01       		.uleb128 0x1
 3278 0001 11       		.uleb128 0x11
 3279 0002 01       		.byte	0x1
 3280 0003 25       		.uleb128 0x25
 3281 0004 0E       		.uleb128 0xe
 3282 0005 13       		.uleb128 0x13
 3283 0006 0B       		.uleb128 0xb
 3284 0007 03       		.uleb128 0x3
 3285 0008 0E       		.uleb128 0xe
 3286 0009 1B       		.uleb128 0x1b
 3287 000a 0E       		.uleb128 0xe
 3288 000b 55       		.uleb128 0x55
 3289 000c 17       		.uleb128 0x17
 3290 000d 11       		.uleb128 0x11
 3291 000e 01       		.uleb128 0x1
 3292 000f 10       		.uleb128 0x10
 3293 0010 17       		.uleb128 0x17
 3294 0011 00       		.byte	0
 3295 0012 00       		.byte	0
 3296 0013 02       		.uleb128 0x2
 3297 0014 16       		.uleb128 0x16
 3298 0015 00       		.byte	0
 3299 0016 03       		.uleb128 0x3
 3300 0017 0E       		.uleb128 0xe
 3301 0018 3A       		.uleb128 0x3a
 3302 0019 0B       		.uleb128 0xb
ARM GAS  C:\Users\ADMINI~1\AppData\Local\Temp\ccaBZmtr.s 			page 101


 3303 001a 3B       		.uleb128 0x3b
 3304 001b 0B       		.uleb128 0xb
 3305 001c 49       		.uleb128 0x49
 3306 001d 13       		.uleb128 0x13
 3307 001e 00       		.byte	0
 3308 001f 00       		.byte	0
 3309 0020 03       		.uleb128 0x3
 3310 0021 24       		.uleb128 0x24
 3311 0022 00       		.byte	0
 3312 0023 0B       		.uleb128 0xb
 3313 0024 0B       		.uleb128 0xb
 3314 0025 3E       		.uleb128 0x3e
 3315 0026 0B       		.uleb128 0xb
 3316 0027 03       		.uleb128 0x3
 3317 0028 0E       		.uleb128 0xe
 3318 0029 00       		.byte	0
 3319 002a 00       		.byte	0
 3320 002b 04       		.uleb128 0x4
 3321 002c 24       		.uleb128 0x24
 3322 002d 00       		.byte	0
 3323 002e 0B       		.uleb128 0xb
 3324 002f 0B       		.uleb128 0xb
 3325 0030 3E       		.uleb128 0x3e
 3326 0031 0B       		.uleb128 0xb
 3327 0032 03       		.uleb128 0x3
 3328 0033 08       		.uleb128 0x8
 3329 0034 00       		.byte	0
 3330 0035 00       		.byte	0
 3331 0036 05       		.uleb128 0x5
 3332 0037 16       		.uleb128 0x16
 3333 0038 00       		.byte	0
 3334 0039 03       		.uleb128 0x3
 3335 003a 0E       		.uleb128 0xe
 3336 003b 3A       		.uleb128 0x3a
 3337 003c 0B       		.uleb128 0xb
 3338 003d 3B       		.uleb128 0x3b
 3339 003e 05       		.uleb128 0x5
 3340 003f 49       		.uleb128 0x49
 3341 0040 13       		.uleb128 0x13
 3342 0041 00       		.byte	0
 3343 0042 00       		.byte	0
 3344 0043 06       		.uleb128 0x6
 3345 0044 04       		.uleb128 0x4
 3346 0045 01       		.byte	0x1
 3347 0046 03       		.uleb128 0x3
 3348 0047 0E       		.uleb128 0xe
 3349 0048 0B       		.uleb128 0xb
 3350 0049 0B       		.uleb128 0xb
 3351 004a 49       		.uleb128 0x49
 3352 004b 13       		.uleb128 0x13
 3353 004c 3A       		.uleb128 0x3a
 3354 004d 0B       		.uleb128 0xb
 3355 004e 3B       		.uleb128 0x3b
 3356 004f 0B       		.uleb128 0xb
 3357 0050 01       		.uleb128 0x1
 3358 0051 13       		.uleb128 0x13
 3359 0052 00       		.byte	0
ARM GAS  C:\Users\ADMINI~1\AppData\Local\Temp\ccaBZmtr.s 			page 102


 3360 0053 00       		.byte	0
 3361 0054 07       		.uleb128 0x7
 3362 0055 28       		.uleb128 0x28
 3363 0056 00       		.byte	0
 3364 0057 03       		.uleb128 0x3
 3365 0058 0E       		.uleb128 0xe
 3366 0059 1C       		.uleb128 0x1c
 3367 005a 0B       		.uleb128 0xb
 3368 005b 00       		.byte	0
 3369 005c 00       		.byte	0
 3370 005d 08       		.uleb128 0x8
 3371 005e 28       		.uleb128 0x28
 3372 005f 00       		.byte	0
 3373 0060 03       		.uleb128 0x3
 3374 0061 0E       		.uleb128 0xe
 3375 0062 1C       		.uleb128 0x1c
 3376 0063 05       		.uleb128 0x5
 3377 0064 00       		.byte	0
 3378 0065 00       		.byte	0
 3379 0066 09       		.uleb128 0x9
 3380 0067 2E       		.uleb128 0x2e
 3381 0068 00       		.byte	0
 3382 0069 3F       		.uleb128 0x3f
 3383 006a 19       		.uleb128 0x19
 3384 006b 03       		.uleb128 0x3
 3385 006c 0E       		.uleb128 0xe
 3386 006d 3A       		.uleb128 0x3a
 3387 006e 0B       		.uleb128 0xb
 3388 006f 3B       		.uleb128 0x3b
 3389 0070 0B       		.uleb128 0xb
 3390 0071 27       		.uleb128 0x27
 3391 0072 19       		.uleb128 0x19
 3392 0073 11       		.uleb128 0x11
 3393 0074 01       		.uleb128 0x1
 3394 0075 12       		.uleb128 0x12
 3395 0076 06       		.uleb128 0x6
 3396 0077 40       		.uleb128 0x40
 3397 0078 18       		.uleb128 0x18
 3398 0079 9642     		.uleb128 0x2116
 3399 007b 19       		.uleb128 0x19
 3400 007c 00       		.byte	0
 3401 007d 00       		.byte	0
 3402 007e 0A       		.uleb128 0xa
 3403 007f 2E       		.uleb128 0x2e
 3404 0080 00       		.byte	0
 3405 0081 3F       		.uleb128 0x3f
 3406 0082 19       		.uleb128 0x19
 3407 0083 03       		.uleb128 0x3
 3408 0084 0E       		.uleb128 0xe
 3409 0085 3A       		.uleb128 0x3a
 3410 0086 0B       		.uleb128 0xb
 3411 0087 3B       		.uleb128 0x3b
 3412 0088 0B       		.uleb128 0xb
 3413 0089 27       		.uleb128 0x27
 3414 008a 19       		.uleb128 0x19
 3415 008b 11       		.uleb128 0x11
 3416 008c 01       		.uleb128 0x1
ARM GAS  C:\Users\ADMINI~1\AppData\Local\Temp\ccaBZmtr.s 			page 103


 3417 008d 12       		.uleb128 0x12
 3418 008e 06       		.uleb128 0x6
 3419 008f 40       		.uleb128 0x40
 3420 0090 18       		.uleb128 0x18
 3421 0091 9742     		.uleb128 0x2117
 3422 0093 19       		.uleb128 0x19
 3423 0094 00       		.byte	0
 3424 0095 00       		.byte	0
 3425 0096 0B       		.uleb128 0xb
 3426 0097 2E       		.uleb128 0x2e
 3427 0098 01       		.byte	0x1
 3428 0099 3F       		.uleb128 0x3f
 3429 009a 19       		.uleb128 0x19
 3430 009b 03       		.uleb128 0x3
 3431 009c 0E       		.uleb128 0xe
 3432 009d 3A       		.uleb128 0x3a
 3433 009e 0B       		.uleb128 0xb
 3434 009f 3B       		.uleb128 0x3b
 3435 00a0 05       		.uleb128 0x5
 3436 00a1 27       		.uleb128 0x27
 3437 00a2 19       		.uleb128 0x19
 3438 00a3 11       		.uleb128 0x11
 3439 00a4 01       		.uleb128 0x1
 3440 00a5 12       		.uleb128 0x12
 3441 00a6 06       		.uleb128 0x6
 3442 00a7 40       		.uleb128 0x40
 3443 00a8 18       		.uleb128 0x18
 3444 00a9 9642     		.uleb128 0x2116
 3445 00ab 19       		.uleb128 0x19
 3446 00ac 01       		.uleb128 0x1
 3447 00ad 13       		.uleb128 0x13
 3448 00ae 00       		.byte	0
 3449 00af 00       		.byte	0
 3450 00b0 0C       		.uleb128 0xc
 3451 00b1 34       		.uleb128 0x34
 3452 00b2 00       		.byte	0
 3453 00b3 03       		.uleb128 0x3
 3454 00b4 0E       		.uleb128 0xe
 3455 00b5 3A       		.uleb128 0x3a
 3456 00b6 0B       		.uleb128 0xb
 3457 00b7 3B       		.uleb128 0x3b
 3458 00b8 05       		.uleb128 0x5
 3459 00b9 49       		.uleb128 0x49
 3460 00ba 13       		.uleb128 0x13
 3461 00bb 02       		.uleb128 0x2
 3462 00bc 18       		.uleb128 0x18
 3463 00bd 00       		.byte	0
 3464 00be 00       		.byte	0
 3465 00bf 0D       		.uleb128 0xd
 3466 00c0 05       		.uleb128 0x5
 3467 00c1 00       		.byte	0
 3468 00c2 03       		.uleb128 0x3
 3469 00c3 0E       		.uleb128 0xe
 3470 00c4 3A       		.uleb128 0x3a
 3471 00c5 0B       		.uleb128 0xb
 3472 00c6 3B       		.uleb128 0x3b
 3473 00c7 05       		.uleb128 0x5
ARM GAS  C:\Users\ADMINI~1\AppData\Local\Temp\ccaBZmtr.s 			page 104


 3474 00c8 49       		.uleb128 0x49
 3475 00c9 13       		.uleb128 0x13
 3476 00ca 02       		.uleb128 0x2
 3477 00cb 18       		.uleb128 0x18
 3478 00cc 00       		.byte	0
 3479 00cd 00       		.byte	0
 3480 00ce 0E       		.uleb128 0xe
 3481 00cf 0F       		.uleb128 0xf
 3482 00d0 00       		.byte	0
 3483 00d1 0B       		.uleb128 0xb
 3484 00d2 0B       		.uleb128 0xb
 3485 00d3 49       		.uleb128 0x49
 3486 00d4 13       		.uleb128 0x13
 3487 00d5 00       		.byte	0
 3488 00d6 00       		.byte	0
 3489 00d7 0F       		.uleb128 0xf
 3490 00d8 34       		.uleb128 0x34
 3491 00d9 00       		.byte	0
 3492 00da 03       		.uleb128 0x3
 3493 00db 08       		.uleb128 0x8
 3494 00dc 3A       		.uleb128 0x3a
 3495 00dd 0B       		.uleb128 0xb
 3496 00de 3B       		.uleb128 0x3b
 3497 00df 05       		.uleb128 0x5
 3498 00e0 49       		.uleb128 0x49
 3499 00e1 13       		.uleb128 0x13
 3500 00e2 02       		.uleb128 0x2
 3501 00e3 18       		.uleb128 0x18
 3502 00e4 00       		.byte	0
 3503 00e5 00       		.byte	0
 3504 00e6 10       		.uleb128 0x10
 3505 00e7 26       		.uleb128 0x26
 3506 00e8 00       		.byte	0
 3507 00e9 49       		.uleb128 0x49
 3508 00ea 13       		.uleb128 0x13
 3509 00eb 00       		.byte	0
 3510 00ec 00       		.byte	0
 3511 00ed 11       		.uleb128 0x11
 3512 00ee 2E       		.uleb128 0x2e
 3513 00ef 01       		.byte	0x1
 3514 00f0 3F       		.uleb128 0x3f
 3515 00f1 19       		.uleb128 0x19
 3516 00f2 03       		.uleb128 0x3
 3517 00f3 0E       		.uleb128 0xe
 3518 00f4 3A       		.uleb128 0x3a
 3519 00f5 0B       		.uleb128 0xb
 3520 00f6 3B       		.uleb128 0x3b
 3521 00f7 05       		.uleb128 0x5
 3522 00f8 27       		.uleb128 0x27
 3523 00f9 19       		.uleb128 0x19
 3524 00fa 49       		.uleb128 0x49
 3525 00fb 13       		.uleb128 0x13
 3526 00fc 11       		.uleb128 0x11
 3527 00fd 01       		.uleb128 0x1
 3528 00fe 12       		.uleb128 0x12
 3529 00ff 06       		.uleb128 0x6
 3530 0100 40       		.uleb128 0x40
ARM GAS  C:\Users\ADMINI~1\AppData\Local\Temp\ccaBZmtr.s 			page 105


 3531 0101 18       		.uleb128 0x18
 3532 0102 9642     		.uleb128 0x2116
 3533 0104 19       		.uleb128 0x19
 3534 0105 01       		.uleb128 0x1
 3535 0106 13       		.uleb128 0x13
 3536 0107 00       		.byte	0
 3537 0108 00       		.byte	0
 3538 0109 12       		.uleb128 0x12
 3539 010a 2E       		.uleb128 0x2e
 3540 010b 00       		.byte	0
 3541 010c 3F       		.uleb128 0x3f
 3542 010d 19       		.uleb128 0x19
 3543 010e 03       		.uleb128 0x3
 3544 010f 0E       		.uleb128 0xe
 3545 0110 3A       		.uleb128 0x3a
 3546 0111 0B       		.uleb128 0xb
 3547 0112 3B       		.uleb128 0x3b
 3548 0113 05       		.uleb128 0x5
 3549 0114 27       		.uleb128 0x27
 3550 0115 19       		.uleb128 0x19
 3551 0116 11       		.uleb128 0x11
 3552 0117 01       		.uleb128 0x1
 3553 0118 12       		.uleb128 0x12
 3554 0119 06       		.uleb128 0x6
 3555 011a 40       		.uleb128 0x40
 3556 011b 18       		.uleb128 0x18
 3557 011c 9742     		.uleb128 0x2117
 3558 011e 19       		.uleb128 0x19
 3559 011f 00       		.byte	0
 3560 0120 00       		.byte	0
 3561 0121 13       		.uleb128 0x13
 3562 0122 2E       		.uleb128 0x2e
 3563 0123 01       		.byte	0x1
 3564 0124 3F       		.uleb128 0x3f
 3565 0125 19       		.uleb128 0x19
 3566 0126 03       		.uleb128 0x3
 3567 0127 0E       		.uleb128 0xe
 3568 0128 3A       		.uleb128 0x3a
 3569 0129 0B       		.uleb128 0xb
 3570 012a 3B       		.uleb128 0x3b
 3571 012b 05       		.uleb128 0x5
 3572 012c 27       		.uleb128 0x27
 3573 012d 19       		.uleb128 0x19
 3574 012e 11       		.uleb128 0x11
 3575 012f 01       		.uleb128 0x1
 3576 0130 12       		.uleb128 0x12
 3577 0131 06       		.uleb128 0x6
 3578 0132 40       		.uleb128 0x40
 3579 0133 18       		.uleb128 0x18
 3580 0134 9742     		.uleb128 0x2117
 3581 0136 19       		.uleb128 0x19
 3582 0137 01       		.uleb128 0x1
 3583 0138 13       		.uleb128 0x13
 3584 0139 00       		.byte	0
 3585 013a 00       		.byte	0
 3586 013b 14       		.uleb128 0x14
 3587 013c 2E       		.uleb128 0x2e
ARM GAS  C:\Users\ADMINI~1\AppData\Local\Temp\ccaBZmtr.s 			page 106


 3588 013d 00       		.byte	0
 3589 013e 3F       		.uleb128 0x3f
 3590 013f 19       		.uleb128 0x19
 3591 0140 03       		.uleb128 0x3
 3592 0141 0E       		.uleb128 0xe
 3593 0142 3A       		.uleb128 0x3a
 3594 0143 0B       		.uleb128 0xb
 3595 0144 3B       		.uleb128 0x3b
 3596 0145 05       		.uleb128 0x5
 3597 0146 27       		.uleb128 0x27
 3598 0147 19       		.uleb128 0x19
 3599 0148 11       		.uleb128 0x11
 3600 0149 01       		.uleb128 0x1
 3601 014a 12       		.uleb128 0x12
 3602 014b 06       		.uleb128 0x6
 3603 014c 40       		.uleb128 0x40
 3604 014d 18       		.uleb128 0x18
 3605 014e 9642     		.uleb128 0x2116
 3606 0150 19       		.uleb128 0x19
 3607 0151 00       		.byte	0
 3608 0152 00       		.byte	0
 3609 0153 15       		.uleb128 0x15
 3610 0154 05       		.uleb128 0x5
 3611 0155 00       		.byte	0
 3612 0156 03       		.uleb128 0x3
 3613 0157 08       		.uleb128 0x8
 3614 0158 3A       		.uleb128 0x3a
 3615 0159 0B       		.uleb128 0xb
 3616 015a 3B       		.uleb128 0x3b
 3617 015b 05       		.uleb128 0x5
 3618 015c 49       		.uleb128 0x49
 3619 015d 13       		.uleb128 0x13
 3620 015e 02       		.uleb128 0x2
 3621 015f 18       		.uleb128 0x18
 3622 0160 00       		.byte	0
 3623 0161 00       		.byte	0
 3624 0162 16       		.uleb128 0x16
 3625 0163 2E       		.uleb128 0x2e
 3626 0164 01       		.byte	0x1
 3627 0165 3F       		.uleb128 0x3f
 3628 0166 19       		.uleb128 0x19
 3629 0167 03       		.uleb128 0x3
 3630 0168 0E       		.uleb128 0xe
 3631 0169 3A       		.uleb128 0x3a
 3632 016a 0B       		.uleb128 0xb
 3633 016b 3B       		.uleb128 0x3b
 3634 016c 05       		.uleb128 0x5
 3635 016d 27       		.uleb128 0x27
 3636 016e 19       		.uleb128 0x19
 3637 016f 49       		.uleb128 0x49
 3638 0170 13       		.uleb128 0x13
 3639 0171 11       		.uleb128 0x11
 3640 0172 01       		.uleb128 0x1
 3641 0173 12       		.uleb128 0x12
 3642 0174 06       		.uleb128 0x6
 3643 0175 40       		.uleb128 0x40
 3644 0176 18       		.uleb128 0x18
ARM GAS  C:\Users\ADMINI~1\AppData\Local\Temp\ccaBZmtr.s 			page 107


 3645 0177 9742     		.uleb128 0x2117
 3646 0179 19       		.uleb128 0x19
 3647 017a 01       		.uleb128 0x1
 3648 017b 13       		.uleb128 0x13
 3649 017c 00       		.byte	0
 3650 017d 00       		.byte	0
 3651 017e 17       		.uleb128 0x17
 3652 017f 2E       		.uleb128 0x2e
 3653 0180 00       		.byte	0
 3654 0181 03       		.uleb128 0x3
 3655 0182 0E       		.uleb128 0xe
 3656 0183 3A       		.uleb128 0x3a
 3657 0184 0B       		.uleb128 0xb
 3658 0185 3B       		.uleb128 0x3b
 3659 0186 05       		.uleb128 0x5
 3660 0187 27       		.uleb128 0x27
 3661 0188 19       		.uleb128 0x19
 3662 0189 11       		.uleb128 0x11
 3663 018a 01       		.uleb128 0x1
 3664 018b 12       		.uleb128 0x12
 3665 018c 06       		.uleb128 0x6
 3666 018d 40       		.uleb128 0x40
 3667 018e 18       		.uleb128 0x18
 3668 018f 9642     		.uleb128 0x2116
 3669 0191 19       		.uleb128 0x19
 3670 0192 00       		.byte	0
 3671 0193 00       		.byte	0
 3672 0194 18       		.uleb128 0x18
 3673 0195 2E       		.uleb128 0x2e
 3674 0196 01       		.byte	0x1
 3675 0197 03       		.uleb128 0x3
 3676 0198 0E       		.uleb128 0xe
 3677 0199 3A       		.uleb128 0x3a
 3678 019a 0B       		.uleb128 0xb
 3679 019b 3B       		.uleb128 0x3b
 3680 019c 05       		.uleb128 0x5
 3681 019d 27       		.uleb128 0x27
 3682 019e 19       		.uleb128 0x19
 3683 019f 11       		.uleb128 0x11
 3684 01a0 01       		.uleb128 0x1
 3685 01a1 12       		.uleb128 0x12
 3686 01a2 06       		.uleb128 0x6
 3687 01a3 40       		.uleb128 0x40
 3688 01a4 18       		.uleb128 0x18
 3689 01a5 9642     		.uleb128 0x2116
 3690 01a7 19       		.uleb128 0x19
 3691 01a8 01       		.uleb128 0x1
 3692 01a9 13       		.uleb128 0x13
 3693 01aa 00       		.byte	0
 3694 01ab 00       		.byte	0
 3695 01ac 19       		.uleb128 0x19
 3696 01ad 2E       		.uleb128 0x2e
 3697 01ae 01       		.byte	0x1
 3698 01af 03       		.uleb128 0x3
 3699 01b0 0E       		.uleb128 0xe
 3700 01b1 3A       		.uleb128 0x3a
 3701 01b2 0B       		.uleb128 0xb
ARM GAS  C:\Users\ADMINI~1\AppData\Local\Temp\ccaBZmtr.s 			page 108


 3702 01b3 3B       		.uleb128 0x3b
 3703 01b4 05       		.uleb128 0x5
 3704 01b5 27       		.uleb128 0x27
 3705 01b6 19       		.uleb128 0x19
 3706 01b7 49       		.uleb128 0x49
 3707 01b8 13       		.uleb128 0x13
 3708 01b9 11       		.uleb128 0x11
 3709 01ba 01       		.uleb128 0x1
 3710 01bb 12       		.uleb128 0x12
 3711 01bc 06       		.uleb128 0x6
 3712 01bd 40       		.uleb128 0x40
 3713 01be 18       		.uleb128 0x18
 3714 01bf 9742     		.uleb128 0x2117
 3715 01c1 19       		.uleb128 0x19
 3716 01c2 01       		.uleb128 0x1
 3717 01c3 13       		.uleb128 0x13
 3718 01c4 00       		.byte	0
 3719 01c5 00       		.byte	0
 3720 01c6 1A       		.uleb128 0x1a
 3721 01c7 01       		.uleb128 0x1
 3722 01c8 01       		.byte	0x1
 3723 01c9 49       		.uleb128 0x49
 3724 01ca 13       		.uleb128 0x13
 3725 01cb 01       		.uleb128 0x1
 3726 01cc 13       		.uleb128 0x13
 3727 01cd 00       		.byte	0
 3728 01ce 00       		.byte	0
 3729 01cf 1B       		.uleb128 0x1b
 3730 01d0 21       		.uleb128 0x21
 3731 01d1 00       		.byte	0
 3732 01d2 49       		.uleb128 0x49
 3733 01d3 13       		.uleb128 0x13
 3734 01d4 2F       		.uleb128 0x2f
 3735 01d5 0B       		.uleb128 0xb
 3736 01d6 00       		.byte	0
 3737 01d7 00       		.byte	0
 3738 01d8 1C       		.uleb128 0x1c
 3739 01d9 34       		.uleb128 0x34
 3740 01da 00       		.byte	0
 3741 01db 03       		.uleb128 0x3
 3742 01dc 0E       		.uleb128 0xe
 3743 01dd 3A       		.uleb128 0x3a
 3744 01de 0B       		.uleb128 0xb
 3745 01df 3B       		.uleb128 0x3b
 3746 01e0 0B       		.uleb128 0xb
 3747 01e1 49       		.uleb128 0x49
 3748 01e2 13       		.uleb128 0x13
 3749 01e3 02       		.uleb128 0x2
 3750 01e4 18       		.uleb128 0x18
 3751 01e5 00       		.byte	0
 3752 01e6 00       		.byte	0
 3753 01e7 1D       		.uleb128 0x1d
 3754 01e8 34       		.uleb128 0x34
 3755 01e9 00       		.byte	0
 3756 01ea 03       		.uleb128 0x3
 3757 01eb 0E       		.uleb128 0xe
 3758 01ec 3A       		.uleb128 0x3a
ARM GAS  C:\Users\ADMINI~1\AppData\Local\Temp\ccaBZmtr.s 			page 109


 3759 01ed 0B       		.uleb128 0xb
 3760 01ee 3B       		.uleb128 0x3b
 3761 01ef 0B       		.uleb128 0xb
 3762 01f0 49       		.uleb128 0x49
 3763 01f1 13       		.uleb128 0x13
 3764 01f2 3F       		.uleb128 0x3f
 3765 01f3 19       		.uleb128 0x19
 3766 01f4 02       		.uleb128 0x2
 3767 01f5 18       		.uleb128 0x18
 3768 01f6 00       		.byte	0
 3769 01f7 00       		.byte	0
 3770 01f8 1E       		.uleb128 0x1e
 3771 01f9 34       		.uleb128 0x34
 3772 01fa 00       		.byte	0
 3773 01fb 03       		.uleb128 0x3
 3774 01fc 0E       		.uleb128 0xe
 3775 01fd 3A       		.uleb128 0x3a
 3776 01fe 0B       		.uleb128 0xb
 3777 01ff 3B       		.uleb128 0x3b
 3778 0200 05       		.uleb128 0x5
 3779 0201 49       		.uleb128 0x49
 3780 0202 13       		.uleb128 0x13
 3781 0203 3F       		.uleb128 0x3f
 3782 0204 19       		.uleb128 0x19
 3783 0205 02       		.uleb128 0x2
 3784 0206 18       		.uleb128 0x18
 3785 0207 00       		.byte	0
 3786 0208 00       		.byte	0
 3787 0209 00       		.byte	0
 3788              		.section	.debug_aranges,"",%progbits
 3789 0000 FC000000 		.4byte	0xfc
 3790 0004 0200     		.2byte	0x2
 3791 0006 00000000 		.4byte	.Ldebug_info0
 3792 000a 04       		.byte	0x4
 3793 000b 00       		.byte	0
 3794 000c 0000     		.2byte	0
 3795 000e 0000     		.2byte	0
 3796 0010 00000000 		.4byte	.LFB0
 3797 0014 16000000 		.4byte	.LFE0-.LFB0
 3798 0018 00000000 		.4byte	.LFB1
 3799 001c 06000000 		.4byte	.LFE1-.LFB1
 3800 0020 00000000 		.4byte	.LFB2
 3801 0024 38000000 		.4byte	.LFE2-.LFB2
 3802 0028 00000000 		.4byte	.LFB3
 3803 002c 5C000000 		.4byte	.LFE3-.LFB3
 3804 0030 00000000 		.4byte	.LFB4
 3805 0034 78000000 		.4byte	.LFE4-.LFB4
 3806 0038 00000000 		.4byte	.LFB5
 3807 003c 18000000 		.4byte	.LFE5-.LFB5
 3808 0040 00000000 		.4byte	.LFB6
 3809 0044 0A000000 		.4byte	.LFE6-.LFB6
 3810 0048 00000000 		.4byte	.LFB7
 3811 004c 38000000 		.4byte	.LFE7-.LFB7
 3812 0050 00000000 		.4byte	.LFB8
 3813 0054 1C000000 		.4byte	.LFE8-.LFB8
 3814 0058 00000000 		.4byte	.LFB9
 3815 005c 38000000 		.4byte	.LFE9-.LFB9
ARM GAS  C:\Users\ADMINI~1\AppData\Local\Temp\ccaBZmtr.s 			page 110


 3816 0060 00000000 		.4byte	.LFB10
 3817 0064 3C000000 		.4byte	.LFE10-.LFB10
 3818 0068 00000000 		.4byte	.LFB11
 3819 006c 3C000000 		.4byte	.LFE11-.LFB11
 3820 0070 00000000 		.4byte	.LFB12
 3821 0074 40000000 		.4byte	.LFE12-.LFB12
 3822 0078 00000000 		.4byte	.LFB13
 3823 007c 6C000000 		.4byte	.LFE13-.LFB13
 3824 0080 00000000 		.4byte	.LFB14
 3825 0084 1E000000 		.4byte	.LFE14-.LFB14
 3826 0088 00000000 		.4byte	.LFB15
 3827 008c 2C000000 		.4byte	.LFE15-.LFB15
 3828 0090 00000000 		.4byte	.LFB16
 3829 0094 4C000000 		.4byte	.LFE16-.LFB16
 3830 0098 00000000 		.4byte	.LFB17
 3831 009c 80000000 		.4byte	.LFE17-.LFB17
 3832 00a0 00000000 		.4byte	.LFB18
 3833 00a4 68010000 		.4byte	.LFE18-.LFB18
 3834 00a8 00000000 		.4byte	.LFB19
 3835 00ac 3A000000 		.4byte	.LFE19-.LFB19
 3836 00b0 00000000 		.4byte	.LFB20
 3837 00b4 4E000000 		.4byte	.LFE20-.LFB20
 3838 00b8 00000000 		.4byte	.LFB21
 3839 00bc 4E000000 		.4byte	.LFE21-.LFB21
 3840 00c0 00000000 		.4byte	.LFB22
 3841 00c4 3A000000 		.4byte	.LFE22-.LFB22
 3842 00c8 00000000 		.4byte	.LFB23
 3843 00cc 50000000 		.4byte	.LFE23-.LFB23
 3844 00d0 00000000 		.4byte	.LFB24
 3845 00d4 78000000 		.4byte	.LFE24-.LFB24
 3846 00d8 00000000 		.4byte	.LFB25
 3847 00dc 0E000000 		.4byte	.LFE25-.LFB25
 3848 00e0 00000000 		.4byte	.LFB26
 3849 00e4 18000000 		.4byte	.LFE26-.LFB26
 3850 00e8 00000000 		.4byte	.LFB27
 3851 00ec B8000000 		.4byte	.LFE27-.LFB27
 3852 00f0 00000000 		.4byte	.LFB28
 3853 00f4 34000000 		.4byte	.LFE28-.LFB28
 3854 00f8 00000000 		.4byte	0
 3855 00fc 00000000 		.4byte	0
 3856              		.section	.debug_ranges,"",%progbits
 3857              	.Ldebug_ranges0:
 3858 0000 00000000 		.4byte	.LFB0
 3859 0004 16000000 		.4byte	.LFE0
 3860 0008 00000000 		.4byte	.LFB1
 3861 000c 06000000 		.4byte	.LFE1
 3862 0010 00000000 		.4byte	.LFB2
 3863 0014 38000000 		.4byte	.LFE2
 3864 0018 00000000 		.4byte	.LFB3
 3865 001c 5C000000 		.4byte	.LFE3
 3866 0020 00000000 		.4byte	.LFB4
 3867 0024 78000000 		.4byte	.LFE4
 3868 0028 00000000 		.4byte	.LFB5
 3869 002c 18000000 		.4byte	.LFE5
 3870 0030 00000000 		.4byte	.LFB6
 3871 0034 0A000000 		.4byte	.LFE6
 3872 0038 00000000 		.4byte	.LFB7
ARM GAS  C:\Users\ADMINI~1\AppData\Local\Temp\ccaBZmtr.s 			page 111


 3873 003c 38000000 		.4byte	.LFE7
 3874 0040 00000000 		.4byte	.LFB8
 3875 0044 1C000000 		.4byte	.LFE8
 3876 0048 00000000 		.4byte	.LFB9
 3877 004c 38000000 		.4byte	.LFE9
 3878 0050 00000000 		.4byte	.LFB10
 3879 0054 3C000000 		.4byte	.LFE10
 3880 0058 00000000 		.4byte	.LFB11
 3881 005c 3C000000 		.4byte	.LFE11
 3882 0060 00000000 		.4byte	.LFB12
 3883 0064 40000000 		.4byte	.LFE12
 3884 0068 00000000 		.4byte	.LFB13
 3885 006c 6C000000 		.4byte	.LFE13
 3886 0070 00000000 		.4byte	.LFB14
 3887 0074 1E000000 		.4byte	.LFE14
 3888 0078 00000000 		.4byte	.LFB15
 3889 007c 2C000000 		.4byte	.LFE15
 3890 0080 00000000 		.4byte	.LFB16
 3891 0084 4C000000 		.4byte	.LFE16
 3892 0088 00000000 		.4byte	.LFB17
 3893 008c 80000000 		.4byte	.LFE17
 3894 0090 00000000 		.4byte	.LFB18
 3895 0094 68010000 		.4byte	.LFE18
 3896 0098 00000000 		.4byte	.LFB19
 3897 009c 3A000000 		.4byte	.LFE19
 3898 00a0 00000000 		.4byte	.LFB20
 3899 00a4 4E000000 		.4byte	.LFE20
 3900 00a8 00000000 		.4byte	.LFB21
 3901 00ac 4E000000 		.4byte	.LFE21
 3902 00b0 00000000 		.4byte	.LFB22
 3903 00b4 3A000000 		.4byte	.LFE22
 3904 00b8 00000000 		.4byte	.LFB23
 3905 00bc 50000000 		.4byte	.LFE23
 3906 00c0 00000000 		.4byte	.LFB24
 3907 00c4 78000000 		.4byte	.LFE24
 3908 00c8 00000000 		.4byte	.LFB25
 3909 00cc 0E000000 		.4byte	.LFE25
 3910 00d0 00000000 		.4byte	.LFB26
 3911 00d4 18000000 		.4byte	.LFE26
 3912 00d8 00000000 		.4byte	.LFB27
 3913 00dc B8000000 		.4byte	.LFE27
 3914 00e0 00000000 		.4byte	.LFB28
 3915 00e4 34000000 		.4byte	.LFE28
 3916 00e8 00000000 		.4byte	0
 3917 00ec 00000000 		.4byte	0
 3918              		.section	.debug_line,"",%progbits
 3919              	.Ldebug_line0:
 3920 0000 A7030000 		.section	.debug_str,"MS",%progbits,1
 3920      02008E00 
 3920      00000201 
 3920      FB0E0D00 
 3920      01010101 
 3921              	.LASF65:
 3922 0000 72657375 		.ascii	"result\000"
 3922      6C7400
 3923              	.LASF76:
 3924 0007 4350555F 		.ascii	"CPU_IntDisMeasStop_cnts\000"
ARM GAS  C:\Users\ADMINI~1\AppData\Local\Temp\ccaBZmtr.s 			page 112


 3924      496E7444 
 3924      69734D65 
 3924      61735374 
 3924      6F705F63 
 3925              	.LASF26:
 3926 001f 4350555F 		.ascii	"CPU_TS_TMR_FREQ\000"
 3926      54535F54 
 3926      4D525F46 
 3926      52455100 
 3927              	.LASF50:
 3928 002f 4350555F 		.ascii	"CPU_CntLeadZeros08\000"
 3928      436E744C 
 3928      6561645A 
 3928      65726F73 
 3928      303800
 3929              	.LASF74:
 3930 0042 4350555F 		.ascii	"CPU_IntDisNestCtr\000"
 3930      496E7444 
 3930      69734E65 
 3930      73744374 
 3930      7200
 3931              	.LASF22:
 3932 0054 4350555F 		.ascii	"CPU_ERR_TS_FREQ_INVALID\000"
 3932      4552525F 
 3932      54535F46 
 3932      5245515F 
 3932      494E5641 
 3933              	.LASF28:
 3934 006c 4350555F 		.ascii	"CPU_SW_Exception\000"
 3934      53575F45 
 3934      78636570 
 3934      74696F6E 
 3934      00
 3935              	.LASF7:
 3936 007d 73686F72 		.ascii	"short int\000"
 3936      7420696E 
 3936      7400
 3937              	.LASF47:
 3938 0087 74696D65 		.ascii	"time_ints_disd_cnts\000"
 3938      5F696E74 
 3938      735F6469 
 3938      73645F63 
 3938      6E747300 
 3939              	.LASF69:
 3940 009b 73697A65 		.ascii	"sizetype\000"
 3940      74797065 
 3940      00
 3941              	.LASF23:
 3942 00a4 4350555F 		.ascii	"CPU_ERR\000"
 3942      45525200 
 3943              	.LASF32:
 3944 00ac 705F6572 		.ascii	"p_err\000"
 3944      7200
 3945              	.LASF72:
 3946 00b2 4350555F 		.ascii	"CPU_TS_TmrFreq_Hz\000"
 3946      54535F54 
 3946      6D724672 
ARM GAS  C:\Users\ADMINI~1\AppData\Local\Temp\ccaBZmtr.s 			page 113


 3946      65715F48 
 3946      7A00
 3947              	.LASF56:
 3948 00c4 6E62725F 		.ascii	"nbr_trail_zeros\000"
 3948      74726169 
 3948      6C5F7A65 
 3948      726F7300 
 3949              	.LASF83:
 3950 00d4 443A5C43 		.ascii	"D:\\CYTEST\\Micrium_CY8CKIT-044_OS3\\Examples\\Cypr"
 3950      59544553 
 3950      545C4D69 
 3950      63726975 
 3950      6D5F4359 
 3951 0103 6573735C 		.ascii	"ess\\CY8CKIT-044\\OS3\\PSoC\\OS3.cydsn\000"
 3951      43593843 
 3951      4B49542D 
 3951      3034345C 
 3951      4F53335C 
 3952              	.LASF25:
 3953 0126 4350555F 		.ascii	"CPU_TS_TMR\000"
 3953      54535F54 
 3953      4D5200
 3954              	.LASF62:
 3955 0131 76616C75 		.ascii	"value\000"
 3955      6500
 3956              	.LASF66:
 3957 0137 4350555F 		.ascii	"CPU_NameInit\000"
 3957      4E616D65 
 3957      496E6974 
 3957      00
 3958              	.LASF80:
 3959 0144 4350555F 		.ascii	"CPU_EndiannessTest\000"
 3959      456E6469 
 3959      616E6E65 
 3959      73735465 
 3959      737400
 3960              	.LASF79:
 3961 0157 4350555F 		.ascii	"CPU_IntDisMeasMax_cnts\000"
 3961      496E7444 
 3961      69734D65 
 3961      61734D61 
 3961      785F636E 
 3962              	.LASF49:
 3963 016e 6E62725F 		.ascii	"nbr_lead_zeros\000"
 3963      6C656164 
 3963      5F7A6572 
 3963      6F7300
 3964              	.LASF39:
 3965 017d 4350555F 		.ascii	"CPU_TS_TmrFreqSet\000"
 3965      54535F54 
 3965      6D724672 
 3965      65715365 
 3965      7400
 3966              	.LASF63:
 3967 018f 6576656E 		.ascii	"even_cnt\000"
 3967      5F636E74 
 3967      00
ARM GAS  C:\Users\ADMINI~1\AppData\Local\Temp\ccaBZmtr.s 			page 114


 3968              	.LASF48:
 3969 0198 4350555F 		.ascii	"CPU_CntLeadZeros\000"
 3969      436E744C 
 3969      6561645A 
 3969      65726F73 
 3969      00
 3970              	.LASF15:
 3971 01a9 4350555F 		.ascii	"CPU_ADDR\000"
 3971      41444452 
 3971      00
 3972              	.LASF84:
 3973 01b2 6370755F 		.ascii	"cpu_err\000"
 3973      65727200 
 3974              	.LASF13:
 3975 01ba 666C6F61 		.ascii	"float\000"
 3975      7400
 3976              	.LASF71:
 3977 01c0 4350555F 		.ascii	"CPU_Name\000"
 3977      4E616D65 
 3977      00
 3978              	.LASF12:
 3979 01c9 6C6F6E67 		.ascii	"long long int\000"
 3979      206C6F6E 
 3979      6720696E 
 3979      7400
 3980              	.LASF51:
 3981 01d7 4350555F 		.ascii	"CPU_CntLeadZeros16\000"
 3981      436E744C 
 3981      6561645A 
 3981      65726F73 
 3981      313600
 3982              	.LASF85:
 3983 01ea 4350555F 		.ascii	"CPU_IntDisMeasInit\000"
 3983      496E7444 
 3983      69734D65 
 3983      6173496E 
 3983      697400
 3984              	.LASF67:
 3985 01fd 4350555F 		.ascii	"CPU_TS_Init\000"
 3985      54535F49 
 3985      6E697400 
 3986              	.LASF34:
 3987 0209 4350555F 		.ascii	"CPU_NameSet\000"
 3987      4E616D65 
 3987      53657400 
 3988              	.LASF60:
 3989 0215 4350555F 		.ascii	"CPU_CntTrailZeros64\000"
 3989      436E7454 
 3989      7261696C 
 3989      5A65726F 
 3989      73363400 
 3990              	.LASF81:
 3991 0229 474E5520 		.ascii	"GNU C11 5.4.1 20160609 (release) [ARM/embedded-5-br"
 3991      43313120 
 3991      352E342E 
 3991      31203230 
 3991      31363036 
ARM GAS  C:\Users\ADMINI~1\AppData\Local\Temp\ccaBZmtr.s 			page 115


 3992 025c 616E6368 		.ascii	"anch revision 237715] -mcpu=cortex-m0 -mthumb -g -O"
 3992      20726576 
 3992      6973696F 
 3992      6E203233 
 3992      37373135 
 3993 028f 30202D66 		.ascii	"0 -ffunction-sections -ffat-lto-objects\000"
 3993      66756E63 
 3993      74696F6E 
 3993      2D736563 
 3993      74696F6E 
 3994              	.LASF20:
 3995 02b7 4350555F 		.ascii	"CPU_ERR_NULL_PTR\000"
 3995      4552525F 
 3995      4E554C4C 
 3995      5F505452 
 3995      00
 3996              	.LASF1:
 3997 02c8 756E7369 		.ascii	"unsigned char\000"
 3997      676E6564 
 3997      20636861 
 3997      7200
 3998              	.LASF75:
 3999 02d6 4350555F 		.ascii	"CPU_IntDisMeasStart_cnts\000"
 3999      496E7444 
 3999      69734D65 
 3999      61735374 
 3999      6172745F 
 4000              	.LASF4:
 4001 02ef 7369676E 		.ascii	"signed char\000"
 4001      65642063 
 4001      68617200 
 4002              	.LASF38:
 4003 02fb 66726571 		.ascii	"freq_hz\000"
 4003      5F687A00 
 4004              	.LASF11:
 4005 0303 6C6F6E67 		.ascii	"long long unsigned int\000"
 4005      206C6F6E 
 4005      6720756E 
 4005      7369676E 
 4005      65642069 
 4006              	.LASF19:
 4007 031a 4350555F 		.ascii	"CPU_ERR_NONE\000"
 4007      4552525F 
 4007      4E4F4E45 
 4007      00
 4008              	.LASF2:
 4009 0327 4350555F 		.ascii	"CPU_CHAR\000"
 4009      43484152 
 4009      00
 4010              	.LASF9:
 4011 0330 756E7369 		.ascii	"unsigned int\000"
 4011      676E6564 
 4011      20696E74 
 4011      00
 4012              	.LASF55:
 4013 033d 76616C5F 		.ascii	"val_bit_mask\000"
 4013      6269745F 
ARM GAS  C:\Users\ADMINI~1\AppData\Local\Temp\ccaBZmtr.s 			page 116


 4013      6D61736B 
 4013      00
 4014              	.LASF68:
 4015 034a 74696D65 		.ascii	"time_meas_tot_cnts\000"
 4015      5F6D6561 
 4015      735F746F 
 4015      745F636E 
 4015      747300
 4016              	.LASF41:
 4017 035d 74696D65 		.ascii	"time_max_cnts\000"
 4017      5F6D6178 
 4017      5F636E74 
 4017      7300
 4018              	.LASF42:
 4019 036b 4350555F 		.ascii	"CPU_IntDisMeasMaxCurGet\000"
 4019      496E7444 
 4019      69734D65 
 4019      61734D61 
 4019      78437572 
 4020              	.LASF43:
 4021 0383 74696D65 		.ascii	"time_tot_cnts\000"
 4021      5F746F74 
 4021      5F636E74 
 4021      7300
 4022              	.LASF54:
 4023 0391 4350555F 		.ascii	"CPU_CntTrailZeros\000"
 4023      436E7454 
 4023      7261696C 
 4023      5A65726F 
 4023      7300
 4024              	.LASF35:
 4025 03a3 4350555F 		.ascii	"CPU_TS_Update\000"
 4025      54535F55 
 4025      70646174 
 4025      6500
 4026              	.LASF64:
 4027 03b1 6F64645F 		.ascii	"odd_cnt\000"
 4027      636E7400 
 4028              	.LASF6:
 4029 03b9 73686F72 		.ascii	"short unsigned int\000"
 4029      7420756E 
 4029      7369676E 
 4029      65642069 
 4029      6E7400
 4030              	.LASF59:
 4031 03cc 4350555F 		.ascii	"CPU_CntTrailZeros32\000"
 4031      436E7454 
 4031      7261696C 
 4031      5A65726F 
 4031      73333200 
 4032              	.LASF16:
 4033 03e0 4350555F 		.ascii	"CPU_DATA\000"
 4033      44415441 
 4033      00
 4034              	.LASF3:
 4035 03e9 4350555F 		.ascii	"CPU_INT08U\000"
 4035      494E5430 
ARM GAS  C:\Users\ADMINI~1\AppData\Local\Temp\ccaBZmtr.s 			page 117


 4035      385500
 4036              	.LASF36:
 4037 03f4 4350555F 		.ascii	"CPU_TS_Get32\000"
 4037      54535F47 
 4037      65743332 
 4037      00
 4038              	.LASF0:
 4039 0401 63686172 		.ascii	"char\000"
 4039      00
 4040              	.LASF82:
 4041 0406 2E2E5C2E 		.ascii	"..\\..\\..\\..\\..\\..\\Software\\uC-CPU\\cpu_core."
 4041      2E5C2E2E 
 4041      5C2E2E5C 
 4041      2E2E5C2E 
 4041      2E5C536F 
 4042 0431 6300     		.ascii	"c\000"
 4043              	.LASF31:
 4044 0433 705F6E61 		.ascii	"p_name\000"
 4044      6D6500
 4045              	.LASF53:
 4046 043a 4350555F 		.ascii	"CPU_CntLeadZeros64\000"
 4046      436E744C 
 4046      6561645A 
 4046      65726F73 
 4046      363400
 4047              	.LASF8:
 4048 044d 4350555F 		.ascii	"CPU_INT32U\000"
 4048      494E5433 
 4048      325500
 4049              	.LASF21:
 4050 0458 4350555F 		.ascii	"CPU_ERR_NAME_SIZE\000"
 4050      4552525F 
 4050      4E414D45 
 4050      5F53495A 
 4050      4500
 4051              	.LASF58:
 4052 046a 4350555F 		.ascii	"CPU_CntTrailZeros16\000"
 4052      436E7454 
 4052      7261696C 
 4052      5A65726F 
 4052      73313600 
 4053              	.LASF29:
 4054 047e 4350555F 		.ascii	"CPU_NameClr\000"
 4054      4E616D65 
 4054      436C7200 
 4055              	.LASF61:
 4056 048a 4350555F 		.ascii	"CPU_PopCnt32\000"
 4056      506F7043 
 4056      6E743332 
 4056      00
 4057              	.LASF14:
 4058 0497 646F7562 		.ascii	"double\000"
 4058      6C6500
 4059              	.LASF30:
 4060 049e 4350555F 		.ascii	"CPU_NameGet\000"
 4060      4E616D65 
 4060      47657400 
ARM GAS  C:\Users\ADMINI~1\AppData\Local\Temp\ccaBZmtr.s 			page 118


 4061              	.LASF73:
 4062 04aa 4350555F 		.ascii	"CPU_IntDisMeasCtr\000"
 4062      496E7444 
 4062      69734D65 
 4062      61734374 
 4062      7200
 4063              	.LASF40:
 4064 04bc 4350555F 		.ascii	"CPU_IntDisMeasMaxCurReset\000"
 4064      496E7444 
 4064      69734D65 
 4064      61734D61 
 4064      78437572 
 4065              	.LASF24:
 4066 04d6 4350555F 		.ascii	"CPU_TS32\000"
 4066      54533332 
 4066      00
 4067              	.LASF17:
 4068 04df 4350555F 		.ascii	"CPU_SIZE_T\000"
 4068      53495A45 
 4068      5F5400
 4069              	.LASF57:
 4070 04ea 4350555F 		.ascii	"CPU_CntTrailZeros08\000"
 4070      436E7454 
 4070      7261696C 
 4070      5A65726F 
 4070      73303800 
 4071              	.LASF86:
 4072 04fe 4350555F 		.ascii	"CPU_IntDisMeasMaxCalc\000"
 4072      496E7444 
 4072      69734D65 
 4072      61734D61 
 4072      7843616C 
 4073              	.LASF46:
 4074 0514 4350555F 		.ascii	"CPU_IntDisMeasStop\000"
 4074      496E7444 
 4074      69734D65 
 4074      61735374 
 4074      6F7000
 4075              	.LASF27:
 4076 0527 4350555F 		.ascii	"CPU_Init\000"
 4076      496E6974 
 4076      00
 4077              	.LASF52:
 4078 0530 4350555F 		.ascii	"CPU_CntLeadZeros32\000"
 4078      436E744C 
 4078      6561645A 
 4078      65726F73 
 4078      333200
 4079              	.LASF10:
 4080 0543 4350555F 		.ascii	"CPU_INT64U\000"
 4080      494E5436 
 4080      345500
 4081              	.LASF33:
 4082 054e 6370755F 		.ascii	"cpu_sr\000"
 4082      737200
 4083              	.LASF45:
 4084 0555 4350555F 		.ascii	"CPU_IntDisMeasStart\000"
ARM GAS  C:\Users\ADMINI~1\AppData\Local\Temp\ccaBZmtr.s 			page 119


 4084      496E7444 
 4084      69734D65 
 4084      61735374 
 4084      61727400 
 4085              	.LASF78:
 4086 0569 4350555F 		.ascii	"CPU_IntDisMeasMaxCur_cnts\000"
 4086      496E7444 
 4086      69734D65 
 4086      61734D61 
 4086      78437572 
 4087              	.LASF18:
 4088 0583 4350555F 		.ascii	"CPU_SR\000"
 4088      535200
 4089              	.LASF70:
 4090 058a 4350555F 		.ascii	"CPU_CntLeadZerosTbl\000"
 4090      436E744C 
 4090      6561645A 
 4090      65726F73 
 4090      54626C00 
 4091              	.LASF77:
 4092 059e 4350555F 		.ascii	"CPU_IntDisMeasOvrhd_cnts\000"
 4092      496E7444 
 4092      69734D65 
 4092      61734F76 
 4092      7268645F 
 4093              	.LASF44:
 4094 05b7 4350555F 		.ascii	"CPU_IntDisMeasMaxGet\000"
 4094      496E7444 
 4094      69734D65 
 4094      61734D61 
 4094      78476574 
 4095              	.LASF5:
 4096 05cc 4350555F 		.ascii	"CPU_INT16U\000"
 4096      494E5431 
 4096      365500
 4097              	.LASF37:
 4098 05d7 4350555F 		.ascii	"CPU_TS_TmrFreqGet\000"
 4098      54535F54 
 4098      6D724672 
 4098      65714765 
 4098      7400
 4099              		.ident	"GCC: (GNU Tools for ARM Embedded Processors) 5.4.1 20160609 (release) [ARM/embedded-5-bran
