ARM GAS  C:\Users\ADMINI~1\AppData\Local\Temp\cc3Lpy50.s 			page 1


   1              		.syntax unified
   2              		.cpu cortex-m0
   3              		.fpu softvfp
   4              		.eabi_attribute 20, 1
   5              		.eabi_attribute 21, 1
   6              		.eabi_attribute 23, 3
   7              		.eabi_attribute 24, 1
   8              		.eabi_attribute 25, 1
   9              		.eabi_attribute 26, 1
  10              		.eabi_attribute 30, 6
  11              		.eabi_attribute 34, 0
  12              		.eabi_attribute 18, 4
  13              		.thumb
  14              		.syntax unified
  15              		.file	"cpu_bsp.c"
  16              		.text
  17              	.Ltext0:
  18              		.cfi_sections	.debug_frame
  19              		.section	.text.CPU_TS_TmrInit,"ax",%progbits
  20              		.align	2
  21              		.global	CPU_TS_TmrInit
  22              		.code	16
  23              		.thumb_func
  24              		.type	CPU_TS_TmrInit, %function
  25              	CPU_TS_TmrInit:
  26              	.LFB34:
  27              		.file 1 "..\\..\\..\\BSP\\cpu_bsp.c"
   1:..\..\..\BSP/cpu_bsp.c **** /*
   2:..\..\..\BSP/cpu_bsp.c **** ***************************************************************************************************
   3:..\..\..\BSP/cpu_bsp.c **** *                                                uC/CPU
   4:..\..\..\BSP/cpu_bsp.c **** *                                    CPU CONFIGURATION & PORT LAYER
   5:..\..\..\BSP/cpu_bsp.c **** *
   6:..\..\..\BSP/cpu_bsp.c **** *                          (c) Copyright 2004-2015; Micrium, Inc.; Weston, FL
   7:..\..\..\BSP/cpu_bsp.c **** *
   8:..\..\..\BSP/cpu_bsp.c **** *               All rights reserved.  Protected by international copyright laws.
   9:..\..\..\BSP/cpu_bsp.c **** *
  10:..\..\..\BSP/cpu_bsp.c **** *               uC/CPU is provided in source form to registered licensees ONLY.  It is 
  11:..\..\..\BSP/cpu_bsp.c **** *               illegal to distribute this source code to any third party unless you receive 
  12:..\..\..\BSP/cpu_bsp.c **** *               written permission by an authorized Micrium representative.  Knowledge of 
  13:..\..\..\BSP/cpu_bsp.c **** *               the source code may NOT be used to develop a similar product.
  14:..\..\..\BSP/cpu_bsp.c **** *
  15:..\..\..\BSP/cpu_bsp.c **** *               Please help us continue to provide the Embedded community with the finest 
  16:..\..\..\BSP/cpu_bsp.c **** *               software available.  Your honesty is greatly appreciated.
  17:..\..\..\BSP/cpu_bsp.c **** *
  18:..\..\..\BSP/cpu_bsp.c **** *               You can contact us at www.micrium.com.
  19:..\..\..\BSP/cpu_bsp.c **** ***************************************************************************************************
  20:..\..\..\BSP/cpu_bsp.c **** */
  21:..\..\..\BSP/cpu_bsp.c **** 
  22:..\..\..\BSP/cpu_bsp.c **** /*
  23:..\..\..\BSP/cpu_bsp.c **** ***************************************************************************************************
  24:..\..\..\BSP/cpu_bsp.c **** *                               CPU BOARD SUPPORT PACKAGE (BSP) FUNCTIONS
  25:..\..\..\BSP/cpu_bsp.c **** *
  26:..\..\..\BSP/cpu_bsp.c **** *                                           CYPRESS PSoC4
  27:..\..\..\BSP/cpu_bsp.c **** *                                              with the
  28:..\..\..\BSP/cpu_bsp.c **** *                                     CY8CKIT-044 Development Kit
  29:..\..\..\BSP/cpu_bsp.c **** *
  30:..\..\..\BSP/cpu_bsp.c **** * Filename      : cpu_bsp.c
ARM GAS  C:\Users\ADMINI~1\AppData\Local\Temp\cc3Lpy50.s 			page 2


  31:..\..\..\BSP/cpu_bsp.c **** * Version       : V1.25
  32:..\..\..\BSP/cpu_bsp.c **** * Programmer(s) : ITJ
  33:..\..\..\BSP/cpu_bsp.c **** *                 DC
  34:..\..\..\BSP/cpu_bsp.c **** ***************************************************************************************************
  35:..\..\..\BSP/cpu_bsp.c **** */
  36:..\..\..\BSP/cpu_bsp.c **** 
  37:..\..\..\BSP/cpu_bsp.c **** 
  38:..\..\..\BSP/cpu_bsp.c **** /*
  39:..\..\..\BSP/cpu_bsp.c **** ***************************************************************************************************
  40:..\..\..\BSP/cpu_bsp.c **** *                                            INCLUDE FILES
  41:..\..\..\BSP/cpu_bsp.c **** ***************************************************************************************************
  42:..\..\..\BSP/cpu_bsp.c **** */
  43:..\..\..\BSP/cpu_bsp.c **** 
  44:..\..\..\BSP/cpu_bsp.c **** #define    CPU_BSP_MODULE
  45:..\..\..\BSP/cpu_bsp.c **** #include  <cpu_core.h>
  46:..\..\..\BSP/cpu_bsp.c **** #include  "bsp.h"
  47:..\..\..\BSP/cpu_bsp.c **** 
  48:..\..\..\BSP/cpu_bsp.c **** 
  49:..\..\..\BSP/cpu_bsp.c **** /*
  50:..\..\..\BSP/cpu_bsp.c **** ***************************************************************************************************
  51:..\..\..\BSP/cpu_bsp.c **** *                                            LOCAL DEFINES
  52:..\..\..\BSP/cpu_bsp.c **** ***************************************************************************************************
  53:..\..\..\BSP/cpu_bsp.c **** */
  54:..\..\..\BSP/cpu_bsp.c **** 
  55:..\..\..\BSP/cpu_bsp.c **** #define  CPU_BSP_REG_DEMCR             (*(CPU_REG32 *)0xE000EDFCu)
  56:..\..\..\BSP/cpu_bsp.c **** #define  CPU_BSP_REG_DWT_CR            (*(CPU_REG32 *)0xE0001000u)
  57:..\..\..\BSP/cpu_bsp.c **** #define  CPU_BSP_REG_DWT_CYCCNT        (*(CPU_REG32 *)0xE0001004u)
  58:..\..\..\BSP/cpu_bsp.c **** 
  59:..\..\..\BSP/cpu_bsp.c **** 
  60:..\..\..\BSP/cpu_bsp.c **** /*
  61:..\..\..\BSP/cpu_bsp.c **** ***************************************************************************************************
  62:..\..\..\BSP/cpu_bsp.c **** *                                           LOCAL CONSTANTS
  63:..\..\..\BSP/cpu_bsp.c **** ***************************************************************************************************
  64:..\..\..\BSP/cpu_bsp.c **** */
  65:..\..\..\BSP/cpu_bsp.c **** 
  66:..\..\..\BSP/cpu_bsp.c **** 
  67:..\..\..\BSP/cpu_bsp.c **** /*
  68:..\..\..\BSP/cpu_bsp.c **** ***************************************************************************************************
  69:..\..\..\BSP/cpu_bsp.c **** *                                          LOCAL DATA TYPES
  70:..\..\..\BSP/cpu_bsp.c **** ***************************************************************************************************
  71:..\..\..\BSP/cpu_bsp.c **** */
  72:..\..\..\BSP/cpu_bsp.c **** 
  73:..\..\..\BSP/cpu_bsp.c **** 
  74:..\..\..\BSP/cpu_bsp.c **** /*
  75:..\..\..\BSP/cpu_bsp.c **** ***************************************************************************************************
  76:..\..\..\BSP/cpu_bsp.c **** *                                            LOCAL TABLES
  77:..\..\..\BSP/cpu_bsp.c **** ***************************************************************************************************
  78:..\..\..\BSP/cpu_bsp.c **** */
  79:..\..\..\BSP/cpu_bsp.c **** 
  80:..\..\..\BSP/cpu_bsp.c **** 
  81:..\..\..\BSP/cpu_bsp.c **** /*
  82:..\..\..\BSP/cpu_bsp.c **** ***************************************************************************************************
  83:..\..\..\BSP/cpu_bsp.c **** *                                       LOCAL GLOBAL VARIABLES
  84:..\..\..\BSP/cpu_bsp.c **** ***************************************************************************************************
  85:..\..\..\BSP/cpu_bsp.c **** */
  86:..\..\..\BSP/cpu_bsp.c **** 
  87:..\..\..\BSP/cpu_bsp.c **** 
ARM GAS  C:\Users\ADMINI~1\AppData\Local\Temp\cc3Lpy50.s 			page 3


  88:..\..\..\BSP/cpu_bsp.c **** /*
  89:..\..\..\BSP/cpu_bsp.c **** ***************************************************************************************************
  90:..\..\..\BSP/cpu_bsp.c **** *                                      LOCAL FUNCTION PROTOTYPES
  91:..\..\..\BSP/cpu_bsp.c **** ***************************************************************************************************
  92:..\..\..\BSP/cpu_bsp.c **** */
  93:..\..\..\BSP/cpu_bsp.c **** 
  94:..\..\..\BSP/cpu_bsp.c **** 
  95:..\..\..\BSP/cpu_bsp.c **** /*
  96:..\..\..\BSP/cpu_bsp.c **** ***************************************************************************************************
  97:..\..\..\BSP/cpu_bsp.c **** *                                     LOCAL CONFIGURATION ERRORS
  98:..\..\..\BSP/cpu_bsp.c **** ***************************************************************************************************
  99:..\..\..\BSP/cpu_bsp.c **** */
 100:..\..\..\BSP/cpu_bsp.c **** 
 101:..\..\..\BSP/cpu_bsp.c **** 
 102:..\..\..\BSP/cpu_bsp.c **** /*
 103:..\..\..\BSP/cpu_bsp.c **** ***************************************************************************************************
 104:..\..\..\BSP/cpu_bsp.c **** *                                          CPU_TS_TmrInit()
 105:..\..\..\BSP/cpu_bsp.c **** *
 106:..\..\..\BSP/cpu_bsp.c **** * Description : Initialize & start CPU timestamp timer.
 107:..\..\..\BSP/cpu_bsp.c **** *
 108:..\..\..\BSP/cpu_bsp.c **** * Argument(s) : none.
 109:..\..\..\BSP/cpu_bsp.c **** *
 110:..\..\..\BSP/cpu_bsp.c **** * Return(s)   : none.
 111:..\..\..\BSP/cpu_bsp.c **** *
 112:..\..\..\BSP/cpu_bsp.c **** * Caller(s)   : CPU_TS_Init().
 113:..\..\..\BSP/cpu_bsp.c **** *
 114:..\..\..\BSP/cpu_bsp.c **** *               This function is an INTERNAL CPU module function & MUST be implemented by applicati
 115:..\..\..\BSP/cpu_bsp.c **** *               BSP function(s) [see Note #1] but MUST NOT be called by application function(s).
 116:..\..\..\BSP/cpu_bsp.c **** *
 117:..\..\..\BSP/cpu_bsp.c **** * Note(s)     : (1) CPU_TS_TmrInit() is an application/BSP function that MUST be defined by the dev
 118:..\..\..\BSP/cpu_bsp.c **** *                   if either of the following CPU features is enabled :
 119:..\..\..\BSP/cpu_bsp.c **** *
 120:..\..\..\BSP/cpu_bsp.c **** *                   (a) CPU timestamps
 121:..\..\..\BSP/cpu_bsp.c **** *                   (b) CPU interrupts disabled time measurements
 122:..\..\..\BSP/cpu_bsp.c **** *
 123:..\..\..\BSP/cpu_bsp.c **** *                   See 'cpu_cfg.h  CPU TIMESTAMP CONFIGURATION  Note #1'
 124:..\..\..\BSP/cpu_bsp.c **** *                     & 'cpu_cfg.h  CPU INTERRUPTS DISABLED TIME MEASUREMENT CONFIGURATION  Note #1
 125:..\..\..\BSP/cpu_bsp.c **** *
 126:..\..\..\BSP/cpu_bsp.c **** *               (2) (a) Timer count values MUST be returned via word-size-configurable 'CPU_TS_TMR'
 127:..\..\..\BSP/cpu_bsp.c **** *                       data type.
 128:..\..\..\BSP/cpu_bsp.c **** *
 129:..\..\..\BSP/cpu_bsp.c **** *                       (1) If timer has more bits, truncate timer values' higher-order bits greate
 130:..\..\..\BSP/cpu_bsp.c **** *                           than the configured 'CPU_TS_TMR' timestamp timer data type word size.
 131:..\..\..\BSP/cpu_bsp.c **** *
 132:..\..\..\BSP/cpu_bsp.c **** *                       (2) Since the timer MUST NOT have less bits than the configured 'CPU_TS_TMR
 133:..\..\..\BSP/cpu_bsp.c **** *                           timestamp timer data type word size; 'CPU_CFG_TS_TMR_SIZE' MUST be 
 134:..\..\..\BSP/cpu_bsp.c **** *                           configured so that ALL bits in 'CPU_TS_TMR' data type are significant.
 135:..\..\..\BSP/cpu_bsp.c **** *
 136:..\..\..\BSP/cpu_bsp.c **** *                           In other words, if timer size is not a binary-multiple of 8-bit octets 
 137:..\..\..\BSP/cpu_bsp.c **** *                           (e.g. 20-bits or even 24-bits), then the next lower, binary-multiple 
 138:..\..\..\BSP/cpu_bsp.c **** *                           octet word size SHOULD be configured (e.g. to 16-bits).  However, the 
 139:..\..\..\BSP/cpu_bsp.c **** *                           minimum supported word size for CPU timestamp timers is 8-bits.
 140:..\..\..\BSP/cpu_bsp.c **** *
 141:..\..\..\BSP/cpu_bsp.c **** *                       See also 'cpu_cfg.h   CPU TIMESTAMP CONFIGURATION  Note #2'
 142:..\..\..\BSP/cpu_bsp.c **** *                              & 'cpu_core.h  CPU TIMESTAMP DATA TYPES     Note #1'.
 143:..\..\..\BSP/cpu_bsp.c **** *
 144:..\..\..\BSP/cpu_bsp.c **** *                   (b) Timer SHOULD be an 'up'  counter whose values increase with each time count
ARM GAS  C:\Users\ADMINI~1\AppData\Local\Temp\cc3Lpy50.s 			page 4


 145:..\..\..\BSP/cpu_bsp.c **** *
 146:..\..\..\BSP/cpu_bsp.c **** *                   (c) When applicable, timer period SHOULD be less than the typical measured time
 147:..\..\..\BSP/cpu_bsp.c **** *                       but MUST be less than the maximum measured time; otherwise, timer resolutio
 148:..\..\..\BSP/cpu_bsp.c **** *                       inadequate to measure desired times.
 149:..\..\..\BSP/cpu_bsp.c **** *
 150:..\..\..\BSP/cpu_bsp.c **** *                   See also 'CPU_TS_TmrRd()  Note #2'.
 151:..\..\..\BSP/cpu_bsp.c **** ***************************************************************************************************
 152:..\..\..\BSP/cpu_bsp.c **** */
 153:..\..\..\BSP/cpu_bsp.c **** 
 154:..\..\..\BSP/cpu_bsp.c **** #if (CPU_CFG_TS_TMR_EN == DEF_ENABLED)
 155:..\..\..\BSP/cpu_bsp.c **** void  CPU_TS_TmrInit (void)
 156:..\..\..\BSP/cpu_bsp.c **** {
  28              		.loc 1 156 0
  29              		.cfi_startproc
  30              		@ args = 0, pretend = 0, frame = 8
  31              		@ frame_needed = 1, uses_anonymous_args = 0
  32 0000 80B5     		push	{r7, lr}
  33              		.cfi_def_cfa_offset 8
  34              		.cfi_offset 7, -8
  35              		.cfi_offset 14, -4
  36 0002 82B0     		sub	sp, sp, #8
  37              		.cfi_def_cfa_offset 16
  38 0004 00AF     		add	r7, sp, #0
  39              		.cfi_def_cfa_register 7
 157:..\..\..\BSP/cpu_bsp.c ****     CPU_INT32U  fclk_freq;
 158:..\..\..\BSP/cpu_bsp.c ****     
 159:..\..\..\BSP/cpu_bsp.c ****     fclk_freq = BSP_CPU_ClkFreq();
  40              		.loc 1 159 0
  41 0006 FFF7FEFF 		bl	BSP_CPU_ClkFreq
  42 000a 0300     		movs	r3, r0
  43 000c 7B60     		str	r3, [r7, #4]
 160:..\..\..\BSP/cpu_bsp.c ****     
 161:..\..\..\BSP/cpu_bsp.c ****     CPU_BSP_REG_DEMCR  |= DEF_BIT_24;
  44              		.loc 1 161 0
  45 000e 0A4B     		ldr	r3, .L2
  46 0010 094A     		ldr	r2, .L2
  47 0012 1268     		ldr	r2, [r2]
  48 0014 8021     		movs	r1, #128
  49 0016 4904     		lsls	r1, r1, #17
  50 0018 0A43     		orrs	r2, r1
  51 001a 1A60     		str	r2, [r3]
 162:..\..\..\BSP/cpu_bsp.c ****     CPU_BSP_REG_DWT_CR |= DEF_BIT_00;
  52              		.loc 1 162 0
  53 001c 074B     		ldr	r3, .L2+4
  54 001e 074A     		ldr	r2, .L2+4
  55 0020 1268     		ldr	r2, [r2]
  56 0022 0121     		movs	r1, #1
  57 0024 0A43     		orrs	r2, r1
  58 0026 1A60     		str	r2, [r3]
 163:..\..\..\BSP/cpu_bsp.c **** 
 164:..\..\..\BSP/cpu_bsp.c ****     CPU_TS_TmrFreqSet((CPU_TS_TMR_FREQ)fclk_freq);    
  59              		.loc 1 164 0
  60 0028 7B68     		ldr	r3, [r7, #4]
  61 002a 1800     		movs	r0, r3
  62 002c FFF7FEFF 		bl	CPU_TS_TmrFreqSet
 165:..\..\..\BSP/cpu_bsp.c **** }
  63              		.loc 1 165 0
ARM GAS  C:\Users\ADMINI~1\AppData\Local\Temp\cc3Lpy50.s 			page 5


  64 0030 C046     		nop
  65 0032 BD46     		mov	sp, r7
  66 0034 02B0     		add	sp, sp, #8
  67              		@ sp needed
  68 0036 80BD     		pop	{r7, pc}
  69              	.L3:
  70              		.align	2
  71              	.L2:
  72 0038 FCED00E0 		.word	-536809988
  73 003c 001000E0 		.word	-536866816
  74              		.cfi_endproc
  75              	.LFE34:
  76              		.size	CPU_TS_TmrInit, .-CPU_TS_TmrInit
  77              		.section	.text.CPU_TS_TmrRd,"ax",%progbits
  78              		.align	2
  79              		.global	CPU_TS_TmrRd
  80              		.code	16
  81              		.thumb_func
  82              		.type	CPU_TS_TmrRd, %function
  83              	CPU_TS_TmrRd:
  84              	.LFB35:
 166:..\..\..\BSP/cpu_bsp.c **** #endif
 167:..\..\..\BSP/cpu_bsp.c **** 
 168:..\..\..\BSP/cpu_bsp.c **** 
 169:..\..\..\BSP/cpu_bsp.c **** /*
 170:..\..\..\BSP/cpu_bsp.c **** ***************************************************************************************************
 171:..\..\..\BSP/cpu_bsp.c **** *                                           CPU_TS_TmrRd()
 172:..\..\..\BSP/cpu_bsp.c **** *
 173:..\..\..\BSP/cpu_bsp.c **** * Description : Get current CPU timestamp timer count value.
 174:..\..\..\BSP/cpu_bsp.c **** *
 175:..\..\..\BSP/cpu_bsp.c **** * Argument(s) : none.
 176:..\..\..\BSP/cpu_bsp.c **** *
 177:..\..\..\BSP/cpu_bsp.c **** * Return(s)   : Timestamp timer count (see Notes #2a & #2b).
 178:..\..\..\BSP/cpu_bsp.c **** *
 179:..\..\..\BSP/cpu_bsp.c **** * Caller(s)   : CPU_TS_Init(),
 180:..\..\..\BSP/cpu_bsp.c **** *               CPU_TS_Get32(),
 181:..\..\..\BSP/cpu_bsp.c **** *               CPU_TS_Get64(),
 182:..\..\..\BSP/cpu_bsp.c **** *               CPU_IntDisMeasStart(),
 183:..\..\..\BSP/cpu_bsp.c **** *               CPU_IntDisMeasStop().
 184:..\..\..\BSP/cpu_bsp.c **** *
 185:..\..\..\BSP/cpu_bsp.c **** *               This function is an INTERNAL CPU module function & MUST be implemented by applicati
 186:..\..\..\BSP/cpu_bsp.c **** *               BSP function(s) [see Note #1] but SHOULD NOT be called by application function(s).
 187:..\..\..\BSP/cpu_bsp.c **** *
 188:..\..\..\BSP/cpu_bsp.c **** * Note(s)     : (1) CPU_TS_TmrRd() is an application/BSP function that MUST be defined by the devel
 189:..\..\..\BSP/cpu_bsp.c **** *                   if either of the following CPU features is enabled :
 190:..\..\..\BSP/cpu_bsp.c **** *
 191:..\..\..\BSP/cpu_bsp.c **** *                   (a) CPU timestamps
 192:..\..\..\BSP/cpu_bsp.c **** *                   (b) CPU interrupts disabled time measurements
 193:..\..\..\BSP/cpu_bsp.c **** *
 194:..\..\..\BSP/cpu_bsp.c **** *                   See 'cpu_cfg.h  CPU TIMESTAMP CONFIGURATION  Note #1'
 195:..\..\..\BSP/cpu_bsp.c **** *                     & 'cpu_cfg.h  CPU INTERRUPTS DISABLED TIME MEASUREMENT CONFIGURATION  Note #1
 196:..\..\..\BSP/cpu_bsp.c **** *
 197:..\..\..\BSP/cpu_bsp.c **** *               (2) (a) Timer count values MUST be returned via word-size-configurable 'CPU_TS_TMR'
 198:..\..\..\BSP/cpu_bsp.c **** *                       data type.
 199:..\..\..\BSP/cpu_bsp.c **** *
 200:..\..\..\BSP/cpu_bsp.c **** *                       (1) If timer has more bits, truncate timer values' higher-order bits greate
 201:..\..\..\BSP/cpu_bsp.c **** *                           than the configured 'CPU_TS_TMR' timestamp timer data type word size.
ARM GAS  C:\Users\ADMINI~1\AppData\Local\Temp\cc3Lpy50.s 			page 6


 202:..\..\..\BSP/cpu_bsp.c **** *
 203:..\..\..\BSP/cpu_bsp.c **** *                       (2) Since the timer MUST NOT have less bits than the configured 'CPU_TS_TMR
 204:..\..\..\BSP/cpu_bsp.c **** *                           timestamp timer data type word size; 'CPU_CFG_TS_TMR_SIZE' MUST be 
 205:..\..\..\BSP/cpu_bsp.c **** *                           configured so that ALL bits in 'CPU_TS_TMR' data type are significant.
 206:..\..\..\BSP/cpu_bsp.c **** *
 207:..\..\..\BSP/cpu_bsp.c **** *                           In other words, if timer size is not a binary-multiple of 8-bit octets 
 208:..\..\..\BSP/cpu_bsp.c **** *                           (e.g. 20-bits or even 24-bits), then the next lower, binary-multiple 
 209:..\..\..\BSP/cpu_bsp.c **** *                           octet word size SHOULD be configured (e.g. to 16-bits).  However, the 
 210:..\..\..\BSP/cpu_bsp.c **** *                           minimum supported word size for CPU timestamp timers is 8-bits.
 211:..\..\..\BSP/cpu_bsp.c **** *
 212:..\..\..\BSP/cpu_bsp.c **** *                       See also 'cpu_cfg.h   CPU TIMESTAMP CONFIGURATION  Note #2'
 213:..\..\..\BSP/cpu_bsp.c **** *                              & 'cpu_core.h  CPU TIMESTAMP DATA TYPES     Note #1'.
 214:..\..\..\BSP/cpu_bsp.c **** *
 215:..\..\..\BSP/cpu_bsp.c **** *                   (b) Timer SHOULD be an 'up'  counter whose values increase with each time count
 216:..\..\..\BSP/cpu_bsp.c **** *
 217:..\..\..\BSP/cpu_bsp.c **** *                       (1) If timer is a 'down' counter whose values decrease with each time count
 218:..\..\..\BSP/cpu_bsp.c **** *                           then the returned timer value MUST be ones-complemented.
 219:..\..\..\BSP/cpu_bsp.c **** *
 220:..\..\..\BSP/cpu_bsp.c **** *                   (c) (1) When applicable, the amount of time measured by CPU timestamps is 
 221:..\..\..\BSP/cpu_bsp.c **** *                           calculated by either of the following equations :
 222:..\..\..\BSP/cpu_bsp.c **** *
 223:..\..\..\BSP/cpu_bsp.c **** *                           (A) Time measured  =  Number timer counts  *  Timer period
 224:..\..\..\BSP/cpu_bsp.c **** *
 225:..\..\..\BSP/cpu_bsp.c **** *                                   where
 226:..\..\..\BSP/cpu_bsp.c **** *
 227:..\..\..\BSP/cpu_bsp.c **** *                                       Number timer counts     Number of timer counts measured 
 228:..\..\..\BSP/cpu_bsp.c **** *                                       Timer period            Timer's period in some units of 
 229:..\..\..\BSP/cpu_bsp.c **** *                                                                   (fractional) seconds
 230:..\..\..\BSP/cpu_bsp.c **** *                                       Time measured           Amount of time measured, in same 
 231:..\..\..\BSP/cpu_bsp.c **** *                                                                   units of (fractional) seconds 
 232:..\..\..\BSP/cpu_bsp.c **** *                                                                   as the Timer period
 233:..\..\..\BSP/cpu_bsp.c **** *
 234:..\..\..\BSP/cpu_bsp.c **** *                                                  Number timer counts
 235:..\..\..\BSP/cpu_bsp.c **** *                           (B) Time measured  =  ---------------------
 236:..\..\..\BSP/cpu_bsp.c **** *                                                    Timer frequency
 237:..\..\..\BSP/cpu_bsp.c **** *
 238:..\..\..\BSP/cpu_bsp.c **** *                                   where
 239:..\..\..\BSP/cpu_bsp.c **** *
 240:..\..\..\BSP/cpu_bsp.c **** *                                       Number timer counts     Number of timer counts measured
 241:..\..\..\BSP/cpu_bsp.c **** *                                       Timer frequency         Timer's frequency in some units 
 242:..\..\..\BSP/cpu_bsp.c **** *                                                                   of counts per second
 243:..\..\..\BSP/cpu_bsp.c **** *                                       Time measured           Amount of time measured, in seconds
 244:..\..\..\BSP/cpu_bsp.c **** *
 245:..\..\..\BSP/cpu_bsp.c **** *                       (2) Timer period SHOULD be less than the typical measured time but MUST be 
 246:..\..\..\BSP/cpu_bsp.c **** *                           than the maximum measured time; otherwise, timer resolution inadequate 
 247:..\..\..\BSP/cpu_bsp.c **** *                           measure desired times.
 248:..\..\..\BSP/cpu_bsp.c **** ***************************************************************************************************
 249:..\..\..\BSP/cpu_bsp.c **** */
 250:..\..\..\BSP/cpu_bsp.c **** 
 251:..\..\..\BSP/cpu_bsp.c **** #if (CPU_CFG_TS_TMR_EN == DEF_ENABLED)
 252:..\..\..\BSP/cpu_bsp.c **** CPU_TS_TMR  CPU_TS_TmrRd (void)
 253:..\..\..\BSP/cpu_bsp.c **** {
  85              		.loc 1 253 0
  86              		.cfi_startproc
  87              		@ args = 0, pretend = 0, frame = 8
  88              		@ frame_needed = 1, uses_anonymous_args = 0
  89 0000 80B5     		push	{r7, lr}
ARM GAS  C:\Users\ADMINI~1\AppData\Local\Temp\cc3Lpy50.s 			page 7


  90              		.cfi_def_cfa_offset 8
  91              		.cfi_offset 7, -8
  92              		.cfi_offset 14, -4
  93 0002 82B0     		sub	sp, sp, #8
  94              		.cfi_def_cfa_offset 16
  95 0004 00AF     		add	r7, sp, #0
  96              		.cfi_def_cfa_register 7
 254:..\..\..\BSP/cpu_bsp.c ****     CPU_TS_TMR  ts_tmr_cnts;
 255:..\..\..\BSP/cpu_bsp.c **** 
 256:..\..\..\BSP/cpu_bsp.c ****                                                                 
 257:..\..\..\BSP/cpu_bsp.c ****     ts_tmr_cnts  = (CPU_TS_TMR)CPU_BSP_REG_DWT_CYCCNT;
  97              		.loc 1 257 0
  98 0006 044B     		ldr	r3, .L6
  99 0008 1B68     		ldr	r3, [r3]
 100 000a 7B60     		str	r3, [r7, #4]
 258:..\..\..\BSP/cpu_bsp.c ****     
 259:..\..\..\BSP/cpu_bsp.c ****     return (ts_tmr_cnts);
 101              		.loc 1 259 0
 102 000c 7B68     		ldr	r3, [r7, #4]
 260:..\..\..\BSP/cpu_bsp.c **** }
 103              		.loc 1 260 0
 104 000e 1800     		movs	r0, r3
 105 0010 BD46     		mov	sp, r7
 106 0012 02B0     		add	sp, sp, #8
 107              		@ sp needed
 108 0014 80BD     		pop	{r7, pc}
 109              	.L7:
 110 0016 C046     		.align	2
 111              	.L6:
 112 0018 041000E0 		.word	-536866812
 113              		.cfi_endproc
 114              	.LFE35:
 115              		.size	CPU_TS_TmrRd, .-CPU_TS_TmrRd
 116              		.global	__aeabi_uldivmod
 117              		.section	.text.CPU_TS32_to_uSec,"ax",%progbits
 118              		.align	2
 119              		.global	CPU_TS32_to_uSec
 120              		.code	16
 121              		.thumb_func
 122              		.type	CPU_TS32_to_uSec, %function
 123              	CPU_TS32_to_uSec:
 124              	.LFB36:
 261:..\..\..\BSP/cpu_bsp.c **** #endif
 262:..\..\..\BSP/cpu_bsp.c **** 
 263:..\..\..\BSP/cpu_bsp.c **** 
 264:..\..\..\BSP/cpu_bsp.c **** /*
 265:..\..\..\BSP/cpu_bsp.c **** ***************************************************************************************************
 266:..\..\..\BSP/cpu_bsp.c **** *                                         CPU_TSxx_to_uSec()
 267:..\..\..\BSP/cpu_bsp.c **** *
 268:..\..\..\BSP/cpu_bsp.c **** * Description : Convert a 32-/64-bit CPU timestamp from timer counts to microseconds.
 269:..\..\..\BSP/cpu_bsp.c **** *
 270:..\..\..\BSP/cpu_bsp.c **** * Argument(s) : ts_cnts   CPU timestamp (in timestamp timer counts [see Note #2aA]).
 271:..\..\..\BSP/cpu_bsp.c **** *
 272:..\..\..\BSP/cpu_bsp.c **** * Return(s)   : Converted CPU timestamp (in microseconds           [see Note #2aD]).
 273:..\..\..\BSP/cpu_bsp.c **** *
 274:..\..\..\BSP/cpu_bsp.c **** * Caller(s)   : Application.
 275:..\..\..\BSP/cpu_bsp.c **** *
ARM GAS  C:\Users\ADMINI~1\AppData\Local\Temp\cc3Lpy50.s 			page 8


 276:..\..\..\BSP/cpu_bsp.c **** *               This function is an (optional) CPU module application interface (API) function whic
 277:..\..\..\BSP/cpu_bsp.c **** *               MAY be implemented by application/BSP function(s) [see Note #1] & MAY be called by 
 278:..\..\..\BSP/cpu_bsp.c **** *               application function(s).
 279:..\..\..\BSP/cpu_bsp.c **** *
 280:..\..\..\BSP/cpu_bsp.c **** * Note(s)     : (1) CPU_TS32_to_uSec()/CPU_TS64_to_uSec() are application/BSP functions that MAY be
 281:..\..\..\BSP/cpu_bsp.c **** *                   optionally defined by the developer when either of the following CPU features i
 282:..\..\..\BSP/cpu_bsp.c **** *                   enabled :
 283:..\..\..\BSP/cpu_bsp.c **** *
 284:..\..\..\BSP/cpu_bsp.c **** *                   (a) CPU timestamps
 285:..\..\..\BSP/cpu_bsp.c **** *                   (b) CPU interrupts disabled time measurements
 286:..\..\..\BSP/cpu_bsp.c **** *
 287:..\..\..\BSP/cpu_bsp.c **** *                   See 'cpu_cfg.h  CPU TIMESTAMP CONFIGURATION  Note #1'
 288:..\..\..\BSP/cpu_bsp.c **** *                     & 'cpu_cfg.h  CPU INTERRUPTS DISABLED TIME MEASUREMENT CONFIGURATION  Note #1
 289:..\..\..\BSP/cpu_bsp.c **** *
 290:..\..\..\BSP/cpu_bsp.c **** *               (2) (a) The amount of time measured by CPU timestamps is calculated by either of 
 291:..\..\..\BSP/cpu_bsp.c **** *                       the following equations :
 292:..\..\..\BSP/cpu_bsp.c **** *
 293:..\..\..\BSP/cpu_bsp.c **** *                                                                        10^6 microseconds
 294:..\..\..\BSP/cpu_bsp.c **** *                       (1) Time measured  =   Number timer counts   *  -------------------  *  Tim
 295:..\..\..\BSP/cpu_bsp.c **** *                                                                            1 second
 296:..\..\..\BSP/cpu_bsp.c **** *
 297:..\..\..\BSP/cpu_bsp.c **** *                                              Number timer counts       10^6 microseconds
 298:..\..\..\BSP/cpu_bsp.c **** *                       (2) Time measured  =  ---------------------  *  -------------------
 299:..\..\..\BSP/cpu_bsp.c **** *                                                Timer frequency             1 second
 300:..\..\..\BSP/cpu_bsp.c **** *
 301:..\..\..\BSP/cpu_bsp.c **** *                               where
 302:..\..\..\BSP/cpu_bsp.c **** *
 303:..\..\..\BSP/cpu_bsp.c **** *                                   (A) Number timer counts     Number of timer counts measured
 304:..\..\..\BSP/cpu_bsp.c **** *                                   (B) Timer frequency         Timer's frequency in some units 
 305:..\..\..\BSP/cpu_bsp.c **** *                                                                   of counts per second
 306:..\..\..\BSP/cpu_bsp.c **** *                                   (C) Timer period            Timer's period in some units of 
 307:..\..\..\BSP/cpu_bsp.c **** *                                                                   (fractional)  seconds
 308:..\..\..\BSP/cpu_bsp.c **** *                                   (D) Time measured           Amount of time measured, 
 309:..\..\..\BSP/cpu_bsp.c **** *                                                                   in microseconds
 310:..\..\..\BSP/cpu_bsp.c **** *
 311:..\..\..\BSP/cpu_bsp.c **** *                   (b) Timer period SHOULD be less than the typical measured time but MUST be less
 312:..\..\..\BSP/cpu_bsp.c **** *                       than the maximum measured time; otherwise, timer resolution inadequate to 
 313:..\..\..\BSP/cpu_bsp.c **** *                       measure desired times.
 314:..\..\..\BSP/cpu_bsp.c **** *
 315:..\..\..\BSP/cpu_bsp.c **** *                   (c) Specific implementations may convert any number of CPU_TS32 or CPU_TS64 bit
 316:..\..\..\BSP/cpu_bsp.c **** *                       -- up to 32 or 64, respectively -- into microseconds.
 317:..\..\..\BSP/cpu_bsp.c **** ***************************************************************************************************
 318:..\..\..\BSP/cpu_bsp.c **** */
 319:..\..\..\BSP/cpu_bsp.c **** 
 320:..\..\..\BSP/cpu_bsp.c **** #if (CPU_CFG_TS_32_EN == DEF_ENABLED)
 321:..\..\..\BSP/cpu_bsp.c **** CPU_INT64U  CPU_TS32_to_uSec (CPU_TS32  ts_cnts)
 322:..\..\..\BSP/cpu_bsp.c **** {
 125              		.loc 1 322 0
 126              		.cfi_startproc
 127              		@ args = 0, pretend = 0, frame = 24
 128              		@ frame_needed = 1, uses_anonymous_args = 0
 129 0000 B0B5     		push	{r4, r5, r7, lr}
 130              		.cfi_def_cfa_offset 16
 131              		.cfi_offset 4, -16
 132              		.cfi_offset 5, -12
 133              		.cfi_offset 7, -8
 134              		.cfi_offset 14, -4
ARM GAS  C:\Users\ADMINI~1\AppData\Local\Temp\cc3Lpy50.s 			page 9


 135 0002 86B0     		sub	sp, sp, #24
 136              		.cfi_def_cfa_offset 40
 137 0004 00AF     		add	r7, sp, #0
 138              		.cfi_def_cfa_register 7
 139 0006 7860     		str	r0, [r7, #4]
 323:..\..\..\BSP/cpu_bsp.c ****     CPU_INT64U  ts_us;
 324:..\..\..\BSP/cpu_bsp.c ****     CPU_INT64U  fclk_freq;
 325:..\..\..\BSP/cpu_bsp.c **** 
 326:..\..\..\BSP/cpu_bsp.c ****     
 327:..\..\..\BSP/cpu_bsp.c **** 
 328:..\..\..\BSP/cpu_bsp.c ****     fclk_freq = BSP_CPU_ClkFreq();    
 140              		.loc 1 328 0
 141 0008 FFF7FEFF 		bl	BSP_CPU_ClkFreq
 142 000c 0300     		movs	r3, r0
 143 000e 3B61     		str	r3, [r7, #16]
 144 0010 0023     		movs	r3, #0
 145 0012 7B61     		str	r3, [r7, #20]
 329:..\..\..\BSP/cpu_bsp.c ****     ts_us     = ts_cnts / (fclk_freq / DEF_TIME_NBR_uS_PER_SEC);
 146              		.loc 1 329 0
 147 0014 7B68     		ldr	r3, [r7, #4]
 148 0016 1C00     		movs	r4, r3
 149 0018 0023     		movs	r3, #0
 150 001a 1D00     		movs	r5, r3
 151 001c 3869     		ldr	r0, [r7, #16]
 152 001e 7969     		ldr	r1, [r7, #20]
 153 0020 0A4A     		ldr	r2, .L10
 154 0022 0023     		movs	r3, #0
 155 0024 FFF7FEFF 		bl	__aeabi_uldivmod
 156 0028 0200     		movs	r2, r0
 157 002a 0B00     		movs	r3, r1
 158 002c 2000     		movs	r0, r4
 159 002e 2900     		movs	r1, r5
 160 0030 FFF7FEFF 		bl	__aeabi_uldivmod
 161 0034 0300     		movs	r3, r0
 162 0036 0C00     		movs	r4, r1
 163 0038 BB60     		str	r3, [r7, #8]
 164 003a FC60     		str	r4, [r7, #12]
 330:..\..\..\BSP/cpu_bsp.c **** 
 331:..\..\..\BSP/cpu_bsp.c ****     return (ts_us);
 165              		.loc 1 331 0
 166 003c BB68     		ldr	r3, [r7, #8]
 167 003e FC68     		ldr	r4, [r7, #12]
 332:..\..\..\BSP/cpu_bsp.c **** }
 168              		.loc 1 332 0
 169 0040 1800     		movs	r0, r3
 170 0042 2100     		movs	r1, r4
 171 0044 BD46     		mov	sp, r7
 172 0046 06B0     		add	sp, sp, #24
 173              		@ sp needed
 174 0048 B0BD     		pop	{r4, r5, r7, pc}
 175              	.L11:
 176 004a C046     		.align	2
 177              	.L10:
 178 004c 40420F00 		.word	1000000
 179              		.cfi_endproc
 180              	.LFE36:
 181              		.size	CPU_TS32_to_uSec, .-CPU_TS32_to_uSec
ARM GAS  C:\Users\ADMINI~1\AppData\Local\Temp\cc3Lpy50.s 			page 10


 182              		.text
 183              	.Letext0:
 184              		.file 2 "..\\..\\..\\..\\..\\..\\Software\\uC-CPU\\ARM-Cortex-M0\\GNU/cpu.h"
 185              		.file 3 "..\\..\\..\\..\\..\\..\\Software\\uC-CPU/cpu_core.h"