ARM GAS  C:\Users\ADMINI~1\AppData\Local\Temp\ccf1WNrD.s 			page 1


   1              		.syntax unified
   2              		.cpu cortex-m0
   3              		.fpu softvfp
   4              		.eabi_attribute 20, 1
   5              		.eabi_attribute 21, 1
   6              		.eabi_attribute 23, 3
   7              		.eabi_attribute 24, 1
   8              		.eabi_attribute 25, 1
   9              		.eabi_attribute 26, 1
  10              		.eabi_attribute 30, 6
  11              		.eabi_attribute 34, 0
  12              		.eabi_attribute 18, 4
  13              		.thumb
  14              		.syntax unified
  15              		.file	"CyDMA.c"
  16              		.text
  17              	.Ltext0:
  18              		.cfi_sections	.debug_frame
  19              		.data
  20              		.align	2
  21              		.type	CyDmaInterruptCallback, %object
  22              		.size	CyDmaInterruptCallback, 32
  23              	CyDmaInterruptCallback:
  24 0000 00000000 		.word	CyDmaDefaultInterruptCallback
  25 0004 00000000 		.word	CyDmaDefaultInterruptCallback
  26 0008 00000000 		.word	CyDmaDefaultInterruptCallback
  27 000c 00000000 		.word	CyDmaDefaultInterruptCallback
  28 0010 00000000 		.word	CyDmaDefaultInterruptCallback
  29 0014 00000000 		.word	CyDmaDefaultInterruptCallback
  30 0018 00000000 		.word	CyDmaDefaultInterruptCallback
  31 001c 00000000 		.word	CyDmaDefaultInterruptCallback
  32              		.align	2
  33              		.type	CyDmaChannelUsedMask, %object
  34              		.size	CyDmaChannelUsedMask, 4
  35              	CyDmaChannelUsedMask:
  36 0020 04000000 		.word	4
  37              		.section	.text.CyDmaEnable,"ax",%progbits
  38              		.align	2
  39              		.global	CyDmaEnable
  40              		.code	16
  41              		.thumb_func
  42              		.type	CyDmaEnable, %function
  43              	CyDmaEnable:
  44              	.LFB1:
  45              		.file 1 "Generated_Source\\PSoC4\\CyDMA.c"
   1:Generated_Source\PSoC4/CyDMA.c **** /*******************************************************************************
   2:Generated_Source\PSoC4/CyDMA.c **** * File Name: CyDMA.c
   3:Generated_Source\PSoC4/CyDMA.c **** * Version 1.10
   4:Generated_Source\PSoC4/CyDMA.c **** *
   5:Generated_Source\PSoC4/CyDMA.c **** * Description:
   6:Generated_Source\PSoC4/CyDMA.c **** *  This file contains all of the global DMA API functions.
   7:Generated_Source\PSoC4/CyDMA.c **** *
   8:Generated_Source\PSoC4/CyDMA.c **** ********************************************************************************
   9:Generated_Source\PSoC4/CyDMA.c **** * Copyright 2015, Cypress Semiconductor Corporation. All rights reserved.
  10:Generated_Source\PSoC4/CyDMA.c **** * You may use this file only in accordance with the license, terms, conditions,
  11:Generated_Source\PSoC4/CyDMA.c **** * disclaimers, and limitations in the end user license agreement accompanying
  12:Generated_Source\PSoC4/CyDMA.c **** * the software package with which this file was provided.
ARM GAS  C:\Users\ADMINI~1\AppData\Local\Temp\ccf1WNrD.s 			page 2


  13:Generated_Source\PSoC4/CyDMA.c **** *******************************************************************************/
  14:Generated_Source\PSoC4/CyDMA.c **** 
  15:Generated_Source\PSoC4/CyDMA.c **** #include "CyDMA.h"
  16:Generated_Source\PSoC4/CyDMA.c **** #include "CyLib.h"
  17:Generated_Source\PSoC4/CyDMA.c **** 
  18:Generated_Source\PSoC4/CyDMA.c **** /* Default callback function. It is invoked if the user callback function is
  19:Generated_Source\PSoC4/CyDMA.c **** * undefined.
  20:Generated_Source\PSoC4/CyDMA.c **** */
  21:Generated_Source\PSoC4/CyDMA.c **** static void CyDmaDefaultInterruptCallback(void);
  22:Generated_Source\PSoC4/CyDMA.c **** 
  23:Generated_Source\PSoC4/CyDMA.c **** /* Array of pointers to user defined callback functions to be called
  24:Generated_Source\PSoC4/CyDMA.c **** * from DMA interrupt.
  25:Generated_Source\PSoC4/CyDMA.c **** */
  26:Generated_Source\PSoC4/CyDMA.c **** static cydma_callback_t CyDmaInterruptCallback[CYDMA_CH_NR] = {
  27:Generated_Source\PSoC4/CyDMA.c ****     &CyDmaDefaultInterruptCallback, &CyDmaDefaultInterruptCallback,
  28:Generated_Source\PSoC4/CyDMA.c ****     &CyDmaDefaultInterruptCallback, &CyDmaDefaultInterruptCallback,
  29:Generated_Source\PSoC4/CyDMA.c ****     &CyDmaDefaultInterruptCallback, &CyDmaDefaultInterruptCallback,
  30:Generated_Source\PSoC4/CyDMA.c ****     &CyDmaDefaultInterruptCallback, &CyDmaDefaultInterruptCallback
  31:Generated_Source\PSoC4/CyDMA.c **** };
  32:Generated_Source\PSoC4/CyDMA.c **** 
  33:Generated_Source\PSoC4/CyDMA.c **** /* The live status of all DMA channels usage. Bit i is associated to channel i,
  34:Generated_Source\PSoC4/CyDMA.c **** * with i = 0..CYDMA_CH_NR-1. '0' - channel is free. '1' - channel is in use.
  35:Generated_Source\PSoC4/CyDMA.c **** * All the channels allocated for DMA instances placed on a schematic are in use
  36:Generated_Source\PSoC4/CyDMA.c **** * by default and cannot be freed. 
  37:Generated_Source\PSoC4/CyDMA.c **** * DMA_CHANNELS_USED__MASK is generated during the build time and is a bit field
  38:Generated_Source\PSoC4/CyDMA.c **** * corresponding to the DMA channels placed on a design schematic.
  39:Generated_Source\PSoC4/CyDMA.c **** */
  40:Generated_Source\PSoC4/CyDMA.c **** static uint32 CyDmaChannelUsedMask = DMA_CHANNELS_USED__MASK;
  41:Generated_Source\PSoC4/CyDMA.c **** 
  42:Generated_Source\PSoC4/CyDMA.c **** 
  43:Generated_Source\PSoC4/CyDMA.c **** /*******************************************************************************
  44:Generated_Source\PSoC4/CyDMA.c **** * Function Name: CyDmaEnable
  45:Generated_Source\PSoC4/CyDMA.c **** ********************************************************************************
  46:Generated_Source\PSoC4/CyDMA.c **** *
  47:Generated_Source\PSoC4/CyDMA.c **** * Summary:
  48:Generated_Source\PSoC4/CyDMA.c **** *  Sets the default ISR to be called by the DMA interrupt and enables the DMA
  49:Generated_Source\PSoC4/CyDMA.c **** *  transfer engine.
  50:Generated_Source\PSoC4/CyDMA.c **** *
  51:Generated_Source\PSoC4/CyDMA.c **** * Parameters:
  52:Generated_Source\PSoC4/CyDMA.c **** *  None.
  53:Generated_Source\PSoC4/CyDMA.c **** *                   
  54:Generated_Source\PSoC4/CyDMA.c **** * Return:
  55:Generated_Source\PSoC4/CyDMA.c **** *  None.
  56:Generated_Source\PSoC4/CyDMA.c **** *
  57:Generated_Source\PSoC4/CyDMA.c **** * Side effect:
  58:Generated_Source\PSoC4/CyDMA.c **** *  Does not affect the channel enable status. Overrides the interrupt vector
  59:Generated_Source\PSoC4/CyDMA.c **** *  set prior the first time CyDmaEnable() is called.
  60:Generated_Source\PSoC4/CyDMA.c **** *
  61:Generated_Source\PSoC4/CyDMA.c **** *******************************************************************************/
  62:Generated_Source\PSoC4/CyDMA.c **** void CyDmaEnable(void)
  63:Generated_Source\PSoC4/CyDMA.c **** {
  46              		.loc 1 63 0
  47              		.cfi_startproc
  48              		@ args = 0, pretend = 0, frame = 0
  49              		@ frame_needed = 1, uses_anonymous_args = 0
  50 0000 80B5     		push	{r7, lr}
  51              		.cfi_def_cfa_offset 8
ARM GAS  C:\Users\ADMINI~1\AppData\Local\Temp\ccf1WNrD.s 			page 3


  52              		.cfi_offset 7, -8
  53              		.cfi_offset 14, -4
  54 0002 00AF     		add	r7, sp, #0
  55              		.cfi_def_cfa_register 7
  64:Generated_Source\PSoC4/CyDMA.c ****     static uint8 initIntrVector = 0u;
  65:Generated_Source\PSoC4/CyDMA.c **** 
  66:Generated_Source\PSoC4/CyDMA.c ****     if(0u == initIntrVector)
  56              		.loc 1 66 0
  57 0004 0A4B     		ldr	r3, .L3
  58 0006 1B78     		ldrb	r3, [r3]
  59 0008 002B     		cmp	r3, #0
  60 000a 0AD1     		bne	.L2
  67:Generated_Source\PSoC4/CyDMA.c ****     {
  68:Generated_Source\PSoC4/CyDMA.c ****         CyDmaSetInterruptVector(&CyDmaInterrupt);
  61              		.loc 1 68 0
  62 000c 094B     		ldr	r3, .L3+4
  63 000e 1800     		movs	r0, r3
  64 0010 FFF7FEFF 		bl	CyDmaSetInterruptVector
  69:Generated_Source\PSoC4/CyDMA.c ****         CyIntSetPriority(CYDMA_INTR_NUMBER, CYDMA_INTR_PRIO);
  65              		.loc 1 69 0
  66 0014 0321     		movs	r1, #3
  67 0016 0D20     		movs	r0, #13
  68 0018 FFF7FEFF 		bl	CyIntSetPriority
  70:Generated_Source\PSoC4/CyDMA.c ****         initIntrVector = 1u;
  69              		.loc 1 70 0
  70 001c 044B     		ldr	r3, .L3
  71 001e 0122     		movs	r2, #1
  72 0020 1A70     		strb	r2, [r3]
  73              	.L2:
  71:Generated_Source\PSoC4/CyDMA.c ****     }
  72:Generated_Source\PSoC4/CyDMA.c ****     CYDMA_CTL_REG = CYDMA_ENABLED;
  74              		.loc 1 72 0
  75 0022 054B     		ldr	r3, .L3+8
  76 0024 8022     		movs	r2, #128
  77 0026 1206     		lsls	r2, r2, #24
  78 0028 1A60     		str	r2, [r3]
  73:Generated_Source\PSoC4/CyDMA.c **** }
  79              		.loc 1 73 0
  80 002a C046     		nop
  81 002c BD46     		mov	sp, r7
  82              		@ sp needed
  83 002e 80BD     		pop	{r7, pc}
  84              	.L4:
  85              		.align	2
  86              	.L3:
  87 0030 00000000 		.word	initIntrVector.5006
  88 0034 00000000 		.word	CyDmaInterrupt
  89 0038 00101040 		.word	1074794496
  90              		.cfi_endproc
  91              	.LFE1:
  92              		.size	CyDmaEnable, .-CyDmaEnable
  93              		.section	.text.CyDmaDisable,"ax",%progbits
  94              		.align	2
  95              		.global	CyDmaDisable
  96              		.code	16
  97              		.thumb_func
  98              		.type	CyDmaDisable, %function
ARM GAS  C:\Users\ADMINI~1\AppData\Local\Temp\ccf1WNrD.s 			page 4


  99              	CyDmaDisable:
 100              	.LFB2:
  74:Generated_Source\PSoC4/CyDMA.c **** 
  75:Generated_Source\PSoC4/CyDMA.c **** 
  76:Generated_Source\PSoC4/CyDMA.c **** /*******************************************************************************
  77:Generated_Source\PSoC4/CyDMA.c **** * Function Name: CyDmaDisable
  78:Generated_Source\PSoC4/CyDMA.c **** ********************************************************************************
  79:Generated_Source\PSoC4/CyDMA.c **** *
  80:Generated_Source\PSoC4/CyDMA.c **** * Summary:
  81:Generated_Source\PSoC4/CyDMA.c **** *  Disables the DMA transfer engine.
  82:Generated_Source\PSoC4/CyDMA.c **** *
  83:Generated_Source\PSoC4/CyDMA.c **** * Parameters:
  84:Generated_Source\PSoC4/CyDMA.c **** *  None.
  85:Generated_Source\PSoC4/CyDMA.c **** *                   
  86:Generated_Source\PSoC4/CyDMA.c **** * Return:
  87:Generated_Source\PSoC4/CyDMA.c **** *  None.
  88:Generated_Source\PSoC4/CyDMA.c **** *
  89:Generated_Source\PSoC4/CyDMA.c **** * Side effect:
  90:Generated_Source\PSoC4/CyDMA.c **** *  Does not affect the channel enable status.
  91:Generated_Source\PSoC4/CyDMA.c **** *
  92:Generated_Source\PSoC4/CyDMA.c **** *******************************************************************************/
  93:Generated_Source\PSoC4/CyDMA.c **** void CyDmaDisable(void)
  94:Generated_Source\PSoC4/CyDMA.c **** {
 101              		.loc 1 94 0
 102              		.cfi_startproc
 103              		@ args = 0, pretend = 0, frame = 0
 104              		@ frame_needed = 1, uses_anonymous_args = 0
 105 0000 80B5     		push	{r7, lr}
 106              		.cfi_def_cfa_offset 8
 107              		.cfi_offset 7, -8
 108              		.cfi_offset 14, -4
 109 0002 00AF     		add	r7, sp, #0
 110              		.cfi_def_cfa_register 7
  95:Generated_Source\PSoC4/CyDMA.c ****     CYDMA_CTL_REG = (uint32)~CYDMA_ENABLED;
 111              		.loc 1 95 0
 112 0004 024B     		ldr	r3, .L6
 113 0006 034A     		ldr	r2, .L6+4
 114 0008 1A60     		str	r2, [r3]
  96:Generated_Source\PSoC4/CyDMA.c **** }
 115              		.loc 1 96 0
 116 000a C046     		nop
 117 000c BD46     		mov	sp, r7
 118              		@ sp needed
 119 000e 80BD     		pop	{r7, pc}
 120              	.L7:
 121              		.align	2
 122              	.L6:
 123 0010 00101040 		.word	1074794496
 124 0014 FFFFFF7F 		.word	2147483647
 125              		.cfi_endproc
 126              	.LFE2:
 127              		.size	CyDmaDisable, .-CyDmaDisable
 128              		.section	.text.CyDmaGetStatus,"ax",%progbits
 129              		.align	2
 130              		.global	CyDmaGetStatus
 131              		.code	16
 132              		.thumb_func
ARM GAS  C:\Users\ADMINI~1\AppData\Local\Temp\ccf1WNrD.s 			page 5


 133              		.type	CyDmaGetStatus, %function
 134              	CyDmaGetStatus:
 135              	.LFB3:
  97:Generated_Source\PSoC4/CyDMA.c **** 
  98:Generated_Source\PSoC4/CyDMA.c **** 
  99:Generated_Source\PSoC4/CyDMA.c **** /*******************************************************************************
 100:Generated_Source\PSoC4/CyDMA.c **** * Function Name: CyDmaGetStatus
 101:Generated_Source\PSoC4/CyDMA.c **** ********************************************************************************
 102:Generated_Source\PSoC4/CyDMA.c **** *
 103:Generated_Source\PSoC4/CyDMA.c **** * Summary:
 104:Generated_Source\PSoC4/CyDMA.c **** *  Returns the status of the DMA transfer engine.
 105:Generated_Source\PSoC4/CyDMA.c **** *
 106:Generated_Source\PSoC4/CyDMA.c **** * Parameters:
 107:Generated_Source\PSoC4/CyDMA.c **** *  None.
 108:Generated_Source\PSoC4/CyDMA.c **** *                   
 109:Generated_Source\PSoC4/CyDMA.c **** * Return:
 110:Generated_Source\PSoC4/CyDMA.c **** *  The contents of the DMA status register. Refer to the status register bit
 111:Generated_Source\PSoC4/CyDMA.c **** *  definitions in CyDMA_P4.h or the API description in the DMA channel
 112:Generated_Source\PSoC4/CyDMA.c **** *  datasheet.
 113:Generated_Source\PSoC4/CyDMA.c **** *
 114:Generated_Source\PSoC4/CyDMA.c **** * Side effect:
 115:Generated_Source\PSoC4/CyDMA.c **** *  The series of function calls CyDmaGetActiveSrcAddress(),
 116:Generated_Source\PSoC4/CyDMA.c **** *  CyDmaGetActiveDstAddress(), CyDmaGetStatus() are not atomic, the DMA
 117:Generated_Source\PSoC4/CyDMA.c **** *  engine may have advanced after one or more of these function calls. Meaning
 118:Generated_Source\PSoC4/CyDMA.c **** *  the returns from these three functions may not be related to each other.
 119:Generated_Source\PSoC4/CyDMA.c **** *
 120:Generated_Source\PSoC4/CyDMA.c **** *******************************************************************************/
 121:Generated_Source\PSoC4/CyDMA.c **** uint32 CyDmaGetStatus(void)
 122:Generated_Source\PSoC4/CyDMA.c **** {
 136              		.loc 1 122 0
 137              		.cfi_startproc
 138              		@ args = 0, pretend = 0, frame = 0
 139              		@ frame_needed = 1, uses_anonymous_args = 0
 140 0000 80B5     		push	{r7, lr}
 141              		.cfi_def_cfa_offset 8
 142              		.cfi_offset 7, -8
 143              		.cfi_offset 14, -4
 144 0002 00AF     		add	r7, sp, #0
 145              		.cfi_def_cfa_register 7
 123:Generated_Source\PSoC4/CyDMA.c ****     return (CYDMA_STATUS_REG);
 146              		.loc 1 123 0
 147 0004 024B     		ldr	r3, .L10
 148 0006 1B68     		ldr	r3, [r3]
 124:Generated_Source\PSoC4/CyDMA.c **** }
 149              		.loc 1 124 0
 150 0008 1800     		movs	r0, r3
 151 000a BD46     		mov	sp, r7
 152              		@ sp needed
 153 000c 80BD     		pop	{r7, pc}
 154              	.L11:
 155 000e C046     		.align	2
 156              	.L10:
 157 0010 10101040 		.word	1074794512
 158              		.cfi_endproc
 159              	.LFE3:
 160              		.size	CyDmaGetStatus, .-CyDmaGetStatus
 161              		.section	.text.CyDmaGetActiveChannels,"ax",%progbits
ARM GAS  C:\Users\ADMINI~1\AppData\Local\Temp\ccf1WNrD.s 			page 6


 162              		.align	2
 163              		.global	CyDmaGetActiveChannels
 164              		.code	16
 165              		.thumb_func
 166              		.type	CyDmaGetActiveChannels, %function
 167              	CyDmaGetActiveChannels:
 168              	.LFB4:
 125:Generated_Source\PSoC4/CyDMA.c **** 
 126:Generated_Source\PSoC4/CyDMA.c **** 
 127:Generated_Source\PSoC4/CyDMA.c **** /*******************************************************************************
 128:Generated_Source\PSoC4/CyDMA.c **** * Function Name: CyDmaGetActiveChannels
 129:Generated_Source\PSoC4/CyDMA.c **** ********************************************************************************
 130:Generated_Source\PSoC4/CyDMA.c **** *
 131:Generated_Source\PSoC4/CyDMA.c **** * Summary:
 132:Generated_Source\PSoC4/CyDMA.c **** *  Returns a bit field of all the DMA channels that are either active or
 133:Generated_Source\PSoC4/CyDMA.c **** *  pending.
 134:Generated_Source\PSoC4/CyDMA.c **** *
 135:Generated_Source\PSoC4/CyDMA.c **** * Parameters:
 136:Generated_Source\PSoC4/CyDMA.c **** *  None.
 137:Generated_Source\PSoC4/CyDMA.c **** *                   
 138:Generated_Source\PSoC4/CyDMA.c **** * Return:
 139:Generated_Source\PSoC4/CyDMA.c **** *  Bit field of active and pending channels. 
 140:Generated_Source\PSoC4/CyDMA.c **** *
 141:Generated_Source\PSoC4/CyDMA.c **** *******************************************************************************/
 142:Generated_Source\PSoC4/CyDMA.c **** uint32 CyDmaGetActiveChannels(void)
 143:Generated_Source\PSoC4/CyDMA.c **** {
 169              		.loc 1 143 0
 170              		.cfi_startproc
 171              		@ args = 0, pretend = 0, frame = 0
 172              		@ frame_needed = 1, uses_anonymous_args = 0
 173 0000 80B5     		push	{r7, lr}
 174              		.cfi_def_cfa_offset 8
 175              		.cfi_offset 7, -8
 176              		.cfi_offset 14, -4
 177 0002 00AF     		add	r7, sp, #0
 178              		.cfi_def_cfa_register 7
 144:Generated_Source\PSoC4/CyDMA.c ****     return (CYDMA_STATUS_CH_ACT_REG);
 179              		.loc 1 144 0
 180 0004 024B     		ldr	r3, .L14
 181 0006 1B68     		ldr	r3, [r3]
 145:Generated_Source\PSoC4/CyDMA.c **** }
 182              		.loc 1 145 0
 183 0008 1800     		movs	r0, r3
 184 000a BD46     		mov	sp, r7
 185              		@ sp needed
 186 000c 80BD     		pop	{r7, pc}
 187              	.L15:
 188 000e C046     		.align	2
 189              	.L14:
 190 0010 1C101040 		.word	1074794524
 191              		.cfi_endproc
 192              	.LFE4:
 193              		.size	CyDmaGetActiveChannels, .-CyDmaGetActiveChannels
 194              		.section	.text.CyDmaGetActiveSrcAddress,"ax",%progbits
 195              		.align	2
 196              		.global	CyDmaGetActiveSrcAddress
 197              		.code	16
ARM GAS  C:\Users\ADMINI~1\AppData\Local\Temp\ccf1WNrD.s 			page 7


 198              		.thumb_func
 199              		.type	CyDmaGetActiveSrcAddress, %function
 200              	CyDmaGetActiveSrcAddress:
 201              	.LFB5:
 146:Generated_Source\PSoC4/CyDMA.c **** 
 147:Generated_Source\PSoC4/CyDMA.c **** 
 148:Generated_Source\PSoC4/CyDMA.c **** /*******************************************************************************
 149:Generated_Source\PSoC4/CyDMA.c **** * Function Name: CyDmaGetActiveSrcAddress
 150:Generated_Source\PSoC4/CyDMA.c **** ********************************************************************************
 151:Generated_Source\PSoC4/CyDMA.c **** *
 152:Generated_Source\PSoC4/CyDMA.c **** * Summary:
 153:Generated_Source\PSoC4/CyDMA.c **** *  Returns the source address currently being used by the DMA transfer engine.
 154:Generated_Source\PSoC4/CyDMA.c **** *  This function can be used to debug the DMA, or observe where it is at in a
 155:Generated_Source\PSoC4/CyDMA.c **** *  transfer. It will not be used in normal DMA operation.
 156:Generated_Source\PSoC4/CyDMA.c **** *
 157:Generated_Source\PSoC4/CyDMA.c **** * Parameters:
 158:Generated_Source\PSoC4/CyDMA.c **** *  None.
 159:Generated_Source\PSoC4/CyDMA.c **** *                   
 160:Generated_Source\PSoC4/CyDMA.c **** * Return:
 161:Generated_Source\PSoC4/CyDMA.c **** *  Source address currently being used by the DMA transfer engine.
 162:Generated_Source\PSoC4/CyDMA.c **** *
 163:Generated_Source\PSoC4/CyDMA.c **** * Side effect:
 164:Generated_Source\PSoC4/CyDMA.c **** *  The series of function calls CyDmaGetActiveSrcAddress(),
 165:Generated_Source\PSoC4/CyDMA.c **** *  CyDmaGetActiveDstAddress(), CyDmaGetStatus() are not atomic, the DMA
 166:Generated_Source\PSoC4/CyDMA.c **** *  engine may have advanced after one or more of these function calls. Meaning
 167:Generated_Source\PSoC4/CyDMA.c **** *  the returns from these three functions may not be related to each other.
 168:Generated_Source\PSoC4/CyDMA.c **** *
 169:Generated_Source\PSoC4/CyDMA.c **** *******************************************************************************/
 170:Generated_Source\PSoC4/CyDMA.c **** void * CyDmaGetActiveSrcAddress(void)
 171:Generated_Source\PSoC4/CyDMA.c **** {
 202              		.loc 1 171 0
 203              		.cfi_startproc
 204              		@ args = 0, pretend = 0, frame = 0
 205              		@ frame_needed = 1, uses_anonymous_args = 0
 206 0000 80B5     		push	{r7, lr}
 207              		.cfi_def_cfa_offset 8
 208              		.cfi_offset 7, -8
 209              		.cfi_offset 14, -4
 210 0002 00AF     		add	r7, sp, #0
 211              		.cfi_def_cfa_register 7
 172:Generated_Source\PSoC4/CyDMA.c ****     return ((void *)CYDMA_STATUS_SRC_ADDR_REG);
 212              		.loc 1 172 0
 213 0004 024B     		ldr	r3, .L18
 214 0006 1B68     		ldr	r3, [r3]
 173:Generated_Source\PSoC4/CyDMA.c **** }
 215              		.loc 1 173 0
 216 0008 1800     		movs	r0, r3
 217 000a BD46     		mov	sp, r7
 218              		@ sp needed
 219 000c 80BD     		pop	{r7, pc}
 220              	.L19:
 221 000e C046     		.align	2
 222              	.L18:
 223 0010 14101040 		.word	1074794516
 224              		.cfi_endproc
 225              	.LFE5:
 226              		.size	CyDmaGetActiveSrcAddress, .-CyDmaGetActiveSrcAddress
ARM GAS  C:\Users\ADMINI~1\AppData\Local\Temp\ccf1WNrD.s 			page 8


 227              		.section	.text.CyDmaGetActiveDstAddress,"ax",%progbits
 228              		.align	2
 229              		.global	CyDmaGetActiveDstAddress
 230              		.code	16
 231              		.thumb_func
 232              		.type	CyDmaGetActiveDstAddress, %function
 233              	CyDmaGetActiveDstAddress:
 234              	.LFB6:
 174:Generated_Source\PSoC4/CyDMA.c **** 
 175:Generated_Source\PSoC4/CyDMA.c **** 
 176:Generated_Source\PSoC4/CyDMA.c **** /*******************************************************************************
 177:Generated_Source\PSoC4/CyDMA.c **** * Function Name: CyDmaGetActiveDstAddress
 178:Generated_Source\PSoC4/CyDMA.c **** ********************************************************************************
 179:Generated_Source\PSoC4/CyDMA.c **** *
 180:Generated_Source\PSoC4/CyDMA.c **** * Summary:
 181:Generated_Source\PSoC4/CyDMA.c **** *  Returns the destination address currently being used by the DMA transfer
 182:Generated_Source\PSoC4/CyDMA.c **** *  engine. This function can be used to debug the DMA, or observe where it is at
 183:Generated_Source\PSoC4/CyDMA.c **** *  in a transfer. It will not be used in normal DMA operation.
 184:Generated_Source\PSoC4/CyDMA.c **** *
 185:Generated_Source\PSoC4/CyDMA.c **** * Parameters:
 186:Generated_Source\PSoC4/CyDMA.c **** *  None.
 187:Generated_Source\PSoC4/CyDMA.c **** *                   
 188:Generated_Source\PSoC4/CyDMA.c **** * Return:
 189:Generated_Source\PSoC4/CyDMA.c **** *  Destination address currently being used by the DMA transfer engine.
 190:Generated_Source\PSoC4/CyDMA.c **** *
 191:Generated_Source\PSoC4/CyDMA.c **** * Side effect:
 192:Generated_Source\PSoC4/CyDMA.c **** *  The series of function calls CyDmaGetActiveSrcAddress(),
 193:Generated_Source\PSoC4/CyDMA.c **** *  CyDmaGetActiveDstAddress(), CyDmaGetStatus() are not atomic, the DMA
 194:Generated_Source\PSoC4/CyDMA.c **** *  engine may have advanced after one or more of these function calls. Meaning
 195:Generated_Source\PSoC4/CyDMA.c **** *  the returns from these three functions may not be related to each other.
 196:Generated_Source\PSoC4/CyDMA.c **** *
 197:Generated_Source\PSoC4/CyDMA.c **** *******************************************************************************/
 198:Generated_Source\PSoC4/CyDMA.c **** void * CyDmaGetActiveDstAddress(void)
 199:Generated_Source\PSoC4/CyDMA.c **** {
 235              		.loc 1 199 0
 236              		.cfi_startproc
 237              		@ args = 0, pretend = 0, frame = 0
 238              		@ frame_needed = 1, uses_anonymous_args = 0
 239 0000 80B5     		push	{r7, lr}
 240              		.cfi_def_cfa_offset 8
 241              		.cfi_offset 7, -8
 242              		.cfi_offset 14, -4
 243 0002 00AF     		add	r7, sp, #0
 244              		.cfi_def_cfa_register 7
 200:Generated_Source\PSoC4/CyDMA.c ****     return ((void *)CYDMA_STATUS_DST_ADDR_REG);
 245              		.loc 1 200 0
 246 0004 024B     		ldr	r3, .L22
 247 0006 1B68     		ldr	r3, [r3]
 201:Generated_Source\PSoC4/CyDMA.c **** }
 248              		.loc 1 201 0
 249 0008 1800     		movs	r0, r3
 250 000a BD46     		mov	sp, r7
 251              		@ sp needed
 252 000c 80BD     		pop	{r7, pc}
 253              	.L23:
 254 000e C046     		.align	2
 255              	.L22:
ARM GAS  C:\Users\ADMINI~1\AppData\Local\Temp\ccf1WNrD.s 			page 9


 256 0010 18101040 		.word	1074794520
 257              		.cfi_endproc
 258              	.LFE6:
 259              		.size	CyDmaGetActiveDstAddress, .-CyDmaGetActiveDstAddress
 260              		.section	.text.CyDmaSetInterruptVector,"ax",%progbits
 261              		.align	2
 262              		.global	CyDmaSetInterruptVector
 263              		.code	16
 264              		.thumb_func
 265              		.type	CyDmaSetInterruptVector, %function
 266              	CyDmaSetInterruptVector:
 267              	.LFB7:
 202:Generated_Source\PSoC4/CyDMA.c **** 
 203:Generated_Source\PSoC4/CyDMA.c **** 
 204:Generated_Source\PSoC4/CyDMA.c **** /*******************************************************************************
 205:Generated_Source\PSoC4/CyDMA.c **** * Function Name: CyDmaSetInterruptVector
 206:Generated_Source\PSoC4/CyDMA.c **** ********************************************************************************
 207:Generated_Source\PSoC4/CyDMA.c **** *
 208:Generated_Source\PSoC4/CyDMA.c **** * Summary:
 209:Generated_Source\PSoC4/CyDMA.c **** *  Sets the function that will be called by the DMA interrupt. Note, calling
 210:Generated_Source\PSoC4/CyDMA.c **** *  CyDmaEnable() for the first time overrides any effect this API could have.
 211:Generated_Source\PSoC4/CyDMA.c **** *  Call CyDmaSetInterruptVector() after calling CyDmaEnable() to change
 212:Generated_Source\PSoC4/CyDMA.c **** *  the default ISR.
 213:Generated_Source\PSoC4/CyDMA.c **** *
 214:Generated_Source\PSoC4/CyDMA.c **** * Parameters:
 215:Generated_Source\PSoC4/CyDMA.c **** *  interruptVector: Address of the function that will be called by the DMA
 216:Generated_Source\PSoC4/CyDMA.c **** *                   interrupt.
 217:Generated_Source\PSoC4/CyDMA.c **** * Return:
 218:Generated_Source\PSoC4/CyDMA.c **** *  None.
 219:Generated_Source\PSoC4/CyDMA.c **** *
 220:Generated_Source\PSoC4/CyDMA.c **** * Side effect:
 221:Generated_Source\PSoC4/CyDMA.c **** *  Other components that use DMA may register their callback functions to be
 222:Generated_Source\PSoC4/CyDMA.c **** *  called from the default DMA ISR. Therefore, changing the DMA ISR to a user
 223:Generated_Source\PSoC4/CyDMA.c **** *  defined ISR using this API may prevent these other components from
 224:Generated_Source\PSoC4/CyDMA.c **** *  functioning correctly.
 225:Generated_Source\PSoC4/CyDMA.c **** *
 226:Generated_Source\PSoC4/CyDMA.c **** *******************************************************************************/
 227:Generated_Source\PSoC4/CyDMA.c **** void CyDmaSetInterruptVector(cyisraddress interruptVector)
 228:Generated_Source\PSoC4/CyDMA.c **** {
 268              		.loc 1 228 0
 269              		.cfi_startproc
 270              		@ args = 0, pretend = 0, frame = 8
 271              		@ frame_needed = 1, uses_anonymous_args = 0
 272 0000 80B5     		push	{r7, lr}
 273              		.cfi_def_cfa_offset 8
 274              		.cfi_offset 7, -8
 275              		.cfi_offset 14, -4
 276 0002 82B0     		sub	sp, sp, #8
 277              		.cfi_def_cfa_offset 16
 278 0004 00AF     		add	r7, sp, #0
 279              		.cfi_def_cfa_register 7
 280 0006 7860     		str	r0, [r7, #4]
 229:Generated_Source\PSoC4/CyDMA.c ****     (void)CyIntSetVector(CYDMA_INTR_NUMBER, interruptVector);
 281              		.loc 1 229 0
 282 0008 7B68     		ldr	r3, [r7, #4]
 283 000a 1900     		movs	r1, r3
 284 000c 0D20     		movs	r0, #13
ARM GAS  C:\Users\ADMINI~1\AppData\Local\Temp\ccf1WNrD.s 			page 10


 285 000e FFF7FEFF 		bl	CyIntSetVector
 230:Generated_Source\PSoC4/CyDMA.c **** }
 286              		.loc 1 230 0
 287 0012 C046     		nop
 288 0014 BD46     		mov	sp, r7
 289 0016 02B0     		add	sp, sp, #8
 290              		@ sp needed
 291 0018 80BD     		pop	{r7, pc}
 292              		.cfi_endproc
 293              	.LFE7:
 294              		.size	CyDmaSetInterruptVector, .-CyDmaSetInterruptVector
 295 001a C046     		.section	.text.CyDmaGetInterruptSource,"ax",%progbits
 296              		.align	2
 297              		.global	CyDmaGetInterruptSource
 298              		.code	16
 299              		.thumb_func
 300              		.type	CyDmaGetInterruptSource, %function
 301              	CyDmaGetInterruptSource:
 302              	.LFB8:
 231:Generated_Source\PSoC4/CyDMA.c **** 
 232:Generated_Source\PSoC4/CyDMA.c **** 
 233:Generated_Source\PSoC4/CyDMA.c **** /*******************************************************************************
 234:Generated_Source\PSoC4/CyDMA.c **** * Function Name: CyDmaGetInterruptSource
 235:Generated_Source\PSoC4/CyDMA.c **** ********************************************************************************
 236:Generated_Source\PSoC4/CyDMA.c **** *
 237:Generated_Source\PSoC4/CyDMA.c **** * Summary:
 238:Generated_Source\PSoC4/CyDMA.c **** *  Returns the bit field of which channels generated an interrupt request.
 239:Generated_Source\PSoC4/CyDMA.c **** *
 240:Generated_Source\PSoC4/CyDMA.c **** * Parameters:
 241:Generated_Source\PSoC4/CyDMA.c **** *  None.
 242:Generated_Source\PSoC4/CyDMA.c **** *                   
 243:Generated_Source\PSoC4/CyDMA.c **** * Return:
 244:Generated_Source\PSoC4/CyDMA.c **** *  Bit filed of which channels generated an interrupt request.
 245:Generated_Source\PSoC4/CyDMA.c **** *
 246:Generated_Source\PSoC4/CyDMA.c **** *******************************************************************************/
 247:Generated_Source\PSoC4/CyDMA.c **** uint32 CyDmaGetInterruptSource(void)
 248:Generated_Source\PSoC4/CyDMA.c **** {
 303              		.loc 1 248 0
 304              		.cfi_startproc
 305              		@ args = 0, pretend = 0, frame = 0
 306              		@ frame_needed = 1, uses_anonymous_args = 0
 307 0000 80B5     		push	{r7, lr}
 308              		.cfi_def_cfa_offset 8
 309              		.cfi_offset 7, -8
 310              		.cfi_offset 14, -4
 311 0002 00AF     		add	r7, sp, #0
 312              		.cfi_def_cfa_register 7
 249:Generated_Source\PSoC4/CyDMA.c ****     return (CYDMA_INTR_REG);
 313              		.loc 1 249 0
 314 0004 024B     		ldr	r3, .L27
 315 0006 1B68     		ldr	r3, [r3]
 250:Generated_Source\PSoC4/CyDMA.c **** }
 316              		.loc 1 250 0
 317 0008 1800     		movs	r0, r3
 318 000a BD46     		mov	sp, r7
 319              		@ sp needed
 320 000c 80BD     		pop	{r7, pc}
ARM GAS  C:\Users\ADMINI~1\AppData\Local\Temp\ccf1WNrD.s 			page 11


 321              	.L28:
 322 000e C046     		.align	2
 323              	.L27:
 324 0010 F0171040 		.word	1074796528
 325              		.cfi_endproc
 326              	.LFE8:
 327              		.size	CyDmaGetInterruptSource, .-CyDmaGetInterruptSource
 328              		.section	.text.CyDmaClearInterruptSource,"ax",%progbits
 329              		.align	2
 330              		.global	CyDmaClearInterruptSource
 331              		.code	16
 332              		.thumb_func
 333              		.type	CyDmaClearInterruptSource, %function
 334              	CyDmaClearInterruptSource:
 335              	.LFB9:
 251:Generated_Source\PSoC4/CyDMA.c **** 
 252:Generated_Source\PSoC4/CyDMA.c **** 
 253:Generated_Source\PSoC4/CyDMA.c **** /*******************************************************************************
 254:Generated_Source\PSoC4/CyDMA.c **** * Function Name: CyDmaClearInterruptSource
 255:Generated_Source\PSoC4/CyDMA.c **** ********************************************************************************
 256:Generated_Source\PSoC4/CyDMA.c **** *
 257:Generated_Source\PSoC4/CyDMA.c **** * Summary:
 258:Generated_Source\PSoC4/CyDMA.c **** *  Clears the pending interrupts.
 259:Generated_Source\PSoC4/CyDMA.c **** *
 260:Generated_Source\PSoC4/CyDMA.c **** * Parameters:
 261:Generated_Source\PSoC4/CyDMA.c **** *  interruptMask: Bit field of interrupts to clear.
 262:Generated_Source\PSoC4/CyDMA.c **** *                   
 263:Generated_Source\PSoC4/CyDMA.c **** * Return:
 264:Generated_Source\PSoC4/CyDMA.c **** *  None.
 265:Generated_Source\PSoC4/CyDMA.c **** *
 266:Generated_Source\PSoC4/CyDMA.c **** *******************************************************************************/
 267:Generated_Source\PSoC4/CyDMA.c **** void CyDmaClearInterruptSource(uint32 interruptMask)
 268:Generated_Source\PSoC4/CyDMA.c **** {
 336              		.loc 1 268 0
 337              		.cfi_startproc
 338              		@ args = 0, pretend = 0, frame = 8
 339              		@ frame_needed = 1, uses_anonymous_args = 0
 340 0000 80B5     		push	{r7, lr}
 341              		.cfi_def_cfa_offset 8
 342              		.cfi_offset 7, -8
 343              		.cfi_offset 14, -4
 344 0002 82B0     		sub	sp, sp, #8
 345              		.cfi_def_cfa_offset 16
 346 0004 00AF     		add	r7, sp, #0
 347              		.cfi_def_cfa_register 7
 348 0006 7860     		str	r0, [r7, #4]
 269:Generated_Source\PSoC4/CyDMA.c ****     CYDMA_INTR_REG = interruptMask;
 349              		.loc 1 269 0
 350 0008 034B     		ldr	r3, .L30
 351 000a 7A68     		ldr	r2, [r7, #4]
 352 000c 1A60     		str	r2, [r3]
 270:Generated_Source\PSoC4/CyDMA.c **** }
 353              		.loc 1 270 0
 354 000e C046     		nop
 355 0010 BD46     		mov	sp, r7
 356 0012 02B0     		add	sp, sp, #8
 357              		@ sp needed
ARM GAS  C:\Users\ADMINI~1\AppData\Local\Temp\ccf1WNrD.s 			page 12


 358 0014 80BD     		pop	{r7, pc}
 359              	.L31:
 360 0016 C046     		.align	2
 361              	.L30:
 362 0018 F0171040 		.word	1074796528
 363              		.cfi_endproc
 364              	.LFE9:
 365              		.size	CyDmaClearInterruptSource, .-CyDmaClearInterruptSource
 366              		.section	.text.CyDmaSetInterruptSourceMask,"ax",%progbits
 367              		.align	2
 368              		.global	CyDmaSetInterruptSourceMask
 369              		.code	16
 370              		.thumb_func
 371              		.type	CyDmaSetInterruptSourceMask, %function
 372              	CyDmaSetInterruptSourceMask:
 373              	.LFB10:
 271:Generated_Source\PSoC4/CyDMA.c **** 
 272:Generated_Source\PSoC4/CyDMA.c **** 
 273:Generated_Source\PSoC4/CyDMA.c **** /*******************************************************************************
 274:Generated_Source\PSoC4/CyDMA.c **** * Function Name: CyDmaSetInterruptSourceMask
 275:Generated_Source\PSoC4/CyDMA.c **** ********************************************************************************
 276:Generated_Source\PSoC4/CyDMA.c **** *
 277:Generated_Source\PSoC4/CyDMA.c **** * Summary:
 278:Generated_Source\PSoC4/CyDMA.c **** *  Sets mask for interrupt source.
 279:Generated_Source\PSoC4/CyDMA.c **** *
 280:Generated_Source\PSoC4/CyDMA.c **** * Parameters:
 281:Generated_Source\PSoC4/CyDMA.c **** *  interruptmask: Mask corresponding to interrupt bit field.
 282:Generated_Source\PSoC4/CyDMA.c **** *                   
 283:Generated_Source\PSoC4/CyDMA.c **** * Return:
 284:Generated_Source\PSoC4/CyDMA.c **** *  None.
 285:Generated_Source\PSoC4/CyDMA.c **** *
 286:Generated_Source\PSoC4/CyDMA.c **** *******************************************************************************/
 287:Generated_Source\PSoC4/CyDMA.c **** void CyDmaSetInterruptSourceMask(uint32 interruptMask)
 288:Generated_Source\PSoC4/CyDMA.c **** {
 374              		.loc 1 288 0
 375              		.cfi_startproc
 376              		@ args = 0, pretend = 0, frame = 8
 377              		@ frame_needed = 1, uses_anonymous_args = 0
 378 0000 80B5     		push	{r7, lr}
 379              		.cfi_def_cfa_offset 8
 380              		.cfi_offset 7, -8
 381              		.cfi_offset 14, -4
 382 0002 82B0     		sub	sp, sp, #8
 383              		.cfi_def_cfa_offset 16
 384 0004 00AF     		add	r7, sp, #0
 385              		.cfi_def_cfa_register 7
 386 0006 7860     		str	r0, [r7, #4]
 289:Generated_Source\PSoC4/CyDMA.c ****     CYDMA_INTR_MASK_REG = interruptMask;
 387              		.loc 1 289 0
 388 0008 034B     		ldr	r3, .L33
 389 000a 7A68     		ldr	r2, [r7, #4]
 390 000c 1A60     		str	r2, [r3]
 290:Generated_Source\PSoC4/CyDMA.c **** }
 391              		.loc 1 290 0
 392 000e C046     		nop
 393 0010 BD46     		mov	sp, r7
 394 0012 02B0     		add	sp, sp, #8
ARM GAS  C:\Users\ADMINI~1\AppData\Local\Temp\ccf1WNrD.s 			page 13


 395              		@ sp needed
 396 0014 80BD     		pop	{r7, pc}
 397              	.L34:
 398 0016 C046     		.align	2
 399              	.L33:
 400 0018 F8171040 		.word	1074796536
 401              		.cfi_endproc
 402              	.LFE10:
 403              		.size	CyDmaSetInterruptSourceMask, .-CyDmaSetInterruptSourceMask
 404              		.section	.text.CyDmaGetInterruptSourceMask,"ax",%progbits
 405              		.align	2
 406              		.global	CyDmaGetInterruptSourceMask
 407              		.code	16
 408              		.thumb_func
 409              		.type	CyDmaGetInterruptSourceMask, %function
 410              	CyDmaGetInterruptSourceMask:
 411              	.LFB11:
 291:Generated_Source\PSoC4/CyDMA.c **** 
 292:Generated_Source\PSoC4/CyDMA.c **** 
 293:Generated_Source\PSoC4/CyDMA.c **** /*******************************************************************************
 294:Generated_Source\PSoC4/CyDMA.c **** * Function Name: CyDmaGetInterruptSourceMask
 295:Generated_Source\PSoC4/CyDMA.c **** ********************************************************************************
 296:Generated_Source\PSoC4/CyDMA.c **** *
 297:Generated_Source\PSoC4/CyDMA.c **** * Summary:
 298:Generated_Source\PSoC4/CyDMA.c **** *  Returns mask for interrupt source.
 299:Generated_Source\PSoC4/CyDMA.c **** *
 300:Generated_Source\PSoC4/CyDMA.c **** * Parameters:
 301:Generated_Source\PSoC4/CyDMA.c **** *  None.
 302:Generated_Source\PSoC4/CyDMA.c **** *                   
 303:Generated_Source\PSoC4/CyDMA.c **** * Return:
 304:Generated_Source\PSoC4/CyDMA.c **** *  Mask corresponding to interrupt bit field.
 305:Generated_Source\PSoC4/CyDMA.c **** *
 306:Generated_Source\PSoC4/CyDMA.c **** *******************************************************************************/
 307:Generated_Source\PSoC4/CyDMA.c **** uint32 CyDmaGetInterruptSourceMask(void)
 308:Generated_Source\PSoC4/CyDMA.c **** {
 412              		.loc 1 308 0
 413              		.cfi_startproc
 414              		@ args = 0, pretend = 0, frame = 0
 415              		@ frame_needed = 1, uses_anonymous_args = 0
 416 0000 80B5     		push	{r7, lr}
 417              		.cfi_def_cfa_offset 8
 418              		.cfi_offset 7, -8
 419              		.cfi_offset 14, -4
 420 0002 00AF     		add	r7, sp, #0
 421              		.cfi_def_cfa_register 7
 309:Generated_Source\PSoC4/CyDMA.c ****     return (CYDMA_INTR_MASK_REG);
 422              		.loc 1 309 0
 423 0004 024B     		ldr	r3, .L37
 424 0006 1B68     		ldr	r3, [r3]
 310:Generated_Source\PSoC4/CyDMA.c **** }
 425              		.loc 1 310 0
 426 0008 1800     		movs	r0, r3
 427 000a BD46     		mov	sp, r7
 428              		@ sp needed
 429 000c 80BD     		pop	{r7, pc}
 430              	.L38:
 431 000e C046     		.align	2
ARM GAS  C:\Users\ADMINI~1\AppData\Local\Temp\ccf1WNrD.s 			page 14


 432              	.L37:
 433 0010 F8171040 		.word	1074796536
 434              		.cfi_endproc
 435              	.LFE11:
 436              		.size	CyDmaGetInterruptSourceMask, .-CyDmaGetInterruptSourceMask
 437              		.section	.text.CyDmaGetInterruptSourceMasked,"ax",%progbits
 438              		.align	2
 439              		.global	CyDmaGetInterruptSourceMasked
 440              		.code	16
 441              		.thumb_func
 442              		.type	CyDmaGetInterruptSourceMasked, %function
 443              	CyDmaGetInterruptSourceMasked:
 444              	.LFB12:
 311:Generated_Source\PSoC4/CyDMA.c **** 
 312:Generated_Source\PSoC4/CyDMA.c **** 
 313:Generated_Source\PSoC4/CyDMA.c **** /*******************************************************************************
 314:Generated_Source\PSoC4/CyDMA.c **** * Function Name: CyDmaGetInterruptSourceMasked
 315:Generated_Source\PSoC4/CyDMA.c **** ********************************************************************************
 316:Generated_Source\PSoC4/CyDMA.c **** *
 317:Generated_Source\PSoC4/CyDMA.c **** * Summary:
 318:Generated_Source\PSoC4/CyDMA.c **** *  Returns the bitwise AND of the interrupt source and the interrupt mask.
 319:Generated_Source\PSoC4/CyDMA.c **** *
 320:Generated_Source\PSoC4/CyDMA.c **** * Parameters:
 321:Generated_Source\PSoC4/CyDMA.c **** *  None.
 322:Generated_Source\PSoC4/CyDMA.c **** *                   
 323:Generated_Source\PSoC4/CyDMA.c **** * Return:
 324:Generated_Source\PSoC4/CyDMA.c **** *  Bitwise AND of the interrupt source and the interrupt mask.
 325:Generated_Source\PSoC4/CyDMA.c **** *
 326:Generated_Source\PSoC4/CyDMA.c **** *******************************************************************************/
 327:Generated_Source\PSoC4/CyDMA.c **** uint32 CyDmaGetInterruptSourceMasked(void)
 328:Generated_Source\PSoC4/CyDMA.c **** {
 445              		.loc 1 328 0
 446              		.cfi_startproc
 447              		@ args = 0, pretend = 0, frame = 0
 448              		@ frame_needed = 1, uses_anonymous_args = 0
 449 0000 80B5     		push	{r7, lr}
 450              		.cfi_def_cfa_offset 8
 451              		.cfi_offset 7, -8
 452              		.cfi_offset 14, -4
 453 0002 00AF     		add	r7, sp, #0
 454              		.cfi_def_cfa_register 7
 329:Generated_Source\PSoC4/CyDMA.c ****     return (CYDMA_INTR_MASKED_REG);
 455              		.loc 1 329 0
 456 0004 024B     		ldr	r3, .L41
 457 0006 1B68     		ldr	r3, [r3]
 330:Generated_Source\PSoC4/CyDMA.c **** }
 458              		.loc 1 330 0
 459 0008 1800     		movs	r0, r3
 460 000a BD46     		mov	sp, r7
 461              		@ sp needed
 462 000c 80BD     		pop	{r7, pc}
 463              	.L42:
 464 000e C046     		.align	2
 465              	.L41:
 466 0010 FC171040 		.word	1074796540
 467              		.cfi_endproc
 468              	.LFE12:
ARM GAS  C:\Users\ADMINI~1\AppData\Local\Temp\ccf1WNrD.s 			page 15


 469              		.size	CyDmaGetInterruptSourceMasked, .-CyDmaGetInterruptSourceMasked
 470              		.section	.text.CyDmaSetInterruptCallback,"ax",%progbits
 471              		.align	2
 472              		.global	CyDmaSetInterruptCallback
 473              		.code	16
 474              		.thumb_func
 475              		.type	CyDmaSetInterruptCallback, %function
 476              	CyDmaSetInterruptCallback:
 477              	.LFB13:
 331:Generated_Source\PSoC4/CyDMA.c **** 
 332:Generated_Source\PSoC4/CyDMA.c **** 
 333:Generated_Source\PSoC4/CyDMA.c **** /*******************************************************************************
 334:Generated_Source\PSoC4/CyDMA.c **** * Function Name: CyDmaSetInterruptCallback
 335:Generated_Source\PSoC4/CyDMA.c **** ********************************************************************************
 336:Generated_Source\PSoC4/CyDMA.c **** *
 337:Generated_Source\PSoC4/CyDMA.c **** * Summary:
 338:Generated_Source\PSoC4/CyDMA.c **** *  Sets a user defined callback function to be called by the DMA interrupt. The
 339:Generated_Source\PSoC4/CyDMA.c **** *  function should contain code to process the interrupt request for the 
 340:Generated_Source\PSoC4/CyDMA.c **** *  associated DMA channel.
 341:Generated_Source\PSoC4/CyDMA.c **** *
 342:Generated_Source\PSoC4/CyDMA.c **** * Parameters:
 343:Generated_Source\PSoC4/CyDMA.c **** *  channel:  Channel used by this function.
 344:Generated_Source\PSoC4/CyDMA.c **** *  callback: Pointer to the user defined callback function.
 345:Generated_Source\PSoC4/CyDMA.c **** *
 346:Generated_Source\PSoC4/CyDMA.c **** * Return:
 347:Generated_Source\PSoC4/CyDMA.c **** *  Pointer to the function previously set for the specified channel. 
 348:Generated_Source\PSoC4/CyDMA.c **** *
 349:Generated_Source\PSoC4/CyDMA.c **** *******************************************************************************/
 350:Generated_Source\PSoC4/CyDMA.c **** cydma_callback_t CyDmaSetInterruptCallback(int32 channel, cydma_callback_t callback)
 351:Generated_Source\PSoC4/CyDMA.c **** {
 478              		.loc 1 351 0
 479              		.cfi_startproc
 480              		@ args = 0, pretend = 0, frame = 16
 481              		@ frame_needed = 1, uses_anonymous_args = 0
 482 0000 80B5     		push	{r7, lr}
 483              		.cfi_def_cfa_offset 8
 484              		.cfi_offset 7, -8
 485              		.cfi_offset 14, -4
 486 0002 84B0     		sub	sp, sp, #16
 487              		.cfi_def_cfa_offset 24
 488 0004 00AF     		add	r7, sp, #0
 489              		.cfi_def_cfa_register 7
 490 0006 7860     		str	r0, [r7, #4]
 491 0008 3960     		str	r1, [r7]
 352:Generated_Source\PSoC4/CyDMA.c ****     cydma_callback_t prevCallback;
 353:Generated_Source\PSoC4/CyDMA.c **** 
 354:Generated_Source\PSoC4/CyDMA.c ****     CYASSERT((channel >= 0) && (channel < CYDMA_CH_NR));
 492              		.loc 1 354 0
 493 000a 7B68     		ldr	r3, [r7, #4]
 494 000c 002B     		cmp	r3, #0
 495 000e 04DB     		blt	.L44
 496              		.loc 1 354 0 is_stmt 0 discriminator 1
 497 0010 7B68     		ldr	r3, [r7, #4]
 498 0012 072B     		cmp	r3, #7
 499 0014 01DC     		bgt	.L44
 500              		.loc 1 354 0 discriminator 3
 501 0016 0123     		movs	r3, #1
ARM GAS  C:\Users\ADMINI~1\AppData\Local\Temp\ccf1WNrD.s 			page 16


 502 0018 00E0     		b	.L45
 503              	.L44:
 504              		.loc 1 354 0 discriminator 4
 505 001a 0023     		movs	r3, #0
 506              	.L45:
 507              		.loc 1 354 0 discriminator 6
 508 001c 002B     		cmp	r3, #0
 509 001e 02D1     		bne	.L46
 510              		.loc 1 354 0 discriminator 7
 511 0020 0020     		movs	r0, #0
 512 0022 FFF7FEFF 		bl	CyHalt
 513              	.L46:
 355:Generated_Source\PSoC4/CyDMA.c **** 
 356:Generated_Source\PSoC4/CyDMA.c ****     prevCallback = CyDmaInterruptCallback[channel];
 514              		.loc 1 356 0 is_stmt 1
 515 0026 074B     		ldr	r3, .L48
 516 0028 7A68     		ldr	r2, [r7, #4]
 517 002a 9200     		lsls	r2, r2, #2
 518 002c D358     		ldr	r3, [r2, r3]
 519 002e FB60     		str	r3, [r7, #12]
 357:Generated_Source\PSoC4/CyDMA.c ****     CyDmaInterruptCallback[channel] = callback;
 520              		.loc 1 357 0
 521 0030 044B     		ldr	r3, .L48
 522 0032 7A68     		ldr	r2, [r7, #4]
 523 0034 9200     		lsls	r2, r2, #2
 524 0036 3968     		ldr	r1, [r7]
 525 0038 D150     		str	r1, [r2, r3]
 358:Generated_Source\PSoC4/CyDMA.c ****     return (prevCallback);
 526              		.loc 1 358 0
 527 003a FB68     		ldr	r3, [r7, #12]
 359:Generated_Source\PSoC4/CyDMA.c **** }
 528              		.loc 1 359 0
 529 003c 1800     		movs	r0, r3
 530 003e BD46     		mov	sp, r7
 531 0040 04B0     		add	sp, sp, #16
 532              		@ sp needed
 533 0042 80BD     		pop	{r7, pc}
 534              	.L49:
 535              		.align	2
 536              	.L48:
 537 0044 00000000 		.word	CyDmaInterruptCallback
 538              		.cfi_endproc
 539              	.LFE13:
 540              		.size	CyDmaSetInterruptCallback, .-CyDmaSetInterruptCallback
 541              		.section	.text.CyDmaGetInterruptCallback,"ax",%progbits
 542              		.align	2
 543              		.global	CyDmaGetInterruptCallback
 544              		.code	16
 545              		.thumb_func
 546              		.type	CyDmaGetInterruptCallback, %function
 547              	CyDmaGetInterruptCallback:
 548              	.LFB14:
 360:Generated_Source\PSoC4/CyDMA.c **** 
 361:Generated_Source\PSoC4/CyDMA.c **** 
 362:Generated_Source\PSoC4/CyDMA.c **** /*******************************************************************************
 363:Generated_Source\PSoC4/CyDMA.c **** * Function Name: CyDmaGetInterruptCallback
 364:Generated_Source\PSoC4/CyDMA.c **** ********************************************************************************
ARM GAS  C:\Users\ADMINI~1\AppData\Local\Temp\ccf1WNrD.s 			page 17


 365:Generated_Source\PSoC4/CyDMA.c **** *
 366:Generated_Source\PSoC4/CyDMA.c **** * Summary:
 367:Generated_Source\PSoC4/CyDMA.c **** *  Returns the pointer to the interrupt callback function for the specified DMA
 368:Generated_Source\PSoC4/CyDMA.c **** *  channel.
 369:Generated_Source\PSoC4/CyDMA.c **** *
 370:Generated_Source\PSoC4/CyDMA.c **** * Parameters:
 371:Generated_Source\PSoC4/CyDMA.c **** *  channel: Channel used by this function.
 372:Generated_Source\PSoC4/CyDMA.c **** *
 373:Generated_Source\PSoC4/CyDMA.c **** * Return:
 374:Generated_Source\PSoC4/CyDMA.c **** *  Callback function pointer for the specified channel.
 375:Generated_Source\PSoC4/CyDMA.c **** *
 376:Generated_Source\PSoC4/CyDMA.c **** *******************************************************************************/
 377:Generated_Source\PSoC4/CyDMA.c **** cydma_callback_t CyDmaGetInterruptCallback(int32 channel)
 378:Generated_Source\PSoC4/CyDMA.c **** {
 549              		.loc 1 378 0
 550              		.cfi_startproc
 551              		@ args = 0, pretend = 0, frame = 8
 552              		@ frame_needed = 1, uses_anonymous_args = 0
 553 0000 80B5     		push	{r7, lr}
 554              		.cfi_def_cfa_offset 8
 555              		.cfi_offset 7, -8
 556              		.cfi_offset 14, -4
 557 0002 82B0     		sub	sp, sp, #8
 558              		.cfi_def_cfa_offset 16
 559 0004 00AF     		add	r7, sp, #0
 560              		.cfi_def_cfa_register 7
 561 0006 7860     		str	r0, [r7, #4]
 379:Generated_Source\PSoC4/CyDMA.c ****     CYASSERT((channel >= 0) && (channel < CYDMA_CH_NR));
 562              		.loc 1 379 0
 563 0008 7B68     		ldr	r3, [r7, #4]
 564 000a 002B     		cmp	r3, #0
 565 000c 04DB     		blt	.L51
 566              		.loc 1 379 0 is_stmt 0 discriminator 1
 567 000e 7B68     		ldr	r3, [r7, #4]
 568 0010 072B     		cmp	r3, #7
 569 0012 01DC     		bgt	.L51
 570              		.loc 1 379 0 discriminator 3
 571 0014 0123     		movs	r3, #1
 572 0016 00E0     		b	.L52
 573              	.L51:
 574              		.loc 1 379 0 discriminator 4
 575 0018 0023     		movs	r3, #0
 576              	.L52:
 577              		.loc 1 379 0 discriminator 6
 578 001a 002B     		cmp	r3, #0
 579 001c 02D1     		bne	.L53
 580              		.loc 1 379 0 discriminator 7
 581 001e 0020     		movs	r0, #0
 582 0020 FFF7FEFF 		bl	CyHalt
 583              	.L53:
 380:Generated_Source\PSoC4/CyDMA.c ****     
 381:Generated_Source\PSoC4/CyDMA.c ****     return (CyDmaInterruptCallback[channel]);
 584              		.loc 1 381 0 is_stmt 1
 585 0024 034B     		ldr	r3, .L55
 586 0026 7A68     		ldr	r2, [r7, #4]
 587 0028 9200     		lsls	r2, r2, #2
 588 002a D358     		ldr	r3, [r2, r3]
ARM GAS  C:\Users\ADMINI~1\AppData\Local\Temp\ccf1WNrD.s 			page 18


 382:Generated_Source\PSoC4/CyDMA.c **** }
 589              		.loc 1 382 0
 590 002c 1800     		movs	r0, r3
 591 002e BD46     		mov	sp, r7
 592 0030 02B0     		add	sp, sp, #8
 593              		@ sp needed
 594 0032 80BD     		pop	{r7, pc}
 595              	.L56:
 596              		.align	2
 597              	.L55:
 598 0034 00000000 		.word	CyDmaInterruptCallback
 599              		.cfi_endproc
 600              	.LFE14:
 601              		.size	CyDmaGetInterruptCallback, .-CyDmaGetInterruptCallback
 602              		.section	.text.CyDmaInterrupt,"ax",%progbits
 603              		.align	2
 604              		.global	CyDmaInterrupt
 605              		.code	16
 606              		.thumb_func
 607              		.type	CyDmaInterrupt, %function
 608              	CyDmaInterrupt:
 609              	.LFB15:
 383:Generated_Source\PSoC4/CyDMA.c **** 
 384:Generated_Source\PSoC4/CyDMA.c **** 
 385:Generated_Source\PSoC4/CyDMA.c **** /*******************************************************************************
 386:Generated_Source\PSoC4/CyDMA.c **** * Function Name: CyDmaInterrupt
 387:Generated_Source\PSoC4/CyDMA.c **** ********************************************************************************
 388:Generated_Source\PSoC4/CyDMA.c **** *
 389:Generated_Source\PSoC4/CyDMA.c **** * Summary:
 390:Generated_Source\PSoC4/CyDMA.c **** *  The default ISR for DMA interrupts. The handler checks which DMA channel has
 391:Generated_Source\PSoC4/CyDMA.c **** *  triggered the interrupt and calls the user defined callback function.
 392:Generated_Source\PSoC4/CyDMA.c **** *  The callback function is set using CyDmaSetInteruptCallback() API.
 393:Generated_Source\PSoC4/CyDMA.c **** *
 394:Generated_Source\PSoC4/CyDMA.c **** * Parameters:
 395:Generated_Source\PSoC4/CyDMA.c **** *  None.
 396:Generated_Source\PSoC4/CyDMA.c **** *
 397:Generated_Source\PSoC4/CyDMA.c **** * Return:
 398:Generated_Source\PSoC4/CyDMA.c **** *  None.
 399:Generated_Source\PSoC4/CyDMA.c **** *
 400:Generated_Source\PSoC4/CyDMA.c **** * Side Effects:
 401:Generated_Source\PSoC4/CyDMA.c **** *  This function clears the pending interrupts.
 402:Generated_Source\PSoC4/CyDMA.c **** *
 403:Generated_Source\PSoC4/CyDMA.c **** *******************************************************************************/
 404:Generated_Source\PSoC4/CyDMA.c **** CY_ISR(CyDmaInterrupt)
 405:Generated_Source\PSoC4/CyDMA.c **** {
 610              		.loc 1 405 0
 611              		.cfi_startproc
 612              		@ args = 0, pretend = 0, frame = 8
 613              		@ frame_needed = 1, uses_anonymous_args = 0
 614 0000 80B5     		push	{r7, lr}
 615              		.cfi_def_cfa_offset 8
 616              		.cfi_offset 7, -8
 617              		.cfi_offset 14, -4
 618 0002 82B0     		sub	sp, sp, #8
 619              		.cfi_def_cfa_offset 16
 620 0004 00AF     		add	r7, sp, #0
 621              		.cfi_def_cfa_register 7
ARM GAS  C:\Users\ADMINI~1\AppData\Local\Temp\ccf1WNrD.s 			page 19


 406:Generated_Source\PSoC4/CyDMA.c ****     uint32 intr;
 407:Generated_Source\PSoC4/CyDMA.c ****     uint32 cbIdx = 0u;
 622              		.loc 1 407 0
 623 0006 0023     		movs	r3, #0
 624 0008 3B60     		str	r3, [r7]
 408:Generated_Source\PSoC4/CyDMA.c **** 
 409:Generated_Source\PSoC4/CyDMA.c ****     /* Get interrupt source. */
 410:Generated_Source\PSoC4/CyDMA.c ****     intr = CYDMA_INTR_MASKED_REG;
 625              		.loc 1 410 0
 626 000a 0E4B     		ldr	r3, .L61
 627 000c 1B68     		ldr	r3, [r3]
 628 000e 7B60     		str	r3, [r7, #4]
 411:Generated_Source\PSoC4/CyDMA.c **** 
 412:Generated_Source\PSoC4/CyDMA.c ****     /* Clear pending interrupts. */
 413:Generated_Source\PSoC4/CyDMA.c ****     CYDMA_INTR_REG = intr;
 629              		.loc 1 413 0
 630 0010 0D4B     		ldr	r3, .L61+4
 631 0012 7A68     		ldr	r2, [r7, #4]
 632 0014 1A60     		str	r2, [r3]
 414:Generated_Source\PSoC4/CyDMA.c **** 
 415:Generated_Source\PSoC4/CyDMA.c ****     /* Call user defined callback functions for triggered interrupt sources. */
 416:Generated_Source\PSoC4/CyDMA.c ****     while(0u != intr)
 633              		.loc 1 416 0
 634 0016 0EE0     		b	.L58
 635              	.L60:
 417:Generated_Source\PSoC4/CyDMA.c ****     {
 418:Generated_Source\PSoC4/CyDMA.c ****         if(0u != (intr & 0x1u))
 636              		.loc 1 418 0
 637 0018 7B68     		ldr	r3, [r7, #4]
 638 001a 0122     		movs	r2, #1
 639 001c 1340     		ands	r3, r2
 640 001e 04D0     		beq	.L59
 419:Generated_Source\PSoC4/CyDMA.c ****         {
 420:Generated_Source\PSoC4/CyDMA.c ****             CyDmaInterruptCallback[cbIdx]();
 641              		.loc 1 420 0
 642 0020 0A4B     		ldr	r3, .L61+8
 643 0022 3A68     		ldr	r2, [r7]
 644 0024 9200     		lsls	r2, r2, #2
 645 0026 D358     		ldr	r3, [r2, r3]
 646 0028 9847     		blx	r3
 647              	.L59:
 421:Generated_Source\PSoC4/CyDMA.c ****         }
 422:Generated_Source\PSoC4/CyDMA.c ****         intr >>= 1;
 648              		.loc 1 422 0
 649 002a 7B68     		ldr	r3, [r7, #4]
 650 002c 5B08     		lsrs	r3, r3, #1
 651 002e 7B60     		str	r3, [r7, #4]
 423:Generated_Source\PSoC4/CyDMA.c ****         ++cbIdx;
 652              		.loc 1 423 0
 653 0030 3B68     		ldr	r3, [r7]
 654 0032 0133     		adds	r3, r3, #1
 655 0034 3B60     		str	r3, [r7]
 656              	.L58:
 416:Generated_Source\PSoC4/CyDMA.c ****     {
 657              		.loc 1 416 0
 658 0036 7B68     		ldr	r3, [r7, #4]
 659 0038 002B     		cmp	r3, #0
ARM GAS  C:\Users\ADMINI~1\AppData\Local\Temp\ccf1WNrD.s 			page 20


 660 003a EDD1     		bne	.L60
 424:Generated_Source\PSoC4/CyDMA.c ****     }
 425:Generated_Source\PSoC4/CyDMA.c **** }
 661              		.loc 1 425 0
 662 003c C046     		nop
 663 003e BD46     		mov	sp, r7
 664 0040 02B0     		add	sp, sp, #8
 665              		@ sp needed
 666 0042 80BD     		pop	{r7, pc}
 667              	.L62:
 668              		.align	2
 669              	.L61:
 670 0044 FC171040 		.word	1074796540
 671 0048 F0171040 		.word	1074796528
 672 004c 00000000 		.word	CyDmaInterruptCallback
 673              		.cfi_endproc
 674              	.LFE15:
 675              		.size	CyDmaInterrupt, .-CyDmaInterrupt
 676              		.section	.text.CyDmaDefaultInterruptCallback,"ax",%progbits
 677              		.align	2
 678              		.code	16
 679              		.thumb_func
 680              		.type	CyDmaDefaultInterruptCallback, %function
 681              	CyDmaDefaultInterruptCallback:
 682              	.LFB16:
 426:Generated_Source\PSoC4/CyDMA.c **** 
 427:Generated_Source\PSoC4/CyDMA.c **** 
 428:Generated_Source\PSoC4/CyDMA.c **** /*******************************************************************************
 429:Generated_Source\PSoC4/CyDMA.c **** * Function Name: CyDmaDefaultInterruptCallback
 430:Generated_Source\PSoC4/CyDMA.c **** ********************************************************************************
 431:Generated_Source\PSoC4/CyDMA.c **** *
 432:Generated_Source\PSoC4/CyDMA.c **** * Summary:
 433:Generated_Source\PSoC4/CyDMA.c **** *  This function is invoked when the user defined callback function is undefined
 434:Generated_Source\PSoC4/CyDMA.c **** *  for the interrupt source.
 435:Generated_Source\PSoC4/CyDMA.c **** *
 436:Generated_Source\PSoC4/CyDMA.c **** * Parameters:
 437:Generated_Source\PSoC4/CyDMA.c **** *  None.
 438:Generated_Source\PSoC4/CyDMA.c **** *
 439:Generated_Source\PSoC4/CyDMA.c **** * Return:
 440:Generated_Source\PSoC4/CyDMA.c **** *  None.
 441:Generated_Source\PSoC4/CyDMA.c **** *
 442:Generated_Source\PSoC4/CyDMA.c **** *******************************************************************************/
 443:Generated_Source\PSoC4/CyDMA.c **** static void CyDmaDefaultInterruptCallback(void)
 444:Generated_Source\PSoC4/CyDMA.c **** {
 683              		.loc 1 444 0
 684              		.cfi_startproc
 685              		@ args = 0, pretend = 0, frame = 0
 686              		@ frame_needed = 1, uses_anonymous_args = 0
 687 0000 80B5     		push	{r7, lr}
 688              		.cfi_def_cfa_offset 8
 689              		.cfi_offset 7, -8
 690              		.cfi_offset 14, -4
 691 0002 00AF     		add	r7, sp, #0
 692              		.cfi_def_cfa_register 7
 445:Generated_Source\PSoC4/CyDMA.c ****     /* Halt CPU in debug mode. We get here because there is no user defined
 446:Generated_Source\PSoC4/CyDMA.c ****     * callback function for the interrupt source. You should either set a
 447:Generated_Source\PSoC4/CyDMA.c ****     * callback function or disable generating an interrupt from this
ARM GAS  C:\Users\ADMINI~1\AppData\Local\Temp\ccf1WNrD.s 			page 21


 448:Generated_Source\PSoC4/CyDMA.c ****     * interrupt source.
 449:Generated_Source\PSoC4/CyDMA.c ****     * To set a callback, use the CyDmaSetInterruptCallback() API function.
 450:Generated_Source\PSoC4/CyDMA.c ****     * To disable interrupt generation, write '0' to the corresponding bit
 451:Generated_Source\PSoC4/CyDMA.c ****     * in the interrupt mask by calling CyDmaSetInterruptSourceMask().
 452:Generated_Source\PSoC4/CyDMA.c ****     */
 453:Generated_Source\PSoC4/CyDMA.c ****     CYASSERT(0 != 0);
 693              		.loc 1 453 0
 694 0004 0020     		movs	r0, #0
 695 0006 FFF7FEFF 		bl	CyHalt
 454:Generated_Source\PSoC4/CyDMA.c **** }
 696              		.loc 1 454 0
 697 000a C046     		nop
 698 000c BD46     		mov	sp, r7
 699              		@ sp needed
 700 000e 80BD     		pop	{r7, pc}
 701              		.cfi_endproc
 702              	.LFE16:
 703              		.size	CyDmaDefaultInterruptCallback, .-CyDmaDefaultInterruptCallback
 704              		.section	.text.CyDmaChAlloc,"ax",%progbits
 705              		.align	2
 706              		.global	CyDmaChAlloc
 707              		.code	16
 708              		.thumb_func
 709              		.type	CyDmaChAlloc, %function
 710              	CyDmaChAlloc:
 711              	.LFB17:
 455:Generated_Source\PSoC4/CyDMA.c **** 
 456:Generated_Source\PSoC4/CyDMA.c **** 
 457:Generated_Source\PSoC4/CyDMA.c **** /*******************************************************************************
 458:Generated_Source\PSoC4/CyDMA.c **** * Function Name: CyDmaChAlloc
 459:Generated_Source\PSoC4/CyDMA.c **** ********************************************************************************
 460:Generated_Source\PSoC4/CyDMA.c **** *
 461:Generated_Source\PSoC4/CyDMA.c **** * Summary:
 462:Generated_Source\PSoC4/CyDMA.c **** *  Allocates a channel number to use with later DMA functions.
 463:Generated_Source\PSoC4/CyDMA.c **** *
 464:Generated_Source\PSoC4/CyDMA.c **** * Parameters:
 465:Generated_Source\PSoC4/CyDMA.c **** *  None.
 466:Generated_Source\PSoC4/CyDMA.c **** *                   
 467:Generated_Source\PSoC4/CyDMA.c **** * Return:
 468:Generated_Source\PSoC4/CyDMA.c **** *  The allocated channel number. Zero is a valid channel number.
 469:Generated_Source\PSoC4/CyDMA.c **** *  CYDMA_INVALID_CHANNEL is returned if there are no channels available.
 470:Generated_Source\PSoC4/CyDMA.c **** *
 471:Generated_Source\PSoC4/CyDMA.c **** *******************************************************************************/
 472:Generated_Source\PSoC4/CyDMA.c **** int32 CyDmaChAlloc(void)
 473:Generated_Source\PSoC4/CyDMA.c **** {
 712              		.loc 1 473 0
 713              		.cfi_startproc
 714              		@ args = 0, pretend = 0, frame = 8
 715              		@ frame_needed = 1, uses_anonymous_args = 0
 716 0000 80B5     		push	{r7, lr}
 717              		.cfi_def_cfa_offset 8
 718              		.cfi_offset 7, -8
 719              		.cfi_offset 14, -4
 720 0002 82B0     		sub	sp, sp, #8
 721              		.cfi_def_cfa_offset 16
 722 0004 00AF     		add	r7, sp, #0
 723              		.cfi_def_cfa_register 7
ARM GAS  C:\Users\ADMINI~1\AppData\Local\Temp\ccf1WNrD.s 			page 22


 474:Generated_Source\PSoC4/CyDMA.c ****     int32  channel = CYDMA_CH_NR-1;
 724              		.loc 1 474 0
 725 0006 0723     		movs	r3, #7
 726 0008 7B60     		str	r3, [r7, #4]
 475:Generated_Source\PSoC4/CyDMA.c ****     uint32 channelMask = (uint32)(1UL << (CYDMA_CH_NR-1));
 727              		.loc 1 475 0
 728 000a 8023     		movs	r3, #128
 729 000c 3B60     		str	r3, [r7]
 476:Generated_Source\PSoC4/CyDMA.c ****     
 477:Generated_Source\PSoC4/CyDMA.c ****     while (channel >= 0)
 730              		.loc 1 477 0
 731 000e 11E0     		b	.L65
 732              	.L68:
 478:Generated_Source\PSoC4/CyDMA.c ****     {
 479:Generated_Source\PSoC4/CyDMA.c ****         if(0u == (CyDmaChannelUsedMask & channelMask))
 733              		.loc 1 479 0
 734 0010 0C4B     		ldr	r3, .L70
 735 0012 1B68     		ldr	r3, [r3]
 736 0014 3A68     		ldr	r2, [r7]
 737 0016 1340     		ands	r3, r2
 738 0018 06D1     		bne	.L66
 480:Generated_Source\PSoC4/CyDMA.c ****         {
 481:Generated_Source\PSoC4/CyDMA.c ****             /* Mark channel as used and exit loop. */ 
 482:Generated_Source\PSoC4/CyDMA.c ****             CyDmaChannelUsedMask |= channelMask;
 739              		.loc 1 482 0
 740 001a 0A4B     		ldr	r3, .L70
 741 001c 1A68     		ldr	r2, [r3]
 742 001e 3B68     		ldr	r3, [r7]
 743 0020 1A43     		orrs	r2, r3
 744 0022 084B     		ldr	r3, .L70
 745 0024 1A60     		str	r2, [r3]
 483:Generated_Source\PSoC4/CyDMA.c ****             break;
 746              		.loc 1 483 0
 747 0026 08E0     		b	.L67
 748              	.L66:
 484:Generated_Source\PSoC4/CyDMA.c ****         }
 485:Generated_Source\PSoC4/CyDMA.c ****         channelMask >>= 1;
 749              		.loc 1 485 0
 750 0028 3B68     		ldr	r3, [r7]
 751 002a 5B08     		lsrs	r3, r3, #1
 752 002c 3B60     		str	r3, [r7]
 486:Generated_Source\PSoC4/CyDMA.c ****         --channel;
 753              		.loc 1 486 0
 754 002e 7B68     		ldr	r3, [r7, #4]
 755 0030 013B     		subs	r3, r3, #1
 756 0032 7B60     		str	r3, [r7, #4]
 757              	.L65:
 477:Generated_Source\PSoC4/CyDMA.c ****     {
 758              		.loc 1 477 0
 759 0034 7B68     		ldr	r3, [r7, #4]
 760 0036 002B     		cmp	r3, #0
 761 0038 EADA     		bge	.L68
 762              	.L67:
 487:Generated_Source\PSoC4/CyDMA.c ****     }
 488:Generated_Source\PSoC4/CyDMA.c ****     return (channel);
 763              		.loc 1 488 0
 764 003a 7B68     		ldr	r3, [r7, #4]
ARM GAS  C:\Users\ADMINI~1\AppData\Local\Temp\ccf1WNrD.s 			page 23


 489:Generated_Source\PSoC4/CyDMA.c **** }
 765              		.loc 1 489 0
 766 003c 1800     		movs	r0, r3
 767 003e BD46     		mov	sp, r7
 768 0040 02B0     		add	sp, sp, #8
 769              		@ sp needed
 770 0042 80BD     		pop	{r7, pc}
 771              	.L71:
 772              		.align	2
 773              	.L70:
 774 0044 20000000 		.word	CyDmaChannelUsedMask
 775              		.cfi_endproc
 776              	.LFE17:
 777              		.size	CyDmaChAlloc, .-CyDmaChAlloc
 778              		.section	.text.CyDmaChFree,"ax",%progbits
 779              		.align	2
 780              		.global	CyDmaChFree
 781              		.code	16
 782              		.thumb_func
 783              		.type	CyDmaChFree, %function
 784              	CyDmaChFree:
 785              	.LFB18:
 490:Generated_Source\PSoC4/CyDMA.c **** 
 491:Generated_Source\PSoC4/CyDMA.c **** 
 492:Generated_Source\PSoC4/CyDMA.c **** /*******************************************************************************
 493:Generated_Source\PSoC4/CyDMA.c **** * Function Name: CyDmaChFree
 494:Generated_Source\PSoC4/CyDMA.c **** ********************************************************************************
 495:Generated_Source\PSoC4/CyDMA.c **** *
 496:Generated_Source\PSoC4/CyDMA.c **** * Summary:
 497:Generated_Source\PSoC4/CyDMA.c **** *  Frees a channel handle allocated by CyDmaChAlloc(). Channels allocated for
 498:Generated_Source\PSoC4/CyDMA.c **** *  DMA instances placed on a schematic cannot be freed.
 499:Generated_Source\PSoC4/CyDMA.c **** *
 500:Generated_Source\PSoC4/CyDMA.c **** * Parameters:
 501:Generated_Source\PSoC4/CyDMA.c **** *  channel: The handle previously returned by CyDmaChAlloc().
 502:Generated_Source\PSoC4/CyDMA.c **** *                   
 503:Generated_Source\PSoC4/CyDMA.c **** * Return:
 504:Generated_Source\PSoC4/CyDMA.c **** *  CYRET_SUCCESS if successful.
 505:Generated_Source\PSoC4/CyDMA.c **** *  CYRET_BAD_PARAM if channel is invalid.
 506:Generated_Source\PSoC4/CyDMA.c **** *
 507:Generated_Source\PSoC4/CyDMA.c **** *******************************************************************************/
 508:Generated_Source\PSoC4/CyDMA.c **** cystatus CyDmaChFree(int32 channel)
 509:Generated_Source\PSoC4/CyDMA.c **** {
 786              		.loc 1 509 0
 787              		.cfi_startproc
 788              		@ args = 0, pretend = 0, frame = 16
 789              		@ frame_needed = 1, uses_anonymous_args = 0
 790 0000 80B5     		push	{r7, lr}
 791              		.cfi_def_cfa_offset 8
 792              		.cfi_offset 7, -8
 793              		.cfi_offset 14, -4
 794 0002 84B0     		sub	sp, sp, #16
 795              		.cfi_def_cfa_offset 24
 796 0004 00AF     		add	r7, sp, #0
 797              		.cfi_def_cfa_register 7
 798 0006 7860     		str	r0, [r7, #4]
 510:Generated_Source\PSoC4/CyDMA.c ****     uint32   channelMask;
 511:Generated_Source\PSoC4/CyDMA.c ****     cystatus result = CYRET_BAD_PARAM;
ARM GAS  C:\Users\ADMINI~1\AppData\Local\Temp\ccf1WNrD.s 			page 24


 799              		.loc 1 511 0
 800 0008 0123     		movs	r3, #1
 801 000a FB60     		str	r3, [r7, #12]
 512:Generated_Source\PSoC4/CyDMA.c **** 
 513:Generated_Source\PSoC4/CyDMA.c ****     CYASSERT((channel >= 0) && (channel < CYDMA_CH_NR));
 802              		.loc 1 513 0
 803 000c 7B68     		ldr	r3, [r7, #4]
 804 000e 002B     		cmp	r3, #0
 805 0010 04DB     		blt	.L73
 806              		.loc 1 513 0 is_stmt 0 discriminator 1
 807 0012 7B68     		ldr	r3, [r7, #4]
 808 0014 072B     		cmp	r3, #7
 809 0016 01DC     		bgt	.L73
 810              		.loc 1 513 0 discriminator 3
 811 0018 0123     		movs	r3, #1
 812 001a 00E0     		b	.L74
 813              	.L73:
 814              		.loc 1 513 0 discriminator 4
 815 001c 0023     		movs	r3, #0
 816              	.L74:
 817              		.loc 1 513 0 discriminator 6
 818 001e 002B     		cmp	r3, #0
 819 0020 02D1     		bne	.L75
 820              		.loc 1 513 0 discriminator 7
 821 0022 0020     		movs	r0, #0
 822 0024 FFF7FEFF 		bl	CyHalt
 823              	.L75:
 514:Generated_Source\PSoC4/CyDMA.c ****     
 515:Generated_Source\PSoC4/CyDMA.c ****     channelMask = (uint32)(1UL << channel);
 824              		.loc 1 515 0 is_stmt 1
 825 0028 0122     		movs	r2, #1
 826 002a 7B68     		ldr	r3, [r7, #4]
 827 002c 9A40     		lsls	r2, r2, r3
 828 002e 1300     		movs	r3, r2
 829 0030 BB60     		str	r3, [r7, #8]
 516:Generated_Source\PSoC4/CyDMA.c **** 
 517:Generated_Source\PSoC4/CyDMA.c ****     /* Check against attempt to free channel allocated for DMA instance
 518:Generated_Source\PSoC4/CyDMA.c ****     * placed on schematic.
 519:Generated_Source\PSoC4/CyDMA.c ****     */
 520:Generated_Source\PSoC4/CyDMA.c ****     if(0u == (channelMask & DMA_CHANNELS_USED__MASK))
 830              		.loc 1 520 0
 831 0032 BB68     		ldr	r3, [r7, #8]
 832 0034 0422     		movs	r2, #4
 833 0036 1340     		ands	r3, r2
 834 0038 08D1     		bne	.L76
 521:Generated_Source\PSoC4/CyDMA.c ****     {
 522:Generated_Source\PSoC4/CyDMA.c ****         CyDmaChannelUsedMask &= (uint32)~channelMask;
 835              		.loc 1 522 0
 836 003a BB68     		ldr	r3, [r7, #8]
 837 003c DA43     		mvns	r2, r3
 838 003e 064B     		ldr	r3, .L78
 839 0040 1B68     		ldr	r3, [r3]
 840 0042 1A40     		ands	r2, r3
 841 0044 044B     		ldr	r3, .L78
 842 0046 1A60     		str	r2, [r3]
 523:Generated_Source\PSoC4/CyDMA.c ****         result = CYRET_SUCCESS;
 843              		.loc 1 523 0
ARM GAS  C:\Users\ADMINI~1\AppData\Local\Temp\ccf1WNrD.s 			page 25


 844 0048 0023     		movs	r3, #0
 845 004a FB60     		str	r3, [r7, #12]
 846              	.L76:
 524:Generated_Source\PSoC4/CyDMA.c ****     }
 525:Generated_Source\PSoC4/CyDMA.c ****     
 526:Generated_Source\PSoC4/CyDMA.c ****     return (result);
 847              		.loc 1 526 0
 848 004c FB68     		ldr	r3, [r7, #12]
 527:Generated_Source\PSoC4/CyDMA.c **** }
 849              		.loc 1 527 0
 850 004e 1800     		movs	r0, r3
 851 0050 BD46     		mov	sp, r7
 852 0052 04B0     		add	sp, sp, #16
 853              		@ sp needed
 854 0054 80BD     		pop	{r7, pc}
 855              	.L79:
 856 0056 C046     		.align	2
 857              	.L78:
 858 0058 20000000 		.word	CyDmaChannelUsedMask
 859              		.cfi_endproc
 860              	.LFE18:
 861              		.size	CyDmaChFree, .-CyDmaChFree
 862              		.section	.text.CyDmaChEnable,"ax",%progbits
 863              		.align	2
 864              		.global	CyDmaChEnable
 865              		.code	16
 866              		.thumb_func
 867              		.type	CyDmaChEnable, %function
 868              	CyDmaChEnable:
 869              	.LFB19:
 528:Generated_Source\PSoC4/CyDMA.c **** 
 529:Generated_Source\PSoC4/CyDMA.c **** 
 530:Generated_Source\PSoC4/CyDMA.c **** /*******************************************************************************
 531:Generated_Source\PSoC4/CyDMA.c **** * Function Name: CyDmaChEnable
 532:Generated_Source\PSoC4/CyDMA.c **** ********************************************************************************
 533:Generated_Source\PSoC4/CyDMA.c **** *
 534:Generated_Source\PSoC4/CyDMA.c **** * Summary:
 535:Generated_Source\PSoC4/CyDMA.c **** *  Enables the DMA channel.
 536:Generated_Source\PSoC4/CyDMA.c **** *
 537:Generated_Source\PSoC4/CyDMA.c **** * Parameters:
 538:Generated_Source\PSoC4/CyDMA.c **** *  channel: Channel used by this function.
 539:Generated_Source\PSoC4/CyDMA.c **** *                   
 540:Generated_Source\PSoC4/CyDMA.c **** * Return:
 541:Generated_Source\PSoC4/CyDMA.c **** *  None.
 542:Generated_Source\PSoC4/CyDMA.c **** *
 543:Generated_Source\PSoC4/CyDMA.c **** * Side effect:
 544:Generated_Source\PSoC4/CyDMA.c **** *  If this function is called before CyDmaSetConfiguration(), and
 545:Generated_Source\PSoC4/CyDMA.c **** *  CyDmaSetSrcAddress() and CyDmaSetDstAddress(), the operation of
 546:Generated_Source\PSoC4/CyDMA.c **** *  the DMA is undefined and could result in system data corruption. 
 547:Generated_Source\PSoC4/CyDMA.c **** *
 548:Generated_Source\PSoC4/CyDMA.c **** *******************************************************************************/
 549:Generated_Source\PSoC4/CyDMA.c **** void CyDmaChEnable(int32 channel)
 550:Generated_Source\PSoC4/CyDMA.c **** {
 870              		.loc 1 550 0
 871              		.cfi_startproc
 872              		@ args = 0, pretend = 0, frame = 8
 873              		@ frame_needed = 1, uses_anonymous_args = 0
ARM GAS  C:\Users\ADMINI~1\AppData\Local\Temp\ccf1WNrD.s 			page 26


 874 0000 80B5     		push	{r7, lr}
 875              		.cfi_def_cfa_offset 8
 876              		.cfi_offset 7, -8
 877              		.cfi_offset 14, -4
 878 0002 82B0     		sub	sp, sp, #8
 879              		.cfi_def_cfa_offset 16
 880 0004 00AF     		add	r7, sp, #0
 881              		.cfi_def_cfa_register 7
 882 0006 7860     		str	r0, [r7, #4]
 551:Generated_Source\PSoC4/CyDMA.c ****     CYASSERT((channel >= 0) && (channel < CYDMA_CH_NR));
 883              		.loc 1 551 0
 884 0008 7B68     		ldr	r3, [r7, #4]
 885 000a 002B     		cmp	r3, #0
 886 000c 04DB     		blt	.L81
 887              		.loc 1 551 0 is_stmt 0 discriminator 1
 888 000e 7B68     		ldr	r3, [r7, #4]
 889 0010 072B     		cmp	r3, #7
 890 0012 01DC     		bgt	.L81
 891              		.loc 1 551 0 discriminator 3
 892 0014 0123     		movs	r3, #1
 893 0016 00E0     		b	.L82
 894              	.L81:
 895              		.loc 1 551 0 discriminator 4
 896 0018 0023     		movs	r3, #0
 897              	.L82:
 898              		.loc 1 551 0 discriminator 6
 899 001a 002B     		cmp	r3, #0
 900 001c 02D1     		bne	.L83
 901              		.loc 1 551 0 discriminator 7
 902 001e 0020     		movs	r0, #0
 903 0020 FFF7FEFF 		bl	CyHalt
 904              	.L83:
 552:Generated_Source\PSoC4/CyDMA.c **** 
 553:Generated_Source\PSoC4/CyDMA.c ****     CYDMA_CH_CTL_BASE.ctl[channel] |= CYDMA_ENABLED;
 905              		.loc 1 553 0 is_stmt 1
 906 0024 0749     		ldr	r1, .L84
 907 0026 074A     		ldr	r2, .L84
 908 0028 7B68     		ldr	r3, [r7, #4]
 909 002a 9B00     		lsls	r3, r3, #2
 910 002c 9B58     		ldr	r3, [r3, r2]
 911 002e 8022     		movs	r2, #128
 912 0030 1206     		lsls	r2, r2, #24
 913 0032 1A43     		orrs	r2, r3
 914 0034 7B68     		ldr	r3, [r7, #4]
 915 0036 9B00     		lsls	r3, r3, #2
 916 0038 5A50     		str	r2, [r3, r1]
 554:Generated_Source\PSoC4/CyDMA.c **** }
 917              		.loc 1 554 0
 918 003a C046     		nop
 919 003c BD46     		mov	sp, r7
 920 003e 02B0     		add	sp, sp, #8
 921              		@ sp needed
 922 0040 80BD     		pop	{r7, pc}
 923              	.L85:
 924 0042 C046     		.align	2
 925              	.L84:
 926 0044 80101040 		.word	1074794624
ARM GAS  C:\Users\ADMINI~1\AppData\Local\Temp\ccf1WNrD.s 			page 27


 927              		.cfi_endproc
 928              	.LFE19:
 929              		.size	CyDmaChEnable, .-CyDmaChEnable
 930              		.section	.text.CyDmaChDisable,"ax",%progbits
 931              		.align	2
 932              		.global	CyDmaChDisable
 933              		.code	16
 934              		.thumb_func
 935              		.type	CyDmaChDisable, %function
 936              	CyDmaChDisable:
 937              	.LFB20:
 555:Generated_Source\PSoC4/CyDMA.c **** 
 556:Generated_Source\PSoC4/CyDMA.c **** 
 557:Generated_Source\PSoC4/CyDMA.c **** /*******************************************************************************
 558:Generated_Source\PSoC4/CyDMA.c **** * Function Name: CyDmaChDisable
 559:Generated_Source\PSoC4/CyDMA.c **** ********************************************************************************
 560:Generated_Source\PSoC4/CyDMA.c **** *
 561:Generated_Source\PSoC4/CyDMA.c **** * Summary:
 562:Generated_Source\PSoC4/CyDMA.c **** *  Disables the DMA channel.
 563:Generated_Source\PSoC4/CyDMA.c **** *
 564:Generated_Source\PSoC4/CyDMA.c **** * Parameters:
 565:Generated_Source\PSoC4/CyDMA.c **** *  channel: Channel used by this function.
 566:Generated_Source\PSoC4/CyDMA.c **** *                   
 567:Generated_Source\PSoC4/CyDMA.c **** * Return:
 568:Generated_Source\PSoC4/CyDMA.c **** *  None.
 569:Generated_Source\PSoC4/CyDMA.c **** *
 570:Generated_Source\PSoC4/CyDMA.c **** * Side effect:
 571:Generated_Source\PSoC4/CyDMA.c **** *  If this function is called during a DMA transfer the transfer is aborted. 
 572:Generated_Source\PSoC4/CyDMA.c **** *
 573:Generated_Source\PSoC4/CyDMA.c **** *******************************************************************************/
 574:Generated_Source\PSoC4/CyDMA.c **** void CyDmaChDisable(int32 channel)
 575:Generated_Source\PSoC4/CyDMA.c **** {
 938              		.loc 1 575 0
 939              		.cfi_startproc
 940              		@ args = 0, pretend = 0, frame = 8
 941              		@ frame_needed = 1, uses_anonymous_args = 0
 942 0000 80B5     		push	{r7, lr}
 943              		.cfi_def_cfa_offset 8
 944              		.cfi_offset 7, -8
 945              		.cfi_offset 14, -4
 946 0002 82B0     		sub	sp, sp, #8
 947              		.cfi_def_cfa_offset 16
 948 0004 00AF     		add	r7, sp, #0
 949              		.cfi_def_cfa_register 7
 950 0006 7860     		str	r0, [r7, #4]
 576:Generated_Source\PSoC4/CyDMA.c ****     CYASSERT((channel >= 0) && (channel < CYDMA_CH_NR));
 951              		.loc 1 576 0
 952 0008 7B68     		ldr	r3, [r7, #4]
 953 000a 002B     		cmp	r3, #0
 954 000c 04DB     		blt	.L87
 955              		.loc 1 576 0 is_stmt 0 discriminator 1
 956 000e 7B68     		ldr	r3, [r7, #4]
 957 0010 072B     		cmp	r3, #7
 958 0012 01DC     		bgt	.L87
 959              		.loc 1 576 0 discriminator 3
 960 0014 0123     		movs	r3, #1
 961 0016 00E0     		b	.L88
ARM GAS  C:\Users\ADMINI~1\AppData\Local\Temp\ccf1WNrD.s 			page 28


 962              	.L87:
 963              		.loc 1 576 0 discriminator 4
 964 0018 0023     		movs	r3, #0
 965              	.L88:
 966              		.loc 1 576 0 discriminator 6
 967 001a 002B     		cmp	r3, #0
 968 001c 02D1     		bne	.L89
 969              		.loc 1 576 0 discriminator 7
 970 001e 0020     		movs	r0, #0
 971 0020 FFF7FEFF 		bl	CyHalt
 972              	.L89:
 577:Generated_Source\PSoC4/CyDMA.c **** 
 578:Generated_Source\PSoC4/CyDMA.c ****     CYDMA_CH_CTL_BASE.ctl[channel] &= (uint32)~CYDMA_ENABLED;
 973              		.loc 1 578 0 is_stmt 1
 974 0024 0649     		ldr	r1, .L90
 975 0026 064A     		ldr	r2, .L90
 976 0028 7B68     		ldr	r3, [r7, #4]
 977 002a 9B00     		lsls	r3, r3, #2
 978 002c 9B58     		ldr	r3, [r3, r2]
 979 002e 5B00     		lsls	r3, r3, #1
 980 0030 5A08     		lsrs	r2, r3, #1
 981 0032 7B68     		ldr	r3, [r7, #4]
 982 0034 9B00     		lsls	r3, r3, #2
 983 0036 5A50     		str	r2, [r3, r1]
 579:Generated_Source\PSoC4/CyDMA.c **** }
 984              		.loc 1 579 0
 985 0038 C046     		nop
 986 003a BD46     		mov	sp, r7
 987 003c 02B0     		add	sp, sp, #8
 988              		@ sp needed
 989 003e 80BD     		pop	{r7, pc}
 990              	.L91:
 991              		.align	2
 992              	.L90:
 993 0040 80101040 		.word	1074794624
 994              		.cfi_endproc
 995              	.LFE20:
 996              		.size	CyDmaChDisable, .-CyDmaChDisable
 997              		.section	.text.CyDmaTrigger,"ax",%progbits
 998              		.align	2
 999              		.global	CyDmaTrigger
 1000              		.code	16
 1001              		.thumb_func
 1002              		.type	CyDmaTrigger, %function
 1003              	CyDmaTrigger:
 1004              	.LFB21:
 580:Generated_Source\PSoC4/CyDMA.c **** 
 581:Generated_Source\PSoC4/CyDMA.c **** 
 582:Generated_Source\PSoC4/CyDMA.c **** /*******************************************************************************
 583:Generated_Source\PSoC4/CyDMA.c **** * Function Name: CyDmaTrigger
 584:Generated_Source\PSoC4/CyDMA.c **** ********************************************************************************
 585:Generated_Source\PSoC4/CyDMA.c **** *
 586:Generated_Source\PSoC4/CyDMA.c **** * Summary:
 587:Generated_Source\PSoC4/CyDMA.c **** *  Triggers the DMA channel, this is useful only for software triggers. This is
 588:Generated_Source\PSoC4/CyDMA.c **** *  not needed when hardware triggers are used.
 589:Generated_Source\PSoC4/CyDMA.c **** *
 590:Generated_Source\PSoC4/CyDMA.c **** * Parameters:
ARM GAS  C:\Users\ADMINI~1\AppData\Local\Temp\ccf1WNrD.s 			page 29


 591:Generated_Source\PSoC4/CyDMA.c **** *  channel: Channel used by this function.
 592:Generated_Source\PSoC4/CyDMA.c **** *                   
 593:Generated_Source\PSoC4/CyDMA.c **** * Return:
 594:Generated_Source\PSoC4/CyDMA.c **** *  None. 
 595:Generated_Source\PSoC4/CyDMA.c **** *
 596:Generated_Source\PSoC4/CyDMA.c **** *******************************************************************************/
 597:Generated_Source\PSoC4/CyDMA.c **** void CyDmaTrigger(int32 channel)
 598:Generated_Source\PSoC4/CyDMA.c **** {
 1005              		.loc 1 598 0
 1006              		.cfi_startproc
 1007              		@ args = 0, pretend = 0, frame = 8
 1008              		@ frame_needed = 1, uses_anonymous_args = 0
 1009 0000 80B5     		push	{r7, lr}
 1010              		.cfi_def_cfa_offset 8
 1011              		.cfi_offset 7, -8
 1012              		.cfi_offset 14, -4
 1013 0002 82B0     		sub	sp, sp, #8
 1014              		.cfi_def_cfa_offset 16
 1015 0004 00AF     		add	r7, sp, #0
 1016              		.cfi_def_cfa_register 7
 1017 0006 7860     		str	r0, [r7, #4]
 599:Generated_Source\PSoC4/CyDMA.c ****     /* The LUT is device-dependent, thus it is generated during the build process. */
 600:Generated_Source\PSoC4/CyDMA.c ****     static const uint32 trCtlLut[] = {0xC0020000U};
 601:Generated_Source\PSoC4/CyDMA.c **** 
 602:Generated_Source\PSoC4/CyDMA.c ****     CYASSERT((channel >= 0) && (channel < CYDMA_CH_NR));
 1018              		.loc 1 602 0
 1019 0008 7B68     		ldr	r3, [r7, #4]
 1020 000a 002B     		cmp	r3, #0
 1021 000c 04DB     		blt	.L93
 1022              		.loc 1 602 0 is_stmt 0 discriminator 1
 1023 000e 7B68     		ldr	r3, [r7, #4]
 1024 0010 072B     		cmp	r3, #7
 1025 0012 01DC     		bgt	.L93
 1026              		.loc 1 602 0 discriminator 3
 1027 0014 0123     		movs	r3, #1
 1028 0016 00E0     		b	.L94
 1029              	.L93:
 1030              		.loc 1 602 0 discriminator 4
 1031 0018 0023     		movs	r3, #0
 1032              	.L94:
 1033              		.loc 1 602 0 discriminator 6
 1034 001a 002B     		cmp	r3, #0
 1035 001c 02D1     		bne	.L95
 1036              		.loc 1 602 0 discriminator 7
 1037 001e 0020     		movs	r0, #0
 1038 0020 FFF7FEFF 		bl	CyHalt
 1039              	.L95:
 603:Generated_Source\PSoC4/CyDMA.c **** 
 604:Generated_Source\PSoC4/CyDMA.c ****     CYDMA_TR_CTL_REG = trCtlLut[(uint32)channel >> CYDMA_TR_GROUP_SHR] | ((uint32)channel & CYDMA_T
 1040              		.loc 1 604 0 is_stmt 1
 1041 0024 074B     		ldr	r3, .L96
 1042 0026 7A68     		ldr	r2, [r7, #4]
 1043 0028 D108     		lsrs	r1, r2, #3
 1044 002a 074A     		ldr	r2, .L96+4
 1045 002c 8900     		lsls	r1, r1, #2
 1046 002e 8958     		ldr	r1, [r1, r2]
 1047 0030 7A68     		ldr	r2, [r7, #4]
ARM GAS  C:\Users\ADMINI~1\AppData\Local\Temp\ccf1WNrD.s 			page 30


 1048 0032 0720     		movs	r0, #7
 1049 0034 0240     		ands	r2, r0
 1050 0036 0A43     		orrs	r2, r1
 1051 0038 1A60     		str	r2, [r3]
 605:Generated_Source\PSoC4/CyDMA.c **** }
 1052              		.loc 1 605 0
 1053 003a C046     		nop
 1054 003c BD46     		mov	sp, r7
 1055 003e 02B0     		add	sp, sp, #8
 1056              		@ sp needed
 1057 0040 80BD     		pop	{r7, pc}
 1058              	.L97:
 1059 0042 C046     		.align	2
 1060              	.L96:
 1061 0044 00060140 		.word	1073808896
 1062 0048 00000000 		.word	trCtlLut.5081
 1063              		.cfi_endproc
 1064              	.LFE21:
 1065              		.size	CyDmaTrigger, .-CyDmaTrigger
 1066              		.section	.text.CyDmaSetPriority,"ax",%progbits
 1067              		.align	2
 1068              		.global	CyDmaSetPriority
 1069              		.code	16
 1070              		.thumb_func
 1071              		.type	CyDmaSetPriority, %function
 1072              	CyDmaSetPriority:
 1073              	.LFB22:
 606:Generated_Source\PSoC4/CyDMA.c **** 
 607:Generated_Source\PSoC4/CyDMA.c **** 
 608:Generated_Source\PSoC4/CyDMA.c **** /*******************************************************************************
 609:Generated_Source\PSoC4/CyDMA.c **** * Function Name: CyDmaSetPriority
 610:Generated_Source\PSoC4/CyDMA.c **** ********************************************************************************
 611:Generated_Source\PSoC4/CyDMA.c **** *
 612:Generated_Source\PSoC4/CyDMA.c **** * Summary:
 613:Generated_Source\PSoC4/CyDMA.c **** *  Sets the priority for the channel.
 614:Generated_Source\PSoC4/CyDMA.c **** *
 615:Generated_Source\PSoC4/CyDMA.c **** * Parameters:
 616:Generated_Source\PSoC4/CyDMA.c **** *  channel:  Channel used by this function
 617:Generated_Source\PSoC4/CyDMA.c **** *  priority: Priority for channel. Priority can be 0,1,2, or 3.
 618:Generated_Source\PSoC4/CyDMA.c **** *            0 is the highest priority.
 619:Generated_Source\PSoC4/CyDMA.c **** *                   
 620:Generated_Source\PSoC4/CyDMA.c **** * Return:
 621:Generated_Source\PSoC4/CyDMA.c **** *  None.
 622:Generated_Source\PSoC4/CyDMA.c **** *
 623:Generated_Source\PSoC4/CyDMA.c **** * Side effect:
 624:Generated_Source\PSoC4/CyDMA.c **** *  This function should not be called while the channel is enabled.
 625:Generated_Source\PSoC4/CyDMA.c **** *
 626:Generated_Source\PSoC4/CyDMA.c **** *******************************************************************************/
 627:Generated_Source\PSoC4/CyDMA.c **** void CyDmaSetPriority(int32 channel, int32 priority)
 628:Generated_Source\PSoC4/CyDMA.c **** {
 1074              		.loc 1 628 0
 1075              		.cfi_startproc
 1076              		@ args = 0, pretend = 0, frame = 16
 1077              		@ frame_needed = 1, uses_anonymous_args = 0
 1078 0000 80B5     		push	{r7, lr}
 1079              		.cfi_def_cfa_offset 8
 1080              		.cfi_offset 7, -8
ARM GAS  C:\Users\ADMINI~1\AppData\Local\Temp\ccf1WNrD.s 			page 31


 1081              		.cfi_offset 14, -4
 1082 0002 84B0     		sub	sp, sp, #16
 1083              		.cfi_def_cfa_offset 24
 1084 0004 00AF     		add	r7, sp, #0
 1085              		.cfi_def_cfa_register 7
 1086 0006 7860     		str	r0, [r7, #4]
 1087 0008 3960     		str	r1, [r7]
 629:Generated_Source\PSoC4/CyDMA.c ****     uint32 regValue;
 630:Generated_Source\PSoC4/CyDMA.c **** 
 631:Generated_Source\PSoC4/CyDMA.c ****     CYASSERT((channel  >= 0) && (channel  <  CYDMA_CH_NR));
 1088              		.loc 1 631 0
 1089 000a 7B68     		ldr	r3, [r7, #4]
 1090 000c 002B     		cmp	r3, #0
 1091 000e 04DB     		blt	.L99
 1092              		.loc 1 631 0 is_stmt 0 discriminator 1
 1093 0010 7B68     		ldr	r3, [r7, #4]
 1094 0012 072B     		cmp	r3, #7
 1095 0014 01DC     		bgt	.L99
 1096              		.loc 1 631 0 discriminator 3
 1097 0016 0123     		movs	r3, #1
 1098 0018 00E0     		b	.L100
 1099              	.L99:
 1100              		.loc 1 631 0 discriminator 4
 1101 001a 0023     		movs	r3, #0
 1102              	.L100:
 1103              		.loc 1 631 0 discriminator 6
 1104 001c 002B     		cmp	r3, #0
 1105 001e 02D1     		bne	.L101
 1106              		.loc 1 631 0 discriminator 7
 1107 0020 0020     		movs	r0, #0
 1108 0022 FFF7FEFF 		bl	CyHalt
 1109              	.L101:
 632:Generated_Source\PSoC4/CyDMA.c ****     CYASSERT((priority >= 0) && (priority <= CY_DMA_MAX_PRIO));
 1110              		.loc 1 632 0 is_stmt 1
 1111 0026 3B68     		ldr	r3, [r7]
 1112 0028 002B     		cmp	r3, #0
 1113 002a 04DB     		blt	.L102
 1114              		.loc 1 632 0 is_stmt 0 discriminator 1
 1115 002c 3B68     		ldr	r3, [r7]
 1116 002e 032B     		cmp	r3, #3
 1117 0030 01DC     		bgt	.L102
 1118              		.loc 1 632 0 discriminator 3
 1119 0032 0123     		movs	r3, #1
 1120 0034 00E0     		b	.L103
 1121              	.L102:
 1122              		.loc 1 632 0 discriminator 4
 1123 0036 0023     		movs	r3, #0
 1124              	.L103:
 1125              		.loc 1 632 0 discriminator 6
 1126 0038 002B     		cmp	r3, #0
 1127 003a 02D1     		bne	.L104
 1128              		.loc 1 632 0 discriminator 7
 1129 003c 0020     		movs	r0, #0
 1130 003e FFF7FEFF 		bl	CyHalt
 1131              	.L104:
 633:Generated_Source\PSoC4/CyDMA.c **** 
 634:Generated_Source\PSoC4/CyDMA.c ****     regValue = CYDMA_CH_CTL_BASE.ctl[channel] & (uint32)~CYDMA_PRIO;
ARM GAS  C:\Users\ADMINI~1\AppData\Local\Temp\ccf1WNrD.s 			page 32


 1132              		.loc 1 634 0 is_stmt 1
 1133 0042 094A     		ldr	r2, .L105
 1134 0044 7B68     		ldr	r3, [r7, #4]
 1135 0046 9B00     		lsls	r3, r3, #2
 1136 0048 9B58     		ldr	r3, [r3, r2]
 1137 004a 084A     		ldr	r2, .L105+4
 1138 004c 1340     		ands	r3, r2
 1139 004e FB60     		str	r3, [r7, #12]
 635:Generated_Source\PSoC4/CyDMA.c ****     CYDMA_CH_CTL_BASE.ctl[channel] = regValue | (uint32)((uint32)priority << CYDMA_PRIO_POS);
 1140              		.loc 1 635 0
 1141 0050 0549     		ldr	r1, .L105
 1142 0052 3B68     		ldr	r3, [r7]
 1143 0054 1A07     		lsls	r2, r3, #28
 1144 0056 FB68     		ldr	r3, [r7, #12]
 1145 0058 1A43     		orrs	r2, r3
 1146 005a 7B68     		ldr	r3, [r7, #4]
 1147 005c 9B00     		lsls	r3, r3, #2
 1148 005e 5A50     		str	r2, [r3, r1]
 636:Generated_Source\PSoC4/CyDMA.c **** }
 1149              		.loc 1 636 0
 1150 0060 C046     		nop
 1151 0062 BD46     		mov	sp, r7
 1152 0064 04B0     		add	sp, sp, #16
 1153              		@ sp needed
 1154 0066 80BD     		pop	{r7, pc}
 1155              	.L106:
 1156              		.align	2
 1157              	.L105:
 1158 0068 80101040 		.word	1074794624
 1159 006c FFFFFFCF 		.word	-805306369
 1160              		.cfi_endproc
 1161              	.LFE22:
 1162              		.size	CyDmaSetPriority, .-CyDmaSetPriority
 1163              		.section	.text.CyDmaGetPriority,"ax",%progbits
 1164              		.align	2
 1165              		.global	CyDmaGetPriority
 1166              		.code	16
 1167              		.thumb_func
 1168              		.type	CyDmaGetPriority, %function
 1169              	CyDmaGetPriority:
 1170              	.LFB23:
 637:Generated_Source\PSoC4/CyDMA.c **** 
 638:Generated_Source\PSoC4/CyDMA.c **** 
 639:Generated_Source\PSoC4/CyDMA.c **** /*******************************************************************************
 640:Generated_Source\PSoC4/CyDMA.c **** * Function Name: CyDmaGetPriority
 641:Generated_Source\PSoC4/CyDMA.c **** ********************************************************************************
 642:Generated_Source\PSoC4/CyDMA.c **** *
 643:Generated_Source\PSoC4/CyDMA.c **** * Summary:
 644:Generated_Source\PSoC4/CyDMA.c **** *  Gets the priority for the channel.
 645:Generated_Source\PSoC4/CyDMA.c **** *
 646:Generated_Source\PSoC4/CyDMA.c **** * Parameters:
 647:Generated_Source\PSoC4/CyDMA.c **** *  channel: Channel used by this function.
 648:Generated_Source\PSoC4/CyDMA.c **** *                   
 649:Generated_Source\PSoC4/CyDMA.c **** * Return:
 650:Generated_Source\PSoC4/CyDMA.c **** *  Priority for channel. Priority can be 0,1,2, or 3. 0 is the highest priority.
 651:Generated_Source\PSoC4/CyDMA.c **** *
 652:Generated_Source\PSoC4/CyDMA.c **** *******************************************************************************/
ARM GAS  C:\Users\ADMINI~1\AppData\Local\Temp\ccf1WNrD.s 			page 33


 653:Generated_Source\PSoC4/CyDMA.c **** int32 CyDmaGetPriority(int32 channel)
 654:Generated_Source\PSoC4/CyDMA.c **** {
 1171              		.loc 1 654 0
 1172              		.cfi_startproc
 1173              		@ args = 0, pretend = 0, frame = 16
 1174              		@ frame_needed = 1, uses_anonymous_args = 0
 1175 0000 80B5     		push	{r7, lr}
 1176              		.cfi_def_cfa_offset 8
 1177              		.cfi_offset 7, -8
 1178              		.cfi_offset 14, -4
 1179 0002 84B0     		sub	sp, sp, #16
 1180              		.cfi_def_cfa_offset 24
 1181 0004 00AF     		add	r7, sp, #0
 1182              		.cfi_def_cfa_register 7
 1183 0006 7860     		str	r0, [r7, #4]
 655:Generated_Source\PSoC4/CyDMA.c ****     uint32 priority;
 656:Generated_Source\PSoC4/CyDMA.c **** 
 657:Generated_Source\PSoC4/CyDMA.c ****     CYASSERT((channel >= 0) && (channel < CYDMA_CH_NR));
 1184              		.loc 1 657 0
 1185 0008 7B68     		ldr	r3, [r7, #4]
 1186 000a 002B     		cmp	r3, #0
 1187 000c 04DB     		blt	.L108
 1188              		.loc 1 657 0 is_stmt 0 discriminator 1
 1189 000e 7B68     		ldr	r3, [r7, #4]
 1190 0010 072B     		cmp	r3, #7
 1191 0012 01DC     		bgt	.L108
 1192              		.loc 1 657 0 discriminator 3
 1193 0014 0123     		movs	r3, #1
 1194 0016 00E0     		b	.L109
 1195              	.L108:
 1196              		.loc 1 657 0 discriminator 4
 1197 0018 0023     		movs	r3, #0
 1198              	.L109:
 1199              		.loc 1 657 0 discriminator 6
 1200 001a 002B     		cmp	r3, #0
 1201 001c 02D1     		bne	.L110
 1202              		.loc 1 657 0 discriminator 7
 1203 001e 0020     		movs	r0, #0
 1204 0020 FFF7FEFF 		bl	CyHalt
 1205              	.L110:
 658:Generated_Source\PSoC4/CyDMA.c **** 
 659:Generated_Source\PSoC4/CyDMA.c ****     priority = (CYDMA_CH_CTL_BASE.ctl[channel] & CYDMA_PRIO) >> CYDMA_PRIO_POS;
 1206              		.loc 1 659 0 is_stmt 1
 1207 0024 064A     		ldr	r2, .L112
 1208 0026 7B68     		ldr	r3, [r7, #4]
 1209 0028 9B00     		lsls	r3, r3, #2
 1210 002a 9A58     		ldr	r2, [r3, r2]
 1211 002c C023     		movs	r3, #192
 1212 002e 9B05     		lsls	r3, r3, #22
 1213 0030 1340     		ands	r3, r2
 1214 0032 1B0F     		lsrs	r3, r3, #28
 1215 0034 FB60     		str	r3, [r7, #12]
 660:Generated_Source\PSoC4/CyDMA.c ****     return ((int32)priority);
 1216              		.loc 1 660 0
 1217 0036 FB68     		ldr	r3, [r7, #12]
 661:Generated_Source\PSoC4/CyDMA.c **** }
 1218              		.loc 1 661 0
ARM GAS  C:\Users\ADMINI~1\AppData\Local\Temp\ccf1WNrD.s 			page 34


 1219 0038 1800     		movs	r0, r3
 1220 003a BD46     		mov	sp, r7
 1221 003c 04B0     		add	sp, sp, #16
 1222              		@ sp needed
 1223 003e 80BD     		pop	{r7, pc}
 1224              	.L113:
 1225              		.align	2
 1226              	.L112:
 1227 0040 80101040 		.word	1074794624
 1228              		.cfi_endproc
 1229              	.LFE23:
 1230              		.size	CyDmaGetPriority, .-CyDmaGetPriority
 1231              		.section	.text.CyDmaSetNextDescriptor,"ax",%progbits
 1232              		.align	2
 1233              		.global	CyDmaSetNextDescriptor
 1234              		.code	16
 1235              		.thumb_func
 1236              		.type	CyDmaSetNextDescriptor, %function
 1237              	CyDmaSetNextDescriptor:
 1238              	.LFB24:
 662:Generated_Source\PSoC4/CyDMA.c **** 
 663:Generated_Source\PSoC4/CyDMA.c **** 
 664:Generated_Source\PSoC4/CyDMA.c **** /*******************************************************************************
 665:Generated_Source\PSoC4/CyDMA.c **** * Function Name: CyDmaSetNextDescriptor
 666:Generated_Source\PSoC4/CyDMA.c **** ********************************************************************************
 667:Generated_Source\PSoC4/CyDMA.c **** *
 668:Generated_Source\PSoC4/CyDMA.c **** * Summary:
 669:Generated_Source\PSoC4/CyDMA.c **** *  Sets the descriptor that should be run the next time the channel is
 670:Generated_Source\PSoC4/CyDMA.c **** *  triggered.
 671:Generated_Source\PSoC4/CyDMA.c **** *
 672:Generated_Source\PSoC4/CyDMA.c **** * Parameters:
 673:Generated_Source\PSoC4/CyDMA.c **** *  channel:    Channel used by this function.
 674:Generated_Source\PSoC4/CyDMA.c **** *  descriptor: Next Descriptor to run (0 or 1).
 675:Generated_Source\PSoC4/CyDMA.c **** *
 676:Generated_Source\PSoC4/CyDMA.c **** * Return:
 677:Generated_Source\PSoC4/CyDMA.c **** *  None.
 678:Generated_Source\PSoC4/CyDMA.c **** *                   
 679:Generated_Source\PSoC4/CyDMA.c **** * Side effect:
 680:Generated_Source\PSoC4/CyDMA.c **** *  This function should not be called while the channel is enabled.
 681:Generated_Source\PSoC4/CyDMA.c **** *
 682:Generated_Source\PSoC4/CyDMA.c **** *******************************************************************************/
 683:Generated_Source\PSoC4/CyDMA.c **** void CyDmaSetNextDescriptor(int32 channel, int32 descriptor)
 684:Generated_Source\PSoC4/CyDMA.c **** {
 1239              		.loc 1 684 0
 1240              		.cfi_startproc
 1241              		@ args = 0, pretend = 0, frame = 16
 1242              		@ frame_needed = 1, uses_anonymous_args = 0
 1243 0000 80B5     		push	{r7, lr}
 1244              		.cfi_def_cfa_offset 8
 1245              		.cfi_offset 7, -8
 1246              		.cfi_offset 14, -4
 1247 0002 84B0     		sub	sp, sp, #16
 1248              		.cfi_def_cfa_offset 24
 1249 0004 00AF     		add	r7, sp, #0
 1250              		.cfi_def_cfa_register 7
 1251 0006 7860     		str	r0, [r7, #4]
 1252 0008 3960     		str	r1, [r7]
ARM GAS  C:\Users\ADMINI~1\AppData\Local\Temp\ccf1WNrD.s 			page 35


 685:Generated_Source\PSoC4/CyDMA.c ****     uint32 regValue;
 686:Generated_Source\PSoC4/CyDMA.c **** 
 687:Generated_Source\PSoC4/CyDMA.c ****     CYASSERT((channel    >= 0) && (channel    < CYDMA_CH_NR));
 1253              		.loc 1 687 0
 1254 000a 7B68     		ldr	r3, [r7, #4]
 1255 000c 002B     		cmp	r3, #0
 1256 000e 04DB     		blt	.L115
 1257              		.loc 1 687 0 is_stmt 0 discriminator 1
 1258 0010 7B68     		ldr	r3, [r7, #4]
 1259 0012 072B     		cmp	r3, #7
 1260 0014 01DC     		bgt	.L115
 1261              		.loc 1 687 0 discriminator 3
 1262 0016 0123     		movs	r3, #1
 1263 0018 00E0     		b	.L116
 1264              	.L115:
 1265              		.loc 1 687 0 discriminator 4
 1266 001a 0023     		movs	r3, #0
 1267              	.L116:
 1268              		.loc 1 687 0 discriminator 6
 1269 001c 002B     		cmp	r3, #0
 1270 001e 02D1     		bne	.L117
 1271              		.loc 1 687 0 discriminator 7
 1272 0020 0020     		movs	r0, #0
 1273 0022 FFF7FEFF 		bl	CyHalt
 1274              	.L117:
 688:Generated_Source\PSoC4/CyDMA.c ****     CYASSERT((descriptor >= 0) && (descriptor < CYDMA_DESCR_NR));
 1275              		.loc 1 688 0 is_stmt 1
 1276 0026 3B68     		ldr	r3, [r7]
 1277 0028 002B     		cmp	r3, #0
 1278 002a 04DB     		blt	.L118
 1279              		.loc 1 688 0 is_stmt 0 discriminator 1
 1280 002c 3B68     		ldr	r3, [r7]
 1281 002e 012B     		cmp	r3, #1
 1282 0030 01DC     		bgt	.L118
 1283              		.loc 1 688 0 discriminator 3
 1284 0032 0123     		movs	r3, #1
 1285 0034 00E0     		b	.L119
 1286              	.L118:
 1287              		.loc 1 688 0 discriminator 4
 1288 0036 0023     		movs	r3, #0
 1289              	.L119:
 1290              		.loc 1 688 0 discriminator 6
 1291 0038 002B     		cmp	r3, #0
 1292 003a 02D1     		bne	.L120
 1293              		.loc 1 688 0 discriminator 7
 1294 003c 0020     		movs	r0, #0
 1295 003e FFF7FEFF 		bl	CyHalt
 1296              	.L120:
 689:Generated_Source\PSoC4/CyDMA.c **** 
 690:Generated_Source\PSoC4/CyDMA.c ****     regValue = CYDMA_CH_CTL_BASE.ctl[channel] & (uint32)~CYDMA_DESCRIPTOR;
 1297              		.loc 1 690 0 is_stmt 1
 1298 0042 094A     		ldr	r2, .L121
 1299 0044 7B68     		ldr	r3, [r7, #4]
 1300 0046 9B00     		lsls	r3, r3, #2
 1301 0048 9B58     		ldr	r3, [r3, r2]
 1302 004a 084A     		ldr	r2, .L121+4
 1303 004c 1340     		ands	r3, r2
ARM GAS  C:\Users\ADMINI~1\AppData\Local\Temp\ccf1WNrD.s 			page 36


 1304 004e FB60     		str	r3, [r7, #12]
 691:Generated_Source\PSoC4/CyDMA.c ****     CYDMA_CH_CTL_BASE.ctl[channel] = regValue | (uint32)((uint32)descriptor << CYDMA_DESCRIPTOR_POS
 1305              		.loc 1 691 0
 1306 0050 0549     		ldr	r1, .L121
 1307 0052 3B68     		ldr	r3, [r7]
 1308 0054 9A07     		lsls	r2, r3, #30
 1309 0056 FB68     		ldr	r3, [r7, #12]
 1310 0058 1A43     		orrs	r2, r3
 1311 005a 7B68     		ldr	r3, [r7, #4]
 1312 005c 9B00     		lsls	r3, r3, #2
 1313 005e 5A50     		str	r2, [r3, r1]
 692:Generated_Source\PSoC4/CyDMA.c **** }
 1314              		.loc 1 692 0
 1315 0060 C046     		nop
 1316 0062 BD46     		mov	sp, r7
 1317 0064 04B0     		add	sp, sp, #16
 1318              		@ sp needed
 1319 0066 80BD     		pop	{r7, pc}
 1320              	.L122:
 1321              		.align	2
 1322              	.L121:
 1323 0068 80101040 		.word	1074794624
 1324 006c FFFFFFBF 		.word	-1073741825
 1325              		.cfi_endproc
 1326              	.LFE24:
 1327              		.size	CyDmaSetNextDescriptor, .-CyDmaSetNextDescriptor
 1328              		.section	.text.CyDmaGetNextDescriptor,"ax",%progbits
 1329              		.align	2
 1330              		.global	CyDmaGetNextDescriptor
 1331              		.code	16
 1332              		.thumb_func
 1333              		.type	CyDmaGetNextDescriptor, %function
 1334              	CyDmaGetNextDescriptor:
 1335              	.LFB25:
 693:Generated_Source\PSoC4/CyDMA.c **** 
 694:Generated_Source\PSoC4/CyDMA.c **** 
 695:Generated_Source\PSoC4/CyDMA.c **** /*******************************************************************************
 696:Generated_Source\PSoC4/CyDMA.c **** * Function Name: CyDmaGetNextDescriptor
 697:Generated_Source\PSoC4/CyDMA.c **** ********************************************************************************
 698:Generated_Source\PSoC4/CyDMA.c **** *
 699:Generated_Source\PSoC4/CyDMA.c **** * Summary:
 700:Generated_Source\PSoC4/CyDMA.c **** *  Returns the next descriptor that should be run, as set by 
 701:Generated_Source\PSoC4/CyDMA.c **** *  CyDmaSetNextDescriptor().
 702:Generated_Source\PSoC4/CyDMA.c **** *
 703:Generated_Source\PSoC4/CyDMA.c **** * Parameters:
 704:Generated_Source\PSoC4/CyDMA.c **** *  channel: channel used by this function.
 705:Generated_Source\PSoC4/CyDMA.c **** *                   
 706:Generated_Source\PSoC4/CyDMA.c **** * Return:
 707:Generated_Source\PSoC4/CyDMA.c **** *  Next Descriptor to run (0 or 1).
 708:Generated_Source\PSoC4/CyDMA.c **** *
 709:Generated_Source\PSoC4/CyDMA.c **** *******************************************************************************/
 710:Generated_Source\PSoC4/CyDMA.c **** int32 CyDmaGetNextDescriptor(int32 channel)
 711:Generated_Source\PSoC4/CyDMA.c **** {
 1336              		.loc 1 711 0
 1337              		.cfi_startproc
 1338              		@ args = 0, pretend = 0, frame = 16
 1339              		@ frame_needed = 1, uses_anonymous_args = 0
ARM GAS  C:\Users\ADMINI~1\AppData\Local\Temp\ccf1WNrD.s 			page 37


 1340 0000 80B5     		push	{r7, lr}
 1341              		.cfi_def_cfa_offset 8
 1342              		.cfi_offset 7, -8
 1343              		.cfi_offset 14, -4
 1344 0002 84B0     		sub	sp, sp, #16
 1345              		.cfi_def_cfa_offset 24
 1346 0004 00AF     		add	r7, sp, #0
 1347              		.cfi_def_cfa_register 7
 1348 0006 7860     		str	r0, [r7, #4]
 712:Generated_Source\PSoC4/CyDMA.c ****     uint32 nextDescriptor;
 713:Generated_Source\PSoC4/CyDMA.c **** 
 714:Generated_Source\PSoC4/CyDMA.c ****     CYASSERT((channel >= 0) && (channel < CYDMA_CH_NR));
 1349              		.loc 1 714 0
 1350 0008 7B68     		ldr	r3, [r7, #4]
 1351 000a 002B     		cmp	r3, #0
 1352 000c 04DB     		blt	.L124
 1353              		.loc 1 714 0 is_stmt 0 discriminator 1
 1354 000e 7B68     		ldr	r3, [r7, #4]
 1355 0010 072B     		cmp	r3, #7
 1356 0012 01DC     		bgt	.L124
 1357              		.loc 1 714 0 discriminator 3
 1358 0014 0123     		movs	r3, #1
 1359 0016 00E0     		b	.L125
 1360              	.L124:
 1361              		.loc 1 714 0 discriminator 4
 1362 0018 0023     		movs	r3, #0
 1363              	.L125:
 1364              		.loc 1 714 0 discriminator 6
 1365 001a 002B     		cmp	r3, #0
 1366 001c 02D1     		bne	.L126
 1367              		.loc 1 714 0 discriminator 7
 1368 001e 0020     		movs	r0, #0
 1369 0020 FFF7FEFF 		bl	CyHalt
 1370              	.L126:
 715:Generated_Source\PSoC4/CyDMA.c **** 
 716:Generated_Source\PSoC4/CyDMA.c ****     nextDescriptor = (CYDMA_CH_CTL_BASE.ctl[channel] & CYDMA_DESCRIPTOR) >> CYDMA_DESCRIPTOR_POS;
 1371              		.loc 1 716 0 is_stmt 1
 1372 0024 064A     		ldr	r2, .L128
 1373 0026 7B68     		ldr	r3, [r7, #4]
 1374 0028 9B00     		lsls	r3, r3, #2
 1375 002a 9A58     		ldr	r2, [r3, r2]
 1376 002c 8023     		movs	r3, #128
 1377 002e DB05     		lsls	r3, r3, #23
 1378 0030 1340     		ands	r3, r2
 1379 0032 9B0F     		lsrs	r3, r3, #30
 1380 0034 FB60     		str	r3, [r7, #12]
 717:Generated_Source\PSoC4/CyDMA.c ****     return ((int32)nextDescriptor);
 1381              		.loc 1 717 0
 1382 0036 FB68     		ldr	r3, [r7, #12]
 718:Generated_Source\PSoC4/CyDMA.c **** }
 1383              		.loc 1 718 0
 1384 0038 1800     		movs	r0, r3
 1385 003a BD46     		mov	sp, r7
 1386 003c 04B0     		add	sp, sp, #16
 1387              		@ sp needed
 1388 003e 80BD     		pop	{r7, pc}
 1389              	.L129:
ARM GAS  C:\Users\ADMINI~1\AppData\Local\Temp\ccf1WNrD.s 			page 38


 1390              		.align	2
 1391              	.L128:
 1392 0040 80101040 		.word	1074794624
 1393              		.cfi_endproc
 1394              	.LFE25:
 1395              		.size	CyDmaGetNextDescriptor, .-CyDmaGetNextDescriptor
 1396              		.section	.text.CyDmaSetConfiguration,"ax",%progbits
 1397              		.align	2
 1398              		.global	CyDmaSetConfiguration
 1399              		.code	16
 1400              		.thumb_func
 1401              		.type	CyDmaSetConfiguration, %function
 1402              	CyDmaSetConfiguration:
 1403              	.LFB26:
 719:Generated_Source\PSoC4/CyDMA.c **** 
 720:Generated_Source\PSoC4/CyDMA.c **** 
 721:Generated_Source\PSoC4/CyDMA.c **** /*******************************************************************************
 722:Generated_Source\PSoC4/CyDMA.c **** * Function Name: CyDmaSetConfiguration
 723:Generated_Source\PSoC4/CyDMA.c **** ********************************************************************************
 724:Generated_Source\PSoC4/CyDMA.c **** *
 725:Generated_Source\PSoC4/CyDMA.c **** * Summary:
 726:Generated_Source\PSoC4/CyDMA.c **** *  Sets configuration information for the specified descriptor.
 727:Generated_Source\PSoC4/CyDMA.c **** *
 728:Generated_Source\PSoC4/CyDMA.c **** * Parameters:
 729:Generated_Source\PSoC4/CyDMA.c **** *  channel:    DMA channel modified by this function.
 730:Generated_Source\PSoC4/CyDMA.c **** *  descriptor: Descriptor (0 or 1) modified by this function.
 731:Generated_Source\PSoC4/CyDMA.c **** *  config:     Pointer to a configuration structure. Refer to cydma_init_struct
 732:Generated_Source\PSoC4/CyDMA.c **** *              structure definition in CyDMA_P4.h and/or DMA channel datasheet
 733:Generated_Source\PSoC4/CyDMA.c **** *              for more information.
 734:Generated_Source\PSoC4/CyDMA.c **** *                   
 735:Generated_Source\PSoC4/CyDMA.c **** * Return:
 736:Generated_Source\PSoC4/CyDMA.c **** *  None.
 737:Generated_Source\PSoC4/CyDMA.c **** *
 738:Generated_Source\PSoC4/CyDMA.c **** * Side effect:
 739:Generated_Source\PSoC4/CyDMA.c **** *  The status register associated with the specified descriptor is reset to
 740:Generated_Source\PSoC4/CyDMA.c **** *  zero after this function call. This function also validates the descriptor.
 741:Generated_Source\PSoC4/CyDMA.c **** *  This function should not be called while the descriptor is active.
 742:Generated_Source\PSoC4/CyDMA.c **** *  This can be checked by calling CyDmaGetStatus().
 743:Generated_Source\PSoC4/CyDMA.c **** *
 744:Generated_Source\PSoC4/CyDMA.c **** *******************************************************************************/
 745:Generated_Source\PSoC4/CyDMA.c **** void CyDmaSetConfiguration(int32 channel, int32 descriptor, const cydma_init_struct * config)
 746:Generated_Source\PSoC4/CyDMA.c **** {  
 1404              		.loc 1 746 0
 1405              		.cfi_startproc
 1406              		@ args = 0, pretend = 0, frame = 16
 1407              		@ frame_needed = 1, uses_anonymous_args = 0
 1408 0000 80B5     		push	{r7, lr}
 1409              		.cfi_def_cfa_offset 8
 1410              		.cfi_offset 7, -8
 1411              		.cfi_offset 14, -4
 1412 0002 84B0     		sub	sp, sp, #16
 1413              		.cfi_def_cfa_offset 24
 1414 0004 00AF     		add	r7, sp, #0
 1415              		.cfi_def_cfa_register 7
 1416 0006 F860     		str	r0, [r7, #12]
 1417 0008 B960     		str	r1, [r7, #8]
 1418 000a 7A60     		str	r2, [r7, #4]
ARM GAS  C:\Users\ADMINI~1\AppData\Local\Temp\ccf1WNrD.s 			page 39


 747:Generated_Source\PSoC4/CyDMA.c ****     CYASSERT((channel        >= 0) && (channel         < CYDMA_CH_NR));
 1419              		.loc 1 747 0
 1420 000c FB68     		ldr	r3, [r7, #12]
 1421 000e 002B     		cmp	r3, #0
 1422 0010 04DB     		blt	.L131
 1423              		.loc 1 747 0 is_stmt 0 discriminator 1
 1424 0012 FB68     		ldr	r3, [r7, #12]
 1425 0014 072B     		cmp	r3, #7
 1426 0016 01DC     		bgt	.L131
 1427              		.loc 1 747 0 discriminator 3
 1428 0018 0123     		movs	r3, #1
 1429 001a 00E0     		b	.L132
 1430              	.L131:
 1431              		.loc 1 747 0 discriminator 4
 1432 001c 0023     		movs	r3, #0
 1433              	.L132:
 1434              		.loc 1 747 0 discriminator 6
 1435 001e 002B     		cmp	r3, #0
 1436 0020 02D1     		bne	.L133
 1437              		.loc 1 747 0 discriminator 7
 1438 0022 0020     		movs	r0, #0
 1439 0024 FFF7FEFF 		bl	CyHalt
 1440              	.L133:
 748:Generated_Source\PSoC4/CyDMA.c ****     CYASSERT((descriptor     >= 0) && (descriptor      < CYDMA_DESCR_NR));
 1441              		.loc 1 748 0 is_stmt 1
 1442 0028 BB68     		ldr	r3, [r7, #8]
 1443 002a 002B     		cmp	r3, #0
 1444 002c 04DB     		blt	.L134
 1445              		.loc 1 748 0 is_stmt 0 discriminator 1
 1446 002e BB68     		ldr	r3, [r7, #8]
 1447 0030 012B     		cmp	r3, #1
 1448 0032 01DC     		bgt	.L134
 1449              		.loc 1 748 0 discriminator 3
 1450 0034 0123     		movs	r3, #1
 1451 0036 00E0     		b	.L135
 1452              	.L134:
 1453              		.loc 1 748 0 discriminator 4
 1454 0038 0023     		movs	r3, #0
 1455              	.L135:
 1456              		.loc 1 748 0 discriminator 6
 1457 003a 002B     		cmp	r3, #0
 1458 003c 02D1     		bne	.L136
 1459              		.loc 1 748 0 discriminator 7
 1460 003e 0020     		movs	r0, #0
 1461 0040 FFF7FEFF 		bl	CyHalt
 1462              	.L136:
 749:Generated_Source\PSoC4/CyDMA.c **** 
 750:Generated_Source\PSoC4/CyDMA.c ****     CYASSERT(0u == (config->dataElementSize     & (uint32)~CYDMA_DATA_SIZE));   
 1463              		.loc 1 750 0 is_stmt 1
 1464 0044 7B68     		ldr	r3, [r7, #4]
 1465 0046 1B68     		ldr	r3, [r3]
 1466 0048 3B4A     		ldr	r2, .L147
 1467 004a 1340     		ands	r3, r2
 1468 004c 02D0     		beq	.L137
 1469              		.loc 1 750 0 is_stmt 0 discriminator 1
 1470 004e 0020     		movs	r0, #0
 1471 0050 FFF7FEFF 		bl	CyHalt
ARM GAS  C:\Users\ADMINI~1\AppData\Local\Temp\ccf1WNrD.s 			page 40


 1472              	.L137:
 751:Generated_Source\PSoC4/CyDMA.c ****     CYASSERT((config->numDataElements > 0)     && (config->numDataElements <= CYDMA_MAX_DATA_NR));
 1473              		.loc 1 751 0 is_stmt 1
 1474 0054 7B68     		ldr	r3, [r7, #4]
 1475 0056 5B68     		ldr	r3, [r3, #4]
 1476 0058 002B     		cmp	r3, #0
 1477 005a 07DD     		ble	.L138
 1478              		.loc 1 751 0 is_stmt 0 discriminator 1
 1479 005c 7B68     		ldr	r3, [r7, #4]
 1480 005e 5A68     		ldr	r2, [r3, #4]
 1481 0060 8023     		movs	r3, #128
 1482 0062 5B02     		lsls	r3, r3, #9
 1483 0064 9A42     		cmp	r2, r3
 1484 0066 01DC     		bgt	.L138
 1485              		.loc 1 751 0 discriminator 3
 1486 0068 0123     		movs	r3, #1
 1487 006a 00E0     		b	.L139
 1488              	.L138:
 1489              		.loc 1 751 0 discriminator 4
 1490 006c 0023     		movs	r3, #0
 1491              	.L139:
 1492              		.loc 1 751 0 discriminator 6
 1493 006e 002B     		cmp	r3, #0
 1494 0070 02D1     		bne	.L140
 1495              		.loc 1 751 0 discriminator 7
 1496 0072 0020     		movs	r0, #0
 1497 0074 FFF7FEFF 		bl	CyHalt
 1498              	.L140:
 752:Generated_Source\PSoC4/CyDMA.c ****     CYASSERT(0u == (config->srcDstTransferWidth & (uint32)~CYDMA_TRANSFER_WIDTH));
 1499              		.loc 1 752 0 is_stmt 1
 1500 0078 7B68     		ldr	r3, [r7, #4]
 1501 007a 9B68     		ldr	r3, [r3, #8]
 1502 007c 2F4A     		ldr	r2, .L147+4
 1503 007e 1340     		ands	r3, r2
 1504 0080 02D0     		beq	.L141
 1505              		.loc 1 752 0 is_stmt 0 discriminator 1
 1506 0082 0020     		movs	r0, #0
 1507 0084 FFF7FEFF 		bl	CyHalt
 1508              	.L141:
 753:Generated_Source\PSoC4/CyDMA.c ****     CYASSERT(0u == (config->addressIncrement    & (uint32)~CYDMA_ADDR_INCR));
 1509              		.loc 1 753 0 is_stmt 1
 1510 0088 7B68     		ldr	r3, [r7, #4]
 1511 008a DB68     		ldr	r3, [r3, #12]
 1512 008c 2C4A     		ldr	r2, .L147+8
 1513 008e 1340     		ands	r3, r2
 1514 0090 02D0     		beq	.L142
 1515              		.loc 1 753 0 is_stmt 0 discriminator 1
 1516 0092 0020     		movs	r0, #0
 1517 0094 FFF7FEFF 		bl	CyHalt
 1518              	.L142:
 754:Generated_Source\PSoC4/CyDMA.c ****     CYASSERT(0u == (config->triggerType         & (uint32)~CYDMA_TRIGGER_TYPE));
 1519              		.loc 1 754 0 is_stmt 1
 1520 0098 7B68     		ldr	r3, [r7, #4]
 1521 009a 1B69     		ldr	r3, [r3, #16]
 1522 009c 294A     		ldr	r2, .L147+12
 1523 009e 1340     		ands	r3, r2
 1524 00a0 02D0     		beq	.L143
ARM GAS  C:\Users\ADMINI~1\AppData\Local\Temp\ccf1WNrD.s 			page 41


 1525              		.loc 1 754 0 is_stmt 0 discriminator 1
 1526 00a2 0020     		movs	r0, #0
 1527 00a4 FFF7FEFF 		bl	CyHalt
 1528              	.L143:
 755:Generated_Source\PSoC4/CyDMA.c ****     CYASSERT(0u == (config->transferMode        & (uint32)~CYDMA_TRANSFER_MODE));
 1529              		.loc 1 755 0 is_stmt 1
 1530 00a8 7B68     		ldr	r3, [r7, #4]
 1531 00aa 5B69     		ldr	r3, [r3, #20]
 1532 00ac 9B00     		lsls	r3, r3, #2
 1533 00ae 9B08     		lsrs	r3, r3, #2
 1534 00b0 02D0     		beq	.L144
 1535              		.loc 1 755 0 is_stmt 0 discriminator 1
 1536 00b2 0020     		movs	r0, #0
 1537 00b4 FFF7FEFF 		bl	CyHalt
 1538              	.L144:
 756:Generated_Source\PSoC4/CyDMA.c ****     CYASSERT(0u == (config->preemptable         & (uint32)~CYDMA_PREEMPTABLE));
 1539              		.loc 1 756 0 is_stmt 1
 1540 00b8 7B68     		ldr	r3, [r7, #4]
 1541 00ba 9B69     		ldr	r3, [r3, #24]
 1542 00bc 224A     		ldr	r2, .L147+16
 1543 00be 1340     		ands	r3, r2
 1544 00c0 02D0     		beq	.L145
 1545              		.loc 1 756 0 is_stmt 0 discriminator 1
 1546 00c2 0020     		movs	r0, #0
 1547 00c4 FFF7FEFF 		bl	CyHalt
 1548              	.L145:
 757:Generated_Source\PSoC4/CyDMA.c ****     CYASSERT(0u == (config->actions             & (uint32)~CYDMA_POST_COMPLETE_ACTIONS));
 1549              		.loc 1 757 0 is_stmt 1
 1550 00c8 7B68     		ldr	r3, [r7, #4]
 1551 00ca DB69     		ldr	r3, [r3, #28]
 1552 00cc 1F4A     		ldr	r2, .L147+20
 1553 00ce 1340     		ands	r3, r2
 1554 00d0 02D0     		beq	.L146
 1555              		.loc 1 757 0 is_stmt 0 discriminator 1
 1556 00d2 0020     		movs	r0, #0
 1557 00d4 FFF7FEFF 		bl	CyHalt
 1558              	.L146:
 758:Generated_Source\PSoC4/CyDMA.c ****     
 759:Generated_Source\PSoC4/CyDMA.c ****     CYDMA_DESCR_BASE.descriptor[channel][descriptor].ctl = config->dataElementSize     |
 1559              		.loc 1 759 0 is_stmt 1
 1560 00d8 1D48     		ldr	r0, .L147+24
 1561 00da 7B68     		ldr	r3, [r7, #4]
 1562 00dc 1A68     		ldr	r2, [r3]
 760:Generated_Source\PSoC4/CyDMA.c ****                                                   ((uint32)config->numDataElements-1u) |
 1563              		.loc 1 760 0
 1564 00de 7B68     		ldr	r3, [r7, #4]
 1565 00e0 5B68     		ldr	r3, [r3, #4]
 1566 00e2 013B     		subs	r3, r3, #1
 759:Generated_Source\PSoC4/CyDMA.c ****                                                   ((uint32)config->numDataElements-1u) |
 1567              		.loc 1 759 0
 1568 00e4 1A43     		orrs	r2, r3
 761:Generated_Source\PSoC4/CyDMA.c ****                                                            config->srcDstTransferWidth |
 1569              		.loc 1 761 0
 1570 00e6 7B68     		ldr	r3, [r7, #4]
 1571 00e8 9B68     		ldr	r3, [r3, #8]
 760:Generated_Source\PSoC4/CyDMA.c ****                                                   ((uint32)config->numDataElements-1u) |
 1572              		.loc 1 760 0
ARM GAS  C:\Users\ADMINI~1\AppData\Local\Temp\ccf1WNrD.s 			page 42


 1573 00ea 1A43     		orrs	r2, r3
 762:Generated_Source\PSoC4/CyDMA.c ****                                                            config->addressIncrement    |
 1574              		.loc 1 762 0
 1575 00ec 7B68     		ldr	r3, [r7, #4]
 1576 00ee DB68     		ldr	r3, [r3, #12]
 761:Generated_Source\PSoC4/CyDMA.c ****                                                            config->srcDstTransferWidth |
 1577              		.loc 1 761 0
 1578 00f0 1A43     		orrs	r2, r3
 763:Generated_Source\PSoC4/CyDMA.c ****                                                            config->triggerType         |
 1579              		.loc 1 763 0
 1580 00f2 7B68     		ldr	r3, [r7, #4]
 1581 00f4 1B69     		ldr	r3, [r3, #16]
 762:Generated_Source\PSoC4/CyDMA.c ****                                                            config->addressIncrement    |
 1582              		.loc 1 762 0
 1583 00f6 1A43     		orrs	r2, r3
 764:Generated_Source\PSoC4/CyDMA.c ****                                                            config->transferMode        |
 1584              		.loc 1 764 0
 1585 00f8 7B68     		ldr	r3, [r7, #4]
 1586 00fa 5B69     		ldr	r3, [r3, #20]
 763:Generated_Source\PSoC4/CyDMA.c ****                                                            config->triggerType         |
 1587              		.loc 1 763 0
 1588 00fc 1A43     		orrs	r2, r3
 765:Generated_Source\PSoC4/CyDMA.c ****                                                            config->preemptable         |
 1589              		.loc 1 765 0
 1590 00fe 7B68     		ldr	r3, [r7, #4]
 1591 0100 9B69     		ldr	r3, [r3, #24]
 764:Generated_Source\PSoC4/CyDMA.c ****                                                            config->transferMode        |
 1592              		.loc 1 764 0
 1593 0102 1A43     		orrs	r2, r3
 766:Generated_Source\PSoC4/CyDMA.c ****                                                            config->actions;
 1594              		.loc 1 766 0
 1595 0104 7B68     		ldr	r3, [r7, #4]
 1596 0106 DB69     		ldr	r3, [r3, #28]
 765:Generated_Source\PSoC4/CyDMA.c ****                                                            config->preemptable         |
 1597              		.loc 1 765 0
 1598 0108 1A43     		orrs	r2, r3
 759:Generated_Source\PSoC4/CyDMA.c ****                                                   ((uint32)config->numDataElements-1u) |
 1599              		.loc 1 759 0
 1600 010a FB68     		ldr	r3, [r7, #12]
 1601 010c 5900     		lsls	r1, r3, #1
 1602 010e BB68     		ldr	r3, [r7, #8]
 1603 0110 CB18     		adds	r3, r1, r3
 1604 0112 1B01     		lsls	r3, r3, #4
 1605 0114 C318     		adds	r3, r0, r3
 1606 0116 0833     		adds	r3, r3, #8
 1607 0118 1A60     		str	r2, [r3]
 767:Generated_Source\PSoC4/CyDMA.c **** 
 768:Generated_Source\PSoC4/CyDMA.c ****     CYDMA_DESCR_BASE.descriptor[channel][descriptor].status = CYDMA_VALID;
 1608              		.loc 1 768 0
 1609 011a 0D49     		ldr	r1, .L147+24
 1610 011c FB68     		ldr	r3, [r7, #12]
 1611 011e 5A00     		lsls	r2, r3, #1
 1612 0120 BB68     		ldr	r3, [r7, #8]
 1613 0122 D318     		adds	r3, r2, r3
 1614 0124 1B01     		lsls	r3, r3, #4
 1615 0126 CB18     		adds	r3, r1, r3
 1616 0128 0C33     		adds	r3, r3, #12
ARM GAS  C:\Users\ADMINI~1\AppData\Local\Temp\ccf1WNrD.s 			page 43


 1617 012a 8022     		movs	r2, #128
 1618 012c 1206     		lsls	r2, r2, #24
 1619 012e 1A60     		str	r2, [r3]
 769:Generated_Source\PSoC4/CyDMA.c **** }
 1620              		.loc 1 769 0
 1621 0130 C046     		nop
 1622 0132 BD46     		mov	sp, r7
 1623 0134 04B0     		add	sp, sp, #16
 1624              		@ sp needed
 1625 0136 80BD     		pop	{r7, pc}
 1626              	.L148:
 1627              		.align	2
 1628              	.L147:
 1629 0138 FFFFFCFF 		.word	-196609
 1630 013c FFFFAFFF 		.word	-5242881
 1631 0140 FFFF5FFF 		.word	-10485761
 1632 0144 FFFFFFFC 		.word	-50331649
 1633 0148 FFFFFFEF 		.word	-268435457
 1634 014c FFFFFFD3 		.word	-738197505
 1635 0150 00181040 		.word	1074796544
 1636              		.cfi_endproc
 1637              	.LFE26:
 1638              		.size	CyDmaSetConfiguration, .-CyDmaSetConfiguration
 1639              		.section	.text.CyDmaValidateDescriptor,"ax",%progbits
 1640              		.align	2
 1641              		.global	CyDmaValidateDescriptor
 1642              		.code	16
 1643              		.thumb_func
 1644              		.type	CyDmaValidateDescriptor, %function
 1645              	CyDmaValidateDescriptor:
 1646              	.LFB27:
 770:Generated_Source\PSoC4/CyDMA.c **** 
 771:Generated_Source\PSoC4/CyDMA.c **** 
 772:Generated_Source\PSoC4/CyDMA.c **** /*******************************************************************************
 773:Generated_Source\PSoC4/CyDMA.c **** * Function Name: CyDmaValidateDescriptor
 774:Generated_Source\PSoC4/CyDMA.c **** ********************************************************************************
 775:Generated_Source\PSoC4/CyDMA.c **** *
 776:Generated_Source\PSoC4/CyDMA.c **** * Summary:
 777:Generated_Source\PSoC4/CyDMA.c **** *  Validates the specified descriptor after it has been invalidated.
 778:Generated_Source\PSoC4/CyDMA.c **** *
 779:Generated_Source\PSoC4/CyDMA.c **** * Parameters:
 780:Generated_Source\PSoC4/CyDMA.c **** *  channel:    Channel used by this function.
 781:Generated_Source\PSoC4/CyDMA.c **** *  descriptor: Descriptor (0 or 1) modified by this function.
 782:Generated_Source\PSoC4/CyDMA.c **** *                   
 783:Generated_Source\PSoC4/CyDMA.c **** * Return:
 784:Generated_Source\PSoC4/CyDMA.c **** *  None. 
 785:Generated_Source\PSoC4/CyDMA.c **** *
 786:Generated_Source\PSoC4/CyDMA.c **** * Side effect:
 787:Generated_Source\PSoC4/CyDMA.c **** *  The status register associated with the specified descriptor is reset to
 788:Generated_Source\PSoC4/CyDMA.c **** *  zero after this function call.
 789:Generated_Source\PSoC4/CyDMA.c **** *  This function should not be called when the specified descriptor is active
 790:Generated_Source\PSoC4/CyDMA.c **** *  in the DMA transfer engine. This can be checked by calling CyDmaGetStatus().
 791:Generated_Source\PSoC4/CyDMA.c **** *
 792:Generated_Source\PSoC4/CyDMA.c **** *******************************************************************************/
 793:Generated_Source\PSoC4/CyDMA.c **** void CyDmaValidateDescriptor(int32 channel, int32 descriptor)
 794:Generated_Source\PSoC4/CyDMA.c **** {
 1647              		.loc 1 794 0
ARM GAS  C:\Users\ADMINI~1\AppData\Local\Temp\ccf1WNrD.s 			page 44


 1648              		.cfi_startproc
 1649              		@ args = 0, pretend = 0, frame = 8
 1650              		@ frame_needed = 1, uses_anonymous_args = 0
 1651 0000 80B5     		push	{r7, lr}
 1652              		.cfi_def_cfa_offset 8
 1653              		.cfi_offset 7, -8
 1654              		.cfi_offset 14, -4
 1655 0002 82B0     		sub	sp, sp, #8
 1656              		.cfi_def_cfa_offset 16
 1657 0004 00AF     		add	r7, sp, #0
 1658              		.cfi_def_cfa_register 7
 1659 0006 7860     		str	r0, [r7, #4]
 1660 0008 3960     		str	r1, [r7]
 795:Generated_Source\PSoC4/CyDMA.c ****     CYASSERT((channel    >= 0) && (channel    < CYDMA_CH_NR));
 1661              		.loc 1 795 0
 1662 000a 7B68     		ldr	r3, [r7, #4]
 1663 000c 002B     		cmp	r3, #0
 1664 000e 04DB     		blt	.L150
 1665              		.loc 1 795 0 is_stmt 0 discriminator 1
 1666 0010 7B68     		ldr	r3, [r7, #4]
 1667 0012 072B     		cmp	r3, #7
 1668 0014 01DC     		bgt	.L150
 1669              		.loc 1 795 0 discriminator 3
 1670 0016 0123     		movs	r3, #1
 1671 0018 00E0     		b	.L151
 1672              	.L150:
 1673              		.loc 1 795 0 discriminator 4
 1674 001a 0023     		movs	r3, #0
 1675              	.L151:
 1676              		.loc 1 795 0 discriminator 6
 1677 001c 002B     		cmp	r3, #0
 1678 001e 02D1     		bne	.L152
 1679              		.loc 1 795 0 discriminator 7
 1680 0020 0020     		movs	r0, #0
 1681 0022 FFF7FEFF 		bl	CyHalt
 1682              	.L152:
 796:Generated_Source\PSoC4/CyDMA.c ****     CYASSERT((descriptor >= 0) && (descriptor < CYDMA_DESCR_NR));
 1683              		.loc 1 796 0 is_stmt 1
 1684 0026 3B68     		ldr	r3, [r7]
 1685 0028 002B     		cmp	r3, #0
 1686 002a 04DB     		blt	.L153
 1687              		.loc 1 796 0 is_stmt 0 discriminator 1
 1688 002c 3B68     		ldr	r3, [r7]
 1689 002e 012B     		cmp	r3, #1
 1690 0030 01DC     		bgt	.L153
 1691              		.loc 1 796 0 discriminator 3
 1692 0032 0123     		movs	r3, #1
 1693 0034 00E0     		b	.L154
 1694              	.L153:
 1695              		.loc 1 796 0 discriminator 4
 1696 0036 0023     		movs	r3, #0
 1697              	.L154:
 1698              		.loc 1 796 0 discriminator 6
 1699 0038 002B     		cmp	r3, #0
 1700 003a 02D1     		bne	.L155
 1701              		.loc 1 796 0 discriminator 7
 1702 003c 0020     		movs	r0, #0
ARM GAS  C:\Users\ADMINI~1\AppData\Local\Temp\ccf1WNrD.s 			page 45


 1703 003e FFF7FEFF 		bl	CyHalt
 1704              	.L155:
 797:Generated_Source\PSoC4/CyDMA.c **** 
 798:Generated_Source\PSoC4/CyDMA.c ****     CYDMA_DESCR_BASE.descriptor[channel][descriptor].status = CYDMA_VALID;
 1705              		.loc 1 798 0 is_stmt 1
 1706 0042 0749     		ldr	r1, .L156
 1707 0044 7B68     		ldr	r3, [r7, #4]
 1708 0046 5A00     		lsls	r2, r3, #1
 1709 0048 3B68     		ldr	r3, [r7]
 1710 004a D318     		adds	r3, r2, r3
 1711 004c 1B01     		lsls	r3, r3, #4
 1712 004e CB18     		adds	r3, r1, r3
 1713 0050 0C33     		adds	r3, r3, #12
 1714 0052 8022     		movs	r2, #128
 1715 0054 1206     		lsls	r2, r2, #24
 1716 0056 1A60     		str	r2, [r3]
 799:Generated_Source\PSoC4/CyDMA.c **** }
 1717              		.loc 1 799 0
 1718 0058 C046     		nop
 1719 005a BD46     		mov	sp, r7
 1720 005c 02B0     		add	sp, sp, #8
 1721              		@ sp needed
 1722 005e 80BD     		pop	{r7, pc}
 1723              	.L157:
 1724              		.align	2
 1725              	.L156:
 1726 0060 00181040 		.word	1074796544
 1727              		.cfi_endproc
 1728              	.LFE27:
 1729              		.size	CyDmaValidateDescriptor, .-CyDmaValidateDescriptor
 1730              		.section	.text.CyDmaGetDescriptorStatus,"ax",%progbits
 1731              		.align	2
 1732              		.global	CyDmaGetDescriptorStatus
 1733              		.code	16
 1734              		.thumb_func
 1735              		.type	CyDmaGetDescriptorStatus, %function
 1736              	CyDmaGetDescriptorStatus:
 1737              	.LFB28:
 800:Generated_Source\PSoC4/CyDMA.c **** 
 801:Generated_Source\PSoC4/CyDMA.c **** 
 802:Generated_Source\PSoC4/CyDMA.c **** /*******************************************************************************
 803:Generated_Source\PSoC4/CyDMA.c **** * Function Name: CyDmaGetDescriptorStatus
 804:Generated_Source\PSoC4/CyDMA.c **** ********************************************************************************
 805:Generated_Source\PSoC4/CyDMA.c **** *
 806:Generated_Source\PSoC4/CyDMA.c **** * Summary:
 807:Generated_Source\PSoC4/CyDMA.c **** *  Returns the status of the specified descriptor.
 808:Generated_Source\PSoC4/CyDMA.c **** *
 809:Generated_Source\PSoC4/CyDMA.c **** * Parameters:
 810:Generated_Source\PSoC4/CyDMA.c **** *  channel:    Channel used by this function.
 811:Generated_Source\PSoC4/CyDMA.c **** *  descriptor: Descriptor (0 or 1) modified by this function.
 812:Generated_Source\PSoC4/CyDMA.c **** *                   
 813:Generated_Source\PSoC4/CyDMA.c **** * Return:
 814:Generated_Source\PSoC4/CyDMA.c **** *  Returns the contents of the specified descriptors status register. Refer to 
 815:Generated_Source\PSoC4/CyDMA.c **** *  descriptor status register bit definitions in CyDMA_P4.h or the API
 816:Generated_Source\PSoC4/CyDMA.c **** *  description in the DMA channel datasheet for more information.
 817:Generated_Source\PSoC4/CyDMA.c **** *
 818:Generated_Source\PSoC4/CyDMA.c **** *******************************************************************************/
ARM GAS  C:\Users\ADMINI~1\AppData\Local\Temp\ccf1WNrD.s 			page 46


 819:Generated_Source\PSoC4/CyDMA.c **** uint32 CyDmaGetDescriptorStatus(int32 channel, int32 descriptor)
 820:Generated_Source\PSoC4/CyDMA.c **** {
 1738              		.loc 1 820 0
 1739              		.cfi_startproc
 1740              		@ args = 0, pretend = 0, frame = 8
 1741              		@ frame_needed = 1, uses_anonymous_args = 0
 1742 0000 80B5     		push	{r7, lr}
 1743              		.cfi_def_cfa_offset 8
 1744              		.cfi_offset 7, -8
 1745              		.cfi_offset 14, -4
 1746 0002 82B0     		sub	sp, sp, #8
 1747              		.cfi_def_cfa_offset 16
 1748 0004 00AF     		add	r7, sp, #0
 1749              		.cfi_def_cfa_register 7
 1750 0006 7860     		str	r0, [r7, #4]
 1751 0008 3960     		str	r1, [r7]
 821:Generated_Source\PSoC4/CyDMA.c ****     CYASSERT((channel    >= 0) && (channel    < CYDMA_CH_NR));
 1752              		.loc 1 821 0
 1753 000a 7B68     		ldr	r3, [r7, #4]
 1754 000c 002B     		cmp	r3, #0
 1755 000e 04DB     		blt	.L159
 1756              		.loc 1 821 0 is_stmt 0 discriminator 1
 1757 0010 7B68     		ldr	r3, [r7, #4]
 1758 0012 072B     		cmp	r3, #7
 1759 0014 01DC     		bgt	.L159
 1760              		.loc 1 821 0 discriminator 3
 1761 0016 0123     		movs	r3, #1
 1762 0018 00E0     		b	.L160
 1763              	.L159:
 1764              		.loc 1 821 0 discriminator 4
 1765 001a 0023     		movs	r3, #0
 1766              	.L160:
 1767              		.loc 1 821 0 discriminator 6
 1768 001c 002B     		cmp	r3, #0
 1769 001e 02D1     		bne	.L161
 1770              		.loc 1 821 0 discriminator 7
 1771 0020 0020     		movs	r0, #0
 1772 0022 FFF7FEFF 		bl	CyHalt
 1773              	.L161:
 822:Generated_Source\PSoC4/CyDMA.c ****     CYASSERT((descriptor >= 0) && (descriptor < CYDMA_DESCR_NR));
 1774              		.loc 1 822 0 is_stmt 1
 1775 0026 3B68     		ldr	r3, [r7]
 1776 0028 002B     		cmp	r3, #0
 1777 002a 04DB     		blt	.L162
 1778              		.loc 1 822 0 is_stmt 0 discriminator 1
 1779 002c 3B68     		ldr	r3, [r7]
 1780 002e 012B     		cmp	r3, #1
 1781 0030 01DC     		bgt	.L162
 1782              		.loc 1 822 0 discriminator 3
 1783 0032 0123     		movs	r3, #1
 1784 0034 00E0     		b	.L163
 1785              	.L162:
 1786              		.loc 1 822 0 discriminator 4
 1787 0036 0023     		movs	r3, #0
 1788              	.L163:
 1789              		.loc 1 822 0 discriminator 6
 1790 0038 002B     		cmp	r3, #0
ARM GAS  C:\Users\ADMINI~1\AppData\Local\Temp\ccf1WNrD.s 			page 47


 1791 003a 02D1     		bne	.L164
 1792              		.loc 1 822 0 discriminator 7
 1793 003c 0020     		movs	r0, #0
 1794 003e FFF7FEFF 		bl	CyHalt
 1795              	.L164:
 823:Generated_Source\PSoC4/CyDMA.c **** 
 824:Generated_Source\PSoC4/CyDMA.c ****     return (CYDMA_DESCR_BASE.descriptor[channel][descriptor].status);
 1796              		.loc 1 824 0 is_stmt 1
 1797 0042 0649     		ldr	r1, .L166
 1798 0044 7B68     		ldr	r3, [r7, #4]
 1799 0046 5A00     		lsls	r2, r3, #1
 1800 0048 3B68     		ldr	r3, [r7]
 1801 004a D318     		adds	r3, r2, r3
 1802 004c 1B01     		lsls	r3, r3, #4
 1803 004e CB18     		adds	r3, r1, r3
 1804 0050 0C33     		adds	r3, r3, #12
 1805 0052 1B68     		ldr	r3, [r3]
 825:Generated_Source\PSoC4/CyDMA.c **** }
 1806              		.loc 1 825 0
 1807 0054 1800     		movs	r0, r3
 1808 0056 BD46     		mov	sp, r7
 1809 0058 02B0     		add	sp, sp, #8
 1810              		@ sp needed
 1811 005a 80BD     		pop	{r7, pc}
 1812              	.L167:
 1813              		.align	2
 1814              	.L166:
 1815 005c 00181040 		.word	1074796544
 1816              		.cfi_endproc
 1817              	.LFE28:
 1818              		.size	CyDmaGetDescriptorStatus, .-CyDmaGetDescriptorStatus
 1819              		.section	.text.CyDmaSetSrcAddress,"ax",%progbits
 1820              		.align	2
 1821              		.global	CyDmaSetSrcAddress
 1822              		.code	16
 1823              		.thumb_func
 1824              		.type	CyDmaSetSrcAddress, %function
 1825              	CyDmaSetSrcAddress:
 1826              	.LFB29:
 826:Generated_Source\PSoC4/CyDMA.c **** 
 827:Generated_Source\PSoC4/CyDMA.c **** 
 828:Generated_Source\PSoC4/CyDMA.c **** /*******************************************************************************
 829:Generated_Source\PSoC4/CyDMA.c **** * Function Name: CyDmaSetSrcAddress
 830:Generated_Source\PSoC4/CyDMA.c **** ********************************************************************************
 831:Generated_Source\PSoC4/CyDMA.c **** *
 832:Generated_Source\PSoC4/CyDMA.c **** * Summary:
 833:Generated_Source\PSoC4/CyDMA.c **** *  Configures the source address for the specified descriptor.
 834:Generated_Source\PSoC4/CyDMA.c **** *
 835:Generated_Source\PSoC4/CyDMA.c **** * Parameters:
 836:Generated_Source\PSoC4/CyDMA.c **** *  channel:    Channel used by this function.
 837:Generated_Source\PSoC4/CyDMA.c **** *  descriptor: Descriptor (0 or 1) modified by this function.
 838:Generated_Source\PSoC4/CyDMA.c **** *  srcAddress: Address of DMA transfer source.
 839:Generated_Source\PSoC4/CyDMA.c **** *                   
 840:Generated_Source\PSoC4/CyDMA.c **** * Return:
 841:Generated_Source\PSoC4/CyDMA.c **** *  None.
 842:Generated_Source\PSoC4/CyDMA.c **** *
 843:Generated_Source\PSoC4/CyDMA.c **** * Side effect:
ARM GAS  C:\Users\ADMINI~1\AppData\Local\Temp\ccf1WNrD.s 			page 48


 844:Generated_Source\PSoC4/CyDMA.c **** *  This function should not be called when the specified descriptor is active
 845:Generated_Source\PSoC4/CyDMA.c **** *  in the DMA transfer engine. This can be checked by calling CyDmaGetStatus(). 
 846:Generated_Source\PSoC4/CyDMA.c **** *
 847:Generated_Source\PSoC4/CyDMA.c **** *******************************************************************************/
 848:Generated_Source\PSoC4/CyDMA.c **** void CyDmaSetSrcAddress(int32 channel, int32 descriptor, void * srcAddress)
 849:Generated_Source\PSoC4/CyDMA.c **** {
 1827              		.loc 1 849 0
 1828              		.cfi_startproc
 1829              		@ args = 0, pretend = 0, frame = 16
 1830              		@ frame_needed = 1, uses_anonymous_args = 0
 1831 0000 80B5     		push	{r7, lr}
 1832              		.cfi_def_cfa_offset 8
 1833              		.cfi_offset 7, -8
 1834              		.cfi_offset 14, -4
 1835 0002 84B0     		sub	sp, sp, #16
 1836              		.cfi_def_cfa_offset 24
 1837 0004 00AF     		add	r7, sp, #0
 1838              		.cfi_def_cfa_register 7
 1839 0006 F860     		str	r0, [r7, #12]
 1840 0008 B960     		str	r1, [r7, #8]
 1841 000a 7A60     		str	r2, [r7, #4]
 850:Generated_Source\PSoC4/CyDMA.c ****     CYASSERT((channel    >= 0) && (channel    < CYDMA_CH_NR));
 1842              		.loc 1 850 0
 1843 000c FB68     		ldr	r3, [r7, #12]
 1844 000e 002B     		cmp	r3, #0
 1845 0010 04DB     		blt	.L169
 1846              		.loc 1 850 0 is_stmt 0 discriminator 1
 1847 0012 FB68     		ldr	r3, [r7, #12]
 1848 0014 072B     		cmp	r3, #7
 1849 0016 01DC     		bgt	.L169
 1850              		.loc 1 850 0 discriminator 3
 1851 0018 0123     		movs	r3, #1
 1852 001a 00E0     		b	.L170
 1853              	.L169:
 1854              		.loc 1 850 0 discriminator 4
 1855 001c 0023     		movs	r3, #0
 1856              	.L170:
 1857              		.loc 1 850 0 discriminator 6
 1858 001e 002B     		cmp	r3, #0
 1859 0020 02D1     		bne	.L171
 1860              		.loc 1 850 0 discriminator 7
 1861 0022 0020     		movs	r0, #0
 1862 0024 FFF7FEFF 		bl	CyHalt
 1863              	.L171:
 851:Generated_Source\PSoC4/CyDMA.c ****     CYASSERT((descriptor >= 0) && (descriptor < CYDMA_DESCR_NR));
 1864              		.loc 1 851 0 is_stmt 1
 1865 0028 BB68     		ldr	r3, [r7, #8]
 1866 002a 002B     		cmp	r3, #0
 1867 002c 04DB     		blt	.L172
 1868              		.loc 1 851 0 is_stmt 0 discriminator 1
 1869 002e BB68     		ldr	r3, [r7, #8]
 1870 0030 012B     		cmp	r3, #1
 1871 0032 01DC     		bgt	.L172
 1872              		.loc 1 851 0 discriminator 3
 1873 0034 0123     		movs	r3, #1
 1874 0036 00E0     		b	.L173
 1875              	.L172:
ARM GAS  C:\Users\ADMINI~1\AppData\Local\Temp\ccf1WNrD.s 			page 49


 1876              		.loc 1 851 0 discriminator 4
 1877 0038 0023     		movs	r3, #0
 1878              	.L173:
 1879              		.loc 1 851 0 discriminator 6
 1880 003a 002B     		cmp	r3, #0
 1881 003c 02D1     		bne	.L174
 1882              		.loc 1 851 0 discriminator 7
 1883 003e 0020     		movs	r0, #0
 1884 0040 FFF7FEFF 		bl	CyHalt
 1885              	.L174:
 852:Generated_Source\PSoC4/CyDMA.c **** 
 853:Generated_Source\PSoC4/CyDMA.c ****     CYDMA_DESCR_BASE.descriptor[channel][descriptor].src = srcAddress;
 1886              		.loc 1 853 0 is_stmt 1
 1887 0044 0549     		ldr	r1, .L175
 1888 0046 FB68     		ldr	r3, [r7, #12]
 1889 0048 5A00     		lsls	r2, r3, #1
 1890 004a BB68     		ldr	r3, [r7, #8]
 1891 004c D318     		adds	r3, r2, r3
 1892 004e 1B01     		lsls	r3, r3, #4
 1893 0050 7A68     		ldr	r2, [r7, #4]
 1894 0052 5A50     		str	r2, [r3, r1]
 854:Generated_Source\PSoC4/CyDMA.c **** }
 1895              		.loc 1 854 0
 1896 0054 C046     		nop
 1897 0056 BD46     		mov	sp, r7
 1898 0058 04B0     		add	sp, sp, #16
 1899              		@ sp needed
 1900 005a 80BD     		pop	{r7, pc}
 1901              	.L176:
 1902              		.align	2
 1903              	.L175:
 1904 005c 00181040 		.word	1074796544
 1905              		.cfi_endproc
 1906              	.LFE29:
 1907              		.size	CyDmaSetSrcAddress, .-CyDmaSetSrcAddress
 1908              		.section	.text.CyDmaGetSrcAddress,"ax",%progbits
 1909              		.align	2
 1910              		.global	CyDmaGetSrcAddress
 1911              		.code	16
 1912              		.thumb_func
 1913              		.type	CyDmaGetSrcAddress, %function
 1914              	CyDmaGetSrcAddress:
 1915              	.LFB30:
 855:Generated_Source\PSoC4/CyDMA.c **** 
 856:Generated_Source\PSoC4/CyDMA.c **** 
 857:Generated_Source\PSoC4/CyDMA.c **** /*******************************************************************************
 858:Generated_Source\PSoC4/CyDMA.c **** * Function Name: CyDmaGetSrcAddress
 859:Generated_Source\PSoC4/CyDMA.c **** ********************************************************************************
 860:Generated_Source\PSoC4/CyDMA.c **** *
 861:Generated_Source\PSoC4/CyDMA.c **** * Summary:
 862:Generated_Source\PSoC4/CyDMA.c **** *  Returns the source address for the specified descriptor, set by 
 863:Generated_Source\PSoC4/CyDMA.c **** *  CyDmaSetSrcAddress().
 864:Generated_Source\PSoC4/CyDMA.c **** *
 865:Generated_Source\PSoC4/CyDMA.c **** * Parameters:
 866:Generated_Source\PSoC4/CyDMA.c **** *  channel:    Channel used by this function.
 867:Generated_Source\PSoC4/CyDMA.c **** *  descriptor: Specifies descriptor (0 or 1) used by this function.
 868:Generated_Source\PSoC4/CyDMA.c **** *                   
ARM GAS  C:\Users\ADMINI~1\AppData\Local\Temp\ccf1WNrD.s 			page 50


 869:Generated_Source\PSoC4/CyDMA.c **** * Return:
 870:Generated_Source\PSoC4/CyDMA.c **** *  Source address written to specified descriptor.
 871:Generated_Source\PSoC4/CyDMA.c **** *
 872:Generated_Source\PSoC4/CyDMA.c **** *******************************************************************************/
 873:Generated_Source\PSoC4/CyDMA.c **** void * CyDmaGetSrcAddress(int32 channel, int32 descriptor)
 874:Generated_Source\PSoC4/CyDMA.c **** {
 1916              		.loc 1 874 0
 1917              		.cfi_startproc
 1918              		@ args = 0, pretend = 0, frame = 8
 1919              		@ frame_needed = 1, uses_anonymous_args = 0
 1920 0000 80B5     		push	{r7, lr}
 1921              		.cfi_def_cfa_offset 8
 1922              		.cfi_offset 7, -8
 1923              		.cfi_offset 14, -4
 1924 0002 82B0     		sub	sp, sp, #8
 1925              		.cfi_def_cfa_offset 16
 1926 0004 00AF     		add	r7, sp, #0
 1927              		.cfi_def_cfa_register 7
 1928 0006 7860     		str	r0, [r7, #4]
 1929 0008 3960     		str	r1, [r7]
 875:Generated_Source\PSoC4/CyDMA.c ****     CYASSERT((channel    >= 0) && (channel    < CYDMA_CH_NR));
 1930              		.loc 1 875 0
 1931 000a 7B68     		ldr	r3, [r7, #4]
 1932 000c 002B     		cmp	r3, #0
 1933 000e 04DB     		blt	.L178
 1934              		.loc 1 875 0 is_stmt 0 discriminator 1
 1935 0010 7B68     		ldr	r3, [r7, #4]
 1936 0012 072B     		cmp	r3, #7
 1937 0014 01DC     		bgt	.L178
 1938              		.loc 1 875 0 discriminator 3
 1939 0016 0123     		movs	r3, #1
 1940 0018 00E0     		b	.L179
 1941              	.L178:
 1942              		.loc 1 875 0 discriminator 4
 1943 001a 0023     		movs	r3, #0
 1944              	.L179:
 1945              		.loc 1 875 0 discriminator 6
 1946 001c 002B     		cmp	r3, #0
 1947 001e 02D1     		bne	.L180
 1948              		.loc 1 875 0 discriminator 7
 1949 0020 0020     		movs	r0, #0
 1950 0022 FFF7FEFF 		bl	CyHalt
 1951              	.L180:
 876:Generated_Source\PSoC4/CyDMA.c ****     CYASSERT((descriptor >= 0) && (descriptor < CYDMA_DESCR_NR));
 1952              		.loc 1 876 0 is_stmt 1
 1953 0026 3B68     		ldr	r3, [r7]
 1954 0028 002B     		cmp	r3, #0
 1955 002a 04DB     		blt	.L181
 1956              		.loc 1 876 0 is_stmt 0 discriminator 1
 1957 002c 3B68     		ldr	r3, [r7]
 1958 002e 012B     		cmp	r3, #1
 1959 0030 01DC     		bgt	.L181
 1960              		.loc 1 876 0 discriminator 3
 1961 0032 0123     		movs	r3, #1
 1962 0034 00E0     		b	.L182
 1963              	.L181:
 1964              		.loc 1 876 0 discriminator 4
ARM GAS  C:\Users\ADMINI~1\AppData\Local\Temp\ccf1WNrD.s 			page 51


 1965 0036 0023     		movs	r3, #0
 1966              	.L182:
 1967              		.loc 1 876 0 discriminator 6
 1968 0038 002B     		cmp	r3, #0
 1969 003a 02D1     		bne	.L183
 1970              		.loc 1 876 0 discriminator 7
 1971 003c 0020     		movs	r0, #0
 1972 003e FFF7FEFF 		bl	CyHalt
 1973              	.L183:
 877:Generated_Source\PSoC4/CyDMA.c **** 
 878:Generated_Source\PSoC4/CyDMA.c ****     return (CYDMA_DESCR_BASE.descriptor[channel][descriptor].src);
 1974              		.loc 1 878 0 is_stmt 1
 1975 0042 0549     		ldr	r1, .L185
 1976 0044 7B68     		ldr	r3, [r7, #4]
 1977 0046 5A00     		lsls	r2, r3, #1
 1978 0048 3B68     		ldr	r3, [r7]
 1979 004a D318     		adds	r3, r2, r3
 1980 004c 1B01     		lsls	r3, r3, #4
 1981 004e 5B58     		ldr	r3, [r3, r1]
 879:Generated_Source\PSoC4/CyDMA.c **** }
 1982              		.loc 1 879 0
 1983 0050 1800     		movs	r0, r3
 1984 0052 BD46     		mov	sp, r7
 1985 0054 02B0     		add	sp, sp, #8
 1986              		@ sp needed
 1987 0056 80BD     		pop	{r7, pc}
 1988              	.L186:
 1989              		.align	2
 1990              	.L185:
 1991 0058 00181040 		.word	1074796544
 1992              		.cfi_endproc
 1993              	.LFE30:
 1994              		.size	CyDmaGetSrcAddress, .-CyDmaGetSrcAddress
 1995              		.section	.text.CyDmaSetDstAddress,"ax",%progbits
 1996              		.align	2
 1997              		.global	CyDmaSetDstAddress
 1998              		.code	16
 1999              		.thumb_func
 2000              		.type	CyDmaSetDstAddress, %function
 2001              	CyDmaSetDstAddress:
 2002              	.LFB31:
 880:Generated_Source\PSoC4/CyDMA.c **** 
 881:Generated_Source\PSoC4/CyDMA.c **** 
 882:Generated_Source\PSoC4/CyDMA.c **** /*******************************************************************************
 883:Generated_Source\PSoC4/CyDMA.c **** * Function Name: CyDmaSetDstAddress
 884:Generated_Source\PSoC4/CyDMA.c **** ********************************************************************************
 885:Generated_Source\PSoC4/CyDMA.c **** *
 886:Generated_Source\PSoC4/CyDMA.c **** * Summary:
 887:Generated_Source\PSoC4/CyDMA.c **** *  Configures the destination address for the specified descriptor.
 888:Generated_Source\PSoC4/CyDMA.c **** *
 889:Generated_Source\PSoC4/CyDMA.c **** * Parameters:
 890:Generated_Source\PSoC4/CyDMA.c **** *  channel:    Channel used by this function.
 891:Generated_Source\PSoC4/CyDMA.c **** *  descriptor: Descriptor (0 or 1) modified by this function.
 892:Generated_Source\PSoC4/CyDMA.c **** *  dstAddress: Address of DMA transfer destination.
 893:Generated_Source\PSoC4/CyDMA.c **** *                   
 894:Generated_Source\PSoC4/CyDMA.c **** * Return:
 895:Generated_Source\PSoC4/CyDMA.c **** *  None.
ARM GAS  C:\Users\ADMINI~1\AppData\Local\Temp\ccf1WNrD.s 			page 52


 896:Generated_Source\PSoC4/CyDMA.c **** *
 897:Generated_Source\PSoC4/CyDMA.c **** * Side effect:
 898:Generated_Source\PSoC4/CyDMA.c **** *  This function should not be called when the specified descriptor is active
 899:Generated_Source\PSoC4/CyDMA.c **** *  in the DMA transfer engine. This can be checked by calling CyDmaGetStatus(). 
 900:Generated_Source\PSoC4/CyDMA.c **** *
 901:Generated_Source\PSoC4/CyDMA.c **** *******************************************************************************/
 902:Generated_Source\PSoC4/CyDMA.c **** void CyDmaSetDstAddress(int32 channel, int32 descriptor, void * dstAddress)
 903:Generated_Source\PSoC4/CyDMA.c **** {
 2003              		.loc 1 903 0
 2004              		.cfi_startproc
 2005              		@ args = 0, pretend = 0, frame = 16
 2006              		@ frame_needed = 1, uses_anonymous_args = 0
 2007 0000 80B5     		push	{r7, lr}
 2008              		.cfi_def_cfa_offset 8
 2009              		.cfi_offset 7, -8
 2010              		.cfi_offset 14, -4
 2011 0002 84B0     		sub	sp, sp, #16
 2012              		.cfi_def_cfa_offset 24
 2013 0004 00AF     		add	r7, sp, #0
 2014              		.cfi_def_cfa_register 7
 2015 0006 F860     		str	r0, [r7, #12]
 2016 0008 B960     		str	r1, [r7, #8]
 2017 000a 7A60     		str	r2, [r7, #4]
 904:Generated_Source\PSoC4/CyDMA.c ****     CYASSERT((channel    >= 0) && (channel    < CYDMA_CH_NR));
 2018              		.loc 1 904 0
 2019 000c FB68     		ldr	r3, [r7, #12]
 2020 000e 002B     		cmp	r3, #0
 2021 0010 04DB     		blt	.L188
 2022              		.loc 1 904 0 is_stmt 0 discriminator 1
 2023 0012 FB68     		ldr	r3, [r7, #12]
 2024 0014 072B     		cmp	r3, #7
 2025 0016 01DC     		bgt	.L188
 2026              		.loc 1 904 0 discriminator 3
 2027 0018 0123     		movs	r3, #1
 2028 001a 00E0     		b	.L189
 2029              	.L188:
 2030              		.loc 1 904 0 discriminator 4
 2031 001c 0023     		movs	r3, #0
 2032              	.L189:
 2033              		.loc 1 904 0 discriminator 6
 2034 001e 002B     		cmp	r3, #0
 2035 0020 02D1     		bne	.L190
 2036              		.loc 1 904 0 discriminator 7
 2037 0022 0020     		movs	r0, #0
 2038 0024 FFF7FEFF 		bl	CyHalt
 2039              	.L190:
 905:Generated_Source\PSoC4/CyDMA.c ****     CYASSERT((descriptor >= 0) && (descriptor < CYDMA_DESCR_NR));
 2040              		.loc 1 905 0 is_stmt 1
 2041 0028 BB68     		ldr	r3, [r7, #8]
 2042 002a 002B     		cmp	r3, #0
 2043 002c 04DB     		blt	.L191
 2044              		.loc 1 905 0 is_stmt 0 discriminator 1
 2045 002e BB68     		ldr	r3, [r7, #8]
 2046 0030 012B     		cmp	r3, #1
 2047 0032 01DC     		bgt	.L191
 2048              		.loc 1 905 0 discriminator 3
 2049 0034 0123     		movs	r3, #1
ARM GAS  C:\Users\ADMINI~1\AppData\Local\Temp\ccf1WNrD.s 			page 53


 2050 0036 00E0     		b	.L192
 2051              	.L191:
 2052              		.loc 1 905 0 discriminator 4
 2053 0038 0023     		movs	r3, #0
 2054              	.L192:
 2055              		.loc 1 905 0 discriminator 6
 2056 003a 002B     		cmp	r3, #0
 2057 003c 02D1     		bne	.L193
 2058              		.loc 1 905 0 discriminator 7
 2059 003e 0020     		movs	r0, #0
 2060 0040 FFF7FEFF 		bl	CyHalt
 2061              	.L193:
 906:Generated_Source\PSoC4/CyDMA.c **** 
 907:Generated_Source\PSoC4/CyDMA.c ****     CYDMA_DESCR_BASE.descriptor[channel][descriptor].dst = dstAddress;
 2062              		.loc 1 907 0 is_stmt 1
 2063 0044 0649     		ldr	r1, .L194
 2064 0046 FB68     		ldr	r3, [r7, #12]
 2065 0048 5A00     		lsls	r2, r3, #1
 2066 004a BB68     		ldr	r3, [r7, #8]
 2067 004c D318     		adds	r3, r2, r3
 2068 004e 1B01     		lsls	r3, r3, #4
 2069 0050 CB18     		adds	r3, r1, r3
 2070 0052 0433     		adds	r3, r3, #4
 2071 0054 7A68     		ldr	r2, [r7, #4]
 2072 0056 1A60     		str	r2, [r3]
 908:Generated_Source\PSoC4/CyDMA.c **** }
 2073              		.loc 1 908 0
 2074 0058 C046     		nop
 2075 005a BD46     		mov	sp, r7
 2076 005c 04B0     		add	sp, sp, #16
 2077              		@ sp needed
 2078 005e 80BD     		pop	{r7, pc}
 2079              	.L195:
 2080              		.align	2
 2081              	.L194:
 2082 0060 00181040 		.word	1074796544
 2083              		.cfi_endproc
 2084              	.LFE31:
 2085              		.size	CyDmaSetDstAddress, .-CyDmaSetDstAddress
 2086              		.section	.text.CyDmaGetDstAddress,"ax",%progbits
 2087              		.align	2
 2088              		.global	CyDmaGetDstAddress
 2089              		.code	16
 2090              		.thumb_func
 2091              		.type	CyDmaGetDstAddress, %function
 2092              	CyDmaGetDstAddress:
 2093              	.LFB32:
 909:Generated_Source\PSoC4/CyDMA.c **** 
 910:Generated_Source\PSoC4/CyDMA.c **** 
 911:Generated_Source\PSoC4/CyDMA.c **** /*******************************************************************************
 912:Generated_Source\PSoC4/CyDMA.c **** * Function Name: CyDmaGetDstAddress
 913:Generated_Source\PSoC4/CyDMA.c **** ********************************************************************************
 914:Generated_Source\PSoC4/CyDMA.c **** *
 915:Generated_Source\PSoC4/CyDMA.c **** * Summary:
 916:Generated_Source\PSoC4/CyDMA.c **** *  Returns the destination address for the specified descriptor, set by 
 917:Generated_Source\PSoC4/CyDMA.c **** *  CyDmaSetDstAddress().
 918:Generated_Source\PSoC4/CyDMA.c **** *
ARM GAS  C:\Users\ADMINI~1\AppData\Local\Temp\ccf1WNrD.s 			page 54


 919:Generated_Source\PSoC4/CyDMA.c **** * Parameters:
 920:Generated_Source\PSoC4/CyDMA.c **** *  channel:    Channel used by this function.
 921:Generated_Source\PSoC4/CyDMA.c **** *  descriptor: Specifies descriptor (0 or 1) used by this function.
 922:Generated_Source\PSoC4/CyDMA.c **** *                   
 923:Generated_Source\PSoC4/CyDMA.c **** * Return:
 924:Generated_Source\PSoC4/CyDMA.c **** *  Destination address written to specified descriptor.
 925:Generated_Source\PSoC4/CyDMA.c **** *
 926:Generated_Source\PSoC4/CyDMA.c **** *******************************************************************************/
 927:Generated_Source\PSoC4/CyDMA.c **** void * CyDmaGetDstAddress(int32 channel, int32 descriptor)
 928:Generated_Source\PSoC4/CyDMA.c **** {
 2094              		.loc 1 928 0
 2095              		.cfi_startproc
 2096              		@ args = 0, pretend = 0, frame = 8
 2097              		@ frame_needed = 1, uses_anonymous_args = 0
 2098 0000 80B5     		push	{r7, lr}
 2099              		.cfi_def_cfa_offset 8
 2100              		.cfi_offset 7, -8
 2101              		.cfi_offset 14, -4
 2102 0002 82B0     		sub	sp, sp, #8
 2103              		.cfi_def_cfa_offset 16
 2104 0004 00AF     		add	r7, sp, #0
 2105              		.cfi_def_cfa_register 7
 2106 0006 7860     		str	r0, [r7, #4]
 2107 0008 3960     		str	r1, [r7]
 929:Generated_Source\PSoC4/CyDMA.c ****     CYASSERT((channel    >= 0) && (channel    < CYDMA_CH_NR));
 2108              		.loc 1 929 0
 2109 000a 7B68     		ldr	r3, [r7, #4]
 2110 000c 002B     		cmp	r3, #0
 2111 000e 04DB     		blt	.L197
 2112              		.loc 1 929 0 is_stmt 0 discriminator 1
 2113 0010 7B68     		ldr	r3, [r7, #4]
 2114 0012 072B     		cmp	r3, #7
 2115 0014 01DC     		bgt	.L197
 2116              		.loc 1 929 0 discriminator 3
 2117 0016 0123     		movs	r3, #1
 2118 0018 00E0     		b	.L198
 2119              	.L197:
 2120              		.loc 1 929 0 discriminator 4
 2121 001a 0023     		movs	r3, #0
 2122              	.L198:
 2123              		.loc 1 929 0 discriminator 6
 2124 001c 002B     		cmp	r3, #0
 2125 001e 02D1     		bne	.L199
 2126              		.loc 1 929 0 discriminator 7
 2127 0020 0020     		movs	r0, #0
 2128 0022 FFF7FEFF 		bl	CyHalt
 2129              	.L199:
 930:Generated_Source\PSoC4/CyDMA.c ****     CYASSERT((descriptor >= 0) && (descriptor < CYDMA_DESCR_NR));
 2130              		.loc 1 930 0 is_stmt 1
 2131 0026 3B68     		ldr	r3, [r7]
 2132 0028 002B     		cmp	r3, #0
 2133 002a 04DB     		blt	.L200
 2134              		.loc 1 930 0 is_stmt 0 discriminator 1
 2135 002c 3B68     		ldr	r3, [r7]
 2136 002e 012B     		cmp	r3, #1
 2137 0030 01DC     		bgt	.L200
 2138              		.loc 1 930 0 discriminator 3
ARM GAS  C:\Users\ADMINI~1\AppData\Local\Temp\ccf1WNrD.s 			page 55


 2139 0032 0123     		movs	r3, #1
 2140 0034 00E0     		b	.L201
 2141              	.L200:
 2142              		.loc 1 930 0 discriminator 4
 2143 0036 0023     		movs	r3, #0
 2144              	.L201:
 2145              		.loc 1 930 0 discriminator 6
 2146 0038 002B     		cmp	r3, #0
 2147 003a 02D1     		bne	.L202
 2148              		.loc 1 930 0 discriminator 7
 2149 003c 0020     		movs	r0, #0
 2150 003e FFF7FEFF 		bl	CyHalt
 2151              	.L202:
 931:Generated_Source\PSoC4/CyDMA.c **** 
 932:Generated_Source\PSoC4/CyDMA.c ****     return (CYDMA_DESCR_BASE.descriptor[channel][descriptor].dst);
 2152              		.loc 1 932 0 is_stmt 1
 2153 0042 0649     		ldr	r1, .L204
 2154 0044 7B68     		ldr	r3, [r7, #4]
 2155 0046 5A00     		lsls	r2, r3, #1
 2156 0048 3B68     		ldr	r3, [r7]
 2157 004a D318     		adds	r3, r2, r3
 2158 004c 1B01     		lsls	r3, r3, #4
 2159 004e CB18     		adds	r3, r1, r3
 2160 0050 0433     		adds	r3, r3, #4
 2161 0052 1B68     		ldr	r3, [r3]
 933:Generated_Source\PSoC4/CyDMA.c **** }
 2162              		.loc 1 933 0
 2163 0054 1800     		movs	r0, r3
 2164 0056 BD46     		mov	sp, r7
 2165 0058 02B0     		add	sp, sp, #8
 2166              		@ sp needed
 2167 005a 80BD     		pop	{r7, pc}
 2168              	.L205:
 2169              		.align	2
 2170              	.L204:
 2171 005c 00181040 		.word	1074796544
 2172              		.cfi_endproc
 2173              	.LFE32:
 2174              		.size	CyDmaGetDstAddress, .-CyDmaGetDstAddress
 2175              		.section	.text.CyDmaSetDataElementSize,"ax",%progbits
 2176              		.align	2
 2177              		.global	CyDmaSetDataElementSize
 2178              		.code	16
 2179              		.thumb_func
 2180              		.type	CyDmaSetDataElementSize, %function
 2181              	CyDmaSetDataElementSize:
 2182              	.LFB33:
 934:Generated_Source\PSoC4/CyDMA.c **** 
 935:Generated_Source\PSoC4/CyDMA.c **** /*******************************************************************************
 936:Generated_Source\PSoC4/CyDMA.c **** * Function Name: CyDmaSetDataElementSize
 937:Generated_Source\PSoC4/CyDMA.c **** ********************************************************************************
 938:Generated_Source\PSoC4/CyDMA.c **** *
 939:Generated_Source\PSoC4/CyDMA.c **** * Summary:
 940:Generated_Source\PSoC4/CyDMA.c **** *  Sets the data element size for the specified descriptor.
 941:Generated_Source\PSoC4/CyDMA.c **** *
 942:Generated_Source\PSoC4/CyDMA.c **** * Parameters:
 943:Generated_Source\PSoC4/CyDMA.c **** *  channel:         Channel used by this function.
ARM GAS  C:\Users\ADMINI~1\AppData\Local\Temp\ccf1WNrD.s 			page 56


 944:Generated_Source\PSoC4/CyDMA.c **** *  descriptor:      Descriptor (0 or 1) modified by this function.
 945:Generated_Source\PSoC4/CyDMA.c **** *  dataElementSize: Specifies the size of the data element. The DMA transfer
 946:Generated_Source\PSoC4/CyDMA.c **** *                   engine transfers one data element at a time. How these
 947:Generated_Source\PSoC4/CyDMA.c **** *                   transfers occur is controlled by the transfer mode.
 948:Generated_Source\PSoC4/CyDMA.c **** *                   Refer to the API bit field definitions in CyDMA_P4.h
 949:Generated_Source\PSoC4/CyDMA.c **** *                   or API description in the DMA channel datasheet for the 
 950:Generated_Source\PSoC4/CyDMA.c **** *                   parameter options.
 951:Generated_Source\PSoC4/CyDMA.c **** *
 952:Generated_Source\PSoC4/CyDMA.c **** * Return:
 953:Generated_Source\PSoC4/CyDMA.c **** *  None.
 954:Generated_Source\PSoC4/CyDMA.c **** *
 955:Generated_Source\PSoC4/CyDMA.c **** * Side effect:
 956:Generated_Source\PSoC4/CyDMA.c **** *  This function should not be called when the specified descriptor is active
 957:Generated_Source\PSoC4/CyDMA.c **** *  in the DMA transfer engine. This can be checked by calling CyDmaGetStatus(). 
 958:Generated_Source\PSoC4/CyDMA.c **** *
 959:Generated_Source\PSoC4/CyDMA.c **** *******************************************************************************/
 960:Generated_Source\PSoC4/CyDMA.c **** void CyDmaSetDataElementSize(int32 channel, int32 descriptor, uint32 dataElementSize)
 961:Generated_Source\PSoC4/CyDMA.c **** {
 2183              		.loc 1 961 0
 2184              		.cfi_startproc
 2185              		@ args = 0, pretend = 0, frame = 24
 2186              		@ frame_needed = 1, uses_anonymous_args = 0
 2187 0000 80B5     		push	{r7, lr}
 2188              		.cfi_def_cfa_offset 8
 2189              		.cfi_offset 7, -8
 2190              		.cfi_offset 14, -4
 2191 0002 86B0     		sub	sp, sp, #24
 2192              		.cfi_def_cfa_offset 32
 2193 0004 00AF     		add	r7, sp, #0
 2194              		.cfi_def_cfa_register 7
 2195 0006 F860     		str	r0, [r7, #12]
 2196 0008 B960     		str	r1, [r7, #8]
 2197 000a 7A60     		str	r2, [r7, #4]
 962:Generated_Source\PSoC4/CyDMA.c ****     uint32 regValue;
 963:Generated_Source\PSoC4/CyDMA.c ****     
 964:Generated_Source\PSoC4/CyDMA.c ****     CYASSERT((channel    >= 0) && (channel    < CYDMA_CH_NR));
 2198              		.loc 1 964 0
 2199 000c FB68     		ldr	r3, [r7, #12]
 2200 000e 002B     		cmp	r3, #0
 2201 0010 04DB     		blt	.L207
 2202              		.loc 1 964 0 is_stmt 0 discriminator 1
 2203 0012 FB68     		ldr	r3, [r7, #12]
 2204 0014 072B     		cmp	r3, #7
 2205 0016 01DC     		bgt	.L207
 2206              		.loc 1 964 0 discriminator 3
 2207 0018 0123     		movs	r3, #1
 2208 001a 00E0     		b	.L208
 2209              	.L207:
 2210              		.loc 1 964 0 discriminator 4
 2211 001c 0023     		movs	r3, #0
 2212              	.L208:
 2213              		.loc 1 964 0 discriminator 6
 2214 001e 002B     		cmp	r3, #0
 2215 0020 02D1     		bne	.L209
 2216              		.loc 1 964 0 discriminator 7
 2217 0022 0020     		movs	r0, #0
 2218 0024 FFF7FEFF 		bl	CyHalt
ARM GAS  C:\Users\ADMINI~1\AppData\Local\Temp\ccf1WNrD.s 			page 57


 2219              	.L209:
 965:Generated_Source\PSoC4/CyDMA.c ****     CYASSERT((descriptor >= 0) && (descriptor < CYDMA_DESCR_NR));
 2220              		.loc 1 965 0 is_stmt 1
 2221 0028 BB68     		ldr	r3, [r7, #8]
 2222 002a 002B     		cmp	r3, #0
 2223 002c 04DB     		blt	.L210
 2224              		.loc 1 965 0 is_stmt 0 discriminator 1
 2225 002e BB68     		ldr	r3, [r7, #8]
 2226 0030 012B     		cmp	r3, #1
 2227 0032 01DC     		bgt	.L210
 2228              		.loc 1 965 0 discriminator 3
 2229 0034 0123     		movs	r3, #1
 2230 0036 00E0     		b	.L211
 2231              	.L210:
 2232              		.loc 1 965 0 discriminator 4
 2233 0038 0023     		movs	r3, #0
 2234              	.L211:
 2235              		.loc 1 965 0 discriminator 6
 2236 003a 002B     		cmp	r3, #0
 2237 003c 02D1     		bne	.L212
 2238              		.loc 1 965 0 discriminator 7
 2239 003e 0020     		movs	r0, #0
 2240 0040 FFF7FEFF 		bl	CyHalt
 2241              	.L212:
 966:Generated_Source\PSoC4/CyDMA.c ****     CYASSERT(0u == (dataElementSize & (uint32)~CYDMA_DATA_SIZE));
 2242              		.loc 1 966 0 is_stmt 1
 2243 0044 7B68     		ldr	r3, [r7, #4]
 2244 0046 114A     		ldr	r2, .L214
 2245 0048 1340     		ands	r3, r2
 2246 004a 02D0     		beq	.L213
 2247              		.loc 1 966 0 is_stmt 0 discriminator 1
 2248 004c 0020     		movs	r0, #0
 2249 004e FFF7FEFF 		bl	CyHalt
 2250              	.L213:
 967:Generated_Source\PSoC4/CyDMA.c **** 
 968:Generated_Source\PSoC4/CyDMA.c ****     regValue = CYDMA_DESCR_BASE.descriptor[channel][descriptor].ctl & (uint32)~CYDMA_DATA_SIZE;
 2251              		.loc 1 968 0 is_stmt 1
 2252 0052 0F49     		ldr	r1, .L214+4
 2253 0054 FB68     		ldr	r3, [r7, #12]
 2254 0056 5A00     		lsls	r2, r3, #1
 2255 0058 BB68     		ldr	r3, [r7, #8]
 2256 005a D318     		adds	r3, r2, r3
 2257 005c 1B01     		lsls	r3, r3, #4
 2258 005e CB18     		adds	r3, r1, r3
 2259 0060 0833     		adds	r3, r3, #8
 2260 0062 1B68     		ldr	r3, [r3]
 2261 0064 094A     		ldr	r2, .L214
 2262 0066 1340     		ands	r3, r2
 2263 0068 7B61     		str	r3, [r7, #20]
 969:Generated_Source\PSoC4/CyDMA.c ****     CYDMA_DESCR_BASE.descriptor[channel][descriptor].ctl = regValue | dataElementSize;
 2264              		.loc 1 969 0
 2265 006a 0948     		ldr	r0, .L214+4
 2266 006c 7A69     		ldr	r2, [r7, #20]
 2267 006e 7B68     		ldr	r3, [r7, #4]
 2268 0070 1A43     		orrs	r2, r3
 2269 0072 FB68     		ldr	r3, [r7, #12]
 2270 0074 5900     		lsls	r1, r3, #1
ARM GAS  C:\Users\ADMINI~1\AppData\Local\Temp\ccf1WNrD.s 			page 58


 2271 0076 BB68     		ldr	r3, [r7, #8]
 2272 0078 CB18     		adds	r3, r1, r3
 2273 007a 1B01     		lsls	r3, r3, #4
 2274 007c C318     		adds	r3, r0, r3
 2275 007e 0833     		adds	r3, r3, #8
 2276 0080 1A60     		str	r2, [r3]
 970:Generated_Source\PSoC4/CyDMA.c **** }
 2277              		.loc 1 970 0
 2278 0082 C046     		nop
 2279 0084 BD46     		mov	sp, r7
 2280 0086 06B0     		add	sp, sp, #24
 2281              		@ sp needed
 2282 0088 80BD     		pop	{r7, pc}
 2283              	.L215:
 2284 008a C046     		.align	2
 2285              	.L214:
 2286 008c FFFFFCFF 		.word	-196609
 2287 0090 00181040 		.word	1074796544
 2288              		.cfi_endproc
 2289              	.LFE33:
 2290              		.size	CyDmaSetDataElementSize, .-CyDmaSetDataElementSize
 2291              		.section	.text.CyDmaGetDataElementSize,"ax",%progbits
 2292              		.align	2
 2293              		.global	CyDmaGetDataElementSize
 2294              		.code	16
 2295              		.thumb_func
 2296              		.type	CyDmaGetDataElementSize, %function
 2297              	CyDmaGetDataElementSize:
 2298              	.LFB34:
 971:Generated_Source\PSoC4/CyDMA.c **** 
 972:Generated_Source\PSoC4/CyDMA.c **** 
 973:Generated_Source\PSoC4/CyDMA.c **** /*******************************************************************************
 974:Generated_Source\PSoC4/CyDMA.c **** * Function Name: CyDmaGetDataElementSize
 975:Generated_Source\PSoC4/CyDMA.c **** ********************************************************************************
 976:Generated_Source\PSoC4/CyDMA.c **** *
 977:Generated_Source\PSoC4/CyDMA.c **** * Summary:
 978:Generated_Source\PSoC4/CyDMA.c **** *  Returns the data element size configured for the specified descriptor, set by
 979:Generated_Source\PSoC4/CyDMA.c **** *  CyDmaSetDataElementSize() or CyDmaSetConfiguration.
 980:Generated_Source\PSoC4/CyDMA.c **** *
 981:Generated_Source\PSoC4/CyDMA.c **** * Parameters:
 982:Generated_Source\PSoC4/CyDMA.c **** *  channel:    Channel used by this function.
 983:Generated_Source\PSoC4/CyDMA.c **** *  descriptor: Descriptor (0 or 1) modified by this function.
 984:Generated_Source\PSoC4/CyDMA.c **** *                   
 985:Generated_Source\PSoC4/CyDMA.c **** * Return:
 986:Generated_Source\PSoC4/CyDMA.c **** *  The size of the data element. The DMA transfer engine transfers one data
 987:Generated_Source\PSoC4/CyDMA.c **** *  element at a time. How these transfers occur is controlled by the transfer
 988:Generated_Source\PSoC4/CyDMA.c **** *  mode. Refer to the API bit field definitions in CyDMA_P4.h or the API 
 989:Generated_Source\PSoC4/CyDMA.c **** *  description in the DMA channel datasheet for more information.
 990:Generated_Source\PSoC4/CyDMA.c **** *
 991:Generated_Source\PSoC4/CyDMA.c **** * Note:
 992:Generated_Source\PSoC4/CyDMA.c **** *  The size of the source and destination can be configured to use the
 993:Generated_Source\PSoC4/CyDMA.c **** *  data element size, or a Word, this is set in CyDmaSetSrcDstTransferWidth().
 994:Generated_Source\PSoC4/CyDMA.c **** *
 995:Generated_Source\PSoC4/CyDMA.c **** *******************************************************************************/
 996:Generated_Source\PSoC4/CyDMA.c **** uint32 CyDmaGetDataElementSize(int32 channel, int32 descriptor)
 997:Generated_Source\PSoC4/CyDMA.c **** {
 2299              		.loc 1 997 0
ARM GAS  C:\Users\ADMINI~1\AppData\Local\Temp\ccf1WNrD.s 			page 59


 2300              		.cfi_startproc
 2301              		@ args = 0, pretend = 0, frame = 8
 2302              		@ frame_needed = 1, uses_anonymous_args = 0
 2303 0000 80B5     		push	{r7, lr}
 2304              		.cfi_def_cfa_offset 8
 2305              		.cfi_offset 7, -8
 2306              		.cfi_offset 14, -4
 2307 0002 82B0     		sub	sp, sp, #8
 2308              		.cfi_def_cfa_offset 16
 2309 0004 00AF     		add	r7, sp, #0
 2310              		.cfi_def_cfa_register 7
 2311 0006 7860     		str	r0, [r7, #4]
 2312 0008 3960     		str	r1, [r7]
 998:Generated_Source\PSoC4/CyDMA.c ****     CYASSERT((channel    >= 0) && (channel    < CYDMA_CH_NR));
 2313              		.loc 1 998 0
 2314 000a 7B68     		ldr	r3, [r7, #4]
 2315 000c 002B     		cmp	r3, #0
 2316 000e 04DB     		blt	.L217
 2317              		.loc 1 998 0 is_stmt 0 discriminator 1
 2318 0010 7B68     		ldr	r3, [r7, #4]
 2319 0012 072B     		cmp	r3, #7
 2320 0014 01DC     		bgt	.L217
 2321              		.loc 1 998 0 discriminator 3
 2322 0016 0123     		movs	r3, #1
 2323 0018 00E0     		b	.L218
 2324              	.L217:
 2325              		.loc 1 998 0 discriminator 4
 2326 001a 0023     		movs	r3, #0
 2327              	.L218:
 2328              		.loc 1 998 0 discriminator 6
 2329 001c 002B     		cmp	r3, #0
 2330 001e 02D1     		bne	.L219
 2331              		.loc 1 998 0 discriminator 7
 2332 0020 0020     		movs	r0, #0
 2333 0022 FFF7FEFF 		bl	CyHalt
 2334              	.L219:
 999:Generated_Source\PSoC4/CyDMA.c ****     CYASSERT((descriptor >= 0) && (descriptor < CYDMA_DESCR_NR));
 2335              		.loc 1 999 0 is_stmt 1
 2336 0026 3B68     		ldr	r3, [r7]
 2337 0028 002B     		cmp	r3, #0
 2338 002a 04DB     		blt	.L220
 2339              		.loc 1 999 0 is_stmt 0 discriminator 1
 2340 002c 3B68     		ldr	r3, [r7]
 2341 002e 012B     		cmp	r3, #1
 2342 0030 01DC     		bgt	.L220
 2343              		.loc 1 999 0 discriminator 3
 2344 0032 0123     		movs	r3, #1
 2345 0034 00E0     		b	.L221
 2346              	.L220:
 2347              		.loc 1 999 0 discriminator 4
 2348 0036 0023     		movs	r3, #0
 2349              	.L221:
 2350              		.loc 1 999 0 discriminator 6
 2351 0038 002B     		cmp	r3, #0
 2352 003a 02D1     		bne	.L222
 2353              		.loc 1 999 0 discriminator 7
 2354 003c 0020     		movs	r0, #0
ARM GAS  C:\Users\ADMINI~1\AppData\Local\Temp\ccf1WNrD.s 			page 60


 2355 003e FFF7FEFF 		bl	CyHalt
 2356              	.L222:
1000:Generated_Source\PSoC4/CyDMA.c **** 
1001:Generated_Source\PSoC4/CyDMA.c ****     return (CYDMA_DESCR_BASE.descriptor[channel][descriptor].ctl & CYDMA_DATA_SIZE);
 2357              		.loc 1 1001 0 is_stmt 1
 2358 0042 0849     		ldr	r1, .L224
 2359 0044 7B68     		ldr	r3, [r7, #4]
 2360 0046 5A00     		lsls	r2, r3, #1
 2361 0048 3B68     		ldr	r3, [r7]
 2362 004a D318     		adds	r3, r2, r3
 2363 004c 1B01     		lsls	r3, r3, #4
 2364 004e CB18     		adds	r3, r1, r3
 2365 0050 0833     		adds	r3, r3, #8
 2366 0052 1A68     		ldr	r2, [r3]
 2367 0054 C023     		movs	r3, #192
 2368 0056 9B02     		lsls	r3, r3, #10
 2369 0058 1340     		ands	r3, r2
1002:Generated_Source\PSoC4/CyDMA.c **** }
 2370              		.loc 1 1002 0
 2371 005a 1800     		movs	r0, r3
 2372 005c BD46     		mov	sp, r7
 2373 005e 02B0     		add	sp, sp, #8
 2374              		@ sp needed
 2375 0060 80BD     		pop	{r7, pc}
 2376              	.L225:
 2377 0062 C046     		.align	2
 2378              	.L224:
 2379 0064 00181040 		.word	1074796544
 2380              		.cfi_endproc
 2381              	.LFE34:
 2382              		.size	CyDmaGetDataElementSize, .-CyDmaGetDataElementSize
 2383              		.section	.text.CyDmaSetNumDataElements,"ax",%progbits
 2384              		.align	2
 2385              		.global	CyDmaSetNumDataElements
 2386              		.code	16
 2387              		.thumb_func
 2388              		.type	CyDmaSetNumDataElements, %function
 2389              	CyDmaSetNumDataElements:
 2390              	.LFB35:
1003:Generated_Source\PSoC4/CyDMA.c **** 
1004:Generated_Source\PSoC4/CyDMA.c **** 
1005:Generated_Source\PSoC4/CyDMA.c **** /*******************************************************************************
1006:Generated_Source\PSoC4/CyDMA.c **** * Function Name: CyDmaSetNumDataElements
1007:Generated_Source\PSoC4/CyDMA.c **** ********************************************************************************
1008:Generated_Source\PSoC4/CyDMA.c **** *
1009:Generated_Source\PSoC4/CyDMA.c **** * Summary:
1010:Generated_Source\PSoC4/CyDMA.c **** *  Sets the number of data elements to transfer for specified descriptor.
1011:Generated_Source\PSoC4/CyDMA.c **** *
1012:Generated_Source\PSoC4/CyDMA.c **** * Parameters:
1013:Generated_Source\PSoC4/CyDMA.c **** *  channel:         Channel used by this function.
1014:Generated_Source\PSoC4/CyDMA.c **** *  descriptor:      Descriptor (0 or 1) modified by this function.
1015:Generated_Source\PSoC4/CyDMA.c **** *  numDataElements: Total number of data elements this descriptor transfers.
1016:Generated_Source\PSoC4/CyDMA.c **** *                   Valid ranges are 1 to 65536.
1017:Generated_Source\PSoC4/CyDMA.c **** *                   
1018:Generated_Source\PSoC4/CyDMA.c **** * Return:
1019:Generated_Source\PSoC4/CyDMA.c **** *  None.
1020:Generated_Source\PSoC4/CyDMA.c **** *
ARM GAS  C:\Users\ADMINI~1\AppData\Local\Temp\ccf1WNrD.s 			page 61


1021:Generated_Source\PSoC4/CyDMA.c **** * Side effect:
1022:Generated_Source\PSoC4/CyDMA.c **** *  This function should not be called when the specified descriptor is active
1023:Generated_Source\PSoC4/CyDMA.c **** *  in the DMA transfer engine. This can be checked by calling CyDmaGetStatus(). 
1024:Generated_Source\PSoC4/CyDMA.c **** *
1025:Generated_Source\PSoC4/CyDMA.c **** *******************************************************************************/
1026:Generated_Source\PSoC4/CyDMA.c **** void CyDmaSetNumDataElements(int32 channel, int32 descriptor, int32 numDataElements)
1027:Generated_Source\PSoC4/CyDMA.c **** {
 2391              		.loc 1 1027 0
 2392              		.cfi_startproc
 2393              		@ args = 0, pretend = 0, frame = 24
 2394              		@ frame_needed = 1, uses_anonymous_args = 0
 2395 0000 80B5     		push	{r7, lr}
 2396              		.cfi_def_cfa_offset 8
 2397              		.cfi_offset 7, -8
 2398              		.cfi_offset 14, -4
 2399 0002 86B0     		sub	sp, sp, #24
 2400              		.cfi_def_cfa_offset 32
 2401 0004 00AF     		add	r7, sp, #0
 2402              		.cfi_def_cfa_register 7
 2403 0006 F860     		str	r0, [r7, #12]
 2404 0008 B960     		str	r1, [r7, #8]
 2405 000a 7A60     		str	r2, [r7, #4]
1028:Generated_Source\PSoC4/CyDMA.c ****     uint32 regValue;
1029:Generated_Source\PSoC4/CyDMA.c ****     
1030:Generated_Source\PSoC4/CyDMA.c ****     CYASSERT((channel        >= 0) && (channel         <  CYDMA_CH_NR));
 2406              		.loc 1 1030 0
 2407 000c FB68     		ldr	r3, [r7, #12]
 2408 000e 002B     		cmp	r3, #0
 2409 0010 04DB     		blt	.L227
 2410              		.loc 1 1030 0 is_stmt 0 discriminator 1
 2411 0012 FB68     		ldr	r3, [r7, #12]
 2412 0014 072B     		cmp	r3, #7
 2413 0016 01DC     		bgt	.L227
 2414              		.loc 1 1030 0 discriminator 3
 2415 0018 0123     		movs	r3, #1
 2416 001a 00E0     		b	.L228
 2417              	.L227:
 2418              		.loc 1 1030 0 discriminator 4
 2419 001c 0023     		movs	r3, #0
 2420              	.L228:
 2421              		.loc 1 1030 0 discriminator 6
 2422 001e 002B     		cmp	r3, #0
 2423 0020 02D1     		bne	.L229
 2424              		.loc 1 1030 0 discriminator 7
 2425 0022 0020     		movs	r0, #0
 2426 0024 FFF7FEFF 		bl	CyHalt
 2427              	.L229:
1031:Generated_Source\PSoC4/CyDMA.c ****     CYASSERT((descriptor     >= 0) && (descriptor      <  CYDMA_DESCR_NR));
 2428              		.loc 1 1031 0 is_stmt 1
 2429 0028 BB68     		ldr	r3, [r7, #8]
 2430 002a 002B     		cmp	r3, #0
 2431 002c 04DB     		blt	.L230
 2432              		.loc 1 1031 0 is_stmt 0 discriminator 1
 2433 002e BB68     		ldr	r3, [r7, #8]
 2434 0030 012B     		cmp	r3, #1
 2435 0032 01DC     		bgt	.L230
 2436              		.loc 1 1031 0 discriminator 3
ARM GAS  C:\Users\ADMINI~1\AppData\Local\Temp\ccf1WNrD.s 			page 62


 2437 0034 0123     		movs	r3, #1
 2438 0036 00E0     		b	.L231
 2439              	.L230:
 2440              		.loc 1 1031 0 discriminator 4
 2441 0038 0023     		movs	r3, #0
 2442              	.L231:
 2443              		.loc 1 1031 0 discriminator 6
 2444 003a 002B     		cmp	r3, #0
 2445 003c 02D1     		bne	.L232
 2446              		.loc 1 1031 0 discriminator 7
 2447 003e 0020     		movs	r0, #0
 2448 0040 FFF7FEFF 		bl	CyHalt
 2449              	.L232:
1032:Generated_Source\PSoC4/CyDMA.c ****     CYASSERT((numDataElements > 0) && (numDataElements <= CYDMA_MAX_DATA_NR));
 2450              		.loc 1 1032 0 is_stmt 1
 2451 0044 7B68     		ldr	r3, [r7, #4]
 2452 0046 002B     		cmp	r3, #0
 2453 0048 06DD     		ble	.L233
 2454              		.loc 1 1032 0 is_stmt 0 discriminator 1
 2455 004a 7A68     		ldr	r2, [r7, #4]
 2456 004c 8023     		movs	r3, #128
 2457 004e 5B02     		lsls	r3, r3, #9
 2458 0050 9A42     		cmp	r2, r3
 2459 0052 01DC     		bgt	.L233
 2460              		.loc 1 1032 0 discriminator 3
 2461 0054 0123     		movs	r3, #1
 2462 0056 00E0     		b	.L234
 2463              	.L233:
 2464              		.loc 1 1032 0 discriminator 4
 2465 0058 0023     		movs	r3, #0
 2466              	.L234:
 2467              		.loc 1 1032 0 discriminator 6
 2468 005a 002B     		cmp	r3, #0
 2469 005c 02D1     		bne	.L235
 2470              		.loc 1 1032 0 discriminator 7
 2471 005e 0020     		movs	r0, #0
 2472 0060 FFF7FEFF 		bl	CyHalt
 2473              	.L235:
1033:Generated_Source\PSoC4/CyDMA.c ****     
1034:Generated_Source\PSoC4/CyDMA.c ****     --numDataElements;
 2474              		.loc 1 1034 0 is_stmt 1
 2475 0064 7B68     		ldr	r3, [r7, #4]
 2476 0066 013B     		subs	r3, r3, #1
 2477 0068 7B60     		str	r3, [r7, #4]
1035:Generated_Source\PSoC4/CyDMA.c ****     regValue = CYDMA_DESCR_BASE.descriptor[channel][descriptor].ctl & (uint32)~CYDMA_DATA_NR;
 2478              		.loc 1 1035 0
 2479 006a 0E49     		ldr	r1, .L236
 2480 006c FB68     		ldr	r3, [r7, #12]
 2481 006e 5A00     		lsls	r2, r3, #1
 2482 0070 BB68     		ldr	r3, [r7, #8]
 2483 0072 D318     		adds	r3, r2, r3
 2484 0074 1B01     		lsls	r3, r3, #4
 2485 0076 CB18     		adds	r3, r1, r3
 2486 0078 0833     		adds	r3, r3, #8
 2487 007a 1B68     		ldr	r3, [r3]
 2488 007c 1B0C     		lsrs	r3, r3, #16
 2489 007e 1B04     		lsls	r3, r3, #16
ARM GAS  C:\Users\ADMINI~1\AppData\Local\Temp\ccf1WNrD.s 			page 63


 2490 0080 7B61     		str	r3, [r7, #20]
1036:Generated_Source\PSoC4/CyDMA.c ****     CYDMA_DESCR_BASE.descriptor[channel][descriptor].ctl = regValue | (uint32)numDataElements;
 2491              		.loc 1 1036 0
 2492 0082 0848     		ldr	r0, .L236
 2493 0084 7A68     		ldr	r2, [r7, #4]
 2494 0086 7B69     		ldr	r3, [r7, #20]
 2495 0088 1A43     		orrs	r2, r3
 2496 008a FB68     		ldr	r3, [r7, #12]
 2497 008c 5900     		lsls	r1, r3, #1
 2498 008e BB68     		ldr	r3, [r7, #8]
 2499 0090 CB18     		adds	r3, r1, r3
 2500 0092 1B01     		lsls	r3, r3, #4
 2501 0094 C318     		adds	r3, r0, r3
 2502 0096 0833     		adds	r3, r3, #8
 2503 0098 1A60     		str	r2, [r3]
1037:Generated_Source\PSoC4/CyDMA.c **** }
 2504              		.loc 1 1037 0
 2505 009a C046     		nop
 2506 009c BD46     		mov	sp, r7
 2507 009e 06B0     		add	sp, sp, #24
 2508              		@ sp needed
 2509 00a0 80BD     		pop	{r7, pc}
 2510              	.L237:
 2511 00a2 C046     		.align	2
 2512              	.L236:
 2513 00a4 00181040 		.word	1074796544
 2514              		.cfi_endproc
 2515              	.LFE35:
 2516              		.size	CyDmaSetNumDataElements, .-CyDmaSetNumDataElements
 2517              		.section	.text.CyDmaGetNumDataElements,"ax",%progbits
 2518              		.align	2
 2519              		.global	CyDmaGetNumDataElements
 2520              		.code	16
 2521              		.thumb_func
 2522              		.type	CyDmaGetNumDataElements, %function
 2523              	CyDmaGetNumDataElements:
 2524              	.LFB36:
1038:Generated_Source\PSoC4/CyDMA.c **** 
1039:Generated_Source\PSoC4/CyDMA.c **** 
1040:Generated_Source\PSoC4/CyDMA.c **** /*******************************************************************************
1041:Generated_Source\PSoC4/CyDMA.c **** * Function Name: CyDmaGetNumDataElements
1042:Generated_Source\PSoC4/CyDMA.c **** ********************************************************************************
1043:Generated_Source\PSoC4/CyDMA.c **** *
1044:Generated_Source\PSoC4/CyDMA.c **** * Summary:
1045:Generated_Source\PSoC4/CyDMA.c **** *  Returns the number of data elements to be transferred. Only reflects the
1046:Generated_Source\PSoC4/CyDMA.c **** *  value written by CyDmaSetNumDataElements() or CyDmaSetConfiguration(). This
1047:Generated_Source\PSoC4/CyDMA.c **** *  does not reflect how many elements have been transferred. For that
1048:Generated_Source\PSoC4/CyDMA.c **** *  information use the CyDmaGetDescriptorStatus() function.
1049:Generated_Source\PSoC4/CyDMA.c **** *
1050:Generated_Source\PSoC4/CyDMA.c **** * Parameters:
1051:Generated_Source\PSoC4/CyDMA.c **** *  channel:    Channel used by this function.
1052:Generated_Source\PSoC4/CyDMA.c **** *  descriptor: Descriptor (0 or 1) modified by this function.
1053:Generated_Source\PSoC4/CyDMA.c **** *                   
1054:Generated_Source\PSoC4/CyDMA.c **** * Return:
1055:Generated_Source\PSoC4/CyDMA.c **** *  Number of data elements to transfer.
1056:Generated_Source\PSoC4/CyDMA.c **** *
1057:Generated_Source\PSoC4/CyDMA.c **** *******************************************************************************/
ARM GAS  C:\Users\ADMINI~1\AppData\Local\Temp\ccf1WNrD.s 			page 64


1058:Generated_Source\PSoC4/CyDMA.c **** int32 CyDmaGetNumDataElements(int32 channel, int32 descriptor)
1059:Generated_Source\PSoC4/CyDMA.c **** {
 2525              		.loc 1 1059 0
 2526              		.cfi_startproc
 2527              		@ args = 0, pretend = 0, frame = 16
 2528              		@ frame_needed = 1, uses_anonymous_args = 0
 2529 0000 80B5     		push	{r7, lr}
 2530              		.cfi_def_cfa_offset 8
 2531              		.cfi_offset 7, -8
 2532              		.cfi_offset 14, -4
 2533 0002 84B0     		sub	sp, sp, #16
 2534              		.cfi_def_cfa_offset 24
 2535 0004 00AF     		add	r7, sp, #0
 2536              		.cfi_def_cfa_register 7
 2537 0006 7860     		str	r0, [r7, #4]
 2538 0008 3960     		str	r1, [r7]
1060:Generated_Source\PSoC4/CyDMA.c ****     uint32 numElements;
1061:Generated_Source\PSoC4/CyDMA.c **** 
1062:Generated_Source\PSoC4/CyDMA.c ****     CYASSERT((channel    >= 0) && (channel    < CYDMA_CH_NR));
 2539              		.loc 1 1062 0
 2540 000a 7B68     		ldr	r3, [r7, #4]
 2541 000c 002B     		cmp	r3, #0
 2542 000e 04DB     		blt	.L239
 2543              		.loc 1 1062 0 is_stmt 0 discriminator 1
 2544 0010 7B68     		ldr	r3, [r7, #4]
 2545 0012 072B     		cmp	r3, #7
 2546 0014 01DC     		bgt	.L239
 2547              		.loc 1 1062 0 discriminator 3
 2548 0016 0123     		movs	r3, #1
 2549 0018 00E0     		b	.L240
 2550              	.L239:
 2551              		.loc 1 1062 0 discriminator 4
 2552 001a 0023     		movs	r3, #0
 2553              	.L240:
 2554              		.loc 1 1062 0 discriminator 6
 2555 001c 002B     		cmp	r3, #0
 2556 001e 02D1     		bne	.L241
 2557              		.loc 1 1062 0 discriminator 7
 2558 0020 0020     		movs	r0, #0
 2559 0022 FFF7FEFF 		bl	CyHalt
 2560              	.L241:
1063:Generated_Source\PSoC4/CyDMA.c ****     CYASSERT((descriptor >= 0) && (descriptor < CYDMA_DESCR_NR));
 2561              		.loc 1 1063 0 is_stmt 1
 2562 0026 3B68     		ldr	r3, [r7]
 2563 0028 002B     		cmp	r3, #0
 2564 002a 04DB     		blt	.L242
 2565              		.loc 1 1063 0 is_stmt 0 discriminator 1
 2566 002c 3B68     		ldr	r3, [r7]
 2567 002e 012B     		cmp	r3, #1
 2568 0030 01DC     		bgt	.L242
 2569              		.loc 1 1063 0 discriminator 3
 2570 0032 0123     		movs	r3, #1
 2571 0034 00E0     		b	.L243
 2572              	.L242:
 2573              		.loc 1 1063 0 discriminator 4
 2574 0036 0023     		movs	r3, #0
 2575              	.L243:
ARM GAS  C:\Users\ADMINI~1\AppData\Local\Temp\ccf1WNrD.s 			page 65


 2576              		.loc 1 1063 0 discriminator 6
 2577 0038 002B     		cmp	r3, #0
 2578 003a 02D1     		bne	.L244
 2579              		.loc 1 1063 0 discriminator 7
 2580 003c 0020     		movs	r0, #0
 2581 003e FFF7FEFF 		bl	CyHalt
 2582              	.L244:
1064:Generated_Source\PSoC4/CyDMA.c ****     
1065:Generated_Source\PSoC4/CyDMA.c ****     numElements = (CYDMA_DESCR_BASE.descriptor[channel][descriptor].ctl & CYDMA_DATA_NR) + 1u;
 2583              		.loc 1 1065 0 is_stmt 1
 2584 0042 0949     		ldr	r1, .L246
 2585 0044 7B68     		ldr	r3, [r7, #4]
 2586 0046 5A00     		lsls	r2, r3, #1
 2587 0048 3B68     		ldr	r3, [r7]
 2588 004a D318     		adds	r3, r2, r3
 2589 004c 1B01     		lsls	r3, r3, #4
 2590 004e CB18     		adds	r3, r1, r3
 2591 0050 0833     		adds	r3, r3, #8
 2592 0052 1B68     		ldr	r3, [r3]
 2593 0054 1B04     		lsls	r3, r3, #16
 2594 0056 1B0C     		lsrs	r3, r3, #16
 2595 0058 0133     		adds	r3, r3, #1
 2596 005a FB60     		str	r3, [r7, #12]
1066:Generated_Source\PSoC4/CyDMA.c ****     return ((int32)numElements);
 2597              		.loc 1 1066 0
 2598 005c FB68     		ldr	r3, [r7, #12]
1067:Generated_Source\PSoC4/CyDMA.c **** }
 2599              		.loc 1 1067 0
 2600 005e 1800     		movs	r0, r3
 2601 0060 BD46     		mov	sp, r7
 2602 0062 04B0     		add	sp, sp, #16
 2603              		@ sp needed
 2604 0064 80BD     		pop	{r7, pc}
 2605              	.L247:
 2606 0066 C046     		.align	2
 2607              	.L246:
 2608 0068 00181040 		.word	1074796544
 2609              		.cfi_endproc
 2610              	.LFE36:
 2611              		.size	CyDmaGetNumDataElements, .-CyDmaGetNumDataElements
 2612              		.section	.text.CyDmaSetSrcDstTransferWidth,"ax",%progbits
 2613              		.align	2
 2614              		.global	CyDmaSetSrcDstTransferWidth
 2615              		.code	16
 2616              		.thumb_func
 2617              		.type	CyDmaSetSrcDstTransferWidth, %function
 2618              	CyDmaSetSrcDstTransferWidth:
 2619              	.LFB37:
1068:Generated_Source\PSoC4/CyDMA.c **** 
1069:Generated_Source\PSoC4/CyDMA.c **** 
1070:Generated_Source\PSoC4/CyDMA.c **** /*******************************************************************************
1071:Generated_Source\PSoC4/CyDMA.c **** * Function Name: CyDmaSetSrcDstTransferWidth
1072:Generated_Source\PSoC4/CyDMA.c **** ********************************************************************************
1073:Generated_Source\PSoC4/CyDMA.c **** *
1074:Generated_Source\PSoC4/CyDMA.c **** * Summary:
1075:Generated_Source\PSoC4/CyDMA.c **** *  Sets the width of the source and destination. The DMA can either read and
1076:Generated_Source\PSoC4/CyDMA.c **** *  write data from the source and destination at the size specified by
ARM GAS  C:\Users\ADMINI~1\AppData\Local\Temp\ccf1WNrD.s 			page 66


1077:Generated_Source\PSoC4/CyDMA.c **** *  CyDmaSetDataElementSize() or by a word (4bytes). This also determines how
1078:Generated_Source\PSoC4/CyDMA.c **** *  many bytes the addresses are incremented if increment source and destination
1079:Generated_Source\PSoC4/CyDMA.c **** *  address are turned on.
1080:Generated_Source\PSoC4/CyDMA.c **** *
1081:Generated_Source\PSoC4/CyDMA.c **** * Parameters:
1082:Generated_Source\PSoC4/CyDMA.c **** *  channel:       Channel used by this function.
1083:Generated_Source\PSoC4/CyDMA.c **** *  descriptor:    Descriptor (0 or 1) modified by this function.
1084:Generated_Source\PSoC4/CyDMA.c **** *  transferWidth: Specifies the source and destination widths. Refer to 
1085:Generated_Source\PSoC4/CyDMA.c **** *                 the API bit field definitions in CyDMA_P4.h or the API
1086:Generated_Source\PSoC4/CyDMA.c **** *                 description in the DMA channel datasheet for the parameter
1087:Generated_Source\PSoC4/CyDMA.c **** *                 options.
1088:Generated_Source\PSoC4/CyDMA.c **** *                   
1089:Generated_Source\PSoC4/CyDMA.c **** * Return:
1090:Generated_Source\PSoC4/CyDMA.c **** *  None.
1091:Generated_Source\PSoC4/CyDMA.c **** *
1092:Generated_Source\PSoC4/CyDMA.c **** * Side effect:
1093:Generated_Source\PSoC4/CyDMA.c **** *  This function should not be called when the specified descriptor is active
1094:Generated_Source\PSoC4/CyDMA.c **** *  in the DMA transfer engine. This can be checked by calling CyDmaGetStatus(). 
1095:Generated_Source\PSoC4/CyDMA.c **** *
1096:Generated_Source\PSoC4/CyDMA.c **** *******************************************************************************/
1097:Generated_Source\PSoC4/CyDMA.c **** void CyDmaSetSrcDstTransferWidth(int32 channel, int32 descriptor, uint32 transferWidth)
1098:Generated_Source\PSoC4/CyDMA.c **** {
 2620              		.loc 1 1098 0
 2621              		.cfi_startproc
 2622              		@ args = 0, pretend = 0, frame = 24
 2623              		@ frame_needed = 1, uses_anonymous_args = 0
 2624 0000 80B5     		push	{r7, lr}
 2625              		.cfi_def_cfa_offset 8
 2626              		.cfi_offset 7, -8
 2627              		.cfi_offset 14, -4
 2628 0002 86B0     		sub	sp, sp, #24
 2629              		.cfi_def_cfa_offset 32
 2630 0004 00AF     		add	r7, sp, #0
 2631              		.cfi_def_cfa_register 7
 2632 0006 F860     		str	r0, [r7, #12]
 2633 0008 B960     		str	r1, [r7, #8]
 2634 000a 7A60     		str	r2, [r7, #4]
1099:Generated_Source\PSoC4/CyDMA.c ****     uint32 regValue;
1100:Generated_Source\PSoC4/CyDMA.c **** 
1101:Generated_Source\PSoC4/CyDMA.c ****     CYASSERT((channel    >= 0) && (channel    < CYDMA_CH_NR));
 2635              		.loc 1 1101 0
 2636 000c FB68     		ldr	r3, [r7, #12]
 2637 000e 002B     		cmp	r3, #0
 2638 0010 04DB     		blt	.L249
 2639              		.loc 1 1101 0 is_stmt 0 discriminator 1
 2640 0012 FB68     		ldr	r3, [r7, #12]
 2641 0014 072B     		cmp	r3, #7
 2642 0016 01DC     		bgt	.L249
 2643              		.loc 1 1101 0 discriminator 3
 2644 0018 0123     		movs	r3, #1
 2645 001a 00E0     		b	.L250
 2646              	.L249:
 2647              		.loc 1 1101 0 discriminator 4
 2648 001c 0023     		movs	r3, #0
 2649              	.L250:
 2650              		.loc 1 1101 0 discriminator 6
 2651 001e 002B     		cmp	r3, #0
ARM GAS  C:\Users\ADMINI~1\AppData\Local\Temp\ccf1WNrD.s 			page 67


 2652 0020 02D1     		bne	.L251
 2653              		.loc 1 1101 0 discriminator 7
 2654 0022 0020     		movs	r0, #0
 2655 0024 FFF7FEFF 		bl	CyHalt
 2656              	.L251:
1102:Generated_Source\PSoC4/CyDMA.c ****     CYASSERT((descriptor >= 0) && (descriptor < CYDMA_DESCR_NR));
 2657              		.loc 1 1102 0 is_stmt 1
 2658 0028 BB68     		ldr	r3, [r7, #8]
 2659 002a 002B     		cmp	r3, #0
 2660 002c 04DB     		blt	.L252
 2661              		.loc 1 1102 0 is_stmt 0 discriminator 1
 2662 002e BB68     		ldr	r3, [r7, #8]
 2663 0030 012B     		cmp	r3, #1
 2664 0032 01DC     		bgt	.L252
 2665              		.loc 1 1102 0 discriminator 3
 2666 0034 0123     		movs	r3, #1
 2667 0036 00E0     		b	.L253
 2668              	.L252:
 2669              		.loc 1 1102 0 discriminator 4
 2670 0038 0023     		movs	r3, #0
 2671              	.L253:
 2672              		.loc 1 1102 0 discriminator 6
 2673 003a 002B     		cmp	r3, #0
 2674 003c 02D1     		bne	.L254
 2675              		.loc 1 1102 0 discriminator 7
 2676 003e 0020     		movs	r0, #0
 2677 0040 FFF7FEFF 		bl	CyHalt
 2678              	.L254:
1103:Generated_Source\PSoC4/CyDMA.c ****     CYASSERT(0u == (transferWidth & (uint32)~CYDMA_TRANSFER_WIDTH));
 2679              		.loc 1 1103 0 is_stmt 1
 2680 0044 7B68     		ldr	r3, [r7, #4]
 2681 0046 114A     		ldr	r2, .L256
 2682 0048 1340     		ands	r3, r2
 2683 004a 02D0     		beq	.L255
 2684              		.loc 1 1103 0 is_stmt 0 discriminator 1
 2685 004c 0020     		movs	r0, #0
 2686 004e FFF7FEFF 		bl	CyHalt
 2687              	.L255:
1104:Generated_Source\PSoC4/CyDMA.c **** 
1105:Generated_Source\PSoC4/CyDMA.c ****     regValue = CYDMA_DESCR_BASE.descriptor[channel][descriptor].ctl & (uint32)~CYDMA_TRANSFER_WIDTH
 2688              		.loc 1 1105 0 is_stmt 1
 2689 0052 0F49     		ldr	r1, .L256+4
 2690 0054 FB68     		ldr	r3, [r7, #12]
 2691 0056 5A00     		lsls	r2, r3, #1
 2692 0058 BB68     		ldr	r3, [r7, #8]
 2693 005a D318     		adds	r3, r2, r3
 2694 005c 1B01     		lsls	r3, r3, #4
 2695 005e CB18     		adds	r3, r1, r3
 2696 0060 0833     		adds	r3, r3, #8
 2697 0062 1B68     		ldr	r3, [r3]
 2698 0064 094A     		ldr	r2, .L256
 2699 0066 1340     		ands	r3, r2
 2700 0068 7B61     		str	r3, [r7, #20]
1106:Generated_Source\PSoC4/CyDMA.c ****     CYDMA_DESCR_BASE.descriptor[channel][descriptor].ctl = regValue | transferWidth;
 2701              		.loc 1 1106 0
 2702 006a 0948     		ldr	r0, .L256+4
 2703 006c 7A69     		ldr	r2, [r7, #20]
ARM GAS  C:\Users\ADMINI~1\AppData\Local\Temp\ccf1WNrD.s 			page 68


 2704 006e 7B68     		ldr	r3, [r7, #4]
 2705 0070 1A43     		orrs	r2, r3
 2706 0072 FB68     		ldr	r3, [r7, #12]
 2707 0074 5900     		lsls	r1, r3, #1
 2708 0076 BB68     		ldr	r3, [r7, #8]
 2709 0078 CB18     		adds	r3, r1, r3
 2710 007a 1B01     		lsls	r3, r3, #4
 2711 007c C318     		adds	r3, r0, r3
 2712 007e 0833     		adds	r3, r3, #8
 2713 0080 1A60     		str	r2, [r3]
1107:Generated_Source\PSoC4/CyDMA.c **** }
 2714              		.loc 1 1107 0
 2715 0082 C046     		nop
 2716 0084 BD46     		mov	sp, r7
 2717 0086 06B0     		add	sp, sp, #24
 2718              		@ sp needed
 2719 0088 80BD     		pop	{r7, pc}
 2720              	.L257:
 2721 008a C046     		.align	2
 2722              	.L256:
 2723 008c FFFFAFFF 		.word	-5242881
 2724 0090 00181040 		.word	1074796544
 2725              		.cfi_endproc
 2726              	.LFE37:
 2727              		.size	CyDmaSetSrcDstTransferWidth, .-CyDmaSetSrcDstTransferWidth
 2728              		.section	.text.CyDmaGetSrcDstTransferWidth,"ax",%progbits
 2729              		.align	2
 2730              		.global	CyDmaGetSrcDstTransferWidth
 2731              		.code	16
 2732              		.thumb_func
 2733              		.type	CyDmaGetSrcDstTransferWidth, %function
 2734              	CyDmaGetSrcDstTransferWidth:
 2735              	.LFB38:
1108:Generated_Source\PSoC4/CyDMA.c **** 
1109:Generated_Source\PSoC4/CyDMA.c **** 
1110:Generated_Source\PSoC4/CyDMA.c **** /*******************************************************************************
1111:Generated_Source\PSoC4/CyDMA.c **** * Function Name: CyDmaGetSrcDstTransferWidth
1112:Generated_Source\PSoC4/CyDMA.c **** ********************************************************************************
1113:Generated_Source\PSoC4/CyDMA.c **** *
1114:Generated_Source\PSoC4/CyDMA.c **** * Summary:
1115:Generated_Source\PSoC4/CyDMA.c **** *  Returns the width of the source and destination, as set by 
1116:Generated_Source\PSoC4/CyDMA.c **** *  CyDmaSetSrcDstTransferWidth() or CyDmaSetConfiguration().
1117:Generated_Source\PSoC4/CyDMA.c **** *
1118:Generated_Source\PSoC4/CyDMA.c **** * Parameters:
1119:Generated_Source\PSoC4/CyDMA.c **** *  channel:    Channel used by this function.
1120:Generated_Source\PSoC4/CyDMA.c **** *  descriptor: Descriptor (0 or 1) modified by this function.
1121:Generated_Source\PSoC4/CyDMA.c **** *                   
1122:Generated_Source\PSoC4/CyDMA.c **** * Return:
1123:Generated_Source\PSoC4/CyDMA.c **** *  Width of source and destination. Refer to the API bit field definitions in
1124:Generated_Source\PSoC4/CyDMA.c **** *  CyDMA_P4.h or the API description in the DMA channel datasheet for more
1125:Generated_Source\PSoC4/CyDMA.c **** *  information.
1126:Generated_Source\PSoC4/CyDMA.c **** *
1127:Generated_Source\PSoC4/CyDMA.c **** *******************************************************************************/
1128:Generated_Source\PSoC4/CyDMA.c **** uint32 CyDmaGetSrcDstTransferWidth(int32 channel, int32 descriptor)
1129:Generated_Source\PSoC4/CyDMA.c **** {
 2736              		.loc 1 1129 0
 2737              		.cfi_startproc
ARM GAS  C:\Users\ADMINI~1\AppData\Local\Temp\ccf1WNrD.s 			page 69


 2738              		@ args = 0, pretend = 0, frame = 8
 2739              		@ frame_needed = 1, uses_anonymous_args = 0
 2740 0000 80B5     		push	{r7, lr}
 2741              		.cfi_def_cfa_offset 8
 2742              		.cfi_offset 7, -8
 2743              		.cfi_offset 14, -4
 2744 0002 82B0     		sub	sp, sp, #8
 2745              		.cfi_def_cfa_offset 16
 2746 0004 00AF     		add	r7, sp, #0
 2747              		.cfi_def_cfa_register 7
 2748 0006 7860     		str	r0, [r7, #4]
 2749 0008 3960     		str	r1, [r7]
1130:Generated_Source\PSoC4/CyDMA.c ****     CYASSERT((channel    >= 0) && (channel    < CYDMA_CH_NR));
 2750              		.loc 1 1130 0
 2751 000a 7B68     		ldr	r3, [r7, #4]
 2752 000c 002B     		cmp	r3, #0
 2753 000e 04DB     		blt	.L259
 2754              		.loc 1 1130 0 is_stmt 0 discriminator 1
 2755 0010 7B68     		ldr	r3, [r7, #4]
 2756 0012 072B     		cmp	r3, #7
 2757 0014 01DC     		bgt	.L259
 2758              		.loc 1 1130 0 discriminator 3
 2759 0016 0123     		movs	r3, #1
 2760 0018 00E0     		b	.L260
 2761              	.L259:
 2762              		.loc 1 1130 0 discriminator 4
 2763 001a 0023     		movs	r3, #0
 2764              	.L260:
 2765              		.loc 1 1130 0 discriminator 6
 2766 001c 002B     		cmp	r3, #0
 2767 001e 02D1     		bne	.L261
 2768              		.loc 1 1130 0 discriminator 7
 2769 0020 0020     		movs	r0, #0
 2770 0022 FFF7FEFF 		bl	CyHalt
 2771              	.L261:
1131:Generated_Source\PSoC4/CyDMA.c ****     CYASSERT((descriptor >= 0) && (descriptor < CYDMA_DESCR_NR));
 2772              		.loc 1 1131 0 is_stmt 1
 2773 0026 3B68     		ldr	r3, [r7]
 2774 0028 002B     		cmp	r3, #0
 2775 002a 04DB     		blt	.L262
 2776              		.loc 1 1131 0 is_stmt 0 discriminator 1
 2777 002c 3B68     		ldr	r3, [r7]
 2778 002e 012B     		cmp	r3, #1
 2779 0030 01DC     		bgt	.L262
 2780              		.loc 1 1131 0 discriminator 3
 2781 0032 0123     		movs	r3, #1
 2782 0034 00E0     		b	.L263
 2783              	.L262:
 2784              		.loc 1 1131 0 discriminator 4
 2785 0036 0023     		movs	r3, #0
 2786              	.L263:
 2787              		.loc 1 1131 0 discriminator 6
 2788 0038 002B     		cmp	r3, #0
 2789 003a 02D1     		bne	.L264
 2790              		.loc 1 1131 0 discriminator 7
 2791 003c 0020     		movs	r0, #0
 2792 003e FFF7FEFF 		bl	CyHalt
ARM GAS  C:\Users\ADMINI~1\AppData\Local\Temp\ccf1WNrD.s 			page 70


 2793              	.L264:
1132:Generated_Source\PSoC4/CyDMA.c ****     return (CYDMA_DESCR_BASE.descriptor[channel][descriptor].ctl & CYDMA_TRANSFER_WIDTH);
 2794              		.loc 1 1132 0 is_stmt 1
 2795 0042 0849     		ldr	r1, .L266
 2796 0044 7B68     		ldr	r3, [r7, #4]
 2797 0046 5A00     		lsls	r2, r3, #1
 2798 0048 3B68     		ldr	r3, [r7]
 2799 004a D318     		adds	r3, r2, r3
 2800 004c 1B01     		lsls	r3, r3, #4
 2801 004e CB18     		adds	r3, r1, r3
 2802 0050 0833     		adds	r3, r3, #8
 2803 0052 1A68     		ldr	r2, [r3]
 2804 0054 A023     		movs	r3, #160
 2805 0056 DB03     		lsls	r3, r3, #15
 2806 0058 1340     		ands	r3, r2
1133:Generated_Source\PSoC4/CyDMA.c **** }
 2807              		.loc 1 1133 0
 2808 005a 1800     		movs	r0, r3
 2809 005c BD46     		mov	sp, r7
 2810 005e 02B0     		add	sp, sp, #8
 2811              		@ sp needed
 2812 0060 80BD     		pop	{r7, pc}
 2813              	.L267:
 2814 0062 C046     		.align	2
 2815              	.L266:
 2816 0064 00181040 		.word	1074796544
 2817              		.cfi_endproc
 2818              	.LFE38:
 2819              		.size	CyDmaGetSrcDstTransferWidth, .-CyDmaGetSrcDstTransferWidth
 2820              		.section	.text.CyDmaSetAddressIncrement,"ax",%progbits
 2821              		.align	2
 2822              		.global	CyDmaSetAddressIncrement
 2823              		.code	16
 2824              		.thumb_func
 2825              		.type	CyDmaSetAddressIncrement, %function
 2826              	CyDmaSetAddressIncrement:
 2827              	.LFB39:
1134:Generated_Source\PSoC4/CyDMA.c **** 
1135:Generated_Source\PSoC4/CyDMA.c **** 
1136:Generated_Source\PSoC4/CyDMA.c **** /*******************************************************************************
1137:Generated_Source\PSoC4/CyDMA.c **** * Function Name: CyDmaSetAddressIncrement
1138:Generated_Source\PSoC4/CyDMA.c **** ********************************************************************************
1139:Generated_Source\PSoC4/CyDMA.c **** *
1140:Generated_Source\PSoC4/CyDMA.c **** * Summary:
1141:Generated_Source\PSoC4/CyDMA.c **** *  Sets whether the source or destination addresses are incremented after the
1142:Generated_Source\PSoC4/CyDMA.c **** *  transfer of each data element. The amount that the source and destination
1143:Generated_Source\PSoC4/CyDMA.c **** *  address are incremented is determined by the CyDmaSetSrcDstTransferWidth()
1144:Generated_Source\PSoC4/CyDMA.c **** *  function. The addresses will either be incremented by the data element size
1145:Generated_Source\PSoC4/CyDMA.c **** *  or by a word (4 bytes).
1146:Generated_Source\PSoC4/CyDMA.c **** *
1147:Generated_Source\PSoC4/CyDMA.c **** * Parameters:
1148:Generated_Source\PSoC4/CyDMA.c **** *  channel:          Channel used by this function.
1149:Generated_Source\PSoC4/CyDMA.c **** *  descriptor:       Descriptor (0 or 1) modified by this function.
1150:Generated_Source\PSoC4/CyDMA.c **** *  addressIncrement: Address increment settings. Refer to the API bit fields 
1151:Generated_Source\PSoC4/CyDMA.c **** *                    definition in CyDMA_P4.h or the API description in the DMA
1152:Generated_Source\PSoC4/CyDMA.c **** *                    channel datasheet for the parameter options.
1153:Generated_Source\PSoC4/CyDMA.c **** *    
ARM GAS  C:\Users\ADMINI~1\AppData\Local\Temp\ccf1WNrD.s 			page 71


1154:Generated_Source\PSoC4/CyDMA.c **** * Return:
1155:Generated_Source\PSoC4/CyDMA.c **** *  None.
1156:Generated_Source\PSoC4/CyDMA.c **** *
1157:Generated_Source\PSoC4/CyDMA.c **** * Side effect:
1158:Generated_Source\PSoC4/CyDMA.c **** *  This function should not be called when the specified descriptor is active
1159:Generated_Source\PSoC4/CyDMA.c **** *  in the DMA transfer engine. This can be checked by calling CyDmaGetStatus(). 
1160:Generated_Source\PSoC4/CyDMA.c **** *
1161:Generated_Source\PSoC4/CyDMA.c **** *******************************************************************************/
1162:Generated_Source\PSoC4/CyDMA.c **** void CyDmaSetAddressIncrement(int32 channel, int32 descriptor, uint32 addressIncrement)
1163:Generated_Source\PSoC4/CyDMA.c **** {
 2828              		.loc 1 1163 0
 2829              		.cfi_startproc
 2830              		@ args = 0, pretend = 0, frame = 24
 2831              		@ frame_needed = 1, uses_anonymous_args = 0
 2832 0000 80B5     		push	{r7, lr}
 2833              		.cfi_def_cfa_offset 8
 2834              		.cfi_offset 7, -8
 2835              		.cfi_offset 14, -4
 2836 0002 86B0     		sub	sp, sp, #24
 2837              		.cfi_def_cfa_offset 32
 2838 0004 00AF     		add	r7, sp, #0
 2839              		.cfi_def_cfa_register 7
 2840 0006 F860     		str	r0, [r7, #12]
 2841 0008 B960     		str	r1, [r7, #8]
 2842 000a 7A60     		str	r2, [r7, #4]
1164:Generated_Source\PSoC4/CyDMA.c ****     uint32 regValue;
1165:Generated_Source\PSoC4/CyDMA.c **** 
1166:Generated_Source\PSoC4/CyDMA.c ****     CYASSERT((channel    >= 0) && (channel    < CYDMA_CH_NR));
 2843              		.loc 1 1166 0
 2844 000c FB68     		ldr	r3, [r7, #12]
 2845 000e 002B     		cmp	r3, #0
 2846 0010 04DB     		blt	.L269
 2847              		.loc 1 1166 0 is_stmt 0 discriminator 1
 2848 0012 FB68     		ldr	r3, [r7, #12]
 2849 0014 072B     		cmp	r3, #7
 2850 0016 01DC     		bgt	.L269
 2851              		.loc 1 1166 0 discriminator 3
 2852 0018 0123     		movs	r3, #1
 2853 001a 00E0     		b	.L270
 2854              	.L269:
 2855              		.loc 1 1166 0 discriminator 4
 2856 001c 0023     		movs	r3, #0
 2857              	.L270:
 2858              		.loc 1 1166 0 discriminator 6
 2859 001e 002B     		cmp	r3, #0
 2860 0020 02D1     		bne	.L271
 2861              		.loc 1 1166 0 discriminator 7
 2862 0022 0020     		movs	r0, #0
 2863 0024 FFF7FEFF 		bl	CyHalt
 2864              	.L271:
1167:Generated_Source\PSoC4/CyDMA.c ****     CYASSERT((descriptor >= 0) && (descriptor < CYDMA_DESCR_NR));
 2865              		.loc 1 1167 0 is_stmt 1
 2866 0028 BB68     		ldr	r3, [r7, #8]
 2867 002a 002B     		cmp	r3, #0
 2868 002c 04DB     		blt	.L272
 2869              		.loc 1 1167 0 is_stmt 0 discriminator 1
 2870 002e BB68     		ldr	r3, [r7, #8]
ARM GAS  C:\Users\ADMINI~1\AppData\Local\Temp\ccf1WNrD.s 			page 72


 2871 0030 012B     		cmp	r3, #1
 2872 0032 01DC     		bgt	.L272
 2873              		.loc 1 1167 0 discriminator 3
 2874 0034 0123     		movs	r3, #1
 2875 0036 00E0     		b	.L273
 2876              	.L272:
 2877              		.loc 1 1167 0 discriminator 4
 2878 0038 0023     		movs	r3, #0
 2879              	.L273:
 2880              		.loc 1 1167 0 discriminator 6
 2881 003a 002B     		cmp	r3, #0
 2882 003c 02D1     		bne	.L274
 2883              		.loc 1 1167 0 discriminator 7
 2884 003e 0020     		movs	r0, #0
 2885 0040 FFF7FEFF 		bl	CyHalt
 2886              	.L274:
1168:Generated_Source\PSoC4/CyDMA.c ****     CYASSERT(0u == (addressIncrement & (uint32)~CYDMA_ADDR_INCR));
 2887              		.loc 1 1168 0 is_stmt 1
 2888 0044 7B68     		ldr	r3, [r7, #4]
 2889 0046 114A     		ldr	r2, .L276
 2890 0048 1340     		ands	r3, r2
 2891 004a 02D0     		beq	.L275
 2892              		.loc 1 1168 0 is_stmt 0 discriminator 1
 2893 004c 0020     		movs	r0, #0
 2894 004e FFF7FEFF 		bl	CyHalt
 2895              	.L275:
1169:Generated_Source\PSoC4/CyDMA.c **** 
1170:Generated_Source\PSoC4/CyDMA.c ****     regValue = CYDMA_DESCR_BASE.descriptor[channel][descriptor].ctl & (uint32)~CYDMA_ADDR_INCR;
 2896              		.loc 1 1170 0 is_stmt 1
 2897 0052 0F49     		ldr	r1, .L276+4
 2898 0054 FB68     		ldr	r3, [r7, #12]
 2899 0056 5A00     		lsls	r2, r3, #1
 2900 0058 BB68     		ldr	r3, [r7, #8]
 2901 005a D318     		adds	r3, r2, r3
 2902 005c 1B01     		lsls	r3, r3, #4
 2903 005e CB18     		adds	r3, r1, r3
 2904 0060 0833     		adds	r3, r3, #8
 2905 0062 1B68     		ldr	r3, [r3]
 2906 0064 094A     		ldr	r2, .L276
 2907 0066 1340     		ands	r3, r2
 2908 0068 7B61     		str	r3, [r7, #20]
1171:Generated_Source\PSoC4/CyDMA.c ****     CYDMA_DESCR_BASE.descriptor[channel][descriptor].ctl = regValue | addressIncrement;
 2909              		.loc 1 1171 0
 2910 006a 0948     		ldr	r0, .L276+4
 2911 006c 7A69     		ldr	r2, [r7, #20]
 2912 006e 7B68     		ldr	r3, [r7, #4]
 2913 0070 1A43     		orrs	r2, r3
 2914 0072 FB68     		ldr	r3, [r7, #12]
 2915 0074 5900     		lsls	r1, r3, #1
 2916 0076 BB68     		ldr	r3, [r7, #8]
 2917 0078 CB18     		adds	r3, r1, r3
 2918 007a 1B01     		lsls	r3, r3, #4
 2919 007c C318     		adds	r3, r0, r3
 2920 007e 0833     		adds	r3, r3, #8
 2921 0080 1A60     		str	r2, [r3]
1172:Generated_Source\PSoC4/CyDMA.c **** }
 2922              		.loc 1 1172 0
ARM GAS  C:\Users\ADMINI~1\AppData\Local\Temp\ccf1WNrD.s 			page 73


 2923 0082 C046     		nop
 2924 0084 BD46     		mov	sp, r7
 2925 0086 06B0     		add	sp, sp, #24
 2926              		@ sp needed
 2927 0088 80BD     		pop	{r7, pc}
 2928              	.L277:
 2929 008a C046     		.align	2
 2930              	.L276:
 2931 008c FFFF5FFF 		.word	-10485761
 2932 0090 00181040 		.word	1074796544
 2933              		.cfi_endproc
 2934              	.LFE39:
 2935              		.size	CyDmaSetAddressIncrement, .-CyDmaSetAddressIncrement
 2936              		.section	.text.CyDmaGetAddressIncrement,"ax",%progbits
 2937              		.align	2
 2938              		.global	CyDmaGetAddressIncrement
 2939              		.code	16
 2940              		.thumb_func
 2941              		.type	CyDmaGetAddressIncrement, %function
 2942              	CyDmaGetAddressIncrement:
 2943              	.LFB40:
1173:Generated_Source\PSoC4/CyDMA.c **** 
1174:Generated_Source\PSoC4/CyDMA.c **** 
1175:Generated_Source\PSoC4/CyDMA.c **** /*******************************************************************************
1176:Generated_Source\PSoC4/CyDMA.c **** * Function Name: CyDmaGetAddressIncrement
1177:Generated_Source\PSoC4/CyDMA.c **** ********************************************************************************
1178:Generated_Source\PSoC4/CyDMA.c **** *
1179:Generated_Source\PSoC4/CyDMA.c **** * Summary:
1180:Generated_Source\PSoC4/CyDMA.c **** *  Returns address increment settings as set by CyDmaSetAddressIncrement() or
1181:Generated_Source\PSoC4/CyDMA.c **** *  CyDmaSetConfiguration().
1182:Generated_Source\PSoC4/CyDMA.c **** *
1183:Generated_Source\PSoC4/CyDMA.c **** * Parameters:
1184:Generated_Source\PSoC4/CyDMA.c **** *  channel:    Channel used by this function.
1185:Generated_Source\PSoC4/CyDMA.c **** *  descriptor: Descriptor (0 or 1) modified by this function.
1186:Generated_Source\PSoC4/CyDMA.c **** *                   
1187:Generated_Source\PSoC4/CyDMA.c **** * Return:
1188:Generated_Source\PSoC4/CyDMA.c **** *  Address increment settings. Refer to the API bit field definitions in
1189:Generated_Source\PSoC4/CyDMA.c **** *  CyDMA_P4.h or the API description in the DMA channel datasheet for more
1190:Generated_Source\PSoC4/CyDMA.c **** *  information.
1191:Generated_Source\PSoC4/CyDMA.c **** *
1192:Generated_Source\PSoC4/CyDMA.c **** *******************************************************************************/
1193:Generated_Source\PSoC4/CyDMA.c **** uint32 CyDmaGetAddressIncrement(int32 channel, int32 descriptor)
1194:Generated_Source\PSoC4/CyDMA.c **** {
 2944              		.loc 1 1194 0
 2945              		.cfi_startproc
 2946              		@ args = 0, pretend = 0, frame = 8
 2947              		@ frame_needed = 1, uses_anonymous_args = 0
 2948 0000 80B5     		push	{r7, lr}
 2949              		.cfi_def_cfa_offset 8
 2950              		.cfi_offset 7, -8
 2951              		.cfi_offset 14, -4
 2952 0002 82B0     		sub	sp, sp, #8
 2953              		.cfi_def_cfa_offset 16
 2954 0004 00AF     		add	r7, sp, #0
 2955              		.cfi_def_cfa_register 7
 2956 0006 7860     		str	r0, [r7, #4]
 2957 0008 3960     		str	r1, [r7]
ARM GAS  C:\Users\ADMINI~1\AppData\Local\Temp\ccf1WNrD.s 			page 74


1195:Generated_Source\PSoC4/CyDMA.c ****     CYASSERT((channel    >= 0) && (channel    < CYDMA_CH_NR));
 2958              		.loc 1 1195 0
 2959 000a 7B68     		ldr	r3, [r7, #4]
 2960 000c 002B     		cmp	r3, #0
 2961 000e 04DB     		blt	.L279
 2962              		.loc 1 1195 0 is_stmt 0 discriminator 1
 2963 0010 7B68     		ldr	r3, [r7, #4]
 2964 0012 072B     		cmp	r3, #7
 2965 0014 01DC     		bgt	.L279
 2966              		.loc 1 1195 0 discriminator 3
 2967 0016 0123     		movs	r3, #1
 2968 0018 00E0     		b	.L280
 2969              	.L279:
 2970              		.loc 1 1195 0 discriminator 4
 2971 001a 0023     		movs	r3, #0
 2972              	.L280:
 2973              		.loc 1 1195 0 discriminator 6
 2974 001c 002B     		cmp	r3, #0
 2975 001e 02D1     		bne	.L281
 2976              		.loc 1 1195 0 discriminator 7
 2977 0020 0020     		movs	r0, #0
 2978 0022 FFF7FEFF 		bl	CyHalt
 2979              	.L281:
1196:Generated_Source\PSoC4/CyDMA.c ****     CYASSERT((descriptor >= 0) && (descriptor < CYDMA_DESCR_NR));
 2980              		.loc 1 1196 0 is_stmt 1
 2981 0026 3B68     		ldr	r3, [r7]
 2982 0028 002B     		cmp	r3, #0
 2983 002a 04DB     		blt	.L282
 2984              		.loc 1 1196 0 is_stmt 0 discriminator 1
 2985 002c 3B68     		ldr	r3, [r7]
 2986 002e 012B     		cmp	r3, #1
 2987 0030 01DC     		bgt	.L282
 2988              		.loc 1 1196 0 discriminator 3
 2989 0032 0123     		movs	r3, #1
 2990 0034 00E0     		b	.L283
 2991              	.L282:
 2992              		.loc 1 1196 0 discriminator 4
 2993 0036 0023     		movs	r3, #0
 2994              	.L283:
 2995              		.loc 1 1196 0 discriminator 6
 2996 0038 002B     		cmp	r3, #0
 2997 003a 02D1     		bne	.L284
 2998              		.loc 1 1196 0 discriminator 7
 2999 003c 0020     		movs	r0, #0
 3000 003e FFF7FEFF 		bl	CyHalt
 3001              	.L284:
1197:Generated_Source\PSoC4/CyDMA.c **** 
1198:Generated_Source\PSoC4/CyDMA.c ****     return (CYDMA_DESCR_BASE.descriptor[channel][descriptor].ctl & CYDMA_ADDR_INCR);
 3002              		.loc 1 1198 0 is_stmt 1
 3003 0042 0849     		ldr	r1, .L286
 3004 0044 7B68     		ldr	r3, [r7, #4]
 3005 0046 5A00     		lsls	r2, r3, #1
 3006 0048 3B68     		ldr	r3, [r7]
 3007 004a D318     		adds	r3, r2, r3
 3008 004c 1B01     		lsls	r3, r3, #4
 3009 004e CB18     		adds	r3, r1, r3
 3010 0050 0833     		adds	r3, r3, #8
ARM GAS  C:\Users\ADMINI~1\AppData\Local\Temp\ccf1WNrD.s 			page 75


 3011 0052 1A68     		ldr	r2, [r3]
 3012 0054 A023     		movs	r3, #160
 3013 0056 1B04     		lsls	r3, r3, #16
 3014 0058 1340     		ands	r3, r2
1199:Generated_Source\PSoC4/CyDMA.c **** }
 3015              		.loc 1 1199 0
 3016 005a 1800     		movs	r0, r3
 3017 005c BD46     		mov	sp, r7
 3018 005e 02B0     		add	sp, sp, #8
 3019              		@ sp needed
 3020 0060 80BD     		pop	{r7, pc}
 3021              	.L287:
 3022 0062 C046     		.align	2
 3023              	.L286:
 3024 0064 00181040 		.word	1074796544
 3025              		.cfi_endproc
 3026              	.LFE40:
 3027              		.size	CyDmaGetAddressIncrement, .-CyDmaGetAddressIncrement
 3028              		.section	.text.CyDmaSetTriggerType,"ax",%progbits
 3029              		.align	2
 3030              		.global	CyDmaSetTriggerType
 3031              		.code	16
 3032              		.thumb_func
 3033              		.type	CyDmaSetTriggerType, %function
 3034              	CyDmaSetTriggerType:
 3035              	.LFB41:
1200:Generated_Source\PSoC4/CyDMA.c **** 
1201:Generated_Source\PSoC4/CyDMA.c **** 
1202:Generated_Source\PSoC4/CyDMA.c **** /*******************************************************************************
1203:Generated_Source\PSoC4/CyDMA.c **** * Function Name: CyDmaSetTriggerType
1204:Generated_Source\PSoC4/CyDMA.c **** ********************************************************************************
1205:Generated_Source\PSoC4/CyDMA.c **** *
1206:Generated_Source\PSoC4/CyDMA.c **** * Summary:
1207:Generated_Source\PSoC4/CyDMA.c **** *  Sets the type of input trigger for the DMA For level sensitive triggers sets
1208:Generated_Source\PSoC4/CyDMA.c **** *  how long the DMA waits for the trigger to go low (deactivate) before
1209:Generated_Source\PSoC4/CyDMA.c **** *  triggering the channel again.
1210:Generated_Source\PSoC4/CyDMA.c **** *
1211:Generated_Source\PSoC4/CyDMA.c **** * Parameters:
1212:Generated_Source\PSoC4/CyDMA.c **** *  channel:     Channel used by this function.
1213:Generated_Source\PSoC4/CyDMA.c **** *  descriptor:  Descriptor (0 or 1) modified by this function.
1214:Generated_Source\PSoC4/CyDMA.c **** *  triggerType: Type of DMA trigger. Refer to the API bit field definitions
1215:Generated_Source\PSoC4/CyDMA.c **** *               in CyDMA_P4.h or the API description in the DMA channel
1216:Generated_Source\PSoC4/CyDMA.c **** *               datasheet for the parameter options.
1217:Generated_Source\PSoC4/CyDMA.c **** *                   
1218:Generated_Source\PSoC4/CyDMA.c **** * Return:
1219:Generated_Source\PSoC4/CyDMA.c **** *  None.
1220:Generated_Source\PSoC4/CyDMA.c **** *
1221:Generated_Source\PSoC4/CyDMA.c **** * Side effect:
1222:Generated_Source\PSoC4/CyDMA.c **** *  This function should not be called when the specified descriptor is active
1223:Generated_Source\PSoC4/CyDMA.c **** *  in the DMA transfer engine. This can be checked by calling CyDmaGetStatus(). 
1224:Generated_Source\PSoC4/CyDMA.c **** *
1225:Generated_Source\PSoC4/CyDMA.c **** *******************************************************************************/
1226:Generated_Source\PSoC4/CyDMA.c **** void CyDmaSetTriggerType(int32 channel, int32 descriptor, uint32 triggerType)
1227:Generated_Source\PSoC4/CyDMA.c **** {
 3036              		.loc 1 1227 0
 3037              		.cfi_startproc
 3038              		@ args = 0, pretend = 0, frame = 24
ARM GAS  C:\Users\ADMINI~1\AppData\Local\Temp\ccf1WNrD.s 			page 76


 3039              		@ frame_needed = 1, uses_anonymous_args = 0
 3040 0000 80B5     		push	{r7, lr}
 3041              		.cfi_def_cfa_offset 8
 3042              		.cfi_offset 7, -8
 3043              		.cfi_offset 14, -4
 3044 0002 86B0     		sub	sp, sp, #24
 3045              		.cfi_def_cfa_offset 32
 3046 0004 00AF     		add	r7, sp, #0
 3047              		.cfi_def_cfa_register 7
 3048 0006 F860     		str	r0, [r7, #12]
 3049 0008 B960     		str	r1, [r7, #8]
 3050 000a 7A60     		str	r2, [r7, #4]
1228:Generated_Source\PSoC4/CyDMA.c ****     uint32 regValue;
1229:Generated_Source\PSoC4/CyDMA.c **** 
1230:Generated_Source\PSoC4/CyDMA.c ****     CYASSERT((channel    >= 0) && (channel    < CYDMA_CH_NR));
 3051              		.loc 1 1230 0
 3052 000c FB68     		ldr	r3, [r7, #12]
 3053 000e 002B     		cmp	r3, #0
 3054 0010 04DB     		blt	.L289
 3055              		.loc 1 1230 0 is_stmt 0 discriminator 1
 3056 0012 FB68     		ldr	r3, [r7, #12]
 3057 0014 072B     		cmp	r3, #7
 3058 0016 01DC     		bgt	.L289
 3059              		.loc 1 1230 0 discriminator 3
 3060 0018 0123     		movs	r3, #1
 3061 001a 00E0     		b	.L290
 3062              	.L289:
 3063              		.loc 1 1230 0 discriminator 4
 3064 001c 0023     		movs	r3, #0
 3065              	.L290:
 3066              		.loc 1 1230 0 discriminator 6
 3067 001e 002B     		cmp	r3, #0
 3068 0020 02D1     		bne	.L291
 3069              		.loc 1 1230 0 discriminator 7
 3070 0022 0020     		movs	r0, #0
 3071 0024 FFF7FEFF 		bl	CyHalt
 3072              	.L291:
1231:Generated_Source\PSoC4/CyDMA.c ****     CYASSERT((descriptor >= 0) && (descriptor < CYDMA_DESCR_NR));
 3073              		.loc 1 1231 0 is_stmt 1
 3074 0028 BB68     		ldr	r3, [r7, #8]
 3075 002a 002B     		cmp	r3, #0
 3076 002c 04DB     		blt	.L292
 3077              		.loc 1 1231 0 is_stmt 0 discriminator 1
 3078 002e BB68     		ldr	r3, [r7, #8]
 3079 0030 012B     		cmp	r3, #1
 3080 0032 01DC     		bgt	.L292
 3081              		.loc 1 1231 0 discriminator 3
 3082 0034 0123     		movs	r3, #1
 3083 0036 00E0     		b	.L293
 3084              	.L292:
 3085              		.loc 1 1231 0 discriminator 4
 3086 0038 0023     		movs	r3, #0
 3087              	.L293:
 3088              		.loc 1 1231 0 discriminator 6
 3089 003a 002B     		cmp	r3, #0
 3090 003c 02D1     		bne	.L294
 3091              		.loc 1 1231 0 discriminator 7
ARM GAS  C:\Users\ADMINI~1\AppData\Local\Temp\ccf1WNrD.s 			page 77


 3092 003e 0020     		movs	r0, #0
 3093 0040 FFF7FEFF 		bl	CyHalt
 3094              	.L294:
1232:Generated_Source\PSoC4/CyDMA.c ****     CYASSERT(0u == (triggerType & (uint32)~CYDMA_TRIGGER_TYPE));
 3095              		.loc 1 1232 0 is_stmt 1
 3096 0044 7B68     		ldr	r3, [r7, #4]
 3097 0046 114A     		ldr	r2, .L296
 3098 0048 1340     		ands	r3, r2
 3099 004a 02D0     		beq	.L295
 3100              		.loc 1 1232 0 is_stmt 0 discriminator 1
 3101 004c 0020     		movs	r0, #0
 3102 004e FFF7FEFF 		bl	CyHalt
 3103              	.L295:
1233:Generated_Source\PSoC4/CyDMA.c **** 
1234:Generated_Source\PSoC4/CyDMA.c ****     regValue = CYDMA_DESCR_BASE.descriptor[channel][descriptor].ctl & (uint32)~CYDMA_TRIGGER_TYPE;
 3104              		.loc 1 1234 0 is_stmt 1
 3105 0052 0F49     		ldr	r1, .L296+4
 3106 0054 FB68     		ldr	r3, [r7, #12]
 3107 0056 5A00     		lsls	r2, r3, #1
 3108 0058 BB68     		ldr	r3, [r7, #8]
 3109 005a D318     		adds	r3, r2, r3
 3110 005c 1B01     		lsls	r3, r3, #4
 3111 005e CB18     		adds	r3, r1, r3
 3112 0060 0833     		adds	r3, r3, #8
 3113 0062 1B68     		ldr	r3, [r3]
 3114 0064 094A     		ldr	r2, .L296
 3115 0066 1340     		ands	r3, r2
 3116 0068 7B61     		str	r3, [r7, #20]
1235:Generated_Source\PSoC4/CyDMA.c ****     CYDMA_DESCR_BASE.descriptor[channel][descriptor].ctl = regValue | triggerType;
 3117              		.loc 1 1235 0
 3118 006a 0948     		ldr	r0, .L296+4
 3119 006c 7A69     		ldr	r2, [r7, #20]
 3120 006e 7B68     		ldr	r3, [r7, #4]
 3121 0070 1A43     		orrs	r2, r3
 3122 0072 FB68     		ldr	r3, [r7, #12]
 3123 0074 5900     		lsls	r1, r3, #1
 3124 0076 BB68     		ldr	r3, [r7, #8]
 3125 0078 CB18     		adds	r3, r1, r3
 3126 007a 1B01     		lsls	r3, r3, #4
 3127 007c C318     		adds	r3, r0, r3
 3128 007e 0833     		adds	r3, r3, #8
 3129 0080 1A60     		str	r2, [r3]
1236:Generated_Source\PSoC4/CyDMA.c **** }
 3130              		.loc 1 1236 0
 3131 0082 C046     		nop
 3132 0084 BD46     		mov	sp, r7
 3133 0086 06B0     		add	sp, sp, #24
 3134              		@ sp needed
 3135 0088 80BD     		pop	{r7, pc}
 3136              	.L297:
 3137 008a C046     		.align	2
 3138              	.L296:
 3139 008c FFFFFFFC 		.word	-50331649
 3140 0090 00181040 		.word	1074796544
 3141              		.cfi_endproc
 3142              	.LFE41:
 3143              		.size	CyDmaSetTriggerType, .-CyDmaSetTriggerType
ARM GAS  C:\Users\ADMINI~1\AppData\Local\Temp\ccf1WNrD.s 			page 78


 3144              		.section	.text.CyDmaGetTriggerType,"ax",%progbits
 3145              		.align	2
 3146              		.global	CyDmaGetTriggerType
 3147              		.code	16
 3148              		.thumb_func
 3149              		.type	CyDmaGetTriggerType, %function
 3150              	CyDmaGetTriggerType:
 3151              	.LFB42:
1237:Generated_Source\PSoC4/CyDMA.c **** 
1238:Generated_Source\PSoC4/CyDMA.c **** 
1239:Generated_Source\PSoC4/CyDMA.c **** /*******************************************************************************
1240:Generated_Source\PSoC4/CyDMA.c **** * Function Name: CyDmaGetTriggerType
1241:Generated_Source\PSoC4/CyDMA.c **** ********************************************************************************
1242:Generated_Source\PSoC4/CyDMA.c **** *
1243:Generated_Source\PSoC4/CyDMA.c **** * Summary:
1244:Generated_Source\PSoC4/CyDMA.c **** *  Returns the trigger deactivation settings as set by CyDmaSetTriggerType() or
1245:Generated_Source\PSoC4/CyDMA.c **** *  CyDmaSetConfiguration().
1246:Generated_Source\PSoC4/CyDMA.c **** *
1247:Generated_Source\PSoC4/CyDMA.c **** * Parameters:
1248:Generated_Source\PSoC4/CyDMA.c **** *  channel:    Channel used by this function.
1249:Generated_Source\PSoC4/CyDMA.c **** *  descriptor: Descriptor (0 or 1) modified by this function.
1250:Generated_Source\PSoC4/CyDMA.c **** *                   
1251:Generated_Source\PSoC4/CyDMA.c **** * Return:
1252:Generated_Source\PSoC4/CyDMA.c **** *  Trigger deactivation settings. Refer to the API bit field definitions in
1253:Generated_Source\PSoC4/CyDMA.c **** *  CyDMA_P4.h or the API description in the DMA channel datasheet for more
1254:Generated_Source\PSoC4/CyDMA.c **** *  information.
1255:Generated_Source\PSoC4/CyDMA.c **** *
1256:Generated_Source\PSoC4/CyDMA.c **** *******************************************************************************/
1257:Generated_Source\PSoC4/CyDMA.c **** uint32 CyDmaGetTriggerType(int32 channel, int32 descriptor)
1258:Generated_Source\PSoC4/CyDMA.c **** {
 3152              		.loc 1 1258 0
 3153              		.cfi_startproc
 3154              		@ args = 0, pretend = 0, frame = 8
 3155              		@ frame_needed = 1, uses_anonymous_args = 0
 3156 0000 80B5     		push	{r7, lr}
 3157              		.cfi_def_cfa_offset 8
 3158              		.cfi_offset 7, -8
 3159              		.cfi_offset 14, -4
 3160 0002 82B0     		sub	sp, sp, #8
 3161              		.cfi_def_cfa_offset 16
 3162 0004 00AF     		add	r7, sp, #0
 3163              		.cfi_def_cfa_register 7
 3164 0006 7860     		str	r0, [r7, #4]
 3165 0008 3960     		str	r1, [r7]
1259:Generated_Source\PSoC4/CyDMA.c ****     CYASSERT((channel    >= 0) && (channel    < CYDMA_CH_NR));
 3166              		.loc 1 1259 0
 3167 000a 7B68     		ldr	r3, [r7, #4]
 3168 000c 002B     		cmp	r3, #0
 3169 000e 04DB     		blt	.L299
 3170              		.loc 1 1259 0 is_stmt 0 discriminator 1
 3171 0010 7B68     		ldr	r3, [r7, #4]
 3172 0012 072B     		cmp	r3, #7
 3173 0014 01DC     		bgt	.L299
 3174              		.loc 1 1259 0 discriminator 3
 3175 0016 0123     		movs	r3, #1
 3176 0018 00E0     		b	.L300
 3177              	.L299:
ARM GAS  C:\Users\ADMINI~1\AppData\Local\Temp\ccf1WNrD.s 			page 79


 3178              		.loc 1 1259 0 discriminator 4
 3179 001a 0023     		movs	r3, #0
 3180              	.L300:
 3181              		.loc 1 1259 0 discriminator 6
 3182 001c 002B     		cmp	r3, #0
 3183 001e 02D1     		bne	.L301
 3184              		.loc 1 1259 0 discriminator 7
 3185 0020 0020     		movs	r0, #0
 3186 0022 FFF7FEFF 		bl	CyHalt
 3187              	.L301:
1260:Generated_Source\PSoC4/CyDMA.c ****     CYASSERT((descriptor >= 0) && (descriptor < CYDMA_DESCR_NR));
 3188              		.loc 1 1260 0 is_stmt 1
 3189 0026 3B68     		ldr	r3, [r7]
 3190 0028 002B     		cmp	r3, #0
 3191 002a 04DB     		blt	.L302
 3192              		.loc 1 1260 0 is_stmt 0 discriminator 1
 3193 002c 3B68     		ldr	r3, [r7]
 3194 002e 012B     		cmp	r3, #1
 3195 0030 01DC     		bgt	.L302
 3196              		.loc 1 1260 0 discriminator 3
 3197 0032 0123     		movs	r3, #1
 3198 0034 00E0     		b	.L303
 3199              	.L302:
 3200              		.loc 1 1260 0 discriminator 4
 3201 0036 0023     		movs	r3, #0
 3202              	.L303:
 3203              		.loc 1 1260 0 discriminator 6
 3204 0038 002B     		cmp	r3, #0
 3205 003a 02D1     		bne	.L304
 3206              		.loc 1 1260 0 discriminator 7
 3207 003c 0020     		movs	r0, #0
 3208 003e FFF7FEFF 		bl	CyHalt
 3209              	.L304:
1261:Generated_Source\PSoC4/CyDMA.c **** 
1262:Generated_Source\PSoC4/CyDMA.c ****     return (CYDMA_DESCR_BASE.descriptor[channel][descriptor].ctl & CYDMA_TRIGGER_TYPE);
 3210              		.loc 1 1262 0 is_stmt 1
 3211 0042 0849     		ldr	r1, .L306
 3212 0044 7B68     		ldr	r3, [r7, #4]
 3213 0046 5A00     		lsls	r2, r3, #1
 3214 0048 3B68     		ldr	r3, [r7]
 3215 004a D318     		adds	r3, r2, r3
 3216 004c 1B01     		lsls	r3, r3, #4
 3217 004e CB18     		adds	r3, r1, r3
 3218 0050 0833     		adds	r3, r3, #8
 3219 0052 1A68     		ldr	r2, [r3]
 3220 0054 C023     		movs	r3, #192
 3221 0056 9B04     		lsls	r3, r3, #18
 3222 0058 1340     		ands	r3, r2
1263:Generated_Source\PSoC4/CyDMA.c **** }
 3223              		.loc 1 1263 0
 3224 005a 1800     		movs	r0, r3
 3225 005c BD46     		mov	sp, r7
 3226 005e 02B0     		add	sp, sp, #8
 3227              		@ sp needed
 3228 0060 80BD     		pop	{r7, pc}
 3229              	.L307:
 3230 0062 C046     		.align	2
ARM GAS  C:\Users\ADMINI~1\AppData\Local\Temp\ccf1WNrD.s 			page 80


 3231              	.L306:
 3232 0064 00181040 		.word	1074796544
 3233              		.cfi_endproc
 3234              	.LFE42:
 3235              		.size	CyDmaGetTriggerType, .-CyDmaGetTriggerType
 3236              		.section	.text.CyDmaSetTransferMode,"ax",%progbits
 3237              		.align	2
 3238              		.global	CyDmaSetTransferMode
 3239              		.code	16
 3240              		.thumb_func
 3241              		.type	CyDmaSetTransferMode, %function
 3242              	CyDmaSetTransferMode:
 3243              	.LFB43:
1264:Generated_Source\PSoC4/CyDMA.c **** 
1265:Generated_Source\PSoC4/CyDMA.c **** 
1266:Generated_Source\PSoC4/CyDMA.c **** /*******************************************************************************
1267:Generated_Source\PSoC4/CyDMA.c **** * Function Name: CyDmaSetTransferMode
1268:Generated_Source\PSoC4/CyDMA.c **** ********************************************************************************
1269:Generated_Source\PSoC4/CyDMA.c **** *
1270:Generated_Source\PSoC4/CyDMA.c **** * Summary:
1271:Generated_Source\PSoC4/CyDMA.c **** *  Sets the DMA transfer mode. This determines how the DMA reacts to each trigger
1272:Generated_Source\PSoC4/CyDMA.c **** *  event.
1273:Generated_Source\PSoC4/CyDMA.c **** *
1274:Generated_Source\PSoC4/CyDMA.c **** * Parameters:
1275:Generated_Source\PSoC4/CyDMA.c **** *  channel:      Channel used by this function.
1276:Generated_Source\PSoC4/CyDMA.c **** *  descriptor:   Descriptor (0 or 1) modified by this function.
1277:Generated_Source\PSoC4/CyDMA.c **** *  transferMode: Specifies the DMA transfer mode settings. Refer to the API bit
1278:Generated_Source\PSoC4/CyDMA.c **** *                field definitions in CyDMA_P4.h or the API description in the
1279:Generated_Source\PSoC4/CyDMA.c **** *                DMA channel datasheet for the parameter options.
1280:Generated_Source\PSoC4/CyDMA.c **** *                   
1281:Generated_Source\PSoC4/CyDMA.c **** * Return:
1282:Generated_Source\PSoC4/CyDMA.c **** *  None.
1283:Generated_Source\PSoC4/CyDMA.c **** *
1284:Generated_Source\PSoC4/CyDMA.c **** * Side effect:
1285:Generated_Source\PSoC4/CyDMA.c **** *  This function should not be called when the specified descriptor is active
1286:Generated_Source\PSoC4/CyDMA.c **** *  in the DMA transfer engine. This can be checked by calling CyDmaGetStatus(). 
1287:Generated_Source\PSoC4/CyDMA.c **** *
1288:Generated_Source\PSoC4/CyDMA.c **** *******************************************************************************/
1289:Generated_Source\PSoC4/CyDMA.c **** void CyDmaSetTransferMode(int32 channel, int32 descriptor, uint32 transferMode)
1290:Generated_Source\PSoC4/CyDMA.c **** {
 3244              		.loc 1 1290 0
 3245              		.cfi_startproc
 3246              		@ args = 0, pretend = 0, frame = 24
 3247              		@ frame_needed = 1, uses_anonymous_args = 0
 3248 0000 80B5     		push	{r7, lr}
 3249              		.cfi_def_cfa_offset 8
 3250              		.cfi_offset 7, -8
 3251              		.cfi_offset 14, -4
 3252 0002 86B0     		sub	sp, sp, #24
 3253              		.cfi_def_cfa_offset 32
 3254 0004 00AF     		add	r7, sp, #0
 3255              		.cfi_def_cfa_register 7
 3256 0006 F860     		str	r0, [r7, #12]
 3257 0008 B960     		str	r1, [r7, #8]
 3258 000a 7A60     		str	r2, [r7, #4]
1291:Generated_Source\PSoC4/CyDMA.c ****     uint32 regValue;
1292:Generated_Source\PSoC4/CyDMA.c **** 
ARM GAS  C:\Users\ADMINI~1\AppData\Local\Temp\ccf1WNrD.s 			page 81


1293:Generated_Source\PSoC4/CyDMA.c ****     CYASSERT((channel    >= 0) && (channel    < CYDMA_CH_NR));
 3259              		.loc 1 1293 0
 3260 000c FB68     		ldr	r3, [r7, #12]
 3261 000e 002B     		cmp	r3, #0
 3262 0010 04DB     		blt	.L309
 3263              		.loc 1 1293 0 is_stmt 0 discriminator 1
 3264 0012 FB68     		ldr	r3, [r7, #12]
 3265 0014 072B     		cmp	r3, #7
 3266 0016 01DC     		bgt	.L309
 3267              		.loc 1 1293 0 discriminator 3
 3268 0018 0123     		movs	r3, #1
 3269 001a 00E0     		b	.L310
 3270              	.L309:
 3271              		.loc 1 1293 0 discriminator 4
 3272 001c 0023     		movs	r3, #0
 3273              	.L310:
 3274              		.loc 1 1293 0 discriminator 6
 3275 001e 002B     		cmp	r3, #0
 3276 0020 02D1     		bne	.L311
 3277              		.loc 1 1293 0 discriminator 7
 3278 0022 0020     		movs	r0, #0
 3279 0024 FFF7FEFF 		bl	CyHalt
 3280              	.L311:
1294:Generated_Source\PSoC4/CyDMA.c ****     CYASSERT((descriptor >= 0) && (descriptor < CYDMA_DESCR_NR));
 3281              		.loc 1 1294 0 is_stmt 1
 3282 0028 BB68     		ldr	r3, [r7, #8]
 3283 002a 002B     		cmp	r3, #0
 3284 002c 04DB     		blt	.L312
 3285              		.loc 1 1294 0 is_stmt 0 discriminator 1
 3286 002e BB68     		ldr	r3, [r7, #8]
 3287 0030 012B     		cmp	r3, #1
 3288 0032 01DC     		bgt	.L312
 3289              		.loc 1 1294 0 discriminator 3
 3290 0034 0123     		movs	r3, #1
 3291 0036 00E0     		b	.L313
 3292              	.L312:
 3293              		.loc 1 1294 0 discriminator 4
 3294 0038 0023     		movs	r3, #0
 3295              	.L313:
 3296              		.loc 1 1294 0 discriminator 6
 3297 003a 002B     		cmp	r3, #0
 3298 003c 02D1     		bne	.L314
 3299              		.loc 1 1294 0 discriminator 7
 3300 003e 0020     		movs	r0, #0
 3301 0040 FFF7FEFF 		bl	CyHalt
 3302              	.L314:
1295:Generated_Source\PSoC4/CyDMA.c ****     CYASSERT(0u == (transferMode & (uint32)~CYDMA_TRANSFER_MODE));
 3303              		.loc 1 1295 0 is_stmt 1
 3304 0044 7B68     		ldr	r3, [r7, #4]
 3305 0046 9B00     		lsls	r3, r3, #2
 3306 0048 9B08     		lsrs	r3, r3, #2
 3307 004a 02D0     		beq	.L315
 3308              		.loc 1 1295 0 is_stmt 0 discriminator 1
 3309 004c 0020     		movs	r0, #0
 3310 004e FFF7FEFF 		bl	CyHalt
 3311              	.L315:
1296:Generated_Source\PSoC4/CyDMA.c **** 
ARM GAS  C:\Users\ADMINI~1\AppData\Local\Temp\ccf1WNrD.s 			page 82


1297:Generated_Source\PSoC4/CyDMA.c ****     regValue = CYDMA_DESCR_BASE.descriptor[channel][descriptor].ctl & (uint32)~CYDMA_TRANSFER_MODE;
 3312              		.loc 1 1297 0 is_stmt 1
 3313 0052 0E49     		ldr	r1, .L316
 3314 0054 FB68     		ldr	r3, [r7, #12]
 3315 0056 5A00     		lsls	r2, r3, #1
 3316 0058 BB68     		ldr	r3, [r7, #8]
 3317 005a D318     		adds	r3, r2, r3
 3318 005c 1B01     		lsls	r3, r3, #4
 3319 005e CB18     		adds	r3, r1, r3
 3320 0060 0833     		adds	r3, r3, #8
 3321 0062 1B68     		ldr	r3, [r3]
 3322 0064 9B00     		lsls	r3, r3, #2
 3323 0066 9B08     		lsrs	r3, r3, #2
 3324 0068 7B61     		str	r3, [r7, #20]
1298:Generated_Source\PSoC4/CyDMA.c ****     CYDMA_DESCR_BASE.descriptor[channel][descriptor].ctl = regValue | transferMode;
 3325              		.loc 1 1298 0
 3326 006a 0848     		ldr	r0, .L316
 3327 006c 7A69     		ldr	r2, [r7, #20]
 3328 006e 7B68     		ldr	r3, [r7, #4]
 3329 0070 1A43     		orrs	r2, r3
 3330 0072 FB68     		ldr	r3, [r7, #12]
 3331 0074 5900     		lsls	r1, r3, #1
 3332 0076 BB68     		ldr	r3, [r7, #8]
 3333 0078 CB18     		adds	r3, r1, r3
 3334 007a 1B01     		lsls	r3, r3, #4
 3335 007c C318     		adds	r3, r0, r3
 3336 007e 0833     		adds	r3, r3, #8
 3337 0080 1A60     		str	r2, [r3]
1299:Generated_Source\PSoC4/CyDMA.c **** }
 3338              		.loc 1 1299 0
 3339 0082 C046     		nop
 3340 0084 BD46     		mov	sp, r7
 3341 0086 06B0     		add	sp, sp, #24
 3342              		@ sp needed
 3343 0088 80BD     		pop	{r7, pc}
 3344              	.L317:
 3345 008a C046     		.align	2
 3346              	.L316:
 3347 008c 00181040 		.word	1074796544
 3348              		.cfi_endproc
 3349              	.LFE43:
 3350              		.size	CyDmaSetTransferMode, .-CyDmaSetTransferMode
 3351              		.section	.text.CyDmaGetTransferMode,"ax",%progbits
 3352              		.align	2
 3353              		.global	CyDmaGetTransferMode
 3354              		.code	16
 3355              		.thumb_func
 3356              		.type	CyDmaGetTransferMode, %function
 3357              	CyDmaGetTransferMode:
 3358              	.LFB44:
1300:Generated_Source\PSoC4/CyDMA.c **** 
1301:Generated_Source\PSoC4/CyDMA.c **** 
1302:Generated_Source\PSoC4/CyDMA.c **** /*******************************************************************************
1303:Generated_Source\PSoC4/CyDMA.c **** * Function Name: CyDmaGetTransferMode
1304:Generated_Source\PSoC4/CyDMA.c **** ********************************************************************************
1305:Generated_Source\PSoC4/CyDMA.c **** *
1306:Generated_Source\PSoC4/CyDMA.c **** * Summary:
ARM GAS  C:\Users\ADMINI~1\AppData\Local\Temp\ccf1WNrD.s 			page 83


1307:Generated_Source\PSoC4/CyDMA.c **** *  Returns the transfer mode for the specified descriptor as set by 
1308:Generated_Source\PSoC4/CyDMA.c **** *  CyDmaSetTransferMode() or CyDmaSetConfiguration.
1309:Generated_Source\PSoC4/CyDMA.c **** *
1310:Generated_Source\PSoC4/CyDMA.c **** * Parameters:
1311:Generated_Source\PSoC4/CyDMA.c **** *  channel:    Channel used by this function.
1312:Generated_Source\PSoC4/CyDMA.c **** *  descriptor: Descriptor (0 or 1) modified by this function.
1313:Generated_Source\PSoC4/CyDMA.c **** *                   
1314:Generated_Source\PSoC4/CyDMA.c **** * Return:
1315:Generated_Source\PSoC4/CyDMA.c **** *  DMA transfer mode settings. Refer to the API bit field definitions in
1316:Generated_Source\PSoC4/CyDMA.c **** *  CyDMA_P4.h or the API description in the DMA channel datasheet for more
1317:Generated_Source\PSoC4/CyDMA.c **** *  information.
1318:Generated_Source\PSoC4/CyDMA.c **** *
1319:Generated_Source\PSoC4/CyDMA.c **** *******************************************************************************/
1320:Generated_Source\PSoC4/CyDMA.c **** uint32 CyDmaGetTransferMode(int32 channel, int32 descriptor)
1321:Generated_Source\PSoC4/CyDMA.c **** {
 3359              		.loc 1 1321 0
 3360              		.cfi_startproc
 3361              		@ args = 0, pretend = 0, frame = 8
 3362              		@ frame_needed = 1, uses_anonymous_args = 0
 3363 0000 80B5     		push	{r7, lr}
 3364              		.cfi_def_cfa_offset 8
 3365              		.cfi_offset 7, -8
 3366              		.cfi_offset 14, -4
 3367 0002 82B0     		sub	sp, sp, #8
 3368              		.cfi_def_cfa_offset 16
 3369 0004 00AF     		add	r7, sp, #0
 3370              		.cfi_def_cfa_register 7
 3371 0006 7860     		str	r0, [r7, #4]
 3372 0008 3960     		str	r1, [r7]
1322:Generated_Source\PSoC4/CyDMA.c ****     CYASSERT((channel    >= 0) && (channel    < CYDMA_CH_NR));
 3373              		.loc 1 1322 0
 3374 000a 7B68     		ldr	r3, [r7, #4]
 3375 000c 002B     		cmp	r3, #0
 3376 000e 04DB     		blt	.L319
 3377              		.loc 1 1322 0 is_stmt 0 discriminator 1
 3378 0010 7B68     		ldr	r3, [r7, #4]
 3379 0012 072B     		cmp	r3, #7
 3380 0014 01DC     		bgt	.L319
 3381              		.loc 1 1322 0 discriminator 3
 3382 0016 0123     		movs	r3, #1
 3383 0018 00E0     		b	.L320
 3384              	.L319:
 3385              		.loc 1 1322 0 discriminator 4
 3386 001a 0023     		movs	r3, #0
 3387              	.L320:
 3388              		.loc 1 1322 0 discriminator 6
 3389 001c 002B     		cmp	r3, #0
 3390 001e 02D1     		bne	.L321
 3391              		.loc 1 1322 0 discriminator 7
 3392 0020 0020     		movs	r0, #0
 3393 0022 FFF7FEFF 		bl	CyHalt
 3394              	.L321:
1323:Generated_Source\PSoC4/CyDMA.c ****     CYASSERT((descriptor >= 0) && (descriptor < CYDMA_DESCR_NR));
 3395              		.loc 1 1323 0 is_stmt 1
 3396 0026 3B68     		ldr	r3, [r7]
 3397 0028 002B     		cmp	r3, #0
 3398 002a 04DB     		blt	.L322
ARM GAS  C:\Users\ADMINI~1\AppData\Local\Temp\ccf1WNrD.s 			page 84


 3399              		.loc 1 1323 0 is_stmt 0 discriminator 1
 3400 002c 3B68     		ldr	r3, [r7]
 3401 002e 012B     		cmp	r3, #1
 3402 0030 01DC     		bgt	.L322
 3403              		.loc 1 1323 0 discriminator 3
 3404 0032 0123     		movs	r3, #1
 3405 0034 00E0     		b	.L323
 3406              	.L322:
 3407              		.loc 1 1323 0 discriminator 4
 3408 0036 0023     		movs	r3, #0
 3409              	.L323:
 3410              		.loc 1 1323 0 discriminator 6
 3411 0038 002B     		cmp	r3, #0
 3412 003a 02D1     		bne	.L324
 3413              		.loc 1 1323 0 discriminator 7
 3414 003c 0020     		movs	r0, #0
 3415 003e FFF7FEFF 		bl	CyHalt
 3416              	.L324:
1324:Generated_Source\PSoC4/CyDMA.c **** 
1325:Generated_Source\PSoC4/CyDMA.c ****     return (CYDMA_DESCR_BASE.descriptor[channel][descriptor].ctl & CYDMA_TRANSFER_MODE);
 3417              		.loc 1 1325 0 is_stmt 1
 3418 0042 0749     		ldr	r1, .L326
 3419 0044 7B68     		ldr	r3, [r7, #4]
 3420 0046 5A00     		lsls	r2, r3, #1
 3421 0048 3B68     		ldr	r3, [r7]
 3422 004a D318     		adds	r3, r2, r3
 3423 004c 1B01     		lsls	r3, r3, #4
 3424 004e CB18     		adds	r3, r1, r3
 3425 0050 0833     		adds	r3, r3, #8
 3426 0052 1B68     		ldr	r3, [r3]
 3427 0054 9B0F     		lsrs	r3, r3, #30
 3428 0056 9B07     		lsls	r3, r3, #30
1326:Generated_Source\PSoC4/CyDMA.c **** }
 3429              		.loc 1 1326 0
 3430 0058 1800     		movs	r0, r3
 3431 005a BD46     		mov	sp, r7
 3432 005c 02B0     		add	sp, sp, #8
 3433              		@ sp needed
 3434 005e 80BD     		pop	{r7, pc}
 3435              	.L327:
 3436              		.align	2
 3437              	.L326:
 3438 0060 00181040 		.word	1074796544
 3439              		.cfi_endproc
 3440              	.LFE44:
 3441              		.size	CyDmaGetTransferMode, .-CyDmaGetTransferMode
 3442              		.section	.text.CyDmaSetPreemptable,"ax",%progbits
 3443              		.align	2
 3444              		.global	CyDmaSetPreemptable
 3445              		.code	16
 3446              		.thumb_func
 3447              		.type	CyDmaSetPreemptable, %function
 3448              	CyDmaSetPreemptable:
 3449              	.LFB45:
1327:Generated_Source\PSoC4/CyDMA.c **** 
1328:Generated_Source\PSoC4/CyDMA.c **** 
1329:Generated_Source\PSoC4/CyDMA.c **** /*******************************************************************************
ARM GAS  C:\Users\ADMINI~1\AppData\Local\Temp\ccf1WNrD.s 			page 85


1330:Generated_Source\PSoC4/CyDMA.c **** * Function Name: CyDmaSetPreemptable
1331:Generated_Source\PSoC4/CyDMA.c **** ********************************************************************************
1332:Generated_Source\PSoC4/CyDMA.c **** *
1333:Generated_Source\PSoC4/CyDMA.c **** * Summary:
1334:Generated_Source\PSoC4/CyDMA.c **** *  Determines if the descriptor is preemptable.
1335:Generated_Source\PSoC4/CyDMA.c **** *
1336:Generated_Source\PSoC4/CyDMA.c **** * Parameters:
1337:Generated_Source\PSoC4/CyDMA.c **** *  channel:     Channel used by this function.
1338:Generated_Source\PSoC4/CyDMA.c **** *  descriptor:  Descriptor (0 or 1) modified by this function.
1339:Generated_Source\PSoC4/CyDMA.c **** *  preemptable: Descriptor preemption settings. Refer to the API bit fields
1340:Generated_Source\PSoC4/CyDMA.c **** *               definition in CyDMA_P4.h or the API description in the DMA 
1341:Generated_Source\PSoC4/CyDMA.c **** *               channel datasheet for the parameter options.
1342:Generated_Source\PSoC4/CyDMA.c **** *                   
1343:Generated_Source\PSoC4/CyDMA.c **** * Return:
1344:Generated_Source\PSoC4/CyDMA.c **** *  None.
1345:Generated_Source\PSoC4/CyDMA.c **** *
1346:Generated_Source\PSoC4/CyDMA.c **** * Side effect:
1347:Generated_Source\PSoC4/CyDMA.c **** *  This function should not be called when the specified descriptor is active
1348:Generated_Source\PSoC4/CyDMA.c **** *  in the DMA transfer engine. This can be checked by calling CyDmaGetStatus(). 
1349:Generated_Source\PSoC4/CyDMA.c **** *
1350:Generated_Source\PSoC4/CyDMA.c **** *******************************************************************************/
1351:Generated_Source\PSoC4/CyDMA.c **** void CyDmaSetPreemptable(int32 channel, int32 descriptor, uint32 preemptable)
1352:Generated_Source\PSoC4/CyDMA.c **** {
 3450              		.loc 1 1352 0
 3451              		.cfi_startproc
 3452              		@ args = 0, pretend = 0, frame = 24
 3453              		@ frame_needed = 1, uses_anonymous_args = 0
 3454 0000 80B5     		push	{r7, lr}
 3455              		.cfi_def_cfa_offset 8
 3456              		.cfi_offset 7, -8
 3457              		.cfi_offset 14, -4
 3458 0002 86B0     		sub	sp, sp, #24
 3459              		.cfi_def_cfa_offset 32
 3460 0004 00AF     		add	r7, sp, #0
 3461              		.cfi_def_cfa_register 7
 3462 0006 F860     		str	r0, [r7, #12]
 3463 0008 B960     		str	r1, [r7, #8]
 3464 000a 7A60     		str	r2, [r7, #4]
1353:Generated_Source\PSoC4/CyDMA.c ****     uint32 regValue;
1354:Generated_Source\PSoC4/CyDMA.c **** 
1355:Generated_Source\PSoC4/CyDMA.c ****     CYASSERT((channel    >= 0) && (channel    < CYDMA_CH_NR));
 3465              		.loc 1 1355 0
 3466 000c FB68     		ldr	r3, [r7, #12]
 3467 000e 002B     		cmp	r3, #0
 3468 0010 04DB     		blt	.L329
 3469              		.loc 1 1355 0 is_stmt 0 discriminator 1
 3470 0012 FB68     		ldr	r3, [r7, #12]
 3471 0014 072B     		cmp	r3, #7
 3472 0016 01DC     		bgt	.L329
 3473              		.loc 1 1355 0 discriminator 3
 3474 0018 0123     		movs	r3, #1
 3475 001a 00E0     		b	.L330
 3476              	.L329:
 3477              		.loc 1 1355 0 discriminator 4
 3478 001c 0023     		movs	r3, #0
 3479              	.L330:
 3480              		.loc 1 1355 0 discriminator 6
ARM GAS  C:\Users\ADMINI~1\AppData\Local\Temp\ccf1WNrD.s 			page 86


 3481 001e 002B     		cmp	r3, #0
 3482 0020 02D1     		bne	.L331
 3483              		.loc 1 1355 0 discriminator 7
 3484 0022 0020     		movs	r0, #0
 3485 0024 FFF7FEFF 		bl	CyHalt
 3486              	.L331:
1356:Generated_Source\PSoC4/CyDMA.c ****     CYASSERT((descriptor >= 0) && (descriptor < CYDMA_DESCR_NR));
 3487              		.loc 1 1356 0 is_stmt 1
 3488 0028 BB68     		ldr	r3, [r7, #8]
 3489 002a 002B     		cmp	r3, #0
 3490 002c 04DB     		blt	.L332
 3491              		.loc 1 1356 0 is_stmt 0 discriminator 1
 3492 002e BB68     		ldr	r3, [r7, #8]
 3493 0030 012B     		cmp	r3, #1
 3494 0032 01DC     		bgt	.L332
 3495              		.loc 1 1356 0 discriminator 3
 3496 0034 0123     		movs	r3, #1
 3497 0036 00E0     		b	.L333
 3498              	.L332:
 3499              		.loc 1 1356 0 discriminator 4
 3500 0038 0023     		movs	r3, #0
 3501              	.L333:
 3502              		.loc 1 1356 0 discriminator 6
 3503 003a 002B     		cmp	r3, #0
 3504 003c 02D1     		bne	.L334
 3505              		.loc 1 1356 0 discriminator 7
 3506 003e 0020     		movs	r0, #0
 3507 0040 FFF7FEFF 		bl	CyHalt
 3508              	.L334:
1357:Generated_Source\PSoC4/CyDMA.c ****     CYASSERT(0u == (preemptable & (uint32)~CYDMA_PREEMPTABLE));
 3509              		.loc 1 1357 0 is_stmt 1
 3510 0044 7B68     		ldr	r3, [r7, #4]
 3511 0046 114A     		ldr	r2, .L336
 3512 0048 1340     		ands	r3, r2
 3513 004a 02D0     		beq	.L335
 3514              		.loc 1 1357 0 is_stmt 0 discriminator 1
 3515 004c 0020     		movs	r0, #0
 3516 004e FFF7FEFF 		bl	CyHalt
 3517              	.L335:
1358:Generated_Source\PSoC4/CyDMA.c **** 
1359:Generated_Source\PSoC4/CyDMA.c ****     regValue = CYDMA_DESCR_BASE.descriptor[channel][descriptor].ctl & (uint32)~CYDMA_PREEMPTABLE;
 3518              		.loc 1 1359 0 is_stmt 1
 3519 0052 0F49     		ldr	r1, .L336+4
 3520 0054 FB68     		ldr	r3, [r7, #12]
 3521 0056 5A00     		lsls	r2, r3, #1
 3522 0058 BB68     		ldr	r3, [r7, #8]
 3523 005a D318     		adds	r3, r2, r3
 3524 005c 1B01     		lsls	r3, r3, #4
 3525 005e CB18     		adds	r3, r1, r3
 3526 0060 0833     		adds	r3, r3, #8
 3527 0062 1B68     		ldr	r3, [r3]
 3528 0064 094A     		ldr	r2, .L336
 3529 0066 1340     		ands	r3, r2
 3530 0068 7B61     		str	r3, [r7, #20]
1360:Generated_Source\PSoC4/CyDMA.c ****     CYDMA_DESCR_BASE.descriptor[channel][descriptor].ctl = regValue | preemptable;
 3531              		.loc 1 1360 0
 3532 006a 0948     		ldr	r0, .L336+4
ARM GAS  C:\Users\ADMINI~1\AppData\Local\Temp\ccf1WNrD.s 			page 87


 3533 006c 7A69     		ldr	r2, [r7, #20]
 3534 006e 7B68     		ldr	r3, [r7, #4]
 3535 0070 1A43     		orrs	r2, r3
 3536 0072 FB68     		ldr	r3, [r7, #12]
 3537 0074 5900     		lsls	r1, r3, #1
 3538 0076 BB68     		ldr	r3, [r7, #8]
 3539 0078 CB18     		adds	r3, r1, r3
 3540 007a 1B01     		lsls	r3, r3, #4
 3541 007c C318     		adds	r3, r0, r3
 3542 007e 0833     		adds	r3, r3, #8
 3543 0080 1A60     		str	r2, [r3]
1361:Generated_Source\PSoC4/CyDMA.c **** }
 3544              		.loc 1 1361 0
 3545 0082 C046     		nop
 3546 0084 BD46     		mov	sp, r7
 3547 0086 06B0     		add	sp, sp, #24
 3548              		@ sp needed
 3549 0088 80BD     		pop	{r7, pc}
 3550              	.L337:
 3551 008a C046     		.align	2
 3552              	.L336:
 3553 008c FFFFFFEF 		.word	-268435457
 3554 0090 00181040 		.word	1074796544
 3555              		.cfi_endproc
 3556              	.LFE45:
 3557              		.size	CyDmaSetPreemptable, .-CyDmaSetPreemptable
 3558              		.section	.text.CyDmaGetPreemptable,"ax",%progbits
 3559              		.align	2
 3560              		.global	CyDmaGetPreemptable
 3561              		.code	16
 3562              		.thumb_func
 3563              		.type	CyDmaGetPreemptable, %function
 3564              	CyDmaGetPreemptable:
 3565              	.LFB46:
1362:Generated_Source\PSoC4/CyDMA.c **** 
1363:Generated_Source\PSoC4/CyDMA.c **** 
1364:Generated_Source\PSoC4/CyDMA.c **** /*******************************************************************************
1365:Generated_Source\PSoC4/CyDMA.c **** * Function Name: CyDmaGetPreemptable
1366:Generated_Source\PSoC4/CyDMA.c **** ********************************************************************************
1367:Generated_Source\PSoC4/CyDMA.c **** *
1368:Generated_Source\PSoC4/CyDMA.c **** * Summary:
1369:Generated_Source\PSoC4/CyDMA.c **** *  Returns whether or not the descriptor is preemptable.
1370:Generated_Source\PSoC4/CyDMA.c **** *
1371:Generated_Source\PSoC4/CyDMA.c **** * Parameters:
1372:Generated_Source\PSoC4/CyDMA.c **** *  channel:    Channel used by this function.
1373:Generated_Source\PSoC4/CyDMA.c **** *  descriptor: Descriptor (0 or 1) modified by this function.
1374:Generated_Source\PSoC4/CyDMA.c **** *                   
1375:Generated_Source\PSoC4/CyDMA.c **** * Return:
1376:Generated_Source\PSoC4/CyDMA.c **** *  Descriptor preemption setting. Refer to the API bit field definitions in
1377:Generated_Source\PSoC4/CyDMA.c **** *  CyDMA_P4.h or the API description in the DMA channel datasheet for more
1378:Generated_Source\PSoC4/CyDMA.c **** *  information.
1379:Generated_Source\PSoC4/CyDMA.c **** *
1380:Generated_Source\PSoC4/CyDMA.c **** *******************************************************************************/
1381:Generated_Source\PSoC4/CyDMA.c **** uint32 CyDmaGetPreemptable(int32 channel, int32 descriptor)
1382:Generated_Source\PSoC4/CyDMA.c **** {
 3566              		.loc 1 1382 0
 3567              		.cfi_startproc
ARM GAS  C:\Users\ADMINI~1\AppData\Local\Temp\ccf1WNrD.s 			page 88


 3568              		@ args = 0, pretend = 0, frame = 8
 3569              		@ frame_needed = 1, uses_anonymous_args = 0
 3570 0000 80B5     		push	{r7, lr}
 3571              		.cfi_def_cfa_offset 8
 3572              		.cfi_offset 7, -8
 3573              		.cfi_offset 14, -4
 3574 0002 82B0     		sub	sp, sp, #8
 3575              		.cfi_def_cfa_offset 16
 3576 0004 00AF     		add	r7, sp, #0
 3577              		.cfi_def_cfa_register 7
 3578 0006 7860     		str	r0, [r7, #4]
 3579 0008 3960     		str	r1, [r7]
1383:Generated_Source\PSoC4/CyDMA.c ****     CYASSERT((channel    >= 0) && (channel    < CYDMA_CH_NR));
 3580              		.loc 1 1383 0
 3581 000a 7B68     		ldr	r3, [r7, #4]
 3582 000c 002B     		cmp	r3, #0
 3583 000e 04DB     		blt	.L339
 3584              		.loc 1 1383 0 is_stmt 0 discriminator 1
 3585 0010 7B68     		ldr	r3, [r7, #4]
 3586 0012 072B     		cmp	r3, #7
