ARM GAS  C:\Users\ADMINI~1\AppData\Local\Temp\cccYKLCd.s 			page 1


   1              		.syntax unified
   2              		.cpu cortex-m0
   3              		.fpu softvfp
   4              		.eabi_attribute 20, 1
   5              		.eabi_attribute 21, 1
   6              		.eabi_attribute 23, 3
   7              		.eabi_attribute 24, 1
   8              		.eabi_attribute 25, 1
   9              		.eabi_attribute 26, 1
  10              		.eabi_attribute 30, 6
  11              		.eabi_attribute 34, 0
  12              		.eabi_attribute 18, 4
  13              		.thumb
  14              		.syntax unified
  15              		.file	"cyfitter_cfg.c"
  16              		.text
  17              	.Ltext0:
  18              		.cfi_sections	.debug_frame
  19              		.section	.text.CYMEMZERO,"ax",%progbits
  20              		.align	2
  21              		.code	16
  22              		.thumb_func
  23              		.type	CYMEMZERO, %function
  24              	CYMEMZERO:
  25              	.LFB1:
  26              		.file 1 "Generated_Source\\PSoC4\\cyfitter_cfg.c"
   1:Generated_Source\PSoC4/cyfitter_cfg.c **** 
   2:Generated_Source\PSoC4/cyfitter_cfg.c **** /*******************************************************************************
   3:Generated_Source\PSoC4/cyfitter_cfg.c **** * File Name: cyfitter_cfg.c
   4:Generated_Source\PSoC4/cyfitter_cfg.c **** * 
   5:Generated_Source\PSoC4/cyfitter_cfg.c **** * PSoC Creator  4.2
   6:Generated_Source\PSoC4/cyfitter_cfg.c **** *
   7:Generated_Source\PSoC4/cyfitter_cfg.c **** * Description:
   8:Generated_Source\PSoC4/cyfitter_cfg.c **** * This file contains device initialization code.
   9:Generated_Source\PSoC4/cyfitter_cfg.c **** * Except for the user defined sections in CyClockStartupError(), this file should not be modified.
  10:Generated_Source\PSoC4/cyfitter_cfg.c **** * This file is automatically generated by PSoC Creator.
  11:Generated_Source\PSoC4/cyfitter_cfg.c **** *
  12:Generated_Source\PSoC4/cyfitter_cfg.c **** ********************************************************************************
  13:Generated_Source\PSoC4/cyfitter_cfg.c **** * Copyright (c) 2007-2018 Cypress Semiconductor.  All rights reserved.
  14:Generated_Source\PSoC4/cyfitter_cfg.c **** * You may use this file only in accordance with the license, terms, conditions, 
  15:Generated_Source\PSoC4/cyfitter_cfg.c **** * disclaimers, and limitations in the end user license agreement accompanying 
  16:Generated_Source\PSoC4/cyfitter_cfg.c **** * the software package with which this file was provided.
  17:Generated_Source\PSoC4/cyfitter_cfg.c **** ********************************************************************************/
  18:Generated_Source\PSoC4/cyfitter_cfg.c **** 
  19:Generated_Source\PSoC4/cyfitter_cfg.c **** #include <string.h>
  20:Generated_Source\PSoC4/cyfitter_cfg.c **** #include "cytypes.h"
  21:Generated_Source\PSoC4/cyfitter_cfg.c **** #include "cydevice_trm.h"
  22:Generated_Source\PSoC4/cyfitter_cfg.c **** #include "cyfitter.h"
  23:Generated_Source\PSoC4/cyfitter_cfg.c **** #include "CyLib.h"
  24:Generated_Source\PSoC4/cyfitter_cfg.c **** #include "CyLFClk.h"
  25:Generated_Source\PSoC4/cyfitter_cfg.c **** #include "cyfitter_cfg.h"
  26:Generated_Source\PSoC4/cyfitter_cfg.c **** 
  27:Generated_Source\PSoC4/cyfitter_cfg.c **** 
  28:Generated_Source\PSoC4/cyfitter_cfg.c **** #if defined(__GNUC__) || defined(__ARMCC_VERSION)
  29:Generated_Source\PSoC4/cyfitter_cfg.c ****     #define CYPACKED 
  30:Generated_Source\PSoC4/cyfitter_cfg.c ****     #define CYPACKED_ATTR __attribute__ ((packed))
  31:Generated_Source\PSoC4/cyfitter_cfg.c ****     #define CYALIGNED __attribute__ ((aligned))
ARM GAS  C:\Users\ADMINI~1\AppData\Local\Temp\cccYKLCd.s 			page 2


  32:Generated_Source\PSoC4/cyfitter_cfg.c ****     #define CY_CFG_UNUSED __attribute__ ((unused))
  33:Generated_Source\PSoC4/cyfitter_cfg.c ****     #ifndef CY_CFG_SECTION
  34:Generated_Source\PSoC4/cyfitter_cfg.c ****         #define CY_CFG_SECTION __attribute__ ((section(".psocinit")))
  35:Generated_Source\PSoC4/cyfitter_cfg.c ****     #endif
  36:Generated_Source\PSoC4/cyfitter_cfg.c ****     
  37:Generated_Source\PSoC4/cyfitter_cfg.c ****     #if defined(__ARMCC_VERSION)
  38:Generated_Source\PSoC4/cyfitter_cfg.c ****         #define CY_CFG_MEMORY_BARRIER() __memory_changed()
  39:Generated_Source\PSoC4/cyfitter_cfg.c ****     #else
  40:Generated_Source\PSoC4/cyfitter_cfg.c ****         #define CY_CFG_MEMORY_BARRIER() __sync_synchronize()
  41:Generated_Source\PSoC4/cyfitter_cfg.c ****     #endif
  42:Generated_Source\PSoC4/cyfitter_cfg.c ****     
  43:Generated_Source\PSoC4/cyfitter_cfg.c **** #elif defined(__ICCARM__)
  44:Generated_Source\PSoC4/cyfitter_cfg.c ****     #include <intrinsics.h>
  45:Generated_Source\PSoC4/cyfitter_cfg.c **** 
  46:Generated_Source\PSoC4/cyfitter_cfg.c ****     #define CYPACKED __packed
  47:Generated_Source\PSoC4/cyfitter_cfg.c ****     #define CYPACKED_ATTR 
  48:Generated_Source\PSoC4/cyfitter_cfg.c ****     #define CYALIGNED _Pragma("data_alignment=4")
  49:Generated_Source\PSoC4/cyfitter_cfg.c ****     #define CY_CFG_UNUSED _Pragma("diag_suppress=Pe177")
  50:Generated_Source\PSoC4/cyfitter_cfg.c ****     #define CY_CFG_SECTION _Pragma("location=\".psocinit\"")
  51:Generated_Source\PSoC4/cyfitter_cfg.c ****     
  52:Generated_Source\PSoC4/cyfitter_cfg.c ****     #define CY_CFG_MEMORY_BARRIER() __DMB()
  53:Generated_Source\PSoC4/cyfitter_cfg.c ****     
  54:Generated_Source\PSoC4/cyfitter_cfg.c **** #else
  55:Generated_Source\PSoC4/cyfitter_cfg.c ****     #error Unsupported toolchain
  56:Generated_Source\PSoC4/cyfitter_cfg.c **** #endif
  57:Generated_Source\PSoC4/cyfitter_cfg.c **** 
  58:Generated_Source\PSoC4/cyfitter_cfg.c **** #ifndef CYCODE
  59:Generated_Source\PSoC4/cyfitter_cfg.c ****     #define CYCODE
  60:Generated_Source\PSoC4/cyfitter_cfg.c **** #endif
  61:Generated_Source\PSoC4/cyfitter_cfg.c **** #ifndef CYDATA
  62:Generated_Source\PSoC4/cyfitter_cfg.c ****     #define CYDATA
  63:Generated_Source\PSoC4/cyfitter_cfg.c **** #endif
  64:Generated_Source\PSoC4/cyfitter_cfg.c **** #ifndef CYFAR
  65:Generated_Source\PSoC4/cyfitter_cfg.c ****     #define CYFAR
  66:Generated_Source\PSoC4/cyfitter_cfg.c **** #endif
  67:Generated_Source\PSoC4/cyfitter_cfg.c **** #ifndef CYXDATA
  68:Generated_Source\PSoC4/cyfitter_cfg.c ****     #define CYXDATA
  69:Generated_Source\PSoC4/cyfitter_cfg.c **** #endif
  70:Generated_Source\PSoC4/cyfitter_cfg.c **** 
  71:Generated_Source\PSoC4/cyfitter_cfg.c **** 
  72:Generated_Source\PSoC4/cyfitter_cfg.c **** CY_CFG_UNUSED
  73:Generated_Source\PSoC4/cyfitter_cfg.c **** static void CYMEMZERO(void *s, size_t n);
  74:Generated_Source\PSoC4/cyfitter_cfg.c **** CY_CFG_UNUSED
  75:Generated_Source\PSoC4/cyfitter_cfg.c **** static void CYMEMZERO(void *s, size_t n)
  76:Generated_Source\PSoC4/cyfitter_cfg.c **** {
  27              		.loc 1 76 0
  28              		.cfi_startproc
  29              		@ args = 0, pretend = 0, frame = 8
  30              		@ frame_needed = 1, uses_anonymous_args = 0
  31 0000 80B5     		push	{r7, lr}
  32              		.cfi_def_cfa_offset 8
  33              		.cfi_offset 7, -8
  34              		.cfi_offset 14, -4
  35 0002 82B0     		sub	sp, sp, #8
  36              		.cfi_def_cfa_offset 16
  37 0004 00AF     		add	r7, sp, #0
  38              		.cfi_def_cfa_register 7
ARM GAS  C:\Users\ADMINI~1\AppData\Local\Temp\cccYKLCd.s 			page 3


  39 0006 7860     		str	r0, [r7, #4]
  40 0008 3960     		str	r1, [r7]
  77:Generated_Source\PSoC4/cyfitter_cfg.c **** 	(void)memset(s, 0, n);
  41              		.loc 1 77 0
  42 000a 3A68     		ldr	r2, [r7]
  43 000c 7B68     		ldr	r3, [r7, #4]
  44 000e 0021     		movs	r1, #0
  45 0010 1800     		movs	r0, r3
  46 0012 FFF7FEFF 		bl	memset
  78:Generated_Source\PSoC4/cyfitter_cfg.c **** }
  47              		.loc 1 78 0
  48 0016 C046     		nop
  49 0018 BD46     		mov	sp, r7
  50 001a 02B0     		add	sp, sp, #8
  51              		@ sp needed
  52 001c 80BD     		pop	{r7, pc}
  53              		.cfi_endproc
  54              	.LFE1:
  55              		.size	CYMEMZERO, .-CYMEMZERO
  56 001e C046     		.section	.text.CYCONFIGCPY,"ax",%progbits
  57              		.align	2
  58              		.code	16
  59              		.thumb_func
  60              		.type	CYCONFIGCPY, %function
  61              	CYCONFIGCPY:
  62              	.LFB2:
  79:Generated_Source\PSoC4/cyfitter_cfg.c **** CY_CFG_UNUSED
  80:Generated_Source\PSoC4/cyfitter_cfg.c **** static void CYCONFIGCPY(void *dest, const void *src, size_t n);
  81:Generated_Source\PSoC4/cyfitter_cfg.c **** CY_CFG_UNUSED
  82:Generated_Source\PSoC4/cyfitter_cfg.c **** static void CYCONFIGCPY(void *dest, const void *src, size_t n)
  83:Generated_Source\PSoC4/cyfitter_cfg.c **** {
  63              		.loc 1 83 0
  64              		.cfi_startproc
  65              		@ args = 0, pretend = 0, frame = 16
  66              		@ frame_needed = 1, uses_anonymous_args = 0
  67 0000 80B5     		push	{r7, lr}
  68              		.cfi_def_cfa_offset 8
  69              		.cfi_offset 7, -8
  70              		.cfi_offset 14, -4
  71 0002 84B0     		sub	sp, sp, #16
  72              		.cfi_def_cfa_offset 24
  73 0004 00AF     		add	r7, sp, #0
  74              		.cfi_def_cfa_register 7
  75 0006 F860     		str	r0, [r7, #12]
  76 0008 B960     		str	r1, [r7, #8]
  77 000a 7A60     		str	r2, [r7, #4]
  84:Generated_Source\PSoC4/cyfitter_cfg.c **** 	(void)memcpy(dest, src, n);
  78              		.loc 1 84 0
  79 000c 7A68     		ldr	r2, [r7, #4]
  80 000e B968     		ldr	r1, [r7, #8]
  81 0010 FB68     		ldr	r3, [r7, #12]
  82 0012 1800     		movs	r0, r3
  83 0014 FFF7FEFF 		bl	memcpy
  85:Generated_Source\PSoC4/cyfitter_cfg.c **** }
  84              		.loc 1 85 0
  85 0018 C046     		nop
  86 001a BD46     		mov	sp, r7
ARM GAS  C:\Users\ADMINI~1\AppData\Local\Temp\cccYKLCd.s 			page 4


  87 001c 04B0     		add	sp, sp, #16
  88              		@ sp needed
  89 001e 80BD     		pop	{r7, pc}
  90              		.cfi_endproc
  91              	.LFE2:
  92              		.size	CYCONFIGCPY, .-CYCONFIGCPY
  93              		.section	.text.CYCONFIGCPYCODE,"ax",%progbits
  94              		.align	2
  95              		.code	16
  96              		.thumb_func
  97              		.type	CYCONFIGCPYCODE, %function
  98              	CYCONFIGCPYCODE:
  99              	.LFB3:
  86:Generated_Source\PSoC4/cyfitter_cfg.c **** CY_CFG_UNUSED
  87:Generated_Source\PSoC4/cyfitter_cfg.c **** static void CYCONFIGCPYCODE(void *dest, const void *src, size_t n);
  88:Generated_Source\PSoC4/cyfitter_cfg.c **** CY_CFG_UNUSED
  89:Generated_Source\PSoC4/cyfitter_cfg.c **** static void CYCONFIGCPYCODE(void *dest, const void *src, size_t n)
  90:Generated_Source\PSoC4/cyfitter_cfg.c **** {
 100              		.loc 1 90 0
 101              		.cfi_startproc
 102              		@ args = 0, pretend = 0, frame = 16
 103              		@ frame_needed = 1, uses_anonymous_args = 0
 104 0000 80B5     		push	{r7, lr}
 105              		.cfi_def_cfa_offset 8
 106              		.cfi_offset 7, -8
 107              		.cfi_offset 14, -4
 108 0002 84B0     		sub	sp, sp, #16
 109              		.cfi_def_cfa_offset 24
 110 0004 00AF     		add	r7, sp, #0
 111              		.cfi_def_cfa_register 7
 112 0006 F860     		str	r0, [r7, #12]
 113 0008 B960     		str	r1, [r7, #8]
 114 000a 7A60     		str	r2, [r7, #4]
  91:Generated_Source\PSoC4/cyfitter_cfg.c **** 	(void)memcpy(dest, src, n);
 115              		.loc 1 91 0
 116 000c 7A68     		ldr	r2, [r7, #4]
 117 000e B968     		ldr	r1, [r7, #8]
 118 0010 FB68     		ldr	r3, [r7, #12]
 119 0012 1800     		movs	r0, r3
 120 0014 FFF7FEFF 		bl	memcpy
  92:Generated_Source\PSoC4/cyfitter_cfg.c **** }
 121              		.loc 1 92 0
 122 0018 C046     		nop
 123 001a BD46     		mov	sp, r7
 124 001c 04B0     		add	sp, sp, #16
 125              		@ sp needed
 126 001e 80BD     		pop	{r7, pc}
 127              		.cfi_endproc
 128              	.LFE3:
 129              		.size	CYCONFIGCPYCODE, .-CYCONFIGCPYCODE
 130              		.section	.text.cfg_write_bytes32,"ax",%progbits
 131              		.align	2
 132              		.code	16
 133              		.thumb_func
 134              		.type	cfg_write_bytes32, %function
 135              	cfg_write_bytes32:
 136              	.LFB4:
ARM GAS  C:\Users\ADMINI~1\AppData\Local\Temp\cccYKLCd.s 			page 5


  93:Generated_Source\PSoC4/cyfitter_cfg.c **** 
  94:Generated_Source\PSoC4/cyfitter_cfg.c **** 
  95:Generated_Source\PSoC4/cyfitter_cfg.c **** 
  96:Generated_Source\PSoC4/cyfitter_cfg.c **** 
  97:Generated_Source\PSoC4/cyfitter_cfg.c **** /* Clock startup error codes                                                   */
  98:Generated_Source\PSoC4/cyfitter_cfg.c **** #define CYCLOCKSTART_NO_ERROR    0u
  99:Generated_Source\PSoC4/cyfitter_cfg.c **** #define CYCLOCKSTART_XTAL_ERROR  1u
 100:Generated_Source\PSoC4/cyfitter_cfg.c **** #define CYCLOCKSTART_32KHZ_ERROR 2u
 101:Generated_Source\PSoC4/cyfitter_cfg.c **** #define CYCLOCKSTART_PLL_ERROR   3u
 102:Generated_Source\PSoC4/cyfitter_cfg.c **** #define CYCLOCKSTART_FLL_ERROR   4u
 103:Generated_Source\PSoC4/cyfitter_cfg.c **** #define CYCLOCKSTART_WCO_ERROR   5u
 104:Generated_Source\PSoC4/cyfitter_cfg.c **** 
 105:Generated_Source\PSoC4/cyfitter_cfg.c **** 
 106:Generated_Source\PSoC4/cyfitter_cfg.c **** #ifdef CY_NEED_CYCLOCKSTARTUPERROR
 107:Generated_Source\PSoC4/cyfitter_cfg.c **** /*******************************************************************************
 108:Generated_Source\PSoC4/cyfitter_cfg.c **** * Function Name: CyClockStartupError
 109:Generated_Source\PSoC4/cyfitter_cfg.c **** ********************************************************************************
 110:Generated_Source\PSoC4/cyfitter_cfg.c **** * Summary:
 111:Generated_Source\PSoC4/cyfitter_cfg.c **** *  If an error is encountered during clock configuration (crystal startup error,
 112:Generated_Source\PSoC4/cyfitter_cfg.c **** *  PLL lock error, etc.), the system will end up here.  Unless reimplemented by
 113:Generated_Source\PSoC4/cyfitter_cfg.c **** *  the customer, this function will stop in an infinite loop.
 114:Generated_Source\PSoC4/cyfitter_cfg.c **** *
 115:Generated_Source\PSoC4/cyfitter_cfg.c **** * Parameters:
 116:Generated_Source\PSoC4/cyfitter_cfg.c **** *   void
 117:Generated_Source\PSoC4/cyfitter_cfg.c **** *
 118:Generated_Source\PSoC4/cyfitter_cfg.c **** * Return:
 119:Generated_Source\PSoC4/cyfitter_cfg.c **** *   void
 120:Generated_Source\PSoC4/cyfitter_cfg.c **** *
 121:Generated_Source\PSoC4/cyfitter_cfg.c **** *******************************************************************************/
 122:Generated_Source\PSoC4/cyfitter_cfg.c **** CY_CFG_UNUSED
 123:Generated_Source\PSoC4/cyfitter_cfg.c **** static void CyClockStartupError(uint8 errorCode);
 124:Generated_Source\PSoC4/cyfitter_cfg.c **** CY_CFG_UNUSED
 125:Generated_Source\PSoC4/cyfitter_cfg.c **** static void CyClockStartupError(uint8 errorCode)
 126:Generated_Source\PSoC4/cyfitter_cfg.c **** {
 127:Generated_Source\PSoC4/cyfitter_cfg.c ****     /* To remove the compiler warning if errorCode not used.                */
 128:Generated_Source\PSoC4/cyfitter_cfg.c ****     errorCode = errorCode;
 129:Generated_Source\PSoC4/cyfitter_cfg.c **** 
 130:Generated_Source\PSoC4/cyfitter_cfg.c ****     /* If we have a clock startup error (bad MHz crystal, PLL lock, etc.),  */
 131:Generated_Source\PSoC4/cyfitter_cfg.c ****     /* we will end up here to allow the customer to implement something to  */
 132:Generated_Source\PSoC4/cyfitter_cfg.c ****     /* deal with the clock condition.                                       */
 133:Generated_Source\PSoC4/cyfitter_cfg.c **** 
 134:Generated_Source\PSoC4/cyfitter_cfg.c **** #ifdef CY_CFG_CLOCK_STARTUP_ERROR_CALLBACK
 135:Generated_Source\PSoC4/cyfitter_cfg.c ****     CY_CFG_Clock_Startup_ErrorCallback();
 136:Generated_Source\PSoC4/cyfitter_cfg.c **** #else
 137:Generated_Source\PSoC4/cyfitter_cfg.c ****     /*  If not using CY_CFG_CLOCK_STARTUP_ERROR_CALLBACK, place your clock startup code here. */
 138:Generated_Source\PSoC4/cyfitter_cfg.c ****     /* `#START CyClockStartupError` */
 139:Generated_Source\PSoC4/cyfitter_cfg.c **** 
 140:Generated_Source\PSoC4/cyfitter_cfg.c **** 
 141:Generated_Source\PSoC4/cyfitter_cfg.c **** 
 142:Generated_Source\PSoC4/cyfitter_cfg.c ****     /* `#END` */
 143:Generated_Source\PSoC4/cyfitter_cfg.c **** 
 144:Generated_Source\PSoC4/cyfitter_cfg.c ****     while(1) {}
 145:Generated_Source\PSoC4/cyfitter_cfg.c **** #endif /* CY_CFG_CLOCK_STARTUP_ERROR_CALLBACK */
 146:Generated_Source\PSoC4/cyfitter_cfg.c **** }
 147:Generated_Source\PSoC4/cyfitter_cfg.c **** #endif
 148:Generated_Source\PSoC4/cyfitter_cfg.c **** 
 149:Generated_Source\PSoC4/cyfitter_cfg.c **** #define CY_CFG_BASE_ADDR_COUNT 9u
ARM GAS  C:\Users\ADMINI~1\AppData\Local\Temp\cccYKLCd.s 			page 6


 150:Generated_Source\PSoC4/cyfitter_cfg.c **** CYPACKED typedef struct
 151:Generated_Source\PSoC4/cyfitter_cfg.c **** {
 152:Generated_Source\PSoC4/cyfitter_cfg.c **** 	uint8 offset;
 153:Generated_Source\PSoC4/cyfitter_cfg.c **** 	uint8 value;
 154:Generated_Source\PSoC4/cyfitter_cfg.c **** } CYPACKED_ATTR cy_cfg_addrvalue_t;
 155:Generated_Source\PSoC4/cyfitter_cfg.c **** 
 156:Generated_Source\PSoC4/cyfitter_cfg.c **** 
 157:Generated_Source\PSoC4/cyfitter_cfg.c **** 
 158:Generated_Source\PSoC4/cyfitter_cfg.c **** /*******************************************************************************
 159:Generated_Source\PSoC4/cyfitter_cfg.c **** * Function Name: cfg_write_bytes32
 160:Generated_Source\PSoC4/cyfitter_cfg.c **** ********************************************************************************
 161:Generated_Source\PSoC4/cyfitter_cfg.c **** * Summary:
 162:Generated_Source\PSoC4/cyfitter_cfg.c **** *  This function is used for setting up the chip configuration areas that
 163:Generated_Source\PSoC4/cyfitter_cfg.c **** *  contain relatively sparse data.
 164:Generated_Source\PSoC4/cyfitter_cfg.c **** *
 165:Generated_Source\PSoC4/cyfitter_cfg.c **** * Parameters:
 166:Generated_Source\PSoC4/cyfitter_cfg.c **** *   void
 167:Generated_Source\PSoC4/cyfitter_cfg.c **** *
 168:Generated_Source\PSoC4/cyfitter_cfg.c **** * Return:
 169:Generated_Source\PSoC4/cyfitter_cfg.c **** *   void
 170:Generated_Source\PSoC4/cyfitter_cfg.c **** *
 171:Generated_Source\PSoC4/cyfitter_cfg.c **** *******************************************************************************/
 172:Generated_Source\PSoC4/cyfitter_cfg.c **** static void cfg_write_bytes32(const uint32 addr_table[], const cy_cfg_addrvalue_t data_table[]);
 173:Generated_Source\PSoC4/cyfitter_cfg.c **** static void cfg_write_bytes32(const uint32 addr_table[], const cy_cfg_addrvalue_t data_table[])
 174:Generated_Source\PSoC4/cyfitter_cfg.c **** {
 137              		.loc 1 174 0
 138              		.cfi_startproc
 139              		@ args = 0, pretend = 0, frame = 24
 140              		@ frame_needed = 1, uses_anonymous_args = 0
 141 0000 80B5     		push	{r7, lr}
 142              		.cfi_def_cfa_offset 8
 143              		.cfi_offset 7, -8
 144              		.cfi_offset 14, -4
 145 0002 86B0     		sub	sp, sp, #24
 146              		.cfi_def_cfa_offset 32
 147 0004 00AF     		add	r7, sp, #0
 148              		.cfi_def_cfa_register 7
 149 0006 7860     		str	r0, [r7, #4]
 150 0008 3960     		str	r1, [r7]
 175:Generated_Source\PSoC4/cyfitter_cfg.c **** 	/* For 32-bit little-endian architectures */
 176:Generated_Source\PSoC4/cyfitter_cfg.c **** 	uint32 i, j = 0u;
 151              		.loc 1 176 0
 152 000a 0023     		movs	r3, #0
 153 000c 3B61     		str	r3, [r7, #16]
 177:Generated_Source\PSoC4/cyfitter_cfg.c **** 	for (i = 0u; i < CY_CFG_BASE_ADDR_COUNT; i++)
 154              		.loc 1 177 0
 155 000e 0023     		movs	r3, #0
 156 0010 7B61     		str	r3, [r7, #20]
 157 0012 2FE0     		b	.L5
 158              	.L8:
 159              	.LBB2:
 178:Generated_Source\PSoC4/cyfitter_cfg.c **** 	{
 179:Generated_Source\PSoC4/cyfitter_cfg.c **** 		uint32 baseAddr = addr_table[i];
 160              		.loc 1 179 0
 161 0014 7B69     		ldr	r3, [r7, #20]
 162 0016 9B00     		lsls	r3, r3, #2
 163 0018 7A68     		ldr	r2, [r7, #4]
ARM GAS  C:\Users\ADMINI~1\AppData\Local\Temp\cccYKLCd.s 			page 7


 164 001a D318     		adds	r3, r2, r3
 165 001c 1B68     		ldr	r3, [r3]
 166 001e BB60     		str	r3, [r7, #8]
 180:Generated_Source\PSoC4/cyfitter_cfg.c **** 		uint8 count = (uint8)baseAddr;
 167              		.loc 1 180 0
 168 0020 0F23     		movs	r3, #15
 169 0022 FB18     		adds	r3, r7, r3
 170 0024 BA68     		ldr	r2, [r7, #8]
 171 0026 1A70     		strb	r2, [r3]
 181:Generated_Source\PSoC4/cyfitter_cfg.c **** 		baseAddr &= 0xFFFFFF00u;
 172              		.loc 1 181 0
 173 0028 BB68     		ldr	r3, [r7, #8]
 174 002a FF22     		movs	r2, #255
 175 002c 9343     		bics	r3, r2
 176 002e BB60     		str	r3, [r7, #8]
 182:Generated_Source\PSoC4/cyfitter_cfg.c **** 		while (count != 0u)
 177              		.loc 1 182 0
 178 0030 18E0     		b	.L6
 179              	.L7:
 183:Generated_Source\PSoC4/cyfitter_cfg.c **** 		{
 184:Generated_Source\PSoC4/cyfitter_cfg.c **** 			CY_SET_REG8((void *)(baseAddr + data_table[j].offset), data_table[j].value);
 180              		.loc 1 184 0
 181 0032 3B69     		ldr	r3, [r7, #16]
 182 0034 5B00     		lsls	r3, r3, #1
 183 0036 3A68     		ldr	r2, [r7]
 184 0038 D318     		adds	r3, r2, r3
 185 003a 1B78     		ldrb	r3, [r3]
 186 003c 1A00     		movs	r2, r3
 187 003e BB68     		ldr	r3, [r7, #8]
 188 0040 D318     		adds	r3, r2, r3
 189 0042 1900     		movs	r1, r3
 190 0044 3B69     		ldr	r3, [r7, #16]
 191 0046 5B00     		lsls	r3, r3, #1
 192 0048 3A68     		ldr	r2, [r7]
 193 004a D318     		adds	r3, r2, r3
 194 004c 5B78     		ldrb	r3, [r3, #1]
 195 004e 0B70     		strb	r3, [r1]
 185:Generated_Source\PSoC4/cyfitter_cfg.c **** 			j++;
 196              		.loc 1 185 0
 197 0050 3B69     		ldr	r3, [r7, #16]
 198 0052 0133     		adds	r3, r3, #1
 199 0054 3B61     		str	r3, [r7, #16]
 186:Generated_Source\PSoC4/cyfitter_cfg.c **** 			count--;
 200              		.loc 1 186 0
 201 0056 0F23     		movs	r3, #15
 202 0058 FB18     		adds	r3, r7, r3
 203 005a 1A78     		ldrb	r2, [r3]
 204 005c 0F23     		movs	r3, #15
 205 005e FB18     		adds	r3, r7, r3
 206 0060 013A     		subs	r2, r2, #1
 207 0062 1A70     		strb	r2, [r3]
 208              	.L6:
 182:Generated_Source\PSoC4/cyfitter_cfg.c **** 		{
 209              		.loc 1 182 0
 210 0064 0F23     		movs	r3, #15
 211 0066 FB18     		adds	r3, r7, r3
 212 0068 1B78     		ldrb	r3, [r3]
ARM GAS  C:\Users\ADMINI~1\AppData\Local\Temp\cccYKLCd.s 			page 8


 213 006a 002B     		cmp	r3, #0
 214 006c E1D1     		bne	.L7
 215              	.LBE2:
 177:Generated_Source\PSoC4/cyfitter_cfg.c **** 	{
 216              		.loc 1 177 0 discriminator 2
 217 006e 7B69     		ldr	r3, [r7, #20]
 218 0070 0133     		adds	r3, r3, #1
 219 0072 7B61     		str	r3, [r7, #20]
 220              	.L5:
 177:Generated_Source\PSoC4/cyfitter_cfg.c **** 	{
 221              		.loc 1 177 0 is_stmt 0 discriminator 1
 222 0074 7B69     		ldr	r3, [r7, #20]
 223 0076 082B     		cmp	r3, #8
 224 0078 CCD9     		bls	.L8
 187:Generated_Source\PSoC4/cyfitter_cfg.c **** 		}
 188:Generated_Source\PSoC4/cyfitter_cfg.c **** 	}
 189:Generated_Source\PSoC4/cyfitter_cfg.c **** }
 225              		.loc 1 189 0 is_stmt 1
 226 007a C046     		nop
 227 007c BD46     		mov	sp, r7
 228 007e 06B0     		add	sp, sp, #24
 229              		@ sp needed
 230 0080 80BD     		pop	{r7, pc}
 231              		.cfi_endproc
 232              	.LFE4:
 233              		.size	cfg_write_bytes32, .-cfg_write_bytes32
 234 0082 C046     		.section	.psocinit,"ax",%progbits
 235              		.align	2
 236              		.code	16
 237              		.thumb_func
 238              		.type	ClockSetup, %function
 239              	ClockSetup:
 240              	.LFB5:
 190:Generated_Source\PSoC4/cyfitter_cfg.c **** 
 191:Generated_Source\PSoC4/cyfitter_cfg.c **** 
 192:Generated_Source\PSoC4/cyfitter_cfg.c **** /*******************************************************************************
 193:Generated_Source\PSoC4/cyfitter_cfg.c **** * Function Name: ClockSetup
 194:Generated_Source\PSoC4/cyfitter_cfg.c **** ********************************************************************************
 195:Generated_Source\PSoC4/cyfitter_cfg.c **** *
 196:Generated_Source\PSoC4/cyfitter_cfg.c **** * Summary:
 197:Generated_Source\PSoC4/cyfitter_cfg.c **** *   Performs the initialization of all of the clocks in the device based on the
 198:Generated_Source\PSoC4/cyfitter_cfg.c **** *   settings in the Clock tab of the DWR.  This includes enabling the requested
 199:Generated_Source\PSoC4/cyfitter_cfg.c **** *   clocks and setting the necessary dividers to produce the desired frequency. 
 200:Generated_Source\PSoC4/cyfitter_cfg.c **** *
 201:Generated_Source\PSoC4/cyfitter_cfg.c **** * Parameters:
 202:Generated_Source\PSoC4/cyfitter_cfg.c **** *   void
 203:Generated_Source\PSoC4/cyfitter_cfg.c **** *
 204:Generated_Source\PSoC4/cyfitter_cfg.c **** * Return:
 205:Generated_Source\PSoC4/cyfitter_cfg.c **** *   void
 206:Generated_Source\PSoC4/cyfitter_cfg.c **** *
 207:Generated_Source\PSoC4/cyfitter_cfg.c **** *******************************************************************************/
 208:Generated_Source\PSoC4/cyfitter_cfg.c **** static void ClockSetup(void);
 209:Generated_Source\PSoC4/cyfitter_cfg.c **** CY_CFG_SECTION
 210:Generated_Source\PSoC4/cyfitter_cfg.c **** static void ClockSetup(void)
 211:Generated_Source\PSoC4/cyfitter_cfg.c **** {
 241              		.loc 1 211 0
 242              		.cfi_startproc
ARM GAS  C:\Users\ADMINI~1\AppData\Local\Temp\cccYKLCd.s 			page 9


 243              		@ args = 0, pretend = 0, frame = 0
 244              		@ frame_needed = 1, uses_anonymous_args = 0
 245 0000 80B5     		push	{r7, lr}
 246              		.cfi_def_cfa_offset 8
 247              		.cfi_offset 7, -8
 248              		.cfi_offset 14, -4
 249 0002 00AF     		add	r7, sp, #0
 250              		.cfi_def_cfa_register 7
 212:Generated_Source\PSoC4/cyfitter_cfg.c **** 
 213:Generated_Source\PSoC4/cyfitter_cfg.c **** 	/* Set Flash Cycles based on max possible frequency in case a glitch occurs during ClockSetup(). *
 214:Generated_Source\PSoC4/cyfitter_cfg.c **** 	CY_SET_REG32((void CYXDATA *)(CYREG_CPUSS_FLASH_CTL), (0x0012u));
 251              		.loc 1 214 0
 252 0004 264B     		ldr	r3, .L10
 253 0006 1222     		movs	r2, #18
 254 0008 1A60     		str	r2, [r3]
 215:Generated_Source\PSoC4/cyfitter_cfg.c **** 	/* Setup and trim IMO based on desired frequency. */
 216:Generated_Source\PSoC4/cyfitter_cfg.c **** 	CySysClkWriteImoFreq(48u);
 255              		.loc 1 216 0
 256 000a 3020     		movs	r0, #48
 257 000c FFF7FEFF 		bl	CySysClkWriteImoFreq
 217:Generated_Source\PSoC4/cyfitter_cfg.c **** 	/* CYDEV_CLK_ILO_CONFIG Starting address: CYDEV_CLK_ILO_CONFIG */
 218:Generated_Source\PSoC4/cyfitter_cfg.c **** 	CY_SET_REG32((void *)(CYREG_CLK_ILO_CONFIG), 0x80000006u);
 258              		.loc 1 218 0
 259 0010 244B     		ldr	r3, .L10+4
 260 0012 254A     		ldr	r2, .L10+8
 261 0014 1A60     		str	r2, [r3]
 219:Generated_Source\PSoC4/cyfitter_cfg.c **** 
 220:Generated_Source\PSoC4/cyfitter_cfg.c **** 
 221:Generated_Source\PSoC4/cyfitter_cfg.c **** 	/* Setup phase aligned clocks */
 222:Generated_Source\PSoC4/cyfitter_cfg.c **** 	CY_SET_REG32((void *)CYREG_PERI_DIV_16_CTL3, 0x0000EF00u);
 262              		.loc 1 222 0
 263 0016 254B     		ldr	r3, .L10+12
 264 0018 EF22     		movs	r2, #239
 265 001a 1202     		lsls	r2, r2, #8
 266 001c 1A60     		str	r2, [r3]
 223:Generated_Source\PSoC4/cyfitter_cfg.c **** 	CY_SET_REG32((void *)CYREG_PERI_DIV_CMD, 0x8000FF43u);
 267              		.loc 1 223 0
 268 001e 244B     		ldr	r3, .L10+16
 269 0020 244A     		ldr	r2, .L10+20
 270 0022 1A60     		str	r2, [r3]
 224:Generated_Source\PSoC4/cyfitter_cfg.c **** 	CY_SET_REG32((void *)CYREG_PERI_DIV_16_CTL0, 0x00000300u);
 271              		.loc 1 224 0
 272 0024 244B     		ldr	r3, .L10+24
 273 0026 C022     		movs	r2, #192
 274 0028 9200     		lsls	r2, r2, #2
 275 002a 1A60     		str	r2, [r3]
 225:Generated_Source\PSoC4/cyfitter_cfg.c **** 	CY_SET_REG32((void *)CYREG_PERI_DIV_CMD, 0x8000FF40u);
 276              		.loc 1 225 0
 277 002c 204B     		ldr	r3, .L10+16
 278 002e 234A     		ldr	r2, .L10+28
 279 0030 1A60     		str	r2, [r3]
 226:Generated_Source\PSoC4/cyfitter_cfg.c **** 	CY_SET_REG32((void *)CYREG_PERI_DIV_16_CTL2, 0x00002F00u);
 280              		.loc 1 226 0
 281 0032 234B     		ldr	r3, .L10+32
 282 0034 BC22     		movs	r2, #188
 283 0036 9201     		lsls	r2, r2, #6
 284 0038 1A60     		str	r2, [r3]
ARM GAS  C:\Users\ADMINI~1\AppData\Local\Temp\cccYKLCd.s 			page 10


 227:Generated_Source\PSoC4/cyfitter_cfg.c **** 	CY_SET_REG32((void *)CYREG_PERI_DIV_CMD, 0x8000FF42u);
 285              		.loc 1 227 0
 286 003a 1D4B     		ldr	r3, .L10+16
 287 003c 214A     		ldr	r2, .L10+36
 288 003e 1A60     		str	r2, [r3]
 228:Generated_Source\PSoC4/cyfitter_cfg.c **** 	CY_SET_REG32((void *)CYREG_PERI_DIV_16_CTL1, 0x00001D00u);
 289              		.loc 1 228 0
 290 0040 214B     		ldr	r3, .L10+40
 291 0042 E822     		movs	r2, #232
 292 0044 5201     		lsls	r2, r2, #5
 293 0046 1A60     		str	r2, [r3]
 229:Generated_Source\PSoC4/cyfitter_cfg.c **** 	CY_SET_REG32((void *)CYREG_PERI_DIV_CMD, 0x8000FF41u);
 294              		.loc 1 229 0
 295 0048 194B     		ldr	r3, .L10+16
 296 004a 204A     		ldr	r2, .L10+44
 297 004c 1A60     		str	r2, [r3]
 230:Generated_Source\PSoC4/cyfitter_cfg.c **** 
 231:Generated_Source\PSoC4/cyfitter_cfg.c **** 	/* CYDEV_CLK_IMO_CONFIG Starting address: CYDEV_CLK_IMO_CONFIG */
 232:Generated_Source\PSoC4/cyfitter_cfg.c **** 	CY_SET_REG32((void *)(CYREG_CLK_IMO_CONFIG), 0x82000000u);
 298              		.loc 1 232 0
 299 004e 204B     		ldr	r3, .L10+48
 300 0050 8222     		movs	r2, #130
 301 0052 1206     		lsls	r2, r2, #24
 302 0054 1A60     		str	r2, [r3]
 233:Generated_Source\PSoC4/cyfitter_cfg.c **** 
 234:Generated_Source\PSoC4/cyfitter_cfg.c **** 	/* CYDEV_CLK_SELECT Starting address: CYDEV_CLK_SELECT */
 235:Generated_Source\PSoC4/cyfitter_cfg.c **** 	CY_SET_REG32((void *)(CYREG_CLK_SELECT), 0x00040000u);
 303              		.loc 1 235 0
 304 0056 1F4B     		ldr	r3, .L10+52
 305 0058 8022     		movs	r2, #128
 306 005a D202     		lsls	r2, r2, #11
 307 005c 1A60     		str	r2, [r3]
 236:Generated_Source\PSoC4/cyfitter_cfg.c **** 
 237:Generated_Source\PSoC4/cyfitter_cfg.c **** 	/* CYDEV_PERI_PCLK_CTL19 Starting address: CYDEV_PERI_PCLK_CTL19 */
 238:Generated_Source\PSoC4/cyfitter_cfg.c **** 	CY_SET_REG32((void *)(CYREG_PERI_PCLK_CTL19), 0x00000043u);
 308              		.loc 1 238 0
 309 005e 1E4B     		ldr	r3, .L10+56
 310 0060 4322     		movs	r2, #67
 311 0062 1A60     		str	r2, [r3]
 239:Generated_Source\PSoC4/cyfitter_cfg.c **** 
 240:Generated_Source\PSoC4/cyfitter_cfg.c **** 	/* CYDEV_PERI_PCLK_CTL17 Starting address: CYDEV_PERI_PCLK_CTL17 */
 241:Generated_Source\PSoC4/cyfitter_cfg.c **** 	CY_SET_REG32((void *)(CYREG_PERI_PCLK_CTL17), 0x00000040u);
 312              		.loc 1 241 0
 313 0064 1D4B     		ldr	r3, .L10+60
 314 0066 4022     		movs	r2, #64
 315 0068 1A60     		str	r2, [r3]
 242:Generated_Source\PSoC4/cyfitter_cfg.c **** 
 243:Generated_Source\PSoC4/cyfitter_cfg.c **** 	/* CYDEV_PERI_PCLK_CTL12 Starting address: CYDEV_PERI_PCLK_CTL12 */
 244:Generated_Source\PSoC4/cyfitter_cfg.c **** 	CY_SET_REG32((void *)(CYREG_PERI_PCLK_CTL12), 0x00000040u);
 316              		.loc 1 244 0
 317 006a 1D4B     		ldr	r3, .L10+64
 318 006c 4022     		movs	r2, #64
 319 006e 1A60     		str	r2, [r3]
 245:Generated_Source\PSoC4/cyfitter_cfg.c **** 
 246:Generated_Source\PSoC4/cyfitter_cfg.c **** 	/* CYDEV_PERI_PCLK_CTL11 Starting address: CYDEV_PERI_PCLK_CTL11 */
 247:Generated_Source\PSoC4/cyfitter_cfg.c **** 	CY_SET_REG32((void *)(CYREG_PERI_PCLK_CTL11), 0x00000040u);
 320              		.loc 1 247 0
ARM GAS  C:\Users\ADMINI~1\AppData\Local\Temp\cccYKLCd.s 			page 11


 321 0070 1C4B     		ldr	r3, .L10+68
 322 0072 4022     		movs	r2, #64
 323 0074 1A60     		str	r2, [r3]
 248:Generated_Source\PSoC4/cyfitter_cfg.c **** 
 249:Generated_Source\PSoC4/cyfitter_cfg.c **** 	/* CYDEV_PERI_PCLK_CTL10 Starting address: CYDEV_PERI_PCLK_CTL10 */
 250:Generated_Source\PSoC4/cyfitter_cfg.c **** 	CY_SET_REG32((void *)(CYREG_PERI_PCLK_CTL10), 0x00000042u);
 324              		.loc 1 250 0
 325 0076 1C4B     		ldr	r3, .L10+72
 326 0078 4222     		movs	r2, #66
 327 007a 1A60     		str	r2, [r3]
 251:Generated_Source\PSoC4/cyfitter_cfg.c **** 
 252:Generated_Source\PSoC4/cyfitter_cfg.c **** 	/* CYDEV_PERI_PCLK_CTL2 Starting address: CYDEV_PERI_PCLK_CTL2 */
 253:Generated_Source\PSoC4/cyfitter_cfg.c **** 	CY_SET_REG32((void *)(CYREG_PERI_PCLK_CTL2), 0x00000041u);
 328              		.loc 1 253 0
 329 007c 1B4B     		ldr	r3, .L10+76
 330 007e 4122     		movs	r2, #65
 331 0080 1A60     		str	r2, [r3]
 254:Generated_Source\PSoC4/cyfitter_cfg.c **** 
 255:Generated_Source\PSoC4/cyfitter_cfg.c **** 	(void)CyIntSetVector(7u, &CySysWdtIsr);
 332              		.loc 1 255 0
 333 0082 1B4B     		ldr	r3, .L10+80
 334 0084 1900     		movs	r1, r3
 335 0086 0720     		movs	r0, #7
 336 0088 FFF7FEFF 		bl	CyIntSetVector
 256:Generated_Source\PSoC4/cyfitter_cfg.c **** 	CyIntEnable(7u);
 337              		.loc 1 256 0
 338 008c 0720     		movs	r0, #7
 339 008e FFF7FEFF 		bl	CyIntEnable
 257:Generated_Source\PSoC4/cyfitter_cfg.c **** 	CY_SET_REG32((void *)(CYREG_WDT_CONFIG), 0x00000000u);
 340              		.loc 1 257 0
 341 0092 184B     		ldr	r3, .L10+84
 342 0094 0022     		movs	r2, #0
 343 0096 1A60     		str	r2, [r3]
 258:Generated_Source\PSoC4/cyfitter_cfg.c **** }
 344              		.loc 1 258 0
 345 0098 C046     		nop
 346 009a BD46     		mov	sp, r7
 347              		@ sp needed
 348 009c 80BD     		pop	{r7, pc}
 349              	.L11:
 350 009e C046     		.align	2
 351              	.L10:
 352 00a0 30001040 		.word	1074790448
 353 00a4 04010B40 		.word	1074462980
 354 00a8 06000080 		.word	-2147483642
 355 00ac 0C030140 		.word	1073808140
 356 00b0 00000140 		.word	1073807360
 357 00b4 43FF0080 		.word	-2147418301
 358 00b8 00030140 		.word	1073808128
 359 00bc 40FF0080 		.word	-2147418304
 360 00c0 08030140 		.word	1073808136
 361 00c4 42FF0080 		.word	-2147418302
 362 00c8 04030140 		.word	1073808132
 363 00cc 41FF0080 		.word	-2147418303
 364 00d0 08010B40 		.word	1074462984
 365 00d4 00010B40 		.word	1074462976
 366 00d8 4C010140 		.word	1073807692
ARM GAS  C:\Users\ADMINI~1\AppData\Local\Temp\cccYKLCd.s 			page 12


 367 00dc 44010140 		.word	1073807684
 368 00e0 30010140 		.word	1073807664
 369 00e4 2C010140 		.word	1073807660
 370 00e8 28010140 		.word	1073807656
 371 00ec 08010140 		.word	1073807624
 372 00f0 00000000 		.word	CySysWdtIsr
 373 00f4 0C020B40 		.word	1074463244
 374              		.cfi_endproc
 375              	.LFE5:
 376              		.size	ClockSetup, .-ClockSetup
 377              		.section	.text.AnalogSetDefault,"ax",%progbits
 378              		.align	2
 379              		.code	16
 380              		.thumb_func
 381              		.type	AnalogSetDefault, %function
 382              	AnalogSetDefault:
 383              	.LFB6:
 259:Generated_Source\PSoC4/cyfitter_cfg.c **** 
 260:Generated_Source\PSoC4/cyfitter_cfg.c **** 
 261:Generated_Source\PSoC4/cyfitter_cfg.c **** /* Analog API Functions */
 262:Generated_Source\PSoC4/cyfitter_cfg.c **** 
 263:Generated_Source\PSoC4/cyfitter_cfg.c **** 
 264:Generated_Source\PSoC4/cyfitter_cfg.c **** /*******************************************************************************
 265:Generated_Source\PSoC4/cyfitter_cfg.c **** * Function Name: AnalogSetDefault
 266:Generated_Source\PSoC4/cyfitter_cfg.c **** ********************************************************************************
 267:Generated_Source\PSoC4/cyfitter_cfg.c **** *
 268:Generated_Source\PSoC4/cyfitter_cfg.c **** * Summary:
 269:Generated_Source\PSoC4/cyfitter_cfg.c **** *  Sets up the analog portions of the chip to default values based on chip
 270:Generated_Source\PSoC4/cyfitter_cfg.c **** *  configuration options from the project.
 271:Generated_Source\PSoC4/cyfitter_cfg.c **** *
 272:Generated_Source\PSoC4/cyfitter_cfg.c **** * Parameters:
 273:Generated_Source\PSoC4/cyfitter_cfg.c **** *  void
 274:Generated_Source\PSoC4/cyfitter_cfg.c **** *
 275:Generated_Source\PSoC4/cyfitter_cfg.c **** * Return:
 276:Generated_Source\PSoC4/cyfitter_cfg.c **** *  void
 277:Generated_Source\PSoC4/cyfitter_cfg.c **** *
 278:Generated_Source\PSoC4/cyfitter_cfg.c **** *******************************************************************************/
 279:Generated_Source\PSoC4/cyfitter_cfg.c **** static void AnalogSetDefault(void);
 280:Generated_Source\PSoC4/cyfitter_cfg.c **** static void AnalogSetDefault(void)
 281:Generated_Source\PSoC4/cyfitter_cfg.c **** {
 384              		.loc 1 281 0
 385              		.cfi_startproc
 386              		@ args = 0, pretend = 0, frame = 0
 387              		@ frame_needed = 1, uses_anonymous_args = 0
 388 0000 80B5     		push	{r7, lr}
 389              		.cfi_def_cfa_offset 8
 390              		.cfi_offset 7, -8
 391              		.cfi_offset 14, -4
 392 0002 00AF     		add	r7, sp, #0
 393              		.cfi_def_cfa_register 7
 282:Generated_Source\PSoC4/cyfitter_cfg.c **** 	CY_SET_XTND_REG32((void CYFAR *)CYREG_HSIOM_AMUX_SPLIT_CTL0, 0x00000030u);
 394              		.loc 1 282 0
 395 0004 104B     		ldr	r3, .L13
 396 0006 3022     		movs	r2, #48
 397 0008 1A60     		str	r2, [r3]
 283:Generated_Source\PSoC4/cyfitter_cfg.c **** 	CY_SET_XTND_REG32((void CYFAR *)CYREG_CTBM0_DFT_CTRL, 0x00000003u);
 398              		.loc 1 283 0
ARM GAS  C:\Users\ADMINI~1\AppData\Local\Temp\cccYKLCd.s 			page 13


 399 000a 104B     		ldr	r3, .L13+4
 400 000c 0322     		movs	r2, #3
 401 000e 1A60     		str	r2, [r3]
 284:Generated_Source\PSoC4/cyfitter_cfg.c **** 	CY_SET_XTND_REG32((void CYFAR *)CYREG_CTBM1_CTB_CTRL, 0x80000000u);
 402              		.loc 1 284 0
 403 0010 0F4B     		ldr	r3, .L13+8
 404 0012 8022     		movs	r2, #128
 405 0014 1206     		lsls	r2, r2, #24
 406 0016 1A60     		str	r2, [r3]
 285:Generated_Source\PSoC4/cyfitter_cfg.c **** 	CY_SET_XTND_REG32((void CYFAR *)CYREG_CTBM1_DFT_CTRL, 0x00000003u);
 407              		.loc 1 285 0
 408 0018 0E4B     		ldr	r3, .L13+12
 409 001a 0322     		movs	r2, #3
 410 001c 1A60     		str	r2, [r3]
 286:Generated_Source\PSoC4/cyfitter_cfg.c **** 	CY_SET_XTND_REG32((void CYFAR *)CYREG_CTBM1_OA0_SW, 0x00240104u);
 411              		.loc 1 286 0
 412 001e 0E4B     		ldr	r3, .L13+16
 413 0020 0E4A     		ldr	r2, .L13+20
 414 0022 1A60     		str	r2, [r3]
 287:Generated_Source\PSoC4/cyfitter_cfg.c **** 	CY_SET_XTND_REG32((void CYFAR *)CYREG_SAR_CTRL, 0x80000000u);
 415              		.loc 1 287 0
 416 0024 0E4B     		ldr	r3, .L13+24
 417 0026 8022     		movs	r2, #128
 418 0028 1206     		lsls	r2, r2, #24
 419 002a 1A60     		str	r2, [r3]
 288:Generated_Source\PSoC4/cyfitter_cfg.c **** 	CY_SET_XTND_REG32((void CYFAR *)CYREG_SAR_MUX_SWITCH0, 0x01080000u);
 420              		.loc 1 288 0
 421 002c 0D4B     		ldr	r3, .L13+28
 422 002e 8422     		movs	r2, #132
 423 0030 5204     		lsls	r2, r2, #17
 424 0032 1A60     		str	r2, [r3]
 289:Generated_Source\PSoC4/cyfitter_cfg.c **** 	CY_SET_XTND_REG32((void CYFAR *)CYREG_PASS_DSAB_DSAB_CTRL, 0x00000000u);
 425              		.loc 1 289 0
 426 0034 0C4B     		ldr	r3, .L13+32
 427 0036 0022     		movs	r2, #0
 428 0038 1A60     		str	r2, [r3]
 290:Generated_Source\PSoC4/cyfitter_cfg.c **** 	SetAnalogRoutingPumps(1);
 429              		.loc 1 290 0
 430 003a 0120     		movs	r0, #1
 431 003c FFF7FEFF 		bl	SetAnalogRoutingPumps
 291:Generated_Source\PSoC4/cyfitter_cfg.c **** }
 432              		.loc 1 291 0
 433 0040 C046     		nop
 434 0042 BD46     		mov	sp, r7
 435              		@ sp needed
 436 0044 80BD     		pop	{r7, pc}
 437              	.L14:
 438 0046 C046     		.align	2
 439              	.L13:
 440 0048 00210240 		.word	1073881344
 441 004c 30003040 		.word	1076887600
 442 0050 00003140 		.word	1076953088
 443 0054 30003140 		.word	1076953136
 444 0058 80003140 		.word	1076953216
 445 005c 04012400 		.word	2359556
 446 0060 00003A40 		.word	1077542912
 447 0064 00033A40 		.word	1077543680
ARM GAS  C:\Users\ADMINI~1\AppData\Local\Temp\cccYKLCd.s 			page 14


 448 0068 000E3F40 		.word	1077874176
 449              		.cfi_endproc
 450              	.LFE6:
 451              		.size	AnalogSetDefault, .-AnalogSetDefault
 452              		.section	.text.SetAnalogRoutingPumps,"ax",%progbits
 453              		.align	2
 454              		.global	SetAnalogRoutingPumps
 455              		.code	16
 456              		.thumb_func
 457              		.type	SetAnalogRoutingPumps, %function
 458              	SetAnalogRoutingPumps:
 459              	.LFB7:
 292:Generated_Source\PSoC4/cyfitter_cfg.c **** 
 293:Generated_Source\PSoC4/cyfitter_cfg.c **** 
 294:Generated_Source\PSoC4/cyfitter_cfg.c **** /*******************************************************************************
 295:Generated_Source\PSoC4/cyfitter_cfg.c **** * Function Name: SetAnalogRoutingPumps
 296:Generated_Source\PSoC4/cyfitter_cfg.c **** ********************************************************************************
 297:Generated_Source\PSoC4/cyfitter_cfg.c **** *
 298:Generated_Source\PSoC4/cyfitter_cfg.c **** * Summary:
 299:Generated_Source\PSoC4/cyfitter_cfg.c **** * Enables or disables the analog pumps feeding analog routing switches.
 300:Generated_Source\PSoC4/cyfitter_cfg.c **** * Intended to be called at startup, based on the Vdda system configuration;
 301:Generated_Source\PSoC4/cyfitter_cfg.c **** * may be called during operation when the user informs us that the Vdda voltage crossed the pump th
 302:Generated_Source\PSoC4/cyfitter_cfg.c **** *
 303:Generated_Source\PSoC4/cyfitter_cfg.c **** * Parameters:
 304:Generated_Source\PSoC4/cyfitter_cfg.c **** *  enabled - 1 to enable the pumps, 0 to disable the pumps
 305:Generated_Source\PSoC4/cyfitter_cfg.c **** *
 306:Generated_Source\PSoC4/cyfitter_cfg.c **** * Return:
 307:Generated_Source\PSoC4/cyfitter_cfg.c **** *  void
 308:Generated_Source\PSoC4/cyfitter_cfg.c **** *
 309:Generated_Source\PSoC4/cyfitter_cfg.c **** *******************************************************************************/
 310:Generated_Source\PSoC4/cyfitter_cfg.c **** void SetAnalogRoutingPumps(uint8 enabled)
 311:Generated_Source\PSoC4/cyfitter_cfg.c **** {
 460              		.loc 1 311 0
 461              		.cfi_startproc
 462              		@ args = 0, pretend = 0, frame = 16
 463              		@ frame_needed = 1, uses_anonymous_args = 0
 464 0000 80B5     		push	{r7, lr}
 465              		.cfi_def_cfa_offset 8
 466              		.cfi_offset 7, -8
 467              		.cfi_offset 14, -4
 468 0002 84B0     		sub	sp, sp, #16
 469              		.cfi_def_cfa_offset 24
 470 0004 00AF     		add	r7, sp, #0
 471              		.cfi_def_cfa_register 7
 472 0006 0200     		movs	r2, r0
 473 0008 FB1D     		adds	r3, r7, #7
 474 000a 1A70     		strb	r2, [r3]
 312:Generated_Source\PSoC4/cyfitter_cfg.c **** 	uint32 regValue = CY_GET_XTND_REG32((void *)(CYREG_SAR_PUMP_CTRL));
 475              		.loc 1 312 0
 476 000c 0B4B     		ldr	r3, .L18
 477 000e 1B68     		ldr	r3, [r3]
 478 0010 FB60     		str	r3, [r7, #12]
 313:Generated_Source\PSoC4/cyfitter_cfg.c **** 	if (enabled != 0u)
 479              		.loc 1 313 0
 480 0012 FB1D     		adds	r3, r7, #7
 481 0014 1B78     		ldrb	r3, [r3]
 482 0016 002B     		cmp	r3, #0
ARM GAS  C:\Users\ADMINI~1\AppData\Local\Temp\cccYKLCd.s 			page 15


 483 0018 05D0     		beq	.L16
 314:Generated_Source\PSoC4/cyfitter_cfg.c **** 	{
 315:Generated_Source\PSoC4/cyfitter_cfg.c **** 		regValue |= 0x80000000u;
 484              		.loc 1 315 0
 485 001a FB68     		ldr	r3, [r7, #12]
 486 001c 8022     		movs	r2, #128
 487 001e 1206     		lsls	r2, r2, #24
 488 0020 1343     		orrs	r3, r2
 489 0022 FB60     		str	r3, [r7, #12]
 490 0024 03E0     		b	.L17
 491              	.L16:
 316:Generated_Source\PSoC4/cyfitter_cfg.c **** 	}
 317:Generated_Source\PSoC4/cyfitter_cfg.c **** 	else
 318:Generated_Source\PSoC4/cyfitter_cfg.c **** 	{
 319:Generated_Source\PSoC4/cyfitter_cfg.c **** 		regValue &= ~0x80000000u;
 492              		.loc 1 319 0
 493 0026 FB68     		ldr	r3, [r7, #12]
 494 0028 5B00     		lsls	r3, r3, #1
 495 002a 5B08     		lsrs	r3, r3, #1
 496 002c FB60     		str	r3, [r7, #12]
 497              	.L17:
 320:Generated_Source\PSoC4/cyfitter_cfg.c **** 	}
 321:Generated_Source\PSoC4/cyfitter_cfg.c **** 	CY_SET_XTND_REG32((void *)(CYREG_SAR_PUMP_CTRL), regValue);
 498              		.loc 1 321 0
 499 002e 034B     		ldr	r3, .L18
 500 0030 FA68     		ldr	r2, [r7, #12]
 501 0032 1A60     		str	r2, [r3]
 322:Generated_Source\PSoC4/cyfitter_cfg.c **** }
 502              		.loc 1 322 0
 503 0034 C046     		nop
 504 0036 BD46     		mov	sp, r7
 505 0038 04B0     		add	sp, sp, #16
 506              		@ sp needed
 507 003a 80BD     		pop	{r7, pc}
 508              	.L19:
 509              		.align	2
 510              	.L18:
 511 003c 80033A40 		.word	1077543808
 512              		.cfi_endproc
 513              	.LFE7:
 514              		.size	SetAnalogRoutingPumps, .-SetAnalogRoutingPumps
 515              		.section	.psocinit
 516              		.align	2
 517              		.global	cyfitter_cfg
 518              		.code	16
 519              		.thumb_func
 520              		.type	cyfitter_cfg, %function
 521              	cyfitter_cfg:
 522              	.LFB8:
 323:Generated_Source\PSoC4/cyfitter_cfg.c **** 
 324:Generated_Source\PSoC4/cyfitter_cfg.c **** 
 325:Generated_Source\PSoC4/cyfitter_cfg.c **** 
 326:Generated_Source\PSoC4/cyfitter_cfg.c **** 
 327:Generated_Source\PSoC4/cyfitter_cfg.c **** /*******************************************************************************
 328:Generated_Source\PSoC4/cyfitter_cfg.c **** * Function Name: cyfitter_cfg
 329:Generated_Source\PSoC4/cyfitter_cfg.c **** ********************************************************************************
 330:Generated_Source\PSoC4/cyfitter_cfg.c **** * Summary:
ARM GAS  C:\Users\ADMINI~1\AppData\Local\Temp\cccYKLCd.s 			page 16


 331:Generated_Source\PSoC4/cyfitter_cfg.c **** *  This function is called by the start-up code for the selected device. It
 332:Generated_Source\PSoC4/cyfitter_cfg.c **** *  performs all of the necessary device configuration based on the design
 333:Generated_Source\PSoC4/cyfitter_cfg.c **** *  settings.  This includes settings from the Design Wide Resources (DWR) such
 334:Generated_Source\PSoC4/cyfitter_cfg.c **** *  as Clocks and Pins as well as any component configuration that is necessary.
 335:Generated_Source\PSoC4/cyfitter_cfg.c **** *
 336:Generated_Source\PSoC4/cyfitter_cfg.c **** * Parameters:
 337:Generated_Source\PSoC4/cyfitter_cfg.c **** *   void
 338:Generated_Source\PSoC4/cyfitter_cfg.c **** *
 339:Generated_Source\PSoC4/cyfitter_cfg.c **** * Return:
 340:Generated_Source\PSoC4/cyfitter_cfg.c **** *   void
 341:Generated_Source\PSoC4/cyfitter_cfg.c **** *
 342:Generated_Source\PSoC4/cyfitter_cfg.c **** *******************************************************************************/
 343:Generated_Source\PSoC4/cyfitter_cfg.c **** CY_CFG_SECTION
 344:Generated_Source\PSoC4/cyfitter_cfg.c **** void cyfitter_cfg(void)
 345:Generated_Source\PSoC4/cyfitter_cfg.c **** {
 523              		.loc 1 345 0
 524              		.cfi_startproc
 525              		@ args = 0, pretend = 0, frame = 8
 526              		@ frame_needed = 1, uses_anonymous_args = 0
 527 00f8 80B5     		push	{r7, lr}
 528              		.cfi_def_cfa_offset 8
 529              		.cfi_offset 7, -8
 530              		.cfi_offset 14, -4
 531 00fa 82B0     		sub	sp, sp, #8
 532              		.cfi_def_cfa_offset 16
 533 00fc 00AF     		add	r7, sp, #0
 534              		.cfi_def_cfa_register 7
 346:Generated_Source\PSoC4/cyfitter_cfg.c **** 	/* Disable interrupts by default. Let user enable if/when they want. */
 347:Generated_Source\PSoC4/cyfitter_cfg.c **** 	CyGlobalIntDisable;
 535              		.loc 1 347 0
 536              		.syntax divided
 537              	@ 347 "Generated_Source\PSoC4\cyfitter_cfg.c" 1
 538 00fe 72B6     		CPSID   i
 539              	@ 0 "" 2
 348:Generated_Source\PSoC4/cyfitter_cfg.c **** 
 349:Generated_Source\PSoC4/cyfitter_cfg.c **** 	/* Enable the clock in the interrupt controller for the routed interrupts */
 350:Generated_Source\PSoC4/cyfitter_cfg.c **** 	CY_SET_REG8((void *)CYREG_UDB_UDBIF_INT_CLK_CTL, 0x01u);
 540              		.loc 1 350 0
 541              		.thumb
 542              		.syntax unified
 543 0100 654B     		ldr	r3, .L23
 544 0102 0122     		movs	r2, #1
 545 0104 1A70     		strb	r2, [r3]
 546              	.LBB3:
 351:Generated_Source\PSoC4/cyfitter_cfg.c **** 	{
 352:Generated_Source\PSoC4/cyfitter_cfg.c **** 		static const uint32 CYCODE cy_cfg_addr_table[] = {
 353:Generated_Source\PSoC4/cyfitter_cfg.c **** 			0x400F300Cu, /* Base address: 0x400F3000 Count: 12 */
 354:Generated_Source\PSoC4/cyfitter_cfg.c **** 			0x400F3109u, /* Base address: 0x400F3100 Count: 9 */
 355:Generated_Source\PSoC4/cyfitter_cfg.c **** 			0x400F3262u, /* Base address: 0x400F3200 Count: 98 */
 356:Generated_Source\PSoC4/cyfitter_cfg.c **** 			0x400F3334u, /* Base address: 0x400F3300 Count: 52 */
 357:Generated_Source\PSoC4/cyfitter_cfg.c **** 			0x400F4006u, /* Base address: 0x400F4000 Count: 6 */
 358:Generated_Source\PSoC4/cyfitter_cfg.c **** 			0x400F410Bu, /* Base address: 0x400F4100 Count: 11 */
 359:Generated_Source\PSoC4/cyfitter_cfg.c **** 			0x400F4202u, /* Base address: 0x400F4200 Count: 2 */
 360:Generated_Source\PSoC4/cyfitter_cfg.c **** 			0x400F4306u, /* Base address: 0x400F4300 Count: 6 */
 361:Generated_Source\PSoC4/cyfitter_cfg.c **** 			0x400F6002u, /* Base address: 0x400F6000 Count: 2 */
 362:Generated_Source\PSoC4/cyfitter_cfg.c **** 		};
 363:Generated_Source\PSoC4/cyfitter_cfg.c **** 
ARM GAS  C:\Users\ADMINI~1\AppData\Local\Temp\cccYKLCd.s 			page 17


 364:Generated_Source\PSoC4/cyfitter_cfg.c **** 		static const cy_cfg_addrvalue_t CYCODE cy_cfg_data_table[] = {
 365:Generated_Source\PSoC4/cyfitter_cfg.c **** 			{0x82u, 0x08u},
 366:Generated_Source\PSoC4/cyfitter_cfg.c **** 			{0x8Eu, 0x10u},
 367:Generated_Source\PSoC4/cyfitter_cfg.c **** 			{0x94u, 0x01u},
 368:Generated_Source\PSoC4/cyfitter_cfg.c **** 			{0x96u, 0x06u},
 369:Generated_Source\PSoC4/cyfitter_cfg.c **** 			{0x9Cu, 0x02u},
 370:Generated_Source\PSoC4/cyfitter_cfg.c **** 			{0x9Eu, 0x01u},
 371:Generated_Source\PSoC4/cyfitter_cfg.c **** 			{0xB0u, 0x03u},
 372:Generated_Source\PSoC4/cyfitter_cfg.c **** 			{0xB2u, 0x08u},
 373:Generated_Source\PSoC4/cyfitter_cfg.c **** 			{0xB4u, 0x10u},
 374:Generated_Source\PSoC4/cyfitter_cfg.c **** 			{0xB6u, 0x04u},
 375:Generated_Source\PSoC4/cyfitter_cfg.c **** 			{0xD8u, 0x04u},
 376:Generated_Source\PSoC4/cyfitter_cfg.c **** 			{0xDFu, 0x01u},
 377:Generated_Source\PSoC4/cyfitter_cfg.c **** 			{0x04u, 0x02u},
 378:Generated_Source\PSoC4/cyfitter_cfg.c **** 			{0x06u, 0x01u},
 379:Generated_Source\PSoC4/cyfitter_cfg.c **** 			{0x0Eu, 0x12u},
 380:Generated_Source\PSoC4/cyfitter_cfg.c **** 			{0x1Eu, 0x1Au},
 381:Generated_Source\PSoC4/cyfitter_cfg.c **** 			{0x1Fu, 0x02u},
 382:Generated_Source\PSoC4/cyfitter_cfg.c **** 			{0x2Bu, 0x03u},
 383:Generated_Source\PSoC4/cyfitter_cfg.c **** 			{0x87u, 0x02u},
 384:Generated_Source\PSoC4/cyfitter_cfg.c **** 			{0xC0u, 0x90u},
 385:Generated_Source\PSoC4/cyfitter_cfg.c **** 			{0xC2u, 0xA0u},
 386:Generated_Source\PSoC4/cyfitter_cfg.c **** 			{0x00u, 0x2Au},
 387:Generated_Source\PSoC4/cyfitter_cfg.c **** 			{0x02u, 0x55u},
 388:Generated_Source\PSoC4/cyfitter_cfg.c **** 			{0x04u, 0x40u},
 389:Generated_Source\PSoC4/cyfitter_cfg.c **** 			{0x05u, 0x01u},
 390:Generated_Source\PSoC4/cyfitter_cfg.c **** 			{0x07u, 0x02u},
 391:Generated_Source\PSoC4/cyfitter_cfg.c **** 			{0x08u, 0x36u},
 392:Generated_Source\PSoC4/cyfitter_cfg.c **** 			{0x09u, 0x08u},
 393:Generated_Source\PSoC4/cyfitter_cfg.c **** 			{0x0Au, 0x80u},
 394:Generated_Source\PSoC4/cyfitter_cfg.c **** 			{0x0Bu, 0x10u},
 395:Generated_Source\PSoC4/cyfitter_cfg.c **** 			{0x0Cu, 0x40u},
 396:Generated_Source\PSoC4/cyfitter_cfg.c **** 			{0x0Du, 0x02u},
 397:Generated_Source\PSoC4/cyfitter_cfg.c **** 			{0x0Fu, 0x25u},
 398:Generated_Source\PSoC4/cyfitter_cfg.c **** 			{0x10u, 0x0Au},
 399:Generated_Source\PSoC4/cyfitter_cfg.c **** 			{0x11u, 0x1Bu},
 400:Generated_Source\PSoC4/cyfitter_cfg.c **** 			{0x12u, 0x11u},
 401:Generated_Source\PSoC4/cyfitter_cfg.c **** 			{0x13u, 0x64u},
 402:Generated_Source\PSoC4/cyfitter_cfg.c **** 			{0x15u, 0x7Fu},
 403:Generated_Source\PSoC4/cyfitter_cfg.c **** 			{0x18u, 0x11u},
 404:Generated_Source\PSoC4/cyfitter_cfg.c **** 			{0x19u, 0x14u},
 405:Generated_Source\PSoC4/cyfitter_cfg.c **** 			{0x1Au, 0x0Au},
 406:Generated_Source\PSoC4/cyfitter_cfg.c **** 			{0x1Bu, 0x48u},
 407:Generated_Source\PSoC4/cyfitter_cfg.c **** 			{0x1Eu, 0x20u},
 408:Generated_Source\PSoC4/cyfitter_cfg.c **** 			{0x22u, 0x20u},
 409:Generated_Source\PSoC4/cyfitter_cfg.c **** 			{0x25u, 0x1Bu},
 410:Generated_Source\PSoC4/cyfitter_cfg.c **** 			{0x27u, 0x64u},
 411:Generated_Source\PSoC4/cyfitter_cfg.c **** 			{0x28u, 0x35u},
 412:Generated_Source\PSoC4/cyfitter_cfg.c **** 			{0x2Au, 0xCAu},
 413:Generated_Source\PSoC4/cyfitter_cfg.c **** 			{0x2Fu, 0x1Bu},
 414:Generated_Source\PSoC4/cyfitter_cfg.c **** 			{0x30u, 0x06u},
 415:Generated_Source\PSoC4/cyfitter_cfg.c **** 			{0x32u, 0x01u},
 416:Generated_Source\PSoC4/cyfitter_cfg.c **** 			{0x33u, 0x78u},
 417:Generated_Source\PSoC4/cyfitter_cfg.c **** 			{0x34u, 0xF8u},
 418:Generated_Source\PSoC4/cyfitter_cfg.c **** 			{0x36u, 0x01u},
 419:Generated_Source\PSoC4/cyfitter_cfg.c **** 			{0x37u, 0x07u},
 420:Generated_Source\PSoC4/cyfitter_cfg.c **** 			{0x3Au, 0x20u},
ARM GAS  C:\Users\ADMINI~1\AppData\Local\Temp\cccYKLCd.s 			page 18


 421:Generated_Source\PSoC4/cyfitter_cfg.c **** 			{0x3Bu, 0x88u},
 422:Generated_Source\PSoC4/cyfitter_cfg.c **** 			{0x3Eu, 0x44u},
 423:Generated_Source\PSoC4/cyfitter_cfg.c **** 			{0x40u, 0x42u},
 424:Generated_Source\PSoC4/cyfitter_cfg.c **** 			{0x42u, 0x11u},
 425:Generated_Source\PSoC4/cyfitter_cfg.c **** 			{0x49u, 0xFFu},
 426:Generated_Source\PSoC4/cyfitter_cfg.c **** 			{0x4Au, 0xFFu},
 427:Generated_Source\PSoC4/cyfitter_cfg.c **** 			{0x4Bu, 0xFFu},
 428:Generated_Source\PSoC4/cyfitter_cfg.c **** 			{0x4Fu, 0x09u},
 429:Generated_Source\PSoC4/cyfitter_cfg.c **** 			{0x52u, 0x87u},
 430:Generated_Source\PSoC4/cyfitter_cfg.c **** 			{0x58u, 0x04u},
 431:Generated_Source\PSoC4/cyfitter_cfg.c **** 			{0x59u, 0x04u},
 432:Generated_Source\PSoC4/cyfitter_cfg.c **** 			{0x5Au, 0x04u},
 433:Generated_Source\PSoC4/cyfitter_cfg.c **** 			{0x5Bu, 0x04u},
 434:Generated_Source\PSoC4/cyfitter_cfg.c **** 			{0x5Fu, 0x01u},
 435:Generated_Source\PSoC4/cyfitter_cfg.c **** 			{0x60u, 0x50u},
 436:Generated_Source\PSoC4/cyfitter_cfg.c **** 			{0x61u, 0xA8u},
 437:Generated_Source\PSoC4/cyfitter_cfg.c **** 			{0x62u, 0x10u},
 438:Generated_Source\PSoC4/cyfitter_cfg.c **** 			{0x63u, 0x30u},
 439:Generated_Source\PSoC4/cyfitter_cfg.c **** 			{0x64u, 0x40u},
 440:Generated_Source\PSoC4/cyfitter_cfg.c **** 			{0x65u, 0x20u},
 441:Generated_Source\PSoC4/cyfitter_cfg.c **** 			{0x66u, 0x50u},
 442:Generated_Source\PSoC4/cyfitter_cfg.c **** 			{0x67u, 0xA8u},
 443:Generated_Source\PSoC4/cyfitter_cfg.c **** 			{0x80u, 0x0Au},
 444:Generated_Source\PSoC4/cyfitter_cfg.c **** 			{0x82u, 0x04u},
 445:Generated_Source\PSoC4/cyfitter_cfg.c **** 			{0x84u, 0x08u},
 446:Generated_Source\PSoC4/cyfitter_cfg.c **** 			{0x90u, 0x04u},
 447:Generated_Source\PSoC4/cyfitter_cfg.c **** 			{0x92u, 0x08u},
 448:Generated_Source\PSoC4/cyfitter_cfg.c **** 			{0x98u, 0x04u},
 449:Generated_Source\PSoC4/cyfitter_cfg.c **** 			{0x9Au, 0x08u},
 450:Generated_Source\PSoC4/cyfitter_cfg.c **** 			{0x9Cu, 0x08u},
 451:Generated_Source\PSoC4/cyfitter_cfg.c **** 			{0xA2u, 0x04u},
 452:Generated_Source\PSoC4/cyfitter_cfg.c **** 			{0xA4u, 0x03u},
 453:Generated_Source\PSoC4/cyfitter_cfg.c **** 			{0xA8u, 0x0Fu},
 454:Generated_Source\PSoC4/cyfitter_cfg.c **** 			{0xB0u, 0x0Cu},
 455:Generated_Source\PSoC4/cyfitter_cfg.c **** 			{0xB4u, 0x01u},
 456:Generated_Source\PSoC4/cyfitter_cfg.c **** 			{0xB6u, 0x02u},
 457:Generated_Source\PSoC4/cyfitter_cfg.c **** 			{0xB8u, 0xA0u},
 458:Generated_Source\PSoC4/cyfitter_cfg.c **** 			{0xBAu, 0x02u},
 459:Generated_Source\PSoC4/cyfitter_cfg.c **** 			{0xBEu, 0x50u},
 460:Generated_Source\PSoC4/cyfitter_cfg.c **** 			{0xC0u, 0x42u},
 461:Generated_Source\PSoC4/cyfitter_cfg.c **** 			{0xC2u, 0x33u},
 462:Generated_Source\PSoC4/cyfitter_cfg.c **** 			{0xC5u, 0x07u},
 463:Generated_Source\PSoC4/cyfitter_cfg.c **** 			{0xC7u, 0x03u},
 464:Generated_Source\PSoC4/cyfitter_cfg.c **** 			{0xC8u, 0x11u},
 465:Generated_Source\PSoC4/cyfitter_cfg.c **** 			{0xC9u, 0xFFu},
 466:Generated_Source\PSoC4/cyfitter_cfg.c **** 			{0xCAu, 0xFFu},
 467:Generated_Source\PSoC4/cyfitter_cfg.c **** 			{0xCBu, 0xFFu},
 468:Generated_Source\PSoC4/cyfitter_cfg.c **** 			{0xCDu, 0x0Fu},
 469:Generated_Source\PSoC4/cyfitter_cfg.c **** 			{0xCEu, 0x73u},
 470:Generated_Source\PSoC4/cyfitter_cfg.c **** 			{0xCFu, 0x09u},
 471:Generated_Source\PSoC4/cyfitter_cfg.c **** 			{0xD4u, 0x03u},
 472:Generated_Source\PSoC4/cyfitter_cfg.c **** 			{0xD8u, 0x04u},
 473:Generated_Source\PSoC4/cyfitter_cfg.c **** 			{0xDAu, 0x04u},
 474:Generated_Source\PSoC4/cyfitter_cfg.c **** 			{0xDBu, 0x04u},
 475:Generated_Source\PSoC4/cyfitter_cfg.c **** 			{0xDFu, 0x01u},
 476:Generated_Source\PSoC4/cyfitter_cfg.c **** 			{0xE0u, 0x50u},
 477:Generated_Source\PSoC4/cyfitter_cfg.c **** 			{0xE1u, 0xA8u},
ARM GAS  C:\Users\ADMINI~1\AppData\Local\Temp\cccYKLCd.s 			page 19


 478:Generated_Source\PSoC4/cyfitter_cfg.c **** 			{0xE2u, 0x10u},
 479:Generated_Source\PSoC4/cyfitter_cfg.c **** 			{0xE3u, 0x30u},
 480:Generated_Source\PSoC4/cyfitter_cfg.c **** 			{0xE4u, 0x40u},
 481:Generated_Source\PSoC4/cyfitter_cfg.c **** 			{0xE5u, 0x20u},
 482:Generated_Source\PSoC4/cyfitter_cfg.c **** 			{0xE6u, 0x50u},
 483:Generated_Source\PSoC4/cyfitter_cfg.c **** 			{0xE7u, 0xA8u},
 484:Generated_Source\PSoC4/cyfitter_cfg.c **** 			{0x01u, 0x02u},
 485:Generated_Source\PSoC4/cyfitter_cfg.c **** 			{0x03u, 0x10u},
 486:Generated_Source\PSoC4/cyfitter_cfg.c **** 			{0x05u, 0x01u},
 487:Generated_Source\PSoC4/cyfitter_cfg.c **** 			{0x06u, 0x04u},
 488:Generated_Source\PSoC4/cyfitter_cfg.c **** 			{0x07u, 0x22u},
 489:Generated_Source\PSoC4/cyfitter_cfg.c **** 			{0x09u, 0x62u},
 490:Generated_Source\PSoC4/cyfitter_cfg.c **** 			{0x0Eu, 0x08u},
 491:Generated_Source\PSoC4/cyfitter_cfg.c **** 			{0x0Fu, 0x82u},
 492:Generated_Source\PSoC4/cyfitter_cfg.c **** 			{0x10u, 0x28u},
 493:Generated_Source\PSoC4/cyfitter_cfg.c **** 			{0x12u, 0x40u},
 494:Generated_Source\PSoC4/cyfitter_cfg.c **** 			{0x15u, 0x20u},
 495:Generated_Source\PSoC4/cyfitter_cfg.c **** 			{0x16u, 0x40u},
 496:Generated_Source\PSoC4/cyfitter_cfg.c **** 			{0x19u, 0x92u},
 497:Generated_Source\PSoC4/cyfitter_cfg.c **** 			{0x1Cu, 0x10u},
 498:Generated_Source\PSoC4/cyfitter_cfg.c **** 			{0x1Du, 0xA3u},
 499:Generated_Source\PSoC4/cyfitter_cfg.c **** 			{0x1Fu, 0x10u},
 500:Generated_Source\PSoC4/cyfitter_cfg.c **** 			{0x25u, 0x40u},
 501:Generated_Source\PSoC4/cyfitter_cfg.c **** 			{0x27u, 0x32u},
 502:Generated_Source\PSoC4/cyfitter_cfg.c **** 			{0x2Eu, 0x80u},
 503:Generated_Source\PSoC4/cyfitter_cfg.c **** 			{0x2Fu, 0x10u},
 504:Generated_Source\PSoC4/cyfitter_cfg.c **** 			{0x35u, 0x01u},
 505:Generated_Source\PSoC4/cyfitter_cfg.c **** 			{0x36u, 0x08u},
 506:Generated_Source\PSoC4/cyfitter_cfg.c **** 			{0x37u, 0x20u},
 507:Generated_Source\PSoC4/cyfitter_cfg.c **** 			{0x3Du, 0x80u},
 508:Generated_Source\PSoC4/cyfitter_cfg.c **** 			{0x3Eu, 0x14u},
 509:Generated_Source\PSoC4/cyfitter_cfg.c **** 			{0x40u, 0x10u},
 510:Generated_Source\PSoC4/cyfitter_cfg.c **** 			{0x41u, 0x32u},
 511:Generated_Source\PSoC4/cyfitter_cfg.c **** 			{0x45u, 0xA2u},
 512:Generated_Source\PSoC4/cyfitter_cfg.c **** 			{0x48u, 0x20u},
 513:Generated_Source\PSoC4/cyfitter_cfg.c **** 			{0x50u, 0x08u},
 514:Generated_Source\PSoC4/cyfitter_cfg.c **** 			{0x52u, 0x0Cu},
 515:Generated_Source\PSoC4/cyfitter_cfg.c **** 			{0x59u, 0x90u},
 516:Generated_Source\PSoC4/cyfitter_cfg.c **** 			{0x6Cu, 0x01u},
 517:Generated_Source\PSoC4/cyfitter_cfg.c **** 			{0x6Eu, 0x14u},
 518:Generated_Source\PSoC4/cyfitter_cfg.c **** 			{0x76u, 0xC0u},
 519:Generated_Source\PSoC4/cyfitter_cfg.c **** 			{0x82u, 0x01u},
 520:Generated_Source\PSoC4/cyfitter_cfg.c **** 			{0x83u, 0x40u},
 521:Generated_Source\PSoC4/cyfitter_cfg.c **** 			{0x94u, 0x02u},
 522:Generated_Source\PSoC4/cyfitter_cfg.c **** 			{0x9Du, 0x80u},
 523:Generated_Source\PSoC4/cyfitter_cfg.c **** 			{0x9Eu, 0x01u},
 524:Generated_Source\PSoC4/cyfitter_cfg.c **** 			{0xA2u, 0x04u},
 525:Generated_Source\PSoC4/cyfitter_cfg.c **** 			{0xA3u, 0x01u},
 526:Generated_Source\PSoC4/cyfitter_cfg.c **** 			{0xA9u, 0x80u},
 527:Generated_Source\PSoC4/cyfitter_cfg.c **** 			{0xC0u, 0xFCu},
 528:Generated_Source\PSoC4/cyfitter_cfg.c **** 			{0xC2u, 0xDBu},
 529:Generated_Source\PSoC4/cyfitter_cfg.c **** 			{0xC4u, 0x5Eu},
 530:Generated_Source\PSoC4/cyfitter_cfg.c **** 			{0xCAu, 0x50u},
 531:Generated_Source\PSoC4/cyfitter_cfg.c **** 			{0xCCu, 0xE0u},
 532:Generated_Source\PSoC4/cyfitter_cfg.c **** 			{0xCEu, 0x70u},
 533:Generated_Source\PSoC4/cyfitter_cfg.c **** 			{0xD0u, 0xB7u},
 534:Generated_Source\PSoC4/cyfitter_cfg.c **** 			{0xD6u, 0x0Cu},
ARM GAS  C:\Users\ADMINI~1\AppData\Local\Temp\cccYKLCd.s 			page 20


 535:Generated_Source\PSoC4/cyfitter_cfg.c **** 			{0xE2u, 0x80u},
 536:Generated_Source\PSoC4/cyfitter_cfg.c **** 			{0x61u, 0x40u},
 537:Generated_Source\PSoC4/cyfitter_cfg.c **** 			{0x6Au, 0x40u},
 538:Generated_Source\PSoC4/cyfitter_cfg.c **** 			{0x87u, 0x40u},
 539:Generated_Source\PSoC4/cyfitter_cfg.c **** 			{0xD6u, 0x40u},
 540:Generated_Source\PSoC4/cyfitter_cfg.c **** 			{0xDAu, 0x40u},
 541:Generated_Source\PSoC4/cyfitter_cfg.c **** 			{0xE2u, 0x10u},
 542:Generated_Source\PSoC4/cyfitter_cfg.c **** 			{0x0Au, 0x40u},
 543:Generated_Source\PSoC4/cyfitter_cfg.c **** 			{0x67u, 0x80u},
 544:Generated_Source\PSoC4/cyfitter_cfg.c **** 			{0x82u, 0x40u},
 545:Generated_Source\PSoC4/cyfitter_cfg.c **** 			{0x89u, 0x40u},
 546:Generated_Source\PSoC4/cyfitter_cfg.c **** 			{0x93u, 0x80u},
 547:Generated_Source\PSoC4/cyfitter_cfg.c **** 			{0x9Du, 0x40u},
 548:Generated_Source\PSoC4/cyfitter_cfg.c **** 			{0xAAu, 0x40u},
 549:Generated_Source\PSoC4/cyfitter_cfg.c **** 			{0xC2u, 0x10u},
 550:Generated_Source\PSoC4/cyfitter_cfg.c **** 			{0xD8u, 0x80u},
 551:Generated_Source\PSoC4/cyfitter_cfg.c **** 			{0xE0u, 0x20u},
 552:Generated_Source\PSoC4/cyfitter_cfg.c **** 			{0xEAu, 0x20u},
 553:Generated_Source\PSoC4/cyfitter_cfg.c **** 			{0x60u, 0x01u},
 554:Generated_Source\PSoC4/cyfitter_cfg.c **** 			{0xD6u, 0x02u},
 555:Generated_Source\PSoC4/cyfitter_cfg.c **** 			{0x20u, 0x01u},
 556:Generated_Source\PSoC4/cyfitter_cfg.c **** 			{0x26u, 0x10u},
 557:Generated_Source\PSoC4/cyfitter_cfg.c **** 			{0x8Au, 0x10u},
 558:Generated_Source\PSoC4/cyfitter_cfg.c **** 			{0x94u, 0x01u},
 559:Generated_Source\PSoC4/cyfitter_cfg.c **** 			{0xC8u, 0x0Cu},
 560:Generated_Source\PSoC4/cyfitter_cfg.c **** 			{0xE2u, 0x01u},
 561:Generated_Source\PSoC4/cyfitter_cfg.c **** 			{0x10u, 0x01u},
 562:Generated_Source\PSoC4/cyfitter_cfg.c **** 			{0x11u, 0x01u},
 563:Generated_Source\PSoC4/cyfitter_cfg.c **** 		};
 564:Generated_Source\PSoC4/cyfitter_cfg.c **** 
 565:Generated_Source\PSoC4/cyfitter_cfg.c **** 
 566:Generated_Source\PSoC4/cyfitter_cfg.c **** 
 567:Generated_Source\PSoC4/cyfitter_cfg.c **** 		CYPACKED typedef struct {
 568:Generated_Source\PSoC4/cyfitter_cfg.c **** 			void CYFAR *address;
 569:Generated_Source\PSoC4/cyfitter_cfg.c **** 			uint16 size;
 570:Generated_Source\PSoC4/cyfitter_cfg.c **** 		} CYPACKED_ATTR cfg_memset_t;
 571:Generated_Source\PSoC4/cyfitter_cfg.c **** 
 572:Generated_Source\PSoC4/cyfitter_cfg.c **** 		static const cfg_memset_t CYCODE cfg_memset_list[] = {
 573:Generated_Source\PSoC4/cyfitter_cfg.c **** 			/* address, size */
 574:Generated_Source\PSoC4/cyfitter_cfg.c **** 			{(void CYFAR *)(CYDEV_UDB_P0_U0_BASE), 1024u},
 575:Generated_Source\PSoC4/cyfitter_cfg.c **** 			{(void CYFAR *)(CYDEV_UDB_DSI0_BASE), 1024u},
 576:Generated_Source\PSoC4/cyfitter_cfg.c **** 		};
 577:Generated_Source\PSoC4/cyfitter_cfg.c **** 
 578:Generated_Source\PSoC4/cyfitter_cfg.c **** 		uint8 CYDATA i;
 579:Generated_Source\PSoC4/cyfitter_cfg.c **** 
 580:Generated_Source\PSoC4/cyfitter_cfg.c **** 		/* Zero out critical memory blocks before beginning configuration */
 581:Generated_Source\PSoC4/cyfitter_cfg.c **** 		for (i = 0u; i < (sizeof(cfg_memset_list)/sizeof(cfg_memset_list[0])); i++)
 547              		.loc 1 581 0
 548 0106 FB1D     		adds	r3, r7, #7
 549 0108 0022     		movs	r2, #0
 550 010a 1A70     		strb	r2, [r3]
 551 010c 22E0     		b	.L21
 552              	.L22:
 553              	.LBB4:
 582:Generated_Source\PSoC4/cyfitter_cfg.c **** 		{
 583:Generated_Source\PSoC4/cyfitter_cfg.c **** 			const cfg_memset_t CYCODE * CYDATA ms = &cfg_memset_list[i];
 554              		.loc 1 583 0 discriminator 3
ARM GAS  C:\Users\ADMINI~1\AppData\Local\Temp\cccYKLCd.s 			page 21


 555 010e FB1D     		adds	r3, r7, #7
 556 0110 1A78     		ldrb	r2, [r3]
 557 0112 1300     		movs	r3, r2
 558 0114 5B00     		lsls	r3, r3, #1
 559 0116 9B18     		adds	r3, r3, r2
 560 0118 5B00     		lsls	r3, r3, #1
 561 011a 604A     		ldr	r2, .L23+4
 562 011c 9B18     		adds	r3, r3, r2
 563 011e 3B60     		str	r3, [r7]
 584:Generated_Source\PSoC4/cyfitter_cfg.c **** 			CYMEMZERO(ms->address, (size_t)(uint32)(ms->size));
 564              		.loc 1 584 0 discriminator 3
 565 0120 3B68     		ldr	r3, [r7]
 566 0122 1A78     		ldrb	r2, [r3]
 567 0124 5978     		ldrb	r1, [r3, #1]
 568 0126 0902     		lsls	r1, r1, #8
 569 0128 0A43     		orrs	r2, r1
 570 012a 9978     		ldrb	r1, [r3, #2]
 571 012c 0904     		lsls	r1, r1, #16
 572 012e 0A43     		orrs	r2, r1
 573 0130 DB78     		ldrb	r3, [r3, #3]
 574 0132 1B06     		lsls	r3, r3, #24
 575 0134 1343     		orrs	r3, r2
 576 0136 1800     		movs	r0, r3
 577 0138 3B68     		ldr	r3, [r7]
 578 013a 1A79     		ldrb	r2, [r3, #4]
 579 013c 5B79     		ldrb	r3, [r3, #5]
 580 013e 1B02     		lsls	r3, r3, #8
 581 0140 1343     		orrs	r3, r2
 582 0142 9BB2     		uxth	r3, r3
 583 0144 1900     		movs	r1, r3
 584 0146 FFF7FEFF 		bl	CYMEMZERO
 585              	.LBE4:
 581:Generated_Source\PSoC4/cyfitter_cfg.c **** 		{
 586              		.loc 1 581 0 discriminator 3
 587 014a FB1D     		adds	r3, r7, #7
 588 014c 1A78     		ldrb	r2, [r3]
 589 014e FB1D     		adds	r3, r7, #7
 590 0150 0132     		adds	r2, r2, #1
 591 0152 1A70     		strb	r2, [r3]
 592              	.L21:
 581:Generated_Source\PSoC4/cyfitter_cfg.c **** 		{
 593              		.loc 1 581 0 is_stmt 0 discriminator 1
 594 0154 FB1D     		adds	r3, r7, #7
 595 0156 1B78     		ldrb	r3, [r3]
 596 0158 012B     		cmp	r3, #1
 597 015a D8D9     		bls	.L22
 585:Generated_Source\PSoC4/cyfitter_cfg.c **** 		}
 586:Generated_Source\PSoC4/cyfitter_cfg.c **** 
 587:Generated_Source\PSoC4/cyfitter_cfg.c **** 		cfg_write_bytes32(cy_cfg_addr_table, cy_cfg_data_table);
 598              		.loc 1 587 0 is_stmt 1
 599 015c 504A     		ldr	r2, .L23+8
 600 015e 514B     		ldr	r3, .L23+12
 601 0160 1100     		movs	r1, r2
 602 0162 1800     		movs	r0, r3
 603 0164 FFF7FEFF 		bl	cfg_write_bytes32
 588:Generated_Source\PSoC4/cyfitter_cfg.c **** 
 589:Generated_Source\PSoC4/cyfitter_cfg.c **** 		/* Perform normal device configuration. Order is not critical for these items. */
ARM GAS  C:\Users\ADMINI~1\AppData\Local\Temp\cccYKLCd.s 			page 22


 590:Generated_Source\PSoC4/cyfitter_cfg.c **** 		CY_SET_REG16((void *)(CYREG_UDB_BCTL0_DRV), 0x0100u);
 604              		.loc 1 590 0
 605 0168 4F4B     		ldr	r3, .L23+16
 606 016a 8022     		movs	r2, #128
 607 016c 5200     		lsls	r2, r2, #1
 608 016e 1A80     		strh	r2, [r3]
 591:Generated_Source\PSoC4/cyfitter_cfg.c **** 		CY_SET_REG8((void *)(CYREG_UDB_BCTL0_DRV + 0x2u), 0x01u);
 609              		.loc 1 591 0
 610 0170 4E4B     		ldr	r3, .L23+20
 611 0172 0122     		movs	r2, #1
 612 0174 1A70     		strb	r2, [r3]
 592:Generated_Source\PSoC4/cyfitter_cfg.c **** 
 593:Generated_Source\PSoC4/cyfitter_cfg.c **** 		/* HSIOM Starting address: CYDEV_HSIOM_BASE */
 594:Generated_Source\PSoC4/cyfitter_cfg.c **** 		CY_SET_REG32((void *)(CYDEV_HSIOM_BASE), 0x03000000u);
 613              		.loc 1 594 0
 614 0176 4E4B     		ldr	r3, .L23+24
 615 0178 C022     		movs	r2, #192
 616 017a 9204     		lsls	r2, r2, #18
 617 017c 1A60     		str	r2, [r3]
 595:Generated_Source\PSoC4/cyfitter_cfg.c **** 		CY_SET_REG32((void *)(CYREG_HSIOM_PORT_SEL1), 0x00300000u);
 618              		.loc 1 595 0
 619 017e 4D4B     		ldr	r3, .L23+28
 620 0180 C022     		movs	r2, #192
 621 0182 9203     		lsls	r2, r2, #14
 622 0184 1A60     		str	r2, [r3]
 596:Generated_Source\PSoC4/cyfitter_cfg.c **** 		CY_SET_REG32((void *)(CYREG_HSIOM_PORT_SEL2), 0x03000000u);
 623              		.loc 1 596 0
 624 0186 4C4B     		ldr	r3, .L23+32
 625 0188 C022     		movs	r2, #192
 626 018a 9204     		lsls	r2, r2, #18
 627 018c 1A60     		str	r2, [r3]
 597:Generated_Source\PSoC4/cyfitter_cfg.c **** 		CY_SET_REG32((void *)(CYREG_HSIOM_PORT_SEL3), 0x0000EE00u);
 628              		.loc 1 597 0
 629 018e 4B4B     		ldr	r3, .L23+36
 630 0190 EE22     		movs	r2, #238
 631 0192 1202     		lsls	r2, r2, #8
 632 0194 1A60     		str	r2, [r3]
 598:Generated_Source\PSoC4/cyfitter_cfg.c **** 		CY_SET_REG32((void *)(CYREG_HSIOM_PORT_SEL4), 0x000000EEu);
 633              		.loc 1 598 0
 634 0196 4A4B     		ldr	r3, .L23+40
 635 0198 EE22     		movs	r2, #238
 636 019a 1A60     		str	r2, [r3]
 599:Generated_Source\PSoC4/cyfitter_cfg.c **** 		CY_SET_REG32((void *)(CYREG_HSIOM_PORT_SEL5), 0x00000070u);
 637              		.loc 1 599 0
 638 019c 494B     		ldr	r3, .L23+44
 639 019e 7022     		movs	r2, #112
 640 01a0 1A60     		str	r2, [r3]
 600:Generated_Source\PSoC4/cyfitter_cfg.c **** 		CY_SET_REG32((void *)(CYREG_HSIOM_PORT_SEL6), 0x00800000u);
 641              		.loc 1 600 0
 642 01a2 494B     		ldr	r3, .L23+48
 643 01a4 8022     		movs	r2, #128
 644 01a6 1204     		lsls	r2, r2, #16
 645 01a8 1A60     		str	r2, [r3]
 601:Generated_Source\PSoC4/cyfitter_cfg.c **** 
 602:Generated_Source\PSoC4/cyfitter_cfg.c **** 		/* UDB_PA_0 Starting address: CYDEV_UDB_PA0_BASE */
 603:Generated_Source\PSoC4/cyfitter_cfg.c **** 		CY_SET_REG32((void *)(CYDEV_UDB_PA0_BASE), 0x00990000u);
 646              		.loc 1 603 0
ARM GAS  C:\Users\ADMINI~1\AppData\Local\Temp\cccYKLCd.s 			page 23


 647 01aa 484B     		ldr	r3, .L23+52
 648 01ac 9922     		movs	r2, #153
 649 01ae 1204     		lsls	r2, r2, #16
 650 01b0 1A60     		str	r2, [r3]
 604:Generated_Source\PSoC4/cyfitter_cfg.c **** 		CY_SET_REG32((void *)(CYREG_UDB_PA0_CFG4), 0x80000000u);
 651              		.loc 1 604 0
 652 01b2 474B     		ldr	r3, .L23+56
 653 01b4 8022     		movs	r2, #128
 654 01b6 1206     		lsls	r2, r2, #24
 655 01b8 1A60     		str	r2, [r3]
 605:Generated_Source\PSoC4/cyfitter_cfg.c **** 		CY_SET_REG32((void *)(CYREG_UDB_PA0_CFG8), 0x45000000u);
 656              		.loc 1 605 0
 657 01ba 464B     		ldr	r3, .L23+60
 658 01bc 8A22     		movs	r2, #138
 659 01be D205     		lsls	r2, r2, #23
 660 01c0 1A60     		str	r2, [r3]
 606:Generated_Source\PSoC4/cyfitter_cfg.c **** 
 607:Generated_Source\PSoC4/cyfitter_cfg.c **** 		/* UDB_PA_1 Starting address: CYDEV_UDB_PA1_BASE */
 608:Generated_Source\PSoC4/cyfitter_cfg.c **** 		CY_SET_REG32((void *)(CYDEV_UDB_PA1_BASE), 0x00990004u);
 661              		.loc 1 608 0
 662 01c2 454B     		ldr	r3, .L23+64
 663 01c4 454A     		ldr	r2, .L23+68
 664 01c6 1A60     		str	r2, [r3]
 609:Generated_Source\PSoC4/cyfitter_cfg.c **** 		CY_SET_REG32((void *)(CYREG_UDB_PA1_CFG4), 0x02000000u);
 665              		.loc 1 609 0
 666 01c8 454B     		ldr	r3, .L23+72
 667 01ca 8022     		movs	r2, #128
 668 01cc 9204     		lsls	r2, r2, #18
 669 01ce 1A60     		str	r2, [r3]
 610:Generated_Source\PSoC4/cyfitter_cfg.c **** 		CY_SET_REG32((void *)(CYREG_UDB_PA1_CFG8), 0x0C000000u);
 670              		.loc 1 610 0
 671 01d0 444B     		ldr	r3, .L23+76
 672 01d2 C022     		movs	r2, #192
 673 01d4 1205     		lsls	r2, r2, #20
 674 01d6 1A60     		str	r2, [r3]
 611:Generated_Source\PSoC4/cyfitter_cfg.c **** 
 612:Generated_Source\PSoC4/cyfitter_cfg.c **** 		/* UDB_PA_2 Starting address: CYDEV_UDB_PA2_BASE */
 613:Generated_Source\PSoC4/cyfitter_cfg.c **** 		CY_SET_REG32((void *)(CYDEV_UDB_PA2_BASE), 0x00990000u);
 675              		.loc 1 613 0
 676 01d8 434B     		ldr	r3, .L23+80
 677 01da 9922     		movs	r2, #153
 678 01dc 1204     		lsls	r2, r2, #16
 679 01de 1A60     		str	r2, [r3]
 614:Generated_Source\PSoC4/cyfitter_cfg.c **** 		CY_SET_REG32((void *)(CYREG_UDB_PA2_CFG8), 0x45000000u);
 680              		.loc 1 614 0
 681 01e0 424B     		ldr	r3, .L23+84
 682 01e2 8A22     		movs	r2, #138
 683 01e4 D205     		lsls	r2, r2, #23
 684 01e6 1A60     		str	r2, [r3]
 615:Generated_Source\PSoC4/cyfitter_cfg.c **** 
 616:Generated_Source\PSoC4/cyfitter_cfg.c **** 		/* UDB_PA_3 Starting address: CYDEV_UDB_PA3_BASE */
 617:Generated_Source\PSoC4/cyfitter_cfg.c **** 		CY_SET_REG32((void *)(CYDEV_UDB_PA3_BASE), 0x00990000u);
 685              		.loc 1 617 0
 686 01e8 414B     		ldr	r3, .L23+88
 687 01ea 9922     		movs	r2, #153
 688 01ec 1204     		lsls	r2, r2, #16
 689 01ee 1A60     		str	r2, [r3]
ARM GAS  C:\Users\ADMINI~1\AppData\Local\Temp\cccYKLCd.s 			page 24


 618:Generated_Source\PSoC4/cyfitter_cfg.c **** 
 619:Generated_Source\PSoC4/cyfitter_cfg.c **** 		/* INT_SELECT Starting address: CYDEV_CPUSS_INT_SEL */
 620:Generated_Source\PSoC4/cyfitter_cfg.c **** 		CY_SET_REG32((void *)(CYREG_CPUSS_INT_SEL), 0x00000001u);
 690              		.loc 1 620 0
 691 01f0 404B     		ldr	r3, .L23+92
 692 01f2 0122     		movs	r2, #1
 693 01f4 1A60     		str	r2, [r3]
 621:Generated_Source\PSoC4/cyfitter_cfg.c **** 
 622:Generated_Source\PSoC4/cyfitter_cfg.c **** 		/* TR_GROUP0 Starting address: CYDEV_PERI_TR_GROUP_TR_OUT_CTL0 */
 623:Generated_Source\PSoC4/cyfitter_cfg.c **** 		CY_SET_REG32((void *)(CYREG_PERI_TR_GROUP_TR_OUT_CTL2), 0x00000019u);
 694              		.loc 1 623 0
 695 01f6 404B     		ldr	r3, .L23+96
 696 01f8 1922     		movs	r2, #25
 697 01fa 1A60     		str	r2, [r3]
 624:Generated_Source\PSoC4/cyfitter_cfg.c **** 
 625:Generated_Source\PSoC4/cyfitter_cfg.c **** 		/* INT_CONFIG Starting address: CYDEV_UDB_INT_CFG */
 626:Generated_Source\PSoC4/cyfitter_cfg.c **** 		CY_SET_REG32((void *)(CYREG_UDB_INT_CFG), 0x00000001u);
 698              		.loc 1 626 0
 699 01fc 3F4B     		ldr	r3, .L23+100
 700 01fe 0122     		movs	r2, #1
 701 0200 1A60     		str	r2, [r3]
 627:Generated_Source\PSoC4/cyfitter_cfg.c **** 
 628:Generated_Source\PSoC4/cyfitter_cfg.c **** 		/* Enable UDB array and digital routing */
 629:Generated_Source\PSoC4/cyfitter_cfg.c **** 		CY_SET_XTND_REG8((void *)CYREG_UDB_UDBIF_WAIT_CFG, (uint8)((CY_GET_XTND_REG8((void *)CYREG_UDB_UD
 702              		.loc 1 629 0
 703 0202 3F4A     		ldr	r2, .L23+104
 704 0204 3E4B     		ldr	r3, .L23+104
 705 0206 1B78     		ldrb	r3, [r3]
 706 0208 DBB2     		uxtb	r3, r3
 707 020a 3C21     		movs	r1, #60
 708 020c 8B43     		bics	r3, r1
 709 020e DBB2     		uxtb	r3, r3
 710 0210 1421     		movs	r1, #20
 711 0212 0B43     		orrs	r3, r1
 712 0214 DBB2     		uxtb	r3, r3
 713 0216 1370     		strb	r3, [r2]
 630:Generated_Source\PSoC4/cyfitter_cfg.c **** 		CY_SET_XTND_REG8((void *)CYREG_UDB_UDBIF_BANK_CTL, (uint8)(CY_GET_XTND_REG8((void *)CYREG_UDB_UDB
 714              		.loc 1 630 0
 715 0218 3A4A     		ldr	r2, .L23+108
 716 021a 3A4B     		ldr	r3, .L23+108
 717 021c 1B78     		ldrb	r3, [r3]
 718 021e DBB2     		uxtb	r3, r3
 719 0220 1621     		movs	r1, #22
 720 0222 0B43     		orrs	r3, r1
 721 0224 DBB2     		uxtb	r3, r3
 722 0226 1370     		strb	r3, [r2]
 723              	.LBE3:
 631:Generated_Source\PSoC4/cyfitter_cfg.c **** 	}
 632:Generated_Source\PSoC4/cyfitter_cfg.c **** 
 633:Generated_Source\PSoC4/cyfitter_cfg.c **** 	/* Perform second pass device configuration. These items must be configured in specific order afte
 634:Generated_Source\PSoC4/cyfitter_cfg.c **** 	/* IOPINS0_0 Starting address: CYDEV_GPIO_PRT0_BASE */
 635:Generated_Source\PSoC4/cyfitter_cfg.c **** 	CY_SET_REG32((void *)(CYDEV_GPIO_PRT0_BASE), 0x000000C0u);
 724              		.loc 1 635 0
 725 0228 374B     		ldr	r3, .L23+112
 726 022a C022     		movs	r2, #192
 727 022c 1A60     		str	r2, [r3]
 636:Generated_Source\PSoC4/cyfitter_cfg.c **** 	CY_SET_REG32((void *)(CYREG_GPIO_PRT0_PC), 0x00580000u);
ARM GAS  C:\Users\ADMINI~1\AppData\Local\Temp\cccYKLCd.s 			page 25


 728              		.loc 1 636 0
 729 022e 374B     		ldr	r3, .L23+116
 730 0230 B022     		movs	r2, #176
 731 0232 D203     		lsls	r2, r2, #15
 732 0234 1A60     		str	r2, [r3]
 637:Generated_Source\PSoC4/cyfitter_cfg.c **** 
 638:Generated_Source\PSoC4/cyfitter_cfg.c **** 	/* IOPINS0_1 Starting address: CYDEV_GPIO_PRT1_BASE */
 639:Generated_Source\PSoC4/cyfitter_cfg.c **** 	CY_SET_REG32((void *)(CYDEV_GPIO_PRT1_BASE), 0x00000020u);
 733              		.loc 1 639 0
 734 0236 364B     		ldr	r3, .L23+120
 735 0238 2022     		movs	r2, #32
 736 023a 1A60     		str	r2, [r3]
 640:Generated_Source\PSoC4/cyfitter_cfg.c **** 	CY_SET_REG32((void *)(CYREG_GPIO_PRT1_PC), 0x00071000u);
 737              		.loc 1 640 0
 738 023c 354B     		ldr	r3, .L23+124
 739 023e E222     		movs	r2, #226
 740 0240 D202     		lsls	r2, r2, #11
 741 0242 1A60     		str	r2, [r3]
 641:Generated_Source\PSoC4/cyfitter_cfg.c **** 	CY_SET_REG32((void *)(CYREG_GPIO_PRT1_INTR_CFG), 0x00001000u);
 742              		.loc 1 641 0
 743 0244 344B     		ldr	r3, .L23+128
 744 0246 8022     		movs	r2, #128
 745 0248 5201     		lsls	r2, r2, #5
 746 024a 1A60     		str	r2, [r3]
 642:Generated_Source\PSoC4/cyfitter_cfg.c **** 
 643:Generated_Source\PSoC4/cyfitter_cfg.c **** 	/* IOPINS0_2 Starting address: CYDEV_GPIO_PRT2_BASE */
 644:Generated_Source\PSoC4/cyfitter_cfg.c **** 	CY_SET_REG32((void *)(CYDEV_GPIO_PRT2_BASE), 0x00000040u);
 747              		.loc 1 644 0
 748 024c 334B     		ldr	r3, .L23+132
 749 024e 4022     		movs	r2, #64
 750 0250 1A60     		str	r2, [r3]
 645:Generated_Source\PSoC4/cyfitter_cfg.c **** 	CY_SET_REG32((void *)(CYREG_GPIO_PRT2_PC), 0x00180000u);
 751              		.loc 1 645 0
 752 0252 334B     		ldr	r3, .L23+136
 753 0254 C022     		movs	r2, #192
 754 0256 5203     		lsls	r2, r2, #13
 755 0258 1A60     		str	r2, [r3]
 646:Generated_Source\PSoC4/cyfitter_cfg.c **** 
 647:Generated_Source\PSoC4/cyfitter_cfg.c **** 	/* IOPINS0_3 Starting address: CYDEV_GPIO_PRT3_BASE */
 648:Generated_Source\PSoC4/cyfitter_cfg.c **** 	CY_SET_REG32((void *)(CYREG_GPIO_PRT3_PC), 0x00000D80u);
 756              		.loc 1 648 0
 757 025a 324B     		ldr	r3, .L23+140
 758 025c D822     		movs	r2, #216
 759 025e 1201     		lsls	r2, r2, #4
 760 0260 1A60     		str	r2, [r3]
 649:Generated_Source\PSoC4/cyfitter_cfg.c **** 
 650:Generated_Source\PSoC4/cyfitter_cfg.c **** 	/* IOPINS0_4 Starting address: CYDEV_GPIO_PRT4_BASE */
 651:Generated_Source\PSoC4/cyfitter_cfg.c **** 	CY_SET_REG32((void *)(CYDEV_GPIO_PRT4_BASE), 0x00000003u);
 761              		.loc 1 651 0
 762 0262 314B     		ldr	r3, .L23+144
 763 0264 0322     		movs	r2, #3
 764 0266 1A60     		str	r2, [r3]
 652:Generated_Source\PSoC4/cyfitter_cfg.c **** 	CY_SET_REG32((void *)(CYREG_GPIO_PRT4_PC), 0x00000024u);
 765              		.loc 1 652 0
 766 0268 304B     		ldr	r3, .L23+148
 767 026a 2422     		movs	r2, #36
 768 026c 1A60     		str	r2, [r3]
ARM GAS  C:\Users\ADMINI~1\AppData\Local\Temp\cccYKLCd.s 			page 26


 653:Generated_Source\PSoC4/cyfitter_cfg.c **** 
 654:Generated_Source\PSoC4/cyfitter_cfg.c **** 	/* IOPINS0_5 Starting address: CYDEV_GPIO_PRT5_BASE */
 655:Generated_Source\PSoC4/cyfitter_cfg.c **** 	CY_SET_REG32((void *)(CYDEV_GPIO_PRT5_BASE), 0x00000007u);
 769              		.loc 1 655 0
 770 026e 304B     		ldr	r3, .L23+152
 771 0270 0722     		movs	r2, #7
 772 0272 1A60     		str	r2, [r3]
 656:Generated_Source\PSoC4/cyfitter_cfg.c **** 	CY_SET_REG32((void *)(CYREG_GPIO_PRT5_PC2), 0x00000007u);
 773              		.loc 1 656 0
 774 0274 2F4B     		ldr	r3, .L23+156
 775 0276 0722     		movs	r2, #7
 776 0278 1A60     		str	r2, [r3]
 657:Generated_Source\PSoC4/cyfitter_cfg.c **** 
 658:Generated_Source\PSoC4/cyfitter_cfg.c **** 	/* IOPINS0_6 Starting address: CYDEV_GPIO_PRT6_BASE */
 659:Generated_Source\PSoC4/cyfitter_cfg.c **** 	CY_SET_REG32((void *)(CYDEV_GPIO_PRT6_BASE), 0x00000020u);
 777              		.loc 1 659 0
 778 027a 2F4B     		ldr	r3, .L23+160
 779 027c 2022     		movs	r2, #32
 780 027e 1A60     		str	r2, [r3]
 660:Generated_Source\PSoC4/cyfitter_cfg.c **** 	CY_SET_REG32((void *)(CYREG_GPIO_PRT6_PC), 0x00030000u);
 781              		.loc 1 660 0
 782 0280 2E4B     		ldr	r3, .L23+164
 783 0282 C022     		movs	r2, #192
 784 0284 9202     		lsls	r2, r2, #10
 785 0286 1A60     		str	r2, [r3]
 661:Generated_Source\PSoC4/cyfitter_cfg.c **** 
 662:Generated_Source\PSoC4/cyfitter_cfg.c **** 
 663:Generated_Source\PSoC4/cyfitter_cfg.c **** 	/* Setup clocks based on selections from Clock DWR */
 664:Generated_Source\PSoC4/cyfitter_cfg.c **** 	ClockSetup();
 786              		.loc 1 664 0
 787 0288 FFF7BAFE 		bl	ClockSetup
 665:Generated_Source\PSoC4/cyfitter_cfg.c **** 
 666:Generated_Source\PSoC4/cyfitter_cfg.c **** 	/* Perform basic analog initialization to defaults */
 667:Generated_Source\PSoC4/cyfitter_cfg.c **** 	AnalogSetDefault();
 788              		.loc 1 667 0
 789 028c FFF7FEFF 		bl	AnalogSetDefault
 668:Generated_Source\PSoC4/cyfitter_cfg.c **** 
 669:Generated_Source\PSoC4/cyfitter_cfg.c **** }
 790              		.loc 1 669 0
 791 0290 C046     		nop
 792 0292 BD46     		mov	sp, r7
 793 0294 02B0     		add	sp, sp, #8
 794              		@ sp needed
 795 0296 80BD     		pop	{r7, pc}
 796              	.L24:
 797              		.align	2
 798              	.L23:
 799 0298 1C700F40 		.word	1074753564
 800 029c 00000000 		.word	cfg_memset_list.4917
 801 02a0 30000000 		.word	cy_cfg_data_table.4912
 802 02a4 0C000000 		.word	cy_cfg_addr_table.4911
 803 02a8 00600F40 		.word	1074749440
 804 02ac 02600F40 		.word	1074749442
 805 02b0 00000240 		.word	1073872896
 806 02b4 00010240 		.word	1073873152
 807 02b8 00020240 		.word	1073873408
 808 02bc 00030240 		.word	1073873664
ARM GAS  C:\Users\ADMINI~1\AppData\Local\Temp\cccYKLCd.s 			page 27


 809 02c0 00040240 		.word	1073873920
 810 02c4 00050240 		.word	1073874176
 811 02c8 00060240 		.word	1073874432
 812 02cc 00500F40 		.word	1074745344
 813 02d0 04500F40 		.word	1074745348
 814 02d4 08500F40 		.word	1074745352
 815 02d8 10500F40 		.word	1074745360
 816 02dc 04009900 		.word	10027012
 817 02e0 14500F40 		.word	1074745364
 818 02e4 18500F40 		.word	1074745368
 819 02e8 20500F40 		.word	1074745376
 820 02ec 28500F40 		.word	1074745384
 821 02f0 30500F40 		.word	1074745392
 822 02f4 20001040 		.word	1074790432
 823 02f8 08200140 		.word	1073815560
 824 02fc 00800F40 		.word	1074757632
 825 0300 01700F40 		.word	1074753537
 826 0304 00700F40 		.word	1074753536
 827 0308 00000440 		.word	1074003968
 828 030c 08000440 		.word	1074003976
 829 0310 00010440 		.word	1074004224
 830 0314 08010440 		.word	1074004232
 831 0318 0C010440 		.word	1074004236
 832 031c 00020440 		.word	1074004480
 833 0320 08020440 		.word	1074004488
 834 0324 08030440 		.word	1074004744
 835 0328 00040440 		.word	1074004992
 836 032c 08040440 		.word	1074005000
 837 0330 00050440 		.word	1074005248
 838 0334 18050440 		.word	1074005272
 839 0338 00060440 		.word	1074005504
 840 033c 08060440 		.word	1074005512
 841              		.cfi_endproc
 842              	.LFE8:
 843              		.size	cyfitter_cfg, .-cyfitter_cfg
 844              		.section	.rodata
 845              		.align	2
 846              		.type	cfg_memset_list.4917, %object
 847              		.size	cfg_memset_list.4917, 12
 848              	cfg_memset_list.4917:
 849 0000 00300F40 		.word	1074737152
 850 0004 0004     		.short	1024
 851 0006 00400F40 		.4byte	1074741248
 852 000a 0004     		.short	1024
 853              		.align	2
 854              		.type	cy_cfg_addr_table.4911, %object
 855              		.size	cy_cfg_addr_table.4911, 36
 856              	cy_cfg_addr_table.4911:
 857 000c 0C300F40 		.word	1074737164
 858 0010 09310F40 		.word	1074737417
 859 0014 62320F40 		.word	1074737762
 860 0018 34330F40 		.word	1074737972
 861 001c 06400F40 		.word	1074741254
 862 0020 0B410F40 		.word	1074741515
 863 0024 02420F40 		.word	1074741762
 864 0028 06430F40 		.word	1074742022
 865 002c 02600F40 		.word	1074749442
ARM GAS  C:\Users\ADMINI~1\AppData\Local\Temp\cccYKLCd.s 			page 28


 866              		.align	2
 867              		.type	cy_cfg_data_table.4912, %object
 868              		.size	cy_cfg_data_table.4912, 396
 869              	cy_cfg_data_table.4912:
 870 0030 82       		.byte	-126
 871 0031 08       		.byte	8
 872 0032 8E       		.byte	-114
 873 0033 10       		.byte	16
 874 0034 94       		.byte	-108
 875 0035 01       		.byte	1
 876 0036 96       		.byte	-106
 877 0037 06       		.byte	6
 878 0038 9C       		.byte	-100
 879 0039 02       		.byte	2
 880 003a 9E       		.byte	-98
 881 003b 01       		.byte	1
 882 003c B0       		.byte	-80
 883 003d 03       		.byte	3
 884 003e B2       		.byte	-78
 885 003f 08       		.byte	8
 886 0040 B4       		.byte	-76
 887 0041 10       		.byte	16
 888 0042 B6       		.byte	-74
 889 0043 04       		.byte	4
 890 0044 D8       		.byte	-40
 891 0045 04       		.byte	4
 892 0046 DF       		.byte	-33
 893 0047 01       		.byte	1
 894 0048 04       		.byte	4
 895 0049 02       		.byte	2
 896 004a 06       		.byte	6
 897 004b 01       		.byte	1
 898 004c 0E       		.byte	14
 899 004d 12       		.byte	18
 900 004e 1E       		.byte	30
 901 004f 1A       		.byte	26
 902 0050 1F       		.byte	31
 903 0051 02       		.byte	2
 904 0052 2B       		.byte	43
 905 0053 03       		.byte	3
 906 0054 87       		.byte	-121
 907 0055 02       		.byte	2
 908 0056 C0       		.byte	-64
 909 0057 90       		.byte	-112
 910 0058 C2       		.byte	-62
 911 0059 A0       		.byte	-96
 912 005a 00       		.byte	0
 913 005b 2A       		.byte	42
 914 005c 02       		.byte	2
 915 005d 55       		.byte	85
 916 005e 04       		.byte	4
 917 005f 40       		.byte	64
 918 0060 05       		.byte	5
 919 0061 01       		.byte	1
 920 0062 07       		.byte	7
 921 0063 02       		.byte	2
 922 0064 08       		.byte	8
ARM GAS  C:\Users\ADMINI~1\AppData\Local\Temp\cccYKLCd.s 			page 29


 923 0065 36       		.byte	54
 924 0066 09       		.byte	9
 925 0067 08       		.byte	8
 926 0068 0A       		.byte	10
 927 0069 80       		.byte	-128
 928 006a 0B       		.byte	11
 929 006b 10       		.byte	16
 930 006c 0C       		.byte	12
 931 006d 40       		.byte	64
 932 006e 0D       		.byte	13
 933 006f 02       		.byte	2
 934 0070 0F       		.byte	15
 935 0071 25       		.byte	37
 936 0072 10       		.byte	16
 937 0073 0A       		.byte	10
 938 0074 11       		.byte	17
 939 0075 1B       		.byte	27
 940 0076 12       		.byte	18
 941 0077 11       		.byte	17
 942 0078 13       		.byte	19
 943 0079 64       		.byte	100
 944 007a 15       		.byte	21
 945 007b 7F       		.byte	127
 946 007c 18       		.byte	24
 947 007d 11       		.byte	17
 948 007e 19       		.byte	25
 949 007f 14       		.byte	20
 950 0080 1A       		.byte	26
 951 0081 0A       		.byte	10
 952 0082 1B       		.byte	27
 953 0083 48       		.byte	72
 954 0084 1E       		.byte	30
 955 0085 20       		.byte	32
 956 0086 22       		.byte	34
 957 0087 20       		.byte	32
 958 0088 25       		.byte	37
 959 0089 1B       		.byte	27
 960 008a 27       		.byte	39
 961 008b 64       		.byte	100
 962 008c 28       		.byte	40
 963 008d 35       		.byte	53
 964 008e 2A       		.byte	42
 965 008f CA       		.byte	-54
 966 0090 2F       		.byte	47
 967 0091 1B       		.byte	27
 968 0092 30       		.byte	48
 969 0093 06       		.byte	6
 970 0094 32       		.byte	50
 971 0095 01       		.byte	1
 972 0096 33       		.byte	51
 973 0097 78       		.byte	120
 974 0098 34       		.byte	52
 975 0099 F8       		.byte	-8
 976 009a 36       		.byte	54
 977 009b 01       		.byte	1
 978 009c 37       		.byte	55
 979 009d 07       		.byte	7
ARM GAS  C:\Users\ADMINI~1\AppData\Local\Temp\cccYKLCd.s 			page 30


 980 009e 3A       		.byte	58
 981 009f 20       		.byte	32
 982 00a0 3B       		.byte	59
 983 00a1 88       		.byte	-120
 984 00a2 3E       		.byte	62
 985 00a3 44       		.byte	68
 986 00a4 40       		.byte	64
 987 00a5 42       		.byte	66
 988 00a6 42       		.byte	66
 989 00a7 11       		.byte	17
 990 00a8 49       		.byte	73
 991 00a9 FF       		.byte	-1
 992 00aa 4A       		.byte	74
 993 00ab FF       		.byte	-1
 994 00ac 4B       		.byte	75
 995 00ad FF       		.byte	-1
 996 00ae 4F       		.byte	79
 997 00af 09       		.byte	9
 998 00b0 52       		.byte	82
 999 00b1 87       		.byte	-121
 1000 00b2 58       		.byte	88
 1001 00b3 04       		.byte	4
 1002 00b4 59       		.byte	89
 1003 00b5 04       		.byte	4
 1004 00b6 5A       		.byte	90
 1005 00b7 04       		.byte	4
 1006 00b8 5B       		.byte	91
 1007 00b9 04       		.byte	4
 1008 00ba 5F       		.byte	95
 1009 00bb 01       		.byte	1
 1010 00bc 60       		.byte	96
 1011 00bd 50       		.byte	80
 1012 00be 61       		.byte	97
 1013 00bf A8       		.byte	-88
 1014 00c0 62       		.byte	98
 1015 00c1 10       		.byte	16
 1016 00c2 63       		.byte	99
 1017 00c3 30       		.byte	48
 1018 00c4 64       		.byte	100
 1019 00c5 40       		.byte	64
 1020 00c6 65       		.byte	101
 1021 00c7 20       		.byte	32
 1022 00c8 66       		.byte	102
 1023 00c9 50       		.byte	80
 1024 00ca 67       		.byte	103
 1025 00cb A8       		.byte	-88
 1026 00cc 80       		.byte	-128
 1027 00cd 0A       		.byte	10
 1028 00ce 82       		.byte	-126
 1029 00cf 04       		.byte	4
 1030 00d0 84       		.byte	-124
 1031 00d1 08       		.byte	8
 1032 00d2 90       		.byte	-112
 1033 00d3 04       		.byte	4
 1034 00d4 92       		.byte	-110
 1035 00d5 08       		.byte	8
 1036 00d6 98       		.byte	-104
ARM GAS  C:\Users\ADMINI~1\AppData\Local\Temp\cccYKLCd.s 			page 31


 1037 00d7 04       		.byte	4
 1038 00d8 9A       		.byte	-102
 1039 00d9 08       		.byte	8
 1040 00da 9C       		.byte	-100
 1041 00db 08       		.byte	8
 1042 00dc A2       		.byte	-94
 1043 00dd 04       		.byte	4
 1044 00de A4       		.byte	-92
 1045 00df 03       		.byte	3
 1046 00e0 A8       		.byte	-88
 1047 00e1 0F       		.byte	15
 1048 00e2 B0       		.byte	-80
 1049 00e3 0C       		.byte	12
 1050 00e4 B4       		.byte	-76
 1051 00e5 01       		.byte	1
 1052 00e6 B6       		.byte	-74
 1053 00e7 02       		.byte	2
 1054 00e8 B8       		.byte	-72
 1055 00e9 A0       		.byte	-96
 1056 00ea BA       		.byte	-70
 1057 00eb 02       		.byte	2
 1058 00ec BE       		.byte	-66
 1059 00ed 50       		.byte	80
 1060 00ee C0       		.byte	-64
 1061 00ef 42       		.byte	66
 1062 00f0 C2       		.byte	-62
 1063 00f1 33       		.byte	51
 1064 00f2 C5       		.byte	-59
 1065 00f3 07       		.byte	7
 1066 00f4 C7       		.byte	-57
 1067 00f5 03       		.byte	3
 1068 00f6 C8       		.byte	-56
 1069 00f7 11       		.byte	17
 1070 00f8 C9       		.byte	-55
 1071 00f9 FF       		.byte	-1
 1072 00fa CA       		.byte	-54
 1073 00fb FF       		.byte	-1
 1074 00fc CB       		.byte	-53
 1075 00fd FF       		.byte	-1
 1076 00fe CD       		.byte	-51
 1077 00ff 0F       		.byte	15
 1078 0100 CE       		.byte	-50
 1079 0101 73       		.byte	115
 1080 0102 CF       		.byte	-49
 1081 0103 09       		.byte	9
 1082 0104 D4       		.byte	-44
 1083 0105 03       		.byte	3
 1084 0106 D8       		.byte	-40
 1085 0107 04       		.byte	4
 1086 0108 DA       		.byte	-38
 1087 0109 04       		.byte	4
 1088 010a DB       		.byte	-37
 1089 010b 04       		.byte	4
 1090 010c DF       		.byte	-33
 1091 010d 01       		.byte	1
 1092 010e E0       		.byte	-32
 1093 010f 50       		.byte	80
ARM GAS  C:\Users\ADMINI~1\AppData\Local\Temp\cccYKLCd.s 			page 32


 1094 0110 E1       		.byte	-31
 1095 0111 A8       		.byte	-88
 1096 0112 E2       		.byte	-30
 1097 0113 10       		.byte	16
 1098 0114 E3       		.byte	-29
 1099 0115 30       		.byte	48
 1100 0116 E4       		.byte	-28
 1101 0117 40       		.byte	64
 1102 0118 E5       		.byte	-27
 1103 0119 20       		.byte	32
 1104 011a E6       		.byte	-26
 1105 011b 50       		.byte	80
 1106 011c E7       		.byte	-25
 1107 011d A8       		.byte	-88
 1108 011e 01       		.byte	1
 1109 011f 02       		.byte	2
 1110 0120 03       		.byte	3
 1111 0121 10       		.byte	16
 1112 0122 05       		.byte	5
 1113 0123 01       		.byte	1
 1114 0124 06       		.byte	6
 1115 0125 04       		.byte	4
 1116 0126 07       		.byte	7
 1117 0127 22       		.byte	34
 1118 0128 09       		.byte	9
 1119 0129 62       		.byte	98
 1120 012a 0E       		.byte	14
 1121 012b 08       		.byte	8
 1122 012c 0F       		.byte	15
 1123 012d 82       		.byte	-126
 1124 012e 10       		.byte	16
 1125 012f 28       		.byte	40
 1126 0130 12       		.byte	18
 1127 0131 40       		.byte	64
 1128 0132 15       		.byte	21
 1129 0133 20       		.byte	32
 1130 0134 16       		.byte	22
 1131 0135 40       		.byte	64
 1132 0136 19       		.byte	25
 1133 0137 92       		.byte	-110
 1134 0138 1C       		.byte	28
 1135 0139 10       		.byte	16
 1136 013a 1D       		.byte	29
 1137 013b A3       		.byte	-93
 1138 013c 1F       		.byte	31
 1139 013d 10       		.byte	16
 1140 013e 25       		.byte	37
 1141 013f 40       		.byte	64
 1142 0140 27       		.byte	39
 1143 0141 32       		.byte	50
 1144 0142 2E       		.byte	46
 1145 0143 80       		.byte	-128
 1146 0144 2F       		.byte	47
 1147 0145 10       		.byte	16
 1148 0146 35       		.byte	53
 1149 0147 01       		.byte	1
 1150 0148 36       		.byte	54
ARM GAS  C:\Users\ADMINI~1\AppData\Local\Temp\cccYKLCd.s 			page 33


 1151 0149 08       		.byte	8
 1152 014a 37       		.byte	55
 1153 014b 20       		.byte	32
 1154 014c 3D       		.byte	61
 1155 014d 80       		.byte	-128
 1156 014e 3E       		.byte	62
 1157 014f 14       		.byte	20
 1158 0150 40       		.byte	64
 1159 0151 10       		.byte	16
 1160 0152 41       		.byte	65
 1161 0153 32       		.byte	50
 1162 0154 45       		.byte	69
 1163 0155 A2       		.byte	-94
 1164 0156 48       		.byte	72
 1165 0157 20       		.byte	32
 1166 0158 50       		.byte	80
 1167 0159 08       		.byte	8
 1168 015a 52       		.byte	82
 1169 015b 0C       		.byte	12
 1170 015c 59       		.byte	89
 1171 015d 90       		.byte	-112
 1172 015e 6C       		.byte	108
 1173 015f 01       		.byte	1
 1174 0160 6E       		.byte	110
 1175 0161 14       		.byte	20
 1176 0162 76       		.byte	118
 1177 0163 C0       		.byte	-64
 1178 0164 82       		.byte	-126
 1179 0165 01       		.byte	1
 1180 0166 83       		.byte	-125
 1181 0167 40       		.byte	64
 1182 0168 94       		.byte	-108
 1183 0169 02       		.byte	2
 1184 016a 9D       		.byte	-99
 1185 016b 80       		.byte	-128
 1186 016c 9E       		.byte	-98
 1187 016d 01       		.byte	1
 1188 016e A2       		.byte	-94
 1189 016f 04       		.byte	4
 1190 0170 A3       		.byte	-93
 1191 0171 01       		.byte	1
 1192 0172 A9       		.byte	-87
 1193 0173 80       		.byte	-128
 1194 0174 C0       		.byte	-64
 1195 0175 FC       		.byte	-4
 1196 0176 C2       		.byte	-62
 1197 0177 DB       		.byte	-37
 1198 0178 C4       		.byte	-60
 1199 0179 5E       		.byte	94
 1200 017a CA       		.byte	-54
 1201 017b 50       		.byte	80
 1202 017c CC       		.byte	-52
 1203 017d E0       		.byte	-32
 1204 017e CE       		.byte	-50
 1205 017f 70       		.byte	112
 1206 0180 D0       		.byte	-48
 1207 0181 B7       		.byte	-73
ARM GAS  C:\Users\ADMINI~1\AppData\Local\Temp\cccYKLCd.s 			page 34


 1208 0182 D6       		.byte	-42
 1209 0183 0C       		.byte	12
 1210 0184 E2       		.byte	-30
 1211 0185 80       		.byte	-128
 1212 0186 61       		.byte	97
 1213 0187 40       		.byte	64
 1214 0188 6A       		.byte	106
 1215 0189 40       		.byte	64
 1216 018a 87       		.byte	-121
 1217 018b 40       		.byte	64
 1218 018c D6       		.byte	-42
 1219 018d 40       		.byte	64
 1220 018e DA       		.byte	-38
 1221 018f 40       		.byte	64
 1222 0190 E2       		.byte	-30
 1223 0191 10       		.byte	16
 1224 0192 0A       		.byte	10
 1225 0193 40       		.byte	64
 1226 0194 67       		.byte	103
 1227 0195 80       		.byte	-128
 1228 0196 82       		.byte	-126
 1229 0197 40       		.byte	64
 1230 0198 89       		.byte	-119
 1231 0199 40       		.byte	64
 1232 019a 93       		.byte	-109
 1233 019b 80       		.byte	-128
 1234 019c 9D       		.byte	-99
 1235 019d 40       		.byte	64
 1236 019e AA       		.byte	-86
 1237 019f 40       		.byte	64
 1238 01a0 C2       		.byte	-62
 1239 01a1 10       		.byte	16
 1240 01a2 D8       		.byte	-40
 1241 01a3 80       		.byte	-128
 1242 01a4 E0       		.byte	-32
 1243 01a5 20       		.byte	32
 1244 01a6 EA       		.byte	-22
 1245 01a7 20       		.byte	32
 1246 01a8 60       		.byte	96
 1247 01a9 01       		.byte	1
 1248 01aa D6       		.byte	-42
 1249 01ab 02       		.byte	2
 1250 01ac 20       		.byte	32
 1251 01ad 01       		.byte	1
 1252 01ae 26       		.byte	38
 1253 01af 10       		.byte	16
 1254 01b0 8A       		.byte	-118
 1255 01b1 10       		.byte	16
 1256 01b2 94       		.byte	-108
 1257 01b3 01       		.byte	1
 1258 01b4 C8       		.byte	-56
 1259 01b5 0C       		.byte	12
 1260 01b6 E2       		.byte	-30
 1261 01b7 01       		.byte	1
 1262 01b8 10       		.byte	16
 1263 01b9 01       		.byte	1
 1264 01ba 11       		.byte	17
ARM GAS  C:\Users\ADMINI~1\AppData\Local\Temp\cccYKLCd.s 			page 35


 1265 01bb 01       		.byte	1
 1266              		.text
 1267              	.Letext0:
 1268              		.file 2 "c:\\program files (x86)\\cypress\\psoc creator\\4.2\\psoc creator\\import\\gnu\\arm\\5.4.
 1269              		.file 3 "Generated_Source\\PSoC4\\cytypes.h"