ARM GAS  C:\Users\ADMINI~1\AppData\Local\Temp\ccZTZ2Zv.s 			page 1


   1              		.syntax unified
   2              		.cpu cortex-m0
   3              		.fpu softvfp
   4              		.eabi_attribute 20, 1
   5              		.eabi_attribute 21, 1
   6              		.eabi_attribute 23, 3
   7              		.eabi_attribute 24, 1
   8              		.eabi_attribute 25, 1
   9              		.eabi_attribute 26, 1
  10              		.eabi_attribute 30, 6
  11              		.eabi_attribute 34, 0
  12              		.eabi_attribute 18, 4
  13              		.thumb
  14              		.syntax unified
  15              		.file	"lib_ascii.c"
  16              		.text
  17              	.Ltext0:
  18              		.cfi_sections	.debug_frame
  19              		.section	.text.ASCII_IsAlpha,"ax",%progbits
  20              		.align	2
  21              		.global	ASCII_IsAlpha
  22              		.code	16
  23              		.thumb_func
  24              		.type	ASCII_IsAlpha, %function
  25              	ASCII_IsAlpha:
  26              	.LFB0:
  27              		.file 1 "..\\..\\..\\..\\..\\..\\Software\\uC-LIB\\lib_ascii.c"
   1:..\..\..\..\..\..\Software\uC-LIB/lib_ascii.c **** /*
   2:..\..\..\..\..\..\Software\uC-LIB/lib_ascii.c **** ***************************************************************************************************
   3:..\..\..\..\..\..\Software\uC-LIB/lib_ascii.c **** *                                                uC/LIB
   4:..\..\..\..\..\..\Software\uC-LIB/lib_ascii.c **** *                                        CUSTOM LIBRARY MODULES
   5:..\..\..\..\..\..\Software\uC-LIB/lib_ascii.c **** *
   6:..\..\..\..\..\..\Software\uC-LIB/lib_ascii.c **** *                         (c) Copyright 2004-2014; Micrium, Inc.; Weston, FL
   7:..\..\..\..\..\..\Software\uC-LIB/lib_ascii.c **** *
   8:..\..\..\..\..\..\Software\uC-LIB/lib_ascii.c **** *                  All rights reserved.  Protected by international copyright laws.
   9:..\..\..\..\..\..\Software\uC-LIB/lib_ascii.c **** *
  10:..\..\..\..\..\..\Software\uC-LIB/lib_ascii.c **** *                  uC/LIB is provided in source form to registered licensees ONLY.  It is
  11:..\..\..\..\..\..\Software\uC-LIB/lib_ascii.c **** *                  illegal to distribute this source code to any third party unless you receive
  12:..\..\..\..\..\..\Software\uC-LIB/lib_ascii.c **** *                  written permission by an authorized Micrium representative.  Knowledge of
  13:..\..\..\..\..\..\Software\uC-LIB/lib_ascii.c **** *                  the source code may NOT be used to develop a similar product.
  14:..\..\..\..\..\..\Software\uC-LIB/lib_ascii.c **** *
  15:..\..\..\..\..\..\Software\uC-LIB/lib_ascii.c **** *                  Please help us continue to provide the Embedded community with the finest
  16:..\..\..\..\..\..\Software\uC-LIB/lib_ascii.c **** *                  software available.  Your honesty is greatly appreciated.
  17:..\..\..\..\..\..\Software\uC-LIB/lib_ascii.c **** *
  18:..\..\..\..\..\..\Software\uC-LIB/lib_ascii.c **** *                  You can find our product's user manual, API reference, release notes and
  19:..\..\..\..\..\..\Software\uC-LIB/lib_ascii.c **** *                  more information at: https://doc.micrium.com
  20:..\..\..\..\..\..\Software\uC-LIB/lib_ascii.c **** *
  21:..\..\..\..\..\..\Software\uC-LIB/lib_ascii.c **** *                  You can contact us at: http://www.micrium.com
  22:..\..\..\..\..\..\Software\uC-LIB/lib_ascii.c **** ***************************************************************************************************
  23:..\..\..\..\..\..\Software\uC-LIB/lib_ascii.c **** */
  24:..\..\..\..\..\..\Software\uC-LIB/lib_ascii.c **** 
  25:..\..\..\..\..\..\Software\uC-LIB/lib_ascii.c **** /*
  26:..\..\..\..\..\..\Software\uC-LIB/lib_ascii.c **** ***************************************************************************************************
  27:..\..\..\..\..\..\Software\uC-LIB/lib_ascii.c **** *
  28:..\..\..\..\..\..\Software\uC-LIB/lib_ascii.c **** *                                     ASCII CHARACTER OPERATIONS
  29:..\..\..\..\..\..\Software\uC-LIB/lib_ascii.c **** *
  30:..\..\..\..\..\..\Software\uC-LIB/lib_ascii.c **** * Filename      : lib_ascii.c
ARM GAS  C:\Users\ADMINI~1\AppData\Local\Temp\ccZTZ2Zv.s 			page 2


  31:..\..\..\..\..\..\Software\uC-LIB/lib_ascii.c **** * Version       : V1.38.01
  32:..\..\..\..\..\..\Software\uC-LIB/lib_ascii.c **** * Programmer(s) : BAN
  33:..\..\..\..\..\..\Software\uC-LIB/lib_ascii.c **** *                 ITJ
  34:..\..\..\..\..\..\Software\uC-LIB/lib_ascii.c **** ***************************************************************************************************
  35:..\..\..\..\..\..\Software\uC-LIB/lib_ascii.c **** * Note(s)       : (1) NO compiler-supplied standard library functions are used in library or produc
  36:..\..\..\..\..\..\Software\uC-LIB/lib_ascii.c **** *
  37:..\..\..\..\..\..\Software\uC-LIB/lib_ascii.c **** *                     (a) ALL standard library functions are implemented in the custom library modu
  38:..\..\..\..\..\..\Software\uC-LIB/lib_ascii.c **** *
  39:..\..\..\..\..\..\Software\uC-LIB/lib_ascii.c **** *                         (1) \<Custom Library Directory>\lib_*.*
  40:..\..\..\..\..\..\Software\uC-LIB/lib_ascii.c **** *
  41:..\..\..\..\..\..\Software\uC-LIB/lib_ascii.c **** *                         (2) \<Custom Library Directory>\Ports\<cpu>\<compiler>\lib*_a.*
  42:..\..\..\..\..\..\Software\uC-LIB/lib_ascii.c **** *
  43:..\..\..\..\..\..\Software\uC-LIB/lib_ascii.c **** *                               where
  44:..\..\..\..\..\..\Software\uC-LIB/lib_ascii.c **** *                                       <Custom Library Directory>      directory path for custom l
  45:..\..\..\..\..\..\Software\uC-LIB/lib_ascii.c **** *                                       <cpu>                           directory name for specific
  46:..\..\..\..\..\..\Software\uC-LIB/lib_ascii.c **** *                                       <compiler>                      directory name for specific
  47:..\..\..\..\..\..\Software\uC-LIB/lib_ascii.c **** *
  48:..\..\..\..\..\..\Software\uC-LIB/lib_ascii.c **** *                     (b) Product-specific library functions are implemented in individual products
  49:..\..\..\..\..\..\Software\uC-LIB/lib_ascii.c **** *
  50:..\..\..\..\..\..\Software\uC-LIB/lib_ascii.c **** *
  51:..\..\..\..\..\..\Software\uC-LIB/lib_ascii.c **** *                 (2) (a) ECMA-6 '7-Bit coded Character Set' (6th edition), which corresponds to th
  52:..\..\..\..\..\..\Software\uC-LIB/lib_ascii.c **** *                         3rd edition of ISO 646, specifies several versions of a 7-bit character s
  53:..\..\..\..\..\..\Software\uC-LIB/lib_ascii.c **** *
  54:..\..\..\..\..\..\Software\uC-LIB/lib_ascii.c **** *                         (1) THE GENERAL VERSION, which allows characters at 0x23 and 0x24 to be g
  55:..\..\..\..\..\..\Software\uC-LIB/lib_ascii.c **** *                             set alternate form and allows the characters 0x40, 0x5B, 0x5D, 0x60, 
  56:..\..\..\..\..\..\Software\uC-LIB/lib_ascii.c **** *                             0x7D to be assigned a "unique graphic character" or to be declared as
  57:..\..\..\..\..\..\Software\uC-LIB/lib_ascii.c **** *                             All other characters are explicitly specified.
  58:..\..\..\..\..\..\Software\uC-LIB/lib_ascii.c **** *
  59:..\..\..\..\..\..\Software\uC-LIB/lib_ascii.c **** *                         (2) THE INTERNATIONAL REFERENCE VERSION, which explicitly specifies all c
  60:..\..\..\..\..\..\Software\uC-LIB/lib_ascii.c **** *                             in the 7-bit character set.
  61:..\..\..\..\..\..\Software\uC-LIB/lib_ascii.c **** *
  62:..\..\..\..\..\..\Software\uC-LIB/lib_ascii.c **** *                         (3) NATIONAL & APPLICATION-ORIENTED VERSIONS, which may be derived from t
  63:..\..\..\..\..\..\Software\uC-LIB/lib_ascii.c **** *                             standard in specified ways.
  64:..\..\..\..\..\..\Software\uC-LIB/lib_ascii.c **** *
  65:..\..\..\..\..\..\Software\uC-LIB/lib_ascii.c **** *                     (b) The character set represented in this file reproduces the Internation Ref
  66:..\..\..\..\..\..\Software\uC-LIB/lib_ascii.c **** *                         Version.  This is identical to the 7-bit character set which occupies Uni
  67:..\..\..\..\..\..\Software\uC-LIB/lib_ascii.c **** *                         characters 0x0000 through 0x007F.  The character names are taken from v5.
  68:..\..\..\..\..\..\Software\uC-LIB/lib_ascii.c **** *                         Unicode specification, with certain abbreviations so that the resulting #
  69:..\..\..\..\..\..\Software\uC-LIB/lib_ascii.c **** *                         names will not violate ANSI C naming restriction :
  70:..\..\..\..\..\..\Software\uC-LIB/lib_ascii.c **** *
  71:..\..\..\..\..\..\Software\uC-LIB/lib_ascii.c **** *                         (1) For the Latin capital & lowercase letters, the name components 'LETTE
  72:..\..\..\..\..\..\Software\uC-LIB/lib_ascii.c **** *                             & 'LETTER_SMALL' are replaced by 'UPPER' & 'LOWER', respectively.
  73:..\..\..\..\..\..\Software\uC-LIB/lib_ascii.c **** ***************************************************************************************************
  74:..\..\..\..\..\..\Software\uC-LIB/lib_ascii.c **** */
  75:..\..\..\..\..\..\Software\uC-LIB/lib_ascii.c **** 
  76:..\..\..\..\..\..\Software\uC-LIB/lib_ascii.c **** 
  77:..\..\..\..\..\..\Software\uC-LIB/lib_ascii.c **** /*
  78:..\..\..\..\..\..\Software\uC-LIB/lib_ascii.c **** ***************************************************************************************************
  79:..\..\..\..\..\..\Software\uC-LIB/lib_ascii.c **** *                                            INCLUDE FILES
  80:..\..\..\..\..\..\Software\uC-LIB/lib_ascii.c **** ***************************************************************************************************
  81:..\..\..\..\..\..\Software\uC-LIB/lib_ascii.c **** */
  82:..\..\..\..\..\..\Software\uC-LIB/lib_ascii.c **** 
  83:..\..\..\..\..\..\Software\uC-LIB/lib_ascii.c **** #define    MICRIUM_SOURCE
  84:..\..\..\..\..\..\Software\uC-LIB/lib_ascii.c **** #define    LIB_ASCII_MODULE
  85:..\..\..\..\..\..\Software\uC-LIB/lib_ascii.c **** #include  <lib_ascii.h>
  86:..\..\..\..\..\..\Software\uC-LIB/lib_ascii.c **** 
  87:..\..\..\..\..\..\Software\uC-LIB/lib_ascii.c **** 
ARM GAS  C:\Users\ADMINI~1\AppData\Local\Temp\ccZTZ2Zv.s 			page 3


  88:..\..\..\..\..\..\Software\uC-LIB/lib_ascii.c **** /*
  89:..\..\..\..\..\..\Software\uC-LIB/lib_ascii.c **** ***************************************************************************************************
  90:..\..\..\..\..\..\Software\uC-LIB/lib_ascii.c **** *                                            LOCAL DEFINES
  91:..\..\..\..\..\..\Software\uC-LIB/lib_ascii.c **** ***************************************************************************************************
  92:..\..\..\..\..\..\Software\uC-LIB/lib_ascii.c **** */
  93:..\..\..\..\..\..\Software\uC-LIB/lib_ascii.c **** 
  94:..\..\..\..\..\..\Software\uC-LIB/lib_ascii.c **** 
  95:..\..\..\..\..\..\Software\uC-LIB/lib_ascii.c **** /*
  96:..\..\..\..\..\..\Software\uC-LIB/lib_ascii.c **** ***************************************************************************************************
  97:..\..\..\..\..\..\Software\uC-LIB/lib_ascii.c **** *                                           LOCAL CONSTANTS
  98:..\..\..\..\..\..\Software\uC-LIB/lib_ascii.c **** ***************************************************************************************************
  99:..\..\..\..\..\..\Software\uC-LIB/lib_ascii.c **** */
 100:..\..\..\..\..\..\Software\uC-LIB/lib_ascii.c **** 
 101:..\..\..\..\..\..\Software\uC-LIB/lib_ascii.c **** 
 102:..\..\..\..\..\..\Software\uC-LIB/lib_ascii.c **** /*
 103:..\..\..\..\..\..\Software\uC-LIB/lib_ascii.c **** ***************************************************************************************************
 104:..\..\..\..\..\..\Software\uC-LIB/lib_ascii.c **** *                                          LOCAL DATA TYPES
 105:..\..\..\..\..\..\Software\uC-LIB/lib_ascii.c **** ***************************************************************************************************
 106:..\..\..\..\..\..\Software\uC-LIB/lib_ascii.c **** */
 107:..\..\..\..\..\..\Software\uC-LIB/lib_ascii.c **** 
 108:..\..\..\..\..\..\Software\uC-LIB/lib_ascii.c **** 
 109:..\..\..\..\..\..\Software\uC-LIB/lib_ascii.c **** /*
 110:..\..\..\..\..\..\Software\uC-LIB/lib_ascii.c **** ***************************************************************************************************
 111:..\..\..\..\..\..\Software\uC-LIB/lib_ascii.c **** *                                            LOCAL TABLES
 112:..\..\..\..\..\..\Software\uC-LIB/lib_ascii.c **** ***************************************************************************************************
 113:..\..\..\..\..\..\Software\uC-LIB/lib_ascii.c **** */
 114:..\..\..\..\..\..\Software\uC-LIB/lib_ascii.c **** 
 115:..\..\..\..\..\..\Software\uC-LIB/lib_ascii.c **** 
 116:..\..\..\..\..\..\Software\uC-LIB/lib_ascii.c **** /*
 117:..\..\..\..\..\..\Software\uC-LIB/lib_ascii.c **** ***************************************************************************************************
 118:..\..\..\..\..\..\Software\uC-LIB/lib_ascii.c **** *                                       LOCAL GLOBAL VARIABLES
 119:..\..\..\..\..\..\Software\uC-LIB/lib_ascii.c **** ***************************************************************************************************
 120:..\..\..\..\..\..\Software\uC-LIB/lib_ascii.c **** */
 121:..\..\..\..\..\..\Software\uC-LIB/lib_ascii.c **** 
 122:..\..\..\..\..\..\Software\uC-LIB/lib_ascii.c **** 
 123:..\..\..\..\..\..\Software\uC-LIB/lib_ascii.c **** /*
 124:..\..\..\..\..\..\Software\uC-LIB/lib_ascii.c **** ***************************************************************************************************
 125:..\..\..\..\..\..\Software\uC-LIB/lib_ascii.c **** *                                      LOCAL FUNCTION PROTOTYPES
 126:..\..\..\..\..\..\Software\uC-LIB/lib_ascii.c **** ***************************************************************************************************
 127:..\..\..\..\..\..\Software\uC-LIB/lib_ascii.c **** */
 128:..\..\..\..\..\..\Software\uC-LIB/lib_ascii.c **** 
 129:..\..\..\..\..\..\Software\uC-LIB/lib_ascii.c **** 
 130:..\..\..\..\..\..\Software\uC-LIB/lib_ascii.c **** /*
 131:..\..\..\..\..\..\Software\uC-LIB/lib_ascii.c **** ***************************************************************************************************
 132:..\..\..\..\..\..\Software\uC-LIB/lib_ascii.c **** *                                     LOCAL CONFIGURATION ERRORS
 133:..\..\..\..\..\..\Software\uC-LIB/lib_ascii.c **** ***************************************************************************************************
 134:..\..\..\..\..\..\Software\uC-LIB/lib_ascii.c **** */
 135:..\..\..\..\..\..\Software\uC-LIB/lib_ascii.c **** 
 136:..\..\..\..\..\..\Software\uC-LIB/lib_ascii.c **** 
 137:..\..\..\..\..\..\Software\uC-LIB/lib_ascii.c **** /*
 138:..\..\..\..\..\..\Software\uC-LIB/lib_ascii.c **** ***************************************************************************************************
 139:..\..\..\..\..\..\Software\uC-LIB/lib_ascii.c **** *                                           ASCII_IsAlpha()
 140:..\..\..\..\..\..\Software\uC-LIB/lib_ascii.c **** *
 141:..\..\..\..\..\..\Software\uC-LIB/lib_ascii.c **** * Description : Determine whether a character is an alphabetic character.
 142:..\..\..\..\..\..\Software\uC-LIB/lib_ascii.c **** *
 143:..\..\..\..\..\..\Software\uC-LIB/lib_ascii.c **** * Argument(s) : c           Character to examine.
 144:..\..\..\..\..\..\Software\uC-LIB/lib_ascii.c **** *
ARM GAS  C:\Users\ADMINI~1\AppData\Local\Temp\ccZTZ2Zv.s 			page 4


 145:..\..\..\..\..\..\Software\uC-LIB/lib_ascii.c **** * Return(s)   : DEF_YES, if character is     an alphabetic character.
 146:..\..\..\..\..\..\Software\uC-LIB/lib_ascii.c **** *
 147:..\..\..\..\..\..\Software\uC-LIB/lib_ascii.c **** *               DEF_NO,     if character is NOT an alphabetic character.
 148:..\..\..\..\..\..\Software\uC-LIB/lib_ascii.c **** *
 149:..\..\..\..\..\..\Software\uC-LIB/lib_ascii.c **** * Caller(s)   : Application.
 150:..\..\..\..\..\..\Software\uC-LIB/lib_ascii.c **** *
 151:..\..\..\..\..\..\Software\uC-LIB/lib_ascii.c **** * Note(s)     : (1) ISO/IEC 9899:TC2, Section 7.4.1.2.(2) states that "isalpha() returns true only 
 152:..\..\..\..\..\..\Software\uC-LIB/lib_ascii.c **** *                   characters for which isupper() or islower() is true".
 153:..\..\..\..\..\..\Software\uC-LIB/lib_ascii.c **** ***************************************************************************************************
 154:..\..\..\..\..\..\Software\uC-LIB/lib_ascii.c **** */
 155:..\..\..\..\..\..\Software\uC-LIB/lib_ascii.c **** 
 156:..\..\..\..\..\..\Software\uC-LIB/lib_ascii.c **** CPU_BOOLEAN  ASCII_IsAlpha (CPU_CHAR  c)
 157:..\..\..\..\..\..\Software\uC-LIB/lib_ascii.c **** {
  28              		.loc 1 157 0
  29              		.cfi_startproc
  30              		@ args = 0, pretend = 0, frame = 16
  31              		@ frame_needed = 1, uses_anonymous_args = 0
  32 0000 80B5     		push	{r7, lr}
  33              		.cfi_def_cfa_offset 8
  34              		.cfi_offset 7, -8
  35              		.cfi_offset 14, -4
  36 0002 84B0     		sub	sp, sp, #16
  37              		.cfi_def_cfa_offset 24
  38 0004 00AF     		add	r7, sp, #0
  39              		.cfi_def_cfa_register 7
  40 0006 0200     		movs	r2, r0
  41 0008 FB1D     		adds	r3, r7, #7
  42 000a 1A70     		strb	r2, [r3]
 158:..\..\..\..\..\..\Software\uC-LIB/lib_ascii.c ****     CPU_BOOLEAN  alpha;
 159:..\..\..\..\..\..\Software\uC-LIB/lib_ascii.c **** 
 160:..\..\..\..\..\..\Software\uC-LIB/lib_ascii.c **** 
 161:..\..\..\..\..\..\Software\uC-LIB/lib_ascii.c ****     alpha = ASCII_IS_ALPHA(c);
  43              		.loc 1 161 0
  44 000c FB1D     		adds	r3, r7, #7
  45 000e 1B78     		ldrb	r3, [r3]
  46 0010 402B     		cmp	r3, #64
  47 0012 03D9     		bls	.L2
  48              		.loc 1 161 0 is_stmt 0 discriminator 1
  49 0014 FB1D     		adds	r3, r7, #7
  50 0016 1B78     		ldrb	r3, [r3]
  51 0018 5A2B     		cmp	r3, #90
  52 001a 07D9     		bls	.L3
  53              	.L2:
  54              		.loc 1 161 0 discriminator 4
  55 001c FB1D     		adds	r3, r7, #7
  56 001e 1B78     		ldrb	r3, [r3]
  57 0020 602B     		cmp	r3, #96
  58 0022 05D9     		bls	.L4
  59              		.loc 1 161 0 discriminator 5
  60 0024 FB1D     		adds	r3, r7, #7
  61 0026 1B78     		ldrb	r3, [r3]
  62 0028 7A2B     		cmp	r3, #122
  63 002a 01D8     		bhi	.L4
  64              	.L3:
  65              		.loc 1 161 0 discriminator 7
  66 002c 0122     		movs	r2, #1
  67 002e 00E0     		b	.L5
ARM GAS  C:\Users\ADMINI~1\AppData\Local\Temp\ccZTZ2Zv.s 			page 5


  68              	.L4:
  69              		.loc 1 161 0 discriminator 8
  70 0030 0022     		movs	r2, #0
  71              	.L5:
  72              		.loc 1 161 0 discriminator 10
  73 0032 0F23     		movs	r3, #15
  74 0034 FB18     		adds	r3, r7, r3
  75 0036 1A70     		strb	r2, [r3]
 162:..\..\..\..\..\..\Software\uC-LIB/lib_ascii.c **** 
 163:..\..\..\..\..\..\Software\uC-LIB/lib_ascii.c ****     return (alpha);
  76              		.loc 1 163 0 is_stmt 1 discriminator 10
  77 0038 0F23     		movs	r3, #15
  78 003a FB18     		adds	r3, r7, r3
  79 003c 1B78     		ldrb	r3, [r3]
 164:..\..\..\..\..\..\Software\uC-LIB/lib_ascii.c **** }
  80              		.loc 1 164 0 discriminator 10
  81 003e 1800     		movs	r0, r3
  82 0040 BD46     		mov	sp, r7
  83 0042 04B0     		add	sp, sp, #16
  84              		@ sp needed
  85 0044 80BD     		pop	{r7, pc}
  86              		.cfi_endproc
  87              	.LFE0:
  88              		.size	ASCII_IsAlpha, .-ASCII_IsAlpha
  89 0046 C046     		.section	.text.ASCII_IsAlphaNum,"ax",%progbits
  90              		.align	2
  91              		.global	ASCII_IsAlphaNum
  92              		.code	16
  93              		.thumb_func
  94              		.type	ASCII_IsAlphaNum, %function
  95              	ASCII_IsAlphaNum:
  96              	.LFB1:
 165:..\..\..\..\..\..\Software\uC-LIB/lib_ascii.c **** 
 166:..\..\..\..\..\..\Software\uC-LIB/lib_ascii.c **** 
 167:..\..\..\..\..\..\Software\uC-LIB/lib_ascii.c **** /*
 168:..\..\..\..\..\..\Software\uC-LIB/lib_ascii.c **** ***************************************************************************************************
 169:..\..\..\..\..\..\Software\uC-LIB/lib_ascii.c **** *                                         ASCII_IsAlphaNum()
 170:..\..\..\..\..\..\Software\uC-LIB/lib_ascii.c **** *
 171:..\..\..\..\..\..\Software\uC-LIB/lib_ascii.c **** * Description : Determine whether a character is an alphanumeric character.
 172:..\..\..\..\..\..\Software\uC-LIB/lib_ascii.c **** *
 173:..\..\..\..\..\..\Software\uC-LIB/lib_ascii.c **** * Argument(s) : c           Character to examine.
 174:..\..\..\..\..\..\Software\uC-LIB/lib_ascii.c **** *
 175:..\..\..\..\..\..\Software\uC-LIB/lib_ascii.c **** * Return(s)   : DEF_YES, if character is     an alphanumeric character.
 176:..\..\..\..\..\..\Software\uC-LIB/lib_ascii.c **** *
 177:..\..\..\..\..\..\Software\uC-LIB/lib_ascii.c **** *               DEF_NO,     if character is NOT an alphanumeric character.
 178:..\..\..\..\..\..\Software\uC-LIB/lib_ascii.c **** *
 179:..\..\..\..\..\..\Software\uC-LIB/lib_ascii.c **** * Caller(s)   : Application.
 180:..\..\..\..\..\..\Software\uC-LIB/lib_ascii.c **** *
 181:..\..\..\..\..\..\Software\uC-LIB/lib_ascii.c **** * Note(s)     : (1) ISO/IEC 9899:TC2, Section 7.4.1.1.(2) states that "isalnum() ... tests for any 
 182:..\..\..\..\..\..\Software\uC-LIB/lib_ascii.c **** *                   for which isalpha() or isdigit() is true".
 183:..\..\..\..\..\..\Software\uC-LIB/lib_ascii.c **** ***************************************************************************************************
 184:..\..\..\..\..\..\Software\uC-LIB/lib_ascii.c **** */
 185:..\..\..\..\..\..\Software\uC-LIB/lib_ascii.c **** 
 186:..\..\..\..\..\..\Software\uC-LIB/lib_ascii.c **** CPU_BOOLEAN  ASCII_IsAlphaNum (CPU_CHAR  c)
 187:..\..\..\..\..\..\Software\uC-LIB/lib_ascii.c **** {
  97              		.loc 1 187 0
  98              		.cfi_startproc
ARM GAS  C:\Users\ADMINI~1\AppData\Local\Temp\ccZTZ2Zv.s 			page 6


  99              		@ args = 0, pretend = 0, frame = 16
 100              		@ frame_needed = 1, uses_anonymous_args = 0
 101 0000 80B5     		push	{r7, lr}
 102              		.cfi_def_cfa_offset 8
 103              		.cfi_offset 7, -8
 104              		.cfi_offset 14, -4
 105 0002 84B0     		sub	sp, sp, #16
 106              		.cfi_def_cfa_offset 24
 107 0004 00AF     		add	r7, sp, #0
 108              		.cfi_def_cfa_register 7
 109 0006 0200     		movs	r2, r0
 110 0008 FB1D     		adds	r3, r7, #7
 111 000a 1A70     		strb	r2, [r3]
 188:..\..\..\..\..\..\Software\uC-LIB/lib_ascii.c ****     CPU_BOOLEAN  alpha_num;
 189:..\..\..\..\..\..\Software\uC-LIB/lib_ascii.c **** 
 190:..\..\..\..\..\..\Software\uC-LIB/lib_ascii.c **** 
 191:..\..\..\..\..\..\Software\uC-LIB/lib_ascii.c ****     alpha_num = ASCII_IS_ALPHA_NUM(c);
 112              		.loc 1 191 0
 113 000c FB1D     		adds	r3, r7, #7
 114 000e 1B78     		ldrb	r3, [r3]
 115 0010 402B     		cmp	r3, #64
 116 0012 03D9     		bls	.L8
 117              		.loc 1 191 0 is_stmt 0 discriminator 1
 118 0014 FB1D     		adds	r3, r7, #7
 119 0016 1B78     		ldrb	r3, [r3]
 120 0018 5A2B     		cmp	r3, #90
 121 001a 0FD9     		bls	.L9
 122              	.L8:
 123              		.loc 1 191 0 discriminator 4
 124 001c FB1D     		adds	r3, r7, #7
 125 001e 1B78     		ldrb	r3, [r3]
 126 0020 602B     		cmp	r3, #96
 127 0022 03D9     		bls	.L10
 128              		.loc 1 191 0 discriminator 5
 129 0024 FB1D     		adds	r3, r7, #7
 130 0026 1B78     		ldrb	r3, [r3]
 131 0028 7A2B     		cmp	r3, #122
 132 002a 07D9     		bls	.L9
 133              	.L10:
 134              		.loc 1 191 0 discriminator 8
 135 002c FB1D     		adds	r3, r7, #7
 136 002e 1B78     		ldrb	r3, [r3]
 137 0030 2F2B     		cmp	r3, #47
 138 0032 05D9     		bls	.L11
 139              		.loc 1 191 0 discriminator 9
 140 0034 FB1D     		adds	r3, r7, #7
 141 0036 1B78     		ldrb	r3, [r3]
 142 0038 392B     		cmp	r3, #57
 143 003a 01D8     		bhi	.L11
 144              	.L9:
 145              		.loc 1 191 0 discriminator 11
 146 003c 0122     		movs	r2, #1
 147 003e 00E0     		b	.L12
 148              	.L11:
 149              		.loc 1 191 0 discriminator 12
 150 0040 0022     		movs	r2, #0
 151              	.L12:
ARM GAS  C:\Users\ADMINI~1\AppData\Local\Temp\ccZTZ2Zv.s 			page 7


 152              		.loc 1 191 0 discriminator 14
 153 0042 0F23     		movs	r3, #15
 154 0044 FB18     		adds	r3, r7, r3
 155 0046 1A70     		strb	r2, [r3]
 192:..\..\..\..\..\..\Software\uC-LIB/lib_ascii.c **** 
 193:..\..\..\..\..\..\Software\uC-LIB/lib_ascii.c ****     return (alpha_num);
 156              		.loc 1 193 0 is_stmt 1 discriminator 14
 157 0048 0F23     		movs	r3, #15
 158 004a FB18     		adds	r3, r7, r3
 159 004c 1B78     		ldrb	r3, [r3]
 194:..\..\..\..\..\..\Software\uC-LIB/lib_ascii.c **** }
 160              		.loc 1 194 0 discriminator 14
 161 004e 1800     		movs	r0, r3
 162 0050 BD46     		mov	sp, r7
 163 0052 04B0     		add	sp, sp, #16
 164              		@ sp needed
 165 0054 80BD     		pop	{r7, pc}
 166              		.cfi_endproc
 167              	.LFE1:
 168              		.size	ASCII_IsAlphaNum, .-ASCII_IsAlphaNum
 169 0056 C046     		.section	.text.ASCII_IsLower,"ax",%progbits
 170              		.align	2
 171              		.global	ASCII_IsLower
 172              		.code	16
 173              		.thumb_func
 174              		.type	ASCII_IsLower, %function
 175              	ASCII_IsLower:
 176              	.LFB2:
 195:..\..\..\..\..\..\Software\uC-LIB/lib_ascii.c **** 
 196:..\..\..\..\..\..\Software\uC-LIB/lib_ascii.c **** 
 197:..\..\..\..\..\..\Software\uC-LIB/lib_ascii.c **** /*
 198:..\..\..\..\..\..\Software\uC-LIB/lib_ascii.c **** ***************************************************************************************************
 199:..\..\..\..\..\..\Software\uC-LIB/lib_ascii.c **** *                                           ASCII_IsLower()
 200:..\..\..\..\..\..\Software\uC-LIB/lib_ascii.c **** *
 201:..\..\..\..\..\..\Software\uC-LIB/lib_ascii.c **** * Description : Determine whether a character is a lowercase alphabetic character.
 202:..\..\..\..\..\..\Software\uC-LIB/lib_ascii.c **** *
 203:..\..\..\..\..\..\Software\uC-LIB/lib_ascii.c **** * Argument(s) : c           Character to examine.
 204:..\..\..\..\..\..\Software\uC-LIB/lib_ascii.c **** *
 205:..\..\..\..\..\..\Software\uC-LIB/lib_ascii.c **** * Return(s)   : DEF_YES, if character is     a lowercase alphabetic character.
 206:..\..\..\..\..\..\Software\uC-LIB/lib_ascii.c **** *
 207:..\..\..\..\..\..\Software\uC-LIB/lib_ascii.c **** *               DEF_NO,     if character is NOT a lowercase alphabetic character.
 208:..\..\..\..\..\..\Software\uC-LIB/lib_ascii.c **** *
 209:..\..\..\..\..\..\Software\uC-LIB/lib_ascii.c **** * Caller(s)   : Application.
 210:..\..\..\..\..\..\Software\uC-LIB/lib_ascii.c **** *
 211:..\..\..\..\..\..\Software\uC-LIB/lib_ascii.c **** * Note(s)     : (1) ISO/IEC 9899:TC2, Section 7.4.1.7.(2)  states that "islower() returns true only
 212:..\..\..\..\..\..\Software\uC-LIB/lib_ascii.c **** *                   the lowercase letters".
 213:..\..\..\..\..\..\Software\uC-LIB/lib_ascii.c **** ***************************************************************************************************
 214:..\..\..\..\..\..\Software\uC-LIB/lib_ascii.c **** */
 215:..\..\..\..\..\..\Software\uC-LIB/lib_ascii.c **** 
 216:..\..\..\..\..\..\Software\uC-LIB/lib_ascii.c **** CPU_BOOLEAN  ASCII_IsLower (CPU_CHAR  c)
 217:..\..\..\..\..\..\Software\uC-LIB/lib_ascii.c **** {
 177              		.loc 1 217 0
 178              		.cfi_startproc
 179              		@ args = 0, pretend = 0, frame = 16
 180              		@ frame_needed = 1, uses_anonymous_args = 0
 181 0000 80B5     		push	{r7, lr}
 182              		.cfi_def_cfa_offset 8
ARM GAS  C:\Users\ADMINI~1\AppData\Local\Temp\ccZTZ2Zv.s 			page 8


 183              		.cfi_offset 7, -8
 184              		.cfi_offset 14, -4
 185 0002 84B0     		sub	sp, sp, #16
 186              		.cfi_def_cfa_offset 24
 187 0004 00AF     		add	r7, sp, #0
 188              		.cfi_def_cfa_register 7
 189 0006 0200     		movs	r2, r0
 190 0008 FB1D     		adds	r3, r7, #7
 191 000a 1A70     		strb	r2, [r3]
 218:..\..\..\..\..\..\Software\uC-LIB/lib_ascii.c ****     CPU_BOOLEAN  lower;
 219:..\..\..\..\..\..\Software\uC-LIB/lib_ascii.c **** 
 220:..\..\..\..\..\..\Software\uC-LIB/lib_ascii.c **** 
 221:..\..\..\..\..\..\Software\uC-LIB/lib_ascii.c ****     lower = ASCII_IS_LOWER(c);
 192              		.loc 1 221 0
 193 000c FB1D     		adds	r3, r7, #7
 194 000e 1B78     		ldrb	r3, [r3]
 195 0010 602B     		cmp	r3, #96
 196 0012 05D9     		bls	.L15
 197              		.loc 1 221 0 is_stmt 0 discriminator 1
 198 0014 FB1D     		adds	r3, r7, #7
 199 0016 1B78     		ldrb	r3, [r3]
 200 0018 7A2B     		cmp	r3, #122
 201 001a 01D8     		bhi	.L15
 202              		.loc 1 221 0 discriminator 3
 203 001c 0122     		movs	r2, #1
 204 001e 00E0     		b	.L16
 205              	.L15:
 206              		.loc 1 221 0 discriminator 4
 207 0020 0022     		movs	r2, #0
 208              	.L16:
 209              		.loc 1 221 0 discriminator 6
 210 0022 0F23     		movs	r3, #15
 211 0024 FB18     		adds	r3, r7, r3
 212 0026 1A70     		strb	r2, [r3]
 222:..\..\..\..\..\..\Software\uC-LIB/lib_ascii.c **** 
 223:..\..\..\..\..\..\Software\uC-LIB/lib_ascii.c ****     return (lower);
 213              		.loc 1 223 0 is_stmt 1 discriminator 6
 214 0028 0F23     		movs	r3, #15
 215 002a FB18     		adds	r3, r7, r3
 216 002c 1B78     		ldrb	r3, [r3]
 224:..\..\..\..\..\..\Software\uC-LIB/lib_ascii.c **** }
 217              		.loc 1 224 0 discriminator 6
 218 002e 1800     		movs	r0, r3
 219 0030 BD46     		mov	sp, r7
 220 0032 04B0     		add	sp, sp, #16
 221              		@ sp needed
 222 0034 80BD     		pop	{r7, pc}
 223              		.cfi_endproc
 224              	.LFE2:
 225              		.size	ASCII_IsLower, .-ASCII_IsLower
 226 0036 C046     		.section	.text.ASCII_IsUpper,"ax",%progbits
 227              		.align	2
 228              		.global	ASCII_IsUpper
 229              		.code	16
 230              		.thumb_func
 231              		.type	ASCII_IsUpper, %function
 232              	ASCII_IsUpper:
ARM GAS  C:\Users\ADMINI~1\AppData\Local\Temp\ccZTZ2Zv.s 			page 9


 233              	.LFB3:
 225:..\..\..\..\..\..\Software\uC-LIB/lib_ascii.c **** 
 226:..\..\..\..\..\..\Software\uC-LIB/lib_ascii.c **** 
 227:..\..\..\..\..\..\Software\uC-LIB/lib_ascii.c **** /*
 228:..\..\..\..\..\..\Software\uC-LIB/lib_ascii.c **** ***************************************************************************************************
 229:..\..\..\..\..\..\Software\uC-LIB/lib_ascii.c **** *                                           ASCII_IsUpper()
 230:..\..\..\..\..\..\Software\uC-LIB/lib_ascii.c **** *
 231:..\..\..\..\..\..\Software\uC-LIB/lib_ascii.c **** * Description : Determine whether a character is an uppercase alphabetic character.
 232:..\..\..\..\..\..\Software\uC-LIB/lib_ascii.c **** *
 233:..\..\..\..\..\..\Software\uC-LIB/lib_ascii.c **** * Argument(s) : c           Character to examine.
 234:..\..\..\..\..\..\Software\uC-LIB/lib_ascii.c **** *
 235:..\..\..\..\..\..\Software\uC-LIB/lib_ascii.c **** * Return(s)   : DEF_YES, if character is     an uppercase alphabetic character.
 236:..\..\..\..\..\..\Software\uC-LIB/lib_ascii.c **** *
 237:..\..\..\..\..\..\Software\uC-LIB/lib_ascii.c **** *               DEF_NO,     if character is NOT an uppercase alphabetic character.
 238:..\..\..\..\..\..\Software\uC-LIB/lib_ascii.c **** *
 239:..\..\..\..\..\..\Software\uC-LIB/lib_ascii.c **** * Caller(s)   : Application.
 240:..\..\..\..\..\..\Software\uC-LIB/lib_ascii.c **** *
 241:..\..\..\..\..\..\Software\uC-LIB/lib_ascii.c **** * Note(s)     : (1) ISO/IEC 9899:TC2, Section 7.4.1.11.(2) states that "isupper() returns true only
 242:..\..\..\..\..\..\Software\uC-LIB/lib_ascii.c **** *                   the uppercase letters".
 243:..\..\..\..\..\..\Software\uC-LIB/lib_ascii.c **** ***************************************************************************************************
 244:..\..\..\..\..\..\Software\uC-LIB/lib_ascii.c **** */
 245:..\..\..\..\..\..\Software\uC-LIB/lib_ascii.c **** 
 246:..\..\..\..\..\..\Software\uC-LIB/lib_ascii.c **** CPU_BOOLEAN  ASCII_IsUpper (CPU_CHAR  c)
 247:..\..\..\..\..\..\Software\uC-LIB/lib_ascii.c **** {
 234              		.loc 1 247 0
 235              		.cfi_startproc
 236              		@ args = 0, pretend = 0, frame = 16
 237              		@ frame_needed = 1, uses_anonymous_args = 0
 238 0000 80B5     		push	{r7, lr}
 239              		.cfi_def_cfa_offset 8
 240              		.cfi_offset 7, -8
 241              		.cfi_offset 14, -4
 242 0002 84B0     		sub	sp, sp, #16
 243              		.cfi_def_cfa_offset 24
 244 0004 00AF     		add	r7, sp, #0
 245              		.cfi_def_cfa_register 7
 246 0006 0200     		movs	r2, r0
 247 0008 FB1D     		adds	r3, r7, #7
 248 000a 1A70     		strb	r2, [r3]
 248:..\..\..\..\..\..\Software\uC-LIB/lib_ascii.c ****     CPU_BOOLEAN  upper;
 249:..\..\..\..\..\..\Software\uC-LIB/lib_ascii.c **** 
 250:..\..\..\..\..\..\Software\uC-LIB/lib_ascii.c **** 
 251:..\..\..\..\..\..\Software\uC-LIB/lib_ascii.c ****     upper = ASCII_IS_UPPER(c);
 249              		.loc 1 251 0
 250 000c FB1D     		adds	r3, r7, #7
 251 000e 1B78     		ldrb	r3, [r3]
 252 0010 402B     		cmp	r3, #64
 253 0012 05D9     		bls	.L19
 254              		.loc 1 251 0 is_stmt 0 discriminator 1
 255 0014 FB1D     		adds	r3, r7, #7
 256 0016 1B78     		ldrb	r3, [r3]
 257 0018 5A2B     		cmp	r3, #90
 258 001a 01D8     		bhi	.L19
 259              		.loc 1 251 0 discriminator 3
 260 001c 0122     		movs	r2, #1
 261 001e 00E0     		b	.L20
 262              	.L19:
ARM GAS  C:\Users\ADMINI~1\AppData\Local\Temp\ccZTZ2Zv.s 			page 10


 263              		.loc 1 251 0 discriminator 4
 264 0020 0022     		movs	r2, #0
 265              	.L20:
 266              		.loc 1 251 0 discriminator 6
 267 0022 0F23     		movs	r3, #15
 268 0024 FB18     		adds	r3, r7, r3
 269 0026 1A70     		strb	r2, [r3]
 252:..\..\..\..\..\..\Software\uC-LIB/lib_ascii.c **** 
 253:..\..\..\..\..\..\Software\uC-LIB/lib_ascii.c ****     return (upper);
 270              		.loc 1 253 0 is_stmt 1 discriminator 6
 271 0028 0F23     		movs	r3, #15
 272 002a FB18     		adds	r3, r7, r3
 273 002c 1B78     		ldrb	r3, [r3]
 254:..\..\..\..\..\..\Software\uC-LIB/lib_ascii.c **** }
 274              		.loc 1 254 0 discriminator 6
 275 002e 1800     		movs	r0, r3
 276 0030 BD46     		mov	sp, r7
 277 0032 04B0     		add	sp, sp, #16
 278              		@ sp needed
 279 0034 80BD     		pop	{r7, pc}
 280              		.cfi_endproc
 281              	.LFE3:
 282              		.size	ASCII_IsUpper, .-ASCII_IsUpper
 283 0036 C046     		.section	.text.ASCII_IsDig,"ax",%progbits
 284              		.align	2
 285              		.global	ASCII_IsDig
 286              		.code	16
 287              		.thumb_func
 288              		.type	ASCII_IsDig, %function
 289              	ASCII_IsDig:
 290              	.LFB4:
 255:..\..\..\..\..\..\Software\uC-LIB/lib_ascii.c **** 
 256:..\..\..\..\..\..\Software\uC-LIB/lib_ascii.c **** 
 257:..\..\..\..\..\..\Software\uC-LIB/lib_ascii.c **** /*
 258:..\..\..\..\..\..\Software\uC-LIB/lib_ascii.c **** ***************************************************************************************************
 259:..\..\..\..\..\..\Software\uC-LIB/lib_ascii.c **** *                                            ASCII_IsDig()
 260:..\..\..\..\..\..\Software\uC-LIB/lib_ascii.c **** *
 261:..\..\..\..\..\..\Software\uC-LIB/lib_ascii.c **** * Description : Determine whether a character is a decimal-digit character.
 262:..\..\..\..\..\..\Software\uC-LIB/lib_ascii.c **** *
 263:..\..\..\..\..\..\Software\uC-LIB/lib_ascii.c **** * Argument(s) : c           Character to examine.
 264:..\..\..\..\..\..\Software\uC-LIB/lib_ascii.c **** *
 265:..\..\..\..\..\..\Software\uC-LIB/lib_ascii.c **** * Return(s)   : DEF_YES, if character is     a decimal-digit character.
 266:..\..\..\..\..\..\Software\uC-LIB/lib_ascii.c **** *
 267:..\..\..\..\..\..\Software\uC-LIB/lib_ascii.c **** *               DEF_NO,     if character is NOT a decimal-digit character.
 268:..\..\..\..\..\..\Software\uC-LIB/lib_ascii.c **** *
 269:..\..\..\..\..\..\Software\uC-LIB/lib_ascii.c **** * Caller(s)   : Application.
 270:..\..\..\..\..\..\Software\uC-LIB/lib_ascii.c **** *
 271:..\..\..\..\..\..\Software\uC-LIB/lib_ascii.c **** * Note(s)     : (1) ISO/IEC 9899:TC2, Section 7.4.1.5.(2)  states that "isdigit()  ... tests for an
 272:..\..\..\..\..\..\Software\uC-LIB/lib_ascii.c **** *                   decimal-digit character".
 273:..\..\..\..\..\..\Software\uC-LIB/lib_ascii.c **** ***************************************************************************************************
 274:..\..\..\..\..\..\Software\uC-LIB/lib_ascii.c **** */
 275:..\..\..\..\..\..\Software\uC-LIB/lib_ascii.c **** 
 276:..\..\..\..\..\..\Software\uC-LIB/lib_ascii.c **** CPU_BOOLEAN  ASCII_IsDig (CPU_CHAR  c)
 277:..\..\..\..\..\..\Software\uC-LIB/lib_ascii.c **** {
 291              		.loc 1 277 0
 292              		.cfi_startproc
 293              		@ args = 0, pretend = 0, frame = 16
ARM GAS  C:\Users\ADMINI~1\AppData\Local\Temp\ccZTZ2Zv.s 			page 11


 294              		@ frame_needed = 1, uses_anonymous_args = 0
 295 0000 80B5     		push	{r7, lr}
 296              		.cfi_def_cfa_offset 8
 297              		.cfi_offset 7, -8
 298              		.cfi_offset 14, -4
 299 0002 84B0     		sub	sp, sp, #16
 300              		.cfi_def_cfa_offset 24
 301 0004 00AF     		add	r7, sp, #0
 302              		.cfi_def_cfa_register 7
 303 0006 0200     		movs	r2, r0
 304 0008 FB1D     		adds	r3, r7, #7
 305 000a 1A70     		strb	r2, [r3]
 278:..\..\..\..\..\..\Software\uC-LIB/lib_ascii.c ****     CPU_BOOLEAN  dig;
 279:..\..\..\..\..\..\Software\uC-LIB/lib_ascii.c **** 
 280:..\..\..\..\..\..\Software\uC-LIB/lib_ascii.c **** 
 281:..\..\..\..\..\..\Software\uC-LIB/lib_ascii.c ****     dig = ASCII_IS_DIG(c);
 306              		.loc 1 281 0
 307 000c FB1D     		adds	r3, r7, #7
 308 000e 1B78     		ldrb	r3, [r3]
 309 0010 2F2B     		cmp	r3, #47
 310 0012 05D9     		bls	.L23
 311              		.loc 1 281 0 is_stmt 0 discriminator 1
 312 0014 FB1D     		adds	r3, r7, #7
 313 0016 1B78     		ldrb	r3, [r3]
 314 0018 392B     		cmp	r3, #57
 315 001a 01D8     		bhi	.L23
 316              		.loc 1 281 0 discriminator 3
 317 001c 0122     		movs	r2, #1
 318 001e 00E0     		b	.L24
 319              	.L23:
 320              		.loc 1 281 0 discriminator 4
 321 0020 0022     		movs	r2, #0
 322              	.L24:
 323              		.loc 1 281 0 discriminator 6
 324 0022 0F23     		movs	r3, #15
 325 0024 FB18     		adds	r3, r7, r3
 326 0026 1A70     		strb	r2, [r3]
 282:..\..\..\..\..\..\Software\uC-LIB/lib_ascii.c **** 
 283:..\..\..\..\..\..\Software\uC-LIB/lib_ascii.c ****     return (dig);
 327              		.loc 1 283 0 is_stmt 1 discriminator 6
 328 0028 0F23     		movs	r3, #15
 329 002a FB18     		adds	r3, r7, r3
 330 002c 1B78     		ldrb	r3, [r3]
 284:..\..\..\..\..\..\Software\uC-LIB/lib_ascii.c **** }
 331              		.loc 1 284 0 discriminator 6
 332 002e 1800     		movs	r0, r3
 333 0030 BD46     		mov	sp, r7
 334 0032 04B0     		add	sp, sp, #16
 335              		@ sp needed
 336 0034 80BD     		pop	{r7, pc}
 337              		.cfi_endproc
 338              	.LFE4:
 339              		.size	ASCII_IsDig, .-ASCII_IsDig
 340 0036 C046     		.section	.text.ASCII_IsDigOct,"ax",%progbits
 341              		.align	2
 342              		.global	ASCII_IsDigOct
 343              		.code	16
ARM GAS  C:\Users\ADMINI~1\AppData\Local\Temp\ccZTZ2Zv.s 			page 12


 344              		.thumb_func
 345              		.type	ASCII_IsDigOct, %function
 346              	ASCII_IsDigOct:
 347              	.LFB5:
 285:..\..\..\..\..\..\Software\uC-LIB/lib_ascii.c **** 
 286:..\..\..\..\..\..\Software\uC-LIB/lib_ascii.c **** 
 287:..\..\..\..\..\..\Software\uC-LIB/lib_ascii.c **** /*
 288:..\..\..\..\..\..\Software\uC-LIB/lib_ascii.c **** ***************************************************************************************************
 289:..\..\..\..\..\..\Software\uC-LIB/lib_ascii.c **** *                                          ASCII_IsDigOct()
 290:..\..\..\..\..\..\Software\uC-LIB/lib_ascii.c **** *
 291:..\..\..\..\..\..\Software\uC-LIB/lib_ascii.c **** * Description : Determine whether a character is an octal-digit character.
 292:..\..\..\..\..\..\Software\uC-LIB/lib_ascii.c **** *
 293:..\..\..\..\..\..\Software\uC-LIB/lib_ascii.c **** * Argument(s) : c           Character to examine.
 294:..\..\..\..\..\..\Software\uC-LIB/lib_ascii.c **** *
 295:..\..\..\..\..\..\Software\uC-LIB/lib_ascii.c **** * Return(s)   : DEF_YES, if character is     an octal-digit character.
 296:..\..\..\..\..\..\Software\uC-LIB/lib_ascii.c **** *
 297:..\..\..\..\..\..\Software\uC-LIB/lib_ascii.c **** *               DEF_NO,     if character is NOT an octal-digit character.
 298:..\..\..\..\..\..\Software\uC-LIB/lib_ascii.c **** *
 299:..\..\..\..\..\..\Software\uC-LIB/lib_ascii.c **** * Caller(s)   : Application.
 300:..\..\..\..\..\..\Software\uC-LIB/lib_ascii.c **** *
 301:..\..\..\..\..\..\Software\uC-LIB/lib_ascii.c **** * Note(s)     : none.
 302:..\..\..\..\..\..\Software\uC-LIB/lib_ascii.c **** ***************************************************************************************************
 303:..\..\..\..\..\..\Software\uC-LIB/lib_ascii.c **** */
 304:..\..\..\..\..\..\Software\uC-LIB/lib_ascii.c **** 
 305:..\..\..\..\..\..\Software\uC-LIB/lib_ascii.c **** CPU_BOOLEAN  ASCII_IsDigOct (CPU_CHAR  c)
 306:..\..\..\..\..\..\Software\uC-LIB/lib_ascii.c **** {
 348              		.loc 1 306 0
 349              		.cfi_startproc
 350              		@ args = 0, pretend = 0, frame = 16
 351              		@ frame_needed = 1, uses_anonymous_args = 0
 352 0000 80B5     		push	{r7, lr}
 353              		.cfi_def_cfa_offset 8
 354              		.cfi_offset 7, -8
 355              		.cfi_offset 14, -4
 356 0002 84B0     		sub	sp, sp, #16
 357              		.cfi_def_cfa_offset 24
 358 0004 00AF     		add	r7, sp, #0
 359              		.cfi_def_cfa_register 7
 360 0006 0200     		movs	r2, r0
 361 0008 FB1D     		adds	r3, r7, #7
 362 000a 1A70     		strb	r2, [r3]
 307:..\..\..\..\..\..\Software\uC-LIB/lib_ascii.c ****     CPU_BOOLEAN  dig_oct;
 308:..\..\..\..\..\..\Software\uC-LIB/lib_ascii.c **** 
 309:..\..\..\..\..\..\Software\uC-LIB/lib_ascii.c **** 
 310:..\..\..\..\..\..\Software\uC-LIB/lib_ascii.c ****     dig_oct = ASCII_IS_DIG_OCT(c);
 363              		.loc 1 310 0
 364 000c FB1D     		adds	r3, r7, #7
 365 000e 1B78     		ldrb	r3, [r3]
 366 0010 2F2B     		cmp	r3, #47
 367 0012 05D9     		bls	.L27
 368              		.loc 1 310 0 is_stmt 0 discriminator 1
 369 0014 FB1D     		adds	r3, r7, #7
 370 0016 1B78     		ldrb	r3, [r3]
 371 0018 372B     		cmp	r3, #55
 372 001a 01D8     		bhi	.L27
 373              		.loc 1 310 0 discriminator 3
 374 001c 0122     		movs	r2, #1
ARM GAS  C:\Users\ADMINI~1\AppData\Local\Temp\ccZTZ2Zv.s 			page 13


 375 001e 00E0     		b	.L28
 376              	.L27:
 377              		.loc 1 310 0 discriminator 4
 378 0020 0022     		movs	r2, #0
 379              	.L28:
 380              		.loc 1 310 0 discriminator 6
 381 0022 0F23     		movs	r3, #15
 382 0024 FB18     		adds	r3, r7, r3
 383 0026 1A70     		strb	r2, [r3]
 311:..\..\..\..\..\..\Software\uC-LIB/lib_ascii.c **** 
 312:..\..\..\..\..\..\Software\uC-LIB/lib_ascii.c ****     return (dig_oct);
 384              		.loc 1 312 0 is_stmt 1 discriminator 6
 385 0028 0F23     		movs	r3, #15
 386 002a FB18     		adds	r3, r7, r3
 387 002c 1B78     		ldrb	r3, [r3]
 313:..\..\..\..\..\..\Software\uC-LIB/lib_ascii.c **** }
 388              		.loc 1 313 0 discriminator 6
 389 002e 1800     		movs	r0, r3
 390 0030 BD46     		mov	sp, r7
 391 0032 04B0     		add	sp, sp, #16
 392              		@ sp needed
 393 0034 80BD     		pop	{r7, pc}
 394              		.cfi_endproc
 395              	.LFE5:
 396              		.size	ASCII_IsDigOct, .-ASCII_IsDigOct
 397 0036 C046     		.section	.text.ASCII_IsDigHex,"ax",%progbits
 398              		.align	2
 399              		.global	ASCII_IsDigHex
 400              		.code	16
 401              		.thumb_func
 402              		.type	ASCII_IsDigHex, %function
 403              	ASCII_IsDigHex:
 404              	.LFB6:
 314:..\..\..\..\..\..\Software\uC-LIB/lib_ascii.c **** 
 315:..\..\..\..\..\..\Software\uC-LIB/lib_ascii.c **** 
 316:..\..\..\..\..\..\Software\uC-LIB/lib_ascii.c **** /*
 317:..\..\..\..\..\..\Software\uC-LIB/lib_ascii.c **** ***************************************************************************************************
 318:..\..\..\..\..\..\Software\uC-LIB/lib_ascii.c **** *                                          ASCII_IsDigHex()
 319:..\..\..\..\..\..\Software\uC-LIB/lib_ascii.c **** *
 320:..\..\..\..\..\..\Software\uC-LIB/lib_ascii.c **** * Description : Determine whether a character is a hexadecimal-digit character.
 321:..\..\..\..\..\..\Software\uC-LIB/lib_ascii.c **** *
 322:..\..\..\..\..\..\Software\uC-LIB/lib_ascii.c **** * Argument(s) : c           Character to examine.
 323:..\..\..\..\..\..\Software\uC-LIB/lib_ascii.c **** *
 324:..\..\..\..\..\..\Software\uC-LIB/lib_ascii.c **** * Return(s)   : DEF_YES, if character is     a hexadecimal-digit character.
 325:..\..\..\..\..\..\Software\uC-LIB/lib_ascii.c **** *
 326:..\..\..\..\..\..\Software\uC-LIB/lib_ascii.c **** *               DEF_NO,     if character is NOT a hexadecimal-digit character.
 327:..\..\..\..\..\..\Software\uC-LIB/lib_ascii.c **** *
 328:..\..\..\..\..\..\Software\uC-LIB/lib_ascii.c **** * Caller(s)   : Application.
 329:..\..\..\..\..\..\Software\uC-LIB/lib_ascii.c **** *
 330:..\..\..\..\..\..\Software\uC-LIB/lib_ascii.c **** * Note(s)     : (1) ISO/IEC 9899:TC2, Section 7.4.1.12.(2) states that "isxdigit() ... tests for an
 331:..\..\..\..\..\..\Software\uC-LIB/lib_ascii.c **** *                   hexadecimal-digit character".
 332:..\..\..\..\..\..\Software\uC-LIB/lib_ascii.c **** ***************************************************************************************************
 333:..\..\..\..\..\..\Software\uC-LIB/lib_ascii.c **** */
 334:..\..\..\..\..\..\Software\uC-LIB/lib_ascii.c **** 
 335:..\..\..\..\..\..\Software\uC-LIB/lib_ascii.c **** CPU_BOOLEAN  ASCII_IsDigHex (CPU_CHAR  c)
 336:..\..\..\..\..\..\Software\uC-LIB/lib_ascii.c **** {
 405              		.loc 1 336 0
ARM GAS  C:\Users\ADMINI~1\AppData\Local\Temp\ccZTZ2Zv.s 			page 14


 406              		.cfi_startproc
 407              		@ args = 0, pretend = 0, frame = 16
 408              		@ frame_needed = 1, uses_anonymous_args = 0
 409 0000 80B5     		push	{r7, lr}
 410              		.cfi_def_cfa_offset 8
 411              		.cfi_offset 7, -8
 412              		.cfi_offset 14, -4
 413 0002 84B0     		sub	sp, sp, #16
 414              		.cfi_def_cfa_offset 24
 415 0004 00AF     		add	r7, sp, #0
 416              		.cfi_def_cfa_register 7
 417 0006 0200     		movs	r2, r0
 418 0008 FB1D     		adds	r3, r7, #7
 419 000a 1A70     		strb	r2, [r3]
 337:..\..\..\..\..\..\Software\uC-LIB/lib_ascii.c ****     CPU_BOOLEAN  dig_hex;
 338:..\..\..\..\..\..\Software\uC-LIB/lib_ascii.c **** 
 339:..\..\..\..\..\..\Software\uC-LIB/lib_ascii.c **** 
 340:..\..\..\..\..\..\Software\uC-LIB/lib_ascii.c ****     dig_hex = ASCII_IS_DIG_HEX(c);
 420              		.loc 1 340 0
 421 000c FB1D     		adds	r3, r7, #7
 422 000e 1B78     		ldrb	r3, [r3]
 423 0010 2F2B     		cmp	r3, #47
 424 0012 03D9     		bls	.L31
 425              		.loc 1 340 0 is_stmt 0 discriminator 1
 426 0014 FB1D     		adds	r3, r7, #7
 427 0016 1B78     		ldrb	r3, [r3]
 428 0018 392B     		cmp	r3, #57
 429 001a 0FD9     		bls	.L32
 430              	.L31:
 431              		.loc 1 340 0 discriminator 4
 432 001c FB1D     		adds	r3, r7, #7
 433 001e 1B78     		ldrb	r3, [r3]
 434 0020 402B     		cmp	r3, #64
 435 0022 03D9     		bls	.L33
 436              		.loc 1 340 0 discriminator 5
 437 0024 FB1D     		adds	r3, r7, #7
 438 0026 1B78     		ldrb	r3, [r3]
 439 0028 462B     		cmp	r3, #70
 440 002a 07D9     		bls	.L32
 441              	.L33:
 442              		.loc 1 340 0 discriminator 8
 443 002c FB1D     		adds	r3, r7, #7
 444 002e 1B78     		ldrb	r3, [r3]
 445 0030 602B     		cmp	r3, #96
 446 0032 05D9     		bls	.L34
 447              		.loc 1 340 0 discriminator 9
 448 0034 FB1D     		adds	r3, r7, #7
 449 0036 1B78     		ldrb	r3, [r3]
 450 0038 662B     		cmp	r3, #102
 451 003a 01D8     		bhi	.L34
 452              	.L32:
 453              		.loc 1 340 0 discriminator 11
 454 003c 0122     		movs	r2, #1
 455 003e 00E0     		b	.L35
 456              	.L34:
 457              		.loc 1 340 0 discriminator 12
 458 0040 0022     		movs	r2, #0
ARM GAS  C:\Users\ADMINI~1\AppData\Local\Temp\ccZTZ2Zv.s 			page 15


 459              	.L35:
 460              		.loc 1 340 0 discriminator 14
 461 0042 0F23     		movs	r3, #15
 462 0044 FB18     		adds	r3, r7, r3
 463 0046 1A70     		strb	r2, [r3]
 341:..\..\..\..\..\..\Software\uC-LIB/lib_ascii.c **** 
 342:..\..\..\..\..\..\Software\uC-LIB/lib_ascii.c ****     return (dig_hex);
 464              		.loc 1 342 0 is_stmt 1 discriminator 14
 465 0048 0F23     		movs	r3, #15
 466 004a FB18     		adds	r3, r7, r3
 467 004c 1B78     		ldrb	r3, [r3]
 343:..\..\..\..\..\..\Software\uC-LIB/lib_ascii.c **** }
 468              		.loc 1 343 0 discriminator 14
 469 004e 1800     		movs	r0, r3
 470 0050 BD46     		mov	sp, r7
 471 0052 04B0     		add	sp, sp, #16
 472              		@ sp needed
 473 0054 80BD     		pop	{r7, pc}
 474              		.cfi_endproc
 475              	.LFE6:
 476              		.size	ASCII_IsDigHex, .-ASCII_IsDigHex
 477 0056 C046     		.section	.text.ASCII_IsBlank,"ax",%progbits
 478              		.align	2
 479              		.global	ASCII_IsBlank
 480              		.code	16
 481              		.thumb_func
 482              		.type	ASCII_IsBlank, %function
 483              	ASCII_IsBlank:
 484              	.LFB7:
 344:..\..\..\..\..\..\Software\uC-LIB/lib_ascii.c **** 
 345:..\..\..\..\..\..\Software\uC-LIB/lib_ascii.c **** 
 346:..\..\..\..\..\..\Software\uC-LIB/lib_ascii.c **** /*
 347:..\..\..\..\..\..\Software\uC-LIB/lib_ascii.c **** ***************************************************************************************************
 348:..\..\..\..\..\..\Software\uC-LIB/lib_ascii.c **** *                                           ASCII_IsBlank()
 349:..\..\..\..\..\..\Software\uC-LIB/lib_ascii.c **** *
 350:..\..\..\..\..\..\Software\uC-LIB/lib_ascii.c **** * Description : Determine whether a character is a standard blank character.
 351:..\..\..\..\..\..\Software\uC-LIB/lib_ascii.c **** *
 352:..\..\..\..\..\..\Software\uC-LIB/lib_ascii.c **** * Argument(s) : c           Character to examine.
 353:..\..\..\..\..\..\Software\uC-LIB/lib_ascii.c **** *
 354:..\..\..\..\..\..\Software\uC-LIB/lib_ascii.c **** * Return(s)   : DEF_YES, if character is     a standard blank character.
 355:..\..\..\..\..\..\Software\uC-LIB/lib_ascii.c **** *
 356:..\..\..\..\..\..\Software\uC-LIB/lib_ascii.c **** *               DEF_NO,     if character is NOT a standard blank character.
 357:..\..\..\..\..\..\Software\uC-LIB/lib_ascii.c **** *
 358:..\..\..\..\..\..\Software\uC-LIB/lib_ascii.c **** * Caller(s)   : Application.
 359:..\..\..\..\..\..\Software\uC-LIB/lib_ascii.c **** *
 360:..\..\..\..\..\..\Software\uC-LIB/lib_ascii.c **** * Note(s)     : (1) (a) ISO/IEC 9899:TC2, Section 7.4.1.3.(2) states that "isblank() returns true o
 361:..\..\..\..\..\..\Software\uC-LIB/lib_ascii.c **** *                       the standard blank characters".
 362:..\..\..\..\..\..\Software\uC-LIB/lib_ascii.c **** *
 363:..\..\..\..\..\..\Software\uC-LIB/lib_ascii.c **** *                   (b) ISO/IEC 9899:TC2, Section 7.4.1.3.(2) defines "the standard blank character
 364:..\..\..\..\..\..\Software\uC-LIB/lib_ascii.c **** *                       the "space (' '), and horizontal tab ('\t')".
 365:..\..\..\..\..\..\Software\uC-LIB/lib_ascii.c **** ***************************************************************************************************
 366:..\..\..\..\..\..\Software\uC-LIB/lib_ascii.c **** */
 367:..\..\..\..\..\..\Software\uC-LIB/lib_ascii.c **** 
 368:..\..\..\..\..\..\Software\uC-LIB/lib_ascii.c **** CPU_BOOLEAN  ASCII_IsBlank (CPU_CHAR  c)
 369:..\..\..\..\..\..\Software\uC-LIB/lib_ascii.c **** {
 485              		.loc 1 369 0
 486              		.cfi_startproc
ARM GAS  C:\Users\ADMINI~1\AppData\Local\Temp\ccZTZ2Zv.s 			page 16


 487              		@ args = 0, pretend = 0, frame = 16
 488              		@ frame_needed = 1, uses_anonymous_args = 0
 489 0000 80B5     		push	{r7, lr}
 490              		.cfi_def_cfa_offset 8
 491              		.cfi_offset 7, -8
 492              		.cfi_offset 14, -4
 493 0002 84B0     		sub	sp, sp, #16
 494              		.cfi_def_cfa_offset 24
 495 0004 00AF     		add	r7, sp, #0
 496              		.cfi_def_cfa_register 7
 497 0006 0200     		movs	r2, r0
 498 0008 FB1D     		adds	r3, r7, #7
 499 000a 1A70     		strb	r2, [r3]
 370:..\..\..\..\..\..\Software\uC-LIB/lib_ascii.c ****     CPU_BOOLEAN  blank;
 371:..\..\..\..\..\..\Software\uC-LIB/lib_ascii.c **** 
 372:..\..\..\..\..\..\Software\uC-LIB/lib_ascii.c **** 
 373:..\..\..\..\..\..\Software\uC-LIB/lib_ascii.c ****     blank = ASCII_IS_BLANK(c);
 500              		.loc 1 373 0
 501 000c FB1D     		adds	r3, r7, #7
 502 000e 1B78     		ldrb	r3, [r3]
 503 0010 202B     		cmp	r3, #32
 504 0012 03D0     		beq	.L38
 505              		.loc 1 373 0 is_stmt 0 discriminator 2
 506 0014 FB1D     		adds	r3, r7, #7
 507 0016 1B78     		ldrb	r3, [r3]
 508 0018 092B     		cmp	r3, #9
 509 001a 01D1     		bne	.L39
 510              	.L38:
 511              		.loc 1 373 0 discriminator 3
 512 001c 0122     		movs	r2, #1
 513 001e 00E0     		b	.L40
 514              	.L39:
 515              		.loc 1 373 0 discriminator 4
 516 0020 0022     		movs	r2, #0
 517              	.L40:
 518              		.loc 1 373 0 discriminator 6
 519 0022 0F23     		movs	r3, #15
 520 0024 FB18     		adds	r3, r7, r3
 521 0026 1A70     		strb	r2, [r3]
 374:..\..\..\..\..\..\Software\uC-LIB/lib_ascii.c **** 
 375:..\..\..\..\..\..\Software\uC-LIB/lib_ascii.c ****     return (blank);
 522              		.loc 1 375 0 is_stmt 1 discriminator 6
 523 0028 0F23     		movs	r3, #15
 524 002a FB18     		adds	r3, r7, r3
 525 002c 1B78     		ldrb	r3, [r3]
 376:..\..\..\..\..\..\Software\uC-LIB/lib_ascii.c **** }
 526              		.loc 1 376 0 discriminator 6
 527 002e 1800     		movs	r0, r3
 528 0030 BD46     		mov	sp, r7
 529 0032 04B0     		add	sp, sp, #16
 530              		@ sp needed
 531 0034 80BD     		pop	{r7, pc}
 532              		.cfi_endproc
 533              	.LFE7:
 534              		.size	ASCII_IsBlank, .-ASCII_IsBlank
 535 0036 C046     		.section	.text.ASCII_IsSpace,"ax",%progbits
 536              		.align	2
ARM GAS  C:\Users\ADMINI~1\AppData\Local\Temp\ccZTZ2Zv.s 			page 17


 537              		.global	ASCII_IsSpace
 538              		.code	16
 539              		.thumb_func
 540              		.type	ASCII_IsSpace, %function
 541              	ASCII_IsSpace:
 542              	.LFB8:
 377:..\..\..\..\..\..\Software\uC-LIB/lib_ascii.c **** 
 378:..\..\..\..\..\..\Software\uC-LIB/lib_ascii.c **** 
 379:..\..\..\..\..\..\Software\uC-LIB/lib_ascii.c **** /*
 380:..\..\..\..\..\..\Software\uC-LIB/lib_ascii.c **** ***************************************************************************************************
 381:..\..\..\..\..\..\Software\uC-LIB/lib_ascii.c **** *                                           ASCII_IsSpace()
 382:..\..\..\..\..\..\Software\uC-LIB/lib_ascii.c **** *
 383:..\..\..\..\..\..\Software\uC-LIB/lib_ascii.c **** * Description : Determine whether a character is a white-space character.
 384:..\..\..\..\..\..\Software\uC-LIB/lib_ascii.c **** *
 385:..\..\..\..\..\..\Software\uC-LIB/lib_ascii.c **** * Argument(s) : c           Character to examine.
 386:..\..\..\..\..\..\Software\uC-LIB/lib_ascii.c **** *
 387:..\..\..\..\..\..\Software\uC-LIB/lib_ascii.c **** * Return(s)   : DEF_YES, if character is     a white-space character.
 388:..\..\..\..\..\..\Software\uC-LIB/lib_ascii.c **** *
 389:..\..\..\..\..\..\Software\uC-LIB/lib_ascii.c **** *               DEF_NO,     if character is NOT a white-space character.
 390:..\..\..\..\..\..\Software\uC-LIB/lib_ascii.c **** *
 391:..\..\..\..\..\..\Software\uC-LIB/lib_ascii.c **** * Caller(s)   : Application.
 392:..\..\..\..\..\..\Software\uC-LIB/lib_ascii.c **** *
 393:..\..\..\..\..\..\Software\uC-LIB/lib_ascii.c **** * Note(s)     : (1) (a) ISO/IEC 9899:TC2, Section 7.4.1.10.(2) states that "isspace() returns true 
 394:..\..\..\..\..\..\Software\uC-LIB/lib_ascii.c **** *                       for the standard white-space characters".
 395:..\..\..\..\..\..\Software\uC-LIB/lib_ascii.c **** *
 396:..\..\..\..\..\..\Software\uC-LIB/lib_ascii.c **** *                   (b) ISO/IEC 9899:TC2, Section 7.4.1.10.(2) defines "the standard white-space ch
 397:..\..\..\..\..\..\Software\uC-LIB/lib_ascii.c **** *                       as the "space (' '), form feed ('\f'), new-line ('\n'), carriage return ('\
 398:..\..\..\..\..\..\Software\uC-LIB/lib_ascii.c **** *                       horizontal tab ('\t'), and vertical tab ('\v')".
 399:..\..\..\..\..\..\Software\uC-LIB/lib_ascii.c **** ***************************************************************************************************
 400:..\..\..\..\..\..\Software\uC-LIB/lib_ascii.c **** */
 401:..\..\..\..\..\..\Software\uC-LIB/lib_ascii.c **** 
 402:..\..\..\..\..\..\Software\uC-LIB/lib_ascii.c **** CPU_BOOLEAN  ASCII_IsSpace (CPU_CHAR  c)
 403:..\..\..\..\..\..\Software\uC-LIB/lib_ascii.c **** {
 543              		.loc 1 403 0
 544              		.cfi_startproc
 545              		@ args = 0, pretend = 0, frame = 16
 546              		@ frame_needed = 1, uses_anonymous_args = 0
 547 0000 80B5     		push	{r7, lr}
 548              		.cfi_def_cfa_offset 8
 549              		.cfi_offset 7, -8
 550              		.cfi_offset 14, -4
 551 0002 84B0     		sub	sp, sp, #16
 552              		.cfi_def_cfa_offset 24
 553 0004 00AF     		add	r7, sp, #0
 554              		.cfi_def_cfa_register 7
 555 0006 0200     		movs	r2, r0
 556 0008 FB1D     		adds	r3, r7, #7
 557 000a 1A70     		strb	r2, [r3]
 404:..\..\..\..\..\..\Software\uC-LIB/lib_ascii.c ****     CPU_BOOLEAN  space;
 405:..\..\..\..\..\..\Software\uC-LIB/lib_ascii.c **** 
 406:..\..\..\..\..\..\Software\uC-LIB/lib_ascii.c **** 
 407:..\..\..\..\..\..\Software\uC-LIB/lib_ascii.c ****     space = ASCII_IS_SPACE(c);
 558              		.loc 1 407 0
 559 000c FB1D     		adds	r3, r7, #7
 560 000e 1B78     		ldrb	r3, [r3]
 561 0010 202B     		cmp	r3, #32
 562 0012 13D0     		beq	.L43
ARM GAS  C:\Users\ADMINI~1\AppData\Local\Temp\ccZTZ2Zv.s 			page 18


 563              		.loc 1 407 0 is_stmt 0 discriminator 2
 564 0014 FB1D     		adds	r3, r7, #7
 565 0016 1B78     		ldrb	r3, [r3]
 566 0018 0D2B     		cmp	r3, #13
 567 001a 0FD0     		beq	.L43
 568              		.loc 1 407 0 discriminator 4
 569 001c FB1D     		adds	r3, r7, #7
 570 001e 1B78     		ldrb	r3, [r3]
 571 0020 0A2B     		cmp	r3, #10
 572 0022 0BD0     		beq	.L43
 573              		.loc 1 407 0 discriminator 6
 574 0024 FB1D     		adds	r3, r7, #7
 575 0026 1B78     		ldrb	r3, [r3]
 576 0028 0C2B     		cmp	r3, #12
 577 002a 07D0     		beq	.L43
 578              		.loc 1 407 0 discriminator 8
 579 002c FB1D     		adds	r3, r7, #7
 580 002e 1B78     		ldrb	r3, [r3]
 581 0030 092B     		cmp	r3, #9
 582 0032 03D0     		beq	.L43
 583              		.loc 1 407 0 discriminator 10
 584 0034 FB1D     		adds	r3, r7, #7
 585 0036 1B78     		ldrb	r3, [r3]
 586 0038 0B2B     		cmp	r3, #11
 587 003a 01D1     		bne	.L44
 588              	.L43:
 589              		.loc 1 407 0 discriminator 11
 590 003c 0122     		movs	r2, #1
 591 003e 00E0     		b	.L45
 592              	.L44:
 593              		.loc 1 407 0 discriminator 12
 594 0040 0022     		movs	r2, #0
 595              	.L45:
 596              		.loc 1 407 0 discriminator 14
 597 0042 0F23     		movs	r3, #15
 598 0044 FB18     		adds	r3, r7, r3
 599 0046 1A70     		strb	r2, [r3]
 408:..\..\..\..\..\..\Software\uC-LIB/lib_ascii.c **** 
 409:..\..\..\..\..\..\Software\uC-LIB/lib_ascii.c ****     return (space);
 600              		.loc 1 409 0 is_stmt 1 discriminator 14
 601 0048 0F23     		movs	r3, #15
 602 004a FB18     		adds	r3, r7, r3
 603 004c 1B78     		ldrb	r3, [r3]
 410:..\..\..\..\..\..\Software\uC-LIB/lib_ascii.c **** }
 604              		.loc 1 410 0 discriminator 14
 605 004e 1800     		movs	r0, r3
 606 0050 BD46     		mov	sp, r7
 607 0052 04B0     		add	sp, sp, #16
 608              		@ sp needed
 609 0054 80BD     		pop	{r7, pc}
 610              		.cfi_endproc
 611              	.LFE8:
 612              		.size	ASCII_IsSpace, .-ASCII_IsSpace
 613 0056 C046     		.section	.text.ASCII_IsPrint,"ax",%progbits
 614              		.align	2
 615              		.global	ASCII_IsPrint
 616              		.code	16
ARM GAS  C:\Users\ADMINI~1\AppData\Local\Temp\ccZTZ2Zv.s 			page 19


 617              		.thumb_func
 618              		.type	ASCII_IsPrint, %function
 619              	ASCII_IsPrint:
 620              	.LFB9:
 411:..\..\..\..\..\..\Software\uC-LIB/lib_ascii.c **** 
 412:..\..\..\..\..\..\Software\uC-LIB/lib_ascii.c **** 
 413:..\..\..\..\..\..\Software\uC-LIB/lib_ascii.c **** /*
 414:..\..\..\..\..\..\Software\uC-LIB/lib_ascii.c **** ***************************************************************************************************
 415:..\..\..\..\..\..\Software\uC-LIB/lib_ascii.c **** *                                           ASCII_IsPrint()
 416:..\..\..\..\..\..\Software\uC-LIB/lib_ascii.c **** *
 417:..\..\..\..\..\..\Software\uC-LIB/lib_ascii.c **** * Description : Determine whether a character is a printing character.
 418:..\..\..\..\..\..\Software\uC-LIB/lib_ascii.c **** *
 419:..\..\..\..\..\..\Software\uC-LIB/lib_ascii.c **** * Argument(s) : c           Character to examine.
 420:..\..\..\..\..\..\Software\uC-LIB/lib_ascii.c **** *
 421:..\..\..\..\..\..\Software\uC-LIB/lib_ascii.c **** * Return(s)   : DEF_YES, if character is     a printing character.
 422:..\..\..\..\..\..\Software\uC-LIB/lib_ascii.c **** *
 423:..\..\..\..\..\..\Software\uC-LIB/lib_ascii.c **** *               DEF_NO,     if character is NOT a printing character.
 424:..\..\..\..\..\..\Software\uC-LIB/lib_ascii.c **** *
 425:..\..\..\..\..\..\Software\uC-LIB/lib_ascii.c **** * Caller(s)   : Application.
 426:..\..\..\..\..\..\Software\uC-LIB/lib_ascii.c **** *
 427:..\..\..\..\..\..\Software\uC-LIB/lib_ascii.c **** * Note(s)     : (1) (a) ISO/IEC 9899:TC2, Section 7.4.1.8.(2) states that "isprint() ... tests for 
 428:..\..\..\..\..\..\Software\uC-LIB/lib_ascii.c **** *                       printing character including space (' ')".
 429:..\..\..\..\..\..\Software\uC-LIB/lib_ascii.c **** *
 430:..\..\..\..\..\..\Software\uC-LIB/lib_ascii.c **** *                   (b) ISO/IEC 9899:TC2, Section 7.4.(3), Note 169, states that in "the seven-bit 
 431:..\..\..\..\..\..\Software\uC-LIB/lib_ascii.c **** *                       ASCII character set, the printing characters are those whose values lie fro
 432:..\..\..\..\..\..\Software\uC-LIB/lib_ascii.c **** *                       0x20 (space) through 0x7E (tilde)".
 433:..\..\..\..\..\..\Software\uC-LIB/lib_ascii.c **** ***************************************************************************************************
 434:..\..\..\..\..\..\Software\uC-LIB/lib_ascii.c **** */
 435:..\..\..\..\..\..\Software\uC-LIB/lib_ascii.c **** 
 436:..\..\..\..\..\..\Software\uC-LIB/lib_ascii.c **** CPU_BOOLEAN  ASCII_IsPrint (CPU_CHAR  c)
 437:..\..\..\..\..\..\Software\uC-LIB/lib_ascii.c **** {
 621              		.loc 1 437 0
 622              		.cfi_startproc
 623              		@ args = 0, pretend = 0, frame = 16
 624              		@ frame_needed = 1, uses_anonymous_args = 0
 625 0000 80B5     		push	{r7, lr}
 626              		.cfi_def_cfa_offset 8
 627              		.cfi_offset 7, -8
 628              		.cfi_offset 14, -4
 629 0002 84B0     		sub	sp, sp, #16
 630              		.cfi_def_cfa_offset 24
 631 0004 00AF     		add	r7, sp, #0
 632              		.cfi_def_cfa_register 7
 633 0006 0200     		movs	r2, r0
 634 0008 FB1D     		adds	r3, r7, #7
 635 000a 1A70     		strb	r2, [r3]
 438:..\..\..\..\..\..\Software\uC-LIB/lib_ascii.c ****     CPU_BOOLEAN  print;
 439:..\..\..\..\..\..\Software\uC-LIB/lib_ascii.c **** 
 440:..\..\..\..\..\..\Software\uC-LIB/lib_ascii.c **** 
 441:..\..\..\..\..\..\Software\uC-LIB/lib_ascii.c ****     print = ASCII_IS_PRINT(c);
 636              		.loc 1 441 0
 637 000c FB1D     		adds	r3, r7, #7
 638 000e 1B78     		ldrb	r3, [r3]
 639 0010 1F2B     		cmp	r3, #31
 640 0012 05D9     		bls	.L48
 641              		.loc 1 441 0 is_stmt 0 discriminator 1
 642 0014 FB1D     		adds	r3, r7, #7
ARM GAS  C:\Users\ADMINI~1\AppData\Local\Temp\ccZTZ2Zv.s 			page 20


 643 0016 1B78     		ldrb	r3, [r3]
 644 0018 7E2B     		cmp	r3, #126
 645 001a 01D8     		bhi	.L48
 646              		.loc 1 441 0 discriminator 3
 647 001c 0122     		movs	r2, #1
 648 001e 00E0     		b	.L49
 649              	.L48:
 650              		.loc 1 441 0 discriminator 4
 651 0020 0022     		movs	r2, #0
 652              	.L49:
 653              		.loc 1 441 0 discriminator 6
 654 0022 0F23     		movs	r3, #15
 655 0024 FB18     		adds	r3, r7, r3
 656 0026 1A70     		strb	r2, [r3]
 442:..\..\..\..\..\..\Software\uC-LIB/lib_ascii.c **** 
 443:..\..\..\..\..\..\Software\uC-LIB/lib_ascii.c ****     return (print);
 657              		.loc 1 443 0 is_stmt 1 discriminator 6
 658 0028 0F23     		movs	r3, #15
 659 002a FB18     		adds	r3, r7, r3
 660 002c 1B78     		ldrb	r3, [r3]
 444:..\..\..\..\..\..\Software\uC-LIB/lib_ascii.c **** }
 661              		.loc 1 444 0 discriminator 6
 662 002e 1800     		movs	r0, r3
 663 0030 BD46     		mov	sp, r7
 664 0032 04B0     		add	sp, sp, #16
 665              		@ sp needed
 666 0034 80BD     		pop	{r7, pc}
 667              		.cfi_endproc
 668              	.LFE9:
 669              		.size	ASCII_IsPrint, .-ASCII_IsPrint
 670 0036 C046     		.section	.text.ASCII_IsGraph,"ax",%progbits
 671              		.align	2
 672              		.global	ASCII_IsGraph
 673              		.code	16
 674              		.thumb_func
 675              		.type	ASCII_IsGraph, %function
 676              	ASCII_IsGraph:
 677              	.LFB10:
 445:..\..\..\..\..\..\Software\uC-LIB/lib_ascii.c **** 
 446:..\..\..\..\..\..\Software\uC-LIB/lib_ascii.c **** 
 447:..\..\..\..\..\..\Software\uC-LIB/lib_ascii.c **** /*
 448:..\..\..\..\..\..\Software\uC-LIB/lib_ascii.c **** ***************************************************************************************************
 449:..\..\..\..\..\..\Software\uC-LIB/lib_ascii.c **** *                                           ASCII_IsGraph()
 450:..\..\..\..\..\..\Software\uC-LIB/lib_ascii.c **** *
 451:..\..\..\..\..\..\Software\uC-LIB/lib_ascii.c **** * Description : Determine whether a character is any printing character except a space character.
 452:..\..\..\..\..\..\Software\uC-LIB/lib_ascii.c **** *
 453:..\..\..\..\..\..\Software\uC-LIB/lib_ascii.c **** * Argument(s) : c           Character to examine.
 454:..\..\..\..\..\..\Software\uC-LIB/lib_ascii.c **** *
 455:..\..\..\..\..\..\Software\uC-LIB/lib_ascii.c **** * Return(s)   : DEF_YES, if character is     a graphic character.
 456:..\..\..\..\..\..\Software\uC-LIB/lib_ascii.c **** *
 457:..\..\..\..\..\..\Software\uC-LIB/lib_ascii.c **** *               DEF_NO,     if character is NOT a graphic character.
 458:..\..\..\..\..\..\Software\uC-LIB/lib_ascii.c **** *
 459:..\..\..\..\..\..\Software\uC-LIB/lib_ascii.c **** * Caller(s)   : Application.
 460:..\..\..\..\..\..\Software\uC-LIB/lib_ascii.c **** *
 461:..\..\..\..\..\..\Software\uC-LIB/lib_ascii.c **** * Note(s)     : (1) (a) ISO/IEC 9899:TC2, Section 7.4.1.6.(2) states that "isgraph() ... tests for 
 462:..\..\..\..\..\..\Software\uC-LIB/lib_ascii.c **** *                       printing character except space (' ')".
 463:..\..\..\..\..\..\Software\uC-LIB/lib_ascii.c **** *
ARM GAS  C:\Users\ADMINI~1\AppData\Local\Temp\ccZTZ2Zv.s 			page 21


 464:..\..\..\..\..\..\Software\uC-LIB/lib_ascii.c **** *                   (b) ISO/IEC 9899:TC2, Section 7.4.(3), Note 169, states that in "the seven-bit 
 465:..\..\..\..\..\..\Software\uC-LIB/lib_ascii.c **** *                       ASCII character set, the printing characters are those whose values lie fro
 466:..\..\..\..\..\..\Software\uC-LIB/lib_ascii.c **** *                       0x20 (space) through 0x7E (tilde)".
 467:..\..\..\..\..\..\Software\uC-LIB/lib_ascii.c **** ***************************************************************************************************
 468:..\..\..\..\..\..\Software\uC-LIB/lib_ascii.c **** */
 469:..\..\..\..\..\..\Software\uC-LIB/lib_ascii.c **** 
 470:..\..\..\..\..\..\Software\uC-LIB/lib_ascii.c **** CPU_BOOLEAN  ASCII_IsGraph (CPU_CHAR  c)
 471:..\..\..\..\..\..\Software\uC-LIB/lib_ascii.c **** {
 678              		.loc 1 471 0
 679              		.cfi_startproc
 680              		@ args = 0, pretend = 0, frame = 16
 681              		@ frame_needed = 1, uses_anonymous_args = 0
 682 0000 80B5     		push	{r7, lr}
 683              		.cfi_def_cfa_offset 8
 684              		.cfi_offset 7, -8
 685              		.cfi_offset 14, -4
 686 0002 84B0     		sub	sp, sp, #16
 687              		.cfi_def_cfa_offset 24
 688 0004 00AF     		add	r7, sp, #0
 689              		.cfi_def_cfa_register 7
 690 0006 0200     		movs	r2, r0
 691 0008 FB1D     		adds	r3, r7, #7
 692 000a 1A70     		strb	r2, [r3]
 472:..\..\..\..\..\..\Software\uC-LIB/lib_ascii.c ****     CPU_BOOLEAN  graph;
 473:..\..\..\..\..\..\Software\uC-LIB/lib_ascii.c **** 
 474:..\..\..\..\..\..\Software\uC-LIB/lib_ascii.c **** 
 475:..\..\..\..\..\..\Software\uC-LIB/lib_ascii.c ****     graph = ASCII_IS_GRAPH(c);
 693              		.loc 1 475 0
 694 000c FB1D     		adds	r3, r7, #7
 695 000e 1B78     		ldrb	r3, [r3]
 696 0010 202B     		cmp	r3, #32
 697 0012 05D9     		bls	.L52
 698              		.loc 1 475 0 is_stmt 0 discriminator 1
 699 0014 FB1D     		adds	r3, r7, #7
 700 0016 1B78     		ldrb	r3, [r3]
 701 0018 7E2B     		cmp	r3, #126
 702 001a 01D8     		bhi	.L52
 703              		.loc 1 475 0 discriminator 3
 704 001c 0122     		movs	r2, #1
 705 001e 00E0     		b	.L53
 706              	.L52:
 707              		.loc 1 475 0 discriminator 4
 708 0020 0022     		movs	r2, #0
 709              	.L53:
 710              		.loc 1 475 0 discriminator 6
 711 0022 0F23     		movs	r3, #15
 712 0024 FB18     		adds	r3, r7, r3
 713 0026 1A70     		strb	r2, [r3]
 476:..\..\..\..\..\..\Software\uC-LIB/lib_ascii.c **** 
 477:..\..\..\..\..\..\Software\uC-LIB/lib_ascii.c ****     return (graph);
 714              		.loc 1 477 0 is_stmt 1 discriminator 6
 715 0028 0F23     		movs	r3, #15
 716 002a FB18     		adds	r3, r7, r3
 717 002c 1B78     		ldrb	r3, [r3]
 478:..\..\..\..\..\..\Software\uC-LIB/lib_ascii.c **** }
 718              		.loc 1 478 0 discriminator 6
 719 002e 1800     		movs	r0, r3
ARM GAS  C:\Users\ADMINI~1\AppData\Local\Temp\ccZTZ2Zv.s 			page 22


 720 0030 BD46     		mov	sp, r7
 721 0032 04B0     		add	sp, sp, #16
 722              		@ sp needed
 723 0034 80BD     		pop	{r7, pc}
 724              		.cfi_endproc
 725              	.LFE10:
 726              		.size	ASCII_IsGraph, .-ASCII_IsGraph
 727 0036 C046     		.section	.text.ASCII_IsPunct,"ax",%progbits
 728              		.align	2
 729              		.global	ASCII_IsPunct
 730              		.code	16
 731              		.thumb_func
 732              		.type	ASCII_IsPunct, %function
 733              	ASCII_IsPunct:
 734              	.LFB11:
 479:..\..\..\..\..\..\Software\uC-LIB/lib_ascii.c **** 
 480:..\..\..\..\..\..\Software\uC-LIB/lib_ascii.c **** 
 481:..\..\..\..\..\..\Software\uC-LIB/lib_ascii.c **** /*
 482:..\..\..\..\..\..\Software\uC-LIB/lib_ascii.c **** ***************************************************************************************************
 483:..\..\..\..\..\..\Software\uC-LIB/lib_ascii.c **** *                                           ASCII_IsPunct()
 484:..\..\..\..\..\..\Software\uC-LIB/lib_ascii.c **** *
 485:..\..\..\..\..\..\Software\uC-LIB/lib_ascii.c **** * Description : Determine whether a character is a punctuation character.
 486:..\..\..\..\..\..\Software\uC-LIB/lib_ascii.c **** *
 487:..\..\..\..\..\..\Software\uC-LIB/lib_ascii.c **** * Argument(s) : c           Character to examine.
 488:..\..\..\..\..\..\Software\uC-LIB/lib_ascii.c **** *
 489:..\..\..\..\..\..\Software\uC-LIB/lib_ascii.c **** * Return(s)   : DEF_YES, if character is     a punctuation character.
 490:..\..\..\..\..\..\Software\uC-LIB/lib_ascii.c **** *
 491:..\..\..\..\..\..\Software\uC-LIB/lib_ascii.c **** *               DEF_NO,     if character is NOT a punctuation character.
 492:..\..\..\..\..\..\Software\uC-LIB/lib_ascii.c **** *
 493:..\..\..\..\..\..\Software\uC-LIB/lib_ascii.c **** * Caller(s)   : Application.
 494:..\..\..\..\..\..\Software\uC-LIB/lib_ascii.c **** *
 495:..\..\..\..\..\..\Software\uC-LIB/lib_ascii.c **** * Note(s)     : (1) ISO/IEC 9899:TC2, Section 7.4.1.9.(2) states that "ispunct() returns true for e
 496:..\..\..\..\..\..\Software\uC-LIB/lib_ascii.c **** *                   printing character for which neither isspace() nor isalnum() is true".
 497:..\..\..\..\..\..\Software\uC-LIB/lib_ascii.c **** ***************************************************************************************************
 498:..\..\..\..\..\..\Software\uC-LIB/lib_ascii.c **** */
 499:..\..\..\..\..\..\Software\uC-LIB/lib_ascii.c **** 
 500:..\..\..\..\..\..\Software\uC-LIB/lib_ascii.c **** CPU_BOOLEAN  ASCII_IsPunct (CPU_CHAR  c)
 501:..\..\..\..\..\..\Software\uC-LIB/lib_ascii.c **** {
 735              		.loc 1 501 0
 736              		.cfi_startproc
 737              		@ args = 0, pretend = 0, frame = 16
 738              		@ frame_needed = 1, uses_anonymous_args = 0
 739 0000 80B5     		push	{r7, lr}
 740              		.cfi_def_cfa_offset 8
 741              		.cfi_offset 7, -8
 742              		.cfi_offset 14, -4
 743 0002 84B0     		sub	sp, sp, #16
 744              		.cfi_def_cfa_offset 24
 745 0004 00AF     		add	r7, sp, #0
 746              		.cfi_def_cfa_register 7
 747 0006 0200     		movs	r2, r0
 748 0008 FB1D     		adds	r3, r7, #7
 749 000a 1A70     		strb	r2, [r3]
 502:..\..\..\..\..\..\Software\uC-LIB/lib_ascii.c ****     CPU_BOOLEAN  punct;
 503:..\..\..\..\..\..\Software\uC-LIB/lib_ascii.c **** 
 504:..\..\..\..\..\..\Software\uC-LIB/lib_ascii.c **** 
 505:..\..\..\..\..\..\Software\uC-LIB/lib_ascii.c ****     punct = ASCII_IS_PUNCT(c);
ARM GAS  C:\Users\ADMINI~1\AppData\Local\Temp\ccZTZ2Zv.s 			page 23


 750              		.loc 1 505 0
 751 000c FB1D     		adds	r3, r7, #7
 752 000e 1B78     		ldrb	r3, [r3]
 753 0010 1F2B     		cmp	r3, #31
 754 0012 35D9     		bls	.L56
 755              		.loc 1 505 0 is_stmt 0 discriminator 1
 756 0014 FB1D     		adds	r3, r7, #7
 757 0016 1B78     		ldrb	r3, [r3]
 758 0018 7E2B     		cmp	r3, #126
 759 001a 31D8     		bhi	.L56
 760              		.loc 1 505 0 discriminator 3
 761 001c FB1D     		adds	r3, r7, #7
 762 001e 1B78     		ldrb	r3, [r3]
 763 0020 202B     		cmp	r3, #32
 764 0022 2DD0     		beq	.L56
 765              		.loc 1 505 0 discriminator 5
 766 0024 FB1D     		adds	r3, r7, #7
 767 0026 1B78     		ldrb	r3, [r3]
 768 0028 0D2B     		cmp	r3, #13
 769 002a 29D0     		beq	.L56
 770              		.loc 1 505 0 discriminator 7
 771 002c FB1D     		adds	r3, r7, #7
 772 002e 1B78     		ldrb	r3, [r3]
 773 0030 0A2B     		cmp	r3, #10
 774 0032 25D0     		beq	.L56
 775              		.loc 1 505 0 discriminator 9
 776 0034 FB1D     		adds	r3, r7, #7
 777 0036 1B78     		ldrb	r3, [r3]
 778 0038 0C2B     		cmp	r3, #12
 779 003a 21D0     		beq	.L56
 780              		.loc 1 505 0 discriminator 11
 781 003c FB1D     		adds	r3, r7, #7
 782 003e 1B78     		ldrb	r3, [r3]
 783 0040 092B     		cmp	r3, #9
 784 0042 1DD0     		beq	.L56
 785              		.loc 1 505 0 discriminator 13
 786 0044 FB1D     		adds	r3, r7, #7
 787 0046 1B78     		ldrb	r3, [r3]
 788 0048 0B2B     		cmp	r3, #11
 789 004a 19D0     		beq	.L56
 790              		.loc 1 505 0 discriminator 15
 791 004c FB1D     		adds	r3, r7, #7
 792 004e 1B78     		ldrb	r3, [r3]
 793 0050 402B     		cmp	r3, #64
 794 0052 03D9     		bls	.L57
 795              		.loc 1 505 0 discriminator 18
 796 0054 FB1D     		adds	r3, r7, #7
 797 0056 1B78     		ldrb	r3, [r3]
 798 0058 5A2B     		cmp	r3, #90
 799 005a 11D9     		bls	.L56
 800              	.L57:
 801              		.loc 1 505 0 discriminator 19
 802 005c FB1D     		adds	r3, r7, #7
 803 005e 1B78     		ldrb	r3, [r3]
 804 0060 602B     		cmp	r3, #96
 805 0062 03D9     		bls	.L58
 806              		.loc 1 505 0 discriminator 22
ARM GAS  C:\Users\ADMINI~1\AppData\Local\Temp\ccZTZ2Zv.s 			page 24


 807 0064 FB1D     		adds	r3, r7, #7
 808 0066 1B78     		ldrb	r3, [r3]
 809 0068 7A2B     		cmp	r3, #122
 810 006a 09D9     		bls	.L56
 811              	.L58:
 812              		.loc 1 505 0 discriminator 23
 813 006c FB1D     		adds	r3, r7, #7
 814 006e 1B78     		ldrb	r3, [r3]
 815 0070 2F2B     		cmp	r3, #47
 816 0072 03D9     		bls	.L59
 817              		.loc 1 505 0 discriminator 26
 818 0074 FB1D     		adds	r3, r7, #7
 819 0076 1B78     		ldrb	r3, [r3]
 820 0078 392B     		cmp	r3, #57
 821 007a 01D9     		bls	.L56
 822              	.L59:
 823              		.loc 1 505 0 discriminator 27
 824 007c 0122     		movs	r2, #1
 825 007e 00E0     		b	.L60
 826              	.L56:
 827              		.loc 1 505 0 discriminator 28
 828 0080 0022     		movs	r2, #0
 829              	.L60:
 830              		.loc 1 505 0 discriminator 30
 831 0082 0F23     		movs	r3, #15
 832 0084 FB18     		adds	r3, r7, r3
 833 0086 1A70     		strb	r2, [r3]
 506:..\..\..\..\..\..\Software\uC-LIB/lib_ascii.c **** 
 507:..\..\..\..\..\..\Software\uC-LIB/lib_ascii.c ****     return (punct);
 834              		.loc 1 507 0 is_stmt 1 discriminator 30
 835 0088 0F23     		movs	r3, #15
 836 008a FB18     		adds	r3, r7, r3
 837 008c 1B78     		ldrb	r3, [r3]
 508:..\..\..\..\..\..\Software\uC-LIB/lib_ascii.c **** }
 838              		.loc 1 508 0 discriminator 30
 839 008e 1800     		movs	r0, r3
 840 0090 BD46     		mov	sp, r7
 841 0092 04B0     		add	sp, sp, #16
 842              		@ sp needed
 843 0094 80BD     		pop	{r7, pc}
 844              		.cfi_endproc
 845              	.LFE11:
 846              		.size	ASCII_IsPunct, .-ASCII_IsPunct
 847 0096 C046     		.section	.text.ASCII_IsCtrl,"ax",%progbits
 848              		.align	2
 849              		.global	ASCII_IsCtrl
 850              		.code	16
 851              		.thumb_func
 852              		.type	ASCII_IsCtrl, %function
 853              	ASCII_IsCtrl:
 854              	.LFB12:
 509:..\..\..\..\..\..\Software\uC-LIB/lib_ascii.c **** 
 510:..\..\..\..\..\..\Software\uC-LIB/lib_ascii.c **** 
 511:..\..\..\..\..\..\Software\uC-LIB/lib_ascii.c **** /*
 512:..\..\..\..\..\..\Software\uC-LIB/lib_ascii.c **** ***************************************************************************************************
 513:..\..\..\..\..\..\Software\uC-LIB/lib_ascii.c **** *                                           ASCII_IsCtrl()
 514:..\..\..\..\..\..\Software\uC-LIB/lib_ascii.c **** *
ARM GAS  C:\Users\ADMINI~1\AppData\Local\Temp\ccZTZ2Zv.s 			page 25


 515:..\..\..\..\..\..\Software\uC-LIB/lib_ascii.c **** * Description : Determine whether a character is a control character.
 516:..\..\..\..\..\..\Software\uC-LIB/lib_ascii.c **** *
 517:..\..\..\..\..\..\Software\uC-LIB/lib_ascii.c **** * Argument(s) : c           Character to examine.
 518:..\..\..\..\..\..\Software\uC-LIB/lib_ascii.c **** *
 519:..\..\..\..\..\..\Software\uC-LIB/lib_ascii.c **** * Return(s)   : DEF_YES, if character is     a control character.
 520:..\..\..\..\..\..\Software\uC-LIB/lib_ascii.c **** *
 521:..\..\..\..\..\..\Software\uC-LIB/lib_ascii.c **** *               DEF_NO,     if character is NOT a control character.
 522:..\..\..\..\..\..\Software\uC-LIB/lib_ascii.c **** *
 523:..\..\..\..\..\..\Software\uC-LIB/lib_ascii.c **** * Caller(s)   : Application.
 524:..\..\..\..\..\..\Software\uC-LIB/lib_ascii.c **** *
 525:..\..\..\..\..\..\Software\uC-LIB/lib_ascii.c **** * Note(s)     : (1) (a) ISO/IEC 9899:TC2, Section 7.4.1.4.(2) states that "iscntrl() ... tests for 
 526:..\..\..\..\..\..\Software\uC-LIB/lib_ascii.c **** *                       control character".
 527:..\..\..\..\..\..\Software\uC-LIB/lib_ascii.c **** *
 528:..\..\..\..\..\..\Software\uC-LIB/lib_ascii.c **** *                   (b) ISO/IEC 9899:TC2, Section 7.4.(3), Note 169, states that in "the seven-bit 
 529:..\..\..\..\..\..\Software\uC-LIB/lib_ascii.c **** *                       ASCII character set, ... the control characters are those whose values lie 
 530:..\..\..\..\..\..\Software\uC-LIB/lib_ascii.c **** *                       0 (NUL) through 0x1F (US), and the character 0x7F (DEL)".
 531:..\..\..\..\..\..\Software\uC-LIB/lib_ascii.c **** ***************************************************************************************************
 532:..\..\..\..\..\..\Software\uC-LIB/lib_ascii.c **** */
 533:..\..\..\..\..\..\Software\uC-LIB/lib_ascii.c **** 
 534:..\..\..\..\..\..\Software\uC-LIB/lib_ascii.c **** CPU_BOOLEAN  ASCII_IsCtrl (CPU_CHAR  c)
 535:..\..\..\..\..\..\Software\uC-LIB/lib_ascii.c **** {
 855              		.loc 1 535 0
 856              		.cfi_startproc
 857              		@ args = 0, pretend = 0, frame = 16
 858              		@ frame_needed = 1, uses_anonymous_args = 0
 859 0000 80B5     		push	{r7, lr}
 860              		.cfi_def_cfa_offset 8
 861              		.cfi_offset 7, -8
 862              		.cfi_offset 14, -4
 863 0002 84B0     		sub	sp, sp, #16
 864              		.cfi_def_cfa_offset 24
 865 0004 00AF     		add	r7, sp, #0
 866              		.cfi_def_cfa_register 7
 867 0006 0200     		movs	r2, r0
 868 0008 FB1D     		adds	r3, r7, #7
 869 000a 1A70     		strb	r2, [r3]
 536:..\..\..\..\..\..\Software\uC-LIB/lib_ascii.c ****     CPU_BOOLEAN  ctrl;
 537:..\..\..\..\..\..\Software\uC-LIB/lib_ascii.c **** 
 538:..\..\..\..\..\..\Software\uC-LIB/lib_ascii.c **** 
 539:..\..\..\..\..\..\Software\uC-LIB/lib_ascii.c ****     ctrl = ASCII_IS_CTRL(c);
 870              		.loc 1 539 0
 871 000c FB1D     		adds	r3, r7, #7
 872 000e 1B78     		ldrb	r3, [r3]
 873 0010 5BB2     		sxtb	r3, r3
 874 0012 002B     		cmp	r3, #0
 875 0014 03DB     		blt	.L63
 876              		.loc 1 539 0 is_stmt 0 discriminator 1
 877 0016 FB1D     		adds	r3, r7, #7
 878 0018 1B78     		ldrb	r3, [r3]
 879 001a 1F2B     		cmp	r3, #31
 880 001c 03D9     		bls	.L64
 881              	.L63:
 882              		.loc 1 539 0 discriminator 4
 883 001e FB1D     		adds	r3, r7, #7
 884 0020 1B78     		ldrb	r3, [r3]
 885 0022 7F2B     		cmp	r3, #127
 886 0024 01D1     		bne	.L65
ARM GAS  C:\Users\ADMINI~1\AppData\Local\Temp\ccZTZ2Zv.s 			page 26


 887              	.L64:
 888              		.loc 1 539 0 discriminator 5
 889 0026 0122     		movs	r2, #1
 890 0028 00E0     		b	.L66
 891              	.L65:
 892              		.loc 1 539 0 discriminator 6
 893 002a 0022     		movs	r2, #0
 894              	.L66:
 895              		.loc 1 539 0 discriminator 8
 896 002c 0F23     		movs	r3, #15
 897 002e FB18     		adds	r3, r7, r3
 898 0030 1A70     		strb	r2, [r3]
 540:..\..\..\..\..\..\Software\uC-LIB/lib_ascii.c **** 
 541:..\..\..\..\..\..\Software\uC-LIB/lib_ascii.c ****     return (ctrl);
 899              		.loc 1 541 0 is_stmt 1 discriminator 8
 900 0032 0F23     		movs	r3, #15
 901 0034 FB18     		adds	r3, r7, r3
 902 0036 1B78     		ldrb	r3, [r3]
 542:..\..\..\..\..\..\Software\uC-LIB/lib_ascii.c **** }
 903              		.loc 1 542 0 discriminator 8
 904 0038 1800     		movs	r0, r3
 905 003a BD46     		mov	sp, r7
 906 003c 04B0     		add	sp, sp, #16
 907              		@ sp needed
 908 003e 80BD     		pop	{r7, pc}
 909              		.cfi_endproc
 910              	.LFE12:
 911              		.size	ASCII_IsCtrl, .-ASCII_IsCtrl
 912              		.section	.text.ASCII_ToLower,"ax",%progbits
 913              		.align	2
 914              		.global	ASCII_ToLower
 915              		.code	16
 916              		.thumb_func
 917              		.type	ASCII_ToLower, %function
 918              	ASCII_ToLower:
 919              	.LFB13:
 543:..\..\..\..\..\..\Software\uC-LIB/lib_ascii.c **** 
 544:..\..\..\..\..\..\Software\uC-LIB/lib_ascii.c **** 
 545:..\..\..\..\..\..\Software\uC-LIB/lib_ascii.c **** /*
 546:..\..\..\..\..\..\Software\uC-LIB/lib_ascii.c **** ***************************************************************************************************
 547:..\..\..\..\..\..\Software\uC-LIB/lib_ascii.c **** *                                           ASCII_ToLower()
 548:..\..\..\..\..\..\Software\uC-LIB/lib_ascii.c **** *
 549:..\..\..\..\..\..\Software\uC-LIB/lib_ascii.c **** * Description : Convert uppercase alphabetic character to its corresponding lowercase alphabetic ch
 550:..\..\..\..\..\..\Software\uC-LIB/lib_ascii.c **** *
 551:..\..\..\..\..\..\Software\uC-LIB/lib_ascii.c **** * Argument(s) : c           Character to convert.
 552:..\..\..\..\..\..\Software\uC-LIB/lib_ascii.c **** *
 553:..\..\..\..\..\..\Software\uC-LIB/lib_ascii.c **** * Return(s)   : Lowercase equivalent of 'c', if character 'c' is an uppercase character (see Note #
 554:..\..\..\..\..\..\Software\uC-LIB/lib_ascii.c **** *
 555:..\..\..\..\..\..\Software\uC-LIB/lib_ascii.c **** *               Character 'c',               otherwise                                  (see Note #
 556:..\..\..\..\..\..\Software\uC-LIB/lib_ascii.c **** *
 557:..\..\..\..\..\..\Software\uC-LIB/lib_ascii.c **** * Caller(s)   : Application.
 558:..\..\..\..\..\..\Software\uC-LIB/lib_ascii.c **** *
 559:..\..\..\..\..\..\Software\uC-LIB/lib_ascii.c **** * Note(s)     : (1) (a) ISO/IEC 9899:TC2, Section 7.4.2.1.(2) states that "tolower() ... converts a
 560:..\..\..\..\..\..\Software\uC-LIB/lib_ascii.c **** *                       uppercase letter to a corresponding lowercase letter".
 561:..\..\..\..\..\..\Software\uC-LIB/lib_ascii.c **** *
 562:..\..\..\..\..\..\Software\uC-LIB/lib_ascii.c **** *                   (b) ISO/IEC 9899:TC2, Section 7.4.2.1.(3) states that :
 563:..\..\..\..\..\..\Software\uC-LIB/lib_ascii.c **** *
ARM GAS  C:\Users\ADMINI~1\AppData\Local\Temp\ccZTZ2Zv.s 			page 27


 564:..\..\..\..\..\..\Software\uC-LIB/lib_ascii.c **** *                       (1) (A) "if the argument is a character for which isupper() is true and the
 565:..\..\..\..\..\..\Software\uC-LIB/lib_ascii.c **** *                                one or more corresponding characters ... for which islower() is tr
 566:..\..\..\..\..\..\Software\uC-LIB/lib_ascii.c **** *                           (B) "tolower() ... returns one of the corresponding characters;" ...
 567:..\..\..\..\..\..\Software\uC-LIB/lib_ascii.c **** *
 568:..\..\..\..\..\..\Software\uC-LIB/lib_ascii.c **** *                       (2) "otherwise, the argument is returned unchanged."
 569:..\..\..\..\..\..\Software\uC-LIB/lib_ascii.c **** ***************************************************************************************************
 570:..\..\..\..\..\..\Software\uC-LIB/lib_ascii.c **** */
 571:..\..\..\..\..\..\Software\uC-LIB/lib_ascii.c **** 
 572:..\..\..\..\..\..\Software\uC-LIB/lib_ascii.c **** CPU_CHAR  ASCII_ToLower (CPU_CHAR  c)
 573:..\..\..\..\..\..\Software\uC-LIB/lib_ascii.c **** {
 920              		.loc 1 573 0
 921              		.cfi_startproc
 922              		@ args = 0, pretend = 0, frame = 16
 923              		@ frame_needed = 1, uses_anonymous_args = 0
 924 0000 80B5     		push	{r7, lr}
 925              		.cfi_def_cfa_offset 8
 926              		.cfi_offset 7, -8
 927              		.cfi_offset 14, -4
 928 0002 84B0     		sub	sp, sp, #16
 929              		.cfi_def_cfa_offset 24
 930 0004 00AF     		add	r7, sp, #0
 931              		.cfi_def_cfa_register 7
 932 0006 0200     		movs	r2, r0
 933 0008 FB1D     		adds	r3, r7, #7
 934 000a 1A70     		strb	r2, [r3]
 574:..\..\..\..\..\..\Software\uC-LIB/lib_ascii.c ****     CPU_CHAR  lower;
 575:..\..\..\..\..\..\Software\uC-LIB/lib_ascii.c **** 
 576:..\..\..\..\..\..\Software\uC-LIB/lib_ascii.c **** 
 577:..\..\..\..\..\..\Software\uC-LIB/lib_ascii.c ****     lower = ASCII_TO_LOWER(c);
 935              		.loc 1 577 0
 936 000c FB1D     		adds	r3, r7, #7
 937 000e 1B78     		ldrb	r3, [r3]
 938 0010 402B     		cmp	r3, #64
 939 0012 08D9     		bls	.L69
 940              		.loc 1 577 0 is_stmt 0 discriminator 1
 941 0014 FB1D     		adds	r3, r7, #7
 942 0016 1B78     		ldrb	r3, [r3]
 943 0018 5A2B     		cmp	r3, #90
 944 001a 04D8     		bhi	.L69
 945              		.loc 1 577 0 discriminator 3
 946 001c FB1D     		adds	r3, r7, #7
 947 001e 1B78     		ldrb	r3, [r3]
 948 0020 2033     		adds	r3, r3, #32
 949 0022 DBB2     		uxtb	r3, r3
 950 0024 01E0     		b	.L70
 951              	.L69:
 952              		.loc 1 577 0 discriminator 4
 953 0026 FB1D     		adds	r3, r7, #7
 954 0028 1B78     		ldrb	r3, [r3]
 955              	.L70:
 956              		.loc 1 577 0 discriminator 6
 957 002a 0F22     		movs	r2, #15
 958 002c BA18     		adds	r2, r7, r2
 959 002e 1370     		strb	r3, [r2]
 578:..\..\..\..\..\..\Software\uC-LIB/lib_ascii.c **** 
 579:..\..\..\..\..\..\Software\uC-LIB/lib_ascii.c ****     return (lower);
 960              		.loc 1 579 0 is_stmt 1 discriminator 6
ARM GAS  C:\Users\ADMINI~1\AppData\Local\Temp\ccZTZ2Zv.s 			page 28


 961 0030 0F23     		movs	r3, #15
 962 0032 FB18     		adds	r3, r7, r3
 963 0034 1B78     		ldrb	r3, [r3]
 580:..\..\..\..\..\..\Software\uC-LIB/lib_ascii.c **** }
 964              		.loc 1 580 0 discriminator 6
 965 0036 1800     		movs	r0, r3
 966 0038 BD46     		mov	sp, r7
 967 003a 04B0     		add	sp, sp, #16
 968              		@ sp needed
 969 003c 80BD     		pop	{r7, pc}
 970              		.cfi_endproc
 971              	.LFE13:
 972              		.size	ASCII_ToLower, .-ASCII_ToLower
 973 003e C046     		.section	.text.ASCII_ToUpper,"ax",%progbits
 974              		.align	2
 975              		.global	ASCII_ToUpper
 976              		.code	16
 977              		.thumb_func
 978              		.type	ASCII_ToUpper, %function
 979              	ASCII_ToUpper:
 980              	.LFB14:
 581:..\..\..\..\..\..\Software\uC-LIB/lib_ascii.c **** 
 582:..\..\..\..\..\..\Software\uC-LIB/lib_ascii.c **** 
 583:..\..\..\..\..\..\Software\uC-LIB/lib_ascii.c **** /*
 584:..\..\..\..\..\..\Software\uC-LIB/lib_ascii.c **** ***************************************************************************************************
 585:..\..\..\..\..\..\Software\uC-LIB/lib_ascii.c **** *                                           ASCII_ToUpper()
 586:..\..\..\..\..\..\Software\uC-LIB/lib_ascii.c **** *
 587:..\..\..\..\..\..\Software\uC-LIB/lib_ascii.c **** * Description : Convert lowercase alphabetic character to its corresponding uppercase alphabetic ch
 588:..\..\..\..\..\..\Software\uC-LIB/lib_ascii.c **** *
 589:..\..\..\..\..\..\Software\uC-LIB/lib_ascii.c **** * Argument(s) : c           Character to convert.
 590:..\..\..\..\..\..\Software\uC-LIB/lib_ascii.c **** *
 591:..\..\..\..\..\..\Software\uC-LIB/lib_ascii.c **** * Return(s)   : Uppercase equivalent of 'c', if character 'c' is a lowercase character (see Note #1
 592:..\..\..\..\..\..\Software\uC-LIB/lib_ascii.c **** *
 593:..\..\..\..\..\..\Software\uC-LIB/lib_ascii.c **** *               Character 'c',               otherwise                                 (see Note #1
 594:..\..\..\..\..\..\Software\uC-LIB/lib_ascii.c **** *
 595:..\..\..\..\..\..\Software\uC-LIB/lib_ascii.c **** * Caller(s)   : Application.
 596:..\..\..\..\..\..\Software\uC-LIB/lib_ascii.c **** *
 597:..\..\..\..\..\..\Software\uC-LIB/lib_ascii.c **** * Note(s)     : (1) (a) ISO/IEC 9899:TC2, Section 7.4.2.2.(2) states that "toupper() ... converts a
 598:..\..\..\..\..\..\Software\uC-LIB/lib_ascii.c **** *                       lowercase letter to a corresponding uppercase letter".
 599:..\..\..\..\..\..\Software\uC-LIB/lib_ascii.c **** *
 600:..\..\..\..\..\..\Software\uC-LIB/lib_ascii.c **** *                   (b) ISO/IEC 9899:TC2, Section 7.4.2.2.(3) states that :
 601:..\..\..\..\..\..\Software\uC-LIB/lib_ascii.c **** *
 602:..\..\..\..\..\..\Software\uC-LIB/lib_ascii.c **** *                       (1) (A) "if the argument is a character for which islower() is true and the
 603:..\..\..\..\..\..\Software\uC-LIB/lib_ascii.c **** *                                one or more corresponding characters ... for which isupper() is tr
 604:..\..\..\..\..\..\Software\uC-LIB/lib_ascii.c **** *                           (B) "toupper() ... returns one of the corresponding characters;" ...
 605:..\..\..\..\..\..\Software\uC-LIB/lib_ascii.c **** *
 606:..\..\..\..\..\..\Software\uC-LIB/lib_ascii.c **** *                       (2) "otherwise, the argument is returned unchanged."
 607:..\..\..\..\..\..\Software\uC-LIB/lib_ascii.c **** ***************************************************************************************************
 608:..\..\..\..\..\..\Software\uC-LIB/lib_ascii.c **** */
 609:..\..\..\..\..\..\Software\uC-LIB/lib_ascii.c **** 
 610:..\..\..\..\..\..\Software\uC-LIB/lib_ascii.c **** CPU_CHAR  ASCII_ToUpper (CPU_CHAR  c)
 611:..\..\..\..\..\..\Software\uC-LIB/lib_ascii.c **** {
 981              		.loc 1 611 0
 982              		.cfi_startproc
 983              		@ args = 0, pretend = 0, frame = 16
 984              		@ frame_needed = 1, uses_anonymous_args = 0
 985 0000 80B5     		push	{r7, lr}
ARM GAS  C:\Users\ADMINI~1\AppData\Local\Temp\ccZTZ2Zv.s 			page 29


 986              		.cfi_def_cfa_offset 8
 987              		.cfi_offset 7, -8
 988              		.cfi_offset 14, -4
 989 0002 84B0     		sub	sp, sp, #16
 990              		.cfi_def_cfa_offset 24
 991 0004 00AF     		add	r7, sp, #0
 992              		.cfi_def_cfa_register 7
 993 0006 0200     		movs	r2, r0
 994 0008 FB1D     		adds	r3, r7, #7
 995 000a 1A70     		strb	r2, [r3]
 612:..\..\..\..\..\..\Software\uC-LIB/lib_ascii.c ****     CPU_CHAR  upper;
 613:..\..\..\..\..\..\Software\uC-LIB/lib_ascii.c **** 
 614:..\..\..\..\..\..\Software\uC-LIB/lib_ascii.c **** 
 615:..\..\..\..\..\..\Software\uC-LIB/lib_ascii.c ****     upper = ASCII_TO_UPPER(c);
 996              		.loc 1 615 0
 997 000c FB1D     		adds	r3, r7, #7
 998 000e 1B78     		ldrb	r3, [r3]
 999 0010 602B     		cmp	r3, #96
 1000 0012 08D9     		bls	.L73
 1001              		.loc 1 615 0 is_stmt 0 discriminator 1
 1002 0014 FB1D     		adds	r3, r7, #7
 1003 0016 1B78     		ldrb	r3, [r3]
 1004 0018 7A2B     		cmp	r3, #122
 1005 001a 04D8     		bhi	.L73
 1006              		.loc 1 615 0 discriminator 3
 1007 001c FB1D     		adds	r3, r7, #7
 1008 001e 1B78     		ldrb	r3, [r3]
 1009 0020 203B     		subs	r3, r3, #32
 1010 0022 DBB2     		uxtb	r3, r3
 1011 0024 01E0     		b	.L74
 1012              	.L73:
 1013              		.loc 1 615 0 discriminator 4
 1014 0026 FB1D     		adds	r3, r7, #7
 1015 0028 1B78     		ldrb	r3, [r3]
 1016              	.L74:
 1017              		.loc 1 615 0 discriminator 6
 1018 002a 0F22     		movs	r2, #15
 1019 002c BA18     		adds	r2, r7, r2
 1020 002e 1370     		strb	r3, [r2]
 616:..\..\..\..\..\..\Software\uC-LIB/lib_ascii.c **** 
 617:..\..\..\..\..\..\Software\uC-LIB/lib_ascii.c ****     return (upper);
 1021              		.loc 1 617 0 is_stmt 1 discriminator 6
 1022 0030 0F23     		movs	r3, #15
 1023 0032 FB18     		adds	r3, r7, r3
 1024 0034 1B78     		ldrb	r3, [r3]
 618:..\..\..\..\..\..\Software\uC-LIB/lib_ascii.c **** }
 1025              		.loc 1 618 0 discriminator 6
 1026 0036 1800     		movs	r0, r3
 1027 0038 BD46     		mov	sp, r7
 1028 003a 04B0     		add	sp, sp, #16
 1029              		@ sp needed
 1030 003c 80BD     		pop	{r7, pc}
 1031              		.cfi_endproc
 1032              	.LFE14:
 1033              		.size	ASCII_ToUpper, .-ASCII_ToUpper
 1034 003e C046     		.section	.text.ASCII_Cmp,"ax",%progbits
 1035              		.align	2
ARM GAS  C:\Users\ADMINI~1\AppData\Local\Temp\ccZTZ2Zv.s 			page 30


 1036              		.global	ASCII_Cmp
 1037              		.code	16
 1038              		.thumb_func
 1039              		.type	ASCII_Cmp, %function
 1040              	ASCII_Cmp:
 1041              	.LFB15:
 619:..\..\..\..\..\..\Software\uC-LIB/lib_ascii.c **** 
 620:..\..\..\..\..\..\Software\uC-LIB/lib_ascii.c **** 
 621:..\..\..\..\..\..\Software\uC-LIB/lib_ascii.c **** /*
 622:..\..\..\..\..\..\Software\uC-LIB/lib_ascii.c **** ***************************************************************************************************
 623:..\..\..\..\..\..\Software\uC-LIB/lib_ascii.c **** *                                             ASCII_Cmp()
 624:..\..\..\..\..\..\Software\uC-LIB/lib_ascii.c **** *
 625:..\..\..\..\..\..\Software\uC-LIB/lib_ascii.c **** * Description : Determine if two characters are identical (case-insensitive).
 626:..\..\..\..\..\..\Software\uC-LIB/lib_ascii.c **** *
 627:..\..\..\..\..\..\Software\uC-LIB/lib_ascii.c **** * Argument(s) : c1          First  character.
 628:..\..\..\..\..\..\Software\uC-LIB/lib_ascii.c **** *
 629:..\..\..\..\..\..\Software\uC-LIB/lib_ascii.c **** *               c2          Second character.
 630:..\..\..\..\..\..\Software\uC-LIB/lib_ascii.c **** *
 631:..\..\..\..\..\..\Software\uC-LIB/lib_ascii.c **** * Return(s)   : DEF_YES, if the characters are     identical.
 632:..\..\..\..\..\..\Software\uC-LIB/lib_ascii.c **** *
 633:..\..\..\..\..\..\Software\uC-LIB/lib_ascii.c **** *               DEF_NO,  if the characters are NOT identical.
 634:..\..\..\..\..\..\Software\uC-LIB/lib_ascii.c **** *
 635:..\..\..\..\..\..\Software\uC-LIB/lib_ascii.c **** * Caller(s)   : Application.
 636:..\..\..\..\..\..\Software\uC-LIB/lib_ascii.c **** *
 637:..\..\..\..\..\..\Software\uC-LIB/lib_ascii.c **** * Note(s)     : none.
 638:..\..\..\..\..\..\Software\uC-LIB/lib_ascii.c **** ***************************************************************************************************
 639:..\..\..\..\..\..\Software\uC-LIB/lib_ascii.c **** */
 640:..\..\..\..\..\..\Software\uC-LIB/lib_ascii.c **** 
 641:..\..\..\..\..\..\Software\uC-LIB/lib_ascii.c **** CPU_BOOLEAN  ASCII_Cmp (CPU_CHAR  c1,
 642:..\..\..\..\..\..\Software\uC-LIB/lib_ascii.c ****                         CPU_CHAR  c2)
 643:..\..\..\..\..\..\Software\uC-LIB/lib_ascii.c **** {
 1042              		.loc 1 643 0
 1043              		.cfi_startproc
 1044              		@ args = 0, pretend = 0, frame = 16
 1045              		@ frame_needed = 1, uses_anonymous_args = 0
 1046 0000 90B5     		push	{r4, r7, lr}
 1047              		.cfi_def_cfa_offset 12
 1048              		.cfi_offset 4, -12
 1049              		.cfi_offset 7, -8
 1050              		.cfi_offset 14, -4
 1051 0002 85B0     		sub	sp, sp, #20
 1052              		.cfi_def_cfa_offset 32
 1053 0004 00AF     		add	r7, sp, #0
 1054              		.cfi_def_cfa_register 7
 1055 0006 0200     		movs	r2, r0
 1056 0008 FB1D     		adds	r3, r7, #7
 1057 000a 1A70     		strb	r2, [r3]
 1058 000c BB1D     		adds	r3, r7, #6
 1059 000e 0A1C     		adds	r2, r1, #0
 1060 0010 1A70     		strb	r2, [r3]
 644:..\..\..\..\..\..\Software\uC-LIB/lib_ascii.c ****     CPU_CHAR     c1_upper;
 645:..\..\..\..\..\..\Software\uC-LIB/lib_ascii.c ****     CPU_CHAR     c2_upper;
 646:..\..\..\..\..\..\Software\uC-LIB/lib_ascii.c ****     CPU_BOOLEAN  cmp;
 647:..\..\..\..\..\..\Software\uC-LIB/lib_ascii.c **** 
 648:..\..\..\..\..\..\Software\uC-LIB/lib_ascii.c **** 
 649:..\..\..\..\..\..\Software\uC-LIB/lib_ascii.c ****     c1_upper =  ASCII_ToUpper(c1);
 1061              		.loc 1 649 0
ARM GAS  C:\Users\ADMINI~1\AppData\Local\Temp\ccZTZ2Zv.s 			page 31


 1062 0012 0F23     		movs	r3, #15
 1063 0014 FC18     		adds	r4, r7, r3
 1064 0016 FB1D     		adds	r3, r7, #7
 1065 0018 1B78     		ldrb	r3, [r3]
 1066 001a 1800     		movs	r0, r3
 1067 001c FFF7FEFF 		bl	ASCII_ToUpper
 1068 0020 0300     		movs	r3, r0
 1069 0022 2370     		strb	r3, [r4]
 650:..\..\..\..\..\..\Software\uC-LIB/lib_ascii.c ****     c2_upper =  ASCII_ToUpper(c2);
 1070              		.loc 1 650 0
 1071 0024 0E23     		movs	r3, #14
 1072 0026 FC18     		adds	r4, r7, r3
 1073 0028 BB1D     		adds	r3, r7, #6
 1074 002a 1B78     		ldrb	r3, [r3]
 1075 002c 1800     		movs	r0, r3
 1076 002e FFF7FEFF 		bl	ASCII_ToUpper
 1077 0032 0300     		movs	r3, r0
 1078 0034 2370     		strb	r3, [r4]
 651:..\..\..\..\..\..\Software\uC-LIB/lib_ascii.c ****     cmp      = (c1_upper == c2_upper) ? (DEF_YES) : (DEF_NO);
 1079              		.loc 1 651 0
 1080 0036 0F23     		movs	r3, #15
 1081 0038 FA18     		adds	r2, r7, r3
 1082 003a 0E23     		movs	r3, #14
 1083 003c FB18     		adds	r3, r7, r3
 1084 003e 1278     		ldrb	r2, [r2]
 1085 0040 1B78     		ldrb	r3, [r3]
 1086 0042 9A42     		cmp	r2, r3
 1087 0044 01D1     		bne	.L77
 1088              		.loc 1 651 0 is_stmt 0 discriminator 1
 1089 0046 0122     		movs	r2, #1
 1090 0048 00E0     		b	.L78
 1091              	.L77:
 1092              		.loc 1 651 0 discriminator 2
 1093 004a 0022     		movs	r2, #0
 1094              	.L78:
 1095              		.loc 1 651 0 discriminator 4
 1096 004c 0D23     		movs	r3, #13
 1097 004e FB18     		adds	r3, r7, r3
 1098 0050 1A70     		strb	r2, [r3]
 652:..\..\..\..\..\..\Software\uC-LIB/lib_ascii.c **** 
 653:..\..\..\..\..\..\Software\uC-LIB/lib_ascii.c ****     return (cmp);
 1099              		.loc 1 653 0 is_stmt 1 discriminator 4
 1100 0052 0D23     		movs	r3, #13
 1101 0054 FB18     		adds	r3, r7, r3
 1102 0056 1B78     		ldrb	r3, [r3]
 654:..\..\..\..\..\..\Software\uC-LIB/lib_ascii.c **** }
 1103              		.loc 1 654 0 discriminator 4
 1104 0058 1800     		movs	r0, r3
 1105 005a BD46     		mov	sp, r7
 1106 005c 05B0     		add	sp, sp, #20
 1107              		@ sp needed
 1108 005e 90BD     		pop	{r4, r7, pc}
 1109              		.cfi_endproc
 1110              	.LFE15:
 1111              		.size	ASCII_Cmp, .-ASCII_Cmp
 1112              		.text
 1113              	.Letext0:
ARM GAS  C:\Users\ADMINI~1\AppData\Local\Temp\ccZTZ2Zv.s 			page 32


 1114              		.file 2 "..\\..\\..\\..\\..\\..\\Software\\uC-CPU\\ARM-Cortex-M0\\GNU/cpu.h"
 1115              		.section	.debug_info,"",%progbits
 1116              	.Ldebug_info0:
 1117 0000 1D040000 		.4byte	0x41d
 1118 0004 0400     		.2byte	0x4
 1119 0006 00000000 		.4byte	.Ldebug_abbrev0
 1120 000a 04       		.byte	0x4
 1121 000b 01       		.uleb128 0x1
 1122 000c 1F010000 		.4byte	.LASF42
 1123 0010 0C       		.byte	0xc
 1124 0011 74020000 		.4byte	.LASF43
 1125 0015 38000000 		.4byte	.LASF44
 1126 0019 00000000 		.4byte	.Ldebug_ranges0+0
 1127 001d 00000000 		.4byte	0
 1128 0021 00000000 		.4byte	.Ldebug_line0
 1129 0025 02       		.uleb128 0x2
 1130 0026 FB010000 		.4byte	.LASF0
 1131 002a 02       		.byte	0x2
 1132 002b 7C       		.byte	0x7c
 1133 002c 30000000 		.4byte	0x30
 1134 0030 03       		.uleb128 0x3
 1135 0031 01       		.byte	0x1
 1136 0032 08       		.byte	0x8
 1137 0033 3D020000 		.4byte	.LASF2
 1138 0037 02       		.uleb128 0x2
 1139 0038 F7000000 		.4byte	.LASF1
 1140 003c 02       		.byte	0x2
 1141 003d 7D       		.byte	0x7d
 1142 003e 42000000 		.4byte	0x42
 1143 0042 03       		.uleb128 0x3
 1144 0043 01       		.byte	0x1
 1145 0044 08       		.byte	0x8
 1146 0045 AD010000 		.4byte	.LASF3
 1147 0049 02       		.uleb128 0x2
 1148 004a 32020000 		.4byte	.LASF4
 1149 004e 02       		.byte	0x2
 1150 004f 7F       		.byte	0x7f
 1151 0050 54000000 		.4byte	0x54
 1152 0054 03       		.uleb128 0x3
 1153 0055 01       		.byte	0x1
 1154 0056 06       		.byte	0x6
 1155 0057 C1010000 		.4byte	.LASF5
 1156 005b 03       		.uleb128 0x3
 1157 005c 02       		.byte	0x2
 1158 005d 07       		.byte	0x7
 1159 005e 1F020000 		.4byte	.LASF6
 1160 0062 03       		.uleb128 0x3
 1161 0063 02       		.byte	0x2
 1162 0064 05       		.byte	0x5
 1163 0065 14000000 		.4byte	.LASF7
 1164 0069 03       		.uleb128 0x3
 1165 006a 04       		.byte	0x4
 1166 006b 07       		.byte	0x7
 1167 006c 04020000 		.4byte	.LASF8
 1168 0070 04       		.uleb128 0x4
 1169 0071 04       		.byte	0x4
 1170 0072 05       		.byte	0x5
ARM GAS  C:\Users\ADMINI~1\AppData\Local\Temp\ccZTZ2Zv.s 			page 33


 1171 0073 696E7400 		.ascii	"int\000"
 1172 0077 03       		.uleb128 0x3
 1173 0078 08       		.byte	0x8
 1174 0079 07       		.byte	0x7
 1175 007a DE010000 		.4byte	.LASF9
 1176 007e 03       		.uleb128 0x3
 1177 007f 08       		.byte	0x8
 1178 0080 05       		.byte	0x5
 1179 0081 D3000000 		.4byte	.LASF10
 1180 0085 03       		.uleb128 0x3
 1181 0086 04       		.byte	0x4
 1182 0087 04       		.byte	0x4
 1183 0088 AB000000 		.4byte	.LASF11
 1184 008c 03       		.uleb128 0x3
 1185 008d 08       		.byte	0x8
 1186 008e 04       		.byte	0x4
 1187 008f 61020000 		.4byte	.LASF12
 1188 0093 05       		.uleb128 0x5
 1189 0094 53020000 		.4byte	.LASF13
 1190 0098 01       		.byte	0x1
 1191 0099 9C       		.byte	0x9c
 1192 009a 37000000 		.4byte	0x37
 1193 009e 00000000 		.4byte	.LFB0
 1194 00a2 46000000 		.4byte	.LFE0-.LFB0
 1195 00a6 01       		.uleb128 0x1
 1196 00a7 9C       		.byte	0x9c
 1197 00a8 C7000000 		.4byte	0xc7
 1198 00ac 06       		.uleb128 0x6
 1199 00ad 6300     		.ascii	"c\000"
 1200 00af 01       		.byte	0x1
 1201 00b0 9C       		.byte	0x9c
 1202 00b1 25000000 		.4byte	0x25
 1203 00b5 02       		.uleb128 0x2
 1204 00b6 91       		.byte	0x91
 1205 00b7 6F       		.sleb128 -17
 1206 00b8 07       		.uleb128 0x7
 1207 00b9 8A000000 		.4byte	.LASF15
 1208 00bd 01       		.byte	0x1
 1209 00be 9E       		.byte	0x9e
 1210 00bf 37000000 		.4byte	0x37
 1211 00c3 02       		.uleb128 0x2
 1212 00c4 91       		.byte	0x91
 1213 00c5 77       		.sleb128 -9
 1214 00c6 00       		.byte	0
 1215 00c7 05       		.uleb128 0x5
 1216 00c8 CD010000 		.4byte	.LASF14
 1217 00cc 01       		.byte	0x1
 1218 00cd BA       		.byte	0xba
 1219 00ce 37000000 		.4byte	0x37
 1220 00d2 00000000 		.4byte	.LFB1
 1221 00d6 56000000 		.4byte	.LFE1-.LFB1
 1222 00da 01       		.uleb128 0x1
 1223 00db 9C       		.byte	0x9c
 1224 00dc FB000000 		.4byte	0xfb
 1225 00e0 06       		.uleb128 0x6
 1226 00e1 6300     		.ascii	"c\000"
 1227 00e3 01       		.byte	0x1
ARM GAS  C:\Users\ADMINI~1\AppData\Local\Temp\ccZTZ2Zv.s 			page 34


 1228 00e4 BA       		.byte	0xba
 1229 00e5 25000000 		.4byte	0x25
 1230 00e9 02       		.uleb128 0x2
 1231 00ea 91       		.byte	0x91
 1232 00eb 6F       		.sleb128 -17
 1233 00ec 07       		.uleb128 0x7
 1234 00ed AC020000 		.4byte	.LASF16
 1235 00f1 01       		.byte	0x1
 1236 00f2 BC       		.byte	0xbc
 1237 00f3 37000000 		.4byte	0x37
 1238 00f7 02       		.uleb128 0x2
 1239 00f8 91       		.byte	0x91
 1240 00f9 77       		.sleb128 -9
 1241 00fa 00       		.byte	0
 1242 00fb 05       		.uleb128 0x5
 1243 00fc B6020000 		.4byte	.LASF17
 1244 0100 01       		.byte	0x1
 1245 0101 D8       		.byte	0xd8
 1246 0102 37000000 		.4byte	0x37
 1247 0106 00000000 		.4byte	.LFB2
 1248 010a 36000000 		.4byte	.LFE2-.LFB2
 1249 010e 01       		.uleb128 0x1
 1250 010f 9C       		.byte	0x9c
 1251 0110 2F010000 		.4byte	0x12f
 1252 0114 06       		.uleb128 0x6
 1253 0115 6300     		.ascii	"c\000"
 1254 0117 01       		.byte	0x1
 1255 0118 D8       		.byte	0xd8
 1256 0119 25000000 		.4byte	0x25
 1257 011d 02       		.uleb128 0x2
 1258 011e 91       		.byte	0x91
 1259 011f 6F       		.sleb128 -17
 1260 0120 07       		.uleb128 0x7
 1261 0121 CD000000 		.4byte	.LASF18
 1262 0125 01       		.byte	0x1
 1263 0126 DA       		.byte	0xda
 1264 0127 37000000 		.4byte	0x37
 1265 012b 02       		.uleb128 0x2
 1266 012c 91       		.byte	0x91
 1267 012d 77       		.sleb128 -9
 1268 012e 00       		.byte	0
 1269 012f 05       		.uleb128 0x5
 1270 0130 06000000 		.4byte	.LASF19
 1271 0134 01       		.byte	0x1
 1272 0135 F6       		.byte	0xf6
 1273 0136 37000000 		.4byte	0x37
 1274 013a 00000000 		.4byte	.LFB3
 1275 013e 36000000 		.4byte	.LFE3-.LFB3
 1276 0142 01       		.uleb128 0x1
 1277 0143 9C       		.byte	0x9c
 1278 0144 63010000 		.4byte	0x163
 1279 0148 06       		.uleb128 0x6
 1280 0149 6300     		.ascii	"c\000"
 1281 014b 01       		.byte	0x1
 1282 014c F6       		.byte	0xf6
 1283 014d 25000000 		.4byte	0x25
 1284 0151 02       		.uleb128 0x2
ARM GAS  C:\Users\ADMINI~1\AppData\Local\Temp\ccZTZ2Zv.s 			page 35


 1285 0152 91       		.byte	0x91
 1286 0153 6F       		.sleb128 -17
 1287 0154 07       		.uleb128 0x7
 1288 0155 00000000 		.4byte	.LASF20
 1289 0159 01       		.byte	0x1
 1290 015a F8       		.byte	0xf8
 1291 015b 37000000 		.4byte	0x37
 1292 015f 02       		.uleb128 0x2
 1293 0160 91       		.byte	0x91
 1294 0161 77       		.sleb128 -9
 1295 0162 00       		.byte	0
 1296 0163 08       		.uleb128 0x8
 1297 0164 2C000000 		.4byte	.LASF21
 1298 0168 01       		.byte	0x1
 1299 0169 1401     		.2byte	0x114
 1300 016b 37000000 		.4byte	0x37
 1301 016f 00000000 		.4byte	.LFB4
 1302 0173 36000000 		.4byte	.LFE4-.LFB4
 1303 0177 01       		.uleb128 0x1
 1304 0178 9C       		.byte	0x9c
 1305 0179 9A010000 		.4byte	0x19a
 1306 017d 09       		.uleb128 0x9
 1307 017e 6300     		.ascii	"c\000"
 1308 0180 01       		.byte	0x1
 1309 0181 1401     		.2byte	0x114
 1310 0183 25000000 		.4byte	0x25
 1311 0187 02       		.uleb128 0x2
 1312 0188 91       		.byte	0x91
 1313 0189 6F       		.sleb128 -17
 1314 018a 0A       		.uleb128 0xa
 1315 018b 64696700 		.ascii	"dig\000"
 1316 018f 01       		.byte	0x1
 1317 0190 1601     		.2byte	0x116
 1318 0192 37000000 		.4byte	0x37
 1319 0196 02       		.uleb128 0x2
 1320 0197 91       		.byte	0x91
 1321 0198 77       		.sleb128 -9
 1322 0199 00       		.byte	0
 1323 019a 08       		.uleb128 0x8
 1324 019b C4020000 		.4byte	.LASF22
 1325 019f 01       		.byte	0x1
 1326 01a0 3101     		.2byte	0x131
 1327 01a2 37000000 		.4byte	0x37
 1328 01a6 00000000 		.4byte	.LFB5
 1329 01aa 36000000 		.4byte	.LFE5-.LFB5
 1330 01ae 01       		.uleb128 0x1
 1331 01af 9C       		.byte	0x9c
 1332 01b0 D1010000 		.4byte	0x1d1
 1333 01b4 09       		.uleb128 0x9
 1334 01b5 6300     		.ascii	"c\000"
 1335 01b7 01       		.byte	0x1
 1336 01b8 3101     		.2byte	0x131
 1337 01ba 25000000 		.4byte	0x25
 1338 01be 02       		.uleb128 0x2
 1339 01bf 91       		.byte	0x91
 1340 01c0 6F       		.sleb128 -17
 1341 01c1 0B       		.uleb128 0xb
ARM GAS  C:\Users\ADMINI~1\AppData\Local\Temp\ccZTZ2Zv.s 			page 36


 1342 01c2 E1000000 		.4byte	.LASF23
 1343 01c6 01       		.byte	0x1
 1344 01c7 3301     		.2byte	0x133
 1345 01c9 37000000 		.4byte	0x37
 1346 01cd 02       		.uleb128 0x2
 1347 01ce 91       		.byte	0x91
 1348 01cf 77       		.sleb128 -9
 1349 01d0 00       		.byte	0
 1350 01d1 08       		.uleb128 0x8
 1351 01d2 D3020000 		.4byte	.LASF24
 1352 01d6 01       		.byte	0x1
 1353 01d7 4F01     		.2byte	0x14f
 1354 01d9 37000000 		.4byte	0x37
 1355 01dd 00000000 		.4byte	.LFB6
 1356 01e1 56000000 		.4byte	.LFE6-.LFB6
 1357 01e5 01       		.uleb128 0x1
 1358 01e6 9C       		.byte	0x9c
 1359 01e7 08020000 		.4byte	0x208
 1360 01eb 09       		.uleb128 0x9
 1361 01ec 6300     		.ascii	"c\000"
 1362 01ee 01       		.byte	0x1
 1363 01ef 4F01     		.2byte	0x14f
 1364 01f1 25000000 		.4byte	0x25
 1365 01f5 02       		.uleb128 0x2
 1366 01f6 91       		.byte	0x91
 1367 01f7 6F       		.sleb128 -17
 1368 01f8 0B       		.uleb128 0xb
 1369 01f9 4B020000 		.4byte	.LASF25
 1370 01fd 01       		.byte	0x1
 1371 01fe 5101     		.2byte	0x151
 1372 0200 37000000 		.4byte	0x37
 1373 0204 02       		.uleb128 0x2
 1374 0205 91       		.byte	0x91
 1375 0206 77       		.sleb128 -9
 1376 0207 00       		.byte	0
 1377 0208 08       		.uleb128 0x8
 1378 0209 08010000 		.4byte	.LASF26
 1379 020d 01       		.byte	0x1
 1380 020e 7001     		.2byte	0x170
 1381 0210 37000000 		.4byte	0x37
 1382 0214 00000000 		.4byte	.LFB7
 1383 0218 36000000 		.4byte	.LFE7-.LFB7
 1384 021c 01       		.uleb128 0x1
 1385 021d 9C       		.byte	0x9c
 1386 021e 3F020000 		.4byte	0x23f
 1387 0222 09       		.uleb128 0x9
 1388 0223 6300     		.ascii	"c\000"
 1389 0225 01       		.byte	0x1
 1390 0226 7001     		.2byte	0x170
 1391 0228 25000000 		.4byte	0x25
 1392 022c 02       		.uleb128 0x2
 1393 022d 91       		.byte	0x91
 1394 022e 6F       		.sleb128 -17
 1395 022f 0B       		.uleb128 0xb
 1396 0230 E2020000 		.4byte	.LASF27
 1397 0234 01       		.byte	0x1
 1398 0235 7201     		.2byte	0x172
ARM GAS  C:\Users\ADMINI~1\AppData\Local\Temp\ccZTZ2Zv.s 			page 37


 1399 0237 37000000 		.4byte	0x37
 1400 023b 02       		.uleb128 0x2
 1401 023c 91       		.byte	0x91
 1402 023d 77       		.sleb128 -9
 1403 023e 00       		.byte	0
 1404 023f 08       		.uleb128 0x8
 1405 0240 1E000000 		.4byte	.LASF28
 1406 0244 01       		.byte	0x1
 1407 0245 9201     		.2byte	0x192
 1408 0247 37000000 		.4byte	0x37
 1409 024b 00000000 		.4byte	.LFB8
 1410 024f 56000000 		.4byte	.LFE8-.LFB8
 1411 0253 01       		.uleb128 0x1
 1412 0254 9C       		.byte	0x9c
 1413 0255 76020000 		.4byte	0x276
 1414 0259 09       		.uleb128 0x9
 1415 025a 6300     		.ascii	"c\000"
 1416 025c 01       		.byte	0x1
 1417 025d 9201     		.2byte	0x192
 1418 025f 25000000 		.4byte	0x25
 1419 0263 02       		.uleb128 0x2
 1420 0264 91       		.byte	0x91
 1421 0265 6F       		.sleb128 -17
 1422 0266 0B       		.uleb128 0xb
 1423 0267 BB010000 		.4byte	.LASF29
 1424 026b 01       		.byte	0x1
 1425 026c 9401     		.2byte	0x194
 1426 026e 37000000 		.4byte	0x37
 1427 0272 02       		.uleb128 0x2
 1428 0273 91       		.byte	0x91
 1429 0274 77       		.sleb128 -9
 1430 0275 00       		.byte	0
 1431 0276 08       		.uleb128 0x8
 1432 0277 90000000 		.4byte	.LASF30
 1433 027b 01       		.byte	0x1
 1434 027c B401     		.2byte	0x1b4
 1435 027e 37000000 		.4byte	0x37
 1436 0282 00000000 		.4byte	.LFB9
 1437 0286 36000000 		.4byte	.LFE9-.LFB9
 1438 028a 01       		.uleb128 0x1
 1439 028b 9C       		.byte	0x9c
 1440 028c AD020000 		.4byte	0x2ad
 1441 0290 09       		.uleb128 0x9
 1442 0291 6300     		.ascii	"c\000"
 1443 0293 01       		.byte	0x1
 1444 0294 B401     		.2byte	0x1b4
 1445 0296 25000000 		.4byte	0x25
 1446 029a 02       		.uleb128 0x2
 1447 029b 91       		.byte	0x91
 1448 029c 6F       		.sleb128 -17
 1449 029d 0B       		.uleb128 0xb
 1450 029e F5010000 		.4byte	.LASF31
 1451 02a2 01       		.byte	0x1
 1452 02a3 B601     		.2byte	0x1b6
 1453 02a5 37000000 		.4byte	0x37
 1454 02a9 02       		.uleb128 0x2
 1455 02aa 91       		.byte	0x91
ARM GAS  C:\Users\ADMINI~1\AppData\Local\Temp\ccZTZ2Zv.s 			page 38


 1456 02ab 77       		.sleb128 -9
 1457 02ac 00       		.byte	0
 1458 02ad 08       		.uleb128 0x8
 1459 02ae B1000000 		.4byte	.LASF32
 1460 02b2 01       		.byte	0x1
 1461 02b3 D601     		.2byte	0x1d6
 1462 02b5 37000000 		.4byte	0x37
 1463 02b9 00000000 		.4byte	.LFB10
 1464 02bd 36000000 		.4byte	.LFE10-.LFB10
 1465 02c1 01       		.uleb128 0x1
 1466 02c2 9C       		.byte	0x9c
 1467 02c3 E4020000 		.4byte	0x2e4
 1468 02c7 09       		.uleb128 0x9
 1469 02c8 6300     		.ascii	"c\000"
 1470 02ca 01       		.byte	0x1
 1471 02cb D601     		.2byte	0x1d6
 1472 02cd 25000000 		.4byte	0x25
 1473 02d1 02       		.uleb128 0x2
 1474 02d2 91       		.byte	0x91
 1475 02d3 6F       		.sleb128 -17
 1476 02d4 0B       		.uleb128 0xb
 1477 02d5 68020000 		.4byte	.LASF33
 1478 02d9 01       		.byte	0x1
 1479 02da D801     		.2byte	0x1d8
 1480 02dc 37000000 		.4byte	0x37
 1481 02e0 02       		.uleb128 0x2
 1482 02e1 91       		.byte	0x91
 1483 02e2 77       		.sleb128 -9
 1484 02e3 00       		.byte	0
 1485 02e4 08       		.uleb128 0x8
 1486 02e5 BF000000 		.4byte	.LASF34
 1487 02e9 01       		.byte	0x1
 1488 02ea F401     		.2byte	0x1f4
 1489 02ec 37000000 		.4byte	0x37
 1490 02f0 00000000 		.4byte	.LFB11
 1491 02f4 96000000 		.4byte	.LFE11-.LFB11
 1492 02f8 01       		.uleb128 0x1
 1493 02f9 9C       		.byte	0x9c
 1494 02fa 1B030000 		.4byte	0x31b
 1495 02fe 09       		.uleb128 0x9
 1496 02ff 6300     		.ascii	"c\000"
 1497 0301 01       		.byte	0x1
 1498 0302 F401     		.2byte	0x1f4
 1499 0304 25000000 		.4byte	0x25
 1500 0308 02       		.uleb128 0x2
 1501 0309 91       		.byte	0x91
 1502 030a 6F       		.sleb128 -17
 1503 030b 0B       		.uleb128 0xb
 1504 030c 6E020000 		.4byte	.LASF35
 1505 0310 01       		.byte	0x1
 1506 0311 F601     		.2byte	0x1f6
 1507 0313 37000000 		.4byte	0x37
 1508 0317 02       		.uleb128 0x2
 1509 0318 91       		.byte	0x91
 1510 0319 77       		.sleb128 -9
 1511 031a 00       		.byte	0
 1512 031b 08       		.uleb128 0x8
ARM GAS  C:\Users\ADMINI~1\AppData\Local\Temp\ccZTZ2Zv.s 			page 39


 1513 031c 9E000000 		.4byte	.LASF36
 1514 0320 01       		.byte	0x1
 1515 0321 1602     		.2byte	0x216
 1516 0323 37000000 		.4byte	0x37
 1517 0327 00000000 		.4byte	.LFB12
 1518 032b 40000000 		.4byte	.LFE12-.LFB12
 1519 032f 01       		.uleb128 0x1
 1520 0330 9C       		.byte	0x9c
 1521 0331 52030000 		.4byte	0x352
 1522 0335 09       		.uleb128 0x9
 1523 0336 6300     		.ascii	"c\000"
 1524 0338 01       		.byte	0x1
 1525 0339 1602     		.2byte	0x216
 1526 033b 25000000 		.4byte	0x25
 1527 033f 02       		.uleb128 0x2
 1528 0340 91       		.byte	0x91
 1529 0341 6F       		.sleb128 -17
 1530 0342 0B       		.uleb128 0xb
 1531 0343 03010000 		.4byte	.LASF37
 1532 0347 01       		.byte	0x1
 1533 0348 1802     		.2byte	0x218
 1534 034a 37000000 		.4byte	0x37
 1535 034e 02       		.uleb128 0x2
 1536 034f 91       		.byte	0x91
 1537 0350 77       		.sleb128 -9
 1538 0351 00       		.byte	0
 1539 0352 08       		.uleb128 0x8
 1540 0353 E9000000 		.4byte	.LASF38
 1541 0357 01       		.byte	0x1
 1542 0358 3C02     		.2byte	0x23c
 1543 035a 25000000 		.4byte	0x25
 1544 035e 00000000 		.4byte	.LFB13
 1545 0362 3E000000 		.4byte	.LFE13-.LFB13
 1546 0366 01       		.uleb128 0x1
 1547 0367 9C       		.byte	0x9c
 1548 0368 89030000 		.4byte	0x389
 1549 036c 09       		.uleb128 0x9
 1550 036d 6300     		.ascii	"c\000"
 1551 036f 01       		.byte	0x1
 1552 0370 3C02     		.2byte	0x23c
 1553 0372 25000000 		.4byte	0x25
 1554 0376 02       		.uleb128 0x2
 1555 0377 91       		.byte	0x91
 1556 0378 6F       		.sleb128 -17
 1557 0379 0B       		.uleb128 0xb
 1558 037a CD000000 		.4byte	.LASF18
 1559 037e 01       		.byte	0x1
 1560 037f 3E02     		.2byte	0x23e
 1561 0381 25000000 		.4byte	0x25
 1562 0385 02       		.uleb128 0x2
 1563 0386 91       		.byte	0x91
 1564 0387 77       		.sleb128 -9
 1565 0388 00       		.byte	0
 1566 0389 08       		.uleb128 0x8
 1567 038a 11020000 		.4byte	.LASF39
 1568 038e 01       		.byte	0x1
 1569 038f 6202     		.2byte	0x262
ARM GAS  C:\Users\ADMINI~1\AppData\Local\Temp\ccZTZ2Zv.s 			page 40


 1570 0391 25000000 		.4byte	0x25
 1571 0395 00000000 		.4byte	.LFB14
 1572 0399 3E000000 		.4byte	.LFE14-.LFB14
 1573 039d 01       		.uleb128 0x1
 1574 039e 9C       		.byte	0x9c
 1575 039f C0030000 		.4byte	0x3c0
 1576 03a3 09       		.uleb128 0x9
 1577 03a4 6300     		.ascii	"c\000"
 1578 03a6 01       		.byte	0x1
 1579 03a7 6202     		.2byte	0x262
 1580 03a9 25000000 		.4byte	0x25
 1581 03ad 02       		.uleb128 0x2
 1582 03ae 91       		.byte	0x91
 1583 03af 6F       		.sleb128 -17
 1584 03b0 0B       		.uleb128 0xb
 1585 03b1 00000000 		.4byte	.LASF20
 1586 03b5 01       		.byte	0x1
 1587 03b6 6402     		.2byte	0x264
 1588 03b8 25000000 		.4byte	0x25
 1589 03bc 02       		.uleb128 0x2
 1590 03bd 91       		.byte	0x91
 1591 03be 77       		.sleb128 -9
 1592 03bf 00       		.byte	0
 1593 03c0 0C       		.uleb128 0xc
 1594 03c1 A2020000 		.4byte	.LASF45
 1595 03c5 01       		.byte	0x1
 1596 03c6 8102     		.2byte	0x281
 1597 03c8 37000000 		.4byte	0x37
 1598 03cc 00000000 		.4byte	.LFB15
 1599 03d0 60000000 		.4byte	.LFE15-.LFB15
 1600 03d4 01       		.uleb128 0x1
 1601 03d5 9C       		.byte	0x9c
 1602 03d6 09       		.uleb128 0x9
 1603 03d7 633100   		.ascii	"c1\000"
 1604 03da 01       		.byte	0x1
 1605 03db 8102     		.2byte	0x281
 1606 03dd 25000000 		.4byte	0x25
 1607 03e1 02       		.uleb128 0x2
 1608 03e2 91       		.byte	0x91
 1609 03e3 67       		.sleb128 -25
 1610 03e4 09       		.uleb128 0x9
 1611 03e5 633200   		.ascii	"c2\000"
 1612 03e8 01       		.byte	0x1
 1613 03e9 8202     		.2byte	0x282
 1614 03eb 25000000 		.4byte	0x25
 1615 03ef 02       		.uleb128 0x2
 1616 03f0 91       		.byte	0x91
 1617 03f1 66       		.sleb128 -26
 1618 03f2 0B       		.uleb128 0xb
 1619 03f3 42020000 		.4byte	.LASF40
 1620 03f7 01       		.byte	0x1
 1621 03f8 8402     		.2byte	0x284
 1622 03fa 25000000 		.4byte	0x25
 1623 03fe 02       		.uleb128 0x2
 1624 03ff 91       		.byte	0x91
 1625 0400 6F       		.sleb128 -17
 1626 0401 0B       		.uleb128 0xb
ARM GAS  C:\Users\ADMINI~1\AppData\Local\Temp\ccZTZ2Zv.s 			page 41


 1627 0402 16010000 		.4byte	.LASF41
 1628 0406 01       		.byte	0x1
 1629 0407 8502     		.2byte	0x285
 1630 0409 25000000 		.4byte	0x25
 1631 040d 02       		.uleb128 0x2
 1632 040e 91       		.byte	0x91
 1633 040f 6E       		.sleb128 -18
 1634 0410 0A       		.uleb128 0xa
 1635 0411 636D7000 		.ascii	"cmp\000"
 1636 0415 01       		.byte	0x1
 1637 0416 8602     		.2byte	0x286
 1638 0418 37000000 		.4byte	0x37
 1639 041c 02       		.uleb128 0x2
 1640 041d 91       		.byte	0x91
 1641 041e 6D       		.sleb128 -19
 1642 041f 00       		.byte	0
 1643 0420 00       		.byte	0
 1644              		.section	.debug_abbrev,"",%progbits
 1645              	.Ldebug_abbrev0:
 1646 0000 01       		.uleb128 0x1
 1647 0001 11       		.uleb128 0x11
 1648 0002 01       		.byte	0x1
 1649 0003 25       		.uleb128 0x25
 1650 0004 0E       		.uleb128 0xe
 1651 0005 13       		.uleb128 0x13
 1652 0006 0B       		.uleb128 0xb
 1653 0007 03       		.uleb128 0x3
 1654 0008 0E       		.uleb128 0xe
 1655 0009 1B       		.uleb128 0x1b
 1656 000a 0E       		.uleb128 0xe
 1657 000b 55       		.uleb128 0x55
 1658 000c 17       		.uleb128 0x17
 1659 000d 11       		.uleb128 0x11
 1660 000e 01       		.uleb128 0x1
 1661 000f 10       		.uleb128 0x10
 1662 0010 17       		.uleb128 0x17
 1663 0011 00       		.byte	0
 1664 0012 00       		.byte	0
 1665 0013 02       		.uleb128 0x2
 1666 0014 16       		.uleb128 0x16
 1667 0015 00       		.byte	0
 1668 0016 03       		.uleb128 0x3
 1669 0017 0E       		.uleb128 0xe
 1670 0018 3A       		.uleb128 0x3a
 1671 0019 0B       		.uleb128 0xb
 1672 001a 3B       		.uleb128 0x3b
 1673 001b 0B       		.uleb128 0xb
 1674 001c 49       		.uleb128 0x49
 1675 001d 13       		.uleb128 0x13
 1676 001e 00       		.byte	0
 1677 001f 00       		.byte	0
 1678 0020 03       		.uleb128 0x3
 1679 0021 24       		.uleb128 0x24
 1680 0022 00       		.byte	0
 1681 0023 0B       		.uleb128 0xb
 1682 0024 0B       		.uleb128 0xb
 1683 0025 3E       		.uleb128 0x3e
ARM GAS  C:\Users\ADMINI~1\AppData\Local\Temp\ccZTZ2Zv.s 			page 42


 1684 0026 0B       		.uleb128 0xb
 1685 0027 03       		.uleb128 0x3
 1686 0028 0E       		.uleb128 0xe
 1687 0029 00       		.byte	0
 1688 002a 00       		.byte	0
 1689 002b 04       		.uleb128 0x4
 1690 002c 24       		.uleb128 0x24
 1691 002d 00       		.byte	0
 1692 002e 0B       		.uleb128 0xb
 1693 002f 0B       		.uleb128 0xb
 1694 0030 3E       		.uleb128 0x3e
 1695 0031 0B       		.uleb128 0xb
 1696 0032 03       		.uleb128 0x3
 1697 0033 08       		.uleb128 0x8
 1698 0034 00       		.byte	0
 1699 0035 00       		.byte	0
 1700 0036 05       		.uleb128 0x5
 1701 0037 2E       		.uleb128 0x2e
 1702 0038 01       		.byte	0x1
 1703 0039 3F       		.uleb128 0x3f
 1704 003a 19       		.uleb128 0x19
 1705 003b 03       		.uleb128 0x3
 1706 003c 0E       		.uleb128 0xe
 1707 003d 3A       		.uleb128 0x3a
 1708 003e 0B       		.uleb128 0xb
 1709 003f 3B       		.uleb128 0x3b
 1710 0040 0B       		.uleb128 0xb
 1711 0041 27       		.uleb128 0x27
 1712 0042 19       		.uleb128 0x19
 1713 0043 49       		.uleb128 0x49
 1714 0044 13       		.uleb128 0x13
 1715 0045 11       		.uleb128 0x11
 1716 0046 01       		.uleb128 0x1
 1717 0047 12       		.uleb128 0x12
 1718 0048 06       		.uleb128 0x6
 1719 0049 40       		.uleb128 0x40
 1720 004a 18       		.uleb128 0x18
 1721 004b 9742     		.uleb128 0x2117
 1722 004d 19       		.uleb128 0x19
 1723 004e 01       		.uleb128 0x1
 1724 004f 13       		.uleb128 0x13
 1725 0050 00       		.byte	0
 1726 0051 00       		.byte	0
 1727 0052 06       		.uleb128 0x6
 1728 0053 05       		.uleb128 0x5
 1729 0054 00       		.byte	0
 1730 0055 03       		.uleb128 0x3
 1731 0056 08       		.uleb128 0x8
 1732 0057 3A       		.uleb128 0x3a
 1733 0058 0B       		.uleb128 0xb
 1734 0059 3B       		.uleb128 0x3b
 1735 005a 0B       		.uleb128 0xb
 1736 005b 49       		.uleb128 0x49
 1737 005c 13       		.uleb128 0x13
 1738 005d 02       		.uleb128 0x2
 1739 005e 18       		.uleb128 0x18
 1740 005f 00       		.byte	0
ARM GAS  C:\Users\ADMINI~1\AppData\Local\Temp\ccZTZ2Zv.s 			page 43


 1741 0060 00       		.byte	0
 1742 0061 07       		.uleb128 0x7
 1743 0062 34       		.uleb128 0x34
 1744 0063 00       		.byte	0
 1745 0064 03       		.uleb128 0x3
 1746 0065 0E       		.uleb128 0xe
 1747 0066 3A       		.uleb128 0x3a
 1748 0067 0B       		.uleb128 0xb
 1749 0068 3B       		.uleb128 0x3b
 1750 0069 0B       		.uleb128 0xb
 1751 006a 49       		.uleb128 0x49
 1752 006b 13       		.uleb128 0x13
 1753 006c 02       		.uleb128 0x2
 1754 006d 18       		.uleb128 0x18
 1755 006e 00       		.byte	0
 1756 006f 00       		.byte	0
 1757 0070 08       		.uleb128 0x8
 1758 0071 2E       		.uleb128 0x2e
 1759 0072 01       		.byte	0x1
 1760 0073 3F       		.uleb128 0x3f
 1761 0074 19       		.uleb128 0x19
 1762 0075 03       		.uleb128 0x3
 1763 0076 0E       		.uleb128 0xe
 1764 0077 3A       		.uleb128 0x3a
 1765 0078 0B       		.uleb128 0xb
 1766 0079 3B       		.uleb128 0x3b
 1767 007a 05       		.uleb128 0x5
 1768 007b 27       		.uleb128 0x27
 1769 007c 19       		.uleb128 0x19
 1770 007d 49       		.uleb128 0x49
 1771 007e 13       		.uleb128 0x13
 1772 007f 11       		.uleb128 0x11
 1773 0080 01       		.uleb128 0x1
 1774 0081 12       		.uleb128 0x12
 1775 0082 06       		.uleb128 0x6
 1776 0083 40       		.uleb128 0x40
 1777 0084 18       		.uleb128 0x18
 1778 0085 9742     		.uleb128 0x2117
 1779 0087 19       		.uleb128 0x19
 1780 0088 01       		.uleb128 0x1
 1781 0089 13       		.uleb128 0x13
 1782 008a 00       		.byte	0
 1783 008b 00       		.byte	0
 1784 008c 09       		.uleb128 0x9
 1785 008d 05       		.uleb128 0x5
 1786 008e 00       		.byte	0
 1787 008f 03       		.uleb128 0x3
 1788 0090 08       		.uleb128 0x8
 1789 0091 3A       		.uleb128 0x3a
 1790 0092 0B       		.uleb128 0xb
 1791 0093 3B       		.uleb128 0x3b
 1792 0094 05       		.uleb128 0x5
 1793 0095 49       		.uleb128 0x49
 1794 0096 13       		.uleb128 0x13
 1795 0097 02       		.uleb128 0x2
 1796 0098 18       		.uleb128 0x18
 1797 0099 00       		.byte	0
ARM GAS  C:\Users\ADMINI~1\AppData\Local\Temp\ccZTZ2Zv.s 			page 44


 1798 009a 00       		.byte	0
 1799 009b 0A       		.uleb128 0xa
 1800 009c 34       		.uleb128 0x34
 1801 009d 00       		.byte	0
 1802 009e 03       		.uleb128 0x3
 1803 009f 08       		.uleb128 0x8
 1804 00a0 3A       		.uleb128 0x3a
 1805 00a1 0B       		.uleb128 0xb
 1806 00a2 3B       		.uleb128 0x3b
 1807 00a3 05       		.uleb128 0x5
 1808 00a4 49       		.uleb128 0x49
 1809 00a5 13       		.uleb128 0x13
 1810 00a6 02       		.uleb128 0x2
 1811 00a7 18       		.uleb128 0x18
 1812 00a8 00       		.byte	0
 1813 00a9 00       		.byte	0
 1814 00aa 0B       		.uleb128 0xb
 1815 00ab 34       		.uleb128 0x34
 1816 00ac 00       		.byte	0
 1817 00ad 03       		.uleb128 0x3
 1818 00ae 0E       		.uleb128 0xe
 1819 00af 3A       		.uleb128 0x3a
 1820 00b0 0B       		.uleb128 0xb
 1821 00b1 3B       		.uleb128 0x3b
 1822 00b2 05       		.uleb128 0x5
 1823 00b3 49       		.uleb128 0x49
 1824 00b4 13       		.uleb128 0x13
 1825 00b5 02       		.uleb128 0x2
 1826 00b6 18       		.uleb128 0x18
 1827 00b7 00       		.byte	0
 1828 00b8 00       		.byte	0
 1829 00b9 0C       		.uleb128 0xc
 1830 00ba 2E       		.uleb128 0x2e
 1831 00bb 01       		.byte	0x1
 1832 00bc 3F       		.uleb128 0x3f
 1833 00bd 19       		.uleb128 0x19
 1834 00be 03       		.uleb128 0x3
 1835 00bf 0E       		.uleb128 0xe
 1836 00c0 3A       		.uleb128 0x3a
 1837 00c1 0B       		.uleb128 0xb
 1838 00c2 3B       		.uleb128 0x3b
 1839 00c3 05       		.uleb128 0x5
 1840 00c4 27       		.uleb128 0x27
 1841 00c5 19       		.uleb128 0x19
 1842 00c6 49       		.uleb128 0x49
 1843 00c7 13       		.uleb128 0x13
 1844 00c8 11       		.uleb128 0x11
 1845 00c9 01       		.uleb128 0x1
 1846 00ca 12       		.uleb128 0x12
 1847 00cb 06       		.uleb128 0x6
 1848 00cc 40       		.uleb128 0x40
 1849 00cd 18       		.uleb128 0x18
 1850 00ce 9642     		.uleb128 0x2116
 1851 00d0 19       		.uleb128 0x19
 1852 00d1 00       		.byte	0
 1853 00d2 00       		.byte	0
 1854 00d3 00       		.byte	0
ARM GAS  C:\Users\ADMINI~1\AppData\Local\Temp\ccZTZ2Zv.s 			page 45


 1855              		.section	.debug_aranges,"",%progbits
 1856 0000 94000000 		.4byte	0x94
 1857 0004 0200     		.2byte	0x2
 1858 0006 00000000 		.4byte	.Ldebug_info0
 1859 000a 04       		.byte	0x4
 1860 000b 00       		.byte	0
 1861 000c 0000     		.2byte	0
 1862 000e 0000     		.2byte	0
 1863 0010 00000000 		.4byte	.LFB0
 1864 0014 46000000 		.4byte	.LFE0-.LFB0
 1865 0018 00000000 		.4byte	.LFB1
 1866 001c 56000000 		.4byte	.LFE1-.LFB1
 1867 0020 00000000 		.4byte	.LFB2
 1868 0024 36000000 		.4byte	.LFE2-.LFB2
 1869 0028 00000000 		.4byte	.LFB3
 1870 002c 36000000 		.4byte	.LFE3-.LFB3
 1871 0030 00000000 		.4byte	.LFB4
 1872 0034 36000000 		.4byte	.LFE4-.LFB4
 1873 0038 00000000 		.4byte	.LFB5
 1874 003c 36000000 		.4byte	.LFE5-.LFB5
 1875 0040 00000000 		.4byte	.LFB6
 1876 0044 56000000 		.4byte	.LFE6-.LFB6
 1877 0048 00000000 		.4byte	.LFB7
 1878 004c 36000000 		.4byte	.LFE7-.LFB7
 1879 0050 00000000 		.4byte	.LFB8
 1880 0054 56000000 		.4byte	.LFE8-.LFB8
 1881 0058 00000000 		.4byte	.LFB9
 1882 005c 36000000 		.4byte	.LFE9-.LFB9
 1883 0060 00000000 		.4byte	.LFB10
 1884 0064 36000000 		.4byte	.LFE10-.LFB10
 1885 0068 00000000 		.4byte	.LFB11
 1886 006c 96000000 		.4byte	.LFE11-.LFB11
 1887 0070 00000000 		.4byte	.LFB12
 1888 0074 40000000 		.4byte	.LFE12-.LFB12
 1889 0078 00000000 		.4byte	.LFB13
 1890 007c 3E000000 		.4byte	.LFE13-.LFB13
 1891 0080 00000000 		.4byte	.LFB14
 1892 0084 3E000000 		.4byte	.LFE14-.LFB14
 1893 0088 00000000 		.4byte	.LFB15
 1894 008c 60000000 		.4byte	.LFE15-.LFB15
 1895 0090 00000000 		.4byte	0
 1896 0094 00000000 		.4byte	0
 1897              		.section	.debug_ranges,"",%progbits
 1898              	.Ldebug_ranges0:
 1899 0000 00000000 		.4byte	.LFB0
 1900 0004 46000000 		.4byte	.LFE0
 1901 0008 00000000 		.4byte	.LFB1
 1902 000c 56000000 		.4byte	.LFE1
 1903 0010 00000000 		.4byte	.LFB2
 1904 0014 36000000 		.4byte	.LFE2
 1905 0018 00000000 		.4byte	.LFB3
 1906 001c 36000000 		.4byte	.LFE3
 1907 0020 00000000 		.4byte	.LFB4
 1908 0024 36000000 		.4byte	.LFE4
 1909 0028 00000000 		.4byte	.LFB5
 1910 002c 36000000 		.4byte	.LFE5
 1911 0030 00000000 		.4byte	.LFB6
ARM GAS  C:\Users\ADMINI~1\AppData\Local\Temp\ccZTZ2Zv.s 			page 46


 1912 0034 56000000 		.4byte	.LFE6
 1913 0038 00000000 		.4byte	.LFB7
 1914 003c 36000000 		.4byte	.LFE7
 1915 0040 00000000 		.4byte	.LFB8
 1916 0044 56000000 		.4byte	.LFE8
 1917 0048 00000000 		.4byte	.LFB9
 1918 004c 36000000 		.4byte	.LFE9
 1919 0050 00000000 		.4byte	.LFB10
 1920 0054 36000000 		.4byte	.LFE10
 1921 0058 00000000 		.4byte	.LFB11
 1922 005c 96000000 		.4byte	.LFE11
 1923 0060 00000000 		.4byte	.LFB12
 1924 0064 40000000 		.4byte	.LFE12
 1925 0068 00000000 		.4byte	.LFB13
 1926 006c 3E000000 		.4byte	.LFE13
 1927 0070 00000000 		.4byte	.LFB14
 1928 0074 3E000000 		.4byte	.LFE14
 1929 0078 00000000 		.4byte	.LFB15
 1930 007c 60000000 		.4byte	.LFE15
 1931 0080 00000000 		.4byte	0
 1932 0084 00000000 		.4byte	0
 1933              		.section	.debug_line,"",%progbits
 1934              	.Ldebug_line0:
 1935 0000 1B040000 		.section	.debug_str,"MS",%progbits,1
 1935      02008100 
 1935      00000201 
 1935      FB0E0D00 
 1935      01010101 
 1936              	.LASF20:
 1937 0000 75707065 		.ascii	"upper\000"
 1937      7200
 1938              	.LASF19:
 1939 0006 41534349 		.ascii	"ASCII_IsUpper\000"
 1939      495F4973 
 1939      55707065 
 1939      7200
 1940              	.LASF7:
 1941 0014 73686F72 		.ascii	"short int\000"
 1941      7420696E 
 1941      7400
 1942              	.LASF28:
 1943 001e 41534349 		.ascii	"ASCII_IsSpace\000"
 1943      495F4973 
 1943      53706163 
 1943      6500
 1944              	.LASF21:
 1945 002c 41534349 		.ascii	"ASCII_IsDig\000"
 1945      495F4973 
 1945      44696700 
 1946              	.LASF44:
 1947 0038 443A5C43 		.ascii	"D:\\CYTEST\\Micrium_CY8CKIT-044_OS3\\Examples\\Cypr"
 1947      59544553 
 1947      545C4D69 
 1947      63726975 
 1947      6D5F4359 
 1948 0067 6573735C 		.ascii	"ess\\CY8CKIT-044\\OS3\\PSoC\\OS3.cydsn\000"
 1948      43593843 
ARM GAS  C:\Users\ADMINI~1\AppData\Local\Temp\ccZTZ2Zv.s 			page 47


 1948      4B49542D 
 1948      3034345C 
 1948      4F53335C 
 1949              	.LASF15:
 1950 008a 616C7068 		.ascii	"alpha\000"
 1950      6100
 1951              	.LASF30:
 1952 0090 41534349 		.ascii	"ASCII_IsPrint\000"
 1952      495F4973 
 1952      5072696E 
 1952      7400
 1953              	.LASF36:
 1954 009e 41534349 		.ascii	"ASCII_IsCtrl\000"
 1954      495F4973 
 1954      4374726C 
 1954      00
 1955              	.LASF11:
 1956 00ab 666C6F61 		.ascii	"float\000"
 1956      7400
 1957              	.LASF32:
 1958 00b1 41534349 		.ascii	"ASCII_IsGraph\000"
 1958      495F4973 
 1958      47726170 
 1958      6800
 1959              	.LASF34:
 1960 00bf 41534349 		.ascii	"ASCII_IsPunct\000"
 1960      495F4973 
 1960      50756E63 
 1960      7400
 1961              	.LASF18:
 1962 00cd 6C6F7765 		.ascii	"lower\000"
 1962      7200
 1963              	.LASF10:
 1964 00d3 6C6F6E67 		.ascii	"long long int\000"
 1964      206C6F6E 
 1964      6720696E 
 1964      7400
 1965              	.LASF23:
 1966 00e1 6469675F 		.ascii	"dig_oct\000"
 1966      6F637400 
 1967              	.LASF38:
 1968 00e9 41534349 		.ascii	"ASCII_ToLower\000"
 1968      495F546F 
 1968      4C6F7765 
 1968      7200
 1969              	.LASF1:
 1970 00f7 4350555F 		.ascii	"CPU_BOOLEAN\000"
 1970      424F4F4C 
 1970      45414E00 
 1971              	.LASF37:
 1972 0103 6374726C 		.ascii	"ctrl\000"
 1972      00
 1973              	.LASF26:
 1974 0108 41534349 		.ascii	"ASCII_IsBlank\000"
 1974      495F4973 
 1974      426C616E 
 1974      6B00
ARM GAS  C:\Users\ADMINI~1\AppData\Local\Temp\ccZTZ2Zv.s 			page 48


 1975              	.LASF41:
 1976 0116 63325F75 		.ascii	"c2_upper\000"
 1976      70706572 
 1976      00
 1977              	.LASF42:
 1978 011f 474E5520 		.ascii	"GNU C11 5.4.1 20160609 (release) [ARM/embedded-5-br"
 1978      43313120 
 1978      352E342E 
 1978      31203230 
 1978      31363036 
 1979 0152 616E6368 		.ascii	"anch revision 237715] -mcpu=cortex-m0 -mthumb -g -O"
 1979      20726576 
 1979      6973696F 
 1979      6E203233 
 1979      37373135 
 1980 0185 30202D66 		.ascii	"0 -ffunction-sections -ffat-lto-objects\000"
 1980      66756E63 
 1980      74696F6E 
 1980      2D736563 
 1980      74696F6E 
 1981              	.LASF3:
 1982 01ad 756E7369 		.ascii	"unsigned char\000"
 1982      676E6564 
 1982      20636861 
 1982      7200
 1983              	.LASF29:
 1984 01bb 73706163 		.ascii	"space\000"
 1984      6500
 1985              	.LASF5:
 1986 01c1 7369676E 		.ascii	"signed char\000"
 1986      65642063 
 1986      68617200 
 1987              	.LASF14:
 1988 01cd 41534349 		.ascii	"ASCII_IsAlphaNum\000"
 1988      495F4973 
 1988      416C7068 
 1988      614E756D 
 1988      00
 1989              	.LASF9:
 1990 01de 6C6F6E67 		.ascii	"long long unsigned int\000"
 1990      206C6F6E 
 1990      6720756E 
 1990      7369676E 
 1990      65642069 
 1991              	.LASF31:
 1992 01f5 7072696E 		.ascii	"print\000"
 1992      7400
 1993              	.LASF0:
 1994 01fb 4350555F 		.ascii	"CPU_CHAR\000"
 1994      43484152 
 1994      00
 1995              	.LASF8:
 1996 0204 756E7369 		.ascii	"unsigned int\000"
 1996      676E6564 
 1996      20696E74 
 1996      00
 1997              	.LASF39:
ARM GAS  C:\Users\ADMINI~1\AppData\Local\Temp\ccZTZ2Zv.s 			page 49


 1998 0211 41534349 		.ascii	"ASCII_ToUpper\000"
 1998      495F546F 
 1998      55707065 
 1998      7200
 1999              	.LASF6:
 2000 021f 73686F72 		.ascii	"short unsigned int\000"
 2000      7420756E 
 2000      7369676E 
 2000      65642069 
 2000      6E7400
 2001              	.LASF4:
 2002 0232 4350555F 		.ascii	"CPU_INT08S\000"
 2002      494E5430 
 2002      385300
 2003              	.LASF2:
 2004 023d 63686172 		.ascii	"char\000"
 2004      00
 2005              	.LASF40:
 2006 0242 63315F75 		.ascii	"c1_upper\000"
 2006      70706572 
 2006      00
 2007              	.LASF25:
 2008 024b 6469675F 		.ascii	"dig_hex\000"
 2008      68657800 
 2009              	.LASF13:
 2010 0253 41534349 		.ascii	"ASCII_IsAlpha\000"
 2010      495F4973 
 2010      416C7068 
 2010      6100
 2011              	.LASF12:
 2012 0261 646F7562 		.ascii	"double\000"
 2012      6C6500
 2013              	.LASF33:
 2014 0268 67726170 		.ascii	"graph\000"
 2014      6800
 2015              	.LASF35:
 2016 026e 70756E63 		.ascii	"punct\000"
 2016      7400
 2017              	.LASF43:
 2018 0274 2E2E5C2E 		.ascii	"..\\..\\..\\..\\..\\..\\Software\\uC-LIB\\lib_ascii"
 2018      2E5C2E2E 
 2018      5C2E2E5C 
 2018      2E2E5C2E 
 2018      2E5C536F 
 2019 029f 2E6300   		.ascii	".c\000"
 2020              	.LASF45:
 2021 02a2 41534349 		.ascii	"ASCII_Cmp\000"
 2021      495F436D 
 2021      7000
 2022              	.LASF16:
 2023 02ac 616C7068 		.ascii	"alpha_num\000"
 2023      615F6E75 
 2023      6D00
 2024              	.LASF17:
 2025 02b6 41534349 		.ascii	"ASCII_IsLower\000"
 2025      495F4973 
 2025      4C6F7765 
ARM GAS  C:\Users\ADMINI~1\AppData\Local\Temp\ccZTZ2Zv.s 			page 50


 2025      7200
 2026              	.LASF22:
 2027 02c4 41534349 		.ascii	"ASCII_IsDigOct\000"
 2027      495F4973 
 2027      4469674F 
 2027      637400
 2028              	.LASF24:
 2029 02d3 41534349 		.ascii	"ASCII_IsDigHex\000"
 2029      495F4973 
 2029      44696748 
 2029      657800
 2030              	.LASF27:
 2031 02e2 626C616E 		.ascii	"blank\000"
 2031      6B00
 2032              		.ident	"GCC: (GNU Tools for ARM Embedded Processors) 5.4.1 20160609 (release) [ARM/embedded-5-bran
