ARM GAS  C:\Users\ADMINI~1\AppData\Local\Temp\cctLRtXR.s 			page 1


   1              		.syntax unified
   2              		.cpu cortex-m0
   3              		.fpu softvfp
   4              		.eabi_attribute 20, 1
   5              		.eabi_attribute 21, 1
   6              		.eabi_attribute 23, 3
   7              		.eabi_attribute 24, 1
   8              		.eabi_attribute 25, 1
   9              		.eabi_attribute 26, 1
  10              		.eabi_attribute 30, 6
  11              		.eabi_attribute 34, 0
  12              		.eabi_attribute 18, 4
  13              		.thumb
  14              		.syntax unified
  15              		.file	"lib_math.c"
  16              		.text
  17              	.Ltext0:
  18              		.cfi_sections	.debug_frame
  19              		.comm	Math_RandSeedCur,4,4
  20              		.section	.text.Math_Init,"ax",%progbits
  21              		.align	2
  22              		.global	Math_Init
  23              		.code	16
  24              		.thumb_func
  25              		.type	Math_Init, %function
  26              	Math_Init:
  27              	.LFB0:
  28              		.file 1 "..\\..\\..\\..\\..\\..\\Software\\uC-LIB\\lib_math.c"
   1:..\..\..\..\..\..\Software\uC-LIB/lib_math.c **** /*
   2:..\..\..\..\..\..\Software\uC-LIB/lib_math.c **** ***************************************************************************************************
   3:..\..\..\..\..\..\Software\uC-LIB/lib_math.c **** *                                                uC/LIB
   4:..\..\..\..\..\..\Software\uC-LIB/lib_math.c **** *                                        CUSTOM LIBRARY MODULES
   5:..\..\..\..\..\..\Software\uC-LIB/lib_math.c **** *
   6:..\..\..\..\..\..\Software\uC-LIB/lib_math.c **** *                         (c) Copyright 2004-2014; Micrium, Inc.; Weston, FL
   7:..\..\..\..\..\..\Software\uC-LIB/lib_math.c **** *
   8:..\..\..\..\..\..\Software\uC-LIB/lib_math.c **** *                  All rights reserved.  Protected by international copyright laws.
   9:..\..\..\..\..\..\Software\uC-LIB/lib_math.c **** *
  10:..\..\..\..\..\..\Software\uC-LIB/lib_math.c **** *                  uC/LIB is provided in source form to registered licensees ONLY.  It is
  11:..\..\..\..\..\..\Software\uC-LIB/lib_math.c **** *                  illegal to distribute this source code to any third party unless you receive
  12:..\..\..\..\..\..\Software\uC-LIB/lib_math.c **** *                  written permission by an authorized Micrium representative.  Knowledge of
  13:..\..\..\..\..\..\Software\uC-LIB/lib_math.c **** *                  the source code may NOT be used to develop a similar product.
  14:..\..\..\..\..\..\Software\uC-LIB/lib_math.c **** *
  15:..\..\..\..\..\..\Software\uC-LIB/lib_math.c **** *                  Please help us continue to provide the Embedded community with the finest
  16:..\..\..\..\..\..\Software\uC-LIB/lib_math.c **** *                  software available.  Your honesty is greatly appreciated.
  17:..\..\..\..\..\..\Software\uC-LIB/lib_math.c **** *
  18:..\..\..\..\..\..\Software\uC-LIB/lib_math.c **** *                  You can find our product's user manual, API reference, release notes and
  19:..\..\..\..\..\..\Software\uC-LIB/lib_math.c **** *                  more information at: https://doc.micrium.com
  20:..\..\..\..\..\..\Software\uC-LIB/lib_math.c **** *
  21:..\..\..\..\..\..\Software\uC-LIB/lib_math.c **** *                  You can contact us at: http://www.micrium.com
  22:..\..\..\..\..\..\Software\uC-LIB/lib_math.c **** ***************************************************************************************************
  23:..\..\..\..\..\..\Software\uC-LIB/lib_math.c **** */
  24:..\..\..\..\..\..\Software\uC-LIB/lib_math.c **** 
  25:..\..\..\..\..\..\Software\uC-LIB/lib_math.c **** /*
  26:..\..\..\..\..\..\Software\uC-LIB/lib_math.c **** ***************************************************************************************************
  27:..\..\..\..\..\..\Software\uC-LIB/lib_math.c **** *
  28:..\..\..\..\..\..\Software\uC-LIB/lib_math.c **** *                                        MATHEMATIC OPERATIONS
  29:..\..\..\..\..\..\Software\uC-LIB/lib_math.c **** *
ARM GAS  C:\Users\ADMINI~1\AppData\Local\Temp\cctLRtXR.s 			page 2


  30:..\..\..\..\..\..\Software\uC-LIB/lib_math.c **** * Filename      : lib_math.c
  31:..\..\..\..\..\..\Software\uC-LIB/lib_math.c **** * Version       : V1.38.01
  32:..\..\..\..\..\..\Software\uC-LIB/lib_math.c **** * Programmer(s) : SR
  33:..\..\..\..\..\..\Software\uC-LIB/lib_math.c **** *                 ITJ
  34:..\..\..\..\..\..\Software\uC-LIB/lib_math.c **** ***************************************************************************************************
  35:..\..\..\..\..\..\Software\uC-LIB/lib_math.c **** * Note(s)       : (1) NO compiler-supplied standard library functions are used in library or produc
  36:..\..\..\..\..\..\Software\uC-LIB/lib_math.c **** *
  37:..\..\..\..\..\..\Software\uC-LIB/lib_math.c **** *                     (a) ALL standard library functions are implemented in the custom library modu
  38:..\..\..\..\..\..\Software\uC-LIB/lib_math.c **** *
  39:..\..\..\..\..\..\Software\uC-LIB/lib_math.c **** *                         (1) \<Custom Library Directory>\lib_*.*
  40:..\..\..\..\..\..\Software\uC-LIB/lib_math.c **** *
  41:..\..\..\..\..\..\Software\uC-LIB/lib_math.c **** *                         (2) \<Custom Library Directory>\Ports\<cpu>\<compiler>\lib*_a.*
  42:..\..\..\..\..\..\Software\uC-LIB/lib_math.c **** *
  43:..\..\..\..\..\..\Software\uC-LIB/lib_math.c **** *                               where
  44:..\..\..\..\..\..\Software\uC-LIB/lib_math.c **** *                                       <Custom Library Directory>      directory path for custom l
  45:..\..\..\..\..\..\Software\uC-LIB/lib_math.c **** *                                       <cpu>                           directory name for specific
  46:..\..\..\..\..\..\Software\uC-LIB/lib_math.c **** *                                       <compiler>                      directory name for specific
  47:..\..\..\..\..\..\Software\uC-LIB/lib_math.c **** *
  48:..\..\..\..\..\..\Software\uC-LIB/lib_math.c **** *                     (b) Product-specific library functions are implemented in individual products
  49:..\..\..\..\..\..\Software\uC-LIB/lib_math.c **** *
  50:..\..\..\..\..\..\Software\uC-LIB/lib_math.c **** ***************************************************************************************************
  51:..\..\..\..\..\..\Software\uC-LIB/lib_math.c **** * Notice(s)     : (1) The Institute of Electrical and Electronics Engineers and The Open Group, hav
  52:..\..\..\..\..\..\Software\uC-LIB/lib_math.c **** *                     us permission to reprint portions of their documentation.  Portions of this t
  53:..\..\..\..\..\..\Software\uC-LIB/lib_math.c **** *                     reprinted and reproduced in electronic form from the IEEE Std 1003.1, 2004 Ed
  54:..\..\..\..\..\..\Software\uC-LIB/lib_math.c **** *                     Standard for Information Technology -- Portable Operating System Interface (P
  55:..\..\..\..\..\..\Software\uC-LIB/lib_math.c **** *                     The Open Group Base Specifications Issue 6, Copyright (C) 2001-2004 by the In
  56:..\..\..\..\..\..\Software\uC-LIB/lib_math.c **** *                     of Electrical and Electronics Engineers, Inc and The Open Group.  In the even
  57:..\..\..\..\..\..\Software\uC-LIB/lib_math.c **** *                     discrepancy between these versions and the original IEEE and The Open Group S
  58:..\..\..\..\..\..\Software\uC-LIB/lib_math.c **** *                     the original IEEE and The Open Group Standard is the referee document.  The o
  59:..\..\..\..\..\..\Software\uC-LIB/lib_math.c **** *                     Standard can be obtained online at http://www.opengroup.org/unix/online.html.
  60:..\..\..\..\..\..\Software\uC-LIB/lib_math.c **** ***************************************************************************************************
  61:..\..\..\..\..\..\Software\uC-LIB/lib_math.c **** */
  62:..\..\..\..\..\..\Software\uC-LIB/lib_math.c **** 
  63:..\..\..\..\..\..\Software\uC-LIB/lib_math.c **** 
  64:..\..\..\..\..\..\Software\uC-LIB/lib_math.c **** /*
  65:..\..\..\..\..\..\Software\uC-LIB/lib_math.c **** ***************************************************************************************************
  66:..\..\..\..\..\..\Software\uC-LIB/lib_math.c **** *                                            INCLUDE FILES
  67:..\..\..\..\..\..\Software\uC-LIB/lib_math.c **** ***************************************************************************************************
  68:..\..\..\..\..\..\Software\uC-LIB/lib_math.c **** */
  69:..\..\..\..\..\..\Software\uC-LIB/lib_math.c **** 
  70:..\..\..\..\..\..\Software\uC-LIB/lib_math.c **** #define    MICRIUM_SOURCE
  71:..\..\..\..\..\..\Software\uC-LIB/lib_math.c **** #define    LIB_MATH_MODULE
  72:..\..\..\..\..\..\Software\uC-LIB/lib_math.c **** #include  <lib_math.h>
  73:..\..\..\..\..\..\Software\uC-LIB/lib_math.c **** 
  74:..\..\..\..\..\..\Software\uC-LIB/lib_math.c **** 
  75:..\..\..\..\..\..\Software\uC-LIB/lib_math.c **** /*
  76:..\..\..\..\..\..\Software\uC-LIB/lib_math.c **** ***************************************************************************************************
  77:..\..\..\..\..\..\Software\uC-LIB/lib_math.c **** *                                            LOCAL DEFINES
  78:..\..\..\..\..\..\Software\uC-LIB/lib_math.c **** ***************************************************************************************************
  79:..\..\..\..\..\..\Software\uC-LIB/lib_math.c **** */
  80:..\..\..\..\..\..\Software\uC-LIB/lib_math.c **** 
  81:..\..\..\..\..\..\Software\uC-LIB/lib_math.c **** 
  82:..\..\..\..\..\..\Software\uC-LIB/lib_math.c **** /*
  83:..\..\..\..\..\..\Software\uC-LIB/lib_math.c **** ***************************************************************************************************
  84:..\..\..\..\..\..\Software\uC-LIB/lib_math.c **** *                                           LOCAL CONSTANTS
  85:..\..\..\..\..\..\Software\uC-LIB/lib_math.c **** ***************************************************************************************************
  86:..\..\..\..\..\..\Software\uC-LIB/lib_math.c **** */
ARM GAS  C:\Users\ADMINI~1\AppData\Local\Temp\cctLRtXR.s 			page 3


  87:..\..\..\..\..\..\Software\uC-LIB/lib_math.c **** 
  88:..\..\..\..\..\..\Software\uC-LIB/lib_math.c **** 
  89:..\..\..\..\..\..\Software\uC-LIB/lib_math.c **** /*
  90:..\..\..\..\..\..\Software\uC-LIB/lib_math.c **** ***************************************************************************************************
  91:..\..\..\..\..\..\Software\uC-LIB/lib_math.c **** *                                          LOCAL DATA TYPES
  92:..\..\..\..\..\..\Software\uC-LIB/lib_math.c **** ***************************************************************************************************
  93:..\..\..\..\..\..\Software\uC-LIB/lib_math.c **** */
  94:..\..\..\..\..\..\Software\uC-LIB/lib_math.c **** 
  95:..\..\..\..\..\..\Software\uC-LIB/lib_math.c **** 
  96:..\..\..\..\..\..\Software\uC-LIB/lib_math.c **** /*
  97:..\..\..\..\..\..\Software\uC-LIB/lib_math.c **** ***************************************************************************************************
  98:..\..\..\..\..\..\Software\uC-LIB/lib_math.c **** *                                            LOCAL TABLES
  99:..\..\..\..\..\..\Software\uC-LIB/lib_math.c **** ***************************************************************************************************
 100:..\..\..\..\..\..\Software\uC-LIB/lib_math.c **** */
 101:..\..\..\..\..\..\Software\uC-LIB/lib_math.c **** 
 102:..\..\..\..\..\..\Software\uC-LIB/lib_math.c **** 
 103:..\..\..\..\..\..\Software\uC-LIB/lib_math.c **** /*
 104:..\..\..\..\..\..\Software\uC-LIB/lib_math.c **** ***************************************************************************************************
 105:..\..\..\..\..\..\Software\uC-LIB/lib_math.c **** *                                       LOCAL GLOBAL VARIABLES
 106:..\..\..\..\..\..\Software\uC-LIB/lib_math.c **** ***************************************************************************************************
 107:..\..\..\..\..\..\Software\uC-LIB/lib_math.c **** */
 108:..\..\..\..\..\..\Software\uC-LIB/lib_math.c **** 
 109:..\..\..\..\..\..\Software\uC-LIB/lib_math.c **** RAND_NBR  Math_RandSeedCur;                                     /* Cur rand nbr seed.              
 110:..\..\..\..\..\..\Software\uC-LIB/lib_math.c **** 
 111:..\..\..\..\..\..\Software\uC-LIB/lib_math.c **** 
 112:..\..\..\..\..\..\Software\uC-LIB/lib_math.c **** /*
 113:..\..\..\..\..\..\Software\uC-LIB/lib_math.c **** ***************************************************************************************************
 114:..\..\..\..\..\..\Software\uC-LIB/lib_math.c **** *                                      LOCAL FUNCTION PROTOTYPES
 115:..\..\..\..\..\..\Software\uC-LIB/lib_math.c **** ***************************************************************************************************
 116:..\..\..\..\..\..\Software\uC-LIB/lib_math.c **** */
 117:..\..\..\..\..\..\Software\uC-LIB/lib_math.c **** 
 118:..\..\..\..\..\..\Software\uC-LIB/lib_math.c **** 
 119:..\..\..\..\..\..\Software\uC-LIB/lib_math.c **** /*
 120:..\..\..\..\..\..\Software\uC-LIB/lib_math.c **** ***************************************************************************************************
 121:..\..\..\..\..\..\Software\uC-LIB/lib_math.c **** *                                     LOCAL CONFIGURATION ERRORS
 122:..\..\..\..\..\..\Software\uC-LIB/lib_math.c **** ***************************************************************************************************
 123:..\..\..\..\..\..\Software\uC-LIB/lib_math.c **** */
 124:..\..\..\..\..\..\Software\uC-LIB/lib_math.c **** 
 125:..\..\..\..\..\..\Software\uC-LIB/lib_math.c **** 
 126:..\..\..\..\..\..\Software\uC-LIB/lib_math.c **** /*
 127:..\..\..\..\..\..\Software\uC-LIB/lib_math.c **** ***************************************************************************************************
 128:..\..\..\..\..\..\Software\uC-LIB/lib_math.c **** *                                             Math_Init()
 129:..\..\..\..\..\..\Software\uC-LIB/lib_math.c **** *
 130:..\..\..\..\..\..\Software\uC-LIB/lib_math.c **** * Description : (1) Initialize Mathematic Module :
 131:..\..\..\..\..\..\Software\uC-LIB/lib_math.c **** *
 132:..\..\..\..\..\..\Software\uC-LIB/lib_math.c **** *                   (a) Initialize random number seed value
 133:..\..\..\..\..\..\Software\uC-LIB/lib_math.c **** *
 134:..\..\..\..\..\..\Software\uC-LIB/lib_math.c **** *
 135:..\..\..\..\..\..\Software\uC-LIB/lib_math.c **** * Argument(s) : none.
 136:..\..\..\..\..\..\Software\uC-LIB/lib_math.c **** *
 137:..\..\..\..\..\..\Software\uC-LIB/lib_math.c **** * Return(s)   : none.
 138:..\..\..\..\..\..\Software\uC-LIB/lib_math.c **** *
 139:..\..\..\..\..\..\Software\uC-LIB/lib_math.c **** * Caller(s)   : Application.
 140:..\..\..\..\..\..\Software\uC-LIB/lib_math.c **** *
 141:..\..\..\..\..\..\Software\uC-LIB/lib_math.c **** * Note(s)     : (2) IEEE Std 1003.1, 2004 Edition, Section 'rand() : DESCRIPTION' states that "if r
 142:..\..\..\..\..\..\Software\uC-LIB/lib_math.c **** *                   is called before any calls to srand() are made, the same sequence shall be gene
 143:..\..\..\..\..\..\Software\uC-LIB/lib_math.c **** *                   as when srand() is first called with a seed value of 1".
ARM GAS  C:\Users\ADMINI~1\AppData\Local\Temp\cctLRtXR.s 			page 4


 144:..\..\..\..\..\..\Software\uC-LIB/lib_math.c **** ***************************************************************************************************
 145:..\..\..\..\..\..\Software\uC-LIB/lib_math.c **** */
 146:..\..\..\..\..\..\Software\uC-LIB/lib_math.c **** 
 147:..\..\..\..\..\..\Software\uC-LIB/lib_math.c **** void  Math_Init (void)
 148:..\..\..\..\..\..\Software\uC-LIB/lib_math.c **** {
  29              		.loc 1 148 0
  30              		.cfi_startproc
  31              		@ args = 0, pretend = 0, frame = 0
  32              		@ frame_needed = 1, uses_anonymous_args = 0
  33 0000 80B5     		push	{r7, lr}
  34              		.cfi_def_cfa_offset 8
  35              		.cfi_offset 7, -8
  36              		.cfi_offset 14, -4
  37 0002 00AF     		add	r7, sp, #0
  38              		.cfi_def_cfa_register 7
 149:..\..\..\..\..\..\Software\uC-LIB/lib_math.c ****     Math_RandSetSeed((RAND_NBR)RAND_SEED_INIT_VAL);             /* See Note #2.                    
  39              		.loc 1 149 0
  40 0004 0120     		movs	r0, #1
  41 0006 FFF7FEFF 		bl	Math_RandSetSeed
 150:..\..\..\..\..\..\Software\uC-LIB/lib_math.c **** }
  42              		.loc 1 150 0
  43 000a C046     		nop
  44 000c BD46     		mov	sp, r7
  45              		@ sp needed
  46 000e 80BD     		pop	{r7, pc}
  47              		.cfi_endproc
  48              	.LFE0:
  49              		.size	Math_Init, .-Math_Init
  50              		.section	.text.Math_RandSetSeed,"ax",%progbits
  51              		.align	2
  52              		.global	Math_RandSetSeed
  53              		.code	16
  54              		.thumb_func
  55              		.type	Math_RandSetSeed, %function
  56              	Math_RandSetSeed:
  57              	.LFB1:
 151:..\..\..\..\..\..\Software\uC-LIB/lib_math.c **** 
 152:..\..\..\..\..\..\Software\uC-LIB/lib_math.c **** 
 153:..\..\..\..\..\..\Software\uC-LIB/lib_math.c **** /*
 154:..\..\..\..\..\..\Software\uC-LIB/lib_math.c **** ***************************************************************************************************
 155:..\..\..\..\..\..\Software\uC-LIB/lib_math.c **** *                                         Math_RandSetSeed()
 156:..\..\..\..\..\..\Software\uC-LIB/lib_math.c **** *
 157:..\..\..\..\..\..\Software\uC-LIB/lib_math.c **** * Description : Set the current pseudo-random number generator seed.
 158:..\..\..\..\..\..\Software\uC-LIB/lib_math.c **** *
 159:..\..\..\..\..\..\Software\uC-LIB/lib_math.c **** * Argument(s) : seed        Initial (or current) value to set for the pseudo-random number sequence
 160:..\..\..\..\..\..\Software\uC-LIB/lib_math.c **** *
 161:..\..\..\..\..\..\Software\uC-LIB/lib_math.c **** * Return(s)   : none.
 162:..\..\..\..\..\..\Software\uC-LIB/lib_math.c **** *
 163:..\..\..\..\..\..\Software\uC-LIB/lib_math.c **** * Caller(s)   : Application.
 164:..\..\..\..\..\..\Software\uC-LIB/lib_math.c **** *
 165:..\..\..\..\..\..\Software\uC-LIB/lib_math.c **** * Note(s)     : (1) IEEE Std 1003.1, 2004 Edition, Section 'rand() : DESCRIPTION' states that "sran
 166:..\..\..\..\..\..\Software\uC-LIB/lib_math.c **** *                   ... uses the argument as a seed for a new sequence of pseudo-random numbers to 
 167:..\..\..\..\..\..\Software\uC-LIB/lib_math.c **** *                   returned by subsequent calls to rand()".
 168:..\..\..\..\..\..\Software\uC-LIB/lib_math.c **** *
 169:..\..\..\..\..\..\Software\uC-LIB/lib_math.c **** *               (2) 'Math_RandSeedCur' MUST always be accessed exclusively in critical sections.
 170:..\..\..\..\..\..\Software\uC-LIB/lib_math.c **** *
 171:..\..\..\..\..\..\Software\uC-LIB/lib_math.c **** *                   See also 'Math_Rand()  Note #1b'.
ARM GAS  C:\Users\ADMINI~1\AppData\Local\Temp\cctLRtXR.s 			page 5


 172:..\..\..\..\..\..\Software\uC-LIB/lib_math.c **** ***************************************************************************************************
 173:..\..\..\..\..\..\Software\uC-LIB/lib_math.c **** */
 174:..\..\..\..\..\..\Software\uC-LIB/lib_math.c **** 
 175:..\..\..\..\..\..\Software\uC-LIB/lib_math.c **** void  Math_RandSetSeed (RAND_NBR  seed)
 176:..\..\..\..\..\..\Software\uC-LIB/lib_math.c **** {
  58              		.loc 1 176 0
  59              		.cfi_startproc
  60              		@ args = 0, pretend = 0, frame = 16
  61              		@ frame_needed = 1, uses_anonymous_args = 0
  62 0000 80B5     		push	{r7, lr}
  63              		.cfi_def_cfa_offset 8
  64              		.cfi_offset 7, -8
  65              		.cfi_offset 14, -4
  66 0002 84B0     		sub	sp, sp, #16
  67              		.cfi_def_cfa_offset 24
  68 0004 00AF     		add	r7, sp, #0
  69              		.cfi_def_cfa_register 7
  70 0006 7860     		str	r0, [r7, #4]
 177:..\..\..\..\..\..\Software\uC-LIB/lib_math.c ****     CPU_SR_ALLOC();
  71              		.loc 1 177 0
  72 0008 0023     		movs	r3, #0
  73 000a FB60     		str	r3, [r7, #12]
 178:..\..\..\..\..\..\Software\uC-LIB/lib_math.c **** 
 179:..\..\..\..\..\..\Software\uC-LIB/lib_math.c **** 
 180:..\..\..\..\..\..\Software\uC-LIB/lib_math.c ****     CPU_CRITICAL_ENTER();
  74              		.loc 1 180 0
  75 000c FFF7FEFF 		bl	CPU_SR_Save
  76 0010 0300     		movs	r3, r0
  77 0012 FB60     		str	r3, [r7, #12]
  78 0014 FFF7FEFF 		bl	CPU_IntDisMeasStart
 181:..\..\..\..\..\..\Software\uC-LIB/lib_math.c ****     Math_RandSeedCur = seed;
  79              		.loc 1 181 0
  80 0018 064B     		ldr	r3, .L3
  81 001a 7A68     		ldr	r2, [r7, #4]
  82 001c 1A60     		str	r2, [r3]
 182:..\..\..\..\..\..\Software\uC-LIB/lib_math.c ****     CPU_CRITICAL_EXIT();
  83              		.loc 1 182 0
  84 001e FFF7FEFF 		bl	CPU_IntDisMeasStop
  85 0022 FB68     		ldr	r3, [r7, #12]
  86 0024 1800     		movs	r0, r3
  87 0026 FFF7FEFF 		bl	CPU_SR_Restore
 183:..\..\..\..\..\..\Software\uC-LIB/lib_math.c **** }
  88              		.loc 1 183 0
  89 002a C046     		nop
  90 002c BD46     		mov	sp, r7
  91 002e 04B0     		add	sp, sp, #16
  92              		@ sp needed
  93 0030 80BD     		pop	{r7, pc}
  94              	.L4:
  95 0032 C046     		.align	2
  96              	.L3:
  97 0034 00000000 		.word	Math_RandSeedCur
  98              		.cfi_endproc
  99              	.LFE1:
 100              		.size	Math_RandSetSeed, .-Math_RandSetSeed
 101              		.section	.text.Math_Rand,"ax",%progbits
 102              		.align	2
ARM GAS  C:\Users\ADMINI~1\AppData\Local\Temp\cctLRtXR.s 			page 6


 103              		.global	Math_Rand
 104              		.code	16
 105              		.thumb_func
 106              		.type	Math_Rand, %function
 107              	Math_Rand:
 108              	.LFB2:
 184:..\..\..\..\..\..\Software\uC-LIB/lib_math.c **** 
 185:..\..\..\..\..\..\Software\uC-LIB/lib_math.c **** 
 186:..\..\..\..\..\..\Software\uC-LIB/lib_math.c **** /*
 187:..\..\..\..\..\..\Software\uC-LIB/lib_math.c **** ***************************************************************************************************
 188:..\..\..\..\..\..\Software\uC-LIB/lib_math.c **** *                                             Math_Rand()
 189:..\..\..\..\..\..\Software\uC-LIB/lib_math.c **** *
 190:..\..\..\..\..\..\Software\uC-LIB/lib_math.c **** * Description : Calculate the next pseudo-random number.
 191:..\..\..\..\..\..\Software\uC-LIB/lib_math.c **** *
 192:..\..\..\..\..\..\Software\uC-LIB/lib_math.c **** * Argument(s) : none.
 193:..\..\..\..\..\..\Software\uC-LIB/lib_math.c **** *
 194:..\..\..\..\..\..\Software\uC-LIB/lib_math.c **** * Return(s)   : Next pseudo-random number in the sequence after 'Math_RandSeedCur'.
 195:..\..\..\..\..\..\Software\uC-LIB/lib_math.c **** *
 196:..\..\..\..\..\..\Software\uC-LIB/lib_math.c **** * Caller(s)   : Application.
 197:..\..\..\..\..\..\Software\uC-LIB/lib_math.c **** *
 198:..\..\..\..\..\..\Software\uC-LIB/lib_math.c **** * Note(s)     : (1) (a) The pseudo-random number generator is implemented as a Linear Congruential
 199:..\..\..\..\..\..\Software\uC-LIB/lib_math.c **** *                       Generator (LCG).
 200:..\..\..\..\..\..\Software\uC-LIB/lib_math.c **** *
 201:..\..\..\..\..\..\Software\uC-LIB/lib_math.c **** *                   (b) The pseudo-random number generated is in the range [0, RAND_LCG_PARAM_M].
 202:..\..\..\..\..\..\Software\uC-LIB/lib_math.c **** *
 203:..\..\..\..\..\..\Software\uC-LIB/lib_math.c **** *                   See also 'Math_RandSeed()  Note #1'.
 204:..\..\..\..\..\..\Software\uC-LIB/lib_math.c **** *
 205:..\..\..\..\..\..\Software\uC-LIB/lib_math.c **** *               (2) (a) IEEE Std 1003.1, 2004 Edition, Section 'rand() : DESCRIPTION' states that "
 206:..\..\..\..\..\..\Software\uC-LIB/lib_math.c **** *                       ... need not be reentrant ... [and] is not required to be thread-safe".
 207:..\..\..\..\..\..\Software\uC-LIB/lib_math.c **** *
 208:..\..\..\..\..\..\Software\uC-LIB/lib_math.c **** *                   (b) However, in order to implement Math_Rand() as re-entrant; 'Math_RandSeedCur
 209:..\..\..\..\..\..\Software\uC-LIB/lib_math.c **** *                       always be accessed & updated exclusively in critical sections.
 210:..\..\..\..\..\..\Software\uC-LIB/lib_math.c **** *
 211:..\..\..\..\..\..\Software\uC-LIB/lib_math.c **** *                   See also 'Math_RandSeed()  Note #2'.
 212:..\..\..\..\..\..\Software\uC-LIB/lib_math.c **** ***************************************************************************************************
 213:..\..\..\..\..\..\Software\uC-LIB/lib_math.c **** */
 214:..\..\..\..\..\..\Software\uC-LIB/lib_math.c **** 
 215:..\..\..\..\..\..\Software\uC-LIB/lib_math.c **** RAND_NBR  Math_Rand (void)
 216:..\..\..\..\..\..\Software\uC-LIB/lib_math.c **** {
 109              		.loc 1 216 0
 110              		.cfi_startproc
 111              		@ args = 0, pretend = 0, frame = 16
 112              		@ frame_needed = 1, uses_anonymous_args = 0
 113 0000 80B5     		push	{r7, lr}
 114              		.cfi_def_cfa_offset 8
 115              		.cfi_offset 7, -8
 116              		.cfi_offset 14, -4
 117 0002 84B0     		sub	sp, sp, #16
 118              		.cfi_def_cfa_offset 24
 119 0004 00AF     		add	r7, sp, #0
 120              		.cfi_def_cfa_register 7
 217:..\..\..\..\..\..\Software\uC-LIB/lib_math.c ****     RAND_NBR  seed;
 218:..\..\..\..\..\..\Software\uC-LIB/lib_math.c ****     RAND_NBR  rand_nbr;
 219:..\..\..\..\..\..\Software\uC-LIB/lib_math.c ****     CPU_SR_ALLOC();
 121              		.loc 1 219 0
 122 0006 0023     		movs	r3, #0
 123 0008 FB60     		str	r3, [r7, #12]
ARM GAS  C:\Users\ADMINI~1\AppData\Local\Temp\cctLRtXR.s 			page 7


 220:..\..\..\..\..\..\Software\uC-LIB/lib_math.c **** 
 221:..\..\..\..\..\..\Software\uC-LIB/lib_math.c **** 
 222:..\..\..\..\..\..\Software\uC-LIB/lib_math.c ****     CPU_CRITICAL_ENTER();
 124              		.loc 1 222 0
 125 000a FFF7FEFF 		bl	CPU_SR_Save
 126 000e 0300     		movs	r3, r0
 127 0010 FB60     		str	r3, [r7, #12]
 128 0012 FFF7FEFF 		bl	CPU_IntDisMeasStart
 223:..\..\..\..\..\..\Software\uC-LIB/lib_math.c ****     seed             = Math_RandSeedCur;
 129              		.loc 1 223 0
 130 0016 0B4B     		ldr	r3, .L7
 131 0018 1B68     		ldr	r3, [r3]
 132 001a BB60     		str	r3, [r7, #8]
 224:..\..\..\..\..\..\Software\uC-LIB/lib_math.c ****     rand_nbr         = Math_RandSeed(seed);
 133              		.loc 1 224 0
 134 001c BB68     		ldr	r3, [r7, #8]
 135 001e 1800     		movs	r0, r3
 136 0020 FFF7FEFF 		bl	Math_RandSeed
 137 0024 0300     		movs	r3, r0
 138 0026 7B60     		str	r3, [r7, #4]
 225:..\..\..\..\..\..\Software\uC-LIB/lib_math.c ****     Math_RandSeedCur = rand_nbr;
 139              		.loc 1 225 0
 140 0028 064B     		ldr	r3, .L7
 141 002a 7A68     		ldr	r2, [r7, #4]
 142 002c 1A60     		str	r2, [r3]
 226:..\..\..\..\..\..\Software\uC-LIB/lib_math.c ****     CPU_CRITICAL_EXIT();
 143              		.loc 1 226 0
 144 002e FFF7FEFF 		bl	CPU_IntDisMeasStop
 145 0032 FB68     		ldr	r3, [r7, #12]
 146 0034 1800     		movs	r0, r3
 147 0036 FFF7FEFF 		bl	CPU_SR_Restore
 227:..\..\..\..\..\..\Software\uC-LIB/lib_math.c **** 
 228:..\..\..\..\..\..\Software\uC-LIB/lib_math.c ****     return (rand_nbr);
 148              		.loc 1 228 0
 149 003a 7B68     		ldr	r3, [r7, #4]
 229:..\..\..\..\..\..\Software\uC-LIB/lib_math.c **** }
 150              		.loc 1 229 0
 151 003c 1800     		movs	r0, r3
 152 003e BD46     		mov	sp, r7
 153 0040 04B0     		add	sp, sp, #16
 154              		@ sp needed
 155 0042 80BD     		pop	{r7, pc}
 156              	.L8:
 157              		.align	2
 158              	.L7:
 159 0044 00000000 		.word	Math_RandSeedCur
 160              		.cfi_endproc
 161              	.LFE2:
 162              		.size	Math_Rand, .-Math_Rand
 163              		.section	.text.Math_RandSeed,"ax",%progbits
 164              		.align	2
 165              		.global	Math_RandSeed
 166              		.code	16
 167              		.thumb_func
 168              		.type	Math_RandSeed, %function
 169              	Math_RandSeed:
 170              	.LFB3:
ARM GAS  C:\Users\ADMINI~1\AppData\Local\Temp\cctLRtXR.s 			page 8


 230:..\..\..\..\..\..\Software\uC-LIB/lib_math.c **** 
 231:..\..\..\..\..\..\Software\uC-LIB/lib_math.c **** 
 232:..\..\..\..\..\..\Software\uC-LIB/lib_math.c **** /*
 233:..\..\..\..\..\..\Software\uC-LIB/lib_math.c **** ***************************************************************************************************
 234:..\..\..\..\..\..\Software\uC-LIB/lib_math.c **** *                                           Math_RandSeed()
 235:..\..\..\..\..\..\Software\uC-LIB/lib_math.c **** *
 236:..\..\..\..\..\..\Software\uC-LIB/lib_math.c **** * Description : Calculate the next pseudo-random number.
 237:..\..\..\..\..\..\Software\uC-LIB/lib_math.c **** *
 238:..\..\..\..\..\..\Software\uC-LIB/lib_math.c **** * Argument(s) : seed        Initial (or current) value for the pseudo-random number sequence.
 239:..\..\..\..\..\..\Software\uC-LIB/lib_math.c **** *
 240:..\..\..\..\..\..\Software\uC-LIB/lib_math.c **** * Return(s)   : Next pseudo-random number in the sequence after 'seed'.
 241:..\..\..\..\..\..\Software\uC-LIB/lib_math.c **** *
 242:..\..\..\..\..\..\Software\uC-LIB/lib_math.c **** * Caller(s)   : Math_Rand(),
 243:..\..\..\..\..\..\Software\uC-LIB/lib_math.c **** *               Application.
 244:..\..\..\..\..\..\Software\uC-LIB/lib_math.c **** *
 245:..\..\..\..\..\..\Software\uC-LIB/lib_math.c **** * Note(s)     : (1) (a) BSD/ANSI-C implements rand() as a Linear Congruential Generator (LCG) :
 246:..\..\..\..\..\..\Software\uC-LIB/lib_math.c **** *
 247:..\..\..\..\..\..\Software\uC-LIB/lib_math.c **** *                       (A) random_number       =  [(a * random_number ) + b]  modulo m
 248:..\..\..\..\..\..\Software\uC-LIB/lib_math.c **** *                                        n + 1                        n
 249:..\..\..\..\..\..\Software\uC-LIB/lib_math.c **** *
 250:..\..\..\..\..\..\Software\uC-LIB/lib_math.c **** *                               where
 251:..\..\..\..\..\..\Software\uC-LIB/lib_math.c **** *                                       (1) (a) random_number           Next     random number to g
 252:..\..\..\..\..\..\Software\uC-LIB/lib_math.c **** *                                                            n+1
 253:..\..\..\..\..\..\Software\uC-LIB/lib_math.c **** *                                           (b) random_number           Previous random number    g
 254:..\..\..\..\..\..\Software\uC-LIB/lib_math.c **** *                                                            n
 255:..\..\..\..\..\..\Software\uC-LIB/lib_math.c **** *
 256:..\..\..\..\..\..\Software\uC-LIB/lib_math.c **** *                                       (2) a = RAND_LCG_PARAM_A        LCG multiplier
 257:..\..\..\..\..\..\Software\uC-LIB/lib_math.c **** *                                       (3) b = RAND_LCG_PARAM_B        LCG incrementor
 258:..\..\..\..\..\..\Software\uC-LIB/lib_math.c **** *                                       (4) m = RAND_LCG_PARAM_M + 1    LCG modulus
 259:..\..\..\..\..\..\Software\uC-LIB/lib_math.c **** *
 260:..\..\..\..\..\..\Software\uC-LIB/lib_math.c **** *                   (b) The pseudo-random number generated is in the range [0, RAND_LCG_PARAM_M].
 261:..\..\..\..\..\..\Software\uC-LIB/lib_math.c **** *
 262:..\..\..\..\..\..\Software\uC-LIB/lib_math.c ****                     See also 'lib_math.h  RANDOM NUMBER DEFINES  Note #1b'.
 263:..\..\..\..\..\..\Software\uC-LIB/lib_math.c **** *
 264:..\..\..\..\..\..\Software\uC-LIB/lib_math.c **** *               (2) (a) IEEE Std 1003.1, 2004 Edition, Section 'rand() : DESCRIPTION' states that "
 265:..\..\..\..\..\..\Software\uC-LIB/lib_math.c **** *                       ... need not be reentrant ... [and] is not required to be thread-safe".
 266:..\..\..\..\..\..\Software\uC-LIB/lib_math.c **** *
 267:..\..\..\..\..\..\Software\uC-LIB/lib_math.c **** *                   (b) However, Math_RandSeed() is re-entrant since it calculates the next random 
 268:..\..\..\..\..\..\Software\uC-LIB/lib_math.c **** *                       using ONLY local variables.
 269:..\..\..\..\..\..\Software\uC-LIB/lib_math.c **** ***************************************************************************************************
 270:..\..\..\..\..\..\Software\uC-LIB/lib_math.c **** */
 271:..\..\..\..\..\..\Software\uC-LIB/lib_math.c **** 
 272:..\..\..\..\..\..\Software\uC-LIB/lib_math.c **** RAND_NBR  Math_RandSeed (RAND_NBR  seed)
 273:..\..\..\..\..\..\Software\uC-LIB/lib_math.c **** {
 171              		.loc 1 273 0
 172              		.cfi_startproc
 173              		@ args = 0, pretend = 0, frame = 16
 174              		@ frame_needed = 1, uses_anonymous_args = 0
 175 0000 80B5     		push	{r7, lr}
 176              		.cfi_def_cfa_offset 8
 177              		.cfi_offset 7, -8
 178              		.cfi_offset 14, -4
 179 0002 84B0     		sub	sp, sp, #16
 180              		.cfi_def_cfa_offset 24
 181 0004 00AF     		add	r7, sp, #0
 182              		.cfi_def_cfa_register 7
 183 0006 7860     		str	r0, [r7, #4]
ARM GAS  C:\Users\ADMINI~1\AppData\Local\Temp\cctLRtXR.s 			page 9


 274:..\..\..\..\..\..\Software\uC-LIB/lib_math.c ****     RAND_NBR  rand_nbr;
 275:..\..\..\..\..\..\Software\uC-LIB/lib_math.c **** 
 276:..\..\..\..\..\..\Software\uC-LIB/lib_math.c **** 
 277:..\..\..\..\..\..\Software\uC-LIB/lib_math.c ****     rand_nbr = (((RAND_NBR)RAND_LCG_PARAM_A * seed) + (RAND_NBR)RAND_LCG_PARAM_B)  %  ((RAND_NBR)RA
 184              		.loc 1 277 0
 185 0008 7B68     		ldr	r3, [r7, #4]
 186 000a 064A     		ldr	r2, .L11
 187 000c 5343     		muls	r3, r2
 188 000e 064A     		ldr	r2, .L11+4
 189 0010 9446     		mov	ip, r2
 190 0012 6344     		add	r3, r3, ip
 191 0014 5B00     		lsls	r3, r3, #1
 192 0016 5B08     		lsrs	r3, r3, #1
 193 0018 FB60     		str	r3, [r7, #12]
 278:..\..\..\..\..\..\Software\uC-LIB/lib_math.c **** 
 279:..\..\..\..\..\..\Software\uC-LIB/lib_math.c ****     return (rand_nbr);
 194              		.loc 1 279 0
 195 001a FB68     		ldr	r3, [r7, #12]
 280:..\..\..\..\..\..\Software\uC-LIB/lib_math.c **** }
 196              		.loc 1 280 0
 197 001c 1800     		movs	r0, r3
 198 001e BD46     		mov	sp, r7
 199 0020 04B0     		add	sp, sp, #16
 200              		@ sp needed
 201 0022 80BD     		pop	{r7, pc}
 202              	.L12:
 203              		.align	2
 204              	.L11:
 205 0024 6D4EC641 		.word	1103515245
 206 0028 39300000 		.word	12345
 207              		.cfi_endproc
 208              	.LFE3:
 209              		.size	Math_RandSeed, .-Math_RandSeed
 210              		.text
 211              	.Letext0:
 212              		.file 2 "..\\..\\..\\..\\..\\..\\Software\\uC-CPU\\ARM-Cortex-M0\\GNU/cpu.h"
 213              		.file 3 "..\\..\\..\\..\\..\\..\\Software\\uC-LIB/lib_math.h"