ARM GAS  C:\Users\ADMINI~1\AppData\Local\Temp\cctHQdso.s 			page 1


   1              		.syntax unified
   2              		.cpu cortex-m0
   3              		.fpu softvfp
   4              		.eabi_attribute 20, 1
   5              		.eabi_attribute 21, 1
   6              		.eabi_attribute 23, 3
   7              		.eabi_attribute 24, 1
   8              		.eabi_attribute 25, 1
   9              		.eabi_attribute 26, 1
  10              		.eabi_attribute 30, 6
  11              		.eabi_attribute 34, 0
  12              		.eabi_attribute 18, 4
  13              		.thumb
  14              		.syntax unified
  15              		.file	"Opamp.c"
  16              		.text
  17              	.Ltext0:
  18              		.cfi_sections	.debug_frame
  19              		.global	Opamp_initVar
  20              		.bss
  21              		.type	Opamp_initVar, %object
  22              		.size	Opamp_initVar, 1
  23              	Opamp_initVar:
  24 0000 00       		.space	1
  25 0001 000000   		.align	2
  26              	Opamp_internalPower:
  27 0004 00000000 		.space	4
  28              		.section	.text.Opamp_Init,"ax",%progbits
  29              		.align	2
  30              		.global	Opamp_Init
  31              		.code	16
  32              		.thumb_func
  33              		.type	Opamp_Init, %function
  34              	Opamp_Init:
  35              	.LFB0:
  36              		.file 1 "Generated_Source\\PSoC4\\Opamp.c"
   1:Generated_Source\PSoC4/Opamp.c **** /*******************************************************************************
   2:Generated_Source\PSoC4/Opamp.c **** * File Name: Opamp.c
   3:Generated_Source\PSoC4/Opamp.c **** * Version 1.20
   4:Generated_Source\PSoC4/Opamp.c **** *
   5:Generated_Source\PSoC4/Opamp.c **** * Description:
   6:Generated_Source\PSoC4/Opamp.c **** *  This file provides the source code to the API for the Opamp (Analog Buffer)
   7:Generated_Source\PSoC4/Opamp.c **** *  Component.
   8:Generated_Source\PSoC4/Opamp.c **** *
   9:Generated_Source\PSoC4/Opamp.c **** *
  10:Generated_Source\PSoC4/Opamp.c **** ********************************************************************************
  11:Generated_Source\PSoC4/Opamp.c **** * Copyright 2013-2015, Cypress Semiconductor Corporation.  All rights reserved.
  12:Generated_Source\PSoC4/Opamp.c **** * You may use this file only in accordance with the license, terms, conditions,
  13:Generated_Source\PSoC4/Opamp.c **** * disclaimers, and limitations in the end user license agreement accompanying
  14:Generated_Source\PSoC4/Opamp.c **** * the software package with which this file was provided.
  15:Generated_Source\PSoC4/Opamp.c **** *******************************************************************************/
  16:Generated_Source\PSoC4/Opamp.c **** 
  17:Generated_Source\PSoC4/Opamp.c **** #include "Opamp.h"
  18:Generated_Source\PSoC4/Opamp.c **** 
  19:Generated_Source\PSoC4/Opamp.c **** uint8 Opamp_initVar = 0u; /* Defines if component was initialized */
  20:Generated_Source\PSoC4/Opamp.c **** static uint32 Opamp_internalPower = 0u; /* Defines component Power value */
  21:Generated_Source\PSoC4/Opamp.c **** 
ARM GAS  C:\Users\ADMINI~1\AppData\Local\Temp\cctHQdso.s 			page 2


  22:Generated_Source\PSoC4/Opamp.c **** 
  23:Generated_Source\PSoC4/Opamp.c **** /*******************************************************************************
  24:Generated_Source\PSoC4/Opamp.c **** * Function Name: Opamp_Init
  25:Generated_Source\PSoC4/Opamp.c **** ********************************************************************************
  26:Generated_Source\PSoC4/Opamp.c **** *
  27:Generated_Source\PSoC4/Opamp.c **** * Summary:
  28:Generated_Source\PSoC4/Opamp.c **** *  Initializes or restores the component according to the customizer Configure 
  29:Generated_Source\PSoC4/Opamp.c **** *  dialog settings. It is not necessary to call Init() because the Start() API 
  30:Generated_Source\PSoC4/Opamp.c **** *  calls this function and is the preferred method to begin the component operation.
  31:Generated_Source\PSoC4/Opamp.c **** *
  32:Generated_Source\PSoC4/Opamp.c **** * Parameters:
  33:Generated_Source\PSoC4/Opamp.c **** *  None
  34:Generated_Source\PSoC4/Opamp.c **** *
  35:Generated_Source\PSoC4/Opamp.c **** * Return:
  36:Generated_Source\PSoC4/Opamp.c **** *  None
  37:Generated_Source\PSoC4/Opamp.c **** *
  38:Generated_Source\PSoC4/Opamp.c **** *******************************************************************************/
  39:Generated_Source\PSoC4/Opamp.c **** void Opamp_Init(void)
  40:Generated_Source\PSoC4/Opamp.c **** {
  37              		.loc 1 40 0
  38              		.cfi_startproc
  39              		@ args = 0, pretend = 0, frame = 0
  40              		@ frame_needed = 1, uses_anonymous_args = 0
  41 0000 80B5     		push	{r7, lr}
  42              		.cfi_def_cfa_offset 8
  43              		.cfi_offset 7, -8
  44              		.cfi_offset 14, -4
  45 0002 00AF     		add	r7, sp, #0
  46              		.cfi_def_cfa_register 7
  41:Generated_Source\PSoC4/Opamp.c ****     Opamp_internalPower = Opamp_POWER;
  47              		.loc 1 41 0
  48 0004 074B     		ldr	r3, .L2
  49 0006 0222     		movs	r2, #2
  50 0008 1A60     		str	r2, [r3]
  42:Generated_Source\PSoC4/Opamp.c ****     Opamp_CTB_CTRL_REG = Opamp_DEFAULT_CTB_CTRL;
  51              		.loc 1 42 0
  52 000a 074B     		ldr	r3, .L2+4
  53 000c 8022     		movs	r2, #128
  54 000e 1206     		lsls	r2, r2, #24
  55 0010 1A60     		str	r2, [r3]
  43:Generated_Source\PSoC4/Opamp.c ****     Opamp_OA_RES_CTRL_REG = Opamp_DEFAULT_OA_RES_CTRL;
  56              		.loc 1 43 0
  57 0012 064B     		ldr	r3, .L2+8
  58 0014 0422     		movs	r2, #4
  59 0016 1A60     		str	r2, [r3]
  44:Generated_Source\PSoC4/Opamp.c ****     Opamp_OA_COMP_TRIM_REG = Opamp_DEFAULT_OA_COMP_TRIM_REG;
  60              		.loc 1 44 0
  61 0018 054B     		ldr	r3, .L2+12
  62 001a 0322     		movs	r2, #3
  63 001c 1A60     		str	r2, [r3]
  45:Generated_Source\PSoC4/Opamp.c **** }
  64              		.loc 1 45 0
  65 001e C046     		nop
  66 0020 BD46     		mov	sp, r7
  67              		@ sp needed
  68 0022 80BD     		pop	{r7, pc}
  69              	.L3:
ARM GAS  C:\Users\ADMINI~1\AppData\Local\Temp\cctHQdso.s 			page 3


  70              		.align	2
  71              	.L2:
  72 0024 04000000 		.word	Opamp_internalPower
  73 0028 00003140 		.word	1076953088
  74 002c 04003140 		.word	1076953092
  75 0030 080F3140 		.word	1076956936
  76              		.cfi_endproc
  77              	.LFE0:
  78              		.size	Opamp_Init, .-Opamp_Init
  79              		.section	.text.Opamp_Enable,"ax",%progbits
  80              		.align	2
  81              		.global	Opamp_Enable
  82              		.code	16
  83              		.thumb_func
  84              		.type	Opamp_Enable, %function
  85              	Opamp_Enable:
  86              	.LFB1:
  46:Generated_Source\PSoC4/Opamp.c **** 
  47:Generated_Source\PSoC4/Opamp.c **** 
  48:Generated_Source\PSoC4/Opamp.c **** /*******************************************************************************
  49:Generated_Source\PSoC4/Opamp.c **** * Function Name: Opamp_Enable
  50:Generated_Source\PSoC4/Opamp.c **** ********************************************************************************
  51:Generated_Source\PSoC4/Opamp.c **** *
  52:Generated_Source\PSoC4/Opamp.c **** * Summary:
  53:Generated_Source\PSoC4/Opamp.c **** *  Activates the hardware and begins the component operation. It is not necessary to 
  54:Generated_Source\PSoC4/Opamp.c **** *  call Enable() because the Start() API calls this function, which is the 
  55:Generated_Source\PSoC4/Opamp.c **** *  preferred method to begin the component operation.
  56:Generated_Source\PSoC4/Opamp.c **** *
  57:Generated_Source\PSoC4/Opamp.c **** * Parameters:
  58:Generated_Source\PSoC4/Opamp.c **** *  None
  59:Generated_Source\PSoC4/Opamp.c **** *
  60:Generated_Source\PSoC4/Opamp.c **** * Return:
  61:Generated_Source\PSoC4/Opamp.c **** *  None
  62:Generated_Source\PSoC4/Opamp.c **** *
  63:Generated_Source\PSoC4/Opamp.c **** *******************************************************************************/
  64:Generated_Source\PSoC4/Opamp.c **** void Opamp_Enable(void)
  65:Generated_Source\PSoC4/Opamp.c **** {
  87              		.loc 1 65 0
  88              		.cfi_startproc
  89              		@ args = 0, pretend = 0, frame = 0
  90              		@ frame_needed = 1, uses_anonymous_args = 0
  91 0000 80B5     		push	{r7, lr}
  92              		.cfi_def_cfa_offset 8
  93              		.cfi_offset 7, -8
  94              		.cfi_offset 14, -4
  95 0002 00AF     		add	r7, sp, #0
  96              		.cfi_def_cfa_register 7
  66:Generated_Source\PSoC4/Opamp.c ****     Opamp_OA_RES_CTRL_REG |= Opamp_internalPower | \
  97              		.loc 1 66 0
  98 0004 064A     		ldr	r2, .L5
  99 0006 064B     		ldr	r3, .L5
 100 0008 1968     		ldr	r1, [r3]
 101 000a 064B     		ldr	r3, .L5+4
 102 000c 1B68     		ldr	r3, [r3]
 103 000e 0B43     		orrs	r3, r1
 104 0010 8021     		movs	r1, #128
 105 0012 0901     		lsls	r1, r1, #4
ARM GAS  C:\Users\ADMINI~1\AppData\Local\Temp\cctHQdso.s 			page 4


 106 0014 0B43     		orrs	r3, r1
 107 0016 1360     		str	r3, [r2]
  67:Generated_Source\PSoC4/Opamp.c ****                                         Opamp_OA_PUMP_EN;
  68:Generated_Source\PSoC4/Opamp.c **** }
 108              		.loc 1 68 0
 109 0018 C046     		nop
 110 001a BD46     		mov	sp, r7
 111              		@ sp needed
 112 001c 80BD     		pop	{r7, pc}
 113              	.L6:
 114 001e C046     		.align	2
 115              	.L5:
 116 0020 04003140 		.word	1076953092
 117 0024 04000000 		.word	Opamp_internalPower
 118              		.cfi_endproc
 119              	.LFE1:
 120              		.size	Opamp_Enable, .-Opamp_Enable
 121              		.section	.text.Opamp_Start,"ax",%progbits
 122              		.align	2
 123              		.global	Opamp_Start
 124              		.code	16
 125              		.thumb_func
 126              		.type	Opamp_Start, %function
 127              	Opamp_Start:
 128              	.LFB2:
  69:Generated_Source\PSoC4/Opamp.c **** 
  70:Generated_Source\PSoC4/Opamp.c **** 
  71:Generated_Source\PSoC4/Opamp.c **** /*******************************************************************************
  72:Generated_Source\PSoC4/Opamp.c **** * Function Name: Opamp_Start
  73:Generated_Source\PSoC4/Opamp.c **** ********************************************************************************
  74:Generated_Source\PSoC4/Opamp.c **** *
  75:Generated_Source\PSoC4/Opamp.c **** * Summary:
  76:Generated_Source\PSoC4/Opamp.c **** *  Performs all of the required initialization for the component and enables power 
  77:Generated_Source\PSoC4/Opamp.c **** *  to the block. The first time the routine is executed, the Power level, Mode, 
  78:Generated_Source\PSoC4/Opamp.c **** *  and Output mode are set. When called to restart the Opamp following a Stop() call, 
  79:Generated_Source\PSoC4/Opamp.c **** *  the current component parameter settings are retained.
  80:Generated_Source\PSoC4/Opamp.c **** *
  81:Generated_Source\PSoC4/Opamp.c **** * Parameters:
  82:Generated_Source\PSoC4/Opamp.c **** *  None
  83:Generated_Source\PSoC4/Opamp.c **** *
  84:Generated_Source\PSoC4/Opamp.c **** * Return:
  85:Generated_Source\PSoC4/Opamp.c **** *  None
  86:Generated_Source\PSoC4/Opamp.c **** *
  87:Generated_Source\PSoC4/Opamp.c **** * Global variables:
  88:Generated_Source\PSoC4/Opamp.c **** *  Opamp_initVar: Used to check the initial configuration, modified
  89:Generated_Source\PSoC4/Opamp.c **** *  when this function is called for the first time.
  90:Generated_Source\PSoC4/Opamp.c **** *
  91:Generated_Source\PSoC4/Opamp.c **** *******************************************************************************/
  92:Generated_Source\PSoC4/Opamp.c **** void Opamp_Start(void)
  93:Generated_Source\PSoC4/Opamp.c **** {
 129              		.loc 1 93 0
 130              		.cfi_startproc
 131              		@ args = 0, pretend = 0, frame = 0
 132              		@ frame_needed = 1, uses_anonymous_args = 0
 133 0000 80B5     		push	{r7, lr}
 134              		.cfi_def_cfa_offset 8
 135              		.cfi_offset 7, -8
ARM GAS  C:\Users\ADMINI~1\AppData\Local\Temp\cctHQdso.s 			page 5


 136              		.cfi_offset 14, -4
 137 0002 00AF     		add	r7, sp, #0
 138              		.cfi_def_cfa_register 7
  94:Generated_Source\PSoC4/Opamp.c ****     if( 0u == Opamp_initVar)
 139              		.loc 1 94 0
 140 0004 064B     		ldr	r3, .L9
 141 0006 1B78     		ldrb	r3, [r3]
 142 0008 002B     		cmp	r3, #0
 143 000a 04D1     		bne	.L8
  95:Generated_Source\PSoC4/Opamp.c ****     {
  96:Generated_Source\PSoC4/Opamp.c ****         Opamp_Init();
 144              		.loc 1 96 0
 145 000c FFF7FEFF 		bl	Opamp_Init
  97:Generated_Source\PSoC4/Opamp.c ****         Opamp_initVar = 1u;
 146              		.loc 1 97 0
 147 0010 034B     		ldr	r3, .L9
 148 0012 0122     		movs	r2, #1
 149 0014 1A70     		strb	r2, [r3]
 150              	.L8:
  98:Generated_Source\PSoC4/Opamp.c ****     }
  99:Generated_Source\PSoC4/Opamp.c ****     Opamp_Enable();
 151              		.loc 1 99 0
 152 0016 FFF7FEFF 		bl	Opamp_Enable
 100:Generated_Source\PSoC4/Opamp.c **** }
 153              		.loc 1 100 0
 154 001a C046     		nop
 155 001c BD46     		mov	sp, r7
 156              		@ sp needed
 157 001e 80BD     		pop	{r7, pc}
 158              	.L10:
 159              		.align	2
 160              	.L9:
 161 0020 00000000 		.word	Opamp_initVar
 162              		.cfi_endproc
 163              	.LFE2:
 164              		.size	Opamp_Start, .-Opamp_Start
 165              		.section	.text.Opamp_Stop,"ax",%progbits
 166              		.align	2
 167              		.global	Opamp_Stop
 168              		.code	16
 169              		.thumb_func
 170              		.type	Opamp_Stop, %function
 171              	Opamp_Stop:
 172              	.LFB3:
 101:Generated_Source\PSoC4/Opamp.c **** 
 102:Generated_Source\PSoC4/Opamp.c **** 
 103:Generated_Source\PSoC4/Opamp.c **** /*******************************************************************************
 104:Generated_Source\PSoC4/Opamp.c **** * Function Name: Opamp_Stop
 105:Generated_Source\PSoC4/Opamp.c **** ********************************************************************************
 106:Generated_Source\PSoC4/Opamp.c **** *
 107:Generated_Source\PSoC4/Opamp.c **** * Summary:
 108:Generated_Source\PSoC4/Opamp.c **** *  Turn off the Opamp block.
 109:Generated_Source\PSoC4/Opamp.c **** *
 110:Generated_Source\PSoC4/Opamp.c **** * Parameters:
 111:Generated_Source\PSoC4/Opamp.c **** *  None
 112:Generated_Source\PSoC4/Opamp.c **** *
 113:Generated_Source\PSoC4/Opamp.c **** * Return:
ARM GAS  C:\Users\ADMINI~1\AppData\Local\Temp\cctHQdso.s 			page 6


 114:Generated_Source\PSoC4/Opamp.c **** *  None
 115:Generated_Source\PSoC4/Opamp.c **** *
 116:Generated_Source\PSoC4/Opamp.c **** *******************************************************************************/
 117:Generated_Source\PSoC4/Opamp.c **** void Opamp_Stop(void)
 118:Generated_Source\PSoC4/Opamp.c **** {
 173              		.loc 1 118 0
 174              		.cfi_startproc
 175              		@ args = 0, pretend = 0, frame = 0
 176              		@ frame_needed = 1, uses_anonymous_args = 0
 177 0000 80B5     		push	{r7, lr}
 178              		.cfi_def_cfa_offset 8
 179              		.cfi_offset 7, -8
 180              		.cfi_offset 14, -4
 181 0002 00AF     		add	r7, sp, #0
 182              		.cfi_def_cfa_register 7
 119:Generated_Source\PSoC4/Opamp.c ****     Opamp_OA_RES_CTRL_REG &= ((uint32)~(Opamp_OA_PWR_MODE_MASK | \
 183              		.loc 1 119 0
 184 0004 044B     		ldr	r3, .L12
 185 0006 044A     		ldr	r2, .L12
 186 0008 1268     		ldr	r2, [r2]
 187 000a 0449     		ldr	r1, .L12+4
 188 000c 0A40     		ands	r2, r1
 189 000e 1A60     		str	r2, [r3]
 120:Generated_Source\PSoC4/Opamp.c ****                                                    Opamp_OA_PUMP_EN));
 121:Generated_Source\PSoC4/Opamp.c **** }
 190              		.loc 1 121 0
 191 0010 C046     		nop
 192 0012 BD46     		mov	sp, r7
 193              		@ sp needed
 194 0014 80BD     		pop	{r7, pc}
 195              	.L13:
 196 0016 C046     		.align	2
 197              	.L12:
 198 0018 04003140 		.word	1076953092
 199 001c FCF7FFFF 		.word	-2052
 200              		.cfi_endproc
 201              	.LFE3:
 202              		.size	Opamp_Stop, .-Opamp_Stop
 203              		.section	.text.Opamp_SetPower,"ax",%progbits
 204              		.align	2
 205              		.global	Opamp_SetPower
 206              		.code	16
 207              		.thumb_func
 208              		.type	Opamp_SetPower, %function
 209              	Opamp_SetPower:
 210              	.LFB4:
 122:Generated_Source\PSoC4/Opamp.c **** 
 123:Generated_Source\PSoC4/Opamp.c **** 
 124:Generated_Source\PSoC4/Opamp.c **** /*******************************************************************************
 125:Generated_Source\PSoC4/Opamp.c **** * Function Name: Opamp_SetPower
 126:Generated_Source\PSoC4/Opamp.c **** ********************************************************************************
 127:Generated_Source\PSoC4/Opamp.c **** *
 128:Generated_Source\PSoC4/Opamp.c **** * Summary:
 129:Generated_Source\PSoC4/Opamp.c **** *  Sets the Opamp to one of the three power levels.
 130:Generated_Source\PSoC4/Opamp.c **** *
 131:Generated_Source\PSoC4/Opamp.c **** * Parameters:
 132:Generated_Source\PSoC4/Opamp.c **** *  power: power levels.
ARM GAS  C:\Users\ADMINI~1\AppData\Local\Temp\cctHQdso.s 			page 7


 133:Generated_Source\PSoC4/Opamp.c **** *   Opamp_LOW_POWER - Lowest active power
 134:Generated_Source\PSoC4/Opamp.c **** *   Opamp_MED_POWER - Medium power
 135:Generated_Source\PSoC4/Opamp.c **** *   Opamp_HIGH_POWER - Highest active power
 136:Generated_Source\PSoC4/Opamp.c **** *
 137:Generated_Source\PSoC4/Opamp.c **** * Return:
 138:Generated_Source\PSoC4/Opamp.c **** *  None
 139:Generated_Source\PSoC4/Opamp.c **** *
 140:Generated_Source\PSoC4/Opamp.c **** **********************************************************************************/
 141:Generated_Source\PSoC4/Opamp.c **** void Opamp_SetPower(uint32 power)
 142:Generated_Source\PSoC4/Opamp.c **** {
 211              		.loc 1 142 0
 212              		.cfi_startproc
 213              		@ args = 0, pretend = 0, frame = 16
 214              		@ frame_needed = 1, uses_anonymous_args = 0
 215 0000 80B5     		push	{r7, lr}
 216              		.cfi_def_cfa_offset 8
 217              		.cfi_offset 7, -8
 218              		.cfi_offset 14, -4
 219 0002 84B0     		sub	sp, sp, #16
 220              		.cfi_def_cfa_offset 24
 221 0004 00AF     		add	r7, sp, #0
 222              		.cfi_def_cfa_register 7
 223 0006 7860     		str	r0, [r7, #4]
 143:Generated_Source\PSoC4/Opamp.c ****     uint32 tmp;
 144:Generated_Source\PSoC4/Opamp.c ****     
 145:Generated_Source\PSoC4/Opamp.c ****     Opamp_internalPower = Opamp_GET_OA_PWR_MODE(power);
 224              		.loc 1 145 0
 225 0008 7B68     		ldr	r3, [r7, #4]
 226 000a 0322     		movs	r2, #3
 227 000c 1A40     		ands	r2, r3
 228 000e 084B     		ldr	r3, .L15
 229 0010 1A60     		str	r2, [r3]
 146:Generated_Source\PSoC4/Opamp.c ****     tmp = Opamp_OA_RES_CTRL_REG & \
 230              		.loc 1 146 0
 231 0012 084B     		ldr	r3, .L15+4
 232 0014 1B68     		ldr	r3, [r3]
 233 0016 0322     		movs	r2, #3
 234 0018 9343     		bics	r3, r2
 235 001a FB60     		str	r3, [r7, #12]
 147:Generated_Source\PSoC4/Opamp.c ****            (uint32)~Opamp_OA_PWR_MODE_MASK;
 148:Generated_Source\PSoC4/Opamp.c ****     Opamp_OA_RES_CTRL_REG = tmp | Opamp_internalPower;
 236              		.loc 1 148 0
 237 001c 054A     		ldr	r2, .L15+4
 238 001e 044B     		ldr	r3, .L15
 239 0020 1968     		ldr	r1, [r3]
 240 0022 FB68     		ldr	r3, [r7, #12]
 241 0024 0B43     		orrs	r3, r1
 242 0026 1360     		str	r3, [r2]
 149:Generated_Source\PSoC4/Opamp.c **** }
 243              		.loc 1 149 0
 244 0028 C046     		nop
 245 002a BD46     		mov	sp, r7
 246 002c 04B0     		add	sp, sp, #16
 247              		@ sp needed
 248 002e 80BD     		pop	{r7, pc}
 249              	.L16:
 250              		.align	2
ARM GAS  C:\Users\ADMINI~1\AppData\Local\Temp\cctHQdso.s 			page 8


 251              	.L15:
 252 0030 04000000 		.word	Opamp_internalPower
 253 0034 04003140 		.word	1076953092
 254              		.cfi_endproc
 255              	.LFE4:
 256              		.size	Opamp_SetPower, .-Opamp_SetPower
 257              		.section	.text.Opamp_PumpControl,"ax",%progbits
 258              		.align	2
 259              		.global	Opamp_PumpControl
 260              		.code	16
 261              		.thumb_func
 262              		.type	Opamp_PumpControl, %function
 263              	Opamp_PumpControl:
 264              	.LFB5:
 150:Generated_Source\PSoC4/Opamp.c **** 
 151:Generated_Source\PSoC4/Opamp.c **** 
 152:Generated_Source\PSoC4/Opamp.c **** /*******************************************************************************
 153:Generated_Source\PSoC4/Opamp.c **** * Function Name: Opamp_PumpControl
 154:Generated_Source\PSoC4/Opamp.c **** ********************************************************************************
 155:Generated_Source\PSoC4/Opamp.c **** *
 156:Generated_Source\PSoC4/Opamp.c **** * Summary:
 157:Generated_Source\PSoC4/Opamp.c **** *  Allows the user to turn the Opamp's boost pump on or off. By Default the Start() 
 158:Generated_Source\PSoC4/Opamp.c **** *  function turns on the pump. Use this API to turn it off. The boost must be 
 159:Generated_Source\PSoC4/Opamp.c **** *  turned on when the supply is less than 2.7 volts and off if the supply is more 
 160:Generated_Source\PSoC4/Opamp.c **** *  than 4 volts.
 161:Generated_Source\PSoC4/Opamp.c **** *
 162:Generated_Source\PSoC4/Opamp.c **** * Parameters:
 163:Generated_Source\PSoC4/Opamp.c **** *  onOff: Control the pump.
 164:Generated_Source\PSoC4/Opamp.c **** *   Opamp_PUMP_OFF - Turn off the pump
 165:Generated_Source\PSoC4/Opamp.c **** *   Opamp_PUMP_ON - Turn on the pump
 166:Generated_Source\PSoC4/Opamp.c **** *
 167:Generated_Source\PSoC4/Opamp.c **** * Return:
 168:Generated_Source\PSoC4/Opamp.c **** *  None
 169:Generated_Source\PSoC4/Opamp.c **** *
 170:Generated_Source\PSoC4/Opamp.c **** **********************************************************************************/
 171:Generated_Source\PSoC4/Opamp.c **** void Opamp_PumpControl(uint32 onOff)
 172:Generated_Source\PSoC4/Opamp.c **** {
 265              		.loc 1 172 0
 266              		.cfi_startproc
 267              		@ args = 0, pretend = 0, frame = 8
 268              		@ frame_needed = 1, uses_anonymous_args = 0
 269 0000 80B5     		push	{r7, lr}
 270              		.cfi_def_cfa_offset 8
 271              		.cfi_offset 7, -8
 272              		.cfi_offset 14, -4
 273 0002 82B0     		sub	sp, sp, #8
 274              		.cfi_def_cfa_offset 16
 275 0004 00AF     		add	r7, sp, #0
 276              		.cfi_def_cfa_register 7
 277 0006 7860     		str	r0, [r7, #4]
 173:Generated_Source\PSoC4/Opamp.c ****     
 174:Generated_Source\PSoC4/Opamp.c ****     if(0u != onOff)
 278              		.loc 1 174 0
 279 0008 7B68     		ldr	r3, [r7, #4]
 280 000a 002B     		cmp	r3, #0
 281 000c 07D0     		beq	.L18
 175:Generated_Source\PSoC4/Opamp.c ****     {
ARM GAS  C:\Users\ADMINI~1\AppData\Local\Temp\cctHQdso.s 			page 9


 176:Generated_Source\PSoC4/Opamp.c ****         Opamp_OA_RES_CTRL |= Opamp_OA_PUMP_EN;    
 282              		.loc 1 176 0
 283 000e 094B     		ldr	r3, .L21
 284 0010 084A     		ldr	r2, .L21
 285 0012 1268     		ldr	r2, [r2]
 286 0014 8021     		movs	r1, #128
 287 0016 0901     		lsls	r1, r1, #4
 288 0018 0A43     		orrs	r2, r1
 289 001a 1A60     		str	r2, [r3]
 177:Generated_Source\PSoC4/Opamp.c ****     }
 178:Generated_Source\PSoC4/Opamp.c ****     else
 179:Generated_Source\PSoC4/Opamp.c ****     {
 180:Generated_Source\PSoC4/Opamp.c ****         Opamp_OA_RES_CTRL &= (uint32)~Opamp_OA_PUMP_EN;
 181:Generated_Source\PSoC4/Opamp.c ****     }
 182:Generated_Source\PSoC4/Opamp.c **** }
 290              		.loc 1 182 0
 291 001c 05E0     		b	.L20
 292              	.L18:
 180:Generated_Source\PSoC4/Opamp.c ****     }
 293              		.loc 1 180 0
 294 001e 054B     		ldr	r3, .L21
 295 0020 044A     		ldr	r2, .L21
 296 0022 1268     		ldr	r2, [r2]
 297 0024 0449     		ldr	r1, .L21+4
 298 0026 0A40     		ands	r2, r1
 299 0028 1A60     		str	r2, [r3]
 300              	.L20:
 301              		.loc 1 182 0
 302 002a C046     		nop
 303 002c BD46     		mov	sp, r7
 304 002e 02B0     		add	sp, sp, #8
 305              		@ sp needed
 306 0030 80BD     		pop	{r7, pc}
 307              	.L22:
 308 0032 C046     		.align	2
 309              	.L21:
 310 0034 04003140 		.word	1076953092
 311 0038 FFF7FFFF 		.word	-2049
 312              		.cfi_endproc
 313              	.LFE5:
 314              		.size	Opamp_PumpControl, .-Opamp_PumpControl
 315              		.text
 316              	.Letext0:
 317              		.file 2 "Generated_Source\\PSoC4\\cytypes.h"