ARM GAS  C:\Users\ADMINI~1\AppData\Local\Temp\ccMvDpHd.s 			page 1


   1              		.syntax unified
   2              		.cpu cortex-m0
   3              		.fpu softvfp
   4              		.eabi_attribute 20, 1
   5              		.eabi_attribute 21, 1
   6              		.eabi_attribute 23, 3
   7              		.eabi_attribute 24, 1
   8              		.eabi_attribute 25, 1
   9              		.eabi_attribute 26, 1
  10              		.eabi_attribute 30, 6
  11              		.eabi_attribute 34, 0
  12              		.eabi_attribute 18, 4
  13              		.thumb
  14              		.syntax unified
  15              		.file	"os_app_hooks.c"
  16              		.text
  17              	.Ltext0:
  18              		.cfi_sections	.debug_frame
  19              		.section	.text.App_OS_SetAllHooks,"ax",%progbits
  20              		.align	2
  21              		.global	App_OS_SetAllHooks
  22              		.code	16
  23              		.thumb_func
  24              		.type	App_OS_SetAllHooks, %function
  25              	App_OS_SetAllHooks:
  26              	.LFB0:
  27              		.file 1 "..\\..\\os_app_hooks.c"
   1:..\../os_app_hooks.c **** /*
   2:..\../os_app_hooks.c **** ***************************************************************************************************
   3:..\../os_app_hooks.c **** *                                                      uC/OS-III
   4:..\../os_app_hooks.c **** *                                                 The Real-Time Kernel
   5:..\../os_app_hooks.c **** *
   6:..\../os_app_hooks.c **** *                                  (c) Copyright 2009-2015; Micrium, Inc.; Weston, FL
   7:..\../os_app_hooks.c **** *                           All rights reserved.  Protected by international copyright laws.
   8:..\../os_app_hooks.c **** *
   9:..\../os_app_hooks.c **** *                                                  APPLICATION HOOKS
  10:..\../os_app_hooks.c **** *
  11:..\../os_app_hooks.c **** * File    : OS_APP_HOOKS.C
  12:..\../os_app_hooks.c **** * By      : JJL
  13:..\../os_app_hooks.c **** * Version : V3.05.01
  14:..\../os_app_hooks.c **** *
  15:..\../os_app_hooks.c **** * LICENSING TERMS:
  16:..\../os_app_hooks.c **** * ---------------
  17:..\../os_app_hooks.c **** *           uC/OS-III is provided in source form for FREE short-term evaluation, for educational us
  18:..\../os_app_hooks.c **** *           for peaceful research.  If you plan or intend to use uC/OS-III in a commercial applicat
  19:..\../os_app_hooks.c **** *           product then, you need to contact Micrium to properly license uC/OS-III for its use in 
  20:..\../os_app_hooks.c **** *           application/product.   We provide ALL the source code for your convenience and to help 
  21:..\../os_app_hooks.c **** *           experience uC/OS-III.  The fact that the source is provided does NOT mean that you can 
  22:..\../os_app_hooks.c **** *           it commercially without paying a licensing fee.
  23:..\../os_app_hooks.c **** *
  24:..\../os_app_hooks.c **** *           Knowledge of the source code may NOT be used to develop a similar product.
  25:..\../os_app_hooks.c **** *
  26:..\../os_app_hooks.c **** *           Please help us continue to provide the embedded community with the finest software avai
  27:..\../os_app_hooks.c **** *           Your honesty is greatly appreciated.
  28:..\../os_app_hooks.c **** *
  29:..\../os_app_hooks.c **** *           You can find our product's user manual, API reference, release notes and
  30:..\../os_app_hooks.c **** *           more information at https://doc.micrium.com.
ARM GAS  C:\Users\ADMINI~1\AppData\Local\Temp\ccMvDpHd.s 			page 2


  31:..\../os_app_hooks.c **** *           You can contact us at www.micrium.com.
  32:..\../os_app_hooks.c **** ***************************************************************************************************
  33:..\../os_app_hooks.c **** */
  34:..\../os_app_hooks.c **** 
  35:..\../os_app_hooks.c **** #define   MICRIUM_SOURCE
  36:..\../os_app_hooks.c **** #include  <os.h>
  37:..\../os_app_hooks.c **** #include  "os_app_hooks.h"
  38:..\../os_app_hooks.c **** 
  39:..\../os_app_hooks.c **** 
  40:..\../os_app_hooks.c **** /*
  41:..\../os_app_hooks.c **** ***************************************************************************************************
  42:..\../os_app_hooks.c **** *                                              SET ALL APPLICATION HOOKS
  43:..\../os_app_hooks.c **** *
  44:..\../os_app_hooks.c **** * Description: Set ALL application hooks.
  45:..\../os_app_hooks.c **** *
  46:..\../os_app_hooks.c **** * Arguments  : none.
  47:..\../os_app_hooks.c **** *
  48:..\../os_app_hooks.c **** * Note(s)    : none
  49:..\../os_app_hooks.c **** ***************************************************************************************************
  50:..\../os_app_hooks.c **** */
  51:..\../os_app_hooks.c **** 
  52:..\../os_app_hooks.c **** void  App_OS_SetAllHooks (void)
  53:..\../os_app_hooks.c **** {
  28              		.loc 1 53 0
  29              		.cfi_startproc
  30              		@ args = 0, pretend = 0, frame = 0
  31              		@ frame_needed = 1, uses_anonymous_args = 0
  32 0000 80B5     		push	{r7, lr}
  33              		.cfi_def_cfa_offset 8
  34              		.cfi_offset 7, -8
  35              		.cfi_offset 14, -4
  36 0002 00AF     		add	r7, sp, #0
  37              		.cfi_def_cfa_register 7
  54:..\../os_app_hooks.c **** #if OS_CFG_APP_HOOKS_EN > 0u
  55:..\../os_app_hooks.c ****     CPU_SR_ALLOC();
  56:..\../os_app_hooks.c **** 
  57:..\../os_app_hooks.c **** 
  58:..\../os_app_hooks.c ****     CPU_CRITICAL_ENTER();
  59:..\../os_app_hooks.c ****     OS_AppIdleTaskHookPtr   = App_OS_IdleTaskHook;
  60:..\../os_app_hooks.c **** 
  61:..\../os_app_hooks.c **** #if (OS_CFG_TASK_STK_REDZONE_EN == DEF_ENABLED)
  62:..\../os_app_hooks.c ****     OS_AppRedzoneHitHookPtr = App_OS_RedzoneHitHook;
  63:..\../os_app_hooks.c **** #endif
  64:..\../os_app_hooks.c **** 
  65:..\../os_app_hooks.c ****     OS_AppStatTaskHookPtr   = App_OS_StatTaskHook;
  66:..\../os_app_hooks.c **** 
  67:..\../os_app_hooks.c ****     OS_AppTaskCreateHookPtr = App_OS_TaskCreateHook;
  68:..\../os_app_hooks.c **** 
  69:..\../os_app_hooks.c ****     OS_AppTaskDelHookPtr    = App_OS_TaskDelHook;
  70:..\../os_app_hooks.c **** 
  71:..\../os_app_hooks.c ****     OS_AppTaskReturnHookPtr = App_OS_TaskReturnHook;
  72:..\../os_app_hooks.c **** 
  73:..\../os_app_hooks.c ****     OS_AppTaskSwHookPtr     = App_OS_TaskSwHook;
  74:..\../os_app_hooks.c **** 
  75:..\../os_app_hooks.c ****     OS_AppTimeTickHookPtr   = App_OS_TimeTickHook;
  76:..\../os_app_hooks.c ****     CPU_CRITICAL_EXIT();
  77:..\../os_app_hooks.c **** #endif
ARM GAS  C:\Users\ADMINI~1\AppData\Local\Temp\ccMvDpHd.s 			page 3


  78:..\../os_app_hooks.c **** }
  38              		.loc 1 78 0
  39 0004 C046     		nop
  40 0006 BD46     		mov	sp, r7
  41              		@ sp needed
  42 0008 80BD     		pop	{r7, pc}
  43              		.cfi_endproc
  44              	.LFE0:
  45              		.size	App_OS_SetAllHooks, .-App_OS_SetAllHooks
  46 000a C046     		.section	.text.App_OS_ClrAllHooks,"ax",%progbits
  47              		.align	2
  48              		.global	App_OS_ClrAllHooks
  49              		.code	16
  50              		.thumb_func
  51              		.type	App_OS_ClrAllHooks, %function
  52              	App_OS_ClrAllHooks:
  53              	.LFB1:
  79:..\../os_app_hooks.c **** 
  80:..\../os_app_hooks.c **** 
  81:..\../os_app_hooks.c **** /*
  82:..\../os_app_hooks.c **** ***************************************************************************************************
  83:..\../os_app_hooks.c **** *                                             CLEAR ALL APPLICATION HOOKS
  84:..\../os_app_hooks.c **** *
  85:..\../os_app_hooks.c **** * Description: Clear ALL application hooks.
  86:..\../os_app_hooks.c **** *
  87:..\../os_app_hooks.c **** * Arguments  : none.
  88:..\../os_app_hooks.c **** *
  89:..\../os_app_hooks.c **** * Note(s)    : none
  90:..\../os_app_hooks.c **** ***************************************************************************************************
  91:..\../os_app_hooks.c **** */
  92:..\../os_app_hooks.c **** 
  93:..\../os_app_hooks.c **** void  App_OS_ClrAllHooks (void)
  94:..\../os_app_hooks.c **** {
  54              		.loc 1 94 0
  55              		.cfi_startproc
  56              		@ args = 0, pretend = 0, frame = 0
  57              		@ frame_needed = 1, uses_anonymous_args = 0
  58 0000 80B5     		push	{r7, lr}
  59              		.cfi_def_cfa_offset 8
  60              		.cfi_offset 7, -8
  61              		.cfi_offset 14, -4
  62 0002 00AF     		add	r7, sp, #0
  63              		.cfi_def_cfa_register 7
  95:..\../os_app_hooks.c **** #if OS_CFG_APP_HOOKS_EN > 0u
  96:..\../os_app_hooks.c ****     CPU_SR_ALLOC();
  97:..\../os_app_hooks.c **** 
  98:..\../os_app_hooks.c **** 
  99:..\../os_app_hooks.c ****     CPU_CRITICAL_ENTER();
 100:..\../os_app_hooks.c ****     OS_AppIdleTaskHookPtr   = (OS_APP_HOOK_VOID)0;
 101:..\../os_app_hooks.c **** 
 102:..\../os_app_hooks.c **** #if (OS_CFG_TASK_STK_REDZONE_EN == DEF_ENABLED)
 103:..\../os_app_hooks.c ****     OS_AppRedzoneHitHookPtr = (OS_APP_HOOK_TCB)0;
 104:..\../os_app_hooks.c **** #endif
 105:..\../os_app_hooks.c **** 
 106:..\../os_app_hooks.c ****     OS_AppStatTaskHookPtr   = (OS_APP_HOOK_VOID)0;
 107:..\../os_app_hooks.c **** 
 108:..\../os_app_hooks.c ****     OS_AppTaskCreateHookPtr = (OS_APP_HOOK_TCB)0;
ARM GAS  C:\Users\ADMINI~1\AppData\Local\Temp\ccMvDpHd.s 			page 4


 109:..\../os_app_hooks.c **** 
 110:..\../os_app_hooks.c ****     OS_AppTaskDelHookPtr    = (OS_APP_HOOK_TCB)0;
 111:..\../os_app_hooks.c **** 
 112:..\../os_app_hooks.c ****     OS_AppTaskReturnHookPtr = (OS_APP_HOOK_TCB)0;
 113:..\../os_app_hooks.c **** 
 114:..\../os_app_hooks.c ****     OS_AppTaskSwHookPtr     = (OS_APP_HOOK_VOID)0;
 115:..\../os_app_hooks.c **** 
 116:..\../os_app_hooks.c ****     OS_AppTimeTickHookPtr   = (OS_APP_HOOK_VOID)0;
 117:..\../os_app_hooks.c ****     CPU_CRITICAL_EXIT();
 118:..\../os_app_hooks.c **** #endif
 119:..\../os_app_hooks.c **** }
  64              		.loc 1 119 0
  65 0004 C046     		nop
  66 0006 BD46     		mov	sp, r7
  67              		@ sp needed
  68 0008 80BD     		pop	{r7, pc}
  69              		.cfi_endproc
  70              	.LFE1:
  71              		.size	App_OS_ClrAllHooks, .-App_OS_ClrAllHooks
  72              		.section	.text.App_OS_IdleTaskHook,"ax",%progbits
  73              		.align	2
  74              		.global	App_OS_IdleTaskHook
  75              		.code	16
  76              		.thumb_func
  77              		.type	App_OS_IdleTaskHook, %function
  78              	App_OS_IdleTaskHook:
  79              	.LFB2:
 120:..\../os_app_hooks.c **** 
 121:..\../os_app_hooks.c **** /*
 122:..\../os_app_hooks.c **** ***************************************************************************************************
 123:..\../os_app_hooks.c **** *                                              APPLICATION IDLE TASK HOOK
 124:..\../os_app_hooks.c **** *
 125:..\../os_app_hooks.c **** * Description: This function is called by the idle task.  This hook has been added to allow you to 
 126:..\../os_app_hooks.c **** *              STOP the CPU to conserve power.
 127:..\../os_app_hooks.c **** *
 128:..\../os_app_hooks.c **** * Arguments  : none
 129:..\../os_app_hooks.c **** *
 130:..\../os_app_hooks.c **** * Note(s)    : none
 131:..\../os_app_hooks.c **** ***************************************************************************************************
 132:..\../os_app_hooks.c **** */
 133:..\../os_app_hooks.c **** 
 134:..\../os_app_hooks.c **** void  App_OS_IdleTaskHook (void)
 135:..\../os_app_hooks.c **** {
  80              		.loc 1 135 0
  81              		.cfi_startproc
  82              		@ args = 0, pretend = 0, frame = 0
  83              		@ frame_needed = 1, uses_anonymous_args = 0
  84 0000 80B5     		push	{r7, lr}
  85              		.cfi_def_cfa_offset 8
  86              		.cfi_offset 7, -8
  87              		.cfi_offset 14, -4
  88 0002 00AF     		add	r7, sp, #0
  89              		.cfi_def_cfa_register 7
 136:..\../os_app_hooks.c **** 
 137:..\../os_app_hooks.c **** }
  90              		.loc 1 137 0
  91 0004 C046     		nop
ARM GAS  C:\Users\ADMINI~1\AppData\Local\Temp\ccMvDpHd.s 			page 5


  92 0006 BD46     		mov	sp, r7
  93              		@ sp needed
  94 0008 80BD     		pop	{r7, pc}
  95              		.cfi_endproc
  96              	.LFE2:
  97              		.size	App_OS_IdleTaskHook, .-App_OS_IdleTaskHook
  98              		.section	.text.App_OS_StatTaskHook,"ax",%progbits
  99              		.align	2
 100              		.global	App_OS_StatTaskHook
 101              		.code	16
 102              		.thumb_func
 103              		.type	App_OS_StatTaskHook, %function
 104              	App_OS_StatTaskHook:
 105              	.LFB3:
 138:..\../os_app_hooks.c **** 
 139:..\../os_app_hooks.c **** /*
 140:..\../os_app_hooks.c **** ***************************************************************************************************
 141:..\../os_app_hooks.c **** *                                             APPLICATION REDZONE HIT HOOK
 142:..\../os_app_hooks.c **** *
 143:..\../os_app_hooks.c **** * Description: This function is called when a task's stack overflowed.
 144:..\../os_app_hooks.c **** *
 145:..\../os_app_hooks.c **** * Arguments  : p_tcb   is a pointer to the task control block of the offending task. NULL if ISR.
 146:..\../os_app_hooks.c **** *
 147:..\../os_app_hooks.c **** * Note(s)    : None.
 148:..\../os_app_hooks.c **** ***************************************************************************************************
 149:..\../os_app_hooks.c **** */
 150:..\../os_app_hooks.c **** #if (OS_CFG_TASK_STK_REDZONE_EN == DEF_ENABLED)
 151:..\../os_app_hooks.c **** void  App_OS_RedzoneHitHook (OS_TCB  *p_tcb)
 152:..\../os_app_hooks.c **** {
 153:..\../os_app_hooks.c ****     (void)&p_tcb;
 154:..\../os_app_hooks.c ****     CPU_SW_EXCEPTION(;);
 155:..\../os_app_hooks.c **** }
 156:..\../os_app_hooks.c **** #endif
 157:..\../os_app_hooks.c **** 
 158:..\../os_app_hooks.c **** 
 159:..\../os_app_hooks.c **** /*
 160:..\../os_app_hooks.c **** ***************************************************************************************************
 161:..\../os_app_hooks.c **** *                                           APPLICATION STATISTIC TASK HOOK
 162:..\../os_app_hooks.c **** *
 163:..\../os_app_hooks.c **** * Description: This function is called every second by uC/OS-III's statistics task.  This allows yo
 164:..\../os_app_hooks.c **** *              functionality to the statistics task.
 165:..\../os_app_hooks.c **** *
 166:..\../os_app_hooks.c **** * Arguments  : none
 167:..\../os_app_hooks.c **** *
 168:..\../os_app_hooks.c **** * Note(s)    : none
 169:..\../os_app_hooks.c **** ***************************************************************************************************
 170:..\../os_app_hooks.c **** */
 171:..\../os_app_hooks.c **** 
 172:..\../os_app_hooks.c **** void  App_OS_StatTaskHook (void)
 173:..\../os_app_hooks.c **** {
 106              		.loc 1 173 0
 107              		.cfi_startproc
 108              		@ args = 0, pretend = 0, frame = 0
 109              		@ frame_needed = 1, uses_anonymous_args = 0
 110 0000 80B5     		push	{r7, lr}
 111              		.cfi_def_cfa_offset 8
 112              		.cfi_offset 7, -8
ARM GAS  C:\Users\ADMINI~1\AppData\Local\Temp\ccMvDpHd.s 			page 6


 113              		.cfi_offset 14, -4
 114 0002 00AF     		add	r7, sp, #0
 115              		.cfi_def_cfa_register 7
 174:..\../os_app_hooks.c **** 
 175:..\../os_app_hooks.c **** }
 116              		.loc 1 175 0
 117 0004 C046     		nop
 118 0006 BD46     		mov	sp, r7
 119              		@ sp needed
 120 0008 80BD     		pop	{r7, pc}
 121              		.cfi_endproc
 122              	.LFE3:
 123              		.size	App_OS_StatTaskHook, .-App_OS_StatTaskHook
 124              		.section	.text.App_OS_TaskCreateHook,"ax",%progbits
 125              		.align	2
 126              		.global	App_OS_TaskCreateHook
 127              		.code	16
 128              		.thumb_func
 129              		.type	App_OS_TaskCreateHook, %function
 130              	App_OS_TaskCreateHook:
 131              	.LFB4:
 176:..\../os_app_hooks.c **** 
 177:..\../os_app_hooks.c **** 
 178:..\../os_app_hooks.c **** /*
 179:..\../os_app_hooks.c **** ***************************************************************************************************
 180:..\../os_app_hooks.c **** *                                            APPLICATION TASK CREATION HOOK
 181:..\../os_app_hooks.c **** *
 182:..\../os_app_hooks.c **** * Description: This function is called when a task is created.
 183:..\../os_app_hooks.c **** *
 184:..\../os_app_hooks.c **** * Arguments  : p_tcb   is a pointer to the task control block of the task being created.
 185:..\../os_app_hooks.c **** *
 186:..\../os_app_hooks.c **** * Note(s)    : none
 187:..\../os_app_hooks.c **** ***************************************************************************************************
 188:..\../os_app_hooks.c **** */
 189:..\../os_app_hooks.c **** 
 190:..\../os_app_hooks.c **** void  App_OS_TaskCreateHook (OS_TCB  *p_tcb)
 191:..\../os_app_hooks.c **** {
 132              		.loc 1 191 0
 133              		.cfi_startproc
 134              		@ args = 0, pretend = 0, frame = 8
 135              		@ frame_needed = 1, uses_anonymous_args = 0
 136 0000 80B5     		push	{r7, lr}
 137              		.cfi_def_cfa_offset 8
 138              		.cfi_offset 7, -8
 139              		.cfi_offset 14, -4
 140 0002 82B0     		sub	sp, sp, #8
 141              		.cfi_def_cfa_offset 16
 142 0004 00AF     		add	r7, sp, #0
 143              		.cfi_def_cfa_register 7
 144 0006 7860     		str	r0, [r7, #4]
 192:..\../os_app_hooks.c ****     (void)&p_tcb;
 193:..\../os_app_hooks.c **** }
 145              		.loc 1 193 0
 146 0008 C046     		nop
 147 000a BD46     		mov	sp, r7
 148 000c 02B0     		add	sp, sp, #8
 149              		@ sp needed
ARM GAS  C:\Users\ADMINI~1\AppData\Local\Temp\ccMvDpHd.s 			page 7


 150 000e 80BD     		pop	{r7, pc}
 151              		.cfi_endproc
 152              	.LFE4:
 153              		.size	App_OS_TaskCreateHook, .-App_OS_TaskCreateHook
 154              		.section	.text.App_OS_TaskDelHook,"ax",%progbits
 155              		.align	2
 156              		.global	App_OS_TaskDelHook
 157              		.code	16
 158              		.thumb_func
 159              		.type	App_OS_TaskDelHook, %function
 160              	App_OS_TaskDelHook:
 161              	.LFB5:
 194:..\../os_app_hooks.c **** 
 195:..\../os_app_hooks.c **** 
 196:..\../os_app_hooks.c **** /*
 197:..\../os_app_hooks.c **** ***************************************************************************************************
 198:..\../os_app_hooks.c **** *                                            APPLICATION TASK DELETION HOOK
 199:..\../os_app_hooks.c **** *
 200:..\../os_app_hooks.c **** * Description: This function is called when a task is deleted.
 201:..\../os_app_hooks.c **** *
 202:..\../os_app_hooks.c **** * Arguments  : p_tcb   is a pointer to the task control block of the task being deleted.
 203:..\../os_app_hooks.c **** *
 204:..\../os_app_hooks.c **** * Note(s)    : none
 205:..\../os_app_hooks.c **** ***************************************************************************************************
 206:..\../os_app_hooks.c **** */
 207:..\../os_app_hooks.c **** 
 208:..\../os_app_hooks.c **** void  App_OS_TaskDelHook (OS_TCB  *p_tcb)
 209:..\../os_app_hooks.c **** {
 162              		.loc 1 209 0
 163              		.cfi_startproc
 164              		@ args = 0, pretend = 0, frame = 8
 165              		@ frame_needed = 1, uses_anonymous_args = 0
 166 0000 80B5     		push	{r7, lr}
 167              		.cfi_def_cfa_offset 8
 168              		.cfi_offset 7, -8
 169              		.cfi_offset 14, -4
 170 0002 82B0     		sub	sp, sp, #8
 171              		.cfi_def_cfa_offset 16
 172 0004 00AF     		add	r7, sp, #0
 173              		.cfi_def_cfa_register 7
 174 0006 7860     		str	r0, [r7, #4]
 210:..\../os_app_hooks.c ****     (void)&p_tcb;
 211:..\../os_app_hooks.c **** }
 175              		.loc 1 211 0
 176 0008 C046     		nop
 177 000a BD46     		mov	sp, r7
 178 000c 02B0     		add	sp, sp, #8
 179              		@ sp needed
 180 000e 80BD     		pop	{r7, pc}
 181              		.cfi_endproc
 182              	.LFE5:
 183              		.size	App_OS_TaskDelHook, .-App_OS_TaskDelHook
 184              		.section	.text.App_OS_TaskReturnHook,"ax",%progbits
 185              		.align	2
 186              		.global	App_OS_TaskReturnHook
 187              		.code	16
 188              		.thumb_func
ARM GAS  C:\Users\ADMINI~1\AppData\Local\Temp\ccMvDpHd.s 			page 8


 189              		.type	App_OS_TaskReturnHook, %function
 190              	App_OS_TaskReturnHook:
 191              	.LFB6:
 212:..\../os_app_hooks.c **** 
 213:..\../os_app_hooks.c **** 
 214:..\../os_app_hooks.c **** /*
 215:..\../os_app_hooks.c **** ***************************************************************************************************
 216:..\../os_app_hooks.c **** *                                             APPLICATION TASK RETURN HOOK
 217:..\../os_app_hooks.c **** *
 218:..\../os_app_hooks.c **** * Description: This function is called if a task accidentally returns.  In other words, a task shou
 219:..\../os_app_hooks.c **** *              infinite loop or delete itself when done.
 220:..\../os_app_hooks.c **** *
 221:..\../os_app_hooks.c **** * Arguments  : p_tcb     is a pointer to the OS_TCB of the task that is returning.
 222:..\../os_app_hooks.c **** *
 223:..\../os_app_hooks.c **** * Note(s)    : none
 224:..\../os_app_hooks.c **** ***************************************************************************************************
 225:..\../os_app_hooks.c **** */
 226:..\../os_app_hooks.c **** 
 227:..\../os_app_hooks.c **** void  App_OS_TaskReturnHook (OS_TCB  *p_tcb)
 228:..\../os_app_hooks.c **** {
 192              		.loc 1 228 0
 193              		.cfi_startproc
 194              		@ args = 0, pretend = 0, frame = 8
 195              		@ frame_needed = 1, uses_anonymous_args = 0
 196 0000 80B5     		push	{r7, lr}
 197              		.cfi_def_cfa_offset 8
 198              		.cfi_offset 7, -8
 199              		.cfi_offset 14, -4
 200 0002 82B0     		sub	sp, sp, #8
 201              		.cfi_def_cfa_offset 16
 202 0004 00AF     		add	r7, sp, #0
 203              		.cfi_def_cfa_register 7
 204 0006 7860     		str	r0, [r7, #4]
 229:..\../os_app_hooks.c ****     (void)&p_tcb;
 230:..\../os_app_hooks.c **** }
 205              		.loc 1 230 0
 206 0008 C046     		nop
 207 000a BD46     		mov	sp, r7
 208 000c 02B0     		add	sp, sp, #8
 209              		@ sp needed
 210 000e 80BD     		pop	{r7, pc}
 211              		.cfi_endproc
 212              	.LFE6:
 213              		.size	App_OS_TaskReturnHook, .-App_OS_TaskReturnHook
 214              		.section	.text.App_OS_TaskSwHook,"ax",%progbits
 215              		.align	2
 216              		.global	App_OS_TaskSwHook
 217              		.code	16
 218              		.thumb_func
 219              		.type	App_OS_TaskSwHook, %function
 220              	App_OS_TaskSwHook:
 221              	.LFB7:
 231:..\../os_app_hooks.c **** 
 232:..\../os_app_hooks.c **** 
 233:..\../os_app_hooks.c **** /*
 234:..\../os_app_hooks.c **** ***************************************************************************************************
 235:..\../os_app_hooks.c **** *                                             APPLICATION TASK SWITCH HOOK
ARM GAS  C:\Users\ADMINI~1\AppData\Local\Temp\ccMvDpHd.s 			page 9


 236:..\../os_app_hooks.c **** *
 237:..\../os_app_hooks.c **** * Description: This function is called when a task switch is performed.  This allows you to perform
 238:..\../os_app_hooks.c **** *              during a context switch.
 239:..\../os_app_hooks.c **** *
 240:..\../os_app_hooks.c **** * Arguments  : none
 241:..\../os_app_hooks.c **** *
 242:..\../os_app_hooks.c **** * Note(s)    : 1) Interrupts are disabled during this call.
 243:..\../os_app_hooks.c **** *              2) It is assumed that the global pointer 'OSTCBHighRdyPtr' points to the TCB of the 
 244:..\../os_app_hooks.c **** *                 'switched in' (i.e. the highest priority task) and, 'OSTCBCurPtr' points to the t
 245:..\../os_app_hooks.c **** *                 (i.e. the preempted task).
 246:..\../os_app_hooks.c **** ***************************************************************************************************
 247:..\../os_app_hooks.c **** */
 248:..\../os_app_hooks.c **** 
 249:..\../os_app_hooks.c **** void  App_OS_TaskSwHook (void)
 250:..\../os_app_hooks.c **** {
 222              		.loc 1 250 0
 223              		.cfi_startproc
 224              		@ args = 0, pretend = 0, frame = 0
 225              		@ frame_needed = 1, uses_anonymous_args = 0
 226 0000 80B5     		push	{r7, lr}
 227              		.cfi_def_cfa_offset 8
 228              		.cfi_offset 7, -8
 229              		.cfi_offset 14, -4
 230 0002 00AF     		add	r7, sp, #0
 231              		.cfi_def_cfa_register 7
 251:..\../os_app_hooks.c **** 
 252:..\../os_app_hooks.c **** }
 232              		.loc 1 252 0
 233 0004 C046     		nop
 234 0006 BD46     		mov	sp, r7
 235              		@ sp needed
 236 0008 80BD     		pop	{r7, pc}
 237              		.cfi_endproc
 238              	.LFE7:
 239              		.size	App_OS_TaskSwHook, .-App_OS_TaskSwHook
 240              		.section	.text.App_OS_TimeTickHook,"ax",%progbits
 241              		.align	2
 242              		.global	App_OS_TimeTickHook
 243              		.code	16
 244              		.thumb_func
 245              		.type	App_OS_TimeTickHook, %function
 246              	App_OS_TimeTickHook:
 247              	.LFB8:
 253:..\../os_app_hooks.c **** 
 254:..\../os_app_hooks.c **** 
 255:..\../os_app_hooks.c **** /*
 256:..\../os_app_hooks.c **** ***************************************************************************************************
 257:..\../os_app_hooks.c **** *                                                APPLICATION TICK HOOK
 258:..\../os_app_hooks.c **** *
 259:..\../os_app_hooks.c **** * Description: This function is called every tick.
 260:..\../os_app_hooks.c **** *
 261:..\../os_app_hooks.c **** * Arguments  : none
 262:..\../os_app_hooks.c **** *
 263:..\../os_app_hooks.c **** * Note(s)    : 1) This function is assumed to be called from the Tick ISR.
 264:..\../os_app_hooks.c **** ***************************************************************************************************
 265:..\../os_app_hooks.c **** */
 266:..\../os_app_hooks.c **** 
ARM GAS  C:\Users\ADMINI~1\AppData\Local\Temp\ccMvDpHd.s 			page 10


 267:..\../os_app_hooks.c **** void  App_OS_TimeTickHook (void)
 268:..\../os_app_hooks.c **** {
 248              		.loc 1 268 0
 249              		.cfi_startproc
 250              		@ args = 0, pretend = 0, frame = 0
 251              		@ frame_needed = 1, uses_anonymous_args = 0
 252 0000 80B5     		push	{r7, lr}
 253              		.cfi_def_cfa_offset 8
 254              		.cfi_offset 7, -8
 255              		.cfi_offset 14, -4
 256 0002 00AF     		add	r7, sp, #0
 257              		.cfi_def_cfa_register 7
 269:..\../os_app_hooks.c **** 
 270:..\../os_app_hooks.c **** }
 258              		.loc 1 270 0
 259 0004 C046     		nop
 260 0006 BD46     		mov	sp, r7
 261              		@ sp needed
 262 0008 80BD     		pop	{r7, pc}
 263              		.cfi_endproc
 264              	.LFE8:
 265              		.size	App_OS_TimeTickHook, .-App_OS_TimeTickHook
 266              		.text
 267              	.Letext0:
 268              		.file 2 "..\\..\\..\\..\\..\\..\\Software\\uC-CPU\\ARM-Cortex-M0\\GNU/cpu.h"
 269              		.file 3 "..\\..\\..\\..\\..\\..\\Software\\uC-CPU/cpu_core.h"
 270              		.file 4 "..\\..\\..\\..\\..\\..\\Software\\uCOS-III\\Source/os_type.h"
 271              		.file 5 "..\\..\\..\\..\\..\\..\\Software\\uCOS-III\\Source/os.h"