ARM GAS  C:\Users\ADMINI~1\AppData\Local\Temp\cczjWrOu.s 			page 1


   1              		.syntax unified
   2              		.cpu cortex-m0
   3              		.fpu softvfp
   4              		.eabi_attribute 20, 1
   5              		.eabi_attribute 21, 1
   6              		.eabi_attribute 23, 3
   7              		.eabi_attribute 24, 1
   8              		.eabi_attribute 25, 1
   9              		.eabi_attribute 26, 1
  10              		.eabi_attribute 30, 6
  11              		.eabi_attribute 34, 0
  12              		.eabi_attribute 18, 4
  13              		.thumb
  14              		.syntax unified
  15              		.file	"os_core.c"
  16              		.text
  17              	.Ltext0:
  18              		.cfi_sections	.debug_frame
  19              		.section	.text.OSInit,"ax",%progbits
  20              		.align	2
  21              		.global	OSInit
  22              		.code	16
  23              		.thumb_func
  24              		.type	OSInit, %function
  25              	OSInit:
  26              	.LFB0:
  27              		.file 1 "..\\..\\..\\..\\..\\..\\Software\\uCOS-III\\Source\\os_core.c"
   1:..\..\..\..\..\..\Software\uCOS-III\Source/os_core.c **** /*
   2:..\..\..\..\..\..\Software\uCOS-III\Source/os_core.c **** ***************************************************************************************************
   3:..\..\..\..\..\..\Software\uCOS-III\Source/os_core.c **** *                                                      uC/OS-III
   4:..\..\..\..\..\..\Software\uCOS-III\Source/os_core.c **** *                                                 The Real-Time Kernel
   5:..\..\..\..\..\..\Software\uCOS-III\Source/os_core.c **** *
   6:..\..\..\..\..\..\Software\uCOS-III\Source/os_core.c **** *                                  (c) Copyright 2009-2015; Micrium, Inc.; Weston, FL
   7:..\..\..\..\..\..\Software\uCOS-III\Source/os_core.c **** *                           All rights reserved.  Protected by international copyright laws.
   8:..\..\..\..\..\..\Software\uCOS-III\Source/os_core.c **** *
   9:..\..\..\..\..\..\Software\uCOS-III\Source/os_core.c **** *                                                    CORE FUNCTIONS
  10:..\..\..\..\..\..\Software\uCOS-III\Source/os_core.c **** *
  11:..\..\..\..\..\..\Software\uCOS-III\Source/os_core.c **** * File    : OS_CORE.C
  12:..\..\..\..\..\..\Software\uCOS-III\Source/os_core.c **** * By      : JJL
  13:..\..\..\..\..\..\Software\uCOS-III\Source/os_core.c **** * Version : V3.05.01
  14:..\..\..\..\..\..\Software\uCOS-III\Source/os_core.c **** *
  15:..\..\..\..\..\..\Software\uCOS-III\Source/os_core.c **** * LICENSING TERMS:
  16:..\..\..\..\..\..\Software\uCOS-III\Source/os_core.c **** * ---------------
  17:..\..\..\..\..\..\Software\uCOS-III\Source/os_core.c **** *           uC/OS-III is provided in source form for FREE short-term evaluation, for educational us
  18:..\..\..\..\..\..\Software\uCOS-III\Source/os_core.c **** *           for peaceful research.  If you plan or intend to use uC/OS-III in a commercial applicat
  19:..\..\..\..\..\..\Software\uCOS-III\Source/os_core.c **** *           product then, you need to contact Micrium to properly license uC/OS-III for its use in 
  20:..\..\..\..\..\..\Software\uCOS-III\Source/os_core.c **** *           application/product.   We provide ALL the source code for your convenience and to help 
  21:..\..\..\..\..\..\Software\uCOS-III\Source/os_core.c **** *           experience uC/OS-III.  The fact that the source is provided does NOT mean that you can 
  22:..\..\..\..\..\..\Software\uCOS-III\Source/os_core.c **** *           it commercially without paying a licensing fee.
  23:..\..\..\..\..\..\Software\uCOS-III\Source/os_core.c **** *
  24:..\..\..\..\..\..\Software\uCOS-III\Source/os_core.c **** *           Knowledge of the source code may NOT be used to develop a similar product.
  25:..\..\..\..\..\..\Software\uCOS-III\Source/os_core.c **** *
  26:..\..\..\..\..\..\Software\uCOS-III\Source/os_core.c **** *           Please help us continue to provide the embedded community with the finest software avai
  27:..\..\..\..\..\..\Software\uCOS-III\Source/os_core.c **** *           Your honesty is greatly appreciated.
  28:..\..\..\..\..\..\Software\uCOS-III\Source/os_core.c **** *
  29:..\..\..\..\..\..\Software\uCOS-III\Source/os_core.c **** *           You can find our product's user manual, API reference, release notes and
  30:..\..\..\..\..\..\Software\uCOS-III\Source/os_core.c **** *           more information at https://doc.micrium.com.
ARM GAS  C:\Users\ADMINI~1\AppData\Local\Temp\cczjWrOu.s 			page 2


  31:..\..\..\..\..\..\Software\uCOS-III\Source/os_core.c **** *           You can contact us at www.micrium.com.
  32:..\..\..\..\..\..\Software\uCOS-III\Source/os_core.c **** ***************************************************************************************************
  33:..\..\..\..\..\..\Software\uCOS-III\Source/os_core.c **** */
  34:..\..\..\..\..\..\Software\uCOS-III\Source/os_core.c **** 
  35:..\..\..\..\..\..\Software\uCOS-III\Source/os_core.c **** #define  MICRIUM_SOURCE
  36:..\..\..\..\..\..\Software\uCOS-III\Source/os_core.c **** #include "os.h"
  37:..\..\..\..\..\..\Software\uCOS-III\Source/os_core.c **** 
  38:..\..\..\..\..\..\Software\uCOS-III\Source/os_core.c **** #ifdef VSC_INCLUDE_SOURCE_FILE_NAMES
  39:..\..\..\..\..\..\Software\uCOS-III\Source/os_core.c **** const  CPU_CHAR  *os_core__c = "$Id: $";
  40:..\..\..\..\..\..\Software\uCOS-III\Source/os_core.c **** #endif
  41:..\..\..\..\..\..\Software\uCOS-III\Source/os_core.c **** 
  42:..\..\..\..\..\..\Software\uCOS-III\Source/os_core.c **** /*
  43:..\..\..\..\..\..\Software\uCOS-III\Source/os_core.c **** ***************************************************************************************************
  44:..\..\..\..\..\..\Software\uCOS-III\Source/os_core.c **** *                                                    INITIALIZATION
  45:..\..\..\..\..\..\Software\uCOS-III\Source/os_core.c **** *
  46:..\..\..\..\..\..\Software\uCOS-III\Source/os_core.c **** * Description: This function is used to initialize the internals of uC/OS-III and MUST be called pr
  47:..\..\..\..\..\..\Software\uCOS-III\Source/os_core.c **** *              creating any uC/OS-III object and, prior to calling OSStart().
  48:..\..\..\..\..\..\Software\uCOS-III\Source/os_core.c **** *
  49:..\..\..\..\..\..\Software\uCOS-III\Source/os_core.c **** * Arguments  : p_err         is a pointer to a variable that will contain an error code returned by
  50:..\..\..\..\..\..\Software\uCOS-III\Source/os_core.c **** *
  51:..\..\..\..\..\..\Software\uCOS-III\Source/os_core.c **** *                                OS_ERR_NONE    Initialization was successful
  52:..\..\..\..\..\..\Software\uCOS-III\Source/os_core.c **** *                                Other          Other OS_ERR_xxx depending on the sub-functions cal
  53:..\..\..\..\..\..\Software\uCOS-III\Source/os_core.c **** * Returns    : none
  54:..\..\..\..\..\..\Software\uCOS-III\Source/os_core.c **** ***************************************************************************************************
  55:..\..\..\..\..\..\Software\uCOS-III\Source/os_core.c **** */
  56:..\..\..\..\..\..\Software\uCOS-III\Source/os_core.c **** 
  57:..\..\..\..\..\..\Software\uCOS-III\Source/os_core.c **** void  OSInit (OS_ERR  *p_err)
  58:..\..\..\..\..\..\Software\uCOS-III\Source/os_core.c **** {
  28              		.loc 1 58 0
  29              		.cfi_startproc
  30              		@ args = 0, pretend = 0, frame = 16
  31              		@ frame_needed = 1, uses_anonymous_args = 0
  32 0000 80B5     		push	{r7, lr}
  33              		.cfi_def_cfa_offset 8
  34              		.cfi_offset 7, -8
  35              		.cfi_offset 14, -4
  36 0002 84B0     		sub	sp, sp, #16
  37              		.cfi_def_cfa_offset 24
  38 0004 00AF     		add	r7, sp, #0
  39              		.cfi_def_cfa_register 7
  40 0006 7860     		str	r0, [r7, #4]
  59:..\..\..\..\..\..\Software\uCOS-III\Source/os_core.c **** #if (OS_CFG_ISR_STK_SIZE > 0u)
  60:..\..\..\..\..\..\Software\uCOS-III\Source/os_core.c ****     CPU_STK      *p_stk;
  61:..\..\..\..\..\..\Software\uCOS-III\Source/os_core.c ****     CPU_STK_SIZE  size;
  62:..\..\..\..\..\..\Software\uCOS-III\Source/os_core.c **** #endif
  63:..\..\..\..\..\..\Software\uCOS-III\Source/os_core.c **** 
  64:..\..\..\..\..\..\Software\uCOS-III\Source/os_core.c **** 
  65:..\..\..\..\..\..\Software\uCOS-III\Source/os_core.c **** 
  66:..\..\..\..\..\..\Software\uCOS-III\Source/os_core.c **** #ifdef OS_SAFETY_CRITICAL
  67:..\..\..\..\..\..\Software\uCOS-III\Source/os_core.c ****     if (p_err == DEF_NULL) {
  68:..\..\..\..\..\..\Software\uCOS-III\Source/os_core.c ****         OS_SAFETY_CRITICAL_EXCEPTION();
  69:..\..\..\..\..\..\Software\uCOS-III\Source/os_core.c ****         return;
  70:..\..\..\..\..\..\Software\uCOS-III\Source/os_core.c ****     }
  71:..\..\..\..\..\..\Software\uCOS-III\Source/os_core.c **** #endif
  72:..\..\..\..\..\..\Software\uCOS-III\Source/os_core.c **** 
  73:..\..\..\..\..\..\Software\uCOS-III\Source/os_core.c ****     OSInitHook();                                               /* Call port specific initializatio
  41              		.loc 1 73 0
ARM GAS  C:\Users\ADMINI~1\AppData\Local\Temp\cczjWrOu.s 			page 3


  42 0008 FFF7FEFF 		bl	OSInitHook
  74:..\..\..\..\..\..\Software\uCOS-III\Source/os_core.c **** 
  75:..\..\..\..\..\..\Software\uCOS-III\Source/os_core.c ****     OSIntNestingCtr       = 0u;                                 /* Clear the interrupt nesting coun
  43              		.loc 1 75 0
  44 000c 514B     		ldr	r3, .L20
  45 000e 0022     		movs	r2, #0
  46 0010 1A70     		strb	r2, [r3]
  76:..\..\..\..\..\..\Software\uCOS-III\Source/os_core.c **** 
  77:..\..\..\..\..\..\Software\uCOS-III\Source/os_core.c ****     OSRunning             = OS_STATE_OS_STOPPED;                /* Indicate that multitasking not s
  47              		.loc 1 77 0
  48 0012 514B     		ldr	r3, .L20+4
  49 0014 0022     		movs	r2, #0
  50 0016 1A70     		strb	r2, [r3]
  78:..\..\..\..\..\..\Software\uCOS-III\Source/os_core.c **** 
  79:..\..\..\..\..\..\Software\uCOS-III\Source/os_core.c ****     OSSchedLockNestingCtr = 0u;                                 /* Clear the scheduling lock counte
  51              		.loc 1 79 0
  52 0018 504B     		ldr	r3, .L20+8
  53 001a 0022     		movs	r2, #0
  54 001c 1A70     		strb	r2, [r3]
  80:..\..\..\..\..\..\Software\uCOS-III\Source/os_core.c **** 
  81:..\..\..\..\..\..\Software\uCOS-III\Source/os_core.c ****     OSTCBCurPtr           = DEF_NULL;                           /* Initialize OS_TCB pointers to a 
  55              		.loc 1 81 0
  56 001e 504B     		ldr	r3, .L20+12
  57 0020 0022     		movs	r2, #0
  58 0022 1A60     		str	r2, [r3]
  82:..\..\..\..\..\..\Software\uCOS-III\Source/os_core.c ****     OSTCBHighRdyPtr       = DEF_NULL;
  59              		.loc 1 82 0
  60 0024 4F4B     		ldr	r3, .L20+16
  61 0026 0022     		movs	r2, #0
  62 0028 1A60     		str	r2, [r3]
  83:..\..\..\..\..\..\Software\uCOS-III\Source/os_core.c **** 
  84:..\..\..\..\..\..\Software\uCOS-III\Source/os_core.c ****     OSPrioCur             = 0u;                                 /* Initialize priority variables to
  63              		.loc 1 84 0
  64 002a 4F4B     		ldr	r3, .L20+20
  65 002c 0022     		movs	r2, #0
  66 002e 1A70     		strb	r2, [r3]
  85:..\..\..\..\..\..\Software\uCOS-III\Source/os_core.c ****     OSPrioHighRdy         = 0u;
  67              		.loc 1 85 0
  68 0030 4E4B     		ldr	r3, .L20+24
  69 0032 0022     		movs	r2, #0
  70 0034 1A70     		strb	r2, [r3]
  86:..\..\..\..\..\..\Software\uCOS-III\Source/os_core.c **** #if (OS_CFG_ISR_POST_DEFERRED_EN == DEF_ENABLED)
  87:..\..\..\..\..\..\Software\uCOS-III\Source/os_core.c ****     OSPrioSaved           = 0u;
  88:..\..\..\..\..\..\Software\uCOS-III\Source/os_core.c **** #endif
  89:..\..\..\..\..\..\Software\uCOS-III\Source/os_core.c **** 
  90:..\..\..\..\..\..\Software\uCOS-III\Source/os_core.c **** #if (OS_CFG_SCHED_LOCK_TIME_MEAS_EN == DEF_ENABLED)
  91:..\..\..\..\..\..\Software\uCOS-III\Source/os_core.c ****     OSSchedLockTimeBegin  = 0u;
  71              		.loc 1 91 0
  72 0036 4E4B     		ldr	r3, .L20+28
  73 0038 0022     		movs	r2, #0
  74 003a 1A60     		str	r2, [r3]
  92:..\..\..\..\..\..\Software\uCOS-III\Source/os_core.c ****     OSSchedLockTimeMax    = 0u;
  75              		.loc 1 92 0
  76 003c 4D4B     		ldr	r3, .L20+32
  77 003e 0022     		movs	r2, #0
  78 0040 1A60     		str	r2, [r3]
  93:..\..\..\..\..\..\Software\uCOS-III\Source/os_core.c ****     OSSchedLockTimeMaxCur = 0u;
ARM GAS  C:\Users\ADMINI~1\AppData\Local\Temp\cczjWrOu.s 			page 4


  79              		.loc 1 93 0
  80 0042 4D4B     		ldr	r3, .L20+36
  81 0044 0022     		movs	r2, #0
  82 0046 1A60     		str	r2, [r3]
  94:..\..\..\..\..\..\Software\uCOS-III\Source/os_core.c **** #endif
  95:..\..\..\..\..\..\Software\uCOS-III\Source/os_core.c **** 
  96:..\..\..\..\..\..\Software\uCOS-III\Source/os_core.c **** #ifdef OS_SAFETY_CRITICAL_IEC61508
  97:..\..\..\..\..\..\Software\uCOS-III\Source/os_core.c ****     OSSafetyCriticalStartFlag       =  DEF_FALSE;
  98:..\..\..\..\..\..\Software\uCOS-III\Source/os_core.c **** #endif
  99:..\..\..\..\..\..\Software\uCOS-III\Source/os_core.c **** 
 100:..\..\..\..\..\..\Software\uCOS-III\Source/os_core.c **** #if (OS_CFG_SCHED_ROUND_ROBIN_EN == DEF_ENABLED)
 101:..\..\..\..\..\..\Software\uCOS-III\Source/os_core.c ****     OSSchedRoundRobinEn             = DEF_FALSE;
 102:..\..\..\..\..\..\Software\uCOS-III\Source/os_core.c ****     OSSchedRoundRobinDfltTimeQuanta = OSCfg_TickRate_Hz / 10u;
 103:..\..\..\..\..\..\Software\uCOS-III\Source/os_core.c **** #endif
 104:..\..\..\..\..\..\Software\uCOS-III\Source/os_core.c **** 
 105:..\..\..\..\..\..\Software\uCOS-III\Source/os_core.c **** #if (OS_CFG_ISR_STK_SIZE > 0u)
 106:..\..\..\..\..\..\Software\uCOS-III\Source/os_core.c ****     p_stk = OSCfg_ISRStkBasePtr;                                /* Clear exception stack for stack 
  83              		.loc 1 106 0
  84 0048 4C4B     		ldr	r3, .L20+40
  85 004a 1B68     		ldr	r3, [r3]
  86 004c FB60     		str	r3, [r7, #12]
 107:..\..\..\..\..\..\Software\uCOS-III\Source/os_core.c ****     if (p_stk != DEF_NULL) {
  87              		.loc 1 107 0
  88 004e FB68     		ldr	r3, [r7, #12]
  89 0050 002B     		cmp	r3, #0
  90 0052 0FD0     		beq	.L2
 108:..\..\..\..\..\..\Software\uCOS-III\Source/os_core.c ****         size  = OSCfg_ISRStkSize;
  91              		.loc 1 108 0
  92 0054 4A4B     		ldr	r3, .L20+44
  93 0056 1B68     		ldr	r3, [r3]
  94 0058 BB60     		str	r3, [r7, #8]
 109:..\..\..\..\..\..\Software\uCOS-III\Source/os_core.c ****         while (size > 0u) {
  95              		.loc 1 109 0
  96 005a 08E0     		b	.L3
  97              	.L4:
 110:..\..\..\..\..\..\Software\uCOS-III\Source/os_core.c ****             size--;
  98              		.loc 1 110 0
  99 005c BB68     		ldr	r3, [r7, #8]
 100 005e 013B     		subs	r3, r3, #1
 101 0060 BB60     		str	r3, [r7, #8]
 111:..\..\..\..\..\..\Software\uCOS-III\Source/os_core.c ****            *p_stk = 0u;
 102              		.loc 1 111 0
 103 0062 FB68     		ldr	r3, [r7, #12]
 104 0064 0022     		movs	r2, #0
 105 0066 1A60     		str	r2, [r3]
 112:..\..\..\..\..\..\Software\uCOS-III\Source/os_core.c ****             p_stk++;
 106              		.loc 1 112 0
 107 0068 FB68     		ldr	r3, [r7, #12]
 108 006a 0433     		adds	r3, r3, #4
 109 006c FB60     		str	r3, [r7, #12]
 110              	.L3:
 109:..\..\..\..\..\..\Software\uCOS-III\Source/os_core.c ****             size--;
 111              		.loc 1 109 0
 112 006e BB68     		ldr	r3, [r7, #8]
 113 0070 002B     		cmp	r3, #0
 114 0072 F3D1     		bne	.L4
 115              	.L2:
ARM GAS  C:\Users\ADMINI~1\AppData\Local\Temp\cczjWrOu.s 			page 5


 113:..\..\..\..\..\..\Software\uCOS-III\Source/os_core.c ****         }
 114:..\..\..\..\..\..\Software\uCOS-III\Source/os_core.c ****     }
 115:..\..\..\..\..\..\Software\uCOS-III\Source/os_core.c **** #if (OS_CFG_TASK_STK_REDZONE_EN == DEF_ENABLED)                 /* Initialize Redzoned ISR stack   
 116:..\..\..\..\..\..\Software\uCOS-III\Source/os_core.c ****     OS_TaskStkRedzoneInit(OSCfg_ISRStkBasePtr, OSCfg_ISRStkSize);
 117:..\..\..\..\..\..\Software\uCOS-III\Source/os_core.c **** #endif
 118:..\..\..\..\..\..\Software\uCOS-III\Source/os_core.c **** #endif
 119:..\..\..\..\..\..\Software\uCOS-III\Source/os_core.c **** 
 120:..\..\..\..\..\..\Software\uCOS-III\Source/os_core.c **** #if (OS_CFG_APP_HOOKS_EN == DEF_ENABLED)                        /* Clear application hook pointers 
 121:..\..\..\..\..\..\Software\uCOS-III\Source/os_core.c **** #if (OS_CFG_TASK_STK_REDZONE_EN == DEF_ENABLED)
 122:..\..\..\..\..\..\Software\uCOS-III\Source/os_core.c ****     OS_AppRedzoneHitHookPtr = DEF_NULL;
 123:..\..\..\..\..\..\Software\uCOS-III\Source/os_core.c **** #endif
 124:..\..\..\..\..\..\Software\uCOS-III\Source/os_core.c ****     OS_AppTaskCreateHookPtr = DEF_NULL;
 125:..\..\..\..\..\..\Software\uCOS-III\Source/os_core.c ****     OS_AppTaskDelHookPtr    = DEF_NULL;
 126:..\..\..\..\..\..\Software\uCOS-III\Source/os_core.c ****     OS_AppTaskReturnHookPtr = DEF_NULL;
 127:..\..\..\..\..\..\Software\uCOS-III\Source/os_core.c **** 
 128:..\..\..\..\..\..\Software\uCOS-III\Source/os_core.c ****     OS_AppIdleTaskHookPtr   = DEF_NULL;
 129:..\..\..\..\..\..\Software\uCOS-III\Source/os_core.c ****     OS_AppStatTaskHookPtr   = DEF_NULL;
 130:..\..\..\..\..\..\Software\uCOS-III\Source/os_core.c ****     OS_AppTaskSwHookPtr     = DEF_NULL;
 131:..\..\..\..\..\..\Software\uCOS-III\Source/os_core.c ****     OS_AppTimeTickHookPtr   = DEF_NULL;
 132:..\..\..\..\..\..\Software\uCOS-III\Source/os_core.c **** #endif
 133:..\..\..\..\..\..\Software\uCOS-III\Source/os_core.c **** 
 134:..\..\..\..\..\..\Software\uCOS-III\Source/os_core.c **** #if (OS_CFG_TASK_REG_TBL_SIZE > 0u)
 135:..\..\..\..\..\..\Software\uCOS-III\Source/os_core.c ****     OSTaskRegNextAvailID    = 0u;
 116              		.loc 1 135 0
 117 0074 434B     		ldr	r3, .L20+48
 118 0076 0022     		movs	r2, #0
 119 0078 1A70     		strb	r2, [r3]
 136:..\..\..\..\..\..\Software\uCOS-III\Source/os_core.c **** #endif
 137:..\..\..\..\..\..\Software\uCOS-III\Source/os_core.c **** 
 138:..\..\..\..\..\..\Software\uCOS-III\Source/os_core.c ****     OS_PrioInit();                                              /* Initialize the priority bitmap t
 120              		.loc 1 138 0
 121 007a FFF7FEFF 		bl	OS_PrioInit
 139:..\..\..\..\..\..\Software\uCOS-III\Source/os_core.c **** 
 140:..\..\..\..\..\..\Software\uCOS-III\Source/os_core.c ****     OS_RdyListInit();                                           /* Initialize the Ready List       
 122              		.loc 1 140 0
 123 007e FFF7FEFF 		bl	OS_RdyListInit
 141:..\..\..\..\..\..\Software\uCOS-III\Source/os_core.c **** 
 142:..\..\..\..\..\..\Software\uCOS-III\Source/os_core.c **** 
 143:..\..\..\..\..\..\Software\uCOS-III\Source/os_core.c **** #if (OS_CFG_FLAG_EN == DEF_ENABLED)                             /* Initialize the Event Flag module
 144:..\..\..\..\..\..\Software\uCOS-III\Source/os_core.c **** #if (OS_CFG_DBG_EN == DEF_ENABLED)
 145:..\..\..\..\..\..\Software\uCOS-III\Source/os_core.c ****     OSFlagDbgListPtr = DEF_NULL;
 124              		.loc 1 145 0
 125 0082 414B     		ldr	r3, .L20+52
 126 0084 0022     		movs	r2, #0
 127 0086 1A60     		str	r2, [r3]
 146:..\..\..\..\..\..\Software\uCOS-III\Source/os_core.c ****     OSFlagQty        = 0u;
 128              		.loc 1 146 0
 129 0088 404B     		ldr	r3, .L20+56
 130 008a 0022     		movs	r2, #0
 131 008c 1A80     		strh	r2, [r3]
 147:..\..\..\..\..\..\Software\uCOS-III\Source/os_core.c **** #endif
 148:..\..\..\..\..\..\Software\uCOS-III\Source/os_core.c **** #endif
 149:..\..\..\..\..\..\Software\uCOS-III\Source/os_core.c **** 
 150:..\..\..\..\..\..\Software\uCOS-III\Source/os_core.c **** #if (OS_CFG_MEM_EN == DEF_ENABLED)                              /* Initialize the Memory Manager mo
 151:..\..\..\..\..\..\Software\uCOS-III\Source/os_core.c ****     OS_MemInit(p_err);
 132              		.loc 1 151 0
 133 008e 7B68     		ldr	r3, [r7, #4]
ARM GAS  C:\Users\ADMINI~1\AppData\Local\Temp\cczjWrOu.s 			page 6


 134 0090 1800     		movs	r0, r3
 135 0092 FFF7FEFF 		bl	OS_MemInit
 152:..\..\..\..\..\..\Software\uCOS-III\Source/os_core.c ****     if (*p_err != OS_ERR_NONE) {
 136              		.loc 1 152 0
 137 0096 7B68     		ldr	r3, [r7, #4]
 138 0098 1B88     		ldrh	r3, [r3]
 139 009a 002B     		cmp	r3, #0
 140 009c 49D1     		bne	.L13
 153:..\..\..\..\..\..\Software\uCOS-III\Source/os_core.c ****         return;
 154:..\..\..\..\..\..\Software\uCOS-III\Source/os_core.c ****     }
 155:..\..\..\..\..\..\Software\uCOS-III\Source/os_core.c **** #endif
 156:..\..\..\..\..\..\Software\uCOS-III\Source/os_core.c **** 
 157:..\..\..\..\..\..\Software\uCOS-III\Source/os_core.c **** 
 158:..\..\..\..\..\..\Software\uCOS-III\Source/os_core.c **** #if (OS_MSG_EN == DEF_ENABLED)                                  /* Initialize the free list of OS_M
 159:..\..\..\..\..\..\Software\uCOS-III\Source/os_core.c ****     OS_MsgPoolInit(p_err);
 141              		.loc 1 159 0
 142 009e 7B68     		ldr	r3, [r7, #4]
 143 00a0 1800     		movs	r0, r3
 144 00a2 FFF7FEFF 		bl	OS_MsgPoolInit
 160:..\..\..\..\..\..\Software\uCOS-III\Source/os_core.c ****     if (*p_err != OS_ERR_NONE) {
 145              		.loc 1 160 0
 146 00a6 7B68     		ldr	r3, [r7, #4]
 147 00a8 1B88     		ldrh	r3, [r3]
 148 00aa 002B     		cmp	r3, #0
 149 00ac 43D1     		bne	.L14
 161:..\..\..\..\..\..\Software\uCOS-III\Source/os_core.c ****         return;
 162:..\..\..\..\..\..\Software\uCOS-III\Source/os_core.c ****     }
 163:..\..\..\..\..\..\Software\uCOS-III\Source/os_core.c **** #endif
 164:..\..\..\..\..\..\Software\uCOS-III\Source/os_core.c **** 
 165:..\..\..\..\..\..\Software\uCOS-III\Source/os_core.c **** 
 166:..\..\..\..\..\..\Software\uCOS-III\Source/os_core.c **** #if (OS_CFG_MUTEX_EN == DEF_ENABLED)                            /* Initialize the Mutex Manager mod
 167:..\..\..\..\..\..\Software\uCOS-III\Source/os_core.c **** #if (OS_CFG_DBG_EN == DEF_ENABLED)
 168:..\..\..\..\..\..\Software\uCOS-III\Source/os_core.c ****     OSMutexDbgListPtr = DEF_NULL;
 150              		.loc 1 168 0
 151 00ae 384B     		ldr	r3, .L20+60
 152 00b0 0022     		movs	r2, #0
 153 00b2 1A60     		str	r2, [r3]
 169:..\..\..\..\..\..\Software\uCOS-III\Source/os_core.c ****     OSMutexQty        = 0u;
 154              		.loc 1 169 0
 155 00b4 374B     		ldr	r3, .L20+64
 156 00b6 0022     		movs	r2, #0
 157 00b8 1A80     		strh	r2, [r3]
 170:..\..\..\..\..\..\Software\uCOS-III\Source/os_core.c **** #endif
 171:..\..\..\..\..\..\Software\uCOS-III\Source/os_core.c **** #endif
 172:..\..\..\..\..\..\Software\uCOS-III\Source/os_core.c **** 
 173:..\..\..\..\..\..\Software\uCOS-III\Source/os_core.c **** 
 174:..\..\..\..\..\..\Software\uCOS-III\Source/os_core.c **** #if (OS_CFG_Q_EN == DEF_ENABLED)                                /* Initialize the Message Queue Man
 175:..\..\..\..\..\..\Software\uCOS-III\Source/os_core.c **** #if (OS_CFG_DBG_EN == DEF_ENABLED)
 176:..\..\..\..\..\..\Software\uCOS-III\Source/os_core.c ****     OSQDbgListPtr = DEF_NULL;
 158              		.loc 1 176 0
 159 00ba 374B     		ldr	r3, .L20+68
 160 00bc 0022     		movs	r2, #0
 161 00be 1A60     		str	r2, [r3]
 177:..\..\..\..\..\..\Software\uCOS-III\Source/os_core.c ****     OSQQty        = 0u;
 162              		.loc 1 177 0
 163 00c0 364B     		ldr	r3, .L20+72
 164 00c2 0022     		movs	r2, #0
ARM GAS  C:\Users\ADMINI~1\AppData\Local\Temp\cczjWrOu.s 			page 7


 165 00c4 1A80     		strh	r2, [r3]
 178:..\..\..\..\..\..\Software\uCOS-III\Source/os_core.c **** #endif
 179:..\..\..\..\..\..\Software\uCOS-III\Source/os_core.c **** #endif
 180:..\..\..\..\..\..\Software\uCOS-III\Source/os_core.c **** 
 181:..\..\..\..\..\..\Software\uCOS-III\Source/os_core.c **** 
 182:..\..\..\..\..\..\Software\uCOS-III\Source/os_core.c **** #if (OS_CFG_SEM_EN == DEF_ENABLED)                              /* Initialize the Semaphore Manager
 183:..\..\..\..\..\..\Software\uCOS-III\Source/os_core.c **** #if (OS_CFG_DBG_EN == DEF_ENABLED)
 184:..\..\..\..\..\..\Software\uCOS-III\Source/os_core.c ****     OSSemDbgListPtr = DEF_NULL;
 166              		.loc 1 184 0
 167 00c6 364B     		ldr	r3, .L20+76
 168 00c8 0022     		movs	r2, #0
 169 00ca 1A60     		str	r2, [r3]
 185:..\..\..\..\..\..\Software\uCOS-III\Source/os_core.c ****     OSSemQty        = 0u;
 170              		.loc 1 185 0
 171 00cc 354B     		ldr	r3, .L20+80
 172 00ce 0022     		movs	r2, #0
 173 00d0 1A80     		strh	r2, [r3]
 186:..\..\..\..\..\..\Software\uCOS-III\Source/os_core.c **** #endif
 187:..\..\..\..\..\..\Software\uCOS-III\Source/os_core.c **** #endif
 188:..\..\..\..\..\..\Software\uCOS-III\Source/os_core.c **** 
 189:..\..\..\..\..\..\Software\uCOS-III\Source/os_core.c **** 
 190:..\..\..\..\..\..\Software\uCOS-III\Source/os_core.c **** #if defined(OS_CFG_TLS_TBL_SIZE) && (OS_CFG_TLS_TBL_SIZE > 0u)
 191:..\..\..\..\..\..\Software\uCOS-III\Source/os_core.c ****     OS_TLS_Init(p_err);                                         /* Initialize Task Local Storage, b
 192:..\..\..\..\..\..\Software\uCOS-III\Source/os_core.c ****     if (*p_err != OS_ERR_NONE) {
 193:..\..\..\..\..\..\Software\uCOS-III\Source/os_core.c ****         return;
 194:..\..\..\..\..\..\Software\uCOS-III\Source/os_core.c ****     }
 195:..\..\..\..\..\..\Software\uCOS-III\Source/os_core.c **** #endif
 196:..\..\..\..\..\..\Software\uCOS-III\Source/os_core.c **** 
 197:..\..\..\..\..\..\Software\uCOS-III\Source/os_core.c **** 
 198:..\..\..\..\..\..\Software\uCOS-III\Source/os_core.c ****     OS_TaskInit(p_err);                                         /* Initialize the task manager     
 174              		.loc 1 198 0
 175 00d2 7B68     		ldr	r3, [r7, #4]
 176 00d4 1800     		movs	r0, r3
 177 00d6 FFF7FEFF 		bl	OS_TaskInit
 199:..\..\..\..\..\..\Software\uCOS-III\Source/os_core.c ****     if (*p_err != OS_ERR_NONE) {
 178              		.loc 1 199 0
 179 00da 7B68     		ldr	r3, [r7, #4]
 180 00dc 1B88     		ldrh	r3, [r3]
 181 00de 002B     		cmp	r3, #0
 182 00e0 2BD1     		bne	.L15
 200:..\..\..\..\..\..\Software\uCOS-III\Source/os_core.c ****         return;
 201:..\..\..\..\..\..\Software\uCOS-III\Source/os_core.c ****     }
 202:..\..\..\..\..\..\Software\uCOS-III\Source/os_core.c **** 
 203:..\..\..\..\..\..\Software\uCOS-III\Source/os_core.c **** 
 204:..\..\..\..\..\..\Software\uCOS-III\Source/os_core.c **** #if (OS_CFG_ISR_POST_DEFERRED_EN == DEF_ENABLED)
 205:..\..\..\..\..\..\Software\uCOS-III\Source/os_core.c ****     OS_IntQTaskInit(p_err);                                     /* Initialize the Interrupt Queue H
 206:..\..\..\..\..\..\Software\uCOS-III\Source/os_core.c ****     if (*p_err != OS_ERR_NONE) {
 207:..\..\..\..\..\..\Software\uCOS-III\Source/os_core.c ****         return;
 208:..\..\..\..\..\..\Software\uCOS-III\Source/os_core.c ****     }
 209:..\..\..\..\..\..\Software\uCOS-III\Source/os_core.c **** #endif
 210:..\..\..\..\..\..\Software\uCOS-III\Source/os_core.c **** 
 211:..\..\..\..\..\..\Software\uCOS-III\Source/os_core.c **** 
 212:..\..\..\..\..\..\Software\uCOS-III\Source/os_core.c **** #if (OS_CFG_TASK_IDLE_EN == DEF_ENABLED)
 213:..\..\..\..\..\..\Software\uCOS-III\Source/os_core.c ****     OS_IdleTaskInit(p_err);                                     /* Initialize the Idle Task        
 183              		.loc 1 213 0
 184 00e2 7B68     		ldr	r3, [r7, #4]
 185 00e4 1800     		movs	r0, r3
ARM GAS  C:\Users\ADMINI~1\AppData\Local\Temp\cczjWrOu.s 			page 8


 186 00e6 FFF7FEFF 		bl	OS_IdleTaskInit
 214:..\..\..\..\..\..\Software\uCOS-III\Source/os_core.c ****     if (*p_err != OS_ERR_NONE) {
 187              		.loc 1 214 0
 188 00ea 7B68     		ldr	r3, [r7, #4]
 189 00ec 1B88     		ldrh	r3, [r3]
 190 00ee 002B     		cmp	r3, #0
 191 00f0 25D1     		bne	.L16
 215:..\..\..\..\..\..\Software\uCOS-III\Source/os_core.c ****         return;
 216:..\..\..\..\..\..\Software\uCOS-III\Source/os_core.c ****     }
 217:..\..\..\..\..\..\Software\uCOS-III\Source/os_core.c **** #endif
 218:..\..\..\..\..\..\Software\uCOS-III\Source/os_core.c **** 
 219:..\..\..\..\..\..\Software\uCOS-III\Source/os_core.c **** 
 220:..\..\..\..\..\..\Software\uCOS-III\Source/os_core.c **** #if (OS_CFG_TASK_TICK_EN == DEF_ENABLED)
 221:..\..\..\..\..\..\Software\uCOS-III\Source/os_core.c ****     OS_TickTaskInit(p_err);                                     /* Initialize the Tick Task        
 192              		.loc 1 221 0
 193 00f2 7B68     		ldr	r3, [r7, #4]
 194 00f4 1800     		movs	r0, r3
 195 00f6 FFF7FEFF 		bl	OS_TickTaskInit
 222:..\..\..\..\..\..\Software\uCOS-III\Source/os_core.c ****     if (*p_err != OS_ERR_NONE) {
 196              		.loc 1 222 0
 197 00fa 7B68     		ldr	r3, [r7, #4]
 198 00fc 1B88     		ldrh	r3, [r3]
 199 00fe 002B     		cmp	r3, #0
 200 0100 1FD1     		bne	.L17
 223:..\..\..\..\..\..\Software\uCOS-III\Source/os_core.c ****         return;
 224:..\..\..\..\..\..\Software\uCOS-III\Source/os_core.c ****     }
 225:..\..\..\..\..\..\Software\uCOS-III\Source/os_core.c **** #endif
 226:..\..\..\..\..\..\Software\uCOS-III\Source/os_core.c **** 
 227:..\..\..\..\..\..\Software\uCOS-III\Source/os_core.c **** 
 228:..\..\..\..\..\..\Software\uCOS-III\Source/os_core.c **** #if (OS_CFG_STAT_TASK_EN == DEF_ENABLED)                        /* Initialize the Statistic Task   
 229:..\..\..\..\..\..\Software\uCOS-III\Source/os_core.c ****     OS_StatTaskInit(p_err);
 201              		.loc 1 229 0
 202 0102 7B68     		ldr	r3, [r7, #4]
 203 0104 1800     		movs	r0, r3
 204 0106 FFF7FEFF 		bl	OS_StatTaskInit
 230:..\..\..\..\..\..\Software\uCOS-III\Source/os_core.c ****     if (*p_err != OS_ERR_NONE) {
 205              		.loc 1 230 0
 206 010a 7B68     		ldr	r3, [r7, #4]
 207 010c 1B88     		ldrh	r3, [r3]
 208 010e 002B     		cmp	r3, #0
 209 0110 19D1     		bne	.L18
 231:..\..\..\..\..\..\Software\uCOS-III\Source/os_core.c ****         return;
 232:..\..\..\..\..\..\Software\uCOS-III\Source/os_core.c ****     }
 233:..\..\..\..\..\..\Software\uCOS-III\Source/os_core.c **** #endif
 234:..\..\..\..\..\..\Software\uCOS-III\Source/os_core.c **** 
 235:..\..\..\..\..\..\Software\uCOS-III\Source/os_core.c **** 
 236:..\..\..\..\..\..\Software\uCOS-III\Source/os_core.c **** #if (OS_CFG_TMR_EN == DEF_ENABLED)                              /* Initialize the Timer Manager mod
 237:..\..\..\..\..\..\Software\uCOS-III\Source/os_core.c ****     OS_TmrInit(p_err);
 210              		.loc 1 237 0
 211 0112 7B68     		ldr	r3, [r7, #4]
 212 0114 1800     		movs	r0, r3
 213 0116 FFF7FEFF 		bl	OS_TmrInit
 238:..\..\..\..\..\..\Software\uCOS-III\Source/os_core.c ****     if (*p_err != OS_ERR_NONE) {
 214              		.loc 1 238 0
 215 011a 7B68     		ldr	r3, [r7, #4]
 216 011c 1B88     		ldrh	r3, [r3]
 217 011e 002B     		cmp	r3, #0
ARM GAS  C:\Users\ADMINI~1\AppData\Local\Temp\cczjWrOu.s 			page 9


 218 0120 13D1     		bne	.L19
 239:..\..\..\..\..\..\Software\uCOS-III\Source/os_core.c ****         return;
 240:..\..\..\..\..\..\Software\uCOS-III\Source/os_core.c ****     }
 241:..\..\..\..\..\..\Software\uCOS-III\Source/os_core.c **** #endif
 242:..\..\..\..\..\..\Software\uCOS-III\Source/os_core.c **** 
 243:..\..\..\..\..\..\Software\uCOS-III\Source/os_core.c **** 
 244:..\..\..\..\..\..\Software\uCOS-III\Source/os_core.c **** #if (OS_CFG_DBG_EN == DEF_ENABLED)
 245:..\..\..\..\..\..\Software\uCOS-III\Source/os_core.c ****     OS_Dbg_Init();
 219              		.loc 1 245 0
 220 0122 FFF7FEFF 		bl	OS_Dbg_Init
 246:..\..\..\..\..\..\Software\uCOS-III\Source/os_core.c **** #endif
 247:..\..\..\..\..\..\Software\uCOS-III\Source/os_core.c **** 
 248:..\..\..\..\..\..\Software\uCOS-III\Source/os_core.c **** 
 249:..\..\..\..\..\..\Software\uCOS-III\Source/os_core.c ****     OSCfg_Init();
 221              		.loc 1 249 0
 222 0126 FFF7FEFF 		bl	OSCfg_Init
 250:..\..\..\..\..\..\Software\uCOS-III\Source/os_core.c **** 
 251:..\..\..\..\..\..\Software\uCOS-III\Source/os_core.c ****     OSInitialized = DEF_TRUE;                                   /* Kernel is initialized           
 223              		.loc 1 251 0
 224 012a 1F4B     		ldr	r3, .L20+84
 225 012c 0122     		movs	r2, #1
 226 012e 1A70     		strb	r2, [r3]
 227 0130 0CE0     		b	.L1
 228              	.L13:
 153:..\..\..\..\..\..\Software\uCOS-III\Source/os_core.c ****     }
 229              		.loc 1 153 0
 230 0132 C046     		nop
 231 0134 0AE0     		b	.L1
 232              	.L14:
 161:..\..\..\..\..\..\Software\uCOS-III\Source/os_core.c ****     }
 233              		.loc 1 161 0
 234 0136 C046     		nop
 235 0138 08E0     		b	.L1
 236              	.L15:
 200:..\..\..\..\..\..\Software\uCOS-III\Source/os_core.c ****     }
 237              		.loc 1 200 0
 238 013a C046     		nop
 239 013c 06E0     		b	.L1
 240              	.L16:
 215:..\..\..\..\..\..\Software\uCOS-III\Source/os_core.c ****     }
 241              		.loc 1 215 0
 242 013e C046     		nop
 243 0140 04E0     		b	.L1
 244              	.L17:
 223:..\..\..\..\..\..\Software\uCOS-III\Source/os_core.c ****     }
 245              		.loc 1 223 0
 246 0142 C046     		nop
 247 0144 02E0     		b	.L1
 248              	.L18:
 231:..\..\..\..\..\..\Software\uCOS-III\Source/os_core.c ****     }
 249              		.loc 1 231 0
 250 0146 C046     		nop
 251 0148 00E0     		b	.L1
 252              	.L19:
 239:..\..\..\..\..\..\Software\uCOS-III\Source/os_core.c ****     }
 253              		.loc 1 239 0
 254 014a C046     		nop
ARM GAS  C:\Users\ADMINI~1\AppData\Local\Temp\cczjWrOu.s 			page 10


 255              	.L1:
 252:..\..\..\..\..\..\Software\uCOS-III\Source/os_core.c **** }
 256              		.loc 1 252 0
 257 014c BD46     		mov	sp, r7
 258 014e 04B0     		add	sp, sp, #16
 259              		@ sp needed
 260 0150 80BD     		pop	{r7, pc}
 261              	.L21:
 262 0152 C046     		.align	2
 263              	.L20:
 264 0154 00000000 		.word	OSIntNestingCtr
 265 0158 00000000 		.word	OSRunning
 266 015c 00000000 		.word	OSSchedLockNestingCtr
 267 0160 00000000 		.word	OSTCBCurPtr
 268 0164 00000000 		.word	OSTCBHighRdyPtr
 269 0168 00000000 		.word	OSPrioCur
 270 016c 00000000 		.word	OSPrioHighRdy
 271 0170 00000000 		.word	OSSchedLockTimeBegin
 272 0174 00000000 		.word	OSSchedLockTimeMax
 273 0178 00000000 		.word	OSSchedLockTimeMaxCur
 274 017c 00000000 		.word	OSCfg_ISRStkBasePtr
 275 0180 00000000 		.word	OSCfg_ISRStkSize
 276 0184 00000000 		.word	OSTaskRegNextAvailID
 277 0188 00000000 		.word	OSFlagDbgListPtr
 278 018c 00000000 		.word	OSFlagQty
 279 0190 00000000 		.word	OSMutexDbgListPtr
 280 0194 00000000 		.word	OSMutexQty
 281 0198 00000000 		.word	OSQDbgListPtr
 282 019c 00000000 		.word	OSQQty
 283 01a0 00000000 		.word	OSSemDbgListPtr
 284 01a4 00000000 		.word	OSSemQty
 285 01a8 00000000 		.word	OSInitialized
 286              		.cfi_endproc
 287              	.LFE0:
 288              		.size	OSInit, .-OSInit
 289              		.section	.text.OSIntEnter,"ax",%progbits
 290              		.align	2
 291              		.global	OSIntEnter
 292              		.code	16
 293              		.thumb_func
 294              		.type	OSIntEnter, %function
 295              	OSIntEnter:
 296              	.LFB1:
 253:..\..\..\..\..\..\Software\uCOS-III\Source/os_core.c **** 
 254:..\..\..\..\..\..\Software\uCOS-III\Source/os_core.c **** 
 255:..\..\..\..\..\..\Software\uCOS-III\Source/os_core.c **** /*
 256:..\..\..\..\..\..\Software\uCOS-III\Source/os_core.c **** ***************************************************************************************************
 257:..\..\..\..\..\..\Software\uCOS-III\Source/os_core.c **** *                                                      ENTER ISR
 258:..\..\..\..\..\..\Software\uCOS-III\Source/os_core.c **** *
 259:..\..\..\..\..\..\Software\uCOS-III\Source/os_core.c **** * Description: This function is used to notify uC/OS-III that you are about to service an interrupt
 260:..\..\..\..\..\..\Software\uCOS-III\Source/os_core.c **** *              (ISR).  This allows uC/OS-III to keep track of interrupt nesting and thus only perfo
 261:..\..\..\..\..\..\Software\uCOS-III\Source/os_core.c **** *              the last nested ISR.
 262:..\..\..\..\..\..\Software\uCOS-III\Source/os_core.c **** *
 263:..\..\..\..\..\..\Software\uCOS-III\Source/os_core.c **** * Arguments  : none
 264:..\..\..\..\..\..\Software\uCOS-III\Source/os_core.c **** *
 265:..\..\..\..\..\..\Software\uCOS-III\Source/os_core.c **** * Returns    : none
 266:..\..\..\..\..\..\Software\uCOS-III\Source/os_core.c **** *
ARM GAS  C:\Users\ADMINI~1\AppData\Local\Temp\cczjWrOu.s 			page 11


 267:..\..\..\..\..\..\Software\uCOS-III\Source/os_core.c **** * Note(s)    : 1) This function MUST be called with interrupts already disabled
 268:..\..\..\..\..\..\Software\uCOS-III\Source/os_core.c **** *
 269:..\..\..\..\..\..\Software\uCOS-III\Source/os_core.c **** *              2) Your ISR can directly increment 'OSIntNestingCtr' without calling this function b
 270:..\..\..\..\..\..\Software\uCOS-III\Source/os_core.c **** *                 been declared 'global', the port is actually considered part of the OS and thus i
 271:..\..\..\..\..\..\Software\uCOS-III\Source/os_core.c **** *                 uC/OS-III variables.
 272:..\..\..\..\..\..\Software\uCOS-III\Source/os_core.c **** *
 273:..\..\..\..\..\..\Software\uCOS-III\Source/os_core.c **** *              3) You MUST still call OSIntExit() even though you increment 'OSIntNestingCtr' direc
 274:..\..\..\..\..\..\Software\uCOS-III\Source/os_core.c **** *
 275:..\..\..\..\..\..\Software\uCOS-III\Source/os_core.c **** *              4) You MUST invoke OSIntEnter() and OSIntExit() in pair.  In other words, for every 
 276:..\..\..\..\..\..\Software\uCOS-III\Source/os_core.c **** *                 (or direct increment to OSIntNestingCtr) at the beginning of the ISR you MUST hav
 277:..\..\..\..\..\..\Software\uCOS-III\Source/os_core.c **** *                 at the end of the ISR.
 278:..\..\..\..\..\..\Software\uCOS-III\Source/os_core.c **** *
 279:..\..\..\..\..\..\Software\uCOS-III\Source/os_core.c **** *              5) You are allowed to nest interrupts up to 250 levels deep.
 280:..\..\..\..\..\..\Software\uCOS-III\Source/os_core.c **** ***************************************************************************************************
 281:..\..\..\..\..\..\Software\uCOS-III\Source/os_core.c **** */
 282:..\..\..\..\..\..\Software\uCOS-III\Source/os_core.c **** 
 283:..\..\..\..\..\..\Software\uCOS-III\Source/os_core.c **** void  OSIntEnter (void)
 284:..\..\..\..\..\..\Software\uCOS-III\Source/os_core.c **** {
 297              		.loc 1 284 0
 298              		.cfi_startproc
 299              		@ args = 0, pretend = 0, frame = 0
 300              		@ frame_needed = 1, uses_anonymous_args = 0
 301 0000 80B5     		push	{r7, lr}
 302              		.cfi_def_cfa_offset 8
 303              		.cfi_offset 7, -8
 304              		.cfi_offset 14, -4
 305 0002 00AF     		add	r7, sp, #0
 306              		.cfi_def_cfa_register 7
 285:..\..\..\..\..\..\Software\uCOS-III\Source/os_core.c ****     if (OSRunning != OS_STATE_OS_RUNNING) {                     /* Is OS running?                  
 307              		.loc 1 285 0
 308 0004 094B     		ldr	r3, .L28
 309 0006 1B78     		ldrb	r3, [r3]
 310 0008 012B     		cmp	r3, #1
 311 000a 0AD1     		bne	.L26
 286:..\..\..\..\..\..\Software\uCOS-III\Source/os_core.c ****         return;                                                 /* No                              
 287:..\..\..\..\..\..\Software\uCOS-III\Source/os_core.c ****     }
 288:..\..\..\..\..\..\Software\uCOS-III\Source/os_core.c **** 
 289:..\..\..\..\..\..\Software\uCOS-III\Source/os_core.c ****     if (OSIntNestingCtr >= 250u) {                              /* Have we nested past 250 levels? 
 312              		.loc 1 289 0
 313 000c 084B     		ldr	r3, .L28+4
 314 000e 1B78     		ldrb	r3, [r3]
 315 0010 F92B     		cmp	r3, #249
 316 0012 08D8     		bhi	.L27
 290:..\..\..\..\..\..\Software\uCOS-III\Source/os_core.c ****         return;                                                 /* Yes                             
 291:..\..\..\..\..\..\Software\uCOS-III\Source/os_core.c ****     }
 292:..\..\..\..\..\..\Software\uCOS-III\Source/os_core.c **** 
 293:..\..\..\..\..\..\Software\uCOS-III\Source/os_core.c ****     OSIntNestingCtr++;                                          /* Increment ISR nesting level     
 317              		.loc 1 293 0
 318 0014 064B     		ldr	r3, .L28+4
 319 0016 1B78     		ldrb	r3, [r3]
 320 0018 0133     		adds	r3, r3, #1
 321 001a DAB2     		uxtb	r2, r3
 322 001c 044B     		ldr	r3, .L28+4
 323 001e 1A70     		strb	r2, [r3]
 324 0020 02E0     		b	.L22
 325              	.L26:
 286:..\..\..\..\..\..\Software\uCOS-III\Source/os_core.c ****         return;                                                 /* No                              
ARM GAS  C:\Users\ADMINI~1\AppData\Local\Temp\cczjWrOu.s 			page 12


 326              		.loc 1 286 0
 327 0022 C046     		nop
 328 0024 00E0     		b	.L22
 329              	.L27:
 290:..\..\..\..\..\..\Software\uCOS-III\Source/os_core.c ****         return;                                                 /* Yes                             
 330              		.loc 1 290 0
 331 0026 C046     		nop
 332              	.L22:
 294:..\..\..\..\..\..\Software\uCOS-III\Source/os_core.c **** }
 333              		.loc 1 294 0
 334 0028 BD46     		mov	sp, r7
 335              		@ sp needed
 336 002a 80BD     		pop	{r7, pc}
 337              	.L29:
 338              		.align	2
 339              	.L28:
 340 002c 00000000 		.word	OSRunning
 341 0030 00000000 		.word	OSIntNestingCtr
 342              		.cfi_endproc
 343              	.LFE1:
 344              		.size	OSIntEnter, .-OSIntEnter
 345              		.section	.text.OSIntExit,"ax",%progbits
 346              		.align	2
 347              		.global	OSIntExit
 348              		.code	16
 349              		.thumb_func
 350              		.type	OSIntExit, %function
 351              	OSIntExit:
 352              	.LFB2:
 295:..\..\..\..\..\..\Software\uCOS-III\Source/os_core.c **** 
 296:..\..\..\..\..\..\Software\uCOS-III\Source/os_core.c **** 
 297:..\..\..\..\..\..\Software\uCOS-III\Source/os_core.c **** /*
 298:..\..\..\..\..\..\Software\uCOS-III\Source/os_core.c **** ***************************************************************************************************
 299:..\..\..\..\..\..\Software\uCOS-III\Source/os_core.c **** *                                                       EXIT ISR
 300:..\..\..\..\..\..\Software\uCOS-III\Source/os_core.c **** *
 301:..\..\..\..\..\..\Software\uCOS-III\Source/os_core.c **** * Description: This function is used to notify uC/OS-III that you have completed servicing an ISR. 
 302:..\..\..\..\..\..\Software\uCOS-III\Source/os_core.c **** *              ISR has completed, uC/OS-III will call the scheduler to determine whether a new, hig
 303:..\..\..\..\..\..\Software\uCOS-III\Source/os_core.c **** *              ready to run.
 304:..\..\..\..\..\..\Software\uCOS-III\Source/os_core.c **** *
 305:..\..\..\..\..\..\Software\uCOS-III\Source/os_core.c **** * Arguments  : none
 306:..\..\..\..\..\..\Software\uCOS-III\Source/os_core.c **** *
 307:..\..\..\..\..\..\Software\uCOS-III\Source/os_core.c **** * Returns    : none
 308:..\..\..\..\..\..\Software\uCOS-III\Source/os_core.c **** *
 309:..\..\..\..\..\..\Software\uCOS-III\Source/os_core.c **** * Note(s)    : 1) You MUST invoke OSIntEnter() and OSIntExit() in pair.  In other words, for every 
 310:..\..\..\..\..\..\Software\uCOS-III\Source/os_core.c **** *                 (or direct increment to OSIntNestingCtr) at the beginning of the ISR you MUST hav
 311:..\..\..\..\..\..\Software\uCOS-III\Source/os_core.c **** *                 at the end of the ISR.
 312:..\..\..\..\..\..\Software\uCOS-III\Source/os_core.c **** *
 313:..\..\..\..\..\..\Software\uCOS-III\Source/os_core.c **** *              2) Rescheduling is prevented when the scheduler is locked (see OSSchedLock())
 314:..\..\..\..\..\..\Software\uCOS-III\Source/os_core.c **** ***************************************************************************************************
 315:..\..\..\..\..\..\Software\uCOS-III\Source/os_core.c **** */
 316:..\..\..\..\..\..\Software\uCOS-III\Source/os_core.c **** 
 317:..\..\..\..\..\..\Software\uCOS-III\Source/os_core.c **** void  OSIntExit (void)
 318:..\..\..\..\..\..\Software\uCOS-III\Source/os_core.c **** {
 353              		.loc 1 318 0
 354              		.cfi_startproc
 355              		@ args = 0, pretend = 0, frame = 8
 356              		@ frame_needed = 1, uses_anonymous_args = 0
ARM GAS  C:\Users\ADMINI~1\AppData\Local\Temp\cczjWrOu.s 			page 13


 357 0000 80B5     		push	{r7, lr}
 358              		.cfi_def_cfa_offset 8
 359              		.cfi_offset 7, -8
 360              		.cfi_offset 14, -4
 361 0002 82B0     		sub	sp, sp, #8
 362              		.cfi_def_cfa_offset 16
 363 0004 00AF     		add	r7, sp, #0
 364              		.cfi_def_cfa_register 7
 319:..\..\..\..\..\..\Software\uCOS-III\Source/os_core.c **** #if (OS_CFG_TASK_STK_REDZONE_EN == DEF_ENABLED)
 320:..\..\..\..\..\..\Software\uCOS-III\Source/os_core.c ****     CPU_BOOLEAN  stk_status;
 321:..\..\..\..\..\..\Software\uCOS-III\Source/os_core.c **** #endif
 322:..\..\..\..\..\..\Software\uCOS-III\Source/os_core.c ****     CPU_SR_ALLOC();
 365              		.loc 1 322 0
 366 0006 0023     		movs	r3, #0
 367 0008 7B60     		str	r3, [r7, #4]
 323:..\..\..\..\..\..\Software\uCOS-III\Source/os_core.c **** 
 324:..\..\..\..\..\..\Software\uCOS-III\Source/os_core.c **** 
 325:..\..\..\..\..\..\Software\uCOS-III\Source/os_core.c **** 
 326:..\..\..\..\..\..\Software\uCOS-III\Source/os_core.c ****     if (OSRunning != OS_STATE_OS_RUNNING) {                     /* Has the OS started?             
 368              		.loc 1 326 0
 369 000a 2E4B     		ldr	r3, .L38
 370 000c 1B78     		ldrb	r3, [r3]
 371 000e 012B     		cmp	r3, #1
 372 0010 53D1     		bne	.L37
 327:..\..\..\..\..\..\Software\uCOS-III\Source/os_core.c ****         return;                                                 /* No                              
 328:..\..\..\..\..\..\Software\uCOS-III\Source/os_core.c ****     }
 329:..\..\..\..\..\..\Software\uCOS-III\Source/os_core.c **** 
 330:..\..\..\..\..\..\Software\uCOS-III\Source/os_core.c ****     CPU_INT_DIS();
 373              		.loc 1 330 0
 374 0012 FFF7FEFF 		bl	CPU_SR_Save
 375 0016 0300     		movs	r3, r0
 376 0018 7B60     		str	r3, [r7, #4]
 331:..\..\..\..\..\..\Software\uCOS-III\Source/os_core.c ****     if (OSIntNestingCtr == 0u) {                                /* Prevent OSIntNestingCtr from wra
 377              		.loc 1 331 0
 378 001a 2B4B     		ldr	r3, .L38+4
 379 001c 1B78     		ldrb	r3, [r3]
 380 001e 002B     		cmp	r3, #0
 381 0020 04D1     		bne	.L33
 332:..\..\..\..\..\..\Software\uCOS-III\Source/os_core.c ****         CPU_INT_EN();
 382              		.loc 1 332 0
 383 0022 7B68     		ldr	r3, [r7, #4]
 384 0024 1800     		movs	r0, r3
 385 0026 FFF7FEFF 		bl	CPU_SR_Restore
 333:..\..\..\..\..\..\Software\uCOS-III\Source/os_core.c ****         return;
 386              		.loc 1 333 0
 387 002a 47E0     		b	.L30
 388              	.L33:
 334:..\..\..\..\..\..\Software\uCOS-III\Source/os_core.c ****     }
 335:..\..\..\..\..\..\Software\uCOS-III\Source/os_core.c ****     OSIntNestingCtr--;
 389              		.loc 1 335 0
 390 002c 264B     		ldr	r3, .L38+4
 391 002e 1B78     		ldrb	r3, [r3]
 392 0030 013B     		subs	r3, r3, #1
 393 0032 DAB2     		uxtb	r2, r3
 394 0034 244B     		ldr	r3, .L38+4
 395 0036 1A70     		strb	r2, [r3]
 336:..\..\..\..\..\..\Software\uCOS-III\Source/os_core.c ****     if (OSIntNestingCtr > 0u) {                                 /* ISRs still nested?              
ARM GAS  C:\Users\ADMINI~1\AppData\Local\Temp\cczjWrOu.s 			page 14


 396              		.loc 1 336 0
 397 0038 234B     		ldr	r3, .L38+4
 398 003a 1B78     		ldrb	r3, [r3]
 399 003c 002B     		cmp	r3, #0
 400 003e 04D0     		beq	.L34
 337:..\..\..\..\..\..\Software\uCOS-III\Source/os_core.c ****         CPU_INT_EN();                                           /* Yes                             
 401              		.loc 1 337 0
 402 0040 7B68     		ldr	r3, [r7, #4]
 403 0042 1800     		movs	r0, r3
 404 0044 FFF7FEFF 		bl	CPU_SR_Restore
 338:..\..\..\..\..\..\Software\uCOS-III\Source/os_core.c ****         return;
 405              		.loc 1 338 0
 406 0048 38E0     		b	.L30
 407              	.L34:
 339:..\..\..\..\..\..\Software\uCOS-III\Source/os_core.c ****     }
 340:..\..\..\..\..\..\Software\uCOS-III\Source/os_core.c **** 
 341:..\..\..\..\..\..\Software\uCOS-III\Source/os_core.c ****     if (OSSchedLockNestingCtr > 0u) {                           /* Scheduler still locked?         
 408              		.loc 1 341 0
 409 004a 204B     		ldr	r3, .L38+8
 410 004c 1B78     		ldrb	r3, [r3]
 411 004e 002B     		cmp	r3, #0
 412 0050 04D0     		beq	.L35
 342:..\..\..\..\..\..\Software\uCOS-III\Source/os_core.c ****         CPU_INT_EN();                                           /* Yes                             
 413              		.loc 1 342 0
 414 0052 7B68     		ldr	r3, [r7, #4]
 415 0054 1800     		movs	r0, r3
 416 0056 FFF7FEFF 		bl	CPU_SR_Restore
 343:..\..\..\..\..\..\Software\uCOS-III\Source/os_core.c ****         return;
 417              		.loc 1 343 0
 418 005a 2FE0     		b	.L30
 419              	.L35:
 344:..\..\..\..\..\..\Software\uCOS-III\Source/os_core.c ****     }
 345:..\..\..\..\..\..\Software\uCOS-III\Source/os_core.c **** 
 346:..\..\..\..\..\..\Software\uCOS-III\Source/os_core.c ****                                                                 /* Verify ISR Stack                
 347:..\..\..\..\..\..\Software\uCOS-III\Source/os_core.c **** #if (OS_CFG_ISR_STK_SIZE > 0u)
 348:..\..\..\..\..\..\Software\uCOS-III\Source/os_core.c **** #if (OS_CFG_TASK_STK_REDZONE_EN == DEF_ENABLED)
 349:..\..\..\..\..\..\Software\uCOS-III\Source/os_core.c ****     stk_status = OS_TaskStkRedzoneChk(OSCfg_ISRStkBasePtr, OSCfg_ISRStkSize);
 350:..\..\..\..\..\..\Software\uCOS-III\Source/os_core.c ****     if (stk_status != DEF_OK) {
 351:..\..\..\..\..\..\Software\uCOS-III\Source/os_core.c ****         OSRedzoneHitHook(DEF_NULL);
 352:..\..\..\..\..\..\Software\uCOS-III\Source/os_core.c ****     }
 353:..\..\..\..\..\..\Software\uCOS-III\Source/os_core.c **** #endif
 354:..\..\..\..\..\..\Software\uCOS-III\Source/os_core.c **** #endif
 355:..\..\..\..\..\..\Software\uCOS-III\Source/os_core.c **** 
 356:..\..\..\..\..\..\Software\uCOS-III\Source/os_core.c ****     OSPrioHighRdy   = OS_PrioGetHighest();                      /* Find highest priority           
 420              		.loc 1 356 0
 421 005c FFF7FEFF 		bl	OS_PrioGetHighest
 422 0060 0300     		movs	r3, r0
 423 0062 1A00     		movs	r2, r3
 424 0064 1A4B     		ldr	r3, .L38+12
 425 0066 1A70     		strb	r2, [r3]
 357:..\..\..\..\..\..\Software\uCOS-III\Source/os_core.c **** #if (OS_CFG_TASK_IDLE_EN == DEF_ENABLED)
 358:..\..\..\..\..\..\Software\uCOS-III\Source/os_core.c ****     OSTCBHighRdyPtr = OSRdyList[OSPrioHighRdy].HeadPtr;         /* Get highest priority task ready-
 426              		.loc 1 358 0
 427 0068 194B     		ldr	r3, .L38+12
 428 006a 1B78     		ldrb	r3, [r3]
 429 006c 1900     		movs	r1, r3
 430 006e 194A     		ldr	r2, .L38+16
ARM GAS  C:\Users\ADMINI~1\AppData\Local\Temp\cczjWrOu.s 			page 15


 431 0070 0B00     		movs	r3, r1
 432 0072 5B00     		lsls	r3, r3, #1
 433 0074 5B18     		adds	r3, r3, r1
 434 0076 9B00     		lsls	r3, r3, #2
 435 0078 9A58     		ldr	r2, [r3, r2]
 436 007a 174B     		ldr	r3, .L38+20
 437 007c 1A60     		str	r2, [r3]
 359:..\..\..\..\..\..\Software\uCOS-III\Source/os_core.c ****     if (OSTCBHighRdyPtr == OSTCBCurPtr) {                       /* Current task still the highest p
 438              		.loc 1 359 0
 439 007e 164B     		ldr	r3, .L38+20
 440 0080 1A68     		ldr	r2, [r3]
 441 0082 164B     		ldr	r3, .L38+24
 442 0084 1B68     		ldr	r3, [r3]
 443 0086 9A42     		cmp	r2, r3
 444 0088 04D1     		bne	.L36
 360:..\..\..\..\..\..\Software\uCOS-III\Source/os_core.c **** #if (OS_CFG_TASK_STK_REDZONE_EN == DEF_ENABLED)
 361:..\..\..\..\..\..\Software\uCOS-III\Source/os_core.c ****         stk_status = OSTaskStkRedzoneChk(DEF_NULL);
 362:..\..\..\..\..\..\Software\uCOS-III\Source/os_core.c ****         if (stk_status != DEF_OK) {
 363:..\..\..\..\..\..\Software\uCOS-III\Source/os_core.c ****             OSRedzoneHitHook(OSTCBCurPtr);
 364:..\..\..\..\..\..\Software\uCOS-III\Source/os_core.c ****         }
 365:..\..\..\..\..\..\Software\uCOS-III\Source/os_core.c **** #endif
 366:..\..\..\..\..\..\Software\uCOS-III\Source/os_core.c ****         CPU_INT_EN();                                           /* Yes                             
 445              		.loc 1 366 0
 446 008a 7B68     		ldr	r3, [r7, #4]
 447 008c 1800     		movs	r0, r3
 448 008e FFF7FEFF 		bl	CPU_SR_Restore
 367:..\..\..\..\..\..\Software\uCOS-III\Source/os_core.c ****         return;
 449              		.loc 1 367 0
 450 0092 13E0     		b	.L30
 451              	.L36:
 368:..\..\..\..\..\..\Software\uCOS-III\Source/os_core.c ****     }
 369:..\..\..\..\..\..\Software\uCOS-III\Source/os_core.c **** #else
 370:..\..\..\..\..\..\Software\uCOS-III\Source/os_core.c ****     if (OSPrioHighRdy != (OS_CFG_PRIO_MAX - 1u)) {              /* Are we returning to idle?       
 371:..\..\..\..\..\..\Software\uCOS-III\Source/os_core.c ****         OSTCBHighRdyPtr = OSRdyList[OSPrioHighRdy].HeadPtr;     /* No ... get highest priority task
 372:..\..\..\..\..\..\Software\uCOS-III\Source/os_core.c ****         if (OSTCBHighRdyPtr == OSTCBCurPtr) {                   /* Current task still the highest p
 373:..\..\..\..\..\..\Software\uCOS-III\Source/os_core.c ****             CPU_INT_EN();                                       /* Yes                             
 374:..\..\..\..\..\..\Software\uCOS-III\Source/os_core.c ****             return;
 375:..\..\..\..\..\..\Software\uCOS-III\Source/os_core.c ****         }
 376:..\..\..\..\..\..\Software\uCOS-III\Source/os_core.c ****     }
 377:..\..\..\..\..\..\Software\uCOS-III\Source/os_core.c **** #endif
 378:..\..\..\..\..\..\Software\uCOS-III\Source/os_core.c **** 
 379:..\..\..\..\..\..\Software\uCOS-III\Source/os_core.c **** #if (OS_CFG_TASK_PROFILE_EN == DEF_ENABLED)
 380:..\..\..\..\..\..\Software\uCOS-III\Source/os_core.c ****     OSTCBHighRdyPtr->CtxSwCtr++;                                /* Inc. # of context switches for t
 452              		.loc 1 380 0
 453 0094 104B     		ldr	r3, .L38+20
 454 0096 1B68     		ldr	r3, [r3]
 455 0098 8C22     		movs	r2, #140
 456 009a 9A58     		ldr	r2, [r3, r2]
 457 009c 0132     		adds	r2, r2, #1
 458 009e 8C21     		movs	r1, #140
 459 00a0 5A50     		str	r2, [r3, r1]
 381:..\..\..\..\..\..\Software\uCOS-III\Source/os_core.c **** #endif
 382:..\..\..\..\..\..\Software\uCOS-III\Source/os_core.c **** #if ((OS_CFG_TASK_PROFILE_EN == DEF_ENABLED) || (OS_CFG_DBG_EN == DEF_ENABLED))
 383:..\..\..\..\..\..\Software\uCOS-III\Source/os_core.c ****     OSTaskCtxSwCtr++;                                           /* Keep track of the total number o
 460              		.loc 1 383 0
 461 00a2 0F4B     		ldr	r3, .L38+28
 462 00a4 1B68     		ldr	r3, [r3]
ARM GAS  C:\Users\ADMINI~1\AppData\Local\Temp\cczjWrOu.s 			page 16


 463 00a6 5A1C     		adds	r2, r3, #1
 464 00a8 0D4B     		ldr	r3, .L38+28
 465 00aa 1A60     		str	r2, [r3]
 384:..\..\..\..\..\..\Software\uCOS-III\Source/os_core.c **** #endif
 385:..\..\..\..\..\..\Software\uCOS-III\Source/os_core.c **** 
 386:..\..\..\..\..\..\Software\uCOS-III\Source/os_core.c **** #if defined(OS_CFG_TLS_TBL_SIZE) && (OS_CFG_TLS_TBL_SIZE > 0u)
 387:..\..\..\..\..\..\Software\uCOS-III\Source/os_core.c ****     OS_TLS_TaskSw();
 388:..\..\..\..\..\..\Software\uCOS-III\Source/os_core.c **** #endif
 389:..\..\..\..\..\..\Software\uCOS-III\Source/os_core.c **** 
 390:..\..\..\..\..\..\Software\uCOS-III\Source/os_core.c ****     OSIntCtxSw();                                               /* Perform interrupt level ctx swit
 466              		.loc 1 390 0
 467 00ac FFF7FEFF 		bl	OSIntCtxSw
 391:..\..\..\..\..\..\Software\uCOS-III\Source/os_core.c **** 
 392:..\..\..\..\..\..\Software\uCOS-III\Source/os_core.c ****     CPU_INT_EN();
 468              		.loc 1 392 0
 469 00b0 7B68     		ldr	r3, [r7, #4]
 470 00b2 1800     		movs	r0, r3
 471 00b4 FFF7FEFF 		bl	CPU_SR_Restore
 472 00b8 00E0     		b	.L30
 473              	.L37:
 327:..\..\..\..\..\..\Software\uCOS-III\Source/os_core.c ****     }
 474              		.loc 1 327 0
 475 00ba C046     		nop
 476              	.L30:
 393:..\..\..\..\..\..\Software\uCOS-III\Source/os_core.c **** }
 477              		.loc 1 393 0
 478 00bc BD46     		mov	sp, r7
 479 00be 02B0     		add	sp, sp, #8
 480              		@ sp needed
 481 00c0 80BD     		pop	{r7, pc}
 482              	.L39:
 483 00c2 C046     		.align	2
 484              	.L38:
 485 00c4 00000000 		.word	OSRunning
 486 00c8 00000000 		.word	OSIntNestingCtr
 487 00cc 00000000 		.word	OSSchedLockNestingCtr
 488 00d0 00000000 		.word	OSPrioHighRdy
 489 00d4 00000000 		.word	OSRdyList
 490 00d8 00000000 		.word	OSTCBHighRdyPtr
 491 00dc 00000000 		.word	OSTCBCurPtr
 492 00e0 00000000 		.word	OSTaskCtxSwCtr
 493              		.cfi_endproc
 494              	.LFE2:
 495              		.size	OSIntExit, .-OSIntExit
 496              		.section	.text.OSSched,"ax",%progbits
 497              		.align	2
 498              		.global	OSSched
 499              		.code	16
 500              		.thumb_func
 501              		.type	OSSched, %function
 502              	OSSched:
 503              	.LFB3:
 394:..\..\..\..\..\..\Software\uCOS-III\Source/os_core.c **** 
 395:..\..\..\..\..\..\Software\uCOS-III\Source/os_core.c **** 
 396:..\..\..\..\..\..\Software\uCOS-III\Source/os_core.c **** /*
 397:..\..\..\..\..\..\Software\uCOS-III\Source/os_core.c **** ***************************************************************************************************
 398:..\..\..\..\..\..\Software\uCOS-III\Source/os_core.c **** *                                    INDICATE THAT IT'S NO LONGER SAFE TO CREATE OBJECTS
ARM GAS  C:\Users\ADMINI~1\AppData\Local\Temp\cczjWrOu.s 			page 17


 399:..\..\..\..\..\..\Software\uCOS-III\Source/os_core.c **** *
 400:..\..\..\..\..\..\Software\uCOS-III\Source/os_core.c **** * Description: This function is called by the application code to indicate that all initialization 
 401:..\..\..\..\..\..\Software\uCOS-III\Source/os_core.c **** *              and that kernel objects are no longer allowed to be created.
 402:..\..\..\..\..\..\Software\uCOS-III\Source/os_core.c **** *
 403:..\..\..\..\..\..\Software\uCOS-III\Source/os_core.c **** * Arguments  : none
 404:..\..\..\..\..\..\Software\uCOS-III\Source/os_core.c **** *
 405:..\..\..\..\..\..\Software\uCOS-III\Source/os_core.c **** * Returns    : none
 406:..\..\..\..\..\..\Software\uCOS-III\Source/os_core.c **** *
 407:..\..\..\..\..\..\Software\uCOS-III\Source/os_core.c **** * Note(s)    : none
 408:..\..\..\..\..\..\Software\uCOS-III\Source/os_core.c **** ***************************************************************************************************
 409:..\..\..\..\..\..\Software\uCOS-III\Source/os_core.c **** */
 410:..\..\..\..\..\..\Software\uCOS-III\Source/os_core.c **** 
 411:..\..\..\..\..\..\Software\uCOS-III\Source/os_core.c **** #ifdef OS_SAFETY_CRITICAL_IEC61508
 412:..\..\..\..\..\..\Software\uCOS-III\Source/os_core.c **** void  OSSafetyCriticalStart (void)
 413:..\..\..\..\..\..\Software\uCOS-III\Source/os_core.c **** {
 414:..\..\..\..\..\..\Software\uCOS-III\Source/os_core.c ****     OSSafetyCriticalStartFlag = DEF_TRUE;
 415:..\..\..\..\..\..\Software\uCOS-III\Source/os_core.c **** }
 416:..\..\..\..\..\..\Software\uCOS-III\Source/os_core.c **** 
 417:..\..\..\..\..\..\Software\uCOS-III\Source/os_core.c **** #endif
 418:..\..\..\..\..\..\Software\uCOS-III\Source/os_core.c **** 
 419:..\..\..\..\..\..\Software\uCOS-III\Source/os_core.c **** 
 420:..\..\..\..\..\..\Software\uCOS-III\Source/os_core.c **** /*
 421:..\..\..\..\..\..\Software\uCOS-III\Source/os_core.c **** ***************************************************************************************************
 422:..\..\..\..\..\..\Software\uCOS-III\Source/os_core.c **** *                                                      SCHEDULER
 423:..\..\..\..\..\..\Software\uCOS-III\Source/os_core.c **** *
 424:..\..\..\..\..\..\Software\uCOS-III\Source/os_core.c **** * Description: This function is called by other uC/OS-III services to determine whether a new, high
 425:..\..\..\..\..\..\Software\uCOS-III\Source/os_core.c **** *              been made ready to run.  This function is invoked by TASK level code and is not used
 426:..\..\..\..\..\..\Software\uCOS-III\Source/os_core.c **** *              from ISRs (see OSIntExit() for ISR rescheduling).
 427:..\..\..\..\..\..\Software\uCOS-III\Source/os_core.c **** *
 428:..\..\..\..\..\..\Software\uCOS-III\Source/os_core.c **** * Arguments  : none
 429:..\..\..\..\..\..\Software\uCOS-III\Source/os_core.c **** *
 430:..\..\..\..\..\..\Software\uCOS-III\Source/os_core.c **** * Returns    : none
 431:..\..\..\..\..\..\Software\uCOS-III\Source/os_core.c **** *
 432:..\..\..\..\..\..\Software\uCOS-III\Source/os_core.c **** * Note(s)    : 1) Rescheduling is prevented when the scheduler is locked (see OSSchedLock())
 433:..\..\..\..\..\..\Software\uCOS-III\Source/os_core.c **** ***************************************************************************************************
 434:..\..\..\..\..\..\Software\uCOS-III\Source/os_core.c **** */
 435:..\..\..\..\..\..\Software\uCOS-III\Source/os_core.c **** 
 436:..\..\..\..\..\..\Software\uCOS-III\Source/os_core.c **** void  OSSched (void)
 437:..\..\..\..\..\..\Software\uCOS-III\Source/os_core.c **** {
 504              		.loc 1 437 0
 505              		.cfi_startproc
 506              		@ args = 0, pretend = 0, frame = 8
 507              		@ frame_needed = 1, uses_anonymous_args = 0
 508 0000 80B5     		push	{r7, lr}
 509              		.cfi_def_cfa_offset 8
 510              		.cfi_offset 7, -8
 511              		.cfi_offset 14, -4
 512 0002 82B0     		sub	sp, sp, #8
 513              		.cfi_def_cfa_offset 16
 514 0004 00AF     		add	r7, sp, #0
 515              		.cfi_def_cfa_register 7
 438:..\..\..\..\..\..\Software\uCOS-III\Source/os_core.c ****     CPU_SR_ALLOC();
 516              		.loc 1 438 0
 517 0006 0023     		movs	r3, #0
 518 0008 7B60     		str	r3, [r7, #4]
 439:..\..\..\..\..\..\Software\uCOS-III\Source/os_core.c **** 
 440:..\..\..\..\..\..\Software\uCOS-III\Source/os_core.c **** 
ARM GAS  C:\Users\ADMINI~1\AppData\Local\Temp\cczjWrOu.s 			page 18


 441:..\..\..\..\..\..\Software\uCOS-III\Source/os_core.c **** #if (OS_CFG_INVALID_OS_CALLS_CHK_EN == DEF_ENABLED)             /* Can't schedule when the kernel i
 442:..\..\..\..\..\..\Software\uCOS-III\Source/os_core.c ****     if (OSRunning != OS_STATE_OS_RUNNING) {
 443:..\..\..\..\..\..\Software\uCOS-III\Source/os_core.c ****         return;
 444:..\..\..\..\..\..\Software\uCOS-III\Source/os_core.c ****     }
 445:..\..\..\..\..\..\Software\uCOS-III\Source/os_core.c **** #endif
 446:..\..\..\..\..\..\Software\uCOS-III\Source/os_core.c **** 
 447:..\..\..\..\..\..\Software\uCOS-III\Source/os_core.c ****     if (OSIntNestingCtr > 0u) {                                 /* ISRs still nested?              
 519              		.loc 1 447 0
 520 000a 214B     		ldr	r3, .L47
 521 000c 1B78     		ldrb	r3, [r3]
 522 000e 002B     		cmp	r3, #0
 523 0010 38D1     		bne	.L45
 448:..\..\..\..\..\..\Software\uCOS-III\Source/os_core.c ****         return;                                                 /* Yes ... only schedule when no ne
 449:..\..\..\..\..\..\Software\uCOS-III\Source/os_core.c ****     }
 450:..\..\..\..\..\..\Software\uCOS-III\Source/os_core.c **** 
 451:..\..\..\..\..\..\Software\uCOS-III\Source/os_core.c ****     if (OSSchedLockNestingCtr > 0u) {                           /* Scheduler locked?               
 524              		.loc 1 451 0
 525 0012 204B     		ldr	r3, .L47+4
 526 0014 1B78     		ldrb	r3, [r3]
 527 0016 002B     		cmp	r3, #0
 528 0018 36D1     		bne	.L46
 452:..\..\..\..\..\..\Software\uCOS-III\Source/os_core.c ****         return;                                                 /* Yes                             
 453:..\..\..\..\..\..\Software\uCOS-III\Source/os_core.c ****     }
 454:..\..\..\..\..\..\Software\uCOS-III\Source/os_core.c **** 
 455:..\..\..\..\..\..\Software\uCOS-III\Source/os_core.c ****     CPU_INT_DIS();
 529              		.loc 1 455 0
 530 001a FFF7FEFF 		bl	CPU_SR_Save
 531 001e 0300     		movs	r3, r0
 532 0020 7B60     		str	r3, [r7, #4]
 456:..\..\..\..\..\..\Software\uCOS-III\Source/os_core.c ****     OSPrioHighRdy   = OS_PrioGetHighest();                      /* Find the highest priority ready 
 533              		.loc 1 456 0
 534 0022 FFF7FEFF 		bl	OS_PrioGetHighest
 535 0026 0300     		movs	r3, r0
 536 0028 1A00     		movs	r2, r3
 537 002a 1B4B     		ldr	r3, .L47+8
 538 002c 1A70     		strb	r2, [r3]
 457:..\..\..\..\..\..\Software\uCOS-III\Source/os_core.c **** #if (OS_CFG_TASK_IDLE_EN == DEF_ENABLED)
 458:..\..\..\..\..\..\Software\uCOS-III\Source/os_core.c ****     OSTCBHighRdyPtr = OSRdyList[OSPrioHighRdy].HeadPtr;         /* Get highest priority task ready-
 539              		.loc 1 458 0
 540 002e 1A4B     		ldr	r3, .L47+8
 541 0030 1B78     		ldrb	r3, [r3]
 542 0032 1900     		movs	r1, r3
 543 0034 194A     		ldr	r2, .L47+12
 544 0036 0B00     		movs	r3, r1
 545 0038 5B00     		lsls	r3, r3, #1
 546 003a 5B18     		adds	r3, r3, r1
 547 003c 9B00     		lsls	r3, r3, #2
 548 003e 9A58     		ldr	r2, [r3, r2]
 549 0040 174B     		ldr	r3, .L47+16
 550 0042 1A60     		str	r2, [r3]
 459:..\..\..\..\..\..\Software\uCOS-III\Source/os_core.c ****     if (OSTCBHighRdyPtr == OSTCBCurPtr) {                       /* Current task still the highest p
 551              		.loc 1 459 0
 552 0044 164B     		ldr	r3, .L47+16
 553 0046 1A68     		ldr	r2, [r3]
 554 0048 164B     		ldr	r3, .L47+20
 555 004a 1B68     		ldr	r3, [r3]
 556 004c 9A42     		cmp	r2, r3
ARM GAS  C:\Users\ADMINI~1\AppData\Local\Temp\cczjWrOu.s 			page 19


 557 004e 04D1     		bne	.L44
 460:..\..\..\..\..\..\Software\uCOS-III\Source/os_core.c ****         CPU_INT_EN();                                           /* Yes                             
 558              		.loc 1 460 0
 559 0050 7B68     		ldr	r3, [r7, #4]
 560 0052 1800     		movs	r0, r3
 561 0054 FFF7FEFF 		bl	CPU_SR_Restore
 461:..\..\..\..\..\..\Software\uCOS-III\Source/os_core.c ****         return;
 562              		.loc 1 461 0
 563 0058 17E0     		b	.L40
 564              	.L44:
 462:..\..\..\..\..\..\Software\uCOS-III\Source/os_core.c ****     }
 463:..\..\..\..\..\..\Software\uCOS-III\Source/os_core.c **** #else
 464:..\..\..\..\..\..\Software\uCOS-III\Source/os_core.c ****     if (OSPrioHighRdy != (OS_CFG_PRIO_MAX - 1u)) {              /* Are we returning to idle?       
 465:..\..\..\..\..\..\Software\uCOS-III\Source/os_core.c ****         OSTCBHighRdyPtr = OSRdyList[OSPrioHighRdy].HeadPtr;     /* No ... get highest priority task
 466:..\..\..\..\..\..\Software\uCOS-III\Source/os_core.c ****         if (OSTCBHighRdyPtr == OSTCBCurPtr) {                   /* Current task still the highest p
 467:..\..\..\..\..\..\Software\uCOS-III\Source/os_core.c ****             CPU_INT_EN();                                       /* Yes                             
 468:..\..\..\..\..\..\Software\uCOS-III\Source/os_core.c ****             return;
 469:..\..\..\..\..\..\Software\uCOS-III\Source/os_core.c ****         }
 470:..\..\..\..\..\..\Software\uCOS-III\Source/os_core.c ****     }
 471:..\..\..\..\..\..\Software\uCOS-III\Source/os_core.c **** #endif
 472:..\..\..\..\..\..\Software\uCOS-III\Source/os_core.c **** 
 473:..\..\..\..\..\..\Software\uCOS-III\Source/os_core.c **** 
 474:..\..\..\..\..\..\Software\uCOS-III\Source/os_core.c **** #if (OS_CFG_TASK_PROFILE_EN == DEF_ENABLED)
 475:..\..\..\..\..\..\Software\uCOS-III\Source/os_core.c ****     OSTCBHighRdyPtr->CtxSwCtr++;                                /* Inc. # of context switches to th
 565              		.loc 1 475 0
 566 005a 114B     		ldr	r3, .L47+16
 567 005c 1B68     		ldr	r3, [r3]
 568 005e 8C22     		movs	r2, #140
 569 0060 9A58     		ldr	r2, [r3, r2]
 570 0062 0132     		adds	r2, r2, #1
 571 0064 8C21     		movs	r1, #140
 572 0066 5A50     		str	r2, [r3, r1]
 476:..\..\..\..\..\..\Software\uCOS-III\Source/os_core.c **** #endif
 477:..\..\..\..\..\..\Software\uCOS-III\Source/os_core.c **** 
 478:..\..\..\..\..\..\Software\uCOS-III\Source/os_core.c **** #if ((OS_CFG_TASK_PROFILE_EN == DEF_ENABLED) || (OS_CFG_DBG_EN == DEF_ENABLED))
 479:..\..\..\..\..\..\Software\uCOS-III\Source/os_core.c ****     OSTaskCtxSwCtr++;                                           /* Increment context switch counter
 573              		.loc 1 479 0
 574 0068 0F4B     		ldr	r3, .L47+24
 575 006a 1B68     		ldr	r3, [r3]
 576 006c 5A1C     		adds	r2, r3, #1
 577 006e 0E4B     		ldr	r3, .L47+24
 578 0070 1A60     		str	r2, [r3]
 480:..\..\..\..\..\..\Software\uCOS-III\Source/os_core.c **** #endif
 481:..\..\..\..\..\..\Software\uCOS-III\Source/os_core.c **** 
 482:..\..\..\..\..\..\Software\uCOS-III\Source/os_core.c **** #if defined(OS_CFG_TLS_TBL_SIZE) && (OS_CFG_TLS_TBL_SIZE > 0u)
 483:..\..\..\..\..\..\Software\uCOS-III\Source/os_core.c ****     OS_TLS_TaskSw();
 484:..\..\..\..\..\..\Software\uCOS-III\Source/os_core.c **** #endif
 485:..\..\..\..\..\..\Software\uCOS-III\Source/os_core.c **** 
 486:..\..\..\..\..\..\Software\uCOS-III\Source/os_core.c **** #if (OS_CFG_TASK_IDLE_EN == DEF_ENABLED)
 487:..\..\..\..\..\..\Software\uCOS-III\Source/os_core.c ****     OS_TASK_SW();                                               /* Perform a task level context swi
 579              		.loc 1 487 0
 580 0072 FFF7FEFF 		bl	OSCtxSw
 488:..\..\..\..\..\..\Software\uCOS-III\Source/os_core.c ****     CPU_INT_EN();
 581              		.loc 1 488 0
 582 0076 7B68     		ldr	r3, [r7, #4]
 583 0078 1800     		movs	r0, r3
 584 007a FFF7FEFF 		bl	CPU_SR_Restore
ARM GAS  C:\Users\ADMINI~1\AppData\Local\Temp\cczjWrOu.s 			page 20


 489:..\..\..\..\..\..\Software\uCOS-III\Source/os_core.c **** #else
 490:..\..\..\..\..\..\Software\uCOS-III\Source/os_core.c ****     if ((OSPrioHighRdy != (OS_CFG_PRIO_MAX - 1u))) {
 491:..\..\..\..\..\..\Software\uCOS-III\Source/os_core.c ****         OS_TASK_SW();                                           /* Perform a task level context swi
 492:..\..\..\..\..\..\Software\uCOS-III\Source/os_core.c ****         CPU_INT_EN();
 493:..\..\..\..\..\..\Software\uCOS-III\Source/os_core.c ****     } else {
 494:..\..\..\..\..\..\Software\uCOS-III\Source/os_core.c ****         OSTCBHighRdyPtr = OSTCBCurPtr;
 495:..\..\..\..\..\..\Software\uCOS-III\Source/os_core.c ****         CPU_INT_EN();
 496:..\..\..\..\..\..\Software\uCOS-III\Source/os_core.c ****         while (DEF_ON) {
 497:..\..\..\..\..\..\Software\uCOS-III\Source/os_core.c **** #if ((OS_CFG_DBG_EN == DEF_ENABLED) || (OS_CFG_STAT_TASK_EN == DEF_ENABLED))
 498:..\..\..\..\..\..\Software\uCOS-III\Source/os_core.c ****             CPU_CRITICAL_ENTER();
 499:..\..\..\..\..\..\Software\uCOS-III\Source/os_core.c **** #if (OS_CFG_DBG_EN == DEF_ENABLED)
 500:..\..\..\..\..\..\Software\uCOS-III\Source/os_core.c ****             OSIdleTaskCtr++;
 501:..\..\..\..\..\..\Software\uCOS-III\Source/os_core.c **** #endif
 502:..\..\..\..\..\..\Software\uCOS-III\Source/os_core.c **** #if (OS_CFG_STAT_TASK_EN == DEF_ENABLED)
 503:..\..\..\..\..\..\Software\uCOS-III\Source/os_core.c ****             OSStatTaskCtr++;
 504:..\..\..\..\..\..\Software\uCOS-III\Source/os_core.c **** #endif
 505:..\..\..\..\..\..\Software\uCOS-III\Source/os_core.c ****             CPU_CRITICAL_EXIT();
 506:..\..\..\..\..\..\Software\uCOS-III\Source/os_core.c **** #endif
 507:..\..\..\..\..\..\Software\uCOS-III\Source/os_core.c **** 
 508:..\..\..\..\..\..\Software\uCOS-III\Source/os_core.c **** #if (OS_CFG_APP_HOOKS_EN == DEF_ENABLED)
 509:..\..\..\..\..\..\Software\uCOS-III\Source/os_core.c ****             OSIdleTaskHook();                                   /* Call user definable HOOK        
 510:..\..\..\..\..\..\Software\uCOS-III\Source/os_core.c **** #endif
 511:..\..\..\..\..\..\Software\uCOS-III\Source/os_core.c ****             if ((*((volatile OS_PRIO *)&OSPrioHighRdy) != (OS_CFG_PRIO_MAX - 1u))) {
 512:..\..\..\..\..\..\Software\uCOS-III\Source/os_core.c ****                 break;
 513:..\..\..\..\..\..\Software\uCOS-III\Source/os_core.c ****             }
 514:..\..\..\..\..\..\Software\uCOS-III\Source/os_core.c ****         }
 515:..\..\..\..\..\..\Software\uCOS-III\Source/os_core.c ****     }
 516:..\..\..\..\..\..\Software\uCOS-III\Source/os_core.c **** #endif
 517:..\..\..\..\..\..\Software\uCOS-III\Source/os_core.c **** 
 518:..\..\..\..\..\..\Software\uCOS-III\Source/os_core.c **** #ifdef OS_TASK_SW_SYNC
 519:..\..\..\..\..\..\Software\uCOS-III\Source/os_core.c ****     OS_TASK_SW_SYNC();
 585              		.loc 1 519 0
 586              		.syntax divided
 587              	@ 519 "..\..\..\..\..\..\Software\uCOS-III\Source\os_core.c" 1
 588 007e BFF36F8F 		isb
 589              	@ 0 "" 2
 590              		.thumb
 591              		.syntax unified
 592 0082 02E0     		b	.L40
 593              	.L45:
 448:..\..\..\..\..\..\Software\uCOS-III\Source/os_core.c ****     }
 594              		.loc 1 448 0
 595 0084 C046     		nop
 596 0086 00E0     		b	.L40
 597              	.L46:
 452:..\..\..\..\..\..\Software\uCOS-III\Source/os_core.c ****     }
 598              		.loc 1 452 0
 599 0088 C046     		nop
 600              	.L40:
 520:..\..\..\..\..\..\Software\uCOS-III\Source/os_core.c **** #endif
 521:..\..\..\..\..\..\Software\uCOS-III\Source/os_core.c **** }
 601              		.loc 1 521 0
 602 008a BD46     		mov	sp, r7
 603 008c 02B0     		add	sp, sp, #8
 604              		@ sp needed
 605 008e 80BD     		pop	{r7, pc}
 606              	.L48:
ARM GAS  C:\Users\ADMINI~1\AppData\Local\Temp\cczjWrOu.s 			page 21


 607              		.align	2
 608              	.L47:
 609 0090 00000000 		.word	OSIntNestingCtr
 610 0094 00000000 		.word	OSSchedLockNestingCtr
 611 0098 00000000 		.word	OSPrioHighRdy
 612 009c 00000000 		.word	OSRdyList
 613 00a0 00000000 		.word	OSTCBHighRdyPtr
 614 00a4 00000000 		.word	OSTCBCurPtr
 615 00a8 00000000 		.word	OSTaskCtxSwCtr
 616              		.cfi_endproc
 617              	.LFE3:
 618              		.size	OSSched, .-OSSched
 619              		.section	.text.OSSchedLock,"ax",%progbits
 620              		.align	2
 621              		.global	OSSchedLock
 622              		.code	16
 623              		.thumb_func
 624              		.type	OSSchedLock, %function
 625              	OSSchedLock:
 626              	.LFB4:
 522:..\..\..\..\..\..\Software\uCOS-III\Source/os_core.c **** 
 523:..\..\..\..\..\..\Software\uCOS-III\Source/os_core.c **** 
 524:..\..\..\..\..\..\Software\uCOS-III\Source/os_core.c **** /*
 525:..\..\..\..\..\..\Software\uCOS-III\Source/os_core.c **** ***************************************************************************************************
 526:..\..\..\..\..\..\Software\uCOS-III\Source/os_core.c **** *                                                 PREVENT SCHEDULING
 527:..\..\..\..\..\..\Software\uCOS-III\Source/os_core.c **** *
 528:..\..\..\..\..\..\Software\uCOS-III\Source/os_core.c **** * Description: This function is used to prevent rescheduling from taking place.  This allows your a
 529:..\..\..\..\..\..\Software\uCOS-III\Source/os_core.c **** *              context switches until you are ready to permit context switching.
 530:..\..\..\..\..\..\Software\uCOS-III\Source/os_core.c **** *
 531:..\..\..\..\..\..\Software\uCOS-III\Source/os_core.c **** * Arguments  : p_err     is a pointer to a variable that will receive an error code:
 532:..\..\..\..\..\..\Software\uCOS-III\Source/os_core.c **** *
 533:..\..\..\..\..\..\Software\uCOS-III\Source/os_core.c **** *                            OS_ERR_NONE                 The scheduler is locked
 534:..\..\..\..\..\..\Software\uCOS-III\Source/os_core.c **** *                            OS_ERR_LOCK_NESTING_OVF     If you attempted to nest call to this func
 535:..\..\..\..\..\..\Software\uCOS-III\Source/os_core.c **** *                            OS_ERR_OS_NOT_RUNNING       If uC/OS-III is not running yet
 536:..\..\..\..\..\..\Software\uCOS-III\Source/os_core.c **** *                            OS_ERR_SCHED_LOCK_ISR       If you called this function from an ISR
 537:..\..\..\..\..\..\Software\uCOS-III\Source/os_core.c **** *
 538:..\..\..\..\..\..\Software\uCOS-III\Source/os_core.c **** * Returns    : none
 539:..\..\..\..\..\..\Software\uCOS-III\Source/os_core.c **** *
 540:..\..\..\..\..\..\Software\uCOS-III\Source/os_core.c **** * Note(s)    : 1) You MUST invoke OSSchedLock() and OSSchedUnlock() in pair.  In other words, for e
 541:..\..\..\..\..\..\Software\uCOS-III\Source/os_core.c **** *                 call to OSSchedLock() you MUST have a call to OSSchedUnlock().
 542:..\..\..\..\..\..\Software\uCOS-III\Source/os_core.c **** ***************************************************************************************************
 543:..\..\..\..\..\..\Software\uCOS-III\Source/os_core.c **** */
 544:..\..\..\..\..\..\Software\uCOS-III\Source/os_core.c **** 
 545:..\..\..\..\..\..\Software\uCOS-III\Source/os_core.c **** void  OSSchedLock (OS_ERR  *p_err)
 546:..\..\..\..\..\..\Software\uCOS-III\Source/os_core.c **** {
 627              		.loc 1 546 0
 628              		.cfi_startproc
 629              		@ args = 0, pretend = 0, frame = 16
 630              		@ frame_needed = 1, uses_anonymous_args = 0
 631 0000 80B5     		push	{r7, lr}
 632              		.cfi_def_cfa_offset 8
 633              		.cfi_offset 7, -8
 634              		.cfi_offset 14, -4
 635 0002 84B0     		sub	sp, sp, #16
 636              		.cfi_def_cfa_offset 24
 637 0004 00AF     		add	r7, sp, #0
 638              		.cfi_def_cfa_register 7
ARM GAS  C:\Users\ADMINI~1\AppData\Local\Temp\cczjWrOu.s 			page 22


 639 0006 7860     		str	r0, [r7, #4]
 547:..\..\..\..\..\..\Software\uCOS-III\Source/os_core.c ****     CPU_SR_ALLOC();
 640              		.loc 1 547 0
 641 0008 0023     		movs	r3, #0
 642 000a FB60     		str	r3, [r7, #12]
 548:..\..\..\..\..\..\Software\uCOS-III\Source/os_core.c **** 
 549:..\..\..\..\..\..\Software\uCOS-III\Source/os_core.c **** 
 550:..\..\..\..\..\..\Software\uCOS-III\Source/os_core.c **** 
 551:..\..\..\..\..\..\Software\uCOS-III\Source/os_core.c **** #ifdef OS_SAFETY_CRITICAL
 552:..\..\..\..\..\..\Software\uCOS-III\Source/os_core.c ****     if (p_err == DEF_NULL) {
 553:..\..\..\..\..\..\Software\uCOS-III\Source/os_core.c ****         OS_SAFETY_CRITICAL_EXCEPTION();
 554:..\..\..\..\..\..\Software\uCOS-III\Source/os_core.c ****         return;
 555:..\..\..\..\..\..\Software\uCOS-III\Source/os_core.c ****     }
 556:..\..\..\..\..\..\Software\uCOS-III\Source/os_core.c **** #endif
 557:..\..\..\..\..\..\Software\uCOS-III\Source/os_core.c **** 
 558:..\..\..\..\..\..\Software\uCOS-III\Source/os_core.c **** #if (OS_CFG_CALLED_FROM_ISR_CHK_EN == DEF_ENABLED)
 559:..\..\..\..\..\..\Software\uCOS-III\Source/os_core.c ****     if (OSIntNestingCtr > 0u) {                                 /* Not allowed to call from an ISR 
 643              		.loc 1 559 0
 644 000c 184B     		ldr	r3, .L54
 645 000e 1B78     		ldrb	r3, [r3]
 646 0010 002B     		cmp	r3, #0
 647 0012 03D0     		beq	.L50
 560:..\..\..\..\..\..\Software\uCOS-III\Source/os_core.c ****        *p_err = OS_ERR_SCHED_LOCK_ISR;
 648              		.loc 1 560 0
 649 0014 7B68     		ldr	r3, [r7, #4]
 650 0016 174A     		ldr	r2, .L54+4
 651 0018 1A80     		strh	r2, [r3]
 561:..\..\..\..\..\..\Software\uCOS-III\Source/os_core.c ****         return;
 652              		.loc 1 561 0
 653 001a 26E0     		b	.L49
 654              	.L50:
 562:..\..\..\..\..\..\Software\uCOS-III\Source/os_core.c ****     }
 563:..\..\..\..\..\..\Software\uCOS-III\Source/os_core.c **** #endif
 564:..\..\..\..\..\..\Software\uCOS-III\Source/os_core.c **** 
 565:..\..\..\..\..\..\Software\uCOS-III\Source/os_core.c ****     if (OSRunning != OS_STATE_OS_RUNNING) {                     /* Make sure multitasking is runnin
 655              		.loc 1 565 0
 656 001c 164B     		ldr	r3, .L54+8
 657 001e 1B78     		ldrb	r3, [r3]
 658 0020 012B     		cmp	r3, #1
 659 0022 03D0     		beq	.L52
 566:..\..\..\..\..\..\Software\uCOS-III\Source/os_core.c ****        *p_err = OS_ERR_OS_NOT_RUNNING;
 660              		.loc 1 566 0
 661 0024 7B68     		ldr	r3, [r7, #4]
 662 0026 154A     		ldr	r2, .L54+12
 663 0028 1A80     		strh	r2, [r3]
 567:..\..\..\..\..\..\Software\uCOS-III\Source/os_core.c ****         return;
 664              		.loc 1 567 0
 665 002a 1EE0     		b	.L49
 666              	.L52:
 568:..\..\..\..\..\..\Software\uCOS-III\Source/os_core.c ****     }
 569:..\..\..\..\..\..\Software\uCOS-III\Source/os_core.c **** 
 570:..\..\..\..\..\..\Software\uCOS-III\Source/os_core.c ****     if (OSSchedLockNestingCtr >= 250u) {                        /* Prevent OSSchedLockNestingCtr ov
 667              		.loc 1 570 0
 668 002c 144B     		ldr	r3, .L54+16
 669 002e 1B78     		ldrb	r3, [r3]
 670 0030 F92B     		cmp	r3, #249
 671 0032 03D9     		bls	.L53
ARM GAS  C:\Users\ADMINI~1\AppData\Local\Temp\cczjWrOu.s 			page 23


 571:..\..\..\..\..\..\Software\uCOS-III\Source/os_core.c ****        *p_err = OS_ERR_LOCK_NESTING_OVF;
 672              		.loc 1 571 0
 673 0034 7B68     		ldr	r3, [r7, #4]
 674 0036 134A     		ldr	r2, .L54+20
 675 0038 1A80     		strh	r2, [r3]
 572:..\..\..\..\..\..\Software\uCOS-III\Source/os_core.c ****         return;
 676              		.loc 1 572 0
 677 003a 16E0     		b	.L49
 678              	.L53:
 573:..\..\..\..\..\..\Software\uCOS-III\Source/os_core.c ****     }
 574:..\..\..\..\..\..\Software\uCOS-III\Source/os_core.c **** 
 575:..\..\..\..\..\..\Software\uCOS-III\Source/os_core.c ****     CPU_CRITICAL_ENTER();
 679              		.loc 1 575 0
 680 003c FFF7FEFF 		bl	CPU_SR_Save
 681 0040 0300     		movs	r3, r0
 682 0042 FB60     		str	r3, [r7, #12]
 683 0044 FFF7FEFF 		bl	CPU_IntDisMeasStart
 576:..\..\..\..\..\..\Software\uCOS-III\Source/os_core.c ****     OSSchedLockNestingCtr++;                                    /* Increment lock nesting level    
 684              		.loc 1 576 0
 685 0048 0D4B     		ldr	r3, .L54+16
 686 004a 1B78     		ldrb	r3, [r3]
 687 004c 0133     		adds	r3, r3, #1
 688 004e DAB2     		uxtb	r2, r3
 689 0050 0B4B     		ldr	r3, .L54+16
 690 0052 1A70     		strb	r2, [r3]
 577:..\..\..\..\..\..\Software\uCOS-III\Source/os_core.c **** #if (OS_CFG_SCHED_LOCK_TIME_MEAS_EN == DEF_ENABLED)
 578:..\..\..\..\..\..\Software\uCOS-III\Source/os_core.c ****     OS_SchedLockTimeMeasStart();
 691              		.loc 1 578 0
 692 0054 FFF7FEFF 		bl	OS_SchedLockTimeMeasStart
 579:..\..\..\..\..\..\Software\uCOS-III\Source/os_core.c **** #endif
 580:..\..\..\..\..\..\Software\uCOS-III\Source/os_core.c ****     CPU_CRITICAL_EXIT();
 693              		.loc 1 580 0
 694 0058 FFF7FEFF 		bl	CPU_IntDisMeasStop
 695 005c FB68     		ldr	r3, [r7, #12]
 696 005e 1800     		movs	r0, r3
 697 0060 FFF7FEFF 		bl	CPU_SR_Restore
 581:..\..\..\..\..\..\Software\uCOS-III\Source/os_core.c ****    *p_err = OS_ERR_NONE;
 698              		.loc 1 581 0
 699 0064 7B68     		ldr	r3, [r7, #4]
 700 0066 0022     		movs	r2, #0
 701 0068 1A80     		strh	r2, [r3]
 702              	.L49:
 582:..\..\..\..\..\..\Software\uCOS-III\Source/os_core.c **** }
 703              		.loc 1 582 0
 704 006a BD46     		mov	sp, r7
 705 006c 04B0     		add	sp, sp, #16
 706              		@ sp needed
 707 006e 80BD     		pop	{r7, pc}
 708              	.L55:
 709              		.align	2
 710              	.L54:
 711 0070 00000000 		.word	OSIntNestingCtr
 712 0074 626D0000 		.word	28002
 713 0078 00000000 		.word	OSRunning
 714 007c 895E0000 		.word	24201
 715 0080 00000000 		.word	OSSchedLockNestingCtr
 716 0084 09520000 		.word	21001
ARM GAS  C:\Users\ADMINI~1\AppData\Local\Temp\cczjWrOu.s 			page 24


 717              		.cfi_endproc
 718              	.LFE4:
 719              		.size	OSSchedLock, .-OSSchedLock
 720              		.section	.text.OSSchedUnlock,"ax",%progbits
 721              		.align	2
 722              		.global	OSSchedUnlock
 723              		.code	16
 724              		.thumb_func
 725              		.type	OSSchedUnlock, %function
 726              	OSSchedUnlock:
 727              	.LFB5:
 583:..\..\..\..\..\..\Software\uCOS-III\Source/os_core.c **** 
 584:..\..\..\..\..\..\Software\uCOS-III\Source/os_core.c **** 
 585:..\..\..\..\..\..\Software\uCOS-III\Source/os_core.c **** /*
 586:..\..\..\..\..\..\Software\uCOS-III\Source/os_core.c **** ***************************************************************************************************
 587:..\..\..\..\..\..\Software\uCOS-III\Source/os_core.c **** *                                                  ENABLE SCHEDULING
 588:..\..\..\..\..\..\Software\uCOS-III\Source/os_core.c **** *
 589:..\..\..\..\..\..\Software\uCOS-III\Source/os_core.c **** * Description: This function is used to re-allow rescheduling.
 590:..\..\..\..\..\..\Software\uCOS-III\Source/os_core.c **** *
 591:..\..\..\..\..\..\Software\uCOS-III\Source/os_core.c **** * Arguments  : p_err     is a pointer to a variable that will contain an error code returned by thi
 592:..\..\..\..\..\..\Software\uCOS-III\Source/os_core.c **** *
 593:..\..\..\..\..\..\Software\uCOS-III\Source/os_core.c **** *                            OS_ERR_NONE                 The scheduler has been enabled
 594:..\..\..\..\..\..\Software\uCOS-III\Source/os_core.c **** *                            OS_ERR_OS_NOT_RUNNING       If uC/OS-III is not running yet
 595:..\..\..\..\..\..\Software\uCOS-III\Source/os_core.c **** *                            OS_ERR_SCHED_LOCKED         The scheduler is still locked, still neste
 596:..\..\..\..\..\..\Software\uCOS-III\Source/os_core.c **** *                            OS_ERR_SCHED_NOT_LOCKED     The scheduler was not locked
 597:..\..\..\..\..\..\Software\uCOS-III\Source/os_core.c **** *                            OS_ERR_SCHED_UNLOCK_ISR     If you called this function from an ISR
 598:..\..\..\..\..\..\Software\uCOS-III\Source/os_core.c **** *
 599:..\..\..\..\..\..\Software\uCOS-III\Source/os_core.c **** * Returns    : none
 600:..\..\..\..\..\..\Software\uCOS-III\Source/os_core.c **** *
 601:..\..\..\..\..\..\Software\uCOS-III\Source/os_core.c **** * Note(s)    : 1) You MUST invoke OSSchedLock() and OSSchedUnlock() in pair.  In other words, for e
 602:..\..\..\..\..\..\Software\uCOS-III\Source/os_core.c **** *                 OSSchedLock() you MUST have a call to OSSchedUnlock().
 603:..\..\..\..\..\..\Software\uCOS-III\Source/os_core.c **** ***************************************************************************************************
 604:..\..\..\..\..\..\Software\uCOS-III\Source/os_core.c **** */
 605:..\..\..\..\..\..\Software\uCOS-III\Source/os_core.c **** 
 606:..\..\..\..\..\..\Software\uCOS-III\Source/os_core.c **** void  OSSchedUnlock (OS_ERR  *p_err)
 607:..\..\..\..\..\..\Software\uCOS-III\Source/os_core.c **** {
 728              		.loc 1 607 0
 729              		.cfi_startproc
 730              		@ args = 0, pretend = 0, frame = 16
 731              		@ frame_needed = 1, uses_anonymous_args = 0
 732 0000 80B5     		push	{r7, lr}
 733              		.cfi_def_cfa_offset 8
 734              		.cfi_offset 7, -8
 735              		.cfi_offset 14, -4
 736 0002 84B0     		sub	sp, sp, #16
 737              		.cfi_def_cfa_offset 24
 738 0004 00AF     		add	r7, sp, #0
 739              		.cfi_def_cfa_register 7
 740 0006 7860     		str	r0, [r7, #4]
 608:..\..\..\..\..\..\Software\uCOS-III\Source/os_core.c ****     CPU_SR_ALLOC();
 741              		.loc 1 608 0
 742 0008 0023     		movs	r3, #0
 743 000a FB60     		str	r3, [r7, #12]
 609:..\..\..\..\..\..\Software\uCOS-III\Source/os_core.c **** 
 610:..\..\..\..\..\..\Software\uCOS-III\Source/os_core.c **** 
 611:..\..\..\..\..\..\Software\uCOS-III\Source/os_core.c **** 
 612:..\..\..\..\..\..\Software\uCOS-III\Source/os_core.c **** #ifdef OS_SAFETY_CRITICAL
ARM GAS  C:\Users\ADMINI~1\AppData\Local\Temp\cczjWrOu.s 			page 25


 613:..\..\..\..\..\..\Software\uCOS-III\Source/os_core.c ****     if (p_err == DEF_NULL) {
 614:..\..\..\..\..\..\Software\uCOS-III\Source/os_core.c ****         OS_SAFETY_CRITICAL_EXCEPTION();
 615:..\..\..\..\..\..\Software\uCOS-III\Source/os_core.c ****         return;
 616:..\..\..\..\..\..\Software\uCOS-III\Source/os_core.c ****     }
 617:..\..\..\..\..\..\Software\uCOS-III\Source/os_core.c **** #endif
 618:..\..\..\..\..\..\Software\uCOS-III\Source/os_core.c **** 
 619:..\..\..\..\..\..\Software\uCOS-III\Source/os_core.c **** #if (OS_CFG_CALLED_FROM_ISR_CHK_EN == DEF_ENABLED)
 620:..\..\..\..\..\..\Software\uCOS-III\Source/os_core.c ****     if (OSIntNestingCtr > 0u) {                                 /* Not allowed to call from an ISR 
 744              		.loc 1 620 0
 745 000c 204B     		ldr	r3, .L62
 746 000e 1B78     		ldrb	r3, [r3]
 747 0010 002B     		cmp	r3, #0
 748 0012 03D0     		beq	.L57
 621:..\..\..\..\..\..\Software\uCOS-III\Source/os_core.c ****        *p_err = OS_ERR_SCHED_UNLOCK_ISR;
 749              		.loc 1 621 0
 750 0014 7B68     		ldr	r3, [r7, #4]
 751 0016 1F4A     		ldr	r2, .L62+4
 752 0018 1A80     		strh	r2, [r3]
 622:..\..\..\..\..\..\Software\uCOS-III\Source/os_core.c ****         return;
 753              		.loc 1 622 0
 754 001a 36E0     		b	.L56
 755              	.L57:
 623:..\..\..\..\..\..\Software\uCOS-III\Source/os_core.c ****     }
 624:..\..\..\..\..\..\Software\uCOS-III\Source/os_core.c **** #endif
 625:..\..\..\..\..\..\Software\uCOS-III\Source/os_core.c **** 
 626:..\..\..\..\..\..\Software\uCOS-III\Source/os_core.c ****     if (OSRunning != OS_STATE_OS_RUNNING) {                     /* Make sure multitasking is runnin
 756              		.loc 1 626 0
 757 001c 1E4B     		ldr	r3, .L62+8
 758 001e 1B78     		ldrb	r3, [r3]
 759 0020 012B     		cmp	r3, #1
 760 0022 03D0     		beq	.L59
 627:..\..\..\..\..\..\Software\uCOS-III\Source/os_core.c ****        *p_err = OS_ERR_OS_NOT_RUNNING;
 761              		.loc 1 627 0
 762 0024 7B68     		ldr	r3, [r7, #4]
 763 0026 1D4A     		ldr	r2, .L62+12
 764 0028 1A80     		strh	r2, [r3]
 628:..\..\..\..\..\..\Software\uCOS-III\Source/os_core.c ****         return;
 765              		.loc 1 628 0
 766 002a 2EE0     		b	.L56
 767              	.L59:
 629:..\..\..\..\..\..\Software\uCOS-III\Source/os_core.c ****     }
 630:..\..\..\..\..\..\Software\uCOS-III\Source/os_core.c **** 
 631:..\..\..\..\..\..\Software\uCOS-III\Source/os_core.c ****     if (OSSchedLockNestingCtr == 0u) {                          /* See if the scheduler is locked  
 768              		.loc 1 631 0
 769 002c 1C4B     		ldr	r3, .L62+16
 770 002e 1B78     		ldrb	r3, [r3]
 771 0030 002B     		cmp	r3, #0
 772 0032 03D1     		bne	.L60
 632:..\..\..\..\..\..\Software\uCOS-III\Source/os_core.c ****        *p_err = OS_ERR_SCHED_NOT_LOCKED;
 773              		.loc 1 632 0
 774 0034 7B68     		ldr	r3, [r7, #4]
 775 0036 1B4A     		ldr	r2, .L62+20
 776 0038 1A80     		strh	r2, [r3]
 633:..\..\..\..\..\..\Software\uCOS-III\Source/os_core.c ****         return;
 777              		.loc 1 633 0
 778 003a 26E0     		b	.L56
 779              	.L60:
ARM GAS  C:\Users\ADMINI~1\AppData\Local\Temp\cczjWrOu.s 			page 26


 634:..\..\..\..\..\..\Software\uCOS-III\Source/os_core.c ****     }
 635:..\..\..\..\..\..\Software\uCOS-III\Source/os_core.c **** 
 636:..\..\..\..\..\..\Software\uCOS-III\Source/os_core.c ****     CPU_CRITICAL_ENTER();
 780              		.loc 1 636 0
 781 003c FFF7FEFF 		bl	CPU_SR_Save
 782 0040 0300     		movs	r3, r0
 783 0042 FB60     		str	r3, [r7, #12]
 784 0044 FFF7FEFF 		bl	CPU_IntDisMeasStart
 637:..\..\..\..\..\..\Software\uCOS-III\Source/os_core.c ****     OSSchedLockNestingCtr--;                                    /* Decrement lock nesting level    
 785              		.loc 1 637 0
 786 0048 154B     		ldr	r3, .L62+16
 787 004a 1B78     		ldrb	r3, [r3]
 788 004c 013B     		subs	r3, r3, #1
 789 004e DAB2     		uxtb	r2, r3
 790 0050 134B     		ldr	r3, .L62+16
 791 0052 1A70     		strb	r2, [r3]
 638:..\..\..\..\..\..\Software\uCOS-III\Source/os_core.c ****     if (OSSchedLockNestingCtr > 0u) {
 792              		.loc 1 638 0
 793 0054 124B     		ldr	r3, .L62+16
 794 0056 1B78     		ldrb	r3, [r3]
 795 0058 002B     		cmp	r3, #0
 796 005a 09D0     		beq	.L61
 639:..\..\..\..\..\..\Software\uCOS-III\Source/os_core.c ****         CPU_CRITICAL_EXIT();                                    /* Scheduler is still locked       
 797              		.loc 1 639 0
 798 005c FFF7FEFF 		bl	CPU_IntDisMeasStop
 799 0060 FB68     		ldr	r3, [r7, #12]
 800 0062 1800     		movs	r0, r3
 801 0064 FFF7FEFF 		bl	CPU_SR_Restore
 640:..\..\..\..\..\..\Software\uCOS-III\Source/os_core.c ****        *p_err = OS_ERR_SCHED_LOCKED;
 802              		.loc 1 640 0
 803 0068 7B68     		ldr	r3, [r7, #4]
 804 006a 0F4A     		ldr	r2, .L62+24
 805 006c 1A80     		strh	r2, [r3]
 641:..\..\..\..\..\..\Software\uCOS-III\Source/os_core.c ****         return;
 806              		.loc 1 641 0
 807 006e 0CE0     		b	.L56
 808              	.L61:
 642:..\..\..\..\..\..\Software\uCOS-III\Source/os_core.c ****     }
 643:..\..\..\..\..\..\Software\uCOS-III\Source/os_core.c **** 
 644:..\..\..\..\..\..\Software\uCOS-III\Source/os_core.c **** #if (OS_CFG_SCHED_LOCK_TIME_MEAS_EN == DEF_ENABLED)
 645:..\..\..\..\..\..\Software\uCOS-III\Source/os_core.c ****     OS_SchedLockTimeMeasStop();
 809              		.loc 1 645 0
 810 0070 FFF7FEFF 		bl	OS_SchedLockTimeMeasStop
 646:..\..\..\..\..\..\Software\uCOS-III\Source/os_core.c **** #endif
 647:..\..\..\..\..\..\Software\uCOS-III\Source/os_core.c **** 
 648:..\..\..\..\..\..\Software\uCOS-III\Source/os_core.c ****     CPU_CRITICAL_EXIT();                                        /* Scheduler should be re-enabled  
 811              		.loc 1 648 0
 812 0074 FFF7FEFF 		bl	CPU_IntDisMeasStop
 813 0078 FB68     		ldr	r3, [r7, #12]
 814 007a 1800     		movs	r0, r3
 815 007c FFF7FEFF 		bl	CPU_SR_Restore
 649:..\..\..\..\..\..\Software\uCOS-III\Source/os_core.c ****     OSSched();                                                  /* Run the scheduler               
 816              		.loc 1 649 0
 817 0080 FFF7FEFF 		bl	OSSched
 650:..\..\..\..\..\..\Software\uCOS-III\Source/os_core.c ****    *p_err = OS_ERR_NONE;
 818              		.loc 1 650 0
 819 0084 7B68     		ldr	r3, [r7, #4]
ARM GAS  C:\Users\ADMINI~1\AppData\Local\Temp\cczjWrOu.s 			page 27


 820 0086 0022     		movs	r2, #0
 821 0088 1A80     		strh	r2, [r3]
 822              	.L56:
 651:..\..\..\..\..\..\Software\uCOS-III\Source/os_core.c **** }
 823              		.loc 1 651 0
 824 008a BD46     		mov	sp, r7
 825 008c 04B0     		add	sp, sp, #16
 826              		@ sp needed
 827 008e 80BD     		pop	{r7, pc}
 828              	.L63:
 829              		.align	2
 830              	.L62:
 831 0090 00000000 		.word	OSIntNestingCtr
 832 0094 656D0000 		.word	28005
 833 0098 00000000 		.word	OSRunning
 834 009c 895E0000 		.word	24201
 835 00a0 00000000 		.word	OSSchedLockNestingCtr
 836 00a4 646D0000 		.word	28004
 837 00a8 636D0000 		.word	28003
 838              		.cfi_endproc
 839              	.LFE5:
 840              		.size	OSSchedUnlock, .-OSSchedUnlock
 841              		.section	.text.OSStart,"ax",%progbits
 842              		.align	2
 843              		.global	OSStart
 844              		.code	16
 845              		.thumb_func
 846              		.type	OSStart, %function
 847              	OSStart:
 848              	.LFB6:
 652:..\..\..\..\..\..\Software\uCOS-III\Source/os_core.c **** 
 653:..\..\..\..\..\..\Software\uCOS-III\Source/os_core.c **** 
 654:..\..\..\..\..\..\Software\uCOS-III\Source/os_core.c **** /*
 655:..\..\..\..\..\..\Software\uCOS-III\Source/os_core.c **** ***************************************************************************************************
 656:..\..\..\..\..\..\Software\uCOS-III\Source/os_core.c **** *                                      CONFIGURE ROUND-ROBIN SCHEDULING PARAMETERS
 657:..\..\..\..\..\..\Software\uCOS-III\Source/os_core.c **** *
 658:..\..\..\..\..\..\Software\uCOS-III\Source/os_core.c **** * Description: This function is called to change the round-robin scheduling parameters.
 659:..\..\..\..\..\..\Software\uCOS-III\Source/os_core.c **** *
 660:..\..\..\..\..\..\Software\uCOS-III\Source/os_core.c **** * Arguments  : en                determines whether round-robin will be enabled (when DEF_EN) or no
 661:..\..\..\..\..\..\Software\uCOS-III\Source/os_core.c **** *
 662:..\..\..\..\..\..\Software\uCOS-III\Source/os_core.c **** *              dflt_time_quanta  default number of ticks between time slices.  0 means assumes OSCf
 663:..\..\..\..\..\..\Software\uCOS-III\Source/os_core.c **** *
 664:..\..\..\..\..\..\Software\uCOS-III\Source/os_core.c **** *              p_err             is a pointer to a variable that will contain an error code returne
 665:..\..\..\..\..\..\Software\uCOS-III\Source/os_core.c **** *
 666:..\..\..\..\..\..\Software\uCOS-III\Source/os_core.c **** *                                    OS_ERR_NONE    The call was successful
 667:..\..\..\..\..\..\Software\uCOS-III\Source/os_core.c **** *
 668:..\..\..\..\..\..\Software\uCOS-III\Source/os_core.c **** * Returns    : none
 669:..\..\..\..\..\..\Software\uCOS-III\Source/os_core.c **** *
 670:..\..\..\..\..\..\Software\uCOS-III\Source/os_core.c **** * Note(s)    :
 671:..\..\..\..\..\..\Software\uCOS-III\Source/os_core.c **** ***************************************************************************************************
 672:..\..\..\..\..\..\Software\uCOS-III\Source/os_core.c **** */
 673:..\..\..\..\..\..\Software\uCOS-III\Source/os_core.c **** 
 674:..\..\..\..\..\..\Software\uCOS-III\Source/os_core.c **** #if (OS_CFG_SCHED_ROUND_ROBIN_EN == DEF_ENABLED)
 675:..\..\..\..\..\..\Software\uCOS-III\Source/os_core.c **** void  OSSchedRoundRobinCfg (CPU_BOOLEAN   en,
 676:..\..\..\..\..\..\Software\uCOS-III\Source/os_core.c ****                             OS_TICK       dflt_time_quanta,
 677:..\..\..\..\..\..\Software\uCOS-III\Source/os_core.c ****                             OS_ERR       *p_err)
 678:..\..\..\..\..\..\Software\uCOS-III\Source/os_core.c **** {
ARM GAS  C:\Users\ADMINI~1\AppData\Local\Temp\cczjWrOu.s 			page 28


 679:..\..\..\..\..\..\Software\uCOS-III\Source/os_core.c ****     CPU_SR_ALLOC();
 680:..\..\..\..\..\..\Software\uCOS-III\Source/os_core.c **** 
 681:..\..\..\..\..\..\Software\uCOS-III\Source/os_core.c **** 
 682:..\..\..\..\..\..\Software\uCOS-III\Source/os_core.c **** 
 683:..\..\..\..\..\..\Software\uCOS-III\Source/os_core.c **** #ifdef OS_SAFETY_CRITICAL
 684:..\..\..\..\..\..\Software\uCOS-III\Source/os_core.c ****     if (p_err == DEF_NULL) {
 685:..\..\..\..\..\..\Software\uCOS-III\Source/os_core.c ****         OS_SAFETY_CRITICAL_EXCEPTION();
 686:..\..\..\..\..\..\Software\uCOS-III\Source/os_core.c ****         return;
 687:..\..\..\..\..\..\Software\uCOS-III\Source/os_core.c ****     }
 688:..\..\..\..\..\..\Software\uCOS-III\Source/os_core.c **** #endif
 689:..\..\..\..\..\..\Software\uCOS-III\Source/os_core.c **** 
 690:..\..\..\..\..\..\Software\uCOS-III\Source/os_core.c ****     CPU_CRITICAL_ENTER();
 691:..\..\..\..\..\..\Software\uCOS-III\Source/os_core.c ****     if (en != DEF_ENABLED) {
 692:..\..\..\..\..\..\Software\uCOS-III\Source/os_core.c ****         OSSchedRoundRobinEn = DEF_FALSE;
 693:..\..\..\..\..\..\Software\uCOS-III\Source/os_core.c ****     } else {
 694:..\..\..\..\..\..\Software\uCOS-III\Source/os_core.c ****         OSSchedRoundRobinEn = DEF_TRUE;
 695:..\..\..\..\..\..\Software\uCOS-III\Source/os_core.c ****     }
 696:..\..\..\..\..\..\Software\uCOS-III\Source/os_core.c **** 
 697:..\..\..\..\..\..\Software\uCOS-III\Source/os_core.c ****     if (dflt_time_quanta > 0u) {
 698:..\..\..\..\..\..\Software\uCOS-III\Source/os_core.c ****         OSSchedRoundRobinDfltTimeQuanta = dflt_time_quanta;
 699:..\..\..\..\..\..\Software\uCOS-III\Source/os_core.c ****     } else {
 700:..\..\..\..\..\..\Software\uCOS-III\Source/os_core.c ****         OSSchedRoundRobinDfltTimeQuanta = (OS_TICK)(OSCfg_TickRate_Hz / 10u);
 701:..\..\..\..\..\..\Software\uCOS-III\Source/os_core.c ****     }
 702:..\..\..\..\..\..\Software\uCOS-III\Source/os_core.c ****     CPU_CRITICAL_EXIT();
 703:..\..\..\..\..\..\Software\uCOS-III\Source/os_core.c ****    *p_err = OS_ERR_NONE;
 704:..\..\..\..\..\..\Software\uCOS-III\Source/os_core.c **** }
 705:..\..\..\..\..\..\Software\uCOS-III\Source/os_core.c **** #endif
 706:..\..\..\..\..\..\Software\uCOS-III\Source/os_core.c **** 
 707:..\..\..\..\..\..\Software\uCOS-III\Source/os_core.c **** 
 708:..\..\..\..\..\..\Software\uCOS-III\Source/os_core.c **** /*
 709:..\..\..\..\..\..\Software\uCOS-III\Source/os_core.c **** ***************************************************************************************************
 710:..\..\..\..\..\..\Software\uCOS-III\Source/os_core.c **** *                                    YIELD CPU WHEN TASK NO LONGER NEEDS THE TIME SLICE
 711:..\..\..\..\..\..\Software\uCOS-III\Source/os_core.c **** *
 712:..\..\..\..\..\..\Software\uCOS-III\Source/os_core.c **** * Description: This function is called to give up the CPU when it is done executing before its time
 713:..\..\..\..\..\..\Software\uCOS-III\Source/os_core.c **** *
 714:..\..\..\..\..\..\Software\uCOS-III\Source/os_core.c **** * Argument(s): p_err      is a pointer to a variable that will contain an error code returned by th
 715:..\..\..\..\..\..\Software\uCOS-III\Source/os_core.c **** *
 716:..\..\..\..\..\..\Software\uCOS-III\Source/os_core.c **** *                             OS_ERR_NONE                   The call was successful
 717:..\..\..\..\..\..\Software\uCOS-III\Source/os_core.c **** *                             OS_ERR_ROUND_ROBIN_1          Only 1 task at this priority, nothing t
 718:..\..\..\..\..\..\Software\uCOS-III\Source/os_core.c **** *                             OS_ERR_ROUND_ROBIN_DISABLED   Round Robin is not enabled
 719:..\..\..\..\..\..\Software\uCOS-III\Source/os_core.c **** *                             OS_ERR_SCHED_LOCKED           The scheduler has been locked
 720:..\..\..\..\..\..\Software\uCOS-III\Source/os_core.c **** *                             OS_ERR_YIELD_ISR              Can't be called from an ISR
 721:..\..\..\..\..\..\Software\uCOS-III\Source/os_core.c **** *
 722:..\..\..\..\..\..\Software\uCOS-III\Source/os_core.c **** * Returns    : none
 723:..\..\..\..\..\..\Software\uCOS-III\Source/os_core.c **** *
 724:..\..\..\..\..\..\Software\uCOS-III\Source/os_core.c **** * Note(s)    : 1) This function MUST be called from a task.
 725:..\..\..\..\..\..\Software\uCOS-III\Source/os_core.c **** ***************************************************************************************************
 726:..\..\..\..\..\..\Software\uCOS-III\Source/os_core.c **** */
 727:..\..\..\..\..\..\Software\uCOS-III\Source/os_core.c **** 
 728:..\..\..\..\..\..\Software\uCOS-III\Source/os_core.c **** #if (OS_CFG_SCHED_ROUND_ROBIN_EN == DEF_ENABLED)
 729:..\..\..\..\..\..\Software\uCOS-III\Source/os_core.c **** void  OSSchedRoundRobinYield (OS_ERR  *p_err)
 730:..\..\..\..\..\..\Software\uCOS-III\Source/os_core.c **** {
 731:..\..\..\..\..\..\Software\uCOS-III\Source/os_core.c ****     OS_RDY_LIST  *p_rdy_list;
 732:..\..\..\..\..\..\Software\uCOS-III\Source/os_core.c ****     OS_TCB       *p_tcb;
 733:..\..\..\..\..\..\Software\uCOS-III\Source/os_core.c ****     CPU_SR_ALLOC();
 734:..\..\..\..\..\..\Software\uCOS-III\Source/os_core.c **** 
 735:..\..\..\..\..\..\Software\uCOS-III\Source/os_core.c **** 
ARM GAS  C:\Users\ADMINI~1\AppData\Local\Temp\cczjWrOu.s 			page 29


 736:..\..\..\..\..\..\Software\uCOS-III\Source/os_core.c **** 
 737:..\..\..\..\..\..\Software\uCOS-III\Source/os_core.c **** #ifdef OS_SAFETY_CRITICAL
 738:..\..\..\..\..\..\Software\uCOS-III\Source/os_core.c ****     if (p_err == DEF_NULL) {
 739:..\..\..\..\..\..\Software\uCOS-III\Source/os_core.c ****         OS_SAFETY_CRITICAL_EXCEPTION();
 740:..\..\..\..\..\..\Software\uCOS-III\Source/os_core.c ****         return;
 741:..\..\..\..\..\..\Software\uCOS-III\Source/os_core.c ****     }
 742:..\..\..\..\..\..\Software\uCOS-III\Source/os_core.c **** #endif
 743:..\..\..\..\..\..\Software\uCOS-III\Source/os_core.c **** 
 744:..\..\..\..\..\..\Software\uCOS-III\Source/os_core.c **** #if (OS_CFG_CALLED_FROM_ISR_CHK_EN == DEF_ENABLED)
 745:..\..\..\..\..\..\Software\uCOS-III\Source/os_core.c ****     if (OSIntNestingCtr > 0u) {                                 /* Can't call this function from an
 746:..\..\..\..\..\..\Software\uCOS-III\Source/os_core.c ****        *p_err = OS_ERR_YIELD_ISR;
 747:..\..\..\..\..\..\Software\uCOS-III\Source/os_core.c ****         return;
 748:..\..\..\..\..\..\Software\uCOS-III\Source/os_core.c ****     }
 749:..\..\..\..\..\..\Software\uCOS-III\Source/os_core.c **** #endif
 750:..\..\..\..\..\..\Software\uCOS-III\Source/os_core.c **** 
 751:..\..\..\..\..\..\Software\uCOS-III\Source/os_core.c ****     if (OSSchedLockNestingCtr > 0u) {                           /* Can't yield if the scheduler is 
 752:..\..\..\..\..\..\Software\uCOS-III\Source/os_core.c ****        *p_err = OS_ERR_SCHED_LOCKED;
 753:..\..\..\..\..\..\Software\uCOS-III\Source/os_core.c ****         return;
 754:..\..\..\..\..\..\Software\uCOS-III\Source/os_core.c ****     }
 755:..\..\..\..\..\..\Software\uCOS-III\Source/os_core.c **** 
 756:..\..\..\..\..\..\Software\uCOS-III\Source/os_core.c ****     if (OSSchedRoundRobinEn != DEF_TRUE) {                      /* Make sure round-robin has been e
 757:..\..\..\..\..\..\Software\uCOS-III\Source/os_core.c ****        *p_err = OS_ERR_ROUND_ROBIN_DISABLED;
 758:..\..\..\..\..\..\Software\uCOS-III\Source/os_core.c ****         return;
 759:..\..\..\..\..\..\Software\uCOS-III\Source/os_core.c ****     }
 760:..\..\..\..\..\..\Software\uCOS-III\Source/os_core.c **** 
 761:..\..\..\..\..\..\Software\uCOS-III\Source/os_core.c ****     CPU_CRITICAL_ENTER();
 762:..\..\..\..\..\..\Software\uCOS-III\Source/os_core.c ****     p_rdy_list = &OSRdyList[OSPrioCur];                         /* Can't yield if it's the only tas
 763:..\..\..\..\..\..\Software\uCOS-III\Source/os_core.c ****     if (p_rdy_list->HeadPtr == p_rdy_list->TailPtr) {
 764:..\..\..\..\..\..\Software\uCOS-III\Source/os_core.c ****         CPU_CRITICAL_EXIT();
 765:..\..\..\..\..\..\Software\uCOS-III\Source/os_core.c ****        *p_err = OS_ERR_ROUND_ROBIN_1;
 766:..\..\..\..\..\..\Software\uCOS-III\Source/os_core.c ****         return;
 767:..\..\..\..\..\..\Software\uCOS-III\Source/os_core.c ****     }
 768:..\..\..\..\..\..\Software\uCOS-III\Source/os_core.c **** 
 769:..\..\..\..\..\..\Software\uCOS-III\Source/os_core.c ****     OS_RdyListMoveHeadToTail(p_rdy_list);                       /* Move current OS_TCB to the end o
 770:..\..\..\..\..\..\Software\uCOS-III\Source/os_core.c ****     p_tcb = p_rdy_list->HeadPtr;                                /* Point to new OS_TCB at head of t
 771:..\..\..\..\..\..\Software\uCOS-III\Source/os_core.c ****     if (p_tcb->TimeQuanta == 0u) {                              /* See if we need to use the defaul
 772:..\..\..\..\..\..\Software\uCOS-III\Source/os_core.c ****         p_tcb->TimeQuantaCtr = OSSchedRoundRobinDfltTimeQuanta;
 773:..\..\..\..\..\..\Software\uCOS-III\Source/os_core.c ****     } else {
 774:..\..\..\..\..\..\Software\uCOS-III\Source/os_core.c ****         p_tcb->TimeQuantaCtr = p_tcb->TimeQuanta;               /* Load time slice counter with new
 775:..\..\..\..\..\..\Software\uCOS-III\Source/os_core.c ****     }
 776:..\..\..\..\..\..\Software\uCOS-III\Source/os_core.c **** 
 777:..\..\..\..\..\..\Software\uCOS-III\Source/os_core.c ****     CPU_CRITICAL_EXIT();
 778:..\..\..\..\..\..\Software\uCOS-III\Source/os_core.c **** 
 779:..\..\..\..\..\..\Software\uCOS-III\Source/os_core.c ****     OSSched();                                                  /* Run new task                    
 780:..\..\..\..\..\..\Software\uCOS-III\Source/os_core.c ****    *p_err = OS_ERR_NONE;
 781:..\..\..\..\..\..\Software\uCOS-III\Source/os_core.c **** }
 782:..\..\..\..\..\..\Software\uCOS-III\Source/os_core.c **** #endif
 783:..\..\..\..\..\..\Software\uCOS-III\Source/os_core.c **** 
 784:..\..\..\..\..\..\Software\uCOS-III\Source/os_core.c **** 
 785:..\..\..\..\..\..\Software\uCOS-III\Source/os_core.c **** /*
 786:..\..\..\..\..\..\Software\uCOS-III\Source/os_core.c **** ***************************************************************************************************
 787:..\..\..\..\..\..\Software\uCOS-III\Source/os_core.c **** *                                                 START MULTITASKING
 788:..\..\..\..\..\..\Software\uCOS-III\Source/os_core.c **** *
 789:..\..\..\..\..\..\Software\uCOS-III\Source/os_core.c **** * Description: This function is used to start the multitasking process which lets uC/OS-III manages
 790:..\..\..\..\..\..\Software\uCOS-III\Source/os_core.c **** *              created.  Before you can call OSStart(), you MUST have called OSInit() and you MUST 
 791:..\..\..\..\..\..\Software\uCOS-III\Source/os_core.c **** *              one application task.
 792:..\..\..\..\..\..\Software\uCOS-III\Source/os_core.c **** *
ARM GAS  C:\Users\ADMINI~1\AppData\Local\Temp\cczjWrOu.s 			page 30


 793:..\..\..\..\..\..\Software\uCOS-III\Source/os_core.c **** * Argument(s): p_err      is a pointer to a variable that will contain an error code returned by th
 794:..\..\..\..\..\..\Software\uCOS-III\Source/os_core.c **** *
 795:..\..\..\..\..\..\Software\uCOS-III\Source/os_core.c **** *                             OS_ERR_FATAL_RETURN    OS was running and OSStart() returned
 796:..\..\..\..\..\..\Software\uCOS-III\Source/os_core.c **** *                             OS_ERR_OS_NOT_INIT     OS is not initialized, OSStart() has no effect
 797:..\..\..\..\..\..\Software\uCOS-III\Source/os_core.c **** *                             OS_ERR_OS_NO_APP_TASK  No application task created, OSStart() has no 
 798:..\..\..\..\..\..\Software\uCOS-III\Source/os_core.c **** *                             OS_ERR_OS_RUNNING      OS is already running, OSStart() has no effect
 799:..\..\..\..\..\..\Software\uCOS-III\Source/os_core.c **** *
 800:..\..\..\..\..\..\Software\uCOS-III\Source/os_core.c **** * Returns    : none
 801:..\..\..\..\..\..\Software\uCOS-III\Source/os_core.c **** *
 802:..\..\..\..\..\..\Software\uCOS-III\Source/os_core.c **** * Note(s)    : 1) OSStartHighRdy() MUST:
 803:..\..\..\..\..\..\Software\uCOS-III\Source/os_core.c **** *                 a) Call OSTaskSwHook() then,
 804:..\..\..\..\..\..\Software\uCOS-III\Source/os_core.c **** *                 b) Load the context of the task pointed to by OSTCBHighRdyPtr.
 805:..\..\..\..\..\..\Software\uCOS-III\Source/os_core.c **** *                 c) Execute the task.
 806:..\..\..\..\..\..\Software\uCOS-III\Source/os_core.c **** *
 807:..\..\..\..\..\..\Software\uCOS-III\Source/os_core.c **** *              2) OSStart() is not supposed to return.  If it does, that would be considered a fata
 808:..\..\..\..\..\..\Software\uCOS-III\Source/os_core.c **** ***************************************************************************************************
 809:..\..\..\..\..\..\Software\uCOS-III\Source/os_core.c **** */
 810:..\..\..\..\..\..\Software\uCOS-III\Source/os_core.c **** 
 811:..\..\..\..\..\..\Software\uCOS-III\Source/os_core.c **** void  OSStart (OS_ERR  *p_err)
 812:..\..\..\..\..\..\Software\uCOS-III\Source/os_core.c **** {
 849              		.loc 1 812 0
 850              		.cfi_startproc
 851              		@ args = 0, pretend = 0, frame = 16
 852              		@ frame_needed = 1, uses_anonymous_args = 0
 853 0000 80B5     		push	{r7, lr}
 854              		.cfi_def_cfa_offset 8
 855              		.cfi_offset 7, -8
 856              		.cfi_offset 14, -4
 857 0002 84B0     		sub	sp, sp, #16
 858              		.cfi_def_cfa_offset 24
 859 0004 00AF     		add	r7, sp, #0
 860              		.cfi_def_cfa_register 7
 861 0006 7860     		str	r0, [r7, #4]
 813:..\..\..\..\..\..\Software\uCOS-III\Source/os_core.c ****     OS_OBJ_QTY  kernel_task_cnt;
 814:..\..\..\..\..\..\Software\uCOS-III\Source/os_core.c **** 
 815:..\..\..\..\..\..\Software\uCOS-III\Source/os_core.c **** 
 816:..\..\..\..\..\..\Software\uCOS-III\Source/os_core.c **** #ifdef OS_SAFETY_CRITICAL
 817:..\..\..\..\..\..\Software\uCOS-III\Source/os_core.c ****     if (p_err == DEF_NULL) {
 818:..\..\..\..\..\..\Software\uCOS-III\Source/os_core.c ****         OS_SAFETY_CRITICAL_EXCEPTION();
 819:..\..\..\..\..\..\Software\uCOS-III\Source/os_core.c ****         return;
 820:..\..\..\..\..\..\Software\uCOS-III\Source/os_core.c ****     }
 821:..\..\..\..\..\..\Software\uCOS-III\Source/os_core.c **** #endif
 822:..\..\..\..\..\..\Software\uCOS-III\Source/os_core.c **** 
 823:..\..\..\..\..\..\Software\uCOS-III\Source/os_core.c ****     if (OSInitialized != DEF_TRUE) {
 862              		.loc 1 823 0
 863 0008 2F4B     		ldr	r3, .L69
 864 000a 1B78     		ldrb	r3, [r3]
 865 000c 012B     		cmp	r3, #1
 866 000e 03D0     		beq	.L65
 824:..\..\..\..\..\..\Software\uCOS-III\Source/os_core.c ****        *p_err = OS_ERR_OS_NOT_INIT;
 867              		.loc 1 824 0
 868 0010 7B68     		ldr	r3, [r7, #4]
 869 0012 2E4A     		ldr	r2, .L69+4
 870 0014 1A80     		strh	r2, [r3]
 825:..\..\..\..\..\..\Software\uCOS-III\Source/os_core.c ****         return;
 871              		.loc 1 825 0
 872 0016 53E0     		b	.L64
ARM GAS  C:\Users\ADMINI~1\AppData\Local\Temp\cczjWrOu.s 			page 31


 873              	.L65:
 826:..\..\..\..\..\..\Software\uCOS-III\Source/os_core.c ****     }
 827:..\..\..\..\..\..\Software\uCOS-III\Source/os_core.c **** 
 828:..\..\..\..\..\..\Software\uCOS-III\Source/os_core.c ****     kernel_task_cnt = 0u;                                       /* Calculate the number of kernel t
 874              		.loc 1 828 0
 875 0018 0E23     		movs	r3, #14
 876 001a FB18     		adds	r3, r7, r3
 877 001c 0022     		movs	r2, #0
 878 001e 1A80     		strh	r2, [r3]
 829:..\..\..\..\..\..\Software\uCOS-III\Source/os_core.c **** #if (OS_CFG_STAT_TASK_EN == DEF_ENABLED)
 830:..\..\..\..\..\..\Software\uCOS-III\Source/os_core.c ****     kernel_task_cnt++;
 879              		.loc 1 830 0
 880 0020 0E23     		movs	r3, #14
 881 0022 FB18     		adds	r3, r7, r3
 882 0024 1A88     		ldrh	r2, [r3]
 883 0026 0E23     		movs	r3, #14
 884 0028 FB18     		adds	r3, r7, r3
 885 002a 0132     		adds	r2, r2, #1
 886 002c 1A80     		strh	r2, [r3]
 831:..\..\..\..\..\..\Software\uCOS-III\Source/os_core.c **** #endif
 832:..\..\..\..\..\..\Software\uCOS-III\Source/os_core.c **** #if (OS_CFG_TASK_TICK_EN  == DEF_ENABLED)
 833:..\..\..\..\..\..\Software\uCOS-III\Source/os_core.c ****     kernel_task_cnt++;
 887              		.loc 1 833 0
 888 002e 0E23     		movs	r3, #14
 889 0030 FB18     		adds	r3, r7, r3
 890 0032 1A88     		ldrh	r2, [r3]
 891 0034 0E23     		movs	r3, #14
 892 0036 FB18     		adds	r3, r7, r3
 893 0038 0132     		adds	r2, r2, #1
 894 003a 1A80     		strh	r2, [r3]
 834:..\..\..\..\..\..\Software\uCOS-III\Source/os_core.c **** #endif
 835:..\..\..\..\..\..\Software\uCOS-III\Source/os_core.c **** #if (OS_CFG_TMR_EN == DEF_ENABLED)
 836:..\..\..\..\..\..\Software\uCOS-III\Source/os_core.c ****     kernel_task_cnt++;
 895              		.loc 1 836 0
 896 003c 0E23     		movs	r3, #14
 897 003e FB18     		adds	r3, r7, r3
 898 0040 1A88     		ldrh	r2, [r3]
 899 0042 0E23     		movs	r3, #14
 900 0044 FB18     		adds	r3, r7, r3
 901 0046 0132     		adds	r2, r2, #1
 902 0048 1A80     		strh	r2, [r3]
 837:..\..\..\..\..\..\Software\uCOS-III\Source/os_core.c **** #endif
 838:..\..\..\..\..\..\Software\uCOS-III\Source/os_core.c **** #if (OS_CFG_TASK_IDLE_EN == DEF_ENABLED)
 839:..\..\..\..\..\..\Software\uCOS-III\Source/os_core.c ****     kernel_task_cnt++;
 903              		.loc 1 839 0
 904 004a 0E23     		movs	r3, #14
 905 004c FB18     		adds	r3, r7, r3
 906 004e 1A88     		ldrh	r2, [r3]
 907 0050 0E23     		movs	r3, #14
 908 0052 FB18     		adds	r3, r7, r3
 909 0054 0132     		adds	r2, r2, #1
 910 0056 1A80     		strh	r2, [r3]
 840:..\..\..\..\..\..\Software\uCOS-III\Source/os_core.c **** #endif
 841:..\..\..\..\..\..\Software\uCOS-III\Source/os_core.c **** 
 842:..\..\..\..\..\..\Software\uCOS-III\Source/os_core.c ****     if (OSTaskQty <= kernel_task_cnt) {                         /* No application task created     
 911              		.loc 1 842 0
 912 0058 1D4B     		ldr	r3, .L69+8
ARM GAS  C:\Users\ADMINI~1\AppData\Local\Temp\cczjWrOu.s 			page 32


 913 005a 1B88     		ldrh	r3, [r3]
 914 005c 0E22     		movs	r2, #14
 915 005e BA18     		adds	r2, r7, r2
 916 0060 1288     		ldrh	r2, [r2]
 917 0062 9A42     		cmp	r2, r3
 918 0064 03D3     		bcc	.L67
 843:..\..\..\..\..\..\Software\uCOS-III\Source/os_core.c ****         *p_err = OS_ERR_OS_NO_APP_TASK;
 919              		.loc 1 843 0
 920 0066 7B68     		ldr	r3, [r7, #4]
 921 0068 1A4A     		ldr	r2, .L69+12
 922 006a 1A80     		strh	r2, [r3]
 844:..\..\..\..\..\..\Software\uCOS-III\Source/os_core.c ****          return;
 923              		.loc 1 844 0
 924 006c 28E0     		b	.L64
 925              	.L67:
 845:..\..\..\..\..\..\Software\uCOS-III\Source/os_core.c ****     }
 846:..\..\..\..\..\..\Software\uCOS-III\Source/os_core.c **** 
 847:..\..\..\..\..\..\Software\uCOS-III\Source/os_core.c ****     if (OSRunning == OS_STATE_OS_STOPPED) {
 926              		.loc 1 847 0
 927 006e 1A4B     		ldr	r3, .L69+16
 928 0070 1B78     		ldrb	r3, [r3]
 929 0072 002B     		cmp	r3, #0
 930 0074 21D1     		bne	.L68
 848:..\..\..\..\..\..\Software\uCOS-III\Source/os_core.c ****         OSPrioHighRdy             = OS_PrioGetHighest();        /* Find the highest priority       
 931              		.loc 1 848 0
 932 0076 FFF7FEFF 		bl	OS_PrioGetHighest
 933 007a 0300     		movs	r3, r0
 934 007c 1A00     		movs	r2, r3
 935 007e 174B     		ldr	r3, .L69+20
 936 0080 1A70     		strb	r2, [r3]
 849:..\..\..\..\..\..\Software\uCOS-III\Source/os_core.c ****         OSPrioCur                 = OSPrioHighRdy;
 937              		.loc 1 849 0
 938 0082 164B     		ldr	r3, .L69+20
 939 0084 1A78     		ldrb	r2, [r3]
 940 0086 164B     		ldr	r3, .L69+24
 941 0088 1A70     		strb	r2, [r3]
 850:..\..\..\..\..\..\Software\uCOS-III\Source/os_core.c ****         OSTCBHighRdyPtr           = OSRdyList[OSPrioHighRdy].HeadPtr;
 942              		.loc 1 850 0
 943 008a 144B     		ldr	r3, .L69+20
 944 008c 1B78     		ldrb	r3, [r3]
 945 008e 1900     		movs	r1, r3
 946 0090 144A     		ldr	r2, .L69+28
 947 0092 0B00     		movs	r3, r1
 948 0094 5B00     		lsls	r3, r3, #1
 949 0096 5B18     		adds	r3, r3, r1
 950 0098 9B00     		lsls	r3, r3, #2
 951 009a 9A58     		ldr	r2, [r3, r2]
 952 009c 124B     		ldr	r3, .L69+32
 953 009e 1A60     		str	r2, [r3]
 851:..\..\..\..\..\..\Software\uCOS-III\Source/os_core.c ****         OSTCBCurPtr               = OSTCBHighRdyPtr;
 954              		.loc 1 851 0
 955 00a0 114B     		ldr	r3, .L69+32
 956 00a2 1A68     		ldr	r2, [r3]
 957 00a4 114B     		ldr	r3, .L69+36
 958 00a6 1A60     		str	r2, [r3]
 852:..\..\..\..\..\..\Software\uCOS-III\Source/os_core.c ****         OSRunning                 = OS_STATE_OS_RUNNING;
 959              		.loc 1 852 0
ARM GAS  C:\Users\ADMINI~1\AppData\Local\Temp\cczjWrOu.s 			page 33


 960 00a8 0B4B     		ldr	r3, .L69+16
 961 00aa 0122     		movs	r2, #1
 962 00ac 1A70     		strb	r2, [r3]
 853:..\..\..\..\..\..\Software\uCOS-III\Source/os_core.c ****         OSStartHighRdy();                                       /* Execute target specific code to 
 963              		.loc 1 853 0
 964 00ae FFF7FEFF 		bl	OSStartHighRdy
 854:..\..\..\..\..\..\Software\uCOS-III\Source/os_core.c ****        *p_err                     = OS_ERR_FATAL_RETURN;        /* OSStart() is not supposed to ret
 965              		.loc 1 854 0
 966 00b2 7B68     		ldr	r3, [r7, #4]
 967 00b4 0E4A     		ldr	r2, .L69+40
 968 00b6 1A80     		strh	r2, [r3]
 969 00b8 02E0     		b	.L64
 970              	.L68:
 855:..\..\..\..\..\..\Software\uCOS-III\Source/os_core.c ****     } else {
 856:..\..\..\..\..\..\Software\uCOS-III\Source/os_core.c ****        *p_err                     = OS_ERR_OS_RUNNING;          /* OS is already running           
 971              		.loc 1 856 0
 972 00ba 7B68     		ldr	r3, [r7, #4]
 973 00bc 0D4A     		ldr	r2, .L69+44
 974 00be 1A80     		strh	r2, [r3]
 975              	.L64:
 857:..\..\..\..\..\..\Software\uCOS-III\Source/os_core.c ****     }
 858:..\..\..\..\..\..\Software\uCOS-III\Source/os_core.c **** }
 976              		.loc 1 858 0
 977 00c0 BD46     		mov	sp, r7
 978 00c2 04B0     		add	sp, sp, #16
 979              		@ sp needed
 980 00c4 80BD     		pop	{r7, pc}
 981              	.L70:
 982 00c6 C046     		.align	2
 983              	.L69:
 984 00c8 00000000 		.word	OSInitialized
 985 00cc 8B5E0000 		.word	24203
 986 00d0 00000000 		.word	OSTaskQty
 987 00d4 8C5E0000 		.word	24204
 988 00d8 00000000 		.word	OSRunning
 989 00dc 00000000 		.word	OSPrioHighRdy
 990 00e0 00000000 		.word	OSPrioCur
 991 00e4 00000000 		.word	OSRdyList
 992 00e8 00000000 		.word	OSTCBHighRdyPtr
 993 00ec 00000000 		.word	OSTCBCurPtr
 994 00f0 993A0000 		.word	15001
 995 00f4 8A5E0000 		.word	24202
 996              		.cfi_endproc
 997              	.LFE6:
 998              		.size	OSStart, .-OSStart
 999              		.section	.text.OSVersion,"ax",%progbits
 1000              		.align	2
 1001              		.global	OSVersion
 1002              		.code	16
 1003              		.thumb_func
 1004              		.type	OSVersion, %function
 1005              	OSVersion:
 1006              	.LFB7:
 859:..\..\..\..\..\..\Software\uCOS-III\Source/os_core.c **** 
 860:..\..\..\..\..\..\Software\uCOS-III\Source/os_core.c **** 
 861:..\..\..\..\..\..\Software\uCOS-III\Source/os_core.c **** /*
 862:..\..\..\..\..\..\Software\uCOS-III\Source/os_core.c **** ***************************************************************************************************
ARM GAS  C:\Users\ADMINI~1\AppData\Local\Temp\cczjWrOu.s 			page 34


 863:..\..\..\..\..\..\Software\uCOS-III\Source/os_core.c **** *                                                    GET VERSION
 864:..\..\..\..\..\..\Software\uCOS-III\Source/os_core.c **** *
 865:..\..\..\..\..\..\Software\uCOS-III\Source/os_core.c **** * Description: This function is used to return the version number of uC/OS-III.  The returned value
 866:..\..\..\..\..\..\Software\uCOS-III\Source/os_core.c **** *              uC/OS-III's version number multiplied by 10000.  In other words, version 3.01.02 wou
 867:..\..\..\..\..\..\Software\uCOS-III\Source/os_core.c **** *
 868:..\..\..\..\..\..\Software\uCOS-III\Source/os_core.c **** * Arguments  : p_err   is a pointer to a variable that will receive an error code.  However, OSVers
 869:..\..\..\..\..\..\Software\uCOS-III\Source/os_core.c **** *                      variable to
 870:..\..\..\..\..\..\Software\uCOS-III\Source/os_core.c **** *
 871:..\..\..\..\..\..\Software\uCOS-III\Source/os_core.c **** *                         OS_ERR_NONE
 872:..\..\..\..\..\..\Software\uCOS-III\Source/os_core.c **** *
 873:..\..\..\..\..\..\Software\uCOS-III\Source/os_core.c **** * Returns    : The version number of uC/OS-III multiplied by 10000.
 874:..\..\..\..\..\..\Software\uCOS-III\Source/os_core.c **** *
 875:..\..\..\..\..\..\Software\uCOS-III\Source/os_core.c **** * Note(s)    : none
 876:..\..\..\..\..\..\Software\uCOS-III\Source/os_core.c **** ***************************************************************************************************
 877:..\..\..\..\..\..\Software\uCOS-III\Source/os_core.c **** */
 878:..\..\..\..\..\..\Software\uCOS-III\Source/os_core.c **** 
 879:..\..\..\..\..\..\Software\uCOS-III\Source/os_core.c **** CPU_INT16U  OSVersion (OS_ERR  *p_err)
 880:..\..\..\..\..\..\Software\uCOS-III\Source/os_core.c **** {
 1007              		.loc 1 880 0
 1008              		.cfi_startproc
 1009              		@ args = 0, pretend = 0, frame = 8
 1010              		@ frame_needed = 1, uses_anonymous_args = 0
 1011 0000 80B5     		push	{r7, lr}
 1012              		.cfi_def_cfa_offset 8
 1013              		.cfi_offset 7, -8
 1014              		.cfi_offset 14, -4
 1015 0002 82B0     		sub	sp, sp, #8
 1016              		.cfi_def_cfa_offset 16
 1017 0004 00AF     		add	r7, sp, #0
 1018              		.cfi_def_cfa_register 7
 1019 0006 7860     		str	r0, [r7, #4]
 881:..\..\..\..\..\..\Software\uCOS-III\Source/os_core.c **** #ifdef OS_SAFETY_CRITICAL
 882:..\..\..\..\..\..\Software\uCOS-III\Source/os_core.c ****     if (p_err == DEF_NULL) {
 883:..\..\..\..\..\..\Software\uCOS-III\Source/os_core.c ****         OS_SAFETY_CRITICAL_EXCEPTION();
 884:..\..\..\..\..\..\Software\uCOS-III\Source/os_core.c ****         return (0u);
 885:..\..\..\..\..\..\Software\uCOS-III\Source/os_core.c ****     }
 886:..\..\..\..\..\..\Software\uCOS-III\Source/os_core.c **** #endif
 887:..\..\..\..\..\..\Software\uCOS-III\Source/os_core.c **** 
 888:..\..\..\..\..\..\Software\uCOS-III\Source/os_core.c ****    *p_err = OS_ERR_NONE;
 1020              		.loc 1 888 0
 1021 0008 7B68     		ldr	r3, [r7, #4]
 1022 000a 0022     		movs	r2, #0
 1023 000c 1A80     		strh	r2, [r3]
 889:..\..\..\..\..\..\Software\uCOS-III\Source/os_core.c ****     return (OS_VERSION);
 1024              		.loc 1 889 0
 1025 000e 024B     		ldr	r3, .L73
 890:..\..\..\..\..\..\Software\uCOS-III\Source/os_core.c **** }
 1026              		.loc 1 890 0
 1027 0010 1800     		movs	r0, r3
 1028 0012 BD46     		mov	sp, r7
 1029 0014 02B0     		add	sp, sp, #8
 1030              		@ sp needed
 1031 0016 80BD     		pop	{r7, pc}
 1032              	.L74:
 1033              		.align	2
 1034              	.L73:
 1035 0018 25770000 		.word	30501
ARM GAS  C:\Users\ADMINI~1\AppData\Local\Temp\cczjWrOu.s 			page 35


 1036              		.cfi_endproc
 1037              	.LFE7:
 1038              		.size	OSVersion, .-OSVersion
 1039              		.section	.text.OS_IdleTask,"ax",%progbits
 1040              		.align	2
 1041              		.global	OS_IdleTask
 1042              		.code	16
 1043              		.thumb_func
 1044              		.type	OS_IdleTask, %function
 1045              	OS_IdleTask:
 1046              	.LFB8:
 891:..\..\..\..\..\..\Software\uCOS-III\Source/os_core.c **** 
 892:..\..\..\..\..\..\Software\uCOS-III\Source/os_core.c **** 
 893:..\..\..\..\..\..\Software\uCOS-III\Source/os_core.c **** /*
 894:..\..\..\..\..\..\Software\uCOS-III\Source/os_core.c **** ***************************************************************************************************
 895:..\..\..\..\..\..\Software\uCOS-III\Source/os_core.c **** *                                                      IDLE TASK
 896:..\..\..\..\..\..\Software\uCOS-III\Source/os_core.c **** *
 897:..\..\..\..\..\..\Software\uCOS-III\Source/os_core.c **** * Description: This task is internal to uC/OS-III and executes whenever no other higher priority ta
 898:..\..\..\..\..\..\Software\uCOS-III\Source/os_core.c **** *              they are ALL waiting for event(s) to occur.
 899:..\..\..\..\..\..\Software\uCOS-III\Source/os_core.c **** *
 900:..\..\..\..\..\..\Software\uCOS-III\Source/os_core.c **** * Arguments  : p_arg    is an argument passed to the task when the task is created.
 901:..\..\..\..\..\..\Software\uCOS-III\Source/os_core.c **** *
 902:..\..\..\..\..\..\Software\uCOS-III\Source/os_core.c **** * Returns    : none
 903:..\..\..\..\..\..\Software\uCOS-III\Source/os_core.c **** *
 904:..\..\..\..\..\..\Software\uCOS-III\Source/os_core.c **** * Note(s)    : 1) This function is INTERNAL to uC/OS-III and your application MUST NOT call it.
 905:..\..\..\..\..\..\Software\uCOS-III\Source/os_core.c **** *
 906:..\..\..\..\..\..\Software\uCOS-III\Source/os_core.c **** *              2) OSIdleTaskHook() is called after the critical section to ensure that interrupts w
 907:..\..\..\..\..\..\Software\uCOS-III\Source/os_core.c **** *                 least a few instructions.  On some processors (ex. Philips XA), enabling and then
 908:..\..\..\..\..\..\Software\uCOS-III\Source/os_core.c **** *                 doesn't allow the processor enough time to have interrupts enabled before they we
 909:..\..\..\..\..\..\Software\uCOS-III\Source/os_core.c **** *                 uC/OS-III would thus never recognize interrupts.
 910:..\..\..\..\..\..\Software\uCOS-III\Source/os_core.c **** *
 911:..\..\..\..\..\..\Software\uCOS-III\Source/os_core.c **** *              3) This hook has been added to allow you to do such things as STOP the CPU to conser
 912:..\..\..\..\..\..\Software\uCOS-III\Source/os_core.c **** ***************************************************************************************************
 913:..\..\..\..\..\..\Software\uCOS-III\Source/os_core.c **** */
 914:..\..\..\..\..\..\Software\uCOS-III\Source/os_core.c **** #if (OS_CFG_TASK_IDLE_EN == DEF_ENABLED)
 915:..\..\..\..\..\..\Software\uCOS-III\Source/os_core.c **** void  OS_IdleTask (void  *p_arg)
 916:..\..\..\..\..\..\Software\uCOS-III\Source/os_core.c **** {
 1047              		.loc 1 916 0
 1048              		.cfi_startproc
 1049              		@ args = 0, pretend = 0, frame = 16
 1050              		@ frame_needed = 1, uses_anonymous_args = 0
 1051 0000 80B5     		push	{r7, lr}
 1052              		.cfi_def_cfa_offset 8
 1053              		.cfi_offset 7, -8
 1054              		.cfi_offset 14, -4
 1055 0002 84B0     		sub	sp, sp, #16
 1056              		.cfi_def_cfa_offset 24
 1057 0004 00AF     		add	r7, sp, #0
 1058              		.cfi_def_cfa_register 7
 1059 0006 7860     		str	r0, [r7, #4]
 917:..\..\..\..\..\..\Software\uCOS-III\Source/os_core.c **** #if ((OS_CFG_DBG_EN == DEF_ENABLED) || (OS_CFG_STAT_TASK_EN == DEF_ENABLED))
 918:..\..\..\..\..\..\Software\uCOS-III\Source/os_core.c ****     CPU_SR_ALLOC();
 1060              		.loc 1 918 0
 1061 0008 0023     		movs	r3, #0
 1062 000a FB60     		str	r3, [r7, #12]
 1063              	.L76:
 919:..\..\..\..\..\..\Software\uCOS-III\Source/os_core.c **** #endif
ARM GAS  C:\Users\ADMINI~1\AppData\Local\Temp\cczjWrOu.s 			page 36


 920:..\..\..\..\..\..\Software\uCOS-III\Source/os_core.c **** 
 921:..\..\..\..\..\..\Software\uCOS-III\Source/os_core.c **** 
 922:..\..\..\..\..\..\Software\uCOS-III\Source/os_core.c ****     (void)p_arg;                                                /* Prevent compiler warning for not
 923:..\..\..\..\..\..\Software\uCOS-III\Source/os_core.c **** 
 924:..\..\..\..\..\..\Software\uCOS-III\Source/os_core.c ****     while (DEF_ON) {
 925:..\..\..\..\..\..\Software\uCOS-III\Source/os_core.c **** #if ((OS_CFG_DBG_EN == DEF_ENABLED) || (OS_CFG_STAT_TASK_EN == DEF_ENABLED))
 926:..\..\..\..\..\..\Software\uCOS-III\Source/os_core.c ****         CPU_CRITICAL_ENTER();
 1064              		.loc 1 926 0 discriminator 1
 1065 000c FFF7FEFF 		bl	CPU_SR_Save
 1066 0010 0300     		movs	r3, r0
 1067 0012 FB60     		str	r3, [r7, #12]
 1068 0014 FFF7FEFF 		bl	CPU_IntDisMeasStart
 927:..\..\..\..\..\..\Software\uCOS-III\Source/os_core.c **** #if (OS_CFG_DBG_EN == DEF_ENABLED)
 928:..\..\..\..\..\..\Software\uCOS-III\Source/os_core.c ****         OSIdleTaskCtr++;
 1069              		.loc 1 928 0 discriminator 1
 1070 0018 084B     		ldr	r3, .L77
 1071 001a 1B68     		ldr	r3, [r3]
 1072 001c 5A1C     		adds	r2, r3, #1
 1073 001e 074B     		ldr	r3, .L77
 1074 0020 1A60     		str	r2, [r3]
 929:..\..\..\..\..\..\Software\uCOS-III\Source/os_core.c **** #endif
 930:..\..\..\..\..\..\Software\uCOS-III\Source/os_core.c **** #if (OS_CFG_STAT_TASK_EN == DEF_ENABLED)
 931:..\..\..\..\..\..\Software\uCOS-III\Source/os_core.c ****         OSStatTaskCtr++;
 1075              		.loc 1 931 0 discriminator 1
 1076 0022 074B     		ldr	r3, .L77+4
 1077 0024 1B68     		ldr	r3, [r3]
 1078 0026 5A1C     		adds	r2, r3, #1
 1079 0028 054B     		ldr	r3, .L77+4
 1080 002a 1A60     		str	r2, [r3]
 932:..\..\..\..\..\..\Software\uCOS-III\Source/os_core.c **** #endif
 933:..\..\..\..\..\..\Software\uCOS-III\Source/os_core.c ****         CPU_CRITICAL_EXIT();
 1081              		.loc 1 933 0 discriminator 1
 1082 002c FFF7FEFF 		bl	CPU_IntDisMeasStop
 1083 0030 FB68     		ldr	r3, [r7, #12]
 1084 0032 1800     		movs	r0, r3
 1085 0034 FFF7FEFF 		bl	CPU_SR_Restore
 934:..\..\..\..\..\..\Software\uCOS-III\Source/os_core.c **** #endif
 935:..\..\..\..\..\..\Software\uCOS-III\Source/os_core.c **** 
 936:..\..\..\..\..\..\Software\uCOS-III\Source/os_core.c **** #if (OS_CFG_APP_HOOKS_EN == DEF_ENABLED)
 937:..\..\..\..\..\..\Software\uCOS-III\Source/os_core.c ****         OSIdleTaskHook();                                       /* Call user definable HOOK        
 938:..\..\..\..\..\..\Software\uCOS-III\Source/os_core.c **** #endif
 939:..\..\..\..\..\..\Software\uCOS-III\Source/os_core.c ****     }
 1086              		.loc 1 939 0 discriminator 1
 1087 0038 E8E7     		b	.L76
 1088              	.L78:
 1089 003a C046     		.align	2
 1090              	.L77:
 1091 003c 00000000 		.word	OSIdleTaskCtr
 1092 0040 00000000 		.word	OSStatTaskCtr
 1093              		.cfi_endproc
 1094              	.LFE8:
 1095              		.size	OS_IdleTask, .-OS_IdleTask
 1096              		.section	.rodata
 1097              		.align	2
 1098              	.LC60:
 1099 0000 75432F4F 		.ascii	"uC/OS-III Idle Task\000"
 1099      532D4949 
ARM GAS  C:\Users\ADMINI~1\AppData\Local\Temp\cczjWrOu.s 			page 37


 1099      49204964 
 1099      6C652054 
 1099      61736B00 
 1100              		.section	.text.OS_IdleTaskInit,"ax",%progbits
 1101              		.align	2
 1102              		.global	OS_IdleTaskInit
 1103              		.code	16
 1104              		.thumb_func
 1105              		.type	OS_IdleTaskInit, %function
 1106              	OS_IdleTaskInit:
 1107              	.LFB9:
 940:..\..\..\..\..\..\Software\uCOS-III\Source/os_core.c **** }
 941:..\..\..\..\..\..\Software\uCOS-III\Source/os_core.c **** #endif
 942:..\..\..\..\..\..\Software\uCOS-III\Source/os_core.c **** 
 943:..\..\..\..\..\..\Software\uCOS-III\Source/os_core.c **** /*
 944:..\..\..\..\..\..\Software\uCOS-III\Source/os_core.c **** ***************************************************************************************************
 945:..\..\..\..\..\..\Software\uCOS-III\Source/os_core.c **** *                                               INITIALIZE THE IDLE TASK
 946:..\..\..\..\..\..\Software\uCOS-III\Source/os_core.c **** *
 947:..\..\..\..\..\..\Software\uCOS-III\Source/os_core.c **** * Description: This function initializes the idle task
 948:..\..\..\..\..\..\Software\uCOS-III\Source/os_core.c **** *
 949:..\..\..\..\..\..\Software\uCOS-III\Source/os_core.c **** * Arguments  : p_err    is a pointer to a variable that will contain an error code returned by this
 950:..\..\..\..\..\..\Software\uCOS-III\Source/os_core.c **** *
 951:..\..\..\..\..\..\Software\uCOS-III\Source/os_core.c **** * Returns    : none
 952:..\..\..\..\..\..\Software\uCOS-III\Source/os_core.c **** *
 953:..\..\..\..\..\..\Software\uCOS-III\Source/os_core.c **** * Note(s)    : 1) This function is INTERNAL to uC/OS-III and your application MUST NOT call it.
 954:..\..\..\..\..\..\Software\uCOS-III\Source/os_core.c **** ***************************************************************************************************
 955:..\..\..\..\..\..\Software\uCOS-III\Source/os_core.c **** */
 956:..\..\..\..\..\..\Software\uCOS-III\Source/os_core.c **** #if (OS_CFG_TASK_IDLE_EN == DEF_ENABLED)
 957:..\..\..\..\..\..\Software\uCOS-III\Source/os_core.c **** void  OS_IdleTaskInit (OS_ERR  *p_err)
 958:..\..\..\..\..\..\Software\uCOS-III\Source/os_core.c **** {
 1108              		.loc 1 958 0
 1109              		.cfi_startproc
 1110              		@ args = 0, pretend = 0, frame = 8
 1111              		@ frame_needed = 1, uses_anonymous_args = 0
 1112 0000 F0B5     		push	{r4, r5, r6, r7, lr}
 1113              		.cfi_def_cfa_offset 20
 1114              		.cfi_offset 4, -20
 1115              		.cfi_offset 5, -16
 1116              		.cfi_offset 6, -12
 1117              		.cfi_offset 7, -8
 1118              		.cfi_offset 14, -4
 1119 0002 8DB0     		sub	sp, sp, #52
 1120              		.cfi_def_cfa_offset 72
 1121 0004 0AAF     		add	r7, sp, #40
 1122              		.cfi_def_cfa 7, 32
 1123 0006 7860     		str	r0, [r7, #4]
 959:..\..\..\..\..\..\Software\uCOS-III\Source/os_core.c **** #if (OS_CFG_DBG_EN == DEF_ENABLED)
 960:..\..\..\..\..\..\Software\uCOS-III\Source/os_core.c ****     OSIdleTaskCtr = 0u;
 1124              		.loc 1 960 0
 1125 0008 124B     		ldr	r3, .L80
 1126 000a 0022     		movs	r2, #0
 1127 000c 1A60     		str	r2, [r3]
 961:..\..\..\..\..\..\Software\uCOS-III\Source/os_core.c **** #endif
 962:..\..\..\..\..\..\Software\uCOS-III\Source/os_core.c ****                                                                 /* --------------- CREATE THE IDLE 
 963:..\..\..\..\..\..\Software\uCOS-III\Source/os_core.c ****     OSTaskCreate(&OSIdleTaskTCB,
 1128              		.loc 1 963 0
 1129 000e 124B     		ldr	r3, .L80+4
ARM GAS  C:\Users\ADMINI~1\AppData\Local\Temp\cczjWrOu.s 			page 38


 1130 0010 1A68     		ldr	r2, [r3]
 1131 0012 124B     		ldr	r3, .L80+8
 1132 0014 1968     		ldr	r1, [r3]
 1133 0016 124B     		ldr	r3, .L80+12
 1134 0018 1B68     		ldr	r3, [r3]
 1135 001a 124E     		ldr	r6, .L80+16
 1136 001c 124D     		ldr	r5, .L80+20
 1137 001e 134C     		ldr	r4, .L80+24
 1138 0020 7868     		ldr	r0, [r7, #4]
 1139 0022 0890     		str	r0, [sp, #32]
 1140 0024 0B20     		movs	r0, #11
 1141 0026 0790     		str	r0, [sp, #28]
 1142 0028 0020     		movs	r0, #0
 1143 002a 0690     		str	r0, [sp, #24]
 1144 002c 0020     		movs	r0, #0
 1145 002e 0590     		str	r0, [sp, #20]
 1146 0030 0020     		movs	r0, #0
 1147 0032 0490     		str	r0, [sp, #16]
 1148 0034 0393     		str	r3, [sp, #12]
 1149 0036 0291     		str	r1, [sp, #8]
 1150 0038 0192     		str	r2, [sp, #4]
 1151 003a 1F23     		movs	r3, #31
 1152 003c 0093     		str	r3, [sp]
 1153 003e 0023     		movs	r3, #0
 1154 0040 3200     		movs	r2, r6
 1155 0042 2900     		movs	r1, r5
 1156 0044 2000     		movs	r0, r4
 1157 0046 FFF7FEFF 		bl	OSTaskCreate
 964:..\..\..\..\..\..\Software\uCOS-III\Source/os_core.c ****                  (CPU_CHAR   *)((void *)"uC/OS-III Idle Task"),
 965:..\..\..\..\..\..\Software\uCOS-III\Source/os_core.c ****                   OS_IdleTask,
 966:..\..\..\..\..\..\Software\uCOS-III\Source/os_core.c ****                   DEF_NULL,
 967:..\..\..\..\..\..\Software\uCOS-III\Source/os_core.c ****                  (OS_CFG_PRIO_MAX - 1u),
 968:..\..\..\..\..\..\Software\uCOS-III\Source/os_core.c ****                   OSCfg_IdleTaskStkBasePtr,
 969:..\..\..\..\..\..\Software\uCOS-III\Source/os_core.c ****                   OSCfg_IdleTaskStkLimit,
 970:..\..\..\..\..\..\Software\uCOS-III\Source/os_core.c ****                   OSCfg_IdleTaskStkSize,
 971:..\..\..\..\..\..\Software\uCOS-III\Source/os_core.c ****                   0u,
 972:..\..\..\..\..\..\Software\uCOS-III\Source/os_core.c ****                   0u,
 973:..\..\..\..\..\..\Software\uCOS-III\Source/os_core.c ****                   DEF_NULL,
 974:..\..\..\..\..\..\Software\uCOS-III\Source/os_core.c ****                  (OS_OPT_TASK_STK_CHK | OS_OPT_TASK_STK_CLR | OS_OPT_TASK_NO_TLS),
 975:..\..\..\..\..\..\Software\uCOS-III\Source/os_core.c ****                   p_err);
 976:..\..\..\..\..\..\Software\uCOS-III\Source/os_core.c **** }
 1158              		.loc 1 976 0
 1159 004a C046     		nop
 1160 004c BD46     		mov	sp, r7
 1161 004e 03B0     		add	sp, sp, #12
 1162              		@ sp needed
 1163 0050 F0BD     		pop	{r4, r5, r6, r7, pc}
 1164              	.L81:
 1165 0052 C046     		.align	2
 1166              	.L80:
 1167 0054 00000000 		.word	OSIdleTaskCtr
 1168 0058 00000000 		.word	OSCfg_IdleTaskStkBasePtr
 1169 005c 00000000 		.word	OSCfg_IdleTaskStkLimit
 1170 0060 00000000 		.word	OSCfg_IdleTaskStkSize
 1171 0064 00000000 		.word	OS_IdleTask
 1172 0068 00000000 		.word	.LC60
 1173 006c 00000000 		.word	OSIdleTaskTCB
ARM GAS  C:\Users\ADMINI~1\AppData\Local\Temp\cczjWrOu.s 			page 39


 1174              		.cfi_endproc
 1175              	.LFE9:
 1176              		.size	OS_IdleTaskInit, .-OS_IdleTaskInit
 1177              		.section	.text.OS_Pend,"ax",%progbits
 1178              		.align	2
 1179              		.global	OS_Pend
 1180              		.code	16
 1181              		.thumb_func
 1182              		.type	OS_Pend, %function
 1183              	OS_Pend:
 1184              	.LFB10:
 977:..\..\..\..\..\..\Software\uCOS-III\Source/os_core.c **** #endif
 978:..\..\..\..\..\..\Software\uCOS-III\Source/os_core.c **** 
 979:..\..\..\..\..\..\Software\uCOS-III\Source/os_core.c **** /*
 980:..\..\..\..\..\..\Software\uCOS-III\Source/os_core.c **** ***************************************************************************************************
 981:..\..\..\..\..\..\Software\uCOS-III\Source/os_core.c **** *                                             BLOCK A TASK PENDING ON EVENT
 982:..\..\..\..\..\..\Software\uCOS-III\Source/os_core.c **** *
 983:..\..\..\..\..\..\Software\uCOS-III\Source/os_core.c **** * Description: This function is called to place a task in the blocked state waiting for an event to
 984:..\..\..\..\..\..\Software\uCOS-III\Source/os_core.c **** *              exist because it is common to a number of OSxxxPend() services.
 985:..\..\..\..\..\..\Software\uCOS-III\Source/os_core.c **** *
 986:..\..\..\..\..\..\Software\uCOS-III\Source/os_core.c **** * Arguments  : p_pend_data    is a pointer to an object used to link the task being blocked to the 
 987:..\..\..\..\..\..\Software\uCOS-III\Source/os_core.c **** *              -----------    pending on the desired object.
 988:..\..\..\..\..\..\Software\uCOS-III\Source/os_core.c **** 
 989:..\..\..\..\..\..\Software\uCOS-III\Source/os_core.c **** *              p_obj          is a pointer to the object to pend on.  If there are no object used t
 990:..\..\..\..\..\..\Software\uCOS-III\Source/os_core.c **** *              -----          the caller must pass a NULL pointer.
 991:..\..\..\..\..\..\Software\uCOS-III\Source/os_core.c **** *
 992:..\..\..\..\..\..\Software\uCOS-III\Source/os_core.c **** *              pending_on     Specifies what the task will be pending on:
 993:..\..\..\..\..\..\Software\uCOS-III\Source/os_core.c **** *
 994:..\..\..\..\..\..\Software\uCOS-III\Source/os_core.c **** *                                 OS_TASK_PEND_ON_FLAG
 995:..\..\..\..\..\..\Software\uCOS-III\Source/os_core.c **** *                                 OS_TASK_PEND_ON_TASK_Q     <- No object (pending for a message se
 996:..\..\..\..\..\..\Software\uCOS-III\Source/os_core.c **** *                                 OS_TASK_PEND_ON_MUTEX
 997:..\..\..\..\..\..\Software\uCOS-III\Source/os_core.c **** *                                 OS_TASK_PEND_ON_Q
 998:..\..\..\..\..\..\Software\uCOS-III\Source/os_core.c **** *                                 OS_TASK_PEND_ON_SEM
 999:..\..\..\..\..\..\Software\uCOS-III\Source/os_core.c **** *                                 OS_TASK_PEND_ON_TASK_SEM   <- No object (pending on a signal sent
1000:..\..\..\..\..\..\Software\uCOS-III\Source/os_core.c **** *
1001:..\..\..\..\..\..\Software\uCOS-III\Source/os_core.c **** *              timeout        Is the amount of time the task will wait for the event to occur.
1002:..\..\..\..\..\..\Software\uCOS-III\Source/os_core.c **** *
1003:..\..\..\..\..\..\Software\uCOS-III\Source/os_core.c **** * Returns    : none
1004:..\..\..\..\..\..\Software\uCOS-III\Source/os_core.c **** *
1005:..\..\..\..\..\..\Software\uCOS-III\Source/os_core.c **** * Note(s)    : 1) This function is INTERNAL to uC/OS-III and your application MUST NOT call it.
1006:..\..\..\..\..\..\Software\uCOS-III\Source/os_core.c **** ***************************************************************************************************
1007:..\..\..\..\..\..\Software\uCOS-III\Source/os_core.c **** */
1008:..\..\..\..\..\..\Software\uCOS-III\Source/os_core.c **** 
1009:..\..\..\..\..\..\Software\uCOS-III\Source/os_core.c **** void  OS_Pend (OS_PEND_DATA  *p_pend_data,
1010:..\..\..\..\..\..\Software\uCOS-III\Source/os_core.c ****                OS_PEND_OBJ   *p_obj,
1011:..\..\..\..\..\..\Software\uCOS-III\Source/os_core.c ****                OS_STATE       pending_on,
1012:..\..\..\..\..\..\Software\uCOS-III\Source/os_core.c ****                OS_TICK        timeout)
1013:..\..\..\..\..\..\Software\uCOS-III\Source/os_core.c **** {
 1185              		.loc 1 1013 0
 1186              		.cfi_startproc
 1187              		@ args = 0, pretend = 0, frame = 24
 1188              		@ frame_needed = 1, uses_anonymous_args = 0
 1189 0000 80B5     		push	{r7, lr}
 1190              		.cfi_def_cfa_offset 8
 1191              		.cfi_offset 7, -8
 1192              		.cfi_offset 14, -4
 1193 0002 86B0     		sub	sp, sp, #24
ARM GAS  C:\Users\ADMINI~1\AppData\Local\Temp\cczjWrOu.s 			page 40


 1194              		.cfi_def_cfa_offset 32
 1195 0004 00AF     		add	r7, sp, #0
 1196              		.cfi_def_cfa_register 7
 1197 0006 F860     		str	r0, [r7, #12]
 1198 0008 B960     		str	r1, [r7, #8]
 1199 000a 3B60     		str	r3, [r7]
 1200 000c FB1D     		adds	r3, r7, #7
 1201 000e 1A70     		strb	r2, [r3]
1014:..\..\..\..\..\..\Software\uCOS-III\Source/os_core.c ****     OS_PEND_LIST  *p_pend_list;
1015:..\..\..\..\..\..\Software\uCOS-III\Source/os_core.c **** 
1016:..\..\..\..\..\..\Software\uCOS-III\Source/os_core.c **** 
1017:..\..\..\..\..\..\Software\uCOS-III\Source/os_core.c **** 
1018:..\..\..\..\..\..\Software\uCOS-III\Source/os_core.c ****     OSTCBCurPtr->PendOn     = pending_on;                       /* Resource not available, wait unt
 1202              		.loc 1 1018 0
 1203 0010 1B4B     		ldr	r3, .L85
 1204 0012 1B68     		ldr	r3, [r3]
 1205 0014 FA1D     		adds	r2, r7, #7
 1206 0016 3421     		movs	r1, #52
 1207 0018 1278     		ldrb	r2, [r2]
 1208 001a 5A54     		strb	r2, [r3, r1]
1019:..\..\..\..\..\..\Software\uCOS-III\Source/os_core.c ****     OSTCBCurPtr->PendStatus = OS_STATUS_PEND_OK;
 1209              		.loc 1 1019 0
 1210 001c 184B     		ldr	r3, .L85
 1211 001e 1B68     		ldr	r3, [r3]
 1212 0020 3522     		movs	r2, #53
 1213 0022 0021     		movs	r1, #0
 1214 0024 9954     		strb	r1, [r3, r2]
1020:..\..\..\..\..\..\Software\uCOS-III\Source/os_core.c **** 
1021:..\..\..\..\..\..\Software\uCOS-III\Source/os_core.c ****     OS_TaskBlock(OSTCBCurPtr,                                   /* Block the task and add it to the
 1215              		.loc 1 1021 0
 1216 0026 164B     		ldr	r3, .L85
 1217 0028 1B68     		ldr	r3, [r3]
 1218 002a 3A68     		ldr	r2, [r7]
 1219 002c 1100     		movs	r1, r2
 1220 002e 1800     		movs	r0, r3
 1221 0030 FFF7FEFF 		bl	OS_TaskBlock
1022:..\..\..\..\..\..\Software\uCOS-III\Source/os_core.c ****                  timeout);
1023:..\..\..\..\..\..\Software\uCOS-III\Source/os_core.c **** 
1024:..\..\..\..\..\..\Software\uCOS-III\Source/os_core.c ****     if (p_obj != DEF_NULL) {                                    /* Add the current task to the pend
 1222              		.loc 1 1024 0
 1223 0034 BB68     		ldr	r3, [r7, #8]
 1224 0036 002B     		cmp	r3, #0
 1225 0038 13D0     		beq	.L83
1025:..\..\..\..\..\..\Software\uCOS-III\Source/os_core.c ****         p_pend_list             = &p_obj->PendList;             /* ... if there is an object to pen
 1226              		.loc 1 1025 0
 1227 003a BB68     		ldr	r3, [r7, #8]
 1228 003c 0833     		adds	r3, r3, #8
 1229 003e 7B61     		str	r3, [r7, #20]
1026:..\..\..\..\..\..\Software\uCOS-III\Source/os_core.c ****         p_pend_data->PendObjPtr = p_obj;                        /* Save the pointer to the object p
 1230              		.loc 1 1026 0
 1231 0040 FB68     		ldr	r3, [r7, #12]
 1232 0042 BA68     		ldr	r2, [r7, #8]
 1233 0044 DA60     		str	r2, [r3, #12]
1027:..\..\..\..\..\..\Software\uCOS-III\Source/os_core.c ****         OS_PendDataInit(OSTCBCurPtr,                            /* Initialize the remaining field  
 1234              		.loc 1 1027 0
 1235 0046 0E4B     		ldr	r3, .L85
 1236 0048 1B68     		ldr	r3, [r3]
ARM GAS  C:\Users\ADMINI~1\AppData\Local\Temp\cczjWrOu.s 			page 41


 1237 004a F968     		ldr	r1, [r7, #12]
 1238 004c 0122     		movs	r2, #1
 1239 004e 1800     		movs	r0, r3
 1240 0050 FFF7FEFF 		bl	OS_PendDataInit
1028:..\..\..\..\..\..\Software\uCOS-III\Source/os_core.c ****                         p_pend_data,
1029:..\..\..\..\..\..\Software\uCOS-III\Source/os_core.c ****                         1u);
1030:..\..\..\..\..\..\Software\uCOS-III\Source/os_core.c ****         OS_PendListInsertPrio(p_pend_list,                      /* Insert in the pend list in prior
 1241              		.loc 1 1030 0
 1242 0054 FA68     		ldr	r2, [r7, #12]
 1243 0056 7B69     		ldr	r3, [r7, #20]
 1244 0058 1100     		movs	r1, r2
 1245 005a 1800     		movs	r0, r3
 1246 005c FFF7FEFF 		bl	OS_PendListInsertPrio
 1247 0060 03E0     		b	.L84
 1248              	.L83:
1031:..\..\..\..\..\..\Software\uCOS-III\Source/os_core.c ****                               p_pend_data);
1032:..\..\..\..\..\..\Software\uCOS-III\Source/os_core.c ****     } else {
1033:..\..\..\..\..\..\Software\uCOS-III\Source/os_core.c **** #if (OS_CFG_PEND_MULTI_EN == DEF_ENABLED)
1034:..\..\..\..\..\..\Software\uCOS-III\Source/os_core.c ****         OSTCBCurPtr->PendDataTblEntries = 0u;                   /* If no object being pended on the
1035:..\..\..\..\..\..\Software\uCOS-III\Source/os_core.c **** #endif
1036:..\..\..\..\..\..\Software\uCOS-III\Source/os_core.c ****         OSTCBCurPtr->PendDataTblPtr     = DEF_NULL;             /* ... in the TCB                  
 1249              		.loc 1 1036 0
 1250 0062 074B     		ldr	r3, .L85
 1251 0064 1B68     		ldr	r3, [r3]
 1252 0066 0022     		movs	r2, #0
 1253 0068 1A63     		str	r2, [r3, #48]
 1254              	.L84:
1037:..\..\..\..\..\..\Software\uCOS-III\Source/os_core.c ****     }
1038:..\..\..\..\..\..\Software\uCOS-III\Source/os_core.c **** #if (OS_CFG_DBG_EN == DEF_ENABLED)
1039:..\..\..\..\..\..\Software\uCOS-III\Source/os_core.c ****     OS_PendDbgNameAdd(p_obj,
 1255              		.loc 1 1039 0
 1256 006a 054B     		ldr	r3, .L85
 1257 006c 1A68     		ldr	r2, [r3]
 1258 006e BB68     		ldr	r3, [r7, #8]
 1259 0070 1100     		movs	r1, r2
 1260 0072 1800     		movs	r0, r3
 1261 0074 FFF7FEFF 		bl	OS_PendDbgNameAdd
1040:..\..\..\..\..\..\Software\uCOS-III\Source/os_core.c ****                       OSTCBCurPtr);
1041:..\..\..\..\..\..\Software\uCOS-III\Source/os_core.c **** #endif
1042:..\..\..\..\..\..\Software\uCOS-III\Source/os_core.c **** }
 1262              		.loc 1 1042 0
 1263 0078 C046     		nop
 1264 007a BD46     		mov	sp, r7
 1265 007c 06B0     		add	sp, sp, #24
 1266              		@ sp needed
 1267 007e 80BD     		pop	{r7, pc}
 1268              	.L86:
 1269              		.align	2
 1270              	.L85:
 1271 0080 00000000 		.word	OSTCBCurPtr
 1272              		.cfi_endproc
 1273              	.LFE10:
 1274              		.size	OS_Pend, .-OS_Pend
 1275              		.section	.text.OS_PendAbort,"ax",%progbits
 1276              		.align	2
 1277              		.global	OS_PendAbort
 1278              		.code	16
ARM GAS  C:\Users\ADMINI~1\AppData\Local\Temp\cczjWrOu.s 			page 42


 1279              		.thumb_func
 1280              		.type	OS_PendAbort, %function
 1281              	OS_PendAbort:
 1282              	.LFB11:
1043:..\..\..\..\..\..\Software\uCOS-III\Source/os_core.c **** 
1044:..\..\..\..\..\..\Software\uCOS-III\Source/os_core.c **** 
1045:..\..\..\..\..\..\Software\uCOS-III\Source/os_core.c **** /*
1046:..\..\..\..\..\..\Software\uCOS-III\Source/os_core.c **** ***************************************************************************************************
1047:..\..\..\..\..\..\Software\uCOS-III\Source/os_core.c **** *                                                     ABORT PENDING
1048:..\..\..\..\..\..\Software\uCOS-III\Source/os_core.c **** *
1049:..\..\..\..\..\..\Software\uCOS-III\Source/os_core.c **** * Description: This function is called by OSxxxPendAbort() functions to abort pending on an event.
1050:..\..\..\..\..\..\Software\uCOS-III\Source/os_core.c **** *
1051:..\..\..\..\..\..\Software\uCOS-III\Source/os_core.c **** * Arguments  : p_obj          Is a pointer to the object to pend abort.
1052:..\..\..\..\..\..\Software\uCOS-III\Source/os_core.c **** *              -----
1053:..\..\..\..\..\..\Software\uCOS-III\Source/os_core.c **** *
1054:..\..\..\..\..\..\Software\uCOS-III\Source/os_core.c **** *              p_tcb          Is a pointer to the OS_TCB of the task that we'll abort the pend for
1055:..\..\..\..\..\..\Software\uCOS-III\Source/os_core.c **** *              -----
1056:..\..\..\..\..\..\Software\uCOS-III\Source/os_core.c **** *
1057:..\..\..\..\..\..\Software\uCOS-III\Source/os_core.c **** *              ts             The is a timestamp as to when the pend abort occurred
1058:..\..\..\..\..\..\Software\uCOS-III\Source/os_core.c **** *
1059:..\..\..\..\..\..\Software\uCOS-III\Source/os_core.c **** * Returns    : none
1060:..\..\..\..\..\..\Software\uCOS-III\Source/os_core.c **** *
1061:..\..\..\..\..\..\Software\uCOS-III\Source/os_core.c **** * Note(s)    : 1) This function is INTERNAL to uC/OS-III and your application MUST NOT call it.
1062:..\..\..\..\..\..\Software\uCOS-III\Source/os_core.c **** ***************************************************************************************************
1063:..\..\..\..\..\..\Software\uCOS-III\Source/os_core.c **** */
1064:..\..\..\..\..\..\Software\uCOS-III\Source/os_core.c **** 
1065:..\..\..\..\..\..\Software\uCOS-III\Source/os_core.c **** void  OS_PendAbort (OS_PEND_OBJ  *p_obj,
1066:..\..\..\..\..\..\Software\uCOS-III\Source/os_core.c ****                     OS_TCB       *p_tcb,
1067:..\..\..\..\..\..\Software\uCOS-III\Source/os_core.c ****                     CPU_TS        ts)
1068:..\..\..\..\..\..\Software\uCOS-III\Source/os_core.c **** {
 1283              		.loc 1 1068 0
 1284              		.cfi_startproc
 1285              		@ args = 0, pretend = 0, frame = 16
 1286              		@ frame_needed = 1, uses_anonymous_args = 0
 1287 0000 80B5     		push	{r7, lr}
 1288              		.cfi_def_cfa_offset 8
 1289              		.cfi_offset 7, -8
 1290              		.cfi_offset 14, -4
 1291 0002 84B0     		sub	sp, sp, #16
 1292              		.cfi_def_cfa_offset 24
 1293 0004 00AF     		add	r7, sp, #0
 1294              		.cfi_def_cfa_register 7
 1295 0006 F860     		str	r0, [r7, #12]
 1296 0008 B960     		str	r1, [r7, #8]
 1297 000a 7A60     		str	r2, [r7, #4]
1069:..\..\..\..\..\..\Software\uCOS-III\Source/os_core.c **** #if (OS_CFG_TS_EN == DEF_DISABLED)
1070:..\..\..\..\..\..\Software\uCOS-III\Source/os_core.c ****     (void)ts;                                                   /* Prevent compiler warning for not
1071:..\..\..\..\..\..\Software\uCOS-III\Source/os_core.c **** #endif
1072:..\..\..\..\..\..\Software\uCOS-III\Source/os_core.c **** 
1073:..\..\..\..\..\..\Software\uCOS-III\Source/os_core.c ****     switch (p_tcb->TaskState) {
 1298              		.loc 1 1073 0
 1299 000c BB68     		ldr	r3, [r7, #8]
 1300 000e 3622     		movs	r2, #54
 1301 0010 9B5C     		ldrb	r3, [r3, r2]
 1302 0012 022B     		cmp	r3, #2
 1303 0014 57DB     		blt	.L97
 1304 0016 032B     		cmp	r3, #3
ARM GAS  C:\Users\ADMINI~1\AppData\Local\Temp\cczjWrOu.s 			page 43


 1305 0018 03DD     		ble	.L89
 1306 001a 063B     		subs	r3, r3, #6
 1307 001c 012B     		cmp	r3, #1
 1308 001e 52D8     		bhi	.L97
 1309 0020 2AE0     		b	.L96
 1310              	.L89:
1074:..\..\..\..\..\..\Software\uCOS-III\Source/os_core.c ****         case OS_TASK_STATE_PEND:
1075:..\..\..\..\..\..\Software\uCOS-III\Source/os_core.c ****         case OS_TASK_STATE_PEND_TIMEOUT:
1076:..\..\..\..\..\..\Software\uCOS-III\Source/os_core.c **** #if (OS_CFG_PEND_MULTI_EN == DEF_ENABLED)
1077:..\..\..\..\..\..\Software\uCOS-III\Source/os_core.c ****              if (p_tcb->PendOn == OS_TASK_PEND_ON_MULTI) {
1078:..\..\..\..\..\..\Software\uCOS-III\Source/os_core.c ****                  OS_PendAbort1(p_obj,                           /* Indicate which object was pend a
1079:..\..\..\..\..\..\Software\uCOS-III\Source/os_core.c ****                                p_tcb,
1080:..\..\..\..\..\..\Software\uCOS-III\Source/os_core.c ****                                ts);
1081:..\..\..\..\..\..\Software\uCOS-III\Source/os_core.c ****              }
1082:..\..\..\..\..\..\Software\uCOS-III\Source/os_core.c **** #endif
1083:..\..\..\..\..\..\Software\uCOS-III\Source/os_core.c **** #if (OS_MSG_EN == DEF_ENABLED)
1084:..\..\..\..\..\..\Software\uCOS-III\Source/os_core.c ****              p_tcb->MsgPtr     = DEF_NULL;
 1311              		.loc 1 1084 0
 1312 0022 BB68     		ldr	r3, [r7, #8]
 1313 0024 0022     		movs	r2, #0
 1314 0026 9A65     		str	r2, [r3, #88]
1085:..\..\..\..\..\..\Software\uCOS-III\Source/os_core.c ****              p_tcb->MsgSize    = 0u;
 1315              		.loc 1 1085 0
 1316 0028 BB68     		ldr	r3, [r7, #8]
 1317 002a 5C22     		movs	r2, #92
 1318 002c 0021     		movs	r1, #0
 1319 002e 9952     		strh	r1, [r3, r2]
1086:..\..\..\..\..\..\Software\uCOS-III\Source/os_core.c **** #endif
1087:..\..\..\..\..\..\Software\uCOS-III\Source/os_core.c **** #if (OS_CFG_TS_EN == DEF_ENABLED)
1088:..\..\..\..\..\..\Software\uCOS-III\Source/os_core.c ****              p_tcb->TS         = ts;
 1320              		.loc 1 1088 0
 1321 0030 BB68     		ldr	r3, [r7, #8]
 1322 0032 7A68     		ldr	r2, [r7, #4]
 1323 0034 9A64     		str	r2, [r3, #72]
1089:..\..\..\..\..\..\Software\uCOS-III\Source/os_core.c **** #endif
1090:..\..\..\..\..\..\Software\uCOS-III\Source/os_core.c ****              if (p_obj != DEF_NULL) {
 1324              		.loc 1 1090 0
 1325 0036 FB68     		ldr	r3, [r7, #12]
 1326 0038 002B     		cmp	r3, #0
 1327 003a 03D0     		beq	.L91
1091:..\..\..\..\..\..\Software\uCOS-III\Source/os_core.c ****                  OS_PendListRemove(p_tcb);                      /* Remove task from all pend lists 
 1328              		.loc 1 1091 0
 1329 003c BB68     		ldr	r3, [r7, #8]
 1330 003e 1800     		movs	r0, r3
 1331 0040 FFF7FEFF 		bl	OS_PendListRemove
 1332              	.L91:
1092:..\..\..\..\..\..\Software\uCOS-III\Source/os_core.c ****              }
1093:..\..\..\..\..\..\Software\uCOS-III\Source/os_core.c **** #if (OS_CFG_TASK_TICK_EN == DEF_ENABLED)
1094:..\..\..\..\..\..\Software\uCOS-III\Source/os_core.c ****              if (p_tcb->TaskState == OS_TASK_STATE_PEND_TIMEOUT) {
 1333              		.loc 1 1094 0
 1334 0044 BB68     		ldr	r3, [r7, #8]
 1335 0046 3622     		movs	r2, #54
 1336 0048 9B5C     		ldrb	r3, [r3, r2]
 1337 004a 032B     		cmp	r3, #3
 1338 004c 03D1     		bne	.L92
1095:..\..\..\..\..\..\Software\uCOS-III\Source/os_core.c ****                  OS_TickListRemove(p_tcb);                      /* Remove from tick list           
 1339              		.loc 1 1095 0
ARM GAS  C:\Users\ADMINI~1\AppData\Local\Temp\cczjWrOu.s 			page 44


 1340 004e BB68     		ldr	r3, [r7, #8]
 1341 0050 1800     		movs	r0, r3
 1342 0052 FFF7FEFF 		bl	OS_TickListRemove
 1343              	.L92:
1096:..\..\..\..\..\..\Software\uCOS-III\Source/os_core.c ****              }
1097:..\..\..\..\..\..\Software\uCOS-III\Source/os_core.c **** #endif
1098:..\..\..\..\..\..\Software\uCOS-III\Source/os_core.c ****              OS_RdyListInsert(p_tcb);                           /* Insert the task in the ready lis
 1344              		.loc 1 1098 0
 1345 0056 BB68     		ldr	r3, [r7, #8]
 1346 0058 1800     		movs	r0, r3
 1347 005a FFF7FEFF 		bl	OS_RdyListInsert
1099:..\..\..\..\..\..\Software\uCOS-III\Source/os_core.c ****              p_tcb->TaskState  = OS_TASK_STATE_RDY;             /* Task will be ready              
 1348              		.loc 1 1099 0
 1349 005e BB68     		ldr	r3, [r7, #8]
 1350 0060 3622     		movs	r2, #54
 1351 0062 0021     		movs	r1, #0
 1352 0064 9954     		strb	r1, [r3, r2]
1100:..\..\..\..\..\..\Software\uCOS-III\Source/os_core.c ****              p_tcb->PendStatus = OS_STATUS_PEND_ABORT;          /* Indicate pend was aborted       
 1353              		.loc 1 1100 0
 1354 0066 BB68     		ldr	r3, [r7, #8]
 1355 0068 3522     		movs	r2, #53
 1356 006a 0121     		movs	r1, #1
 1357 006c 9954     		strb	r1, [r3, r2]
1101:..\..\..\..\..\..\Software\uCOS-III\Source/os_core.c ****              p_tcb->PendOn     = OS_TASK_PEND_ON_NOTHING;       /* Indicate no longer pending      
 1358              		.loc 1 1101 0
 1359 006e BB68     		ldr	r3, [r7, #8]
 1360 0070 3422     		movs	r2, #52
 1361 0072 0021     		movs	r1, #0
 1362 0074 9954     		strb	r1, [r3, r2]
1102:..\..\..\..\..\..\Software\uCOS-III\Source/os_core.c ****              break;
 1363              		.loc 1 1102 0
 1364 0076 27E0     		b	.L93
 1365              	.L96:
1103:..\..\..\..\..\..\Software\uCOS-III\Source/os_core.c **** 
1104:..\..\..\..\..\..\Software\uCOS-III\Source/os_core.c ****         case OS_TASK_STATE_PEND_SUSPENDED:
1105:..\..\..\..\..\..\Software\uCOS-III\Source/os_core.c ****         case OS_TASK_STATE_PEND_TIMEOUT_SUSPENDED:
1106:..\..\..\..\..\..\Software\uCOS-III\Source/os_core.c **** #if (OS_CFG_PEND_MULTI_EN == DEF_ENABLED)
1107:..\..\..\..\..\..\Software\uCOS-III\Source/os_core.c ****              if (p_tcb->PendOn == OS_TASK_PEND_ON_MULTI) {
1108:..\..\..\..\..\..\Software\uCOS-III\Source/os_core.c ****                  OS_PendAbort1(p_obj,                           /* Indicate which object was pend a
1109:..\..\..\..\..\..\Software\uCOS-III\Source/os_core.c ****                                p_tcb,
1110:..\..\..\..\..\..\Software\uCOS-III\Source/os_core.c ****                                ts);
1111:..\..\..\..\..\..\Software\uCOS-III\Source/os_core.c ****              }
1112:..\..\..\..\..\..\Software\uCOS-III\Source/os_core.c **** #endif
1113:..\..\..\..\..\..\Software\uCOS-III\Source/os_core.c **** #if (OS_MSG_EN == DEF_ENABLED)
1114:..\..\..\..\..\..\Software\uCOS-III\Source/os_core.c ****              p_tcb->MsgPtr     = DEF_NULL;
 1366              		.loc 1 1114 0
 1367 0078 BB68     		ldr	r3, [r7, #8]
 1368 007a 0022     		movs	r2, #0
 1369 007c 9A65     		str	r2, [r3, #88]
1115:..\..\..\..\..\..\Software\uCOS-III\Source/os_core.c ****              p_tcb->MsgSize    = 0u;
 1370              		.loc 1 1115 0
 1371 007e BB68     		ldr	r3, [r7, #8]
 1372 0080 5C22     		movs	r2, #92
 1373 0082 0021     		movs	r1, #0
 1374 0084 9952     		strh	r1, [r3, r2]
1116:..\..\..\..\..\..\Software\uCOS-III\Source/os_core.c **** #endif
1117:..\..\..\..\..\..\Software\uCOS-III\Source/os_core.c **** #if (OS_CFG_TS_EN == DEF_ENABLED)
ARM GAS  C:\Users\ADMINI~1\AppData\Local\Temp\cczjWrOu.s 			page 45


1118:..\..\..\..\..\..\Software\uCOS-III\Source/os_core.c ****              p_tcb->TS         = ts;
 1375              		.loc 1 1118 0
 1376 0086 BB68     		ldr	r3, [r7, #8]
 1377 0088 7A68     		ldr	r2, [r7, #4]
 1378 008a 9A64     		str	r2, [r3, #72]
1119:..\..\..\..\..\..\Software\uCOS-III\Source/os_core.c **** #endif
1120:..\..\..\..\..\..\Software\uCOS-III\Source/os_core.c ****              if (p_obj != DEF_NULL) {
 1379              		.loc 1 1120 0
 1380 008c FB68     		ldr	r3, [r7, #12]
 1381 008e 002B     		cmp	r3, #0
 1382 0090 03D0     		beq	.L94
1121:..\..\..\..\..\..\Software\uCOS-III\Source/os_core.c ****                  OS_PendListRemove(p_tcb);                      /* Remove task from all pend lists 
 1383              		.loc 1 1121 0
 1384 0092 BB68     		ldr	r3, [r7, #8]
 1385 0094 1800     		movs	r0, r3
 1386 0096 FFF7FEFF 		bl	OS_PendListRemove
 1387              	.L94:
1122:..\..\..\..\..\..\Software\uCOS-III\Source/os_core.c ****              }
1123:..\..\..\..\..\..\Software\uCOS-III\Source/os_core.c **** #if (OS_CFG_TASK_TICK_EN == DEF_ENABLED)
1124:..\..\..\..\..\..\Software\uCOS-III\Source/os_core.c ****              if (p_tcb->TaskState == OS_TASK_STATE_PEND_TIMEOUT_SUSPENDED) {
 1388              		.loc 1 1124 0
 1389 009a BB68     		ldr	r3, [r7, #8]
 1390 009c 3622     		movs	r2, #54
 1391 009e 9B5C     		ldrb	r3, [r3, r2]
 1392 00a0 072B     		cmp	r3, #7
 1393 00a2 03D1     		bne	.L95
1125:..\..\..\..\..\..\Software\uCOS-III\Source/os_core.c ****                  OS_TickListRemove(p_tcb);                      /* Cancel the timeout              
 1394              		.loc 1 1125 0
 1395 00a4 BB68     		ldr	r3, [r7, #8]
 1396 00a6 1800     		movs	r0, r3
 1397 00a8 FFF7FEFF 		bl	OS_TickListRemove
 1398              	.L95:
1126:..\..\..\..\..\..\Software\uCOS-III\Source/os_core.c ****              }
1127:..\..\..\..\..\..\Software\uCOS-III\Source/os_core.c **** #endif
1128:..\..\..\..\..\..\Software\uCOS-III\Source/os_core.c ****              p_tcb->TaskState  = OS_TASK_STATE_SUSPENDED;       /* Pend Aborted task is still suspe
 1399              		.loc 1 1128 0
 1400 00ac BB68     		ldr	r3, [r7, #8]
 1401 00ae 3622     		movs	r2, #54
 1402 00b0 0421     		movs	r1, #4
 1403 00b2 9954     		strb	r1, [r3, r2]
1129:..\..\..\..\..\..\Software\uCOS-III\Source/os_core.c ****              p_tcb->PendStatus = OS_STATUS_PEND_ABORT;          /* Indicate pend was aborted       
 1404              		.loc 1 1129 0
 1405 00b4 BB68     		ldr	r3, [r7, #8]
 1406 00b6 3522     		movs	r2, #53
 1407 00b8 0121     		movs	r1, #1
 1408 00ba 9954     		strb	r1, [r3, r2]
1130:..\..\..\..\..\..\Software\uCOS-III\Source/os_core.c ****              p_tcb->PendOn     = OS_TASK_PEND_ON_NOTHING;       /* Indicate no longer pending      
 1409              		.loc 1 1130 0
 1410 00bc BB68     		ldr	r3, [r7, #8]
 1411 00be 3422     		movs	r2, #52
 1412 00c0 0021     		movs	r1, #0
 1413 00c2 9954     		strb	r1, [r3, r2]
1131:..\..\..\..\..\..\Software\uCOS-III\Source/os_core.c ****              break;
 1414              		.loc 1 1131 0
 1415 00c4 00E0     		b	.L93
 1416              	.L97:
1132:..\..\..\..\..\..\Software\uCOS-III\Source/os_core.c **** 
ARM GAS  C:\Users\ADMINI~1\AppData\Local\Temp\cczjWrOu.s 			page 46


1133:..\..\..\..\..\..\Software\uCOS-III\Source/os_core.c ****         case OS_TASK_STATE_RDY:                                 /* Cannot Pend Abort a task that is
1134:..\..\..\..\..\..\Software\uCOS-III\Source/os_core.c ****         case OS_TASK_STATE_DLY:                                 /* Cannot Pend Abort a task that is
1135:..\..\..\..\..\..\Software\uCOS-III\Source/os_core.c ****         case OS_TASK_STATE_SUSPENDED:                           /* Cannot Pend Abort a suspended ta
1136:..\..\..\..\..\..\Software\uCOS-III\Source/os_core.c ****         case OS_TASK_STATE_DLY_SUSPENDED:                       /* Cannot Pend Abort a suspended ta
1137:..\..\..\..\..\..\Software\uCOS-III\Source/os_core.c ****         default:
1138:..\..\..\..\..\..\Software\uCOS-III\Source/os_core.c ****              break;
 1417              		.loc 1 1138 0
 1418 00c6 C046     		nop
 1419              	.L93:
1139:..\..\..\..\..\..\Software\uCOS-III\Source/os_core.c ****     }
1140:..\..\..\..\..\..\Software\uCOS-III\Source/os_core.c **** }
 1420              		.loc 1 1140 0
 1421 00c8 C046     		nop
 1422 00ca BD46     		mov	sp, r7
 1423 00cc 04B0     		add	sp, sp, #16
 1424              		@ sp needed
 1425 00ce 80BD     		pop	{r7, pc}
 1426              		.cfi_endproc
 1427              	.LFE11:
 1428              		.size	OS_PendAbort, .-OS_PendAbort
 1429              		.section	.text.OS_PendDataInit,"ax",%progbits
 1430              		.align	2
 1431              		.global	OS_PendDataInit
 1432              		.code	16
 1433              		.thumb_func
 1434              		.type	OS_PendDataInit, %function
 1435              	OS_PendDataInit:
 1436              	.LFB12:
1141:..\..\..\..\..\..\Software\uCOS-III\Source/os_core.c **** 
1142:..\..\..\..\..\..\Software\uCOS-III\Source/os_core.c **** 
1143:..\..\..\..\..\..\Software\uCOS-III\Source/os_core.c **** /*
1144:..\..\..\..\..\..\Software\uCOS-III\Source/os_core.c **** ***************************************************************************************************
1145:..\..\..\..\..\..\Software\uCOS-III\Source/os_core.c **** *                                           PEND ABORT A TASK PENDING ON MULTIPLE OBJECTS
1146:..\..\..\..\..\..\Software\uCOS-III\Source/os_core.c **** *
1147:..\..\..\..\..\..\Software\uCOS-III\Source/os_core.c **** * Description: This function is called when a task is pending on multiple objects and one of the ob
1148:..\..\..\..\..\..\Software\uCOS-III\Source/os_core.c **** *              aborted.  This function needs to indicate to the caller which object was pend aborte
1149:..\..\..\..\..\..\Software\uCOS-III\Source/os_core.c **** *              address of the object in the OS_PEND_DATA table corresponding to the pend aborted ob
1150:..\..\..\..\..\..\Software\uCOS-III\Source/os_core.c **** *
1151:..\..\..\..\..\..\Software\uCOS-III\Source/os_core.c **** *              For example, if the task pends on six (6) objects, the address of those 6 objects ar
1152:..\..\..\..\..\..\Software\uCOS-III\Source/os_core.c **** *              .PendObjPtr field of the OS_PEND_DATA table as shown below.  Note that the .PendData
1153:..\..\..\..\..\..\Software\uCOS-III\Source/os_core.c **** *              OS_TCB would be set to six (6) in this case.  As shown, when the pend call returns b
1154:..\..\..\..\..\..\Software\uCOS-III\Source/os_core.c **** *              aborted 'Obj C' then, only the one entry contains the .RdyObjPtr filled in data and 
1155:..\..\..\..\..\..\Software\uCOS-III\Source/os_core.c **** *              contains NULL pointers and zero data.
1156:..\..\..\..\..\..\Software\uCOS-III\Source/os_core.c **** *
1157:..\..\..\..\..\..\Software\uCOS-III\Source/os_core.c **** *              You should note that the NULL pointers are zero data values are actually filled in b
1158:..\..\..\..\..\..\Software\uCOS-III\Source/os_core.c **** *
1159:..\..\..\..\..\..\Software\uCOS-III\Source/os_core.c **** *
1160:..\..\..\..\..\..\Software\uCOS-III\Source/os_core.c **** *                                           .PendObjPtr    .RdyObjPtr     .RdyMsgPtr     .RdyMsgSiz
1161:..\..\..\..\..\..\Software\uCOS-III\Source/os_core.c **** *                                         +--------------+--------------+--------------+-----------
1162:..\..\..\..\..\..\Software\uCOS-III\Source/os_core.c **** *              p_tcb->PendDataTblPtr  ->  |  Obj A       |  0           | 0            | 0         
1163:..\..\..\..\..\..\Software\uCOS-III\Source/os_core.c **** *                                         +--------------+--------------+--------------+-----------
1164:..\..\..\..\..\..\Software\uCOS-III\Source/os_core.c **** *                                         |  Obj B       |  0           | 0            | 0         
1165:..\..\..\..\..\..\Software\uCOS-III\Source/os_core.c **** *                                         +--------------+--------------+--------------+-----------
1166:..\..\..\..\..\..\Software\uCOS-III\Source/os_core.c **** *                                         |  Obj C       |  Obj C       | 0            | 0         
1167:..\..\..\..\..\..\Software\uCOS-III\Source/os_core.c **** *                                         +--------------+--------------+--------------+-----------
1168:..\..\..\..\..\..\Software\uCOS-III\Source/os_core.c **** *                                         |  Obj D       |  0           | 0            | 0         
1169:..\..\..\..\..\..\Software\uCOS-III\Source/os_core.c **** *                                         +--------------+--------------+--------------+-----------
ARM GAS  C:\Users\ADMINI~1\AppData\Local\Temp\cczjWrOu.s 			page 47


1170:..\..\..\..\..\..\Software\uCOS-III\Source/os_core.c **** *                                         |  Obj E       |  0           | 0            | 0         
1171:..\..\..\..\..\..\Software\uCOS-III\Source/os_core.c **** *                                         +--------------+--------------+--------------+-----------
1172:..\..\..\..\..\..\Software\uCOS-III\Source/os_core.c **** *                                         |  Obj F       |  0           | 0            | 0         
1173:..\..\..\..\..\..\Software\uCOS-III\Source/os_core.c **** *                                         +--------------+--------------+--------------+-----------
1174:..\..\..\..\..\..\Software\uCOS-III\Source/os_core.c **** *
1175:..\..\..\..\..\..\Software\uCOS-III\Source/os_core.c **** *
1176:..\..\..\..\..\..\Software\uCOS-III\Source/os_core.c **** * Arguments  : p_obj        is a pointer to the object being pend aborted to
1177:..\..\..\..\..\..\Software\uCOS-III\Source/os_core.c **** *              -----
1178:..\..\..\..\..\..\Software\uCOS-III\Source/os_core.c **** *
1179:..\..\..\..\..\..\Software\uCOS-III\Source/os_core.c **** *              p_tcb        is a pointer to the OS_TCB of the task that we'll abort he pend for
1180:..\..\..\..\..\..\Software\uCOS-III\Source/os_core.c **** *              -----
1181:..\..\..\..\..\..\Software\uCOS-III\Source/os_core.c **** *
1182:..\..\..\..\..\..\Software\uCOS-III\Source/os_core.c **** *              ts           is the time stamp of when the pend abort occurred
1183:..\..\..\..\..\..\Software\uCOS-III\Source/os_core.c **** *
1184:..\..\..\..\..\..\Software\uCOS-III\Source/os_core.c **** * Returns    : none
1185:..\..\..\..\..\..\Software\uCOS-III\Source/os_core.c **** *
1186:..\..\..\..\..\..\Software\uCOS-III\Source/os_core.c **** * Note(s)    : 1) This function is INTERNAL to uC/OS-III and your application MUST NOT call it.
1187:..\..\..\..\..\..\Software\uCOS-III\Source/os_core.c **** *
1188:..\..\..\..\..\..\Software\uCOS-III\Source/os_core.c **** *              2) This function is DEPRECATED, see OSPendMulti() note 1 for details.
1189:..\..\..\..\..\..\Software\uCOS-III\Source/os_core.c **** ***************************************************************************************************
1190:..\..\..\..\..\..\Software\uCOS-III\Source/os_core.c **** */
1191:..\..\..\..\..\..\Software\uCOS-III\Source/os_core.c **** #if (OS_CFG_PEND_MULTI_EN == DEF_ENABLED)
1192:..\..\..\..\..\..\Software\uCOS-III\Source/os_core.c **** void  OS_PendAbort1 (OS_PEND_OBJ  *p_obj,
1193:..\..\..\..\..\..\Software\uCOS-III\Source/os_core.c ****                      OS_TCB       *p_tcb,
1194:..\..\..\..\..\..\Software\uCOS-III\Source/os_core.c ****                      CPU_TS        ts)
1195:..\..\..\..\..\..\Software\uCOS-III\Source/os_core.c **** {
1196:..\..\..\..\..\..\Software\uCOS-III\Source/os_core.c ****     OS_OBJ_QTY      n_pend_list;                                /* Number of pend lists            
1197:..\..\..\..\..\..\Software\uCOS-III\Source/os_core.c ****     OS_PEND_DATA   *p_pend_data;
1198:..\..\..\..\..\..\Software\uCOS-III\Source/os_core.c **** 
1199:..\..\..\..\..\..\Software\uCOS-III\Source/os_core.c **** 
1200:..\..\..\..\..\..\Software\uCOS-III\Source/os_core.c **** #if (OS_CFG_TS_EN == DEF_DISABLED)
1201:..\..\..\..\..\..\Software\uCOS-III\Source/os_core.c ****     (void)ts;                                                   /* Prevent compiler warning for not
1202:..\..\..\..\..\..\Software\uCOS-III\Source/os_core.c **** #endif
1203:..\..\..\..\..\..\Software\uCOS-III\Source/os_core.c **** 
1204:..\..\..\..\..\..\Software\uCOS-III\Source/os_core.c ****     p_pend_data = p_tcb->PendDataTblPtr;                        /* Point to the first OS_PEND_DATA 
1205:..\..\..\..\..\..\Software\uCOS-III\Source/os_core.c ****     n_pend_list = p_tcb->PendDataTblEntries;                    /* Get number of entries in the tab
1206:..\..\..\..\..\..\Software\uCOS-III\Source/os_core.c **** 
1207:..\..\..\..\..\..\Software\uCOS-III\Source/os_core.c ****     while (n_pend_list > 0u) {                                  /* Mark posted object in OS_PEND_DA
1208:..\..\..\..\..\..\Software\uCOS-III\Source/os_core.c ****         if (p_obj == p_pend_data->PendObjPtr) {                 /* Did we find the object pend abor
1209:..\..\..\..\..\..\Software\uCOS-III\Source/os_core.c ****             p_pend_data->RdyObjPtr = p_obj;                     /* Yes, indicate the object in the 
1210:..\..\..\..\..\..\Software\uCOS-III\Source/os_core.c **** #if (OS_CFG_TS_EN == DEF_ENABLED)
1211:..\..\..\..\..\..\Software\uCOS-III\Source/os_core.c ****             p_pend_data->RdyTS     = ts;                        /* save the timestamp of the pend a
1212:..\..\..\..\..\..\Software\uCOS-III\Source/os_core.c **** #endif
1213:..\..\..\..\..\..\Software\uCOS-III\Source/os_core.c ****             break;
1214:..\..\..\..\..\..\Software\uCOS-III\Source/os_core.c ****         }
1215:..\..\..\..\..\..\Software\uCOS-III\Source/os_core.c ****         p_pend_data++;
1216:..\..\..\..\..\..\Software\uCOS-III\Source/os_core.c ****         n_pend_list--;
1217:..\..\..\..\..\..\Software\uCOS-III\Source/os_core.c ****     }
1218:..\..\..\..\..\..\Software\uCOS-III\Source/os_core.c **** }
1219:..\..\..\..\..\..\Software\uCOS-III\Source/os_core.c **** #endif
1220:..\..\..\..\..\..\Software\uCOS-III\Source/os_core.c **** 
1221:..\..\..\..\..\..\Software\uCOS-III\Source/os_core.c **** /*
1222:..\..\..\..\..\..\Software\uCOS-III\Source/os_core.c **** ***************************************************************************************************
1223:..\..\..\..\..\..\Software\uCOS-III\Source/os_core.c **** *                                              INITIALIZE A WAIT LIST TABLE
1224:..\..\..\..\..\..\Software\uCOS-III\Source/os_core.c **** *
1225:..\..\..\..\..\..\Software\uCOS-III\Source/os_core.c **** * Description: This function is called to initialize the fields of a table of OS_PEND_DATA entries.
1226:..\..\..\..\..\..\Software\uCOS-III\Source/os_core.c **** *              the .PendObjPtr field of each entry in the table is set by the caller and thus will 
ARM GAS  C:\Users\ADMINI~1\AppData\Local\Temp\cczjWrOu.s 			page 48


1227:..\..\..\..\..\..\Software\uCOS-III\Source/os_core.c **** *              this function.
1228:..\..\..\..\..\..\Software\uCOS-III\Source/os_core.c **** *
1229:..\..\..\..\..\..\Software\uCOS-III\Source/os_core.c **** * Arguments  : p_tcb              is a pointer to the TCB of the task that we want to pend abort.
1230:..\..\..\..\..\..\Software\uCOS-III\Source/os_core.c **** *              -----
1231:..\..\..\..\..\..\Software\uCOS-III\Source/os_core.c **** *
1232:..\..\..\..\..\..\Software\uCOS-III\Source/os_core.c **** *              p_pend_data_tbl    is a pointer to a table (see below) of OS_PEND_DATA elements to i
1233:..\..\..\..\..\..\Software\uCOS-III\Source/os_core.c **** *              ---------------
1234:..\..\..\..\..\..\Software\uCOS-III\Source/os_core.c **** *
1235:..\..\..\..\..\..\Software\uCOS-III\Source/os_core.c **** *                                  .PendObjPtr .RdyObjPtr .RdyMsgPtr .RdyMsgSize .RdyTS .TCBPtr .Ne
1236:..\..\..\..\..\..\Software\uCOS-III\Source/os_core.c **** *                                 +-----------+----------+----------+-----------+------+-------+---
1237:..\..\..\..\..\..\Software\uCOS-III\Source/os_core.c **** *               p_pend_data_tbl-> |     ?     |  0       | 0        | 0         | 0    | p_tcb | 0 
1238:..\..\..\..\..\..\Software\uCOS-III\Source/os_core.c **** *                                 +-----------+----------+----------+-----------+------+-------+---
1239:..\..\..\..\..\..\Software\uCOS-III\Source/os_core.c **** *                                 |     ?     |  0       | 0        | 0         | 0    | p_tcb | 0 
1240:..\..\..\..\..\..\Software\uCOS-III\Source/os_core.c **** *                                 +-----------+----------+----------+-----------+------+-------+---
1241:..\..\..\..\..\..\Software\uCOS-III\Source/os_core.c **** *                                 |     ?     |  0       | 0        | 0         | 0    | p_tcb | 0 
1242:..\..\..\..\..\..\Software\uCOS-III\Source/os_core.c **** *                                 +-----------+----------+----------+-----------+------+-------+---
1243:..\..\..\..\..\..\Software\uCOS-III\Source/os_core.c **** *                                 |     ?     |  0       | 0        | 0         | 0    | p_tcb | 0 
1244:..\..\..\..\..\..\Software\uCOS-III\Source/os_core.c **** *                                 +-----------+----------+----------+-----------+------+-------+---
1245:..\..\..\..\..\..\Software\uCOS-III\Source/os_core.c **** *                                 |     ?     |  0       | 0        | 0         | 0    | p_tcb | 0 
1246:..\..\..\..\..\..\Software\uCOS-III\Source/os_core.c **** *                                 +-----------+----------+----------+-----------+------+-------+---
1247:..\..\..\..\..\..\Software\uCOS-III\Source/os_core.c **** *                                 |     ?     |  0       | 0        | 0         | 0    | p_tcb | 0 
1248:..\..\..\..\..\..\Software\uCOS-III\Source/os_core.c **** *                                 +-----------+----------+----------+-----------+------+-------+---
1249:..\..\..\..\..\..\Software\uCOS-III\Source/os_core.c **** *
1250:..\..\..\..\..\..\Software\uCOS-III\Source/os_core.c **** *              tbl_size           is the size of the table in number of entries
1251:..\..\..\..\..\..\Software\uCOS-III\Source/os_core.c **** *
1252:..\..\..\..\..\..\Software\uCOS-III\Source/os_core.c **** * Returns    : none
1253:..\..\..\..\..\..\Software\uCOS-III\Source/os_core.c **** *
1254:..\..\..\..\..\..\Software\uCOS-III\Source/os_core.c **** * Note(s)    : 1) This function is INTERNAL to uC/OS-III and your application must not call it.
1255:..\..\..\..\..\..\Software\uCOS-III\Source/os_core.c **** *
1256:..\..\..\..\..\..\Software\uCOS-III\Source/os_core.c **** *              2) It's possible for the table to be of size 1 when multi-pend is not used
1257:..\..\..\..\..\..\Software\uCOS-III\Source/os_core.c **** *
1258:..\..\..\..\..\..\Software\uCOS-III\Source/os_core.c **** *              3) Note that the .PendObjPtr is NOT touched because it's assumed to be set by the ca
1259:..\..\..\..\..\..\Software\uCOS-III\Source/os_core.c **** ***************************************************************************************************
1260:..\..\..\..\..\..\Software\uCOS-III\Source/os_core.c **** */
1261:..\..\..\..\..\..\Software\uCOS-III\Source/os_core.c **** 
1262:..\..\..\..\..\..\Software\uCOS-III\Source/os_core.c **** void  OS_PendDataInit (OS_TCB        *p_tcb,
1263:..\..\..\..\..\..\Software\uCOS-III\Source/os_core.c ****                        OS_PEND_DATA  *p_pend_data_tbl,
1264:..\..\..\..\..\..\Software\uCOS-III\Source/os_core.c ****                        OS_OBJ_QTY     tbl_size)
1265:..\..\..\..\..\..\Software\uCOS-III\Source/os_core.c **** {
 1437              		.loc 1 1265 0
 1438              		.cfi_startproc
 1439              		@ args = 0, pretend = 0, frame = 16
 1440              		@ frame_needed = 1, uses_anonymous_args = 0
 1441 0000 80B5     		push	{r7, lr}
 1442              		.cfi_def_cfa_offset 8
 1443              		.cfi_offset 7, -8
 1444              		.cfi_offset 14, -4
 1445 0002 84B0     		sub	sp, sp, #16
 1446              		.cfi_def_cfa_offset 24
 1447 0004 00AF     		add	r7, sp, #0
 1448              		.cfi_def_cfa_register 7
 1449 0006 F860     		str	r0, [r7, #12]
 1450 0008 B960     		str	r1, [r7, #8]
 1451 000a BB1D     		adds	r3, r7, #6
 1452 000c 1A80     		strh	r2, [r3]
1266:..\..\..\..\..\..\Software\uCOS-III\Source/os_core.c **** #if (OS_CFG_PEND_MULTI_EN == DEF_ENABLED)
1267:..\..\..\..\..\..\Software\uCOS-III\Source/os_core.c ****     OS_OBJ_QTY  i;
ARM GAS  C:\Users\ADMINI~1\AppData\Local\Temp\cczjWrOu.s 			page 49


1268:..\..\..\..\..\..\Software\uCOS-III\Source/os_core.c **** #endif
1269:..\..\..\..\..\..\Software\uCOS-III\Source/os_core.c **** 
1270:..\..\..\..\..\..\Software\uCOS-III\Source/os_core.c **** 
1271:..\..\..\..\..\..\Software\uCOS-III\Source/os_core.c **** #if (OS_CFG_PEND_MULTI_EN == DEF_ENABLED)
1272:..\..\..\..\..\..\Software\uCOS-III\Source/os_core.c ****     p_tcb->PendDataTblEntries = tbl_size;                       /* Link the TCB to the beginning of
1273:..\..\..\..\..\..\Software\uCOS-III\Source/os_core.c ****     p_tcb->PendDataTblPtr     = p_pend_data_tbl;
1274:..\..\..\..\..\..\Software\uCOS-III\Source/os_core.c **** 
1275:..\..\..\..\..\..\Software\uCOS-III\Source/os_core.c ****     for (i = 0u; i < tbl_size; i++) {
1276:..\..\..\..\..\..\Software\uCOS-III\Source/os_core.c ****         p_pend_data_tbl->NextPtr    = DEF_NULL;                 /* Initialize all the fields       
1277:..\..\..\..\..\..\Software\uCOS-III\Source/os_core.c ****         p_pend_data_tbl->PrevPtr    = DEF_NULL;
1278:..\..\..\..\..\..\Software\uCOS-III\Source/os_core.c ****         p_pend_data_tbl->RdyObjPtr  = DEF_NULL;
1279:..\..\..\..\..\..\Software\uCOS-III\Source/os_core.c ****         p_pend_data_tbl->RdyMsgPtr  = DEF_NULL;
1280:..\..\..\..\..\..\Software\uCOS-III\Source/os_core.c ****         p_pend_data_tbl->RdyMsgSize = 0u;
1281:..\..\..\..\..\..\Software\uCOS-III\Source/os_core.c **** #if (OS_CFG_TS_EN == DEF_ENABLED)
1282:..\..\..\..\..\..\Software\uCOS-III\Source/os_core.c ****         p_pend_data_tbl->RdyTS      = 0u;
1283:..\..\..\..\..\..\Software\uCOS-III\Source/os_core.c **** #endif
1284:..\..\..\..\..\..\Software\uCOS-III\Source/os_core.c ****         p_pend_data_tbl->TCBPtr     = p_tcb;                    /* Every entry points back to the T
1285:..\..\..\..\..\..\Software\uCOS-III\Source/os_core.c ****         p_pend_data_tbl++;
1286:..\..\..\..\..\..\Software\uCOS-III\Source/os_core.c ****     }
1287:..\..\..\..\..\..\Software\uCOS-III\Source/os_core.c **** #else
1288:..\..\..\..\..\..\Software\uCOS-III\Source/os_core.c ****     (void)tbl_size;
1289:..\..\..\..\..\..\Software\uCOS-III\Source/os_core.c **** 
1290:..\..\..\..\..\..\Software\uCOS-III\Source/os_core.c ****     p_tcb->PendDataTblPtr       = p_pend_data_tbl;
 1453              		.loc 1 1290 0
 1454 000e FB68     		ldr	r3, [r7, #12]
 1455 0010 BA68     		ldr	r2, [r7, #8]
 1456 0012 1A63     		str	r2, [r3, #48]
1291:..\..\..\..\..\..\Software\uCOS-III\Source/os_core.c **** 
1292:..\..\..\..\..\..\Software\uCOS-III\Source/os_core.c ****     p_pend_data_tbl->NextPtr    = DEF_NULL;        /* Initialize all the fields                    
 1457              		.loc 1 1292 0
 1458 0014 BB68     		ldr	r3, [r7, #8]
 1459 0016 0022     		movs	r2, #0
 1460 0018 5A60     		str	r2, [r3, #4]
1293:..\..\..\..\..\..\Software\uCOS-III\Source/os_core.c ****     p_pend_data_tbl->PrevPtr    = DEF_NULL;
 1461              		.loc 1 1293 0
 1462 001a BB68     		ldr	r3, [r7, #8]
 1463 001c 0022     		movs	r2, #0
 1464 001e 1A60     		str	r2, [r3]
1294:..\..\..\..\..\..\Software\uCOS-III\Source/os_core.c ****     p_pend_data_tbl->RdyObjPtr  = DEF_NULL;
 1465              		.loc 1 1294 0
 1466 0020 BB68     		ldr	r3, [r7, #8]
 1467 0022 0022     		movs	r2, #0
 1468 0024 1A61     		str	r2, [r3, #16]
1295:..\..\..\..\..\..\Software\uCOS-III\Source/os_core.c ****     p_pend_data_tbl->RdyMsgPtr  = DEF_NULL;
 1469              		.loc 1 1295 0
 1470 0026 BB68     		ldr	r3, [r7, #8]
 1471 0028 0022     		movs	r2, #0
 1472 002a 5A61     		str	r2, [r3, #20]
1296:..\..\..\..\..\..\Software\uCOS-III\Source/os_core.c ****     p_pend_data_tbl->RdyMsgSize = 0u;
 1473              		.loc 1 1296 0
 1474 002c BB68     		ldr	r3, [r7, #8]
 1475 002e 0022     		movs	r2, #0
 1476 0030 1A83     		strh	r2, [r3, #24]
1297:..\..\..\..\..\..\Software\uCOS-III\Source/os_core.c **** #if (OS_CFG_TS_EN == DEF_ENABLED)
1298:..\..\..\..\..\..\Software\uCOS-III\Source/os_core.c ****     p_pend_data_tbl->RdyTS      = 0u;
 1477              		.loc 1 1298 0
 1478 0032 BB68     		ldr	r3, [r7, #8]
ARM GAS  C:\Users\ADMINI~1\AppData\Local\Temp\cczjWrOu.s 			page 50


 1479 0034 0022     		movs	r2, #0
 1480 0036 DA61     		str	r2, [r3, #28]
1299:..\..\..\..\..\..\Software\uCOS-III\Source/os_core.c **** #endif
1300:..\..\..\..\..\..\Software\uCOS-III\Source/os_core.c ****     p_pend_data_tbl->TCBPtr     = p_tcb;                    /* Every entry points back to the TCB o
 1481              		.loc 1 1300 0
 1482 0038 BB68     		ldr	r3, [r7, #8]
 1483 003a FA68     		ldr	r2, [r7, #12]
 1484 003c 9A60     		str	r2, [r3, #8]
1301:..\..\..\..\..\..\Software\uCOS-III\Source/os_core.c **** #endif
1302:..\..\..\..\..\..\Software\uCOS-III\Source/os_core.c **** }
 1485              		.loc 1 1302 0
 1486 003e C046     		nop
 1487 0040 BD46     		mov	sp, r7
 1488 0042 04B0     		add	sp, sp, #16
 1489              		@ sp needed
 1490 0044 80BD     		pop	{r7, pc}
 1491              		.cfi_endproc
 1492              	.LFE12:
 1493              		.size	OS_PendDataInit, .-OS_PendDataInit
 1494 0046 C046     		.section	.rodata
 1495              		.align	2
 1496              	.LC64:
 1497 0014 5461736B 		.ascii	"Task Q\000"
 1497      205100
 1498 001b 00       		.align	2
 1499              	.LC66:
 1500 001c 5461736B 		.ascii	"Task Sem\000"
 1500      2053656D 
 1500      00
 1501 0025 000000   		.align	2
 1502              	.LC68:
 1503 0028 2000     		.ascii	" \000"
 1504              		.section	.text.OS_PendDbgNameAdd,"ax",%progbits
 1505              		.align	2
 1506              		.global	OS_PendDbgNameAdd
 1507              		.code	16
 1508              		.thumb_func
 1509              		.type	OS_PendDbgNameAdd, %function
 1510              	OS_PendDbgNameAdd:
 1511              	.LFB13:
1303:..\..\..\..\..\..\Software\uCOS-III\Source/os_core.c **** 
1304:..\..\..\..\..\..\Software\uCOS-III\Source/os_core.c **** 
1305:..\..\..\..\..\..\Software\uCOS-III\Source/os_core.c **** /*
1306:..\..\..\..\..\..\Software\uCOS-III\Source/os_core.c **** ***************************************************************************************************
1307:..\..\..\..\..\..\Software\uCOS-III\Source/os_core.c **** *                                     ADD/REMOVE DEBUG NAMES TO PENDED OBJECT AND OS_TCB
1308:..\..\..\..\..\..\Software\uCOS-III\Source/os_core.c **** *
1309:..\..\..\..\..\..\Software\uCOS-III\Source/os_core.c **** * Description: These functions are used to add pointers to ASCII 'names' of objects so they can eas
1310:..\..\..\..\..\..\Software\uCOS-III\Source/os_core.c **** *              using a kernel aware tool.
1311:..\..\..\..\..\..\Software\uCOS-III\Source/os_core.c **** *
1312:..\..\..\..\..\..\Software\uCOS-III\Source/os_core.c **** * Arguments  : p_obj              is a pointer to the object being pended on
1313:..\..\..\..\..\..\Software\uCOS-III\Source/os_core.c **** *
1314:..\..\..\..\..\..\Software\uCOS-III\Source/os_core.c **** *              p_tcb              is a pointer to the OS_TCB of the task pending on the object
1315:..\..\..\..\..\..\Software\uCOS-III\Source/os_core.c **** *
1316:..\..\..\..\..\..\Software\uCOS-III\Source/os_core.c **** * Returns    : none
1317:..\..\..\..\..\..\Software\uCOS-III\Source/os_core.c **** *
1318:..\..\..\..\..\..\Software\uCOS-III\Source/os_core.c **** * Note(s)    : 1) These functions are INTERNAL to uC/OS-III and your application must not call it.
1319:..\..\..\..\..\..\Software\uCOS-III\Source/os_core.c **** ***************************************************************************************************
ARM GAS  C:\Users\ADMINI~1\AppData\Local\Temp\cczjWrOu.s 			page 51


1320:..\..\..\..\..\..\Software\uCOS-III\Source/os_core.c **** */
1321:..\..\..\..\..\..\Software\uCOS-III\Source/os_core.c **** 
1322:..\..\..\..\..\..\Software\uCOS-III\Source/os_core.c **** 
1323:..\..\..\..\..\..\Software\uCOS-III\Source/os_core.c **** #if (OS_CFG_DBG_EN == DEF_ENABLED)
1324:..\..\..\..\..\..\Software\uCOS-III\Source/os_core.c **** void  OS_PendDbgNameAdd (OS_PEND_OBJ  *p_obj,
1325:..\..\..\..\..\..\Software\uCOS-III\Source/os_core.c ****                          OS_TCB       *p_tcb)
1326:..\..\..\..\..\..\Software\uCOS-III\Source/os_core.c **** {
 1512              		.loc 1 1326 0
 1513              		.cfi_startproc
 1514              		@ args = 0, pretend = 0, frame = 24
 1515              		@ frame_needed = 1, uses_anonymous_args = 0
 1516 0000 80B5     		push	{r7, lr}
 1517              		.cfi_def_cfa_offset 8
 1518              		.cfi_offset 7, -8
 1519              		.cfi_offset 14, -4
 1520 0002 86B0     		sub	sp, sp, #24
 1521              		.cfi_def_cfa_offset 32
 1522 0004 00AF     		add	r7, sp, #0
 1523              		.cfi_def_cfa_register 7
 1524 0006 7860     		str	r0, [r7, #4]
 1525 0008 3960     		str	r1, [r7]
1327:..\..\..\..\..\..\Software\uCOS-III\Source/os_core.c ****     OS_PEND_LIST  *p_pend_list;
1328:..\..\..\..\..\..\Software\uCOS-III\Source/os_core.c ****     OS_PEND_DATA  *p_pend_data;
1329:..\..\..\..\..\..\Software\uCOS-III\Source/os_core.c ****     OS_TCB        *p_tcb1;
1330:..\..\..\..\..\..\Software\uCOS-III\Source/os_core.c **** 
1331:..\..\..\..\..\..\Software\uCOS-III\Source/os_core.c **** 
1332:..\..\..\..\..\..\Software\uCOS-III\Source/os_core.c ****     if (p_obj != DEF_NULL) {
 1526              		.loc 1 1332 0
 1527 000a 7B68     		ldr	r3, [r7, #4]
 1528 000c 002B     		cmp	r3, #0
 1529 000e 12D0     		beq	.L100
1333:..\..\..\..\..\..\Software\uCOS-III\Source/os_core.c ****         p_tcb->DbgNamePtr =  p_obj->NamePtr;                    /* Task pending on this object ... 
 1530              		.loc 1 1333 0
 1531 0010 7B68     		ldr	r3, [r7, #4]
 1532 0012 5A68     		ldr	r2, [r3, #4]
 1533 0014 3B68     		ldr	r3, [r7]
 1534 0016 C021     		movs	r1, #192
 1535 0018 5A50     		str	r2, [r3, r1]
1334:..\..\..\..\..\..\Software\uCOS-III\Source/os_core.c ****         p_pend_list       = &p_obj->PendList;                   /* Find name of HP task pending on 
 1536              		.loc 1 1334 0
 1537 001a 7B68     		ldr	r3, [r7, #4]
 1538 001c 0833     		adds	r3, r3, #8
 1539 001e 7B61     		str	r3, [r7, #20]
1335:..\..\..\..\..\..\Software\uCOS-III\Source/os_core.c ****         p_pend_data       =  p_pend_list->HeadPtr;
 1540              		.loc 1 1335 0
 1541 0020 7B69     		ldr	r3, [r7, #20]
 1542 0022 1B68     		ldr	r3, [r3]
 1543 0024 3B61     		str	r3, [r7, #16]
1336:..\..\..\..\..\..\Software\uCOS-III\Source/os_core.c ****         p_tcb1            =  p_pend_data->TCBPtr;
 1544              		.loc 1 1336 0
 1545 0026 3B69     		ldr	r3, [r7, #16]
 1546 0028 9B68     		ldr	r3, [r3, #8]
 1547 002a FB60     		str	r3, [r7, #12]
1337:..\..\..\..\..\..\Software\uCOS-III\Source/os_core.c ****         p_obj->DbgNamePtr = p_tcb1->NamePtr;                    /* ... Save in object              
 1548              		.loc 1 1337 0
 1549 002c FB68     		ldr	r3, [r7, #12]
 1550 002e 9A68     		ldr	r2, [r3, #8]
ARM GAS  C:\Users\ADMINI~1\AppData\Local\Temp\cczjWrOu.s 			page 52


 1551 0030 7B68     		ldr	r3, [r7, #4]
 1552 0032 DA61     		str	r2, [r3, #28]
1338:..\..\..\..\..\..\Software\uCOS-III\Source/os_core.c ****     } else {
1339:..\..\..\..\..\..\Software\uCOS-III\Source/os_core.c ****         switch (p_tcb->PendOn) {
1340:..\..\..\..\..\..\Software\uCOS-III\Source/os_core.c ****             case OS_TASK_PEND_ON_TASK_Q:
1341:..\..\..\..\..\..\Software\uCOS-III\Source/os_core.c ****                  p_tcb->DbgNamePtr = (CPU_CHAR *)((void *)"Task Q");
1342:..\..\..\..\..\..\Software\uCOS-III\Source/os_core.c ****                  break;
1343:..\..\..\..\..\..\Software\uCOS-III\Source/os_core.c **** 
1344:..\..\..\..\..\..\Software\uCOS-III\Source/os_core.c ****             case OS_TASK_PEND_ON_TASK_SEM:
1345:..\..\..\..\..\..\Software\uCOS-III\Source/os_core.c ****                  p_tcb->DbgNamePtr = (CPU_CHAR *)((void *)"Task Sem");
1346:..\..\..\..\..\..\Software\uCOS-III\Source/os_core.c ****                  break;
1347:..\..\..\..\..\..\Software\uCOS-III\Source/os_core.c **** 
1348:..\..\..\..\..\..\Software\uCOS-III\Source/os_core.c ****             default:
1349:..\..\..\..\..\..\Software\uCOS-III\Source/os_core.c ****                  p_tcb->DbgNamePtr = (CPU_CHAR *)((void *)" ");
1350:..\..\..\..\..\..\Software\uCOS-III\Source/os_core.c ****                  break;
1351:..\..\..\..\..\..\Software\uCOS-III\Source/os_core.c ****         }
1352:..\..\..\..\..\..\Software\uCOS-III\Source/os_core.c ****     }
1353:..\..\..\..\..\..\Software\uCOS-III\Source/os_core.c **** }
 1553              		.loc 1 1353 0
 1554 0034 16E0     		b	.L106
 1555              	.L100:
1339:..\..\..\..\..\..\Software\uCOS-III\Source/os_core.c ****             case OS_TASK_PEND_ON_TASK_Q:
 1556              		.loc 1 1339 0
 1557 0036 3B68     		ldr	r3, [r7]
 1558 0038 3422     		movs	r2, #52
 1559 003a 9B5C     		ldrb	r3, [r3, r2]
 1560 003c 022B     		cmp	r3, #2
 1561 003e 02D0     		beq	.L103
 1562 0040 072B     		cmp	r3, #7
 1563 0042 05D0     		beq	.L104
 1564 0044 09E0     		b	.L105
 1565              	.L103:
1341:..\..\..\..\..\..\Software\uCOS-III\Source/os_core.c ****                  break;
 1566              		.loc 1 1341 0
 1567 0046 3B68     		ldr	r3, [r7]
 1568 0048 C021     		movs	r1, #192
 1569 004a 084A     		ldr	r2, .L107
 1570 004c 5A50     		str	r2, [r3, r1]
1342:..\..\..\..\..\..\Software\uCOS-III\Source/os_core.c **** 
 1571              		.loc 1 1342 0
 1572 004e 09E0     		b	.L101
 1573              	.L104:
1345:..\..\..\..\..\..\Software\uCOS-III\Source/os_core.c ****                  break;
 1574              		.loc 1 1345 0
 1575 0050 3B68     		ldr	r3, [r7]
 1576 0052 C021     		movs	r1, #192
 1577 0054 064A     		ldr	r2, .L107+4
 1578 0056 5A50     		str	r2, [r3, r1]
1346:..\..\..\..\..\..\Software\uCOS-III\Source/os_core.c **** 
 1579              		.loc 1 1346 0
 1580 0058 04E0     		b	.L101
 1581              	.L105:
1349:..\..\..\..\..\..\Software\uCOS-III\Source/os_core.c ****                  break;
 1582              		.loc 1 1349 0
 1583 005a 3B68     		ldr	r3, [r7]
 1584 005c C021     		movs	r1, #192
 1585 005e 054A     		ldr	r2, .L107+8
ARM GAS  C:\Users\ADMINI~1\AppData\Local\Temp\cczjWrOu.s 			page 53


 1586 0060 5A50     		str	r2, [r3, r1]
1350:..\..\..\..\..\..\Software\uCOS-III\Source/os_core.c ****         }
 1587              		.loc 1 1350 0
 1588 0062 C046     		nop
 1589              	.L101:
 1590              	.L106:
 1591              		.loc 1 1353 0
 1592 0064 C046     		nop
 1593 0066 BD46     		mov	sp, r7
 1594 0068 06B0     		add	sp, sp, #24
 1595              		@ sp needed
 1596 006a 80BD     		pop	{r7, pc}
 1597              	.L108:
 1598              		.align	2
 1599              	.L107:
 1600 006c 14000000 		.word	.LC64
 1601 0070 1C000000 		.word	.LC66
 1602 0074 28000000 		.word	.LC68
 1603              		.cfi_endproc
 1604              	.LFE13:
 1605              		.size	OS_PendDbgNameAdd, .-OS_PendDbgNameAdd
 1606              		.section	.text.OS_PendDbgNameRemove,"ax",%progbits
 1607              		.align	2
 1608              		.global	OS_PendDbgNameRemove
 1609              		.code	16
 1610              		.thumb_func
 1611              		.type	OS_PendDbgNameRemove, %function
 1612              	OS_PendDbgNameRemove:
 1613              	.LFB14:
1354:..\..\..\..\..\..\Software\uCOS-III\Source/os_core.c **** 
1355:..\..\..\..\..\..\Software\uCOS-III\Source/os_core.c **** 
1356:..\..\..\..\..\..\Software\uCOS-III\Source/os_core.c **** 
1357:..\..\..\..\..\..\Software\uCOS-III\Source/os_core.c **** void  OS_PendDbgNameRemove (OS_PEND_OBJ  *p_obj,
1358:..\..\..\..\..\..\Software\uCOS-III\Source/os_core.c ****                             OS_TCB       *p_tcb)
1359:..\..\..\..\..\..\Software\uCOS-III\Source/os_core.c **** {
 1614              		.loc 1 1359 0
 1615              		.cfi_startproc
 1616              		@ args = 0, pretend = 0, frame = 24
 1617              		@ frame_needed = 1, uses_anonymous_args = 0
 1618 0000 80B5     		push	{r7, lr}
 1619              		.cfi_def_cfa_offset 8
 1620              		.cfi_offset 7, -8
 1621              		.cfi_offset 14, -4
 1622 0002 86B0     		sub	sp, sp, #24
 1623              		.cfi_def_cfa_offset 32
 1624 0004 00AF     		add	r7, sp, #0
 1625              		.cfi_def_cfa_register 7
 1626 0006 7860     		str	r0, [r7, #4]
 1627 0008 3960     		str	r1, [r7]
1360:..\..\..\..\..\..\Software\uCOS-III\Source/os_core.c ****     OS_PEND_LIST  *p_pend_list;
1361:..\..\..\..\..\..\Software\uCOS-III\Source/os_core.c ****     OS_PEND_DATA  *p_pend_data;
1362:..\..\..\..\..\..\Software\uCOS-III\Source/os_core.c ****     OS_TCB        *p_tcb1;
1363:..\..\..\..\..\..\Software\uCOS-III\Source/os_core.c **** 
1364:..\..\..\..\..\..\Software\uCOS-III\Source/os_core.c **** 
1365:..\..\..\..\..\..\Software\uCOS-III\Source/os_core.c ****     p_tcb->DbgNamePtr = (CPU_CHAR *)((void *)" ");              /* Remove name of object pended on 
 1628              		.loc 1 1365 0
 1629 000a 3B68     		ldr	r3, [r7]
ARM GAS  C:\Users\ADMINI~1\AppData\Local\Temp\cczjWrOu.s 			page 54


 1630 000c C021     		movs	r1, #192
 1631 000e 0D4A     		ldr	r2, .L113
 1632 0010 5A50     		str	r2, [r3, r1]
1366:..\..\..\..\..\..\Software\uCOS-III\Source/os_core.c ****     p_pend_list       = &p_obj->PendList;
 1633              		.loc 1 1366 0
 1634 0012 7B68     		ldr	r3, [r7, #4]
 1635 0014 0833     		adds	r3, r3, #8
 1636 0016 7B61     		str	r3, [r7, #20]
1367:..\..\..\..\..\..\Software\uCOS-III\Source/os_core.c ****     p_pend_data       =  p_pend_list->HeadPtr;
 1637              		.loc 1 1367 0
 1638 0018 7B69     		ldr	r3, [r7, #20]
 1639 001a 1B68     		ldr	r3, [r3]
 1640 001c 3B61     		str	r3, [r7, #16]
1368:..\..\..\..\..\..\Software\uCOS-III\Source/os_core.c ****     if (p_pend_data != DEF_NULL) {
 1641              		.loc 1 1368 0
 1642 001e 3B69     		ldr	r3, [r7, #16]
 1643 0020 002B     		cmp	r3, #0
 1644 0022 07D0     		beq	.L110
1369:..\..\..\..\..\..\Software\uCOS-III\Source/os_core.c ****         p_tcb1            = p_pend_data->TCBPtr;
 1645              		.loc 1 1369 0
 1646 0024 3B69     		ldr	r3, [r7, #16]
 1647 0026 9B68     		ldr	r3, [r3, #8]
 1648 0028 FB60     		str	r3, [r7, #12]
1370:..\..\..\..\..\..\Software\uCOS-III\Source/os_core.c ****         p_obj->DbgNamePtr = p_tcb1->NamePtr;
 1649              		.loc 1 1370 0
 1650 002a FB68     		ldr	r3, [r7, #12]
 1651 002c 9A68     		ldr	r2, [r3, #8]
 1652 002e 7B68     		ldr	r3, [r7, #4]
 1653 0030 DA61     		str	r2, [r3, #28]
1371:..\..\..\..\..\..\Software\uCOS-III\Source/os_core.c ****     } else {
1372:..\..\..\..\..\..\Software\uCOS-III\Source/os_core.c ****         p_obj->DbgNamePtr = (CPU_CHAR *)((void *)" ");          /* No other task pending on object 
1373:..\..\..\..\..\..\Software\uCOS-III\Source/os_core.c ****     }
1374:..\..\..\..\..\..\Software\uCOS-III\Source/os_core.c **** }
 1654              		.loc 1 1374 0
 1655 0032 02E0     		b	.L112
 1656              	.L110:
1372:..\..\..\..\..\..\Software\uCOS-III\Source/os_core.c ****     }
 1657              		.loc 1 1372 0
 1658 0034 7B68     		ldr	r3, [r7, #4]
 1659 0036 034A     		ldr	r2, .L113
 1660 0038 DA61     		str	r2, [r3, #28]
 1661              	.L112:
 1662              		.loc 1 1374 0
 1663 003a C046     		nop
 1664 003c BD46     		mov	sp, r7
 1665 003e 06B0     		add	sp, sp, #24
 1666              		@ sp needed
 1667 0040 80BD     		pop	{r7, pc}
 1668              	.L114:
 1669 0042 C046     		.align	2
 1670              	.L113:
 1671 0044 28000000 		.word	.LC68
 1672              		.cfi_endproc
 1673              	.LFE14:
 1674              		.size	OS_PendDbgNameRemove, .-OS_PendDbgNameRemove
 1675              		.section	.text.OS_PendListChangePrio,"ax",%progbits
 1676              		.align	2
ARM GAS  C:\Users\ADMINI~1\AppData\Local\Temp\cczjWrOu.s 			page 55


 1677              		.global	OS_PendListChangePrio
 1678              		.code	16
 1679              		.thumb_func
 1680              		.type	OS_PendListChangePrio, %function
 1681              	OS_PendListChangePrio:
 1682              	.LFB15:
1375:..\..\..\..\..\..\Software\uCOS-III\Source/os_core.c **** #endif
1376:..\..\..\..\..\..\Software\uCOS-III\Source/os_core.c **** 
1377:..\..\..\..\..\..\Software\uCOS-III\Source/os_core.c **** 
1378:..\..\..\..\..\..\Software\uCOS-III\Source/os_core.c **** /*
1379:..\..\..\..\..\..\Software\uCOS-III\Source/os_core.c **** ***************************************************************************************************
1380:..\..\..\..\..\..\Software\uCOS-III\Source/os_core.c **** *                               CHANGE THE PRIORITY OF A TASK WAITING IN ONE OR MORE PEND LISTS
1381:..\..\..\..\..\..\Software\uCOS-III\Source/os_core.c **** *
1382:..\..\..\..\..\..\Software\uCOS-III\Source/os_core.c **** * Description: This function is called to change the position of a task waiting in one or more pend
1383:..\..\..\..\..\..\Software\uCOS-III\Source/os_core.c **** *              task can be waiting on multiple objects then each pend list needs to be updated.  Sp
1384:..\..\..\..\..\..\Software\uCOS-III\Source/os_core.c **** *              task can be the highest priority task waiting on one pend list, the lowest priority 
1385:..\..\..\..\..\..\Software\uCOS-III\Source/os_core.c **** *              another pend list or somewhere else in another pend list.  Because of this, we need 
1386:..\..\..\..\..\..\Software\uCOS-III\Source/os_core.c **** *              each of those pend lists individually.
1387:..\..\..\..\..\..\Software\uCOS-III\Source/os_core.c **** *
1388:..\..\..\..\..\..\Software\uCOS-III\Source/os_core.c **** *              The drawing below shows an example of a task (OS_TCB) that belongs to 3 separate pen
1389:..\..\..\..\..\..\Software\uCOS-III\Source/os_core.c **** *              pend list can contain multiple tasks (the .PrevPtr and .NextPtr show a '?' to indica
1390:..\..\..\..\..\..\Software\uCOS-III\Source/os_core.c **** *              contains a pointer (.PendDataTblPtr) to the first entry in the list of pend lists.
1391:..\..\..\..\..\..\Software\uCOS-III\Source/os_core.c **** *
1392:..\..\..\..\..\..\Software\uCOS-III\Source/os_core.c **** *                                                                                                  
1393:..\..\..\..\..\..\Software\uCOS-III\Source/os_core.c **** *                                                                                                  
1394:..\..\..\..\..\..\Software\uCOS-III\Source/os_core.c **** *                                                                                                  
1395:..\..\..\..\..\..\Software\uCOS-III\Source/os_core.c **** *                                                                                                  
1396:..\..\..\..\..\..\Software\uCOS-III\Source/os_core.c **** *                                                                                                  
1397:..\..\..\..\..\..\Software\uCOS-III\Source/os_core.c **** *                                      Point to first entry in the OS_PEND_DATA table (i.e. [0])   
1398:..\..\..\..\..\..\Software\uCOS-III\Source/os_core.c **** *                                          /-----------------------------<-------------------------
1399:..\..\..\..\..\..\Software\uCOS-III\Source/os_core.c **** *                                          |                                                       
1400:..\..\..\..\..\..\Software\uCOS-III\Source/os_core.c **** *                                          |                                                       
1401:..\..\..\..\..\..\Software\uCOS-III\Source/os_core.c **** *              OS_PEND_LIST                |                                                       
1402:..\..\..\..\..\..\Software\uCOS-III\Source/os_core.c **** *              +------------+              |                                                       
1403:..\..\..\..\..\..\Software\uCOS-III\Source/os_core.c **** *              | TailPtr    |              |                                                       
1404:..\..\..\..\..\..\Software\uCOS-III\Source/os_core.c **** *              +------------+              |                                                       
1405:..\..\..\..\..\..\Software\uCOS-III\Source/os_core.c **** *              | HeadPtr    |              |                                                       
1406:..\..\..\..\..\..\Software\uCOS-III\Source/os_core.c **** *              +------------+              |                                        /---------->---
1407:..\..\..\..\..\..\Software\uCOS-III\Source/os_core.c **** *              | NbrEntries |              |                                        |              
1408:..\..\..\..\..\..\Software\uCOS-III\Source/os_core.c **** *              +------------+     [0]      V   OS_PEND_DATA                         |              
1409:..\..\..\..\..\..\Software\uCOS-III\Source/os_core.c **** *                                     +---------+------------+-------+---------+--------+---------+
1410:..\..\..\..\..\..\Software\uCOS-III\Source/os_core.c **** *                             ? <---- | PrevPtr | PendObjPtr |       |         | TCBPtr | NextPtr |
1411:..\..\..\..\..\..\Software\uCOS-III\Source/os_core.c **** *                                     +---------+------------+-------+---------+--------+---------+
1412:..\..\..\..\..\..\Software\uCOS-III\Source/os_core.c **** *                                                                                                  
1413:..\..\..\..\..\..\Software\uCOS-III\Source/os_core.c **** *                                                                                                  
1414:..\..\..\..\..\..\Software\uCOS-III\Source/os_core.c **** *                                                                                                  
1415:..\..\..\..\..\..\Software\uCOS-III\Source/os_core.c **** *                                                                                                  
1416:..\..\..\..\..\..\Software\uCOS-III\Source/os_core.c **** *                                                                                                  
1417:..\..\..\..\..\..\Software\uCOS-III\Source/os_core.c **** *              OS_PEND_LIST                                                                Point ba
1418:..\..\..\..\..\..\Software\uCOS-III\Source/os_core.c **** *              +------------+                                                                      
1419:..\..\..\..\..\..\Software\uCOS-III\Source/os_core.c **** *              | TailPtr    |                                                                      
1420:..\..\..\..\..\..\Software\uCOS-III\Source/os_core.c **** *              +------------+                                                                      
1421:..\..\..\..\..\..\Software\uCOS-III\Source/os_core.c **** *              | HeadPtr    |                                                                      
1422:..\..\..\..\..\..\Software\uCOS-III\Source/os_core.c **** *              +------------+                                                      /----------->---
1423:..\..\..\..\..\..\Software\uCOS-III\Source/os_core.c **** *              | NbrEntries |                                                      |               
1424:..\..\..\..\..\..\Software\uCOS-III\Source/os_core.c **** *              +------------+     [1]          OS_PEND_DATA                        |               
1425:..\..\..\..\..\..\Software\uCOS-III\Source/os_core.c **** *                                     +---------+------------+-------+---------+--------+---------+
ARM GAS  C:\Users\ADMINI~1\AppData\Local\Temp\cczjWrOu.s 			page 56


1426:..\..\..\..\..\..\Software\uCOS-III\Source/os_core.c **** *                             ? <---- | PrevPtr | PendObjPtr |       |         | TCBPtr | NextPtr |
1427:..\..\..\..\..\..\Software\uCOS-III\Source/os_core.c **** *                                     +---------+------------+-------+---------+--------+---------+
1428:..\..\..\..\..\..\Software\uCOS-III\Source/os_core.c **** *                                                                                                  
1429:..\..\..\..\..\..\Software\uCOS-III\Source/os_core.c **** *                                                                                                  
1430:..\..\..\..\..\..\Software\uCOS-III\Source/os_core.c **** *                                                                                                  
1431:..\..\..\..\..\..\Software\uCOS-III\Source/os_core.c **** *                                                                                                  
1432:..\..\..\..\..\..\Software\uCOS-III\Source/os_core.c **** *                                                                                                  
1433:..\..\..\..\..\..\Software\uCOS-III\Source/os_core.c **** *              OS_PEND_LIST                                                                        
1434:..\..\..\..\..\..\Software\uCOS-III\Source/os_core.c **** *              +------------+                                                                      
1435:..\..\..\..\..\..\Software\uCOS-III\Source/os_core.c **** *              | TailPtr    |                                                                      
1436:..\..\..\..\..\..\Software\uCOS-III\Source/os_core.c **** *              +------------+                                                                      
1437:..\..\..\..\..\..\Software\uCOS-III\Source/os_core.c **** *              | HeadPtr    |                                                                      
1438:..\..\..\..\..\..\Software\uCOS-III\Source/os_core.c **** *              +------------+                                                      /----------->---
1439:..\..\..\..\..\..\Software\uCOS-III\Source/os_core.c **** *              | NbrEntries |                                                      |
1440:..\..\..\..\..\..\Software\uCOS-III\Source/os_core.c **** *              +------------+     [2]          OS_PEND_DATA                        |
1441:..\..\..\..\..\..\Software\uCOS-III\Source/os_core.c **** *                                     +---------+------------+-------+---------+--------+---------+
1442:..\..\..\..\..\..\Software\uCOS-III\Source/os_core.c **** *                             ? <---- | PrevPtr | PendObjPtr |       |         | TCBPtr | NextPtr |
1443:..\..\..\..\..\..\Software\uCOS-III\Source/os_core.c **** *                                     +---------+------------+-------+---------+--------+---------+
1444:..\..\..\..\..\..\Software\uCOS-III\Source/os_core.c **** *
1445:..\..\..\..\..\..\Software\uCOS-III\Source/os_core.c **** *
1446:..\..\..\..\..\..\Software\uCOS-III\Source/os_core.c **** * Arguments  : p_tcb       is a pointer to the TCB of the task to move
1447:..\..\..\..\..\..\Software\uCOS-III\Source/os_core.c **** *              -----
1448:..\..\..\..\..\..\Software\uCOS-III\Source/os_core.c **** *
1449:..\..\..\..\..\..\Software\uCOS-III\Source/os_core.c **** * Returns    : none
1450:..\..\..\..\..\..\Software\uCOS-III\Source/os_core.c **** *
1451:..\..\..\..\..\..\Software\uCOS-III\Source/os_core.c **** * Note(s)    : 1) This function is INTERNAL to uC/OS-III and your application MUST NOT call it.
1452:..\..\..\..\..\..\Software\uCOS-III\Source/os_core.c **** *
1453:..\..\..\..\..\..\Software\uCOS-III\Source/os_core.c **** *              2) It's assumed that the TCB contains the NEW priority in its .Prio field.
1454:..\..\..\..\..\..\Software\uCOS-III\Source/os_core.c **** ***************************************************************************************************
1455:..\..\..\..\..\..\Software\uCOS-III\Source/os_core.c **** */
1456:..\..\..\..\..\..\Software\uCOS-III\Source/os_core.c **** 
1457:..\..\..\..\..\..\Software\uCOS-III\Source/os_core.c **** void  OS_PendListChangePrio (OS_TCB   *p_tcb)
1458:..\..\..\..\..\..\Software\uCOS-III\Source/os_core.c **** {
 1683              		.loc 1 1458 0
 1684              		.cfi_startproc
 1685              		@ args = 0, pretend = 0, frame = 24
 1686              		@ frame_needed = 1, uses_anonymous_args = 0
 1687 0000 80B5     		push	{r7, lr}
 1688              		.cfi_def_cfa_offset 8
 1689              		.cfi_offset 7, -8
 1690              		.cfi_offset 14, -4
 1691 0002 86B0     		sub	sp, sp, #24
 1692              		.cfi_def_cfa_offset 32
 1693 0004 00AF     		add	r7, sp, #0
 1694              		.cfi_def_cfa_register 7
 1695 0006 7860     		str	r0, [r7, #4]
1459:..\..\..\..\..\..\Software\uCOS-III\Source/os_core.c ****     OS_OBJ_QTY      n_pend_list;                                /* Number of pend lists            
1460:..\..\..\..\..\..\Software\uCOS-III\Source/os_core.c ****     OS_PEND_DATA   *p_pend_data;
1461:..\..\..\..\..\..\Software\uCOS-III\Source/os_core.c ****     OS_PEND_LIST   *p_pend_list;
1462:..\..\..\..\..\..\Software\uCOS-III\Source/os_core.c ****     OS_PEND_OBJ    *p_obj;
1463:..\..\..\..\..\..\Software\uCOS-III\Source/os_core.c **** 
1464:..\..\..\..\..\..\Software\uCOS-III\Source/os_core.c **** 
1465:..\..\..\..\..\..\Software\uCOS-III\Source/os_core.c ****     p_pend_data = p_tcb->PendDataTblPtr;                        /* Point to first wait list entry  
 1696              		.loc 1 1465 0
 1697 0008 7B68     		ldr	r3, [r7, #4]
 1698 000a 1B6B     		ldr	r3, [r3, #48]
 1699 000c 3B61     		str	r3, [r7, #16]
ARM GAS  C:\Users\ADMINI~1\AppData\Local\Temp\cczjWrOu.s 			page 57


1466:..\..\..\..\..\..\Software\uCOS-III\Source/os_core.c **** #if (OS_CFG_PEND_MULTI_EN == DEF_ENABLED)
1467:..\..\..\..\..\..\Software\uCOS-III\Source/os_core.c ****     n_pend_list = p_tcb->PendDataTblEntries;                    /* Get the number of pend list task
1468:..\..\..\..\..\..\Software\uCOS-III\Source/os_core.c **** #else
1469:..\..\..\..\..\..\Software\uCOS-III\Source/os_core.c ****     n_pend_list = 1u;
 1700              		.loc 1 1469 0
 1701 000e 1623     		movs	r3, #22
 1702 0010 FB18     		adds	r3, r7, r3
 1703 0012 0122     		movs	r2, #1
 1704 0014 1A80     		strh	r2, [r3]
1470:..\..\..\..\..\..\Software\uCOS-III\Source/os_core.c **** #endif
1471:..\..\..\..\..\..\Software\uCOS-III\Source/os_core.c **** 
1472:..\..\..\..\..\..\Software\uCOS-III\Source/os_core.c ****     while (n_pend_list > 0u) {
 1705              		.loc 1 1472 0
 1706 0016 20E0     		b	.L116
 1707              	.L118:
1473:..\..\..\..\..\..\Software\uCOS-III\Source/os_core.c ****         p_obj       =  p_pend_data->PendObjPtr;                 /* Get pointer to pend list        
 1708              		.loc 1 1473 0
 1709 0018 3B69     		ldr	r3, [r7, #16]
 1710 001a DB68     		ldr	r3, [r3, #12]
 1711 001c FB60     		str	r3, [r7, #12]
1474:..\..\..\..\..\..\Software\uCOS-III\Source/os_core.c ****         p_pend_list = &p_obj->PendList;
 1712              		.loc 1 1474 0
 1713 001e FB68     		ldr	r3, [r7, #12]
 1714 0020 0833     		adds	r3, r3, #8
 1715 0022 BB60     		str	r3, [r7, #8]
1475:..\..\..\..\..\..\Software\uCOS-III\Source/os_core.c ****         if (p_pend_list->HeadPtr->NextPtr != DEF_NULL) {        /* Only move if multiple entries in
 1716              		.loc 1 1475 0
 1717 0024 BB68     		ldr	r3, [r7, #8]
 1718 0026 1B68     		ldr	r3, [r3]
 1719 0028 5B68     		ldr	r3, [r3, #4]
 1720 002a 002B     		cmp	r3, #0
 1721 002c 0BD0     		beq	.L117
1476:..\..\..\..\..\..\Software\uCOS-III\Source/os_core.c ****             OS_PendListRemove1(p_pend_list,                     /* Remove entry from current positi
 1722              		.loc 1 1476 0
 1723 002e 3A69     		ldr	r2, [r7, #16]
 1724 0030 BB68     		ldr	r3, [r7, #8]
 1725 0032 1100     		movs	r1, r2
 1726 0034 1800     		movs	r0, r3
 1727 0036 FFF7FEFF 		bl	OS_PendListRemove1
1477:..\..\..\..\..\..\Software\uCOS-III\Source/os_core.c ****                                p_pend_data);
1478:..\..\..\..\..\..\Software\uCOS-III\Source/os_core.c ****             OS_PendListInsertPrio(p_pend_list,                  /* INSERT it back in the list      
 1728              		.loc 1 1478 0
 1729 003a 3A69     		ldr	r2, [r7, #16]
 1730 003c BB68     		ldr	r3, [r7, #8]
 1731 003e 1100     		movs	r1, r2
 1732 0040 1800     		movs	r0, r3
 1733 0042 FFF7FEFF 		bl	OS_PendListInsertPrio
 1734              	.L117:
1479:..\..\..\..\..\..\Software\uCOS-III\Source/os_core.c ****                                   p_pend_data);
1480:..\..\..\..\..\..\Software\uCOS-III\Source/os_core.c ****         }
1481:..\..\..\..\..\..\Software\uCOS-III\Source/os_core.c ****         p_pend_data++;                                          /* Point to next wait list         
 1735              		.loc 1 1481 0
 1736 0046 3B69     		ldr	r3, [r7, #16]
 1737 0048 2033     		adds	r3, r3, #32
 1738 004a 3B61     		str	r3, [r7, #16]
1482:..\..\..\..\..\..\Software\uCOS-III\Source/os_core.c ****         n_pend_list--;
 1739              		.loc 1 1482 0
ARM GAS  C:\Users\ADMINI~1\AppData\Local\Temp\cczjWrOu.s 			page 58


 1740 004c 1623     		movs	r3, #22
 1741 004e FB18     		adds	r3, r7, r3
 1742 0050 1A88     		ldrh	r2, [r3]
 1743 0052 1623     		movs	r3, #22
 1744 0054 FB18     		adds	r3, r7, r3
 1745 0056 013A     		subs	r2, r2, #1
 1746 0058 1A80     		strh	r2, [r3]
 1747              	.L116:
1472:..\..\..\..\..\..\Software\uCOS-III\Source/os_core.c ****         p_obj       =  p_pend_data->PendObjPtr;                 /* Get pointer to pend list        
 1748              		.loc 1 1472 0
 1749 005a 1623     		movs	r3, #22
 1750 005c FB18     		adds	r3, r7, r3
 1751 005e 1B88     		ldrh	r3, [r3]
 1752 0060 002B     		cmp	r3, #0
 1753 0062 D9D1     		bne	.L118
1483:..\..\..\..\..\..\Software\uCOS-III\Source/os_core.c ****     }
1484:..\..\..\..\..\..\Software\uCOS-III\Source/os_core.c **** }
 1754              		.loc 1 1484 0
 1755 0064 C046     		nop
 1756 0066 BD46     		mov	sp, r7
 1757 0068 06B0     		add	sp, sp, #24
 1758              		@ sp needed
 1759 006a 80BD     		pop	{r7, pc}
 1760              		.cfi_endproc
 1761              	.LFE15:
 1762              		.size	OS_PendListChangePrio, .-OS_PendListChangePrio
 1763              		.section	.text.OS_PendListInit,"ax",%progbits
 1764              		.align	2
 1765              		.global	OS_PendListInit
 1766              		.code	16
 1767              		.thumb_func
 1768              		.type	OS_PendListInit, %function
 1769              	OS_PendListInit:
 1770              	.LFB16:
1485:..\..\..\..\..\..\Software\uCOS-III\Source/os_core.c **** 
1486:..\..\..\..\..\..\Software\uCOS-III\Source/os_core.c **** 
1487:..\..\..\..\..\..\Software\uCOS-III\Source/os_core.c **** /*
1488:..\..\..\..\..\..\Software\uCOS-III\Source/os_core.c **** ***************************************************************************************************
1489:..\..\..\..\..\..\Software\uCOS-III\Source/os_core.c **** *                                                INITIALIZE A WAIT LIST
1490:..\..\..\..\..\..\Software\uCOS-III\Source/os_core.c **** *
1491:..\..\..\..\..\..\Software\uCOS-III\Source/os_core.c **** * Description: This function is called to initialize the fields of an OS_PEND_LIST.
1492:..\..\..\..\..\..\Software\uCOS-III\Source/os_core.c **** *
1493:..\..\..\..\..\..\Software\uCOS-III\Source/os_core.c **** * Arguments  : p_pend_list   is a pointer to an OS_PEND_LIST
1494:..\..\..\..\..\..\Software\uCOS-III\Source/os_core.c **** *              -----------
1495:..\..\..\..\..\..\Software\uCOS-III\Source/os_core.c **** *
1496:..\..\..\..\..\..\Software\uCOS-III\Source/os_core.c **** * Returns    : none
1497:..\..\..\..\..\..\Software\uCOS-III\Source/os_core.c **** *
1498:..\..\..\..\..\..\Software\uCOS-III\Source/os_core.c **** * Note(s)    : 1) This function is INTERNAL to uC/OS-III and your application must not call it.
1499:..\..\..\..\..\..\Software\uCOS-III\Source/os_core.c **** ***************************************************************************************************
1500:..\..\..\..\..\..\Software\uCOS-III\Source/os_core.c **** */
1501:..\..\..\..\..\..\Software\uCOS-III\Source/os_core.c **** 
1502:..\..\..\..\..\..\Software\uCOS-III\Source/os_core.c **** void  OS_PendListInit (OS_PEND_LIST  *p_pend_list)
1503:..\..\..\..\..\..\Software\uCOS-III\Source/os_core.c **** {
 1771              		.loc 1 1503 0
 1772              		.cfi_startproc
 1773              		@ args = 0, pretend = 0, frame = 8
 1774              		@ frame_needed = 1, uses_anonymous_args = 0
ARM GAS  C:\Users\ADMINI~1\AppData\Local\Temp\cczjWrOu.s 			page 59


 1775 0000 80B5     		push	{r7, lr}
 1776              		.cfi_def_cfa_offset 8
 1777              		.cfi_offset 7, -8
 1778              		.cfi_offset 14, -4
 1779 0002 82B0     		sub	sp, sp, #8
 1780              		.cfi_def_cfa_offset 16
 1781 0004 00AF     		add	r7, sp, #0
 1782              		.cfi_def_cfa_register 7
 1783 0006 7860     		str	r0, [r7, #4]
1504:..\..\..\..\..\..\Software\uCOS-III\Source/os_core.c ****     p_pend_list->HeadPtr    = DEF_NULL;
 1784              		.loc 1 1504 0
 1785 0008 7B68     		ldr	r3, [r7, #4]
 1786 000a 0022     		movs	r2, #0
 1787 000c 1A60     		str	r2, [r3]
1505:..\..\..\..\..\..\Software\uCOS-III\Source/os_core.c ****     p_pend_list->TailPtr    = DEF_NULL;
 1788              		.loc 1 1505 0
 1789 000e 7B68     		ldr	r3, [r7, #4]
 1790 0010 0022     		movs	r2, #0
 1791 0012 5A60     		str	r2, [r3, #4]
1506:..\..\..\..\..\..\Software\uCOS-III\Source/os_core.c **** #if (OS_CFG_DBG_EN == DEF_ENABLED)
1507:..\..\..\..\..\..\Software\uCOS-III\Source/os_core.c ****     p_pend_list->NbrEntries = 0u;
 1792              		.loc 1 1507 0
 1793 0014 7B68     		ldr	r3, [r7, #4]
 1794 0016 0022     		movs	r2, #0
 1795 0018 1A81     		strh	r2, [r3, #8]
1508:..\..\..\..\..\..\Software\uCOS-III\Source/os_core.c **** #endif
1509:..\..\..\..\..\..\Software\uCOS-III\Source/os_core.c **** }
 1796              		.loc 1 1509 0
 1797 001a C046     		nop
 1798 001c BD46     		mov	sp, r7
 1799 001e 02B0     		add	sp, sp, #8
 1800              		@ sp needed
 1801 0020 80BD     		pop	{r7, pc}
 1802              		.cfi_endproc
 1803              	.LFE16:
 1804              		.size	OS_PendListInit, .-OS_PendListInit
 1805 0022 C046     		.section	.text.OS_PendListInsertPrio,"ax",%progbits
 1806              		.align	2
 1807              		.global	OS_PendListInsertPrio
 1808              		.code	16
 1809              		.thumb_func
 1810              		.type	OS_PendListInsertPrio, %function
 1811              	OS_PendListInsertPrio:
 1812              	.LFB17:
1510:..\..\..\..\..\..\Software\uCOS-III\Source/os_core.c **** 
1511:..\..\..\..\..\..\Software\uCOS-III\Source/os_core.c **** 
1512:..\..\..\..\..\..\Software\uCOS-III\Source/os_core.c **** /*
1513:..\..\..\..\..\..\Software\uCOS-III\Source/os_core.c **** ***************************************************************************************************
1514:..\..\..\..\..\..\Software\uCOS-III\Source/os_core.c **** *                                   INSERT PEND DATA BASED ON IT'S PRIORITY IN A LIST
1515:..\..\..\..\..\..\Software\uCOS-III\Source/os_core.c **** *
1516:..\..\..\..\..\..\Software\uCOS-III\Source/os_core.c **** * Description: This function is called to place an OS_PEND_DATA entry in a linked list based on its
1517:..\..\..\..\..\..\Software\uCOS-III\Source/os_core.c **** *              highest priority being placed at the head of the list.  It's assumed that the OS_PEN
1518:..\..\..\..\..\..\Software\uCOS-III\Source/os_core.c **** *              insert points to the TCB of the task being inserted.  The TCB is also assumed to con
1519:..\..\..\..\..\..\Software\uCOS-III\Source/os_core.c **** *              of the task in its .Prio field.
1520:..\..\..\..\..\..\Software\uCOS-III\Source/os_core.c **** *
1521:..\..\..\..\..\..\Software\uCOS-III\Source/os_core.c **** *              CASE 0: Insert in an empty list.
1522:..\..\..\..\..\..\Software\uCOS-III\Source/os_core.c **** *
ARM GAS  C:\Users\ADMINI~1\AppData\Local\Temp\cczjWrOu.s 			page 60


1523:..\..\..\..\..\..\Software\uCOS-III\Source/os_core.c **** *                     OS_PEND_LIST
1524:..\..\..\..\..\..\Software\uCOS-III\Source/os_core.c **** *                     +---------------+
1525:..\..\..\..\..\..\Software\uCOS-III\Source/os_core.c **** *                     | TailPtr       |-> 0
1526:..\..\..\..\..\..\Software\uCOS-III\Source/os_core.c **** *                     +---------------+
1527:..\..\..\..\..\..\Software\uCOS-III\Source/os_core.c **** *                     | HeadPtr       |-> 0
1528:..\..\..\..\..\..\Software\uCOS-III\Source/os_core.c **** *                     +---------------+
1529:..\..\..\..\..\..\Software\uCOS-III\Source/os_core.c **** *                     | NbrEntries=0  |
1530:..\..\..\..\..\..\Software\uCOS-III\Source/os_core.c **** *                     +---------------+
1531:..\..\..\..\..\..\Software\uCOS-III\Source/os_core.c **** *
1532:..\..\..\..\..\..\Software\uCOS-III\Source/os_core.c **** *
1533:..\..\..\..\..\..\Software\uCOS-III\Source/os_core.c **** *
1534:..\..\..\..\..\..\Software\uCOS-III\Source/os_core.c **** *              CASE 1: Insert BEFORE or AFTER an OS_TCB
1535:..\..\..\..\..\..\Software\uCOS-III\Source/os_core.c **** *
1536:..\..\..\..\..\..\Software\uCOS-III\Source/os_core.c **** *                     OS_PEND_LIST
1537:..\..\..\..\..\..\Software\uCOS-III\Source/os_core.c **** *                     +--------------+         OS_PEND_DATA
1538:..\..\..\..\..\..\Software\uCOS-III\Source/os_core.c **** *                     | TailPtr      |--+---> +------------+
1539:..\..\..\..\..\..\Software\uCOS-III\Source/os_core.c **** *                     +--------------+  |     | NextPtr    |->0
1540:..\..\..\..\..\..\Software\uCOS-III\Source/os_core.c **** *                     | HeadPtr      |--/     +------------+
1541:..\..\..\..\..\..\Software\uCOS-III\Source/os_core.c **** *                     +--------------+     0<-| PrevPtr    |
1542:..\..\..\..\..\..\Software\uCOS-III\Source/os_core.c **** *                     | NbrEntries=1 |        +------------+
1543:..\..\..\..\..\..\Software\uCOS-III\Source/os_core.c **** *                     +--------------+        |            |
1544:..\..\..\..\..\..\Software\uCOS-III\Source/os_core.c **** *                                             +------------+
1545:..\..\..\..\..\..\Software\uCOS-III\Source/os_core.c **** *                                             |            |
1546:..\..\..\..\..\..\Software\uCOS-III\Source/os_core.c **** *                                             +------------+
1547:..\..\..\..\..\..\Software\uCOS-III\Source/os_core.c **** *
1548:..\..\..\..\..\..\Software\uCOS-III\Source/os_core.c **** *
1549:..\..\..\..\..\..\Software\uCOS-III\Source/os_core.c **** *                     OS_PEND_LIST
1550:..\..\..\..\..\..\Software\uCOS-III\Source/os_core.c **** *                     +--------------+
1551:..\..\..\..\..\..\Software\uCOS-III\Source/os_core.c **** *                     | TailPtr      |-----------------------------------------------+
1552:..\..\..\..\..\..\Software\uCOS-III\Source/os_core.c **** *                     +--------------+         OS_PEND_DATA         OS_PEND_DATA     |    OS_PEND_D
1553:..\..\..\..\..\..\Software\uCOS-III\Source/os_core.c **** *                     | HeadPtr      |------> +------------+       +------------+    +-> +---------
1554:..\..\..\..\..\..\Software\uCOS-III\Source/os_core.c **** *                     +--------------+        | NextPtr    |------>| NextPtr    | ...... | NextPtr 
1555:..\..\..\..\..\..\Software\uCOS-III\Source/os_core.c **** *                     | NbrEntries=N |        +------------+       +------------+        +---------
1556:..\..\..\..\..\..\Software\uCOS-III\Source/os_core.c **** *                     +--------------+     0<-| PrevPtr    |<------| PrevPtr    | ...... | PrevPtr 
1557:..\..\..\..\..\..\Software\uCOS-III\Source/os_core.c **** *                                             +------------+       +------------+        +---------
1558:..\..\..\..\..\..\Software\uCOS-III\Source/os_core.c **** *                                             |            |       |            |        |         
1559:..\..\..\..\..\..\Software\uCOS-III\Source/os_core.c **** *                                             +------------+       +------------+        +---------
1560:..\..\..\..\..\..\Software\uCOS-III\Source/os_core.c **** *                                             |            |       |            |        |         
1561:..\..\..\..\..\..\Software\uCOS-III\Source/os_core.c **** *                                             +------------+       +------------+        +---------
1562:..\..\..\..\..\..\Software\uCOS-III\Source/os_core.c **** *
1563:..\..\..\..\..\..\Software\uCOS-III\Source/os_core.c **** *
1564:..\..\..\..\..\..\Software\uCOS-III\Source/os_core.c **** * Arguments  : p_pend_list    is a pointer to the OS_PEND_LIST where the OS_PEND_DATA entry will be
1565:..\..\..\..\..\..\Software\uCOS-III\Source/os_core.c **** *              -----------
1566:..\..\..\..\..\..\Software\uCOS-III\Source/os_core.c **** *
1567:..\..\..\..\..\..\Software\uCOS-III\Source/os_core.c **** *              p_pend_data    is the OS_PEND_DATA to insert in the list
1568:..\..\..\..\..\..\Software\uCOS-III\Source/os_core.c **** *              -----------
1569:..\..\..\..\..\..\Software\uCOS-III\Source/os_core.c **** *
1570:..\..\..\..\..\..\Software\uCOS-III\Source/os_core.c **** * Returns    : none
1571:..\..\..\..\..\..\Software\uCOS-III\Source/os_core.c **** *
1572:..\..\..\..\..\..\Software\uCOS-III\Source/os_core.c **** * Note(s)    : 1) This function is INTERNAL to uC/OS-III and your application MUST NOT call it.
1573:..\..\..\..\..\..\Software\uCOS-III\Source/os_core.c **** *
1574:..\..\..\..\..\..\Software\uCOS-III\Source/os_core.c **** *              2) 'p_pend_data->TCBPtr->Prio' contains the priority of the TCB associated with the 
1575:..\..\..\..\..\..\Software\uCOS-III\Source/os_core.c **** *                 We can compare this priority with the priority of other entries in the list.
1576:..\..\..\..\..\..\Software\uCOS-III\Source/os_core.c **** ***************************************************************************************************
1577:..\..\..\..\..\..\Software\uCOS-III\Source/os_core.c **** */
1578:..\..\..\..\..\..\Software\uCOS-III\Source/os_core.c **** 
1579:..\..\..\..\..\..\Software\uCOS-III\Source/os_core.c **** void  OS_PendListInsertPrio (OS_PEND_LIST  *p_pend_list,
ARM GAS  C:\Users\ADMINI~1\AppData\Local\Temp\cczjWrOu.s 			page 61


1580:..\..\..\..\..\..\Software\uCOS-III\Source/os_core.c ****                              OS_PEND_DATA  *p_pend_data)
1581:..\..\..\..\..\..\Software\uCOS-III\Source/os_core.c **** {
 1813              		.loc 1 1581 0
 1814              		.cfi_startproc
 1815              		@ args = 0, pretend = 0, frame = 32
 1816              		@ frame_needed = 1, uses_anonymous_args = 0
 1817 0000 80B5     		push	{r7, lr}
 1818              		.cfi_def_cfa_offset 8
 1819              		.cfi_offset 7, -8
 1820              		.cfi_offset 14, -4
 1821 0002 88B0     		sub	sp, sp, #32
 1822              		.cfi_def_cfa_offset 40
 1823 0004 00AF     		add	r7, sp, #0
 1824              		.cfi_def_cfa_register 7
 1825 0006 7860     		str	r0, [r7, #4]
 1826 0008 3960     		str	r1, [r7]
1582:..\..\..\..\..\..\Software\uCOS-III\Source/os_core.c ****     OS_PRIO        prio;
1583:..\..\..\..\..\..\Software\uCOS-III\Source/os_core.c ****     OS_TCB        *p_tcb;
1584:..\..\..\..\..\..\Software\uCOS-III\Source/os_core.c ****     OS_TCB        *p_tcb_next;
1585:..\..\..\..\..\..\Software\uCOS-III\Source/os_core.c ****     OS_PEND_DATA  *p_pend_data_prev;
1586:..\..\..\..\..\..\Software\uCOS-III\Source/os_core.c ****     OS_PEND_DATA  *p_pend_data_next;
1587:..\..\..\..\..\..\Software\uCOS-III\Source/os_core.c **** 
1588:..\..\..\..\..\..\Software\uCOS-III\Source/os_core.c **** 
1589:..\..\..\..\..\..\Software\uCOS-III\Source/os_core.c **** 
1590:..\..\..\..\..\..\Software\uCOS-III\Source/os_core.c ****     p_tcb = p_pend_data->TCBPtr;                                /* Obtain the priority of the task 
 1827              		.loc 1 1590 0
 1828 000a 3B68     		ldr	r3, [r7]
 1829 000c 9B68     		ldr	r3, [r3, #8]
 1830 000e BB61     		str	r3, [r7, #24]
1591:..\..\..\..\..\..\Software\uCOS-III\Source/os_core.c ****     prio  = p_tcb->Prio;
 1831              		.loc 1 1591 0
 1832 0010 1723     		movs	r3, #23
 1833 0012 FB18     		adds	r3, r7, r3
 1834 0014 BA69     		ldr	r2, [r7, #24]
 1835 0016 3721     		movs	r1, #55
 1836 0018 525C     		ldrb	r2, [r2, r1]
 1837 001a 1A70     		strb	r2, [r3]
1592:..\..\..\..\..\..\Software\uCOS-III\Source/os_core.c ****     if (p_pend_list->HeadPtr == DEF_NULL) {                     /* CASE 0: Insert when there are no
 1838              		.loc 1 1592 0
 1839 001c 7B68     		ldr	r3, [r7, #4]
 1840 001e 1B68     		ldr	r3, [r3]
 1841 0020 002B     		cmp	r3, #0
 1842 0022 0FD1     		bne	.L121
1593:..\..\..\..\..\..\Software\uCOS-III\Source/os_core.c **** #if (OS_CFG_DBG_EN == DEF_ENABLED)
1594:..\..\..\..\..\..\Software\uCOS-III\Source/os_core.c ****         p_pend_list->NbrEntries = 1u;                           /* This is the first entry         
 1843              		.loc 1 1594 0
 1844 0024 7B68     		ldr	r3, [r7, #4]
 1845 0026 0122     		movs	r2, #1
 1846 0028 1A81     		strh	r2, [r3, #8]
1595:..\..\..\..\..\..\Software\uCOS-III\Source/os_core.c **** #endif
1596:..\..\..\..\..\..\Software\uCOS-III\Source/os_core.c ****         p_pend_data->NextPtr    = DEF_NULL;                     /* No other OS_PEND_DATAs in the li
 1847              		.loc 1 1596 0
 1848 002a 3B68     		ldr	r3, [r7]
 1849 002c 0022     		movs	r2, #0
 1850 002e 5A60     		str	r2, [r3, #4]
1597:..\..\..\..\..\..\Software\uCOS-III\Source/os_core.c ****         p_pend_data->PrevPtr    = DEF_NULL;
 1851              		.loc 1 1597 0
ARM GAS  C:\Users\ADMINI~1\AppData\Local\Temp\cczjWrOu.s 			page 62


 1852 0030 3B68     		ldr	r3, [r7]
 1853 0032 0022     		movs	r2, #0
 1854 0034 1A60     		str	r2, [r3]
1598:..\..\..\..\..\..\Software\uCOS-III\Source/os_core.c ****         p_pend_list->HeadPtr    = p_pend_data;
 1855              		.loc 1 1598 0
 1856 0036 7B68     		ldr	r3, [r7, #4]
 1857 0038 3A68     		ldr	r2, [r7]
 1858 003a 1A60     		str	r2, [r3]
1599:..\..\..\..\..\..\Software\uCOS-III\Source/os_core.c ****         p_pend_list->TailPtr    = p_pend_data;
 1859              		.loc 1 1599 0
 1860 003c 7B68     		ldr	r3, [r7, #4]
 1861 003e 3A68     		ldr	r2, [r7]
 1862 0040 5A60     		str	r2, [r3, #4]
1600:..\..\..\..\..\..\Software\uCOS-III\Source/os_core.c ****     } else {
1601:..\..\..\..\..\..\Software\uCOS-III\Source/os_core.c **** #if (OS_CFG_DBG_EN == DEF_ENABLED)
1602:..\..\..\..\..\..\Software\uCOS-III\Source/os_core.c ****         p_pend_list->NbrEntries++;                              /* CASE 1: One more OS_PEND_DATA in
1603:..\..\..\..\..\..\Software\uCOS-III\Source/os_core.c **** #endif
1604:..\..\..\..\..\..\Software\uCOS-III\Source/os_core.c ****         p_pend_data_next = p_pend_list->HeadPtr;
1605:..\..\..\..\..\..\Software\uCOS-III\Source/os_core.c ****         while (p_pend_data_next != DEF_NULL) {                  /* Find the position where to inser
1606:..\..\..\..\..\..\Software\uCOS-III\Source/os_core.c ****             p_tcb_next   = p_pend_data_next->TCBPtr;
1607:..\..\..\..\..\..\Software\uCOS-III\Source/os_core.c ****             if (prio < p_tcb_next->Prio) {
1608:..\..\..\..\..\..\Software\uCOS-III\Source/os_core.c ****                 break;                                          /* Found! ... insert BEFORE current
1609:..\..\..\..\..\..\Software\uCOS-III\Source/os_core.c ****             } else {
1610:..\..\..\..\..\..\Software\uCOS-III\Source/os_core.c ****                 p_pend_data_next = p_pend_data_next->NextPtr;   /* Not Found, follow the list      
1611:..\..\..\..\..\..\Software\uCOS-III\Source/os_core.c ****             }
1612:..\..\..\..\..\..\Software\uCOS-III\Source/os_core.c ****         }
1613:..\..\..\..\..\..\Software\uCOS-III\Source/os_core.c ****         if (p_pend_data_next == DEF_NULL) {                     /* TCB to insert is lower in prio  
1614:..\..\..\..\..\..\Software\uCOS-III\Source/os_core.c ****             p_pend_data->NextPtr      = DEF_NULL;               /* ... insert at the tail.         
1615:..\..\..\..\..\..\Software\uCOS-III\Source/os_core.c ****             p_pend_data_prev          = p_pend_list->TailPtr;
1616:..\..\..\..\..\..\Software\uCOS-III\Source/os_core.c ****             p_pend_data->PrevPtr      = p_pend_data_prev;
1617:..\..\..\..\..\..\Software\uCOS-III\Source/os_core.c ****             p_pend_data_prev->NextPtr = p_pend_data;
1618:..\..\..\..\..\..\Software\uCOS-III\Source/os_core.c ****             p_pend_list->TailPtr      = p_pend_data;
1619:..\..\..\..\..\..\Software\uCOS-III\Source/os_core.c ****         } else {
1620:..\..\..\..\..\..\Software\uCOS-III\Source/os_core.c ****             if (p_pend_data_next->PrevPtr == DEF_NULL) {        /* Is new TCB highest priority?    
1621:..\..\..\..\..\..\Software\uCOS-III\Source/os_core.c ****                 p_pend_data_next->PrevPtr = p_pend_data;        /* Yes, insert as new Head of list 
1622:..\..\..\..\..\..\Software\uCOS-III\Source/os_core.c ****                 p_pend_data->PrevPtr      = DEF_NULL;
1623:..\..\..\..\..\..\Software\uCOS-III\Source/os_core.c ****                 p_pend_data->NextPtr      = p_pend_data_next;
1624:..\..\..\..\..\..\Software\uCOS-III\Source/os_core.c ****                 p_pend_list->HeadPtr      = p_pend_data;
1625:..\..\..\..\..\..\Software\uCOS-III\Source/os_core.c ****             } else {
1626:..\..\..\..\..\..\Software\uCOS-III\Source/os_core.c ****                 p_pend_data_prev          = p_pend_data_next->PrevPtr;  /* No,  insert in between t
1627:..\..\..\..\..\..\Software\uCOS-III\Source/os_core.c ****                 p_pend_data->PrevPtr      = p_pend_data_prev;
1628:..\..\..\..\..\..\Software\uCOS-III\Source/os_core.c ****                 p_pend_data->NextPtr      = p_pend_data_next;
1629:..\..\..\..\..\..\Software\uCOS-III\Source/os_core.c ****                 p_pend_data_prev->NextPtr = p_pend_data;
1630:..\..\..\..\..\..\Software\uCOS-III\Source/os_core.c ****                 p_pend_data_next->PrevPtr = p_pend_data;
1631:..\..\..\..\..\..\Software\uCOS-III\Source/os_core.c ****             }
1632:..\..\..\..\..\..\Software\uCOS-III\Source/os_core.c ****         }
1633:..\..\..\..\..\..\Software\uCOS-III\Source/os_core.c ****     }
1634:..\..\..\..\..\..\Software\uCOS-III\Source/os_core.c **** }
 1863              		.loc 1 1634 0
 1864 0042 4FE0     		b	.L130
 1865              	.L121:
1602:..\..\..\..\..\..\Software\uCOS-III\Source/os_core.c **** #endif
 1866              		.loc 1 1602 0
 1867 0044 7B68     		ldr	r3, [r7, #4]
 1868 0046 1B89     		ldrh	r3, [r3, #8]
 1869 0048 0133     		adds	r3, r3, #1
 1870 004a 9AB2     		uxth	r2, r3
ARM GAS  C:\Users\ADMINI~1\AppData\Local\Temp\cczjWrOu.s 			page 63


 1871 004c 7B68     		ldr	r3, [r7, #4]
 1872 004e 1A81     		strh	r2, [r3, #8]
1604:..\..\..\..\..\..\Software\uCOS-III\Source/os_core.c ****         while (p_pend_data_next != DEF_NULL) {                  /* Find the position where to inser
 1873              		.loc 1 1604 0
 1874 0050 7B68     		ldr	r3, [r7, #4]
 1875 0052 1B68     		ldr	r3, [r3]
 1876 0054 FB61     		str	r3, [r7, #28]
1605:..\..\..\..\..\..\Software\uCOS-III\Source/os_core.c ****             p_tcb_next   = p_pend_data_next->TCBPtr;
 1877              		.loc 1 1605 0
 1878 0056 0DE0     		b	.L123
 1879              	.L126:
1606:..\..\..\..\..\..\Software\uCOS-III\Source/os_core.c ****             if (prio < p_tcb_next->Prio) {
 1880              		.loc 1 1606 0
 1881 0058 FB69     		ldr	r3, [r7, #28]
 1882 005a 9B68     		ldr	r3, [r3, #8]
 1883 005c 3B61     		str	r3, [r7, #16]
1607:..\..\..\..\..\..\Software\uCOS-III\Source/os_core.c ****                 break;                                          /* Found! ... insert BEFORE current
 1884              		.loc 1 1607 0
 1885 005e 3B69     		ldr	r3, [r7, #16]
 1886 0060 3722     		movs	r2, #55
 1887 0062 9B5C     		ldrb	r3, [r3, r2]
 1888 0064 1722     		movs	r2, #23
 1889 0066 BA18     		adds	r2, r7, r2
 1890 0068 1278     		ldrb	r2, [r2]
 1891 006a 9A42     		cmp	r2, r3
 1892 006c 06D3     		bcc	.L129
1610:..\..\..\..\..\..\Software\uCOS-III\Source/os_core.c ****             }
 1893              		.loc 1 1610 0
 1894 006e FB69     		ldr	r3, [r7, #28]
 1895 0070 5B68     		ldr	r3, [r3, #4]
 1896 0072 FB61     		str	r3, [r7, #28]
 1897              	.L123:
1605:..\..\..\..\..\..\Software\uCOS-III\Source/os_core.c ****             p_tcb_next   = p_pend_data_next->TCBPtr;
 1898              		.loc 1 1605 0
 1899 0074 FB69     		ldr	r3, [r7, #28]
 1900 0076 002B     		cmp	r3, #0
 1901 0078 EED1     		bne	.L126
 1902 007a 00E0     		b	.L125
 1903              	.L129:
1608:..\..\..\..\..\..\Software\uCOS-III\Source/os_core.c ****             } else {
 1904              		.loc 1 1608 0
 1905 007c C046     		nop
 1906              	.L125:
1613:..\..\..\..\..\..\Software\uCOS-III\Source/os_core.c ****             p_pend_data->NextPtr      = DEF_NULL;               /* ... insert at the tail.         
 1907              		.loc 1 1613 0
 1908 007e FB69     		ldr	r3, [r7, #28]
 1909 0080 002B     		cmp	r3, #0
 1910 0082 0FD1     		bne	.L127
1614:..\..\..\..\..\..\Software\uCOS-III\Source/os_core.c ****             p_pend_data_prev          = p_pend_list->TailPtr;
 1911              		.loc 1 1614 0
 1912 0084 3B68     		ldr	r3, [r7]
 1913 0086 0022     		movs	r2, #0
 1914 0088 5A60     		str	r2, [r3, #4]
1615:..\..\..\..\..\..\Software\uCOS-III\Source/os_core.c ****             p_pend_data->PrevPtr      = p_pend_data_prev;
 1915              		.loc 1 1615 0
 1916 008a 7B68     		ldr	r3, [r7, #4]
 1917 008c 5B68     		ldr	r3, [r3, #4]
ARM GAS  C:\Users\ADMINI~1\AppData\Local\Temp\cczjWrOu.s 			page 64


 1918 008e FB60     		str	r3, [r7, #12]
1616:..\..\..\..\..\..\Software\uCOS-III\Source/os_core.c ****             p_pend_data_prev->NextPtr = p_pend_data;
 1919              		.loc 1 1616 0
 1920 0090 3B68     		ldr	r3, [r7]
 1921 0092 FA68     		ldr	r2, [r7, #12]
 1922 0094 1A60     		str	r2, [r3]
1617:..\..\..\..\..\..\Software\uCOS-III\Source/os_core.c ****             p_pend_list->TailPtr      = p_pend_data;
 1923              		.loc 1 1617 0
 1924 0096 FB68     		ldr	r3, [r7, #12]
 1925 0098 3A68     		ldr	r2, [r7]
 1926 009a 5A60     		str	r2, [r3, #4]
1618:..\..\..\..\..\..\Software\uCOS-III\Source/os_core.c ****         } else {
 1927              		.loc 1 1618 0
 1928 009c 7B68     		ldr	r3, [r7, #4]
 1929 009e 3A68     		ldr	r2, [r7]
 1930 00a0 5A60     		str	r2, [r3, #4]
 1931              		.loc 1 1634 0
 1932 00a2 1FE0     		b	.L130
 1933              	.L127:
1620:..\..\..\..\..\..\Software\uCOS-III\Source/os_core.c ****                 p_pend_data_next->PrevPtr = p_pend_data;        /* Yes, insert as new Head of list 
 1934              		.loc 1 1620 0
 1935 00a4 FB69     		ldr	r3, [r7, #28]
 1936 00a6 1B68     		ldr	r3, [r3]
 1937 00a8 002B     		cmp	r3, #0
 1938 00aa 0CD1     		bne	.L128
1621:..\..\..\..\..\..\Software\uCOS-III\Source/os_core.c ****                 p_pend_data->PrevPtr      = DEF_NULL;
 1939              		.loc 1 1621 0
 1940 00ac FB69     		ldr	r3, [r7, #28]
 1941 00ae 3A68     		ldr	r2, [r7]
 1942 00b0 1A60     		str	r2, [r3]
1622:..\..\..\..\..\..\Software\uCOS-III\Source/os_core.c ****                 p_pend_data->NextPtr      = p_pend_data_next;
 1943              		.loc 1 1622 0
 1944 00b2 3B68     		ldr	r3, [r7]
 1945 00b4 0022     		movs	r2, #0
 1946 00b6 1A60     		str	r2, [r3]
1623:..\..\..\..\..\..\Software\uCOS-III\Source/os_core.c ****                 p_pend_list->HeadPtr      = p_pend_data;
 1947              		.loc 1 1623 0
 1948 00b8 3B68     		ldr	r3, [r7]
 1949 00ba FA69     		ldr	r2, [r7, #28]
 1950 00bc 5A60     		str	r2, [r3, #4]
1624:..\..\..\..\..\..\Software\uCOS-III\Source/os_core.c ****             } else {
 1951              		.loc 1 1624 0
 1952 00be 7B68     		ldr	r3, [r7, #4]
 1953 00c0 3A68     		ldr	r2, [r7]
 1954 00c2 1A60     		str	r2, [r3]
 1955              		.loc 1 1634 0
 1956 00c4 0EE0     		b	.L130
 1957              	.L128:
1626:..\..\..\..\..\..\Software\uCOS-III\Source/os_core.c ****                 p_pend_data->PrevPtr      = p_pend_data_prev;
 1958              		.loc 1 1626 0
 1959 00c6 FB69     		ldr	r3, [r7, #28]
 1960 00c8 1B68     		ldr	r3, [r3]
 1961 00ca FB60     		str	r3, [r7, #12]
1627:..\..\..\..\..\..\Software\uCOS-III\Source/os_core.c ****                 p_pend_data->NextPtr      = p_pend_data_next;
 1962              		.loc 1 1627 0
 1963 00cc 3B68     		ldr	r3, [r7]
 1964 00ce FA68     		ldr	r2, [r7, #12]
ARM GAS  C:\Users\ADMINI~1\AppData\Local\Temp\cczjWrOu.s 			page 65


 1965 00d0 1A60     		str	r2, [r3]
