ARM GAS  C:\Users\ADMINI~1\AppData\Local\Temp\cczjWrOu.s 			page 1


   1              		.syntax unified
   2              		.cpu cortex-m0
   3              		.fpu softvfp
   4              		.eabi_attribute 20, 1
   5              		.eabi_attribute 21, 1
   6              		.eabi_attribute 23, 3
   7              		.eabi_attribute 24, 1
   8              		.eabi_attribute 25, 1
   9              		.eabi_attribute 26, 1
  10              		.eabi_attribute 30, 6
  11              		.eabi_attribute 34, 0
  12              		.eabi_attribute 18, 4
  13              		.thumb
  14              		.syntax unified
  15              		.file	"os_core.c"
  16              		.text
  17              	.Ltext0:
  18              		.cfi_sections	.debug_frame
  19              		.section	.text.OSInit,"ax",%progbits
  20              		.align	2
  21              		.global	OSInit
  22              		.code	16
  23              		.thumb_func
  24              		.type	OSInit, %function
  25              	OSInit:
  26              	.LFB0:
  27              		.file 1 "..\\..\\..\\..\\..\\..\\Software\\uCOS-III\\Source\\os_core.c"
   1:..\..\..\..\..\..\Software\uCOS-III\Source/os_core.c **** /*
   2:..\..\..\..\..\..\Software\uCOS-III\Source/os_core.c **** ***************************************************************************************************
   3:..\..\..\..\..\..\Software\uCOS-III\Source/os_core.c **** *                                                      uC/OS-III
   4:..\..\..\..\..\..\Software\uCOS-III\Source/os_core.c **** *                                                 The Real-Time Kernel
   5:..\..\..\..\..\..\Software\uCOS-III\Source/os_core.c **** *
   6:..\..\..\..\..\..\Software\uCOS-III\Source/os_core.c **** *                                  (c) Copyright 2009-2015; Micrium, Inc.; Weston, FL
   7:..\..\..\..\..\..\Software\uCOS-III\Source/os_core.c **** *                           All rights reserved.  Protected by international copyright laws.
   8:..\..\..\..\..\..\Software\uCOS-III\Source/os_core.c **** *
   9:..\..\..\..\..\..\Software\uCOS-III\Source/os_core.c **** *                                                    CORE FUNCTIONS
  10:..\..\..\..\..\..\Software\uCOS-III\Source/os_core.c **** *
  11:..\..\..\..\..\..\Software\uCOS-III\Source/os_core.c **** * File    : OS_CORE.C
  12:..\..\..\..\..\..\Software\uCOS-III\Source/os_core.c **** * By      : JJL
  13:..\..\..\..\..\..\Software\uCOS-III\Source/os_core.c **** * Version : V3.05.01
  14:..\..\..\..\..\..\Software\uCOS-III\Source/os_core.c **** *
  15:..\..\..\..\..\..\Software\uCOS-III\Source/os_core.c **** * LICENSING TERMS:
  16:..\..\..\..\..\..\Software\uCOS-III\Source/os_core.c **** * ---------------
  17:..\..\..\..\..\..\Software\uCOS-III\Source/os_core.c **** *           uC/OS-III is provided in source form for FREE short-term evaluation, for educational us
  18:..\..\..\..\..\..\Software\uCOS-III\Source/os_core.c **** *           for peaceful research.  If you plan or intend to use uC/OS-III in a commercial applicat
  19:..\..\..\..\..\..\Software\uCOS-III\Source/os_core.c **** *           product then, you need to contact Micrium to properly license uC/OS-III for its use in 
  20:..\..\..\..\..\..\Software\uCOS-III\Source/os_core.c **** *           application/product.   We provide ALL the source code for your convenience and to help 
  21:..\..\..\..\..\..\Software\uCOS-III\Source/os_core.c **** *           experience uC/OS-III.  The fact that the source is provided does NOT mean that you can 
  22:..\..\..\..\..\..\Software\uCOS-III\Source/os_core.c **** *           it commercially without paying a licensing fee.
  23:..\..\..\..\..\..\Software\uCOS-III\Source/os_core.c **** *
  24:..\..\..\..\..\..\Software\uCOS-III\Source/os_core.c **** *           Knowledge of the source code may NOT be used to develop a similar product.
  25:..\..\..\..\..\..\Software\uCOS-III\Source/os_core.c **** *
  26:..\..\..\..\..\..\Software\uCOS-III\Source/os_core.c **** *           Please help us continue to provide the embedded community with the finest software avai
  27:..\..\..\..\..\..\Software\uCOS-III\Source/os_core.c **** *           Your honesty is greatly appreciated.
  28:..\..\..\..\..\..\Software\uCOS-III\Source/os_core.c **** *
  29:..\..\..\..\..\..\Software\uCOS-III\Source/os_core.c **** *           You can find our product's user manual, API reference, release notes and
  30:..\..\..\..\..\..\Software\uCOS-III\Source/os_core.c **** *           more information at https://doc.micrium.com.
ARM GAS  C:\Users\ADMINI~1\AppData\Local\Temp\cczjWrOu.s 			page 2


  31:..\..\..\..\..\..\Software\uCOS-III\Source/os_core.c **** *           You can contact us at www.micrium.com.
  32:..\..\..\..\..\..\Software\uCOS-III\Source/os_core.c **** ***************************************************************************************************
  33:..\..\..\..\..\..\Software\uCOS-III\Source/os_core.c **** */
  34:..\..\..\..\..\..\Software\uCOS-III\Source/os_core.c **** 
  35:..\..\..\..\..\..\Software\uCOS-III\Source/os_core.c **** #define  MICRIUM_SOURCE
  36:..\..\..\..\..\..\Software\uCOS-III\Source/os_core.c **** #include "os.h"
  37:..\..\..\..\..\..\Software\uCOS-III\Source/os_core.c **** 
  38:..\..\..\..\..\..\Software\uCOS-III\Source/os_core.c **** #ifdef VSC_INCLUDE_SOURCE_FILE_NAMES
  39:..\..\..\..\..\..\Software\uCOS-III\Source/os_core.c **** const  CPU_CHAR  *os_core__c = "$Id: $";
  40:..\..\..\..\..\..\Software\uCOS-III\Source/os_core.c **** #endif
  41:..\..\..\..\..\..\Software\uCOS-III\Source/os_core.c **** 
  42:..\..\..\..\..\..\Software\uCOS-III\Source/os_core.c **** /*
  43:..\..\..\..\..\..\Software\uCOS-III\Source/os_core.c **** ***************************************************************************************************
  44:..\..\..\..\..\..\Software\uCOS-III\Source/os_core.c **** *                                                    INITIALIZATION
  45:..\..\..\..\..\..\Software\uCOS-III\Source/os_core.c **** *
  46:..\..\..\..\..\..\Software\uCOS-III\Source/os_core.c **** * Description: This function is used to initialize the internals of uC/OS-III and MUST be called pr
  47:..\..\..\..\..\..\Software\uCOS-III\Source/os_core.c **** *              creating any uC/OS-III object and, prior to calling OSStart().
  48:..\..\..\..\..\..\Software\uCOS-III\Source/os_core.c **** *
  49:..\..\..\..\..\..\Software\uCOS-III\Source/os_core.c **** * Arguments  : p_err         is a pointer to a variable that will contain an error code returned by
  50:..\..\..\..\..\..\Software\uCOS-III\Source/os_core.c **** *
  51:..\..\..\..\..\..\Software\uCOS-III\Source/os_core.c **** *                                OS_ERR_NONE    Initialization was successful
  52:..\..\..\..\..\..\Software\uCOS-III\Source/os_core.c **** *                                Other          Other OS_ERR_xxx depending on the sub-functions cal
  53:..\..\..\..\..\..\Software\uCOS-III\Source/os_core.c **** * Returns    : none
  54:..\..\..\..\..\..\Software\uCOS-III\Source/os_core.c **** ***************************************************************************************************
  55:..\..\..\..\..\..\Software\uCOS-III\Source/os_core.c **** */
  56:..\..\..\..\..\..\Software\uCOS-III\Source/os_core.c **** 
  57:..\..\..\..\..\..\Software\uCOS-III\Source/os_core.c **** void  OSInit (OS_ERR  *p_err)
  58:..\..\..\..\..\..\Software\uCOS-III\Source/os_core.c **** {
  28              		.loc 1 58 0
  29              		.cfi_startproc
  30              		@ args = 0, pretend = 0, frame = 16
  31              		@ frame_needed = 1, uses_anonymous_args = 0
  32 0000 80B5     		push	{r7, lr}
  33              		.cfi_def_cfa_offset 8
  34              		.cfi_offset 7, -8
  35              		.cfi_offset 14, -4
  36 0002 84B0     		sub	sp, sp, #16
  37              		.cfi_def_cfa_offset 24
  38 0004 00AF     		add	r7, sp, #0
  39              		.cfi_def_cfa_register 7
  40 0006 7860     		str	r0, [r7, #4]
  59:..\..\..\..\..\..\Software\uCOS-III\Source/os_core.c **** #if (OS_CFG_ISR_STK_SIZE > 0u)
  60:..\..\..\..\..\..\Software\uCOS-III\Source/os_core.c ****     CPU_STK      *p_stk;
  61:..\..\..\..\..\..\Software\uCOS-III\Source/os_core.c ****     CPU_STK_SIZE  size;
  62:..\..\..\..\..\..\Software\uCOS-III\Source/os_core.c **** #endif
  63:..\..\..\..\..\..\Software\uCOS-III\Source/os_core.c **** 
  64:..\..\..\..\..\..\Software\uCOS-III\Source/os_core.c **** 
  65:..\..\..\..\..\..\Software\uCOS-III\Source/os_core.c **** 
  66:..\..\..\..\..\..\Software\uCOS-III\Source/os_core.c **** #ifdef OS_SAFETY_CRITICAL
  67:..\..\..\..\..\..\Software\uCOS-III\Source/os_core.c ****     if (p_err == DEF_NULL) {
  68:..\..\..\..\..\..\Software\uCOS-III\Source/os_core.c ****         OS_SAFETY_CRITICAL_EXCEPTION();
  69:..\..\..\..\..\..\Software\uCOS-III\Source/os_core.c ****         return;
  70:..\..\..\..\..\..\Software\uCOS-III\Source/os_core.c ****     }
  71:..\..\..\..\..\..\Software\uCOS-III\Source/os_core.c **** #endif
  72:..\..\..\..\..\..\Software\uCOS-III\Source/os_core.c **** 
  73:..\..\..\..\..\..\Software\uCOS-III\Source/os_core.c ****     OSInitHook();                                               /* Call port specific initializatio
  41              		.loc 1 73 0
ARM GAS  C:\Users\ADMINI~1\AppData\Local\Temp\cczjWrOu.s 			page 3


  42 0008 FFF7FEFF 		bl	OSInitHook
  74:..\..\..\..\..\..\Software\uCOS-III\Source/os_core.c **** 
  75:..\..\..\..\..\..\Software\uCOS-III\Source/os_core.c ****     OSIntNestingCtr       = 0u;                                 /* Clear the interrupt nesting coun
  43              		.loc 1 75 0
  44 000c 514B     		ldr	r3, .L20
  45 000e 0022     		movs	r2, #0
  46 0010 1A70     		strb	r2, [r3]
  76:..\..\..\..\..\..\Software\uCOS-III\Source/os_core.c **** 
  77:..\..\..\..\..\..\Software\uCOS-III\Source/os_core.c ****     OSRunning             = OS_STATE_OS_STOPPED;                /* Indicate that multitasking not s
  47              		.loc 1 77 0
  48 0012 514B     		ldr	r3, .L20+4
  49 0014 0022     		movs	r2, #0
  50 0016 1A70     		strb	r2, [r3]
  78:..\..\..\..\..\..\Software\uCOS-III\Source/os_core.c **** 
  79:..\..\..\..\..\..\Software\uCOS-III\Source/os_core.c ****     OSSchedLockNestingCtr = 0u;                                 /* Clear the scheduling lock counte
  51              		.loc 1 79 0
  52 0018 504B     		ldr	r3, .L20+8
  53 001a 0022     		movs	r2, #0
  54 001c 1A70     		strb	r2, [r3]
  80:..\..\..\..\..\..\Software\uCOS-III\Source/os_core.c **** 
  81:..\..\..\..\..\..\Software\uCOS-III\Source/os_core.c ****     OSTCBCurPtr           = DEF_NULL;                           /* Initialize OS_TCB pointers to a 
  55              		.loc 1 81 0
  56 001e 504B     		ldr	r3, .L20+12
  57 0020 0022     		movs	r2, #0
  58 0022 1A60     		str	r2, [r3]
  82:..\..\..\..\..\..\Software\uCOS-III\Source/os_core.c ****     OSTCBHighRdyPtr       = DEF_NULL;
  59              		.loc 1 82 0
  60 0024 4F4B     		ldr	r3, .L20+16
  61 0026 0022     		movs	r2, #0
  62 0028 1A60     		str	r2, [r3]
  83:..\..\..\..\..\..\Software\uCOS-III\Source/os_core.c **** 
  84:..\..\..\..\..\..\Software\uCOS-III\Source/os_core.c ****     OSPrioCur             = 0u;                                 /* Initialize priority variables to
  63              		.loc 1 84 0
  64 002a 4F4B     		ldr	r3, .L20+20
  65 002c 0022     		movs	r2, #0
  66 002e 1A70     		strb	r2, [r3]
  85:..\..\..\..\..\..\Software\uCOS-III\Source/os_core.c ****     OSPrioHighRdy         = 0u;
  67              		.loc 1 85 0
  68 0030 4E4B     		ldr	r3, .L20+24
  69 0032 0022     		movs	r2, #0
  70 0034 1A70     		strb	r2, [r3]
  86:..\..\..\..\..\..\Software\uCOS-III\Source/os_core.c **** #if (OS_CFG_ISR_POST_DEFERRED_EN == DEF_ENABLED)
  87:..\..\..\..\..\..\Software\uCOS-III\Source/os_core.c ****     OSPrioSaved           = 0u;
  88:..\..\..\..\..\..\Software\uCOS-III\Source/os_core.c **** #endif
  89:..\..\..\..\..\..\Software\uCOS-III\Source/os_core.c **** 
  90:..\..\..\..\..\..\Software\uCOS-III\Source/os_core.c **** #if (OS_CFG_SCHED_LOCK_TIME_MEAS_EN == DEF_ENABLED)
  91:..\..\..\..\..\..\Software\uCOS-III\Source/os_core.c ****     OSSchedLockTimeBegin  = 0u;
  71              		.loc 1 91 0
  72 0036 4E4B     		ldr	r3, .L20+28
  73 0038 0022     		movs	r2, #0
  74 003a 1A60     		str	r2, [r3]
  92:..\..\..\..\..\..\Software\uCOS-III\Source/os_core.c ****     OSSchedLockTimeMax    = 0u;
  75              		.loc 1 92 0
  76 003c 4D4B     		ldr	r3, .L20+32
  77 003e 0022     		movs	r2, #0
  78 0040 1A60     		str	r2, [r3]
  93:..\..\..\..\..\..\Software\uCOS-III\Source/os_core.c ****     OSSchedLockTimeMaxCur = 0u;
ARM GAS  C:\Users\ADMINI~1\AppData\Local\Temp\cczjWrOu.s 			page 4


  79              		.loc 1 93 0
  80 0042 4D4B     		ldr	r3, .L20+36
  81 0044 0022     		movs	r2, #0
  82 0046 1A60     		str	r2, [r3]
  94:..\..\..\..\..\..\Software\uCOS-III\Source/os_core.c **** #endif
  95:..\..\..\..\..\..\Software\uCOS-III\Source/os_core.c **** 
  96:..\..\..\..\..\..\Software\uCOS-III\Source/os_core.c **** #ifdef OS_SAFETY_CRITICAL_IEC61508
  97:..\..\..\..\..\..\Software\uCOS-III\Source/os_core.c ****     OSSafetyCriticalStartFlag       =  DEF_FALSE;
  98:..\..\..\..\..\..\Software\uCOS-III\Source/os_core.c **** #endif
  99:..\..\..\..\..\..\Software\uCOS-III\Source/os_core.c **** 
 100:..\..\..\..\..\..\Software\uCOS-III\Source/os_core.c **** #if (OS_CFG_SCHED_ROUND_ROBIN_EN == DEF_ENABLED)
 101:..\..\..\..\..\..\Software\uCOS-III\Source/os_core.c ****     OSSchedRoundRobinEn             = DEF_FALSE;
 102:..\..\..\..\..\..\Software\uCOS-III\Source/os_core.c ****     OSSchedRoundRobinDfltTimeQuanta = OSCfg_TickRate_Hz / 10u;
 103:..\..\..\..\..\..\Software\uCOS-III\Source/os_core.c **** #endif
 104:..\..\..\..\..\..\Software\uCOS-III\Source/os_core.c **** 
 105:..\..\..\..\..\..\Software\uCOS-III\Source/os_core.c **** #if (OS_CFG_ISR_STK_SIZE > 0u)
 106:..\..\..\..\..\..\Software\uCOS-III\Source/os_core.c ****     p_stk = OSCfg_ISRStkBasePtr;                                /* Clear exception stack for stack 
  83              		.loc 1 106 0
  84 0048 4C4B     		ldr	r3, .L20+40
  85 004a 1B68     		ldr	r3, [r3]
  86 004c FB60     		str	r3, [r7, #12]
 107:..\..\..\..\..\..\Software\uCOS-III\Source/os_core.c ****     if (p_stk != DEF_NULL) {
  87              		.loc 1 107 0
  88 004e FB68     		ldr	r3, [r7, #12]
  89 0050 002B     		cmp	r3, #0
  90 0052 0FD0     		beq	.L2
 108:..\..\..\..\..\..\Software\uCOS-III\Source/os_core.c ****         size  = OSCfg_ISRStkSize;
  91              		.loc 1 108 0
  92 0054 4A4B     		ldr	r3, .L20+44
  93 0056 1B68     		ldr	r3, [r3]
  94 0058 BB60     		str	r3, [r7, #8]
 109:..\..\..\..\..\..\Software\uCOS-III\Source/os_core.c ****         while (size > 0u) {
  95              		.loc 1 109 0
  96 005a 08E0     		b	.L3
  97              	.L4:
 110:..\..\..\..\..\..\Software\uCOS-III\Source/os_core.c ****             size--;
  98              		.loc 1 110 0
  99 005c BB68     		ldr	r3, [r7, #8]
 100 005e 013B     		subs	r3, r3, #1
 101 0060 BB60     		str	r3, [r7, #8]
 111:..\..\..\..\..\..\Software\uCOS-III\Source/os_core.c ****            *p_stk = 0u;
 102              		.loc 1 111 0
 103 0062 FB68     		ldr	r3, [r7, #12]
 104 0064 0022     		movs	r2, #0
 105 0066 1A60     		str	r2, [r3]
 112:..\..\..\..\..\..\Software\uCOS-III\Source/os_core.c ****             p_stk++;
 106              		.loc 1 112 0
 107 0068 FB68     		ldr	r3, [r7, #12]
 108 006a 0433     		adds	r3, r3, #4
 109 006c FB60     		str	r3, [r7, #12]
 110              	.L3:
 109:..\..\..\..\..\..\Software\uCOS-III\Source/os_core.c ****             size--;
 111              		.loc 1 109 0
 112 006e BB68     		ldr	r3, [r7, #8]
 113 0070 002B     		cmp	r3, #0
 114 0072 F3D1     		bne	.L4
 115              	.L2:
ARM GAS  C:\Users\ADMINI~1\AppData\Local\Temp\cczjWrOu.s 			page 5


 113:..\..\..\..\..\..\Software\uCOS-III\Source/os_core.c ****         }
 114:..\..\..\..\..\..\Software\uCOS-III\Source/os_core.c ****     }
 115:..\..\..\..\..\..\Software\uCOS-III\Source/os_core.c **** #if (OS_CFG_TASK_STK_REDZONE_EN == DEF_ENABLED)                 /* Initialize Redzoned ISR stack   
 116:..\..\..\..\..\..\Software\uCOS-III\Source/os_core.c ****     OS_TaskStkRedzoneInit(OSCfg_ISRStkBasePtr, OSCfg_ISRStkSize);
 117:..\..\..\..\..\..\Software\uCOS-III\Source/os_core.c **** #endif
 118:..\..\..\..\..\..\Software\uCOS-III\Source/os_core.c **** #endif
 119:..\..\..\..\..\..\Software\uCOS-III\Source/os_core.c **** 
 120:..\..\..\..\..\..\Software\uCOS-III\Source/os_core.c **** #if (OS_CFG_APP_HOOKS_EN == DEF_ENABLED)                        /* Clear application hook pointers 
 121:..\..\..\..\..\..\Software\uCOS-III\Source/os_core.c **** #if (OS_CFG_TASK_STK_REDZONE_EN == DEF_ENABLED)
 122:..\..\..\..\..\..\Software\uCOS-III\Source/os_core.c ****     OS_AppRedzoneHitHookPtr = DEF_NULL;
 123:..\..\..\..\..\..\Software\uCOS-III\Source/os_core.c **** #endif
 124:..\..\..\..\..\..\Software\uCOS-III\Source/os_core.c ****     OS_AppTaskCreateHookPtr = DEF_NULL;
 125:..\..\..\..\..\..\Software\uCOS-III\Source/os_core.c ****     OS_AppTaskDelHookPtr    = DEF_NULL;
 126:..\..\..\..\..\..\Software\uCOS-III\Source/os_core.c ****     OS_AppTaskReturnHookPtr = DEF_NULL;
 127:..\..\..\..\..\..\Software\uCOS-III\Source/os_core.c **** 
 128:..\..\..\..\..\..\Software\uCOS-III\Source/os_core.c ****     OS_AppIdleTaskHookPtr   = DEF_NULL;
 129:..\..\..\..\..\..\Software\uCOS-III\Source/os_core.c ****     OS_AppStatTaskHookPtr   = DEF_NULL;
 130:..\..\..\..\..\..\Software\uCOS-III\Source/os_core.c ****     OS_AppTaskSwHookPtr     = DEF_NULL;
 131:..\..\..\..\..\..\Software\uCOS-III\Source/os_core.c ****     OS_AppTimeTickHookPtr   = DEF_NULL;
 132:..\..\..\..\..\..\Software\uCOS-III\Source/os_core.c **** #endif
 133:..\..\..\..\..\..\Software\uCOS-III\Source/os_core.c **** 
 134:..\..\..\..\..\..\Software\uCOS-III\Source/os_core.c **** #if (OS_CFG_TASK_REG_TBL_SIZE > 0u)
 135:..\..\..\..\..\..\Software\uCOS-III\Source/os_core.c ****     OSTaskRegNextAvailID    = 0u;
 116              		.loc 1 135 0
 117 0074 434B     		ldr	r3, .L20+48
 118 0076 0022     		movs	r2, #0
 119 0078 1A70     		strb	r2, [r3]
 136:..\..\..\..\..\..\Software\uCOS-III\Source/os_core.c **** #endif
 137:..\..\..\..\..\..\Software\uCOS-III\Source/os_core.c **** 
 138:..\..\..\..\..\..\Software\uCOS-III\Source/os_core.c ****     OS_PrioInit();                                              /* Initialize the priority bitmap t
 120              		.loc 1 138 0
 121 007a FFF7FEFF 		bl	OS_PrioInit
 139:..\..\..\..\..\..\Software\uCOS-III\Source/os_core.c **** 
 140:..\..\..\..\..\..\Software\uCOS-III\Source/os_core.c ****     OS_RdyListInit();                                           /* Initialize the Ready List       
 122              		.loc 1 140 0
 123 007e FFF7FEFF 		bl	OS_RdyListInit
 141:..\..\..\..\..\..\Software\uCOS-III\Source/os_core.c **** 
 142:..\..\..\..\..\..\Software\uCOS-III\Source/os_core.c **** 
 143:..\..\..\..\..\..\Software\uCOS-III\Source/os_core.c **** #if (OS_CFG_FLAG_EN == DEF_ENABLED)                             /* Initialize the Event Flag module
 144:..\..\..\..\..\..\Software\uCOS-III\Source/os_core.c **** #if (OS_CFG_DBG_EN == DEF_ENABLED)
 145:..\..\..\..\..\..\Software\uCOS-III\Source/os_core.c ****     OSFlagDbgListPtr = DEF_NULL;
 124              		.loc 1 145 0
 125 0082 414B     		ldr	r3, .L20+52
 126 0084 0022     		movs	r2, #0
 127 0086 1A60     		str	r2, [r3]
 146:..\..\..\..\..\..\Software\uCOS-III\Source/os_core.c ****     OSFlagQty        = 0u;
 128              		.loc 1 146 0
 129 0088 404B     		ldr	r3, .L20+56
 130 008a 0022     		movs	r2, #0
 131 008c 1A80     		strh	r2, [r3]
 147:..\..\..\..\..\..\Software\uCOS-III\Source/os_core.c **** #endif
 148:..\..\..\..\..\..\Software\uCOS-III\Source/os_core.c **** #endif
 149:..\..\..\..\..\..\Software\uCOS-III\Source/os_core.c **** 
 150:..\..\..\..\..\..\Software\uCOS-III\Source/os_core.c **** #if (OS_CFG_MEM_EN == DEF_ENABLED)                              /* Initialize the Memory Manager mo
 151:..\..\..\..\..\..\Software\uCOS-III\Source/os_core.c ****     OS_MemInit(p_err);
 132              		.loc 1 151 0
 133 008e 7B68     		ldr	r3, [r7, #4]
ARM GAS  C:\Users\ADMINI~1\AppData\Local\Temp\cczjWrOu.s 			page 6


 134 0090 1800     		movs	r0, r3
 135 0092 FFF7FEFF 		bl	OS_MemInit
 152:..\..\..\..\..\..\Software\uCOS-III\Source/os_core.c ****     if (*p_err != OS_ERR_NONE) {
 136              		.loc 1 152 0
 137 0096 7B68     		ldr	r3, [r7, #4]
 138 0098 1B88     		ldrh	r3, [r3]
 139 009a 002B     		cmp	r3, #0
 140 009c 49D1     		bne	.L13
 153:..\..\..\..\..\..\Software\uCOS-III\Source/os_core.c ****         return;
 154:..\..\..\..\..\..\Software\uCOS-III\Source/os_core.c ****     }
 155:..\..\..\..\..\..\Software\uCOS-III\Source/os_core.c **** #endif
 156:..\..\..\..\..\..\Software\uCOS-III\Source/os_core.c **** 
 157:..\..\..\..\..\..\Software\uCOS-III\Source/os_core.c **** 
 158:..\..\..\..\..\..\Software\uCOS-III\Source/os_core.c **** #if (OS_MSG_EN == DEF_ENABLED)                                  /* Initialize the free list of OS_M
 159:..\..\..\..\..\..\Software\uCOS-III\Source/os_core.c ****     OS_MsgPoolInit(p_err);
 141              		.loc 1 159 0
 142 009e 7B68     		ldr	r3, [r7, #4]
 143 00a0 1800     		movs	r0, r3
 144 00a2 FFF7FEFF 		bl	OS_MsgPoolInit
 160:..\..\..\..\..\..\Software\uCOS-III\Source/os_core.c ****     if (*p_err != OS_ERR_NONE) {
 145              		.loc 1 160 0
 146 00a6 7B68     		ldr	r3, [r7, #4]
 147 00a8 1B88     		ldrh	r3, [r3]
 148 00aa 002B     		cmp	r3, #0
 149 00ac 43D1     		bne	.L14
 161:..\..\..\..\..\..\Software\uCOS-III\Source/os_core.c ****         return;
 162:..\..\..\..\..\..\Software\uCOS-III\Source/os_core.c ****     }
 163:..\..\..\..\..\..\Software\uCOS-III\Source/os_core.c **** #endif
 164:..\..\..\..\..\..\Software\uCOS-III\Source/os_core.c **** 
 165:..\..\..\..\..\..\Software\uCOS-III\Source/os_core.c **** 
 166:..\..\..\..\..\..\Software\uCOS-III\Source/os_core.c **** #if (OS_CFG_MUTEX_EN == DEF_ENABLED)                            /* Initialize the Mutex Manager mod
 167:..\..\..\..\..\..\Software\uCOS-III\Source/os_core.c **** #if (OS_CFG_DBG_EN == DEF_ENABLED)
 168:..\..\..\..\..\..\Software\uCOS-III\Source/os_core.c ****     OSMutexDbgListPtr = DEF_NULL;
 150              		.loc 1 168 0
 151 00ae 384B     		ldr	r3, .L20+60
 152 00b0 0022     		movs	r2, #0
 153 00b2 1A60     		str	r2, [r3]
 169:..\..\..\..\..\..\Software\uCOS-III\Source/os_core.c ****     OSMutexQty        = 0u;
 154              		.loc 1 169 0
 155 00b4 374B     		ldr	r3, .L20+64
 156 00b6 0022     		movs	r2, #0
 157 00b8 1A80     		strh	r2, [r3]
 170:..\..\..\..\..\..\Software\uCOS-III\Source/os_core.c **** #endif
 171:..\..\..\..\..\..\Software\uCOS-III\Source/os_core.c **** #endif
 172:..\..\..\..\..\..\Software\uCOS-III\Source/os_core.c **** 
 173:..\..\..\..\..\..\Software\uCOS-III\Source/os_core.c **** 
 174:..\..\..\..\..\..\Software\uCOS-III\Source/os_core.c **** #if (OS_CFG_Q_EN == DEF_ENABLED)                                /* Initialize the Message Queue Man
 175:..\..\..\..\..\..\Software\uCOS-III\Source/os_core.c **** #if (OS_CFG_DBG_EN == DEF_ENABLED)
 176:..\..\..\..\..\..\Software\uCOS-III\Source/os_core.c ****     OSQDbgListPtr = DEF_NULL;
 158              		.loc 1 176 0
 159 00ba 374B     		ldr	r3, .L20+68
 160 00bc 0022     		movs	r2, #0
 161 00be 1A60     		str	r2, [r3]
 177:..\..\..\..\..\..\Software\uCOS-III\Source/os_core.c ****     OSQQty        = 0u;
 162              		.loc 1 177 0
 163 00c0 364B     		ldr	r3, .L20+72
 164 00c2 0022     		movs	r2, #0
ARM GAS  C:\Users\ADMINI~1\AppData\Local\Temp\cczjWrOu.s 			page 7


 165 00c4 1A80     		strh	r2, [r3]
 178:..\..\..\..\..\..\Software\uCOS-III\Source/os_core.c **** #endif
 179:..\..\..\..\..\..\Software\uCOS-III\Source/os_core.c **** #endif
 180:..\..\..\..\..\..\Software\uCOS-III\Source/os_core.c **** 
 181:..\..\..\..\..\..\Software\uCOS-III\Source/os_core.c **** 
 182:..\..\..\..\..\..\Software\uCOS-III\Source/os_core.c **** #if (OS_CFG_SEM_EN == DEF_ENABLED)                              /* Initialize the Semaphore Manager
 183:..\..\..\..\..\..\Software\uCOS-III\Source/os_core.c **** #if (OS_CFG_DBG_EN == DEF_ENABLED)
 184:..\..\..\..\..\..\Software\uCOS-III\Source/os_core.c ****     OSSemDbgListPtr = DEF_NULL;
 166              		.loc 1 184 0
 167 00c6 364B     		ldr	r3, .L20+76
 168 00c8 0022     		movs	r2, #0
 169 00ca 1A60     		str	r2, [r3]
 185:..\..\..\..\..\..\Software\uCOS-III\Source/os_core.c ****     OSSemQty        = 0u;
 170              		.loc 1 185 0
 171 00cc 354B     		ldr	r3, .L20+80
 172 00ce 0022     		movs	r2, #0
 173 00d0 1A80     		strh	r2, [r3]
 186:..\..\..\..\..\..\Software\uCOS-III\Source/os_core.c **** #endif
 187:..\..\..\..\..\..\Software\uCOS-III\Source/os_core.c **** #endif
 188:..\..\..\..\..\..\Software\uCOS-III\Source/os_core.c **** 
 189:..\..\..\..\..\..\Software\uCOS-III\Source/os_core.c **** 
 190:..\..\..\..\..\..\Software\uCOS-III\Source/os_core.c **** #if defined(OS_CFG_TLS_TBL_SIZE) && (OS_CFG_TLS_TBL_SIZE > 0u)
 191:..\..\..\..\..\..\Software\uCOS-III\Source/os_core.c ****     OS_TLS_Init(p_err);                                         /* Initialize Task Local Storage, b
 192:..\..\..\..\..\..\Software\uCOS-III\Source/os_core.c ****     if (*p_err != OS_ERR_NONE) {
 193:..\..\..\..\..\..\Software\uCOS-III\Source/os_core.c ****         return;
 194:..\..\..\..\..\..\Software\uCOS-III\Source/os_core.c ****     }
 195:..\..\..\..\..\..\Software\uCOS-III\Source/os_core.c **** #endif
 196:..\..\..\..\..\..\Software\uCOS-III\Source/os_core.c **** 
 197:..\..\..\..\..\..\Software\uCOS-III\Source/os_core.c **** 
 198:..\..\..\..\..\..\Software\uCOS-III\Source/os_core.c ****     OS_TaskInit(p_err);                                         /* Initialize the task manager     
 174              		.loc 1 198 0
 175 00d2 7B68     		ldr	r3, [r7, #4]
 176 00d4 1800     		movs	r0, r3
 177 00d6 FFF7FEFF 		bl	OS_TaskInit
 199:..\..\..\..\..\..\Software\uCOS-III\Source/os_core.c ****     if (*p_err != OS_ERR_NONE) {
 178              		.loc 1 199 0
 179 00da 7B68     		ldr	r3, [r7, #4]
 180 00dc 1B88     		ldrh	r3, [r3]
 181 00de 002B     		cmp	r3, #0
 182 00e0 2BD1     		bne	.L15
 200:..\..\..\..\..\..\Software\uCOS-III\Source/os_core.c ****         return;
 201:..\..\..\..\..\..\Software\uCOS-III\Source/os_core.c ****     }
 202:..\..\..\..\..\..\Software\uCOS-III\Source/os_core.c **** 
 203:..\..\..\..\..\..\Software\uCOS-III\Source/os_core.c **** 
 204:..\..\..\..\..\..\Software\uCOS-III\Source/os_core.c **** #if (OS_CFG_ISR_POST_DEFERRED_EN == DEF_ENABLED)
 205:..\..\..\..\..\..\Software\uCOS-III\Source/os_core.c ****     OS_IntQTaskInit(p_err);                                     /* Initialize the Interrupt Queue H
 206:..\..\..\..\..\..\Software\uCOS-III\Source/os_core.c ****     if (*p_err != OS_ERR_NONE) {
 207:..\..\..\..\..\..\Software\uCOS-III\Source/os_core.c ****         return;
 208:..\..\..\..\..\..\Software\uCOS-III\Source/os_core.c ****     }
 209:..\..\..\..\..\..\Software\uCOS-III\Source/os_core.c **** #endif
 210:..\..\..\..\..\..\Software\uCOS-III\Source/os_core.c **** 
 211:..\..\..\..\..\..\Software\uCOS-III\Source/os_core.c **** 
 212:..\..\..\..\..\..\Software\uCOS-III\Source/os_core.c **** #if (OS_CFG_TASK_IDLE_EN == DEF_ENABLED)
 213:..\..\..\..\..\..\Software\uCOS-III\Source/os_core.c ****     OS_IdleTaskInit(p_err);                                     /* Initialize the Idle Task        
 183              		.loc 1 213 0
 184 00e2 7B68     		ldr	r3, [r7, #4]
 185 00e4 1800     		movs	r0, r3
ARM GAS  C:\Users\ADMINI~1\AppData\Local\Temp\cczjWrOu.s 			page 8


 186 00e6 FFF7FEFF 		bl	OS_IdleTaskInit
 214:..\..\..\..\..\..\Software\uCOS-III\Source/os_core.c ****     if (*p_err != OS_ERR_NONE) {
 187              		.loc 1 214 0
 188 00ea 7B68     		ldr	r3, [r7, #4]
 189 00ec 1B88     		ldrh	r3, [r3]
 190 00ee 002B     		cmp	r3, #0
 191 00f0 25D1     		bne	.L16
 215:..\..\..\..\..\..\Software\uCOS-III\Source/os_core.c ****         return;
 216:..\..\..\..\..\..\Software\uCOS-III\Source/os_core.c ****     }
 217:..\..\..\..\..\..\Software\uCOS-III\Source/os_core.c **** #endif
 218:..\..\..\..\..\..\Software\uCOS-III\Source/os_core.c **** 
 219:..\..\..\..\..\..\Software\uCOS-III\Source/os_core.c **** 
 220:..\..\..\..\..\..\Software\uCOS-III\Source/os_core.c **** #if (OS_CFG_TASK_TICK_EN == DEF_ENABLED)
 221:..\..\..\..\..\..\Software\uCOS-III\Source/os_core.c ****     OS_TickTaskInit(p_err);                                     /* Initialize the Tick Task        
 192              		.loc 1 221 0
 193 00f2 7B68     		ldr	r3, [r7, #4]
 194 00f4 1800     		movs	r0, r3
 195 00f6 FFF7FEFF 		bl	OS_TickTaskInit
 222:..\..\..\..\..\..\Software\uCOS-III\Source/os_core.c ****     if (*p_err != OS_ERR_NONE) {
 196              		.loc 1 222 0
 197 00fa 7B68     		ldr	r3, [r7, #4]
 198 00fc 1B88     		ldrh	r3, [r3]
 199 00fe 002B     		cmp	r3, #0
 200 0100 1FD1     		bne	.L17
 223:..\..\..\..\..\..\Software\uCOS-III\Source/os_core.c ****         return;
 224:..\..\..\..\..\..\Software\uCOS-III\Source/os_core.c ****     }
 225:..\..\..\..\..\..\Software\uCOS-III\Source/os_core.c **** #endif
 226:..\..\..\..\..\..\Software\uCOS-III\Source/os_core.c **** 
 227:..\..\..\..\..\..\Software\uCOS-III\Source/os_core.c **** 
 228:..\..\..\..\..\..\Software\uCOS-III\Source/os_core.c **** #if (OS_CFG_STAT_TASK_EN == DEF_ENABLED)                        /* Initialize the Statistic Task   
 229:..\..\..\..\..\..\Software\uCOS-III\Source/os_core.c ****     OS_StatTaskInit(p_err);
 201              		.loc 1 229 0
 202 0102 7B68     		ldr	r3, [r7, #4]
 203 0104 1800     		movs	r0, r3
 204 0106 FFF7FEFF 		bl	OS_StatTaskInit
 230:..\..\..\..\..\..\Software\uCOS-III\Source/os_core.c ****     if (*p_err != OS_ERR_NONE) {
 205              		.loc 1 230 0
 206 010a 7B68     		ldr	r3, [r7, #4]
 207 010c 1B88     		ldrh	r3, [r3]
 208 010e 002B     		cmp	r3, #0
 209 0110 19D1     		bne	.L18
 231:..\..\..\..\..\..\Software\uCOS-III\Source/os_core.c ****         return;
 232:..\..\..\..\..\..\Software\uCOS-III\Source/os_core.c ****     }
 233:..\..\..\..\..\..\Software\uCOS-III\Source/os_core.c **** #endif
 234:..\..\..\..\..\..\Software\uCOS-III\Source/os_core.c **** 
 235:..\..\..\..\..\..\Software\uCOS-III\Source/os_core.c **** 
 236:..\..\..\..\..\..\Software\uCOS-III\Source/os_core.c **** #if (OS_CFG_TMR_EN == DEF_ENABLED)                              /* Initialize the Timer Manager mod
 237:..\..\..\..\..\..\Software\uCOS-III\Source/os_core.c ****     OS_TmrInit(p_err);
 210              		.loc 1 237 0
 211 0112 7B68     		ldr	r3, [r7, #4]
 212 0114 1800     		movs	r0, r3
 213 0116 FFF7FEFF 		bl	OS_TmrInit
 238:..\..\..\..\..\..\Software\uCOS-III\Source/os_core.c ****     if (*p_err != OS_ERR_NONE) {
 214              		.loc 1 238 0
 215 011a 7B68     		ldr	r3, [r7, #4]
 216 011c 1B88     		ldrh	r3, [r3]
 217 011e 002B     		cmp	r3, #0
ARM GAS  C:\Users\ADMINI~1\AppData\Local\Temp\cczjWrOu.s 			page 9


 218 0120 13D1     		bne	.L19
 239:..\..\..\..\..\..\Software\uCOS-III\Source/os_core.c ****         return;
 240:..\..\..\..\..\..\Software\uCOS-III\Source/os_core.c ****     }
 241:..\..\..\..\..\..\Software\uCOS-III\Source/os_core.c **** #endif
 242:..\..\..\..\..\..\Software\uCOS-III\Source/os_core.c **** 
 243:..\..\..\..\..\..\Software\uCOS-III\Source/os_core.c **** 
 244:..\..\..\..\..\..\Software\uCOS-III\Source/os_core.c **** #if (OS_CFG_DBG_EN == DEF_ENABLED)
 245:..\..\..\..\..\..\Software\uCOS-III\Source/os_core.c ****     OS_Dbg_Init();
 219              		.loc 1 245 0
 220 0122 FFF7FEFF 		bl	OS_Dbg_Init
 246:..\..\..\..\..\..\Software\uCOS-III\Source/os_core.c **** #endif
 247:..\..\..\..\..\..\Software\uCOS-III\Source/os_core.c **** 
 248:..\..\..\..\..\..\Software\uCOS-III\Source/os_core.c **** 
 249:..\..\..\..\..\..\Software\uCOS-III\Source/os_core.c ****     OSCfg_Init();
 221              		.loc 1 249 0
 222 0126 FFF7FEFF 		bl	OSCfg_Init
 250:..\..\..\..\..\..\Software\uCOS-III\Source/os_core.c **** 
 251:..\..\..\..\..\..\Software\uCOS-III\Source/os_core.c ****     OSInitialized = DEF_TRUE;                                   /* Kernel is initialized           
 223              		.loc 1 251 0
 224 012a 1F4B     		ldr	r3, .L20+84
 225 012c 0122     		movs	r2, #1
 226 012e 1A70     		strb	r2, [r3]
 227 0130 0CE0     		b	.L1
 228              	.L13:
 153:..\..\..\..\..\..\Software\uCOS-III\Source/os_core.c ****     }
 229              		.loc 1 153 0
 230 0132 C046     		nop
 231 0134 0AE0     		b	.L1
 232              	.L14:
 161:..\..\..\..\..\..\Software\uCOS-III\Source/os_core.c ****     }
 233              		.loc 1 161 0
 234 0136 C046     		nop
 235 0138 08E0     		b	.L1
 236              	.L15:
 200:..\..\..\..\..\..\Software\uCOS-III\Source/os_core.c ****     }
 237              		.loc 1 200 0
 238 013a C046     		nop
 239 013c 06E0     		b	.L1
 240              	.L16:
 215:..\..\..\..\..\..\Software\uCOS-III\Source/os_core.c ****     }
 241              		.loc 1 215 0
 242 013e C046     		nop
 243 0140 04E0     		b	.L1
 244              	.L17:
 223:..\..\..\..\..\..\Software\uCOS-III\Source/os_core.c ****     }
 245              		.loc 1 223 0
 246 0142 C046     		nop
 247 0144 02E0     		b	.L1
 248              	.L18:
 231:..\..\..\..\..\..\Software\uCOS-III\Source/os_core.c ****     }
 249              		.loc 1 231 0
 250 0146 C046     		nop
 251 0148 00E0     		b	.L1
 252              	.L19:
 239:..\..\..\..\..\..\Software\uCOS-III\Source/os_core.c ****     }
 253              		.loc 1 239 0
 254 014a C046     		nop
ARM GAS  C:\Users\ADMINI~1\AppData\Local\Temp\cczjWrOu.s 			page 10


 255              	.L1:
 252:..\..\..\..\..\..\Software\uCOS-III\Source/os_core.c **** }
 256              		.loc 1 252 0
 257 014c BD46     		mov	sp, r7
 258 014e 04B0     		add	sp, sp, #16
 259              		@ sp needed
 260 0150 80BD     		pop	{r7, pc}
 261              	.L21:
 262 0152 C046     		.align	2
 263              	.L20:
 264 0154 00000000 		.word	OSIntNestingCtr
 265 0158 00000000 		.word	OSRunning
 266 015c 00000000 		.word	OSSchedLockNestingCtr
 267 0160 00000000 		.word	OSTCBCurPtr
 268 0164 00000000 		.word	OSTCBHighRdyPtr
 269 0168 00000000 		.word	OSPrioCur
 270 016c 00000000 		.word	OSPrioHighRdy
 271 0170 00000000 		.word	OSSchedLockTimeBegin
 272 0174 00000000 		.word	OSSchedLockTimeMax
 273 0178 00000000 		.word	OSSchedLockTimeMaxCur
 274 017c 00000000 		.word	OSCfg_ISRStkBasePtr
 275 0180 00000000 		.word	OSCfg_ISRStkSize
 276 0184 00000000 		.word	OSTaskRegNextAvailID
 277 0188 00000000 		.word	OSFlagDbgListPtr
 278 018c 00000000 		.word	OSFlagQty
 279 0190 00000000 		.word	OSMutexDbgListPtr
 280 0194 00000000 		.word	OSMutexQty
 281 0198 00000000 		.word	OSQDbgListPtr
 282 019c 00000000 		.word	OSQQty
 283 01a0 00000000 		.word	OSSemDbgListPtr
 284 01a4 00000000 		.word	OSSemQty
 285 01a8 00000000 		.word	OSInitialized
 286              		.cfi_endproc
 287              	.LFE0:
 288              		.size	OSInit, .-OSInit
 289              		.section	.text.OSIntEnter,"ax",%progbits
 290              		.align	2
 291              		.global	OSIntEnter
 292              		.code	16
 293              		.thumb_func
 294              		.type	OSIntEnter, %function
 295              	OSIntEnter:
 296              	.LFB1:
 253:..\..\..\..\..\..\Software\uCOS-III\Source/os_core.c **** 
 254:..\..\..\..\..\..\Software\uCOS-III\Source/os_core.c **** 
 255:..\..\..\..\..\..\Software\uCOS-III\Source/os_core.c **** /*
 256:..\..\..\..\..\..\Software\uCOS-III\Source/os_core.c **** ***************************************************************************************************
 257:..\..\..\..\..\..\Software\uCOS-III\Source/os_core.c **** *                                                      ENTER ISR
 258:..\..\..\..\..\..\Software\uCOS-III\Source/os_core.c **** *
 259:..\..\..\..\..\..\Software\uCOS-III\Source/os_core.c **** * Description: This function is used to notify uC/OS-III that you are about to service an interrupt
 260:..\..\..\..\..\..\Software\uCOS-III\Source/os_core.c **** *              (ISR).  This allows uC/OS-III to keep track of interrupt nesting and thus only perfo
 261:..\..\..\..\..\..\Software\uCOS-III\Source/os_core.c **** *              the last nested ISR.
 262:..\..\..\..\..\..\Software\uCOS-III\Source/os_core.c **** *
 263:..\..\..\..\..\..\Software\uCOS-III\Source/os_core.c **** * Arguments  : none
 264:..\..\..\..\..\..\Software\uCOS-III\Source/os_core.c **** *
 265:..\..\..\..\..\..\Software\uCOS-III\Source/os_core.c **** * Returns    : none
 266:..\..\..\..\..\..\Software\uCOS-III\Source/os_core.c **** *
ARM GAS  C:\Users\ADMINI~1\AppData\Local\Temp\cczjWrOu.s 			page 11


 267:..\..\..\..\..\..\Software\uCOS-III\Source/os_core.c **** * Note(s)    : 1) This function MUST be called with interrupts already disabled
 268:..\..\..\..\..\..\Software\uCOS-III\Source/os_core.c **** *
 269:..\..\..\..\..\..\Software\uCOS-III\Source/os_core.c **** *              2) Your ISR can directly increment 'OSIntNestingCtr' without calling this function b
 270:..\..\..\..\..\..\Software\uCOS-III\Source/os_core.c **** *                 been declared 'global', the port is actually considered part of the OS and thus i
 271:..\..\..\..\..\..\Software\uCOS-III\Source/os_core.c **** *                 uC/OS-III variables.
 272:..\..\..\..\..\..\Software\uCOS-III\Source/os_core.c **** *
 273:..\..\..\..\..\..\Software\uCOS-III\Source/os_core.c **** *              3) You MUST still call OSIntExit() even though you increment 'OSIntNestingCtr' direc
 274:..\..\..\..\..\..\Software\uCOS-III\Source/os_core.c **** *
 275:..\..\..\..\..\..\Software\uCOS-III\Source/os_core.c **** *              4) You MUST invoke OSIntEnter() and OSIntExit() in pair.  In other words, for every 
 276:..\..\..\..\..\..\Software\uCOS-III\Source/os_core.c **** *                 (or direct increment to OSIntNestingCtr) at the beginning of the ISR you MUST hav
 277:..\..\..\..\..\..\Software\uCOS-III\Source/os_core.c **** *                 at the end of the ISR.
 278:..\..\..\..\..\..\Software\uCOS-III\Source/os_core.c **** *
 279:..\..\..\..\..\..\Software\uCOS-III\Source/os_core.c **** *              5) You are allowed to nest interrupts up to 250 levels deep.
 280:..\..\..\..\..\..\Software\uCOS-III\Source/os_core.c **** ***************************************************************************************************
 281:..\..\..\..\..\..\Software\uCOS-III\Source/os_core.c **** */
 282:..\..\..\..\..\..\Software\uCOS-III\Source/os_core.c **** 
 283:..\..\..\..\..\..\Software\uCOS-III\Source/os_core.c **** void  OSIntEnter (void)
 284:..\..\..\..\..\..\Software\uCOS-III\Source/os_core.c **** {
 297              		.loc 1 284 0
 298              		.cfi_startproc
 299              		@ args = 0, pretend = 0, frame = 0
 300              		@ frame_needed = 1, uses_anonymous_args = 0
 301 0000 80B5     		push	{r7, lr}
 302              		.cfi_def_cfa_offset 8
 303              		.cfi_offset 7, -8
 304              		.cfi_offset 14, -4
 305 0002 00AF     		add	r7, sp, #0
 306              		.cfi_def_cfa_register 7
 285:..\..\..\..\..\..\Software\uCOS-III\Source/os_core.c ****     if (OSRunning != OS_STATE_OS_RUNNING) {                     /* Is OS running?                  
 307              		.loc 1 285 0
 308 0004 094B     		ldr	r3, .L28
 309 0006 1B78     		ldrb	r3, [r3]
 310 0008 012B     		cmp	r3, #1
 311 000a 0AD1     		bne	.L26
 286:..\..\..\..\..\..\Software\uCOS-III\Source/os_core.c ****         return;                                                 /* No                              
 287:..\..\..\..\..\..\Software\uCOS-III\Source/os_core.c ****     }
 288:..\..\..\..\..\..\Software\uCOS-III\Source/os_core.c **** 
 289:..\..\..\..\..\..\Software\uCOS-III\Source/os_core.c ****     if (OSIntNestingCtr >= 250u) {                              /* Have we nested past 250 levels? 
 312              		.loc 1 289 0
 313 000c 084B     		ldr	r3, .L28+4
 314 000e 1B78     		ldrb	r3, [r3]
 315 0010 F92B     		cmp	r3, #249
 316 0012 08D8     		bhi	.L27
 290:..\..\..\..\..\..\Software\uCOS-III\Source/os_core.c ****         return;                                                 /* Yes                             
 291:..\..\..\..\..\..\Software\uCOS-III\Source/os_core.c ****     }
 292:..\..\..\..\..\..\Software\uCOS-III\Source/os_core.c **** 
 293:..\..\..\..\..\..\Software\uCOS-III\Source/os_core.c ****     OSIntNestingCtr++;                                          /* Increment ISR nesting level     
 317              		.loc 1 293 0
 318 0014 064B     		ldr	r3, .L28+4
 319 0016 1B78     		ldrb	r3, [r3]
 320 0018 0133     		adds	r3, r3, #1
 321 001a DAB2     		uxtb	r2, r3
 322 001c 044B     		ldr	r3, .L28+4
 323 001e 1A70     		strb	r2, [r3]
 324 0020 02E0     		b	.L22
 325              	.L26:
 286:..\..\..\..\..\..\Software\uCOS-III\Source/os_core.c ****         return;                                                 /* No                              
ARM GAS  C:\Users\ADMINI~1\AppData\Local\Temp\cczjWrOu.s 			page 12


 326              		.loc 1 286 0
 327 0022 C046     		nop
 328 0024 00E0     		b	.L22
 329              	.L27:
 290:..\..\..\..\..\..\Software\uCOS-III\Source/os_core.c ****         return;                                                 /* Yes                             
 330              		.loc 1 290 0
 331 0026 C046     		nop
 332              	.L22:
 294:..\..\..\..\..\..\Software\uCOS-III\Source/os_core.c **** }
 333              		.loc 1 294 0
 334 0028 BD46     		mov	sp, r7
 335              		@ sp needed
 336 002a 80BD     		pop	{r7, pc}
 337              	.L29:
 338              		.align	2
 339              	.L28:
 340 002c 00000000 		.word	OSRunning
 341 0030 00000000 		.word	OSIntNestingCtr
 342              		.cfi_endproc
 343              	.LFE1:
 344              		.size	OSIntEnter, .-OSIntEnter
 345              		.section	.text.OSIntExit,"ax",%progbits
 346              		.align	2
 347              		.global	OSIntExit
 348              		.code	16
 349              		.thumb_func
 350              		.type	OSIntExit, %function
 351              	OSIntExit:
 352              	.LFB2:
 295:..\..\..\..\..\..\Software\uCOS-III\Source/os_core.c **** 
 296:..\..\..\..\..\..\Software\uCOS-III\Source/os_core.c **** 
 297:..\..\..\..\..\..\Software\uCOS-III\Source/os_core.c **** /*
 298:..\..\..\..\..\..\Software\uCOS-III\Source/os_core.c **** ***************************************************************************************************
 299:..\..\..\..\..\..\Software\uCOS-III\Source/os_core.c **** *                                                       EXIT ISR
 300:..\..\..\..\..\..\Software\uCOS-III\Source/os_core.c **** *
 301:..\..\..\..\..\..\Software\uCOS-III\Source/os_core.c **** * Description: This function is used to notify uC/OS-III that you have completed servicing an ISR. 
 302:..\..\..\..\..\..\Software\uCOS-III\Source/os_core.c **** *              ISR has completed, uC/OS-III will call the scheduler to determine whether a new, hig
 303:..\..\..\..\..\..\Software\uCOS-III\Source/os_core.c **** *              ready to run.
 304:..\..\..\..\..\..\Software\uCOS-III\Source/os_core.c **** *
 305:..\..\..\..\..\..\Software\uCOS-III\Source/os_core.c **** * Arguments  : none
 306:..\..\..\..\..\..\Software\uCOS-III\Source/os_core.c **** *
 307:..\..\..\..\..\..\Software\uCOS-III\Source/os_core.c **** * Returns    : none
 308:..\..\..\..\..\..\Software\uCOS-III\Source/os_core.c **** *
 309:..\..\..\..\..\..\Software\uCOS-III\Source/os_core.c **** * Note(s)    : 1) You MUST invoke OSIntEnter() and OSIntExit() in pair.  In other words, for every 
 310:..\..\..\..\..\..\Software\uCOS-III\Source/os_core.c **** *                 (or direct increment to OSIntNestingCtr) at the beginning of the ISR you MUST hav
 311:..\..\..\..\..\..\Software\uCOS-III\Source/os_core.c **** *                 at the end of the ISR.
 312:..\..\..\..\..\..\Software\uCOS-III\Source/os_core.c **** *
 313:..\..\..\..\..\..\Software\uCOS-III\Source/os_core.c **** *              2) Rescheduling is prevented when the scheduler is locked (see OSSchedLock())
 314:..\..\..\..\..\..\Software\uCOS-III\Source/os_core.c **** ***************************************************************************************************
 315:..\..\..\..\..\..\Software\uCOS-III\Source/os_core.c **** */
 316:..\..\..\..\..\..\Software\uCOS-III\Source/os_core.c **** 
 317:..\..\..\..\..\..\Software\uCOS-III\Source/os_core.c **** void  OSIntExit (void)
 318:..\..\..\..\..\..\Software\uCOS-III\Source/os_core.c **** {
 353              		.loc 1 318 0
 354              		.cfi_startproc
 355              		@ args = 0, pretend = 0, frame = 8
 356              		@ frame_needed = 1, uses_anonymous_args = 0
ARM GAS  C:\Users\ADMINI~1\AppData\Local\Temp\cczjWrOu.s 			page 13


 357 0000 80B5     		push	{r7, lr}
 358              		.cfi_def_cfa_offset 8
 359              		.cfi_offset 7, -8
 360              		.cfi_offset 14, -4
 361 0002 82B0     		sub	sp, sp, #8
 362              		.cfi_def_cfa_offset 16
 363 0004 00AF     		add	r7, sp, #0
 364              		.cfi_def_cfa_register 7
 319:..\..\..\..\..\..\Software\uCOS-III\Source/os_core.c **** #if (OS_CFG_TASK_STK_REDZONE_EN == DEF_ENABLED)
 320:..\..\..\..\..\..\Software\uCOS-III\Source/os_core.c ****     CPU_BOOLEAN  stk_status;
 321:..\..\..\..\..\..\Software\uCOS-III\Source/os_core.c **** #endif
 322:..\..\..\..\..\..\Software\uCOS-III\Source/os_core.c ****     CPU_SR_ALLOC();
 365              		.loc 1 322 0
 366 0006 0023     		movs	r3, #0
 367 0008 7B60     		str	r3, [r7, #4]
 323:..\..\..\..\..\..\Software\uCOS-III\Source/os_core.c **** 
 324:..\..\..\..\..\..\Software\uCOS-III\Source/os_core.c **** 
 325:..\..\..\..\..\..\Software\uCOS-III\Source/os_core.c **** 
 326:..\..\..\..\..\..\Software\uCOS-III\Source/os_core.c ****     if (OSRunning != OS_STATE_OS_RUNNING) {                     /* Has the OS started?             
 368              		.loc 1 326 0
 369 000a 2E4B     		ldr	r3, .L38
 370 000c 1B78     		ldrb	r3, [r3]
 371 000e 012B     		cmp	r3, #1
 372 0010 53D1     		bne	.L37
 327:..\..\..\..\..\..\Software\uCOS-III\Source/os_core.c ****         return;                                                 /* No                              
 328:..\..\..\..\..\..\Software\uCOS-III\Source/os_core.c ****     }
 329:..\..\..\..\..\..\Software\uCOS-III\Source/os_core.c **** 
 330:..\..\..\..\..\..\Software\uCOS-III\Source/os_core.c ****     CPU_INT_DIS();
 373              		.loc 1 330 0
 374 0012 FFF7FEFF 		bl	CPU_SR_Save
 375 0016 0300     		movs	r3, r0
 376 0018 7B60     		str	r3, [r7, #4]
 331:..\..\..\..\..\..\Software\uCOS-III\Source/os_core.c ****     if (OSIntNestingCtr == 0u) {                                /* Prevent OSIntNestingCtr from wra
 377              		.loc 1 331 0
 378 001a 2B4B     		ldr	r3, .L38+4
 379 001c 1B78     		ldrb	r3, [r3]
 380 001e 002B     		cmp	r3, #0
 381 0020 04D1     		bne	.L33
 332:..\..\..\..\..\..\Software\uCOS-III\Source/os_core.c ****         CPU_INT_EN();
 382              		.loc 1 332 0
 383 0022 7B68     		ldr	r3, [r7, #4]
 384 0024 1800     		movs	r0, r3
 385 0026 FFF7FEFF 		bl	CPU_SR_Restore
 333:..\..\..\..\..\..\Software\uCOS-III\Source/os_core.c ****         return;
 386              		.loc 1 333 0
 387 002a 47E0     		b	.L30
 388              	.L33:
 334:..\..\..\..\..\..\Software\uCOS-III\Source/os_core.c ****     }
 335:..\..\..\..\..\..\Software\uCOS-III\Source/os_core.c ****     OSIntNestingCtr--;
 389              		.loc 1 335 0
 390 002c 264B     		ldr	r3, .L38+4
 391 002e 1B78     		ldrb	r3, [r3]
 392 0030 013B     		subs	r3, r3, #1
 393 0032 DAB2     		uxtb	r2, r3
 394 0034 244B     		ldr	r3, .L38+4
 395 0036 1A70     		strb	r2, [r3]
 336:..\..\..\..\..\..\Software\uCOS-III\Source/os_core.c ****     if (OSIntNestingCtr > 0u) {                                 /* ISRs still nested?              
ARM GAS  C:\Users\ADMINI~1\AppData\Local\Temp\cczjWrOu.s 			page 14


 396              		.loc 1 336 0
 397 0038 234B     		ldr	r3, .L38+4
 398 003a 1B78     		ldrb	r3, [r3]
 399 003c 002B     		cmp	r3, #0
 400 003e 04D0     		beq	.L34
 337:..\..\..\..\..\..\Software\uCOS-III\Source/os_core.c ****         CPU_INT_EN();                                           /* Yes                             
 401              		.loc 1 337 0
 402 0040 7B68     		ldr	r3, [r7, #4]
 403 0042 1800     		movs	r0, r3
 404 0044 FFF7FEFF 		bl	CPU_SR_Restore
 338:..\..\..\..\..\..\Software\uCOS-III\Source/os_core.c ****         return;
 405              		.loc 1 338 0
 406 0048 38E0     		b	.L30
 407              	.L34:
 339:..\..\..\..\..\..\Software\uCOS-III\Source/os_core.c ****     }
 340:..\..\..\..\..\..\Software\uCOS-III\Source/os_core.c **** 
 341:..\..\..\..\..\..\Software\uCOS-III\Source/os_core.c ****     if (OSSchedLockNestingCtr > 0u) {                           /* Scheduler still locked?         
 408              		.loc 1 341 0
 409 004a 204B     		ldr	r3, .L38+8
 410 004c 1B78     		ldrb	r3, [r3]
 411 004e 002B     		cmp	r3, #0
 412 0050 04D0     		beq	.L35
 342:..\..\..\..\..\..\Software\uCOS-III\Source/os_core.c ****         CPU_INT_EN();                                           /* Yes                             
 413              		.loc 1 342 0
 414 0052 7B68     		ldr	r3, [r7, #4]
 415 0054 1800     		movs	r0, r3
 416 0056 FFF7FEFF 		bl	CPU_SR_Restore
 343:..\..\..\..\..\..\Software\uCOS-III\Source/os_core.c ****         return;
 417              		.loc 1 343 0
 418 005a 2FE0     		b	.L30
 419              	.L35:
 344:..\..\..\..\..\..\Software\uCOS-III\Source/os_core.c ****     }
 345:..\..\..\..\..\..\Software\uCOS-III\Source/os_core.c **** 
 346:..\..\..\..\..\..\Software\uCOS-III\Source/os_core.c ****                                                                 /* Verify ISR Stack                
 347:..\..\..\..\..\..\Software\uCOS-III\Source/os_core.c **** #if (OS_CFG_ISR_STK_SIZE > 0u)
 348:..\..\..\..\..\..\Software\uCOS-III\Source/os_core.c **** #if (OS_CFG_TASK_STK_REDZONE_EN == DEF_ENABLED)
 349:..\..\..\..\..\..\Software\uCOS-III\Source/os_core.c ****     stk_status = OS_TaskStkRedzoneChk(OSCfg_ISRStkBasePtr, OSCfg_ISRStkSize);
 350:..\..\..\..\..\..\Software\uCOS-III\Source/os_core.c ****     if (stk_status != DEF_OK) {
 351:..\..\..\..\..\..\Software\uCOS-III\Source/os_core.c ****         OSRedzoneHitHook(DEF_NULL);
 352:..\..\..\..\..\..\Software\uCOS-III\Source/os_core.c ****     }
 353:..\..\..\..\..\..\Software\uCOS-III\Source/os_core.c **** #endif
 354:..\..\..\..\..\..\Software\uCOS-III\Source/os_core.c **** #endif
 355:..\..\..\..\..\..\Software\uCOS-III\Source/os_core.c **** 
 356:..\..\..\..\..\..\Software\uCOS-III\Source/os_core.c ****     OSPrioHighRdy   = OS_PrioGetHighest();                      /* Find highest priority           
 420              		.loc 1 356 0
 421 005c FFF7FEFF 		bl	OS_PrioGetHighest
 422 0060 0300     		movs	r3, r0
 423 0062 1A00     		movs	r2, r3
 424 0064 1A4B     		ldr	r3, .L38+12
 425 0066 1A70     		strb	r2, [r3]
 357:..\..\..\..\..\..\Software\uCOS-III\Source/os_core.c **** #if (OS_CFG_TASK_IDLE_EN == DEF_ENABLED)
 358:..\..\..\..\..\..\Software\uCOS-III\Source/os_core.c ****     OSTCBHighRdyPtr = OSRdyList[OSPrioHighRdy].HeadPtr;         /* Get highest priority task ready-
 426              		.loc 1 358 0
 427 0068 194B     		ldr	r3, .L38+12
 428 006a 1B78     		ldrb	r3, [r3]
 429 006c 1900     		movs	r1, r3
 430 006e 194A     		ldr	r2, .L38+16
ARM GAS  C:\Users\ADMINI~1\AppData\Local\Temp\cczjWrOu.s 			page 15


 431 0070 0B00     		movs	r3, r1
 432 0072 5B00     		lsls	r3, r3, #1
 433 0074 5B18     		adds	r3, r3, r1
 434 0076 9B00     		lsls	r3, r3, #2
 435 0078 9A58     		ldr	r2, [r3, r2]
 436 007a 174B     		ldr	r3, .L38+20
 437 007c 1A60     		str	r2, [r3]
 359:..\..\..\..\..\..\Software\uCOS-III\Source/os_core.c ****     if (OSTCBHighRdyPtr == OSTCBCurPtr) {                       /* Current task still the highest p
 438              		.loc 1 359 0
 439 007e 164B     		ldr	r3, .L38+20
 440 0080 1A68     		ldr	r2, [r3]
 441 0082 164B     		ldr	r3, .L38+24
 442 0084 1B68     		ldr	r3, [r3]
 443 0086 9A42     		cmp	r2, r3
 444 0088 04D1     		bne	.L36
 360:..\..\..\..\..\..\Software\uCOS-III\Source/os_core.c **** #if (OS_CFG_TASK_STK_REDZONE_EN == DEF_ENABLED)
 361:..\..\..\..\..\..\Software\uCOS-III\Source/os_core.c ****         stk_status = OSTaskStkRedzoneChk(DEF_NULL);
 362:..\..\..\..\..\..\Software\uCOS-III\Source/os_core.c ****         if (stk_status != DEF_OK) {
 363:..\..\..\..\..\..\Software\uCOS-III\Source/os_core.c ****             OSRedzoneHitHook(OSTCBCurPtr);
 364:..\..\..\..\..\..\Software\uCOS-III\Source/os_core.c ****         }
 365:..\..\..\..\..\..\Software\uCOS-III\Source/os_core.c **** #endif
 366:..\..\..\..\..\..\Software\uCOS-III\Source/os_core.c ****         CPU_INT_EN();                                           /* Yes                             
 445              		.loc 1 366 0
 446 008a 7B68     		ldr	r3, [r7, #4]
 447 008c 1800     		movs	r0, r3
 448 008e FFF7FEFF 		bl	CPU_SR_Restore
 367:..\..\..\..\..\..\Software\uCOS-III\Source/os_core.c ****         return;
 449              		.loc 1 367 0
 450 0092 13E0     		b	.L30
 451              	.L36:
 368:..\..\..\..\..\..\Software\uCOS-III\Source/os_core.c ****     }
 369:..\..\..\..\..\..\Software\uCOS-III\Source/os_core.c **** #else
 370:..\..\..\..\..\..\Software\uCOS-III\Source/os_core.c ****     if (OSPrioHighRdy != (OS_CFG_PRIO_MAX - 1u)) {              /* Are we returning to idle?       
 371:..\..\..\..\..\..\Software\uCOS-III\Source/os_core.c ****         OSTCBHighRdyPtr = OSRdyList[OSPrioHighRdy].HeadPtr;     /* No ... get highest priority task
 372:..\..\..\..\..\..\Software\uCOS-III\Source/os_core.c ****         if (OSTCBHighRdyPtr == OSTCBCurPtr) {                   /* Current task still the highest p
 373:..\..\..\..\..\..\Software\uCOS-III\Source/os_core.c ****             CPU_INT_EN();                                       /* Yes                             
 374:..\..\..\..\..\..\Software\uCOS-III\Source/os_core.c ****             return;
 375:..\..\..\..\..\..\Software\uCOS-III\Source/os_core.c ****         }
 376:..\..\..\..\..\..\Software\uCOS-III\Source/os_core.c ****     }
 377:..\..\..\..\..\..\Software\uCOS-III\Source/os_core.c **** #endif
 378:..\..\..\..\..\..\Software\uCOS-III\Source/os_core.c **** 
 379:..\..\..\..\..\..\Software\uCOS-III\Source/os_core.c **** #if (OS_CFG_TASK_PROFILE_EN == DEF_ENABLED)
 380:..\..\..\..\..\..\Software\uCOS-III\Source/os_core.c ****     OSTCBHighRdyPtr->CtxSwCtr++;                                /* Inc. # of context switches for t
 452              		.loc 1 380 0
 453 0094 104B     		ldr	r3, .L38+20
 454 0096 1B68     		ldr	r3, [r3]
 455 0098 8C22     		movs	r2, #140
 456 009a 9A58     		ldr	r2, [r3, r2]
 457 009c 0132     		adds	r2, r2, #1
 458 009e 8C21     		movs	r1, #140
 459 00a0 5A50     		str	r2, [r3, r1]
 381:..\..\..\..\..\..\Software\uCOS-III\Source/os_core.c **** #endif
 382:..\..\..\..\..\..\Software\uCOS-III\Source/os_core.c **** #if ((OS_CFG_TASK_PROFILE_EN == DEF_ENABLED) || (OS_CFG_DBG_EN == DEF_ENABLED))
 383:..\..\..\..\..\..\Software\uCOS-III\Source/os_core.c ****     OSTaskCtxSwCtr++;                                           /* Keep track of the total number o
 460              		.loc 1 383 0
 461 00a2 0F4B     		ldr	r3, .L38+28
 462 00a4 1B68     		ldr	r3, [r3]
ARM GAS  C:\Users\ADMINI~1\AppData\Local\Temp\cczjWrOu.s 			page 16


 463 00a6 5A1C     		adds	r2, r3, #1
 464 00a8 0D4B     		ldr	r3, .L38+28
 465 00aa 1A60     		str	r2, [r3]
 384:..\..\..\..\..\..\Software\uCOS-III\Source/os_core.c **** #endif
 385:..\..\..\..\..\..\Software\uCOS-III\Source/os_core.c **** 
 386:..\..\..\..\..\..\Software\uCOS-III\Source/os_core.c **** #if defined(OS_CFG_TLS_TBL_SIZE) && (OS_CFG_TLS_TBL_SIZE > 0u)
 387:..\..\..\..\..\..\Software\uCOS-III\Source/os_core.c ****     OS_TLS_TaskSw();
 388:..\..\..\..\..\..\Software\uCOS-III\Source/os_core.c **** #endif
 389:..\..\..\..\..\..\Software\uCOS-III\Source/os_core.c **** 
 390:..\..\..\..\..\..\Software\uCOS-III\Source/os_core.c ****     OSIntCtxSw();                                               /* Perform interrupt level ctx swit
 466              		.loc 1 390 0
 467 00ac FFF7FEFF 		bl	OSIntCtxSw
 391:..\..\..\..\..\..\Software\uCOS-III\Source/os_core.c **** 
 392:..\..\..\..\..\..\Software\uCOS-III\Source/os_core.c ****     CPU_INT_EN();
 468              		.loc 1 392 0
 469 00b0 7B68     		ldr	r3, [r7, #4]
 470 00b2 1800     		movs	r0, r3
 471 00b4 FFF7FEFF 		bl	CPU_SR_Restore
 472 00b8 00E0     		b	.L30
 473              	.L37:
 327:..\..\..\..\..\..\Software\uCOS-III\Source/os_core.c ****     }
 474              		.loc 1 327 0
 475 00ba C046     		nop
 476              	.L30:
 393:..\..\..\..\..\..\Software\uCOS-III\Source/os_core.c **** }
 477              		.loc 1 393 0
 478 00bc BD46     		mov	sp, r7
 479 00be 02B0     		add	sp, sp, #8
 480              		@ sp needed
 481 00c0 80BD     		pop	{r7, pc}
 482              	.L39:
 483 00c2 C046     		.align	2
 484              	.L38:
 485 00c4 00000000 		.word	OSRunning
 486 00c8 00000000 		.word	OSIntNestingCtr
 487 00cc 00000000 		.word	OSSchedLockNestingCtr
 488 00d0 00000000 		.word	OSPrioHighRdy
 489 00d4 00000000 		.word	OSRdyList
 490 00d8 00000000 		.word	OSTCBHighRdyPtr
 491 00dc 00000000 		.word	OSTCBCurPtr
 492 00e0 00000000 		.word	OSTaskCtxSwCtr
 493              		.cfi_endproc
 494              	.LFE2:
 495              		.size	OSIntExit, .-OSIntExit
 496              		.section	.text.OSSched,"ax",%progbits
 497              		.align	2
 498              		.global	OSSched
 499              		.code	16
 500              		.thumb_func
 501              		.type	OSSched, %function
 502              	OSSched:
 503              	.LFB3:
 394:..\..\..\..\..\..\Software\uCOS-III\Source/os_core.c **** 
 395:..\..\..\..\..\..\Software\uCOS-III\Source/os_core.c **** 
 396:..\..\..\..\..\..\Software\uCOS-III\Source/os_core.c **** /*
 397:..\..\..\..\..\..\Software\uCOS-III\Source/os_core.c **** ***************************************************************************************************
 398:..\..\..\..\..\..\Software\uCOS-III\Source/os_core.c **** *                                    INDICATE THAT IT'S NO LONGER SAFE TO CREATE OBJECTS
ARM GAS  C:\Users\ADMINI~1\AppData\Local\Temp\cczjWrOu.s 			page 17


 399:..\..\..\..\..\..\Software\uCOS-III\Source/os_core.c **** *
 400:..\..\..\..\..\..\Software\uCOS-III\Source/os_core.c **** * Description: This function is called by the application code to indicate that all initialization 
 401:..\..\..\..\..\..\Software\uCOS-III\Source/os_core.c **** *              and that kernel objects are no longer allowed to be created.
 402:..\..\..\..\..\..\Software\uCOS-III\Source/os_core.c **** *
 403:..\..\..\..\..\..\Software\uCOS-III\Source/os_core.c **** * Arguments  : none
 404:..\..\..\..\..\..\Software\uCOS-III\Source/os_core.c **** *
 405:..\..\..\..\..\..\Software\uCOS-III\Source/os_core.c **** * Returns    : none
 406:..\..\..\..\..\..\Software\uCOS-III\Source/os_core.c **** *
 407:..\..\..\..\..\..\Software\uCOS-III\Source/os_core.c **** * Note(s)    : none
 408:..\..\..\..\..\..\Software\uCOS-III\Source/os_core.c **** ***************************************************************************************************
 409:..\..\..\..\..\..\Software\uCOS-III\Source/os_core.c **** */
 410:..\..\..\..\..\..\Software\uCOS-III\Source/os_core.c **** 
 411:..\..\..\..\..\..\Software\uCOS-III\Source/os_core.c **** #ifdef OS_SAFETY_CRITICAL_IEC61508
 412:..\..\..\..\..\..\Software\uCOS-III\Source/os_core.c **** void  OSSafetyCriticalStart (void)
 413:..\..\..\..\..\..\Software\uCOS-III\Source/os_core.c **** {
 414:..\..\..\..\..\..\Software\uCOS-III\Source/os_core.c ****     OSSafetyCriticalStartFlag = DEF_TRUE;
 415:..\..\..\..\..\..\Software\uCOS-III\Source/os_core.c **** }
 416:..\..\..\..\..\..\Software\uCOS-III\Source/os_core.c **** 
 417:..\..\..\..\..\..\Software\uCOS-III\Source/os_core.c **** #endif
 418:..\..\..\..\..\..\Software\uCOS-III\Source/os_core.c **** 
 419:..\..\..\..\..\..\Software\uCOS-III\Source/os_core.c **** 
 420:..\..\..\..\..\..\Software\uCOS-III\Source/os_core.c **** /*
 421:..\..\..\..\..\..\Software\uCOS-III\Source/os_core.c **** ***************************************************************************************************
 422:..\..\..\..\..\..\Software\uCOS-III\Source/os_core.c **** *                                                      SCHEDULER
 423:..\..\..\..\..\..\Software\uCOS-III\Source/os_core.c **** *
 424:..\..\..\..\..\..\Software\uCOS-III\Source/os_core.c **** * Description: This function is called by other uC/OS-III services to determine whether a new, high
 425:..\..\..\..\..\..\Software\uCOS-III\Source/os_core.c **** *              been made ready to run.  This function is invoked by TASK level code and is not used
 426:..\..\..\..\..\..\Software\uCOS-III\Source/os_core.c **** *              from ISRs (see OSIntExit() for ISR rescheduling).
 427:..\..\..\..\..\..\Software\uCOS-III\Source/os_core.c **** *
 428:..\..\..\..\..\..\Software\uCOS-III\Source/os_core.c **** * Arguments  : none
 429:..\..\..\..\..\..\Software\uCOS-III\Source/os_core.c **** *
 430:..\..\..\..\..\..\Software\uCOS-III\Source/os_core.c **** * Returns    : none
 431:..\..\..\..\..\..\Software\uCOS-III\Source/os_core.c **** *
 432:..\..\..\..\..\..\Software\uCOS-III\Source/os_core.c **** * Note(s)    : 1) Rescheduling is prevented when the scheduler is locked (see OSSchedLock())
 433:..\..\..\..\..\..\Software\uCOS-III\Source/os_core.c **** ***************************************************************************************************
 434:..\..\..\..\..\..\Software\uCOS-III\Source/os_core.c **** */
 435:..\..\..\..\..\..\Software\uCOS-III\Source/os_core.c **** 
 436:..\..\..\..\..\..\Software\uCOS-III\Source/os_core.c **** void  OSSched (void)
 437:..\..\..\..\..\..\Software\uCOS-III\Source/os_core.c **** {
 504              		.loc 1 437 0
 505              		.cfi_startproc
 506              		@ args = 0, pretend = 0, frame = 8
 507              		@ frame_needed = 1, uses_anonymous_args = 0
 508 0000 80B5     		push	{r7, lr}
 509              		.cfi_def_cfa_offset 8
 510              		.cfi_offset 7, -8
 511              		.cfi_offset 14, -4
 512 0002 82B0     		sub	sp, sp, #8
 513              		.cfi_def_cfa_offset 16
 514 0004 00AF     		add	r7, sp, #0
 515              		.cfi_def_cfa_register 7
 438:..\..\..\..\..\..\Software\uCOS-III\Source/os_core.c ****     CPU_SR_ALLOC();
 516              		.loc 1 438 0
 517 0006 0023     		movs	r3, #0
 518 0008 7B60     		str	r3, [r7, #4]
 439:..\..\..\..\..\..\Software\uCOS-III\Source/os_core.c **** 
 440:..\..\..\..\..\..\Software\uCOS-III\Source/os_core.c **** 
ARM GAS  C:\Users\ADMINI~1\AppData\Local\Temp\cczjWrOu.s 			page 18


 441:..\..\..\..\..\..\Software\uCOS-III\Source/os_core.c **** #if (OS_CFG_INVALID_OS_CALLS_CHK_EN == DEF_ENABLED)             /* Can't schedule when the kernel i
 442:..\..\..\..\..\..\Software\uCOS-III\Source/os_core.c ****     if (OSRunning != OS_STATE_OS_RUNNING) {
 443:..\..\..\..\..\..\Software\uCOS-III\Source/os_core.c ****         return;
 444:..\..\..\..\..\..\Software\uCOS-III\Source/os_core.c ****     }
 445:..\..\..\..\..\..\Software\uCOS-III\Source/os_core.c **** #endif
 446:..\..\..\..\..\..\Software\uCOS-III\Source/os_core.c **** 
 447:..\..\..\..\..\..\Software\uCOS-III\Source/os_core.c ****     if (OSIntNestingCtr > 0u) {                                 /* ISRs still nested?              
 519              		.loc 1 447 0
 520 000a 214B     		ldr	r3, .L47
 521 000c 1B78     		ldrb	r3, [r3]
 522 000e 002B     		cmp	r3, #0
 523 0010 38D1     		bne	.L45
 448:..\..\..\..\..\..\Software\uCOS-III\Source/os_core.c ****         return;                                                 /* Yes ... only schedule when no ne
 449:..\..\..\..\..\..\Software\uCOS-III\Source/os_core.c ****     }
 450:..\..\..\..\..\..\Software\uCOS-III\Source/os_core.c **** 
 451:..\..\..\..\..\..\Software\uCOS-III\Source/os_core.c ****     if (OSSchedLockNestingCtr > 0u) {                           /* Scheduler locked?               
 524              		.loc 1 451 0
 525 0012 204B     		ldr	r3, .L47+4
 526 0014 1B78     		ldrb	r3, [r3]
 527 0016 002B     		cmp	r3, #0
 528 0018 36D1     		bne	.L46
 452:..\..\..\..\..\..\Software\uCOS-III\Source/os_core.c ****         return;                                                 /* Yes                             
 453:..\..\..\..\..\..\Software\uCOS-III\Source/os_core.c ****     }
 454:..\..\..\..\..\..\Software\uCOS-III\Source/os_core.c **** 
 455:..\..\..\..\..\..\Software\uCOS-III\Source/os_core.c ****     CPU_INT_DIS();
 529              		.loc 1 455 0
 530 001a FFF7FEFF 		bl	CPU_SR_Save
 531 001e 0300     		movs	r3, r0
 532 0020 7B60     		str	r3, [r7, #4]
 456:..\..\..\..\..\..\Software\uCOS-III\Source/os_core.c ****     OSPrioHighRdy   = OS_PrioGetHighest();                      /* Find the highest priority ready 
 533              		.loc 1 456 0
 534 0022 FFF7FEFF 		bl	OS_PrioGetHighest
 535 0026 0300     		movs	r3, r0
 536 0028 1A00     		movs	r2, r3
 537 002a 1B4B     		ldr	r3, .L47+8
 538 002c 1A70     		strb	r2, [r3]
 457:..\..\..\..\..\..\Software\uCOS-III\Source/os_core.c **** #if (OS_CFG_TASK_IDLE_EN == DEF_ENABLED)
 458:..\..\..\..\..\..\Software\uCOS-III\Source/os_core.c ****     OSTCBHighRdyPtr = OSRdyList[OSPrioHighRdy].HeadPtr;         /* Get highest priority task ready-
 539              		.loc 1 458 0
 540 002e 1A4B     		ldr	r3, .L47+8
 541 0030 1B78     		ldrb	r3, [r3]
 542 0032 1900     		movs	r1, r3
 543 0034 194A     		ldr	r2, .L47+12
 544 0036 0B00     		movs	r3, r1
 545 0038 5B00     		lsls	r3, r3, #1
 546 003a 5B18     		adds	r3, r3, r1
 547 003c 9B00     		lsls	r3, r3, #2
 548 003e 9A58     		ldr	r2, [r3, r2]
 549 0040 174B     		ldr	r3, .L47+16
 550 0042 1A60     		str	r2, [r3]
 459:..\..\..\..\..\..\Software\uCOS-III\Source/os_core.c ****     if (OSTCBHighRdyPtr == OSTCBCurPtr) {                       /* Current task still the highest p
 551              		.loc 1 459 0
 552 0044 164B     		ldr	r3, .L47+16
 553 0046 1A68     		ldr	r2, [r3]
 554 0048 164B     		ldr	r3, .L47+20
 555 004a 1B68     		ldr	r3, [r3]
 556 004c 9A42     		cmp	r2, r3
ARM GAS  C:\Users\ADMINI~1\AppData\Local\Temp\cczjWrOu.s 			page 19


 557 004e 04D1     		bne	.L44
 460:..\..\..\..\..\..\Software\uCOS-III\Source/os_core.c ****         CPU_INT_EN();                                           /* Yes                             
 558              		.loc 1 460 0
 559 0050 7B68     		ldr	r3, [r7, #4]
 560 0052 1800     		movs	r0, r3
 561 0054 FFF7FEFF 		bl	CPU_SR_Restore
 461:..\..\..\..\..\..\Software\uCOS-III\Source/os_core.c ****         return;
 562              		.loc 1 461 0
 563 0058 17E0     		b	.L40
 564              	.L44:
 462:..\..\..\..\..\..\Software\uCOS-III\Source/os_core.c ****     }
 463:..\..\..\..\..\..\Software\uCOS-III\Source/os_core.c **** #else
 464:..\..\..\..\..\..\Software\uCOS-III\Source/os_core.c ****     if (OSPrioHighRdy != (OS_CFG_PRIO_MAX - 1u)) {              /* Are we returning to idle?       
 465:..\..\..\..\..\..\Software\uCOS-III\Source/os_core.c ****         OSTCBHighRdyPtr = OSRdyList[OSPrioHighRdy].HeadPtr;     /* No ... get highest priority task
 466:..\..\..\..\..\..\Software\uCOS-III\Source/os_core.c ****         if (OSTCBHighRdyPtr == OSTCBCurPtr) {                   /* Current task still the highest p
 467:..\..\..\..\..\..\Software\uCOS-III\Source/os_core.c ****             CPU_INT_EN();                                       /* Yes                             
 468:..\..\..\..\..\..\Software\uCOS-III\Source/os_core.c ****             return;
 469:..\..\..\..\..\..\Software\uCOS-III\Source/os_core.c ****         }
 470:..\..\..\..\..\..\Software\uCOS-III\Source/os_core.c ****     }
 471:..\..\..\..\..\..\Software\uCOS-III\Source/os_core.c **** #endif
 472:..\..\..\..\..\..\Software\uCOS-III\Source/os_core.c **** 
 473:..\..\..\..\..\..\Software\uCOS-III\Source/os_core.c **** 
 474:..\..\..\..\..\..\Software\uCOS-III\Source/os_core.c **** #if (OS_CFG_TASK_PROFILE_EN == DEF_ENABLED)
 475:..\..\..\..\..\..\Software\uCOS-III\Source/os_core.c ****     OSTCBHighRdyPtr->CtxSwCtr++;                                /* Inc. # of context switches to th
 565              		.loc 1 475 0
 566 005a 114B     		ldr	r3, .L47+16
 567 005c 1B68     		ldr	r3, [r3]
 568 005e 8C22     		movs	r2, #140
 569 0060 9A58     		ldr	r2, [r3, r2]
 570 0062 0132     		adds	r2, r2, #1
 571 0064 8C21     		movs	r1, #140
 572 0066 5A50     		str	r2, [r3, r1]
 476:..\..\..\..\..\..\Software\uCOS-III\Source/os_core.c **** #endif
 477:..\..\..\..\..\..\Software\uCOS-III\Source/os_core.c **** 
 478:..\..\..\..\..\..\Software\uCOS-III\Source/os_core.c **** #if ((OS_CFG_TASK_PROFILE_EN == DEF_ENABLED) || (OS_CFG_DBG_EN == DEF_ENABLED))
 479:..\..\..\..\..\..\Software\uCOS-III\Source/os_core.c ****     OSTaskCtxSwCtr++;                                           /* Increment context switch counter
 573              		.loc 1 479 0
 574 0068 0F4B     		ldr	r3, .L47+24
 575 006a 1B68     		ldr	r3, [r3]
 576 006c 5A1C     		adds	r2, r3, #1
 577 006e 0E4B     		ldr	r3, .L47+24
 578 0070 1A60     		str	r2, [r3]
 480:..\..\..\..\..\..\Software\uCOS-III\Source/os_core.c **** #endif
 481:..\..\..\..\..\..\Software\uCOS-III\Source/os_core.c **** 
 482:..\..\..\..\..\..\Software\uCOS-III\Source/os_core.c **** #if defined(OS_CFG_TLS_TBL_SIZE) && (OS_CFG_TLS_TBL_SIZE > 0u)
 483:..\..\..\..\..\..\Software\uCOS-III\Source/os_core.c ****     OS_TLS_TaskSw();
 484:..\..\..\..\..\..\Software\uCOS-III\Source/os_core.c **** #endif
 485:..\..\..\..\..\..\Software\uCOS-III\Source/os_core.c **** 
 486:..\..\..\..\..\..\Software\uCOS-III\Source/os_core.c **** #if (OS_CFG_TASK_IDLE_EN == DEF_ENABLED)
 487:..\..\..\..\..\..\Software\uCOS-III\Source/os_core.c ****     OS_TASK_SW();                                               /* Perform a task level context swi
 579              		.loc 1 487 0
 580 0072 FFF7FEFF 		bl	OSCtxSw
 488:..\..\..\..\..\..\Software\uCOS-III\Source/os_core.c ****     CPU_INT_EN();
 581              		.loc 1 488 0
 582 0076 7B68     		ldr	r3, [r7, #4]
 583 0078 1800     		movs	r0, r3
 584 007a FFF7FEFF 		bl	CPU_SR_Restore
ARM GAS  C:\Users\ADMINI~1\AppData\Local\Temp\cczjWrOu.s 			page 20


 489:..\..\..\..\..\..\Software\uCOS-III\Source/os_core.c **** #else
 490:..\..\..\..\..\..\Software\uCOS-III\Source/os_core.c ****     if ((OSPrioHighRdy != (OS_CFG_PRIO_MAX - 1u))) {
 491:..\..\..\..\..\..\Software\uCOS-III\Source/os_core.c ****         OS_TASK_SW();                                           /* Perform a task level context swi
 492:..\..\..\..\..\..\Software\uCOS-III\Source/os_core.c ****         CPU_INT_EN();
 493:..\..\..\..\..\..\Software\uCOS-III\Source/os_core.c ****     } else {
 494:..\..\..\..\..\..\Software\uCOS-III\Source/os_core.c ****         OSTCBHighRdyPtr = OSTCBCurPtr;
 495:..\..\..\..\..\..\Software\uCOS-III\Source/os_core.c ****         CPU_INT_EN();
 496:..\..\..\..\..\..\Software\uCOS-III\Source/os_core.c ****         while (DEF_ON) {
 497:..\..\..\..\..\..\Software\uCOS-III\Source/os_core.c **** #if ((OS_CFG_DBG_EN == DEF_ENABLED) || (OS_CFG_STAT_TASK_EN == DEF_ENABLED))
 498:..\..\..\..\..\..\Software\uCOS-III\Source/os_core.c ****             CPU_CRITICAL_ENTER();
 499:..\..\..\..\..\..\Software\uCOS-III\Source/os_core.c **** #if (OS_CFG_DBG_EN == DEF_ENABLED)
 500:..\..\..\..\..\..\Software\uCOS-III\Source/os_core.c ****             OSIdleTaskCtr++;
 501:..\..\..\..\..\..\Software\uCOS-III\Source/os_core.c **** #endif
 502:..\..\..\..\..\..\Software\uCOS-III\Source/os_core.c **** #if (OS_CFG_STAT_TASK_EN == DEF_ENABLED)
 503:..\..\..\..\..\..\Software\uCOS-III\Source/os_core.c ****             OSStatTaskCtr++;
 504:..\..\..\..\..\..\Software\uCOS-III\Source/os_core.c **** #endif
 505:..\..\..\..\..\..\Software\uCOS-III\Source/os_core.c ****             CPU_CRITICAL_EXIT();
 506:..\..\..\..\..\..\Software\uCOS-III\Source/os_core.c **** #endif
 507:..\..\..\..\..\..\Software\uCOS-III\Source/os_core.c **** 
 508:..\..\..\..\..\..\Software\uCOS-III\Source/os_core.c **** #if (OS_CFG_APP_HOOKS_EN == DEF_ENABLED)
 509:..\..\..\..\..\..\Software\uCOS-III\Source/os_core.c ****             OSIdleTaskHook();                                   /* Call user definable HOOK        
 510:..\..\..\..\..\..\Software\uCOS-III\Source/os_core.c **** #endif
 511:..\..\..\..\..\..\Software\uCOS-III\Source/os_core.c ****             if ((*((volatile OS_PRIO *)&OSPrioHighRdy) != (OS_CFG_PRIO_MAX - 1u))) {
 512:..\..\..\..\..\..\Software\uCOS-III\Source/os_core.c ****                 break;
 513:..\..\..\..\..\..\Software\uCOS-III\Source/os_core.c ****             }
 514:..\..\..\..\..\..\Software\uCOS-III\Source/os_core.c ****         }
 515:..\..\..\..\..\..\Software\uCOS-III\Source/os_core.c ****     }
 516:..\..\..\..\..\..\Software\uCOS-III\Source/os_core.c **** #endif
 517:..\..\..\..\..\..\Software\uCOS-III\Source/os_core.c **** 
 518:..\..\..\..\..\..\Software\uCOS-III\Source/os_core.c **** #ifdef OS_TASK_SW_SYNC
 519:..\..\..\..\..\..\Software\uCOS-III\Source/os_core.c ****     OS_TASK_SW_SYNC();
 585              		.loc 1 519 0
 586              		.syntax divided
 587              	@ 519 "..\..\..\..\..\..\Software\uCOS-III\Source\os_core.c" 1
 588 007e BFF36F8F 		isb
 589              	@ 0 "" 2
 590              		.thumb
 591              		.syntax unified
 592 0082 02E0     		b	.L40
 593              	.L45:
 448:..\..\..\..\..\..\Software\uCOS-III\Source/os_core.c ****     }
 594              		.loc 1 448 0
 595 0084 C046     		nop
 596 0086 00E0     		b	.L40
 597              	.L46:
 452:..\..\..\..\..\..\Software\uCOS-III\Source/os_core.c ****     }
 598              		.loc 1 452 0
 599 0088 C046     		nop
 600              	.L40:
 520:..\..\..\..\..\..\Software\uCOS-III\Source/os_core.c **** #endif
 521:..\..\..\..\..\..\Software\uCOS-III\Source/os_core.c **** }
 601              		.loc 1 521 0
 602 008a BD46     		mov	sp, r7
 603 008c 02B0     		add	sp, sp, #8
 604              		@ sp needed
 605 008e 80BD     		pop	{r7, pc}
 606              	.L48:
ARM GAS  C:\Users\ADMINI~1\AppData\Local\Temp\cczjWrOu.s 			page 21


 607              		.align	2
 608              	.L47:
 609 0090 00000000 		.word	OSIntNestingCtr
 610 0094 00000000 		.word	OSSchedLockNestingCtr
 611 0098 00000000 		.word	OSPrioHighRdy
 612 009c 00000000 		.word	OSRdyList
 613 00a0 00000000 		.word	OSTCBHighRdyPtr
 614 00a4 00000000 		.word	OSTCBCurPtr
 615 00a8 00000000 		.word	OSTaskCtxSwCtr
 616              		.cfi_endproc
 617              	.LFE3:
 618              		.size	OSSched, .-OSSched
 619              		.section	.text.OSSchedLock,"ax",%progbits
 620              		.align	2
 621              		.global	OSSchedLock
 622              		.code	16
 623              		.thumb_func
 624              		.type	OSSchedLock, %function
 625              	OSSchedLock:
 626              	.LFB4:
 522:..\..\..\..\..\..\Software\uCOS-III\Source/os_core.c **** 
 523:..\..\..\..\..\..\Software\uCOS-III\Source/os_core.c **** 
 524:..\..\..\..\..\..\Software\uCOS-III\Source/os_core.c **** /*
 525:..\..\..\..\..\..\Software\uCOS-III\Source/os_core.c **** ***************************************************************************************************
 526:..\..\..\..\..\..\Software\uCOS-III\Source/os_core.c **** *                                                 PREVENT SCHEDULING
 527:..\..\..\..\..\..\Software\uCOS-III\Source/os_core.c **** *
 528:..\..\..\..\..\..\Software\uCOS-III\Source/os_core.c **** * Description: This function is used to prevent rescheduling from taking place.  This allows your a
 529:..\..\..\..\..\..\Software\uCOS-III\Source/os_core.c **** *              context switches until you are ready to permit context switching.
 530:..\..\..\..\..\..\Software\uCOS-III\Source/os_core.c **** *
 531:..\..\..\..\..\..\Software\uCOS-III\Source/os_core.c **** * Arguments  : p_err     is a pointer to a variable that will receive an error code:
 532:..\..\..\..\..\..\Software\uCOS-III\Source/os_core.c **** *
 533:..\..\..\..\..\..\Software\uCOS-III\Source/os_core.c **** *                            OS_ERR_NONE                 The scheduler is locked
 534:..\..\..\..\..\..\Software\uCOS-III\Source/os_core.c **** *                            OS_ERR_LOCK_NESTING_OVF     If you attempted to nest call to this func
 535:..\..\..\..\..\..\Software\uCOS-III\Source/os_core.c **** *                            OS_ERR_OS_NOT_RUNNING       If uC/OS-III is not running yet
 536:..\..\..\..\..\..\Software\uCOS-III\Source/os_core.c **** *                            OS_ERR_SCHED_LOCK_ISR       If you called this function from an ISR
 537:..\..\..\..\..\..\Software\uCOS-III\Source/os_core.c **** *
 538:..\..\..\..\..\..\Software\uCOS-III\Source/os_core.c **** * Returns    : none
 539:..\..\..\..\..\..\Software\uCOS-III\Source/os_core.c **** *
 540:..\..\..\..\..\..\Software\uCOS-III\Source/os_core.c **** * Note(s)    : 1) You MUST invoke OSSchedLock() and OSSchedUnlock() in pair.  In other words, for e
 541:..\..\..\..\..\..\Software\uCOS-III\Source/os_core.c **** *                 call to OSSchedLock() you MUST have a call to OSSchedUnlock().
 542:..\..\..\..\..\..\Software\uCOS-III\Source/os_core.c **** ***************************************************************************************************
 543:..\..\..\..\..\..\Software\uCOS-III\Source/os_core.c **** */
 544:..\..\..\..\..\..\Software\uCOS-III\Source/os_core.c **** 
 545:..\..\..\..\..\..\Software\uCOS-III\Source/os_core.c **** void  OSSchedLock (OS_ERR  *p_err)
 546:..\..\..\..\..\..\Software\uCOS-III\Source/os_core.c **** {
 627              		.loc 1 546 0
 628              		.cfi_startproc
 629              		@ args = 0, pretend = 0, frame = 16
 630              		@ frame_needed = 1, uses_anonymous_args = 0
 631 0000 80B5     		push	{r7, lr}
 632              		.cfi_def_cfa_offset 8
 633              		.cfi_offset 7, -8
 634              		.cfi_offset 14, -4
 635 0002 84B0     		sub	sp, sp, #16
 636              		.cfi_def_cfa_offset 24
 637 0004 00AF     		add	r7, sp, #0
 638              		.cfi_def_cfa_register 7
ARM GAS  C:\Users\ADMINI~1\AppData\Local\Temp\cczjWrOu.s 			page 22


 639 0006 7860     		str	r0, [r7, #4]
 547:..\..\..\..\..\..\Software\uCOS-III\Source/os_core.c ****     CPU_SR_ALLOC();
 640              		.loc 1 547 0
 641 0008 0023     		movs	r3, #0
 642 000a FB60     		str	r3, [r7, #12]
 548:..\..\..\..\..\..\Software\uCOS-III\Source/os_core.c **** 
 549:..\..\..\..\..\..\Software\uCOS-III\Source/os_core.c **** 
 550:..\..\..\..\..\..\Software\uCOS-III\Source/os_core.c **** 
 551:..\..\..\..\..\..\Software\uCOS-III\Source/os_core.c **** #ifdef OS_SAFETY_CRITICAL
 552:..\..\..\..\..\..\Software\uCOS-III\Source/os_core.c ****     if (p_err == DEF_NULL) {
 553:..\..\..\..\..\..\Software\uCOS-III\Source/os_core.c ****         OS_SAFETY_CRITICAL_EXCEPTION();
 554:..\..\..\..\..\..\Software\uCOS-III\Source/os_core.c ****         return;
 555:..\..\..\..\..\..\Software\uCOS-III\Source/os_core.c ****     }
 556:..\..\..\..\..\..\Software\uCOS-III\Source/os_core.c **** #endif
 557:..\..\..\..\..\..\Software\uCOS-III\Source/os_core.c **** 
 558:..\..\..\..\..\..\Software\uCOS-III\Source/os_core.c **** #if (OS_CFG_CALLED_FROM_ISR_CHK_EN == DEF_ENABLED)
 559:..\..\..\..\..\..\Software\uCOS-III\Source/os_core.c ****     if (OSIntNestingCtr > 0u) {                                 /* Not allowed to call from an ISR 
 643              		.loc 1 559 0
 644 000c 184B     		ldr	r3, .L54
 645 000e 1B78     		ldrb	r3, [r3]
 646 0010 002B     		cmp	r3, #0
 647 0012 03D0     		beq	.L50
 560:..\..\..\..\..\..\Software\uCOS-III\Source/os_core.c ****        *p_err = OS_ERR_SCHED_LOCK_ISR;
 648              		.loc 1 560 0
 649 0014 7B68     		ldr	r3, [r7, #4]
 650 0016 174A     		ldr	r2, .L54+4
 651 0018 1A80     		strh	r2, [r3]
 561:..\..\..\..\..\..\Software\uCOS-III\Source/os_core.c ****         return;
 652              		.loc 1 561 0
 653 001a 26E0     		b	.L49
 654              	.L50:
 562:..\..\..\..\..\..\Software\uCOS-III\Source/os_core.c ****     }
 563:..\..\..\..\..\..\Software\uCOS-III\Source/os_core.c **** #endif
 564:..\..\..\..\..\..\Software\uCOS-III\Source/os_core.c **** 
 565:..\..\..\..\..\..\Software\uCOS-III\Source/os_core.c ****     if (OSRunning != OS_STATE_OS_RUNNING) {                     /* Make sure multitasking is runnin
 655              		.loc 1 565 0
 656 001c 164B     		ldr	r3, .L54+8
 657 001e 1B78     		ldrb	r3, [r3]
 658 0020 012B     		cmp	r3, #1
 659 0022 03D0     		beq	.L52
 566:..\..\..\..\..\..\Software\uCOS-III\Source/os_core.c ****        *p_err = OS_ERR_OS_NOT_RUNNING;
 660              		.loc 1 566 0
 661 0024 7B68     		ldr	r3, [r7, #4]
 662 0026 154A     		ldr	r2, .L54+12
 663 0028 1A80     		strh	r2, [r3]
 567:..\..\..\..\..\..\Software\uCOS-III\Source/os_core.c ****         return;
 664              		.loc 1 567 0
 665 002a 1EE0     		b	.L49
 666              	.L52:
 568:..\..\..\..\..\..\Software\uCOS-III\Source/os_core.c ****     }
 569:..\..\..\..\..\..\Software\uCOS-III\Source/os_core.c **** 
 570:..\..\..\..\..\..\Software\uCOS-III\Source/os_core.c ****     if (OSSchedLockNestingCtr >= 250u) {                        /* Prevent OSSchedLockNestingCtr ov
 667              		.loc 1 570 0
 668 002c 144B     		ldr	r3, .L54+16
 669 002e 1B78     		ldrb	r3, [r3]
 670 0030 F92B     		cmp	r3, #249
 671 0032 03D9     		bls	.L53
ARM GAS  C:\Users\ADMINI~1\AppData\Local\Temp\cczjWrOu.s 			page 23


 571:..\..\..\..\..\..\Software\uCOS-III\Source/os_core.c ****        *p_err = OS_ERR_LOCK_NESTING_OVF;
 672              		.loc 1 571 0
 673 0034 7B68     		ldr	r3, [r7, #4]
 674 0036 134A     		ldr	r2, .L54+20
 675 0038 1A80     		strh	r2, [r3]
 572:..\..\..\..\..\..\Software\uCOS-III\Source/os_core.c ****         return;
 676              		.loc 1 572 0
 677 003a 16E0     		b	.L49
 678              	.L53:
 573:..\..\..\..\..\..\Software\uCOS-III\Source/os_core.c ****     }
 574:..\..\..\..\..\..\Software\uCOS-III\Source/os_core.c **** 
 575:..\..\..\..\..\..\Software\uCOS-III\Source/os_core.c ****     CPU_CRITICAL_ENTER();
 679              		.loc 1 575 0
 680 003c FFF7FEFF 		bl	CPU_SR_Save
 681 0040 0300     		movs	r3, r0
 682 0042 FB60     		str	r3, [r7, #12]
 683 0044 FFF7FEFF 		bl	CPU_IntDisMeasStart
 576:..\..\..\..\..\..\Software\uCOS-III\Source/os_core.c ****     OSSchedLockNestingCtr++;                                    /* Increment lock nesting level    
 684              		.loc 1 576 0
 685 0048 0D4B     		ldr	r3, .L54+16
 686 004a 1B78     		ldrb	r3, [r3]
 687 004c 0133     		adds	r3, r3, #1
 688 004e DAB2     		uxtb	r2, r3
 689 0050 0B4B     		ldr	r3, .L54+16
 690 0052 1A70     		strb	r2, [r3]
 577:..\..\..\..\..\..\Software\uCOS-III\Source/os_core.c **** #if (OS_CFG_SCHED_LOCK_TIME_MEAS_EN == DEF_ENABLED)
 578:..\..\..\..\..\..\Software\uCOS-III\Source/os_core.c ****     OS_SchedLockTimeMeasStart();
 691              		.loc 1 578 0
 692 0054 FFF7FEFF 		bl	OS_SchedLockTimeMeasStart
 579:..\..\..\..\..\..\Software\uCOS-III\Source/os_core.c **** #endif
 580:..\..\..\..\..\..\Software\uCOS-III\Source/os_core.c ****     CPU_CRITICAL_EXIT();
 693              		.loc 1 580 0
 694 0058 FFF7FEFF 		bl	CPU_IntDisMeasStop
 695 005c FB68     		ldr	r3, [r7, #12]
 696 005e 1800     		movs	r0, r3
 697 0060 FFF7FEFF 		bl	CPU_SR_Restore
 581:..\..\..\..\..\..\Software\uCOS-III\Source/os_core.c ****    *p_err = OS_ERR_NONE;
 698              		.loc 1 581 0
 699 0064 7B68     		ldr	r3, [r7, #4]
 700 0066 0022     		movs	r2, #0
 701 0068 1A80     		strh	r2, [r3]
 702              	.L49:
 582:..\..\..\..\..\..\Software\uCOS-III\Source/os_core.c **** }
 703              		.loc 1 582 0
 704 006a BD46     		mov	sp, r7
 705 006c 04B0     		add	sp, sp, #16
 706              		@ sp needed
 707 006e 80BD     		pop	{r7, pc}
 708              	.L55:
 709              		.align	2
 710              	.L54:
 711 0070 00000000 		.word	OSIntNestingCtr
 712 0074 626D0000 		.word	28002
 713 0078 00000000 		.word	OSRunning
 714 007c 895E0000 		.word	24201
 715 0080 00000000 		.word	OSSchedLockNestingCtr
 716 0084 09520000 		.word	21001
ARM GAS  C:\Users\ADMINI~1\AppData\Local\Temp\cczjWrOu.s 			page 24


 717              		.cfi_endproc
 718              	.LFE4:
 719              		.size	OSSchedLock, .-OSSchedLock
 720              		.section	.text.OSSchedUnlock,"ax",%progbits
 721              		.align	2
 722              		.global	OSSchedUnlock
 723              		.code	16
 724              		.thumb_func
 725              		.type	OSSchedUnlock, %function
 726              	OSSchedUnlock:
 727              	.LFB5:
 583:..\..\..\..\..\..\Software\uCOS-III\Source/os_core.c **** 
 584:..\..\..\..\..\..\Software\uCOS-III\Source/os_core.c **** 
 585:..\..\..\..\..\..\Software\uCOS-III\Source/os_core.c **** /*
 586:..\..\..\..\..\..\Software\uCOS-III\Source/os_core.c **** ***************************************************************************************************
 587:..\..\..\..\..\..\Software\uCOS-III\Source/os_core.c **** *                                                  ENABLE SCHEDULING
 588:..\..\..\..\..\..\Software\uCOS-III\Source/os_core.c **** *
 589:..\..\..\..\..\..\Software\uCOS-III\Source/os_core.c **** * Description: This function is used to re-allow rescheduling.
 590:..\..\..\..\..\..\Software\uCOS-III\Source/os_core.c **** *
 591:..\..\..\..\..\..\Software\uCOS-III\Source/os_core.c **** * Arguments  : p_err     is a pointer to a variable that will contain an error code returned by thi
 592:..\..\..\..\..\..\Software\uCOS-III\Source/os_core.c **** *
 593:..\..\..\..\..\..\Software\uCOS-III\Source/os_core.c **** *                            OS_ERR_NONE                 The scheduler has been enabled
 594:..\..\..\..\..\..\Software\uCOS-III\Source/os_core.c **** *                            OS_ERR_OS_NOT_RUNNING       If uC/OS-III is not running yet
 595:..\..\..\..\..\..\Software\uCOS-III\Source/os_core.c **** *                            OS_ERR_SCHED_LOCKED         The scheduler is still locked, still neste
 596:..\..\..\..\..\..\Software\uCOS-III\Source/os_core.c **** *                            OS_ERR_SCHED_NOT_LOCKED     The scheduler was not locked
 597:..\..\..\..\..\..\Software\uCOS-III\Source/os_core.c **** *                            OS_ERR_SCHED_UNLOCK_ISR     If you called this function from an ISR
 598:..\..\..\..\..\..\Software\uCOS-III\Source/os_core.c **** *
 599:..\..\..\..\..\..\Software\uCOS-III\Source/os_core.c **** * Returns    : none
 600:..\..\..\..\..\..\Software\uCOS-III\Source/os_core.c **** *
 601:..\..\..\..\..\..\Software\uCOS-III\Source/os_core.c **** * Note(s)    : 1) You MUST invoke OSSchedLock() and OSSchedUnlock() in pair.  In other words, for e
 602:..\..\..\..\..\..\Software\uCOS-III\Source/os_core.c **** *                 OSSchedLock() you MUST have a call to OSSchedUnlock().
 603:..\..\..\..\..\..\Software\uCOS-III\Source/os_core.c **** ***************************************************************************************************
 604:..\..\..\..\..\..\Software\uCOS-III\Source/os_core.c **** */
 605:..\..\..\..\..\..\Software\uCOS-III\Source/os_core.c **** 
 606:..\..\..\..\..\..\Software\uCOS-III\Source/os_core.c **** void  OSSchedUnlock (OS_ERR  *p_err)
 607:..\..\..\..\..\..\Software\uCOS-III\Source/os_core.c **** {
 728              		.loc 1 607 0
 729              		.cfi_startproc
 730              		@ args = 0, pretend = 0, frame = 16
 731              		@ frame_needed = 1, uses_anonymous_args = 0
 732 0000 80B5     		push	{r7, lr}
 733              		.cfi_def_cfa_offset 8
 734              		.cfi_offset 7, -8
 735              		.cfi_offset 14, -4
 736 0002 84B0     		sub	sp, sp, #16
 737              		.cfi_def_cfa_offset 24
 738 0004 00AF     		add	r7, sp, #0
 739              		.cfi_def_cfa_register 7
 740 0006 7860     		str	r0, [r7, #4]
 608:..\..\..\..\..\..\Software\uCOS-III\Source/os_core.c ****     CPU_SR_ALLOC();
 741              		.loc 1 608 0
 742 0008 0023     		movs	r3, #0
 743 000a FB60     		str	r3, [r7, #12]
 609:..\..\..\..\..\..\Software\uCOS-III\Source/os_core.c **** 
 610:..\..\..\..\..\..\Software\uCOS-III\Source/os_core.c **** 
 611:..\..\..\..\..\..\Software\uCOS-III\Source/os_core.c **** 
 612:..\..\..\..\..\..\Software\uCOS-III\Source/os_core.c **** #ifdef OS_SAFETY_CRITICAL
ARM GAS  C:\Users\ADMINI~1\AppData\Local\Temp\cczjWrOu.s 			page 25


 613:..\..\..\..\..\..\Software\uCOS-III\Source/os_core.c ****     if (p_err == DEF_NULL) {
 614:..\..\..\..\..\..\Software\uCOS-III\Source/os_core.c ****         OS_SAFETY_CRITICAL_EXCEPTION();
 615:..\..\..\..\..\..\Software\uCOS-III\Source/os_core.c ****         return;
 616:..\..\..\..\..\..\Software\uCOS-III\Source/os_core.c ****     }
 617:..\..\..\..\..\..\Software\uCOS-III\Source/os_core.c **** #endif
 618:..\..\..\..\..\..\Software\uCOS-III\Source/os_core.c **** 
 619:..\..\..\..\..\..\Software\uCOS-III\Source/os_core.c **** #if (OS_CFG_CALLED_FROM_ISR_CHK_EN == DEF_ENABLED)
 620:..\..\..\..\..\..\Software\uCOS-III\Source/os_core.c ****     if (OSIntNestingCtr > 0u) {                                 /* Not allowed to call from an ISR 
 744              		.loc 1 620 0
 745 000c 204B     		ldr	r3, .L62
 746 000e 1B78     		ldrb	r3, [r3]
 747 0010 002B     		cmp	r3, #0
 748 0012 03D0     		beq	.L57
 621:..\..\..\..\..\..\Software\uCOS-III\Source/os_core.c ****        *p_err = OS_ERR_SCHED_UNLOCK_ISR;
 749              		.loc 1 621 0
 750 0014 7B68     		ldr	r3, [r7, #4]
 751 0016 1F4A     		ldr	r2, .L62+4
 752 0018 1A80     		strh	r2, [r3]
 622:..\..\..\..\..\..\Software\uCOS-III\Source/os_core.c ****         return;
 753              		.loc 1 622 0
 754 001a 36E0     		b	.L56
 755              	.L57:
 623:..\..\..\..\..\..\Software\uCOS-III\Source/os_core.c ****     }
 624:..\..\..\..\..\..\Software\uCOS-III\Source/os_core.c **** #endif
 625:..\..\..\..\..\..\Software\uCOS-III\Source/os_core.c **** 
 626:..\..\..\..\..\..\Software\uCOS-III\Source/os_core.c ****     if (OSRunning != OS_STATE_OS_RUNNING) {                     /* Make sure multitasking is runnin
 756              		.loc 1 626 0
 757 001c 1E4B     		ldr	r3, .L62+8
 758 001e 1B78     		ldrb	r3, [r3]
 759 0020 012B     		cmp	r3, #1
 760 0022 03D0     		beq	.L59
 627:..\..\..\..\..\..\Software\uCOS-III\Source/os_core.c ****        *p_err = OS_ERR_OS_NOT_RUNNING;
 761              		.loc 1 627 0
 762 0024 7B68     		ldr	r3, [r7, #4]
 763 0026 1D4A     		ldr	r2, .L62+12
 764 0028 1A80     		strh	r2, [r3]
 628:..\..\..\..\..\..\Software\uCOS-III\Source/os_core.c ****         return;
 765              		.loc 1 628 0
 766 002a 2EE0     		b	.L56
 767              	.L59:
 629:..\..\..\..\..\..\Software\uCOS-III\Source/os_core.c ****     }
 630:..\..\..\..\..\..\Software\uCOS-III\Source/os_core.c **** 
 631:..\..\..\..\..\..\Software\uCOS-III\Source/os_core.c ****     if (OSSchedLockNestingCtr == 0u) {                          /* See if the scheduler is locked  
 768              		.loc 1 631 0
 769 002c 1C4B     		ldr	r3, .L62+16
 770 002e 1B78     		ldrb	r3, [r3]
 771 0030 002B     		cmp	r3, #0
 772 0032 03D1     		bne	.L60
 632:..\..\..\..\..\..\Software\uCOS-III\Source/os_core.c ****        *p_err = OS_ERR_SCHED_NOT_LOCKED;
 773              		.loc 1 632 0
 774 0034 7B68     		ldr	r3, [r7, #4]
 775 0036 1B4A     		ldr	r2, .L62+20
 776 0038 1A80     		strh	r2, [r3]
 633:..\..\..\..\..\..\Software\uCOS-III\Source/os_core.c ****         return;
 777              		.loc 1 633 0
 778 003a 26E0     		b	.L56
 779              	.L60:
ARM GAS  C:\Users\ADMINI~1\AppData\Local\Temp\cczjWrOu.s 			page 26


 634:..\..\..\..\..\..\Software\uCOS-III\Source/os_core.c ****     }
 635:..\..\..\..\..\..\Software\uCOS-III\Source/os_core.c **** 
 636:..\..\..\..\..\..\Software\uCOS-III\Source/os_core.c ****     CPU_CRITICAL_ENTER();
 780              		.loc 1 636 0
 781 003c FFF7FEFF 		bl	CPU_SR_Save
 782 0040 0300     		movs	r3, r0
 783 0042 FB60     		str	r3, [r7, #12]
 784 0044 FFF7FEFF 		bl	CPU_IntDisMeasStart
 637:..\..\..\..\..\..\Software\uCOS-III\Source/os_core.c ****     OSSchedLockNestingCtr--;                                    /* Decrement lock nesting level    
 785              		.loc 1 637 0
 786 0048 154B     		ldr	r3, .L62+16
 787 004a 1B78     		ldrb	r3, [r3]
 788 004c 013B     		subs	r3, r3, #1
 789 004e DAB2     		uxtb	r2, r3
 790 0050 134B     		ldr	r3, .L62+16
 791 0052 1A70     		strb	r2, [r3]
 638:..\..\..\..\..\..\Software\uCOS-III\Source/os_core.c ****     if (OSSchedLockNestingCtr > 0u) {
 792              		.loc 1 638 0
 793 0054 124B     		ldr	r3, .L62+16
 794 0056 1B78     		ldrb	r3, [r3]
 795 0058 002B     		cmp	r3, #0
 796 005a 09D0     		beq	.L61
 639:..\..\..\..\..\..\Software\uCOS-III\Source/os_core.c ****         CPU_CRITICAL_EXIT();                                    /* Scheduler is still locked       
 797              		.loc 1 639 0
 798 005c FFF7FEFF 		bl	CPU_IntDisMeasStop
 799 0060 FB68     		ldr	r3, [r7, #12]
 800 0062 1800     		movs	r0, r3
 801 0064 FFF7FEFF 		bl	CPU_SR_Restore
 640:..\..\..\..\..\..\Software\uCOS-III\Source/os_core.c ****        *p_err = OS_ERR_SCHED_LOCKED;
 802              		.loc 1 640 0
 803 0068 7B68     		ldr	r3, [r7, #4]
 804 006a 0F4A     		ldr	r2, .L62+24
 805 006c 1A80     		strh	r2, [r3]
 641:..\..\..\..\..\..\Software\uCOS-III\Source/os_core.c ****         return;
 806              		.loc 1 641 0
 807 006e 0CE0     		b	.L56
 808              	.L61:
 642:..\..\..\..\..\..\Software\uCOS-III\Source/os_core.c ****     }
 643:..\..\..\..\..\..\Software\uCOS-III\Source/os_core.c **** 
 644:..\..\..\..\..\..\Software\uCOS-III\Source/os_core.c **** #if (OS_CFG_SCHED_LOCK_TIME_MEAS_EN == DEF_ENABLED)
 645:..\..\..\..\..\..\Software\uCOS-III\Source/os_core.c ****     OS_SchedLockTimeMeasStop();
 809              		.loc 1 645 0
 810 0070 FFF7FEFF 		bl	OS_SchedLockTimeMeasStop
 646:..\..\..\..\..\..\Software\uCOS-III\Source/os_core.c **** #endif
 647:..\..\..\..\..\..\Software\uCOS-III\Source/os_core.c **** 
 648:..\..\..\..\..\..\Software\uCOS-III\Source/os_core.c ****     CPU_CRITICAL_EXIT();                                        /* Scheduler should be re-enabled  
 811              		.loc 1 648 0
 812 0074 FFF7FEFF 		bl	CPU_IntDisMeasStop
 813 0078 FB68     		ldr	r3, [r7, #12]
 814 007a 1800     		movs	r0, r3
 815 007c FFF7FEFF 		bl	CPU_SR_Restore
 649:..\..\..\..\..\..\Software\uCOS-III\Source/os_core.c ****     OSSched();                                                  /* Run the scheduler               
 816              		.loc 1 649 0
 817 0080 FFF7FEFF 		bl	OSSched
 650:..\..\..\..\..\..\Software\uCOS-III\Source/os_core.c ****    *p_err = OS_ERR_NONE;
 818              		.loc 1 650 0
 819 0084 7B68     		ldr	r3, [r7, #4]
ARM GAS  C:\Users\ADMINI~1\AppData\Local\Temp\cczjWrOu.s 			page 27


 820 0086 0022     		movs	r2, #0
 821 0088 1A80     		strh	r2, [r3]
 822              	.L56:
 651:..\..\..\..\..\..\Software\uCOS-III\Source/os_core.c **** }
 823              		.loc 1 651 0
 824 008a BD46     		mov	sp, r7
 825 008c 04B0     		add	sp, sp, #16
 826              		@ sp needed
 827 008e 80BD     		pop	{r7, pc}
 828              	.L63:
 829              		.align	2
 830              	.L62:
 831 0090 00000000 		.word	OSIntNestingCtr
 832 0094 656D0000 		.word	28005
 833 0098 00000000 		.word	OSRunning
 834 009c 895E0000 		.word	24201
 835 00a0 00000000 		.word	OSSchedLockNestingCtr
 836 00a4 646D0000 		.word	28004
 837 00a8 636D0000 		.word	28003
 838              		.cfi_endproc
 839              	.LFE5:
 840              		.size	OSSchedUnlock, .-OSSchedUnlock
 841              		.section	.text.OSStart,"ax",%progbits
 842              		.align	2
 843              		.global	OSStart
 844              		.code	16
 845              		.thumb_func
 846              		.type	OSStart, %function
 847              	OSStart:
 848              	.LFB6:
 652:..\..\..\..\..\..\Software\uCOS-III\Source/os_core.c **** 
 653:..\..\..\..\..\..\Software\uCOS-III\Source/os_core.c **** 
 654:..\..\..\..\..\..\Software\uCOS-III\Source/os_core.c **** /*
 655:..\..\..\..\..\..\Software\uCOS-III\Source/os_core.c **** ***************************************************************************************************
 656:..\..\..\..\..\..\Software\uCOS-III\Source/os_core.c **** *                                      CONFIGURE ROUND-ROBIN SCHEDULING PARAMETERS
 657:..\..\..\..\..\..\Software\uCOS-III\Source/os_core.c **** *
 658:..\..\..\..\..\..\Software\uCOS-III\Source/os_core.c **** * Description: This function is called to change the round-robin scheduling parameters.
 659:..\..\..\..\..\..\Software\uCOS-III\Source/os_core.c **** *
 660:..\..\..\..\..\..\Software\uCOS-III\Source/os_core.c **** * Arguments  : en                determines whether round-robin will be enabled (when DEF_EN) or no
 661:..\..\..\..\..\..\Software\uCOS-III\Source/os_core.c **** *
 662:..\..\..\..\..\..\Software\uCOS-III\Source/os_core.c **** *              dflt_time_quanta  default number of ticks between time slices.  0 means assumes OSCf
 663:..\..\..\..\..\..\Software\uCOS-III\Source/os_core.c **** *
 664:..\..\..\..\..\..\Software\uCOS-III\Source/os_core.c **** *              p_err             is a pointer to a variable that will contain an error code returne
 665:..\..\..\..\..\..\Software\uCOS-III\Source/os_core.c **** *
 666:..\..\..\..\..\..\Software\uCOS-III\Source/os_core.c **** *                                    OS_ERR_NONE    The call was successful
 667:..\..\..\..\..\..\Software\uCOS-III\Source/os_core.c **** *
 668:..\..\..\..\..\..\Software\uCOS-III\Source/os_core.c **** * Returns    : none
 669:..\..\..\..\..\..\Software\uCOS-III\Source/os_core.c **** *
 670:..\..\..\..\..\..\Software\uCOS-III\Source/os_core.c **** * Note(s)    :
 671:..\..\..\..\..\..\Software\uCOS-III\Source/os_core.c **** ***************************************************************************************************
 672:..\..\..\..\..\..\Software\uCOS-III\Source/os_core.c **** */
 673:..\..\..\..\..\..\Software\uCOS-III\Source/os_core.c **** 
 674:..\..\..\..\..\..\Software\uCOS-III\Source/os_core.c **** #if (OS_CFG_SCHED_ROUND_ROBIN_EN == DEF_ENABLED)
 675:..\..\..\..\..\..\Software\uCOS-III\Source/os_core.c **** void  OSSchedRoundRobinCfg (CPU_BOOLEAN   en,
 676:..\..\..\..\..\..\Software\uCOS-III\Source/os_core.c ****                             OS_TICK       dflt_time_quanta,
 677:..\..\..\..\..\..\Software\uCOS-III\Source/os_core.c ****                             OS_ERR       *p_err)
 678:..\..\..\..\..\..\Software\uCOS-III\Source/os_core.c **** {
ARM GAS  C:\Users\ADMINI~1\AppData\Local\Temp\cczjWrOu.s 			page 28


 679:..\..\..\..\..\..\Software\uCOS-III\Source/os_core.c ****     CPU_SR_ALLOC();
 680:..\..\..\..\..\..\Software\uCOS-III\Source/os_core.c **** 
 681:..\..\..\..\..\..\Software\uCOS-III\Source/os_core.c **** 
 682:..\..\..\..\..\..\Software\uCOS-III\Source/os_core.c **** 
 683:..\..\..\..\..\..\Software\uCOS-III\Source/os_core.c **** #ifdef OS_SAFETY_CRITICAL
 684:..\..\..\..\..\..\Software\uCOS-III\Source/os_core.c ****     if (p_err == DEF_NULL) {
 685:..\..\..\..\..\..\Software\uCOS-III\Source/os_core.c ****         OS_SAFETY_CRITICAL_EXCEPTION();
 686:..\..\..\..\..\..\Software\uCOS-III\Source/os_core.c ****         return;
 687:..\..\..\..\..\..\Software\uCOS-III\Source/os_core.c ****     }
 688:..\..\..\..\..\..\Software\uCOS-III\Source/os_core.c **** #endif
 689:..\..\..\..\..\..\Software\uCOS-III\Source/os_core.c **** 
 690:..\..\..\..\..\..\Software\uCOS-III\Source/os_core.c ****     CPU_CRITICAL_ENTER();
 691:..\..\..\..\..\..\Software\uCOS-III\Source/os_core.c ****     if (en != DEF_ENABLED) {
 692:..\..\..\..\..\..\Software\uCOS-III\Source/os_core.c ****         OSSchedRoundRobinEn = DEF_FALSE;
 693:..\..\..\..\..\..\Software\uCOS-III\Source/os_core.c ****     } else {
 694:..\..\..\..\..\..\Software\uCOS-III\Source/os_core.c ****         OSSchedRoundRobinEn = DEF_TRUE;
 695:..\..\..\..\..\..\Software\uCOS-III\Source/os_core.c ****     }
 696:..\..\..\..\..\..\Software\uCOS-III\Source/os_core.c **** 
 697:..\..\..\..\..\..\Software\uCOS-III\Source/os_core.c ****     if (dflt_time_quanta > 0u) {
 698:..\..\..\..\..\..\Software\uCOS-III\Source/os_core.c ****         OSSchedRoundRobinDfltTimeQuanta = dflt_time_quanta;
 699:..\..\..\..\..\..\Software\uCOS-III\Source/os_core.c ****     } else {
 700:..\..\..\..\..\..\Software\uCOS-III\Source/os_core.c ****         OSSchedRoundRobinDfltTimeQuanta = (OS_TICK)(OSCfg_TickRate_Hz / 10u);
 701:..\..\..\..\..\..\Software\uCOS-III\Source/os_core.c ****     }
 702:..\..\..\..\..\..\Software\uCOS-III\Source/os_core.c ****     CPU_CRITICAL_EXIT();
 703:..\..\..\..\..\..\Software\uCOS-III\Source/os_core.c ****    *p_err = OS_ERR_NONE;
 704:..\..\..\..\..\..\Software\uCOS-III\Source/os_core.c **** }
 705:..\..\..\..\..\..\Software\uCOS-III\Source/os_core.c **** #endif
 706:..\..\..\..\..\..\Software\uCOS-III\Source/os_core.c **** 
 707:..\..\..\..\..\..\Software\uCOS-III\Source/os_core.c **** 
 708:..\..\..\..\..\..\Software\uCOS-III\Source/os_core.c **** /*
 709:..\..\..\..\..\..\Software\uCOS-III\Source/os_core.c **** ***************************************************************************************************
 710:..\..\..\..\..\..\Software\uCOS-III\Source/os_core.c **** *                                    YIELD CPU WHEN TASK NO LONGER NEEDS THE TIME SLICE
 711:..\..\..\..\..\..\Software\uCOS-III\Source/os_core.c **** *
 712:..\..\..\..\..\..\Software\uCOS-III\Source/os_core.c **** * Description: This function is called to give up the CPU when it is done executing before its time
 713:..\..\..\..\..\..\Software\uCOS-III\Source/os_core.c **** *
 714:..\..\..\..\..\..\Software\uCOS-III\Source/os_core.c **** * Argument(s): p_err      is a pointer to a variable that will contain an error code returned by th
 715:..\..\..\..\..\..\Software\uCOS-III\Source/os_core.c **** *
 716:..\..\..\..\..\..\Software\uCOS-III\Source/os_core.c **** *                             OS_ERR_NONE                   The call was successful
 717:..\..\..\..\..\..\Software\uCOS-III\Source/os_core.c **** *                             OS_ERR_ROUND_ROBIN_1          Only 1 task at this priority, nothing t
 718:..\..\..\..\..\..\Software\uCOS-III\Source/os_core.c **** *                             OS_ERR_ROUND_ROBIN_DISABLED   Round Robin is not enabled
 719:..\..\..\..\..\..\Software\uCOS-III\Source/os_core.c **** *                             OS_ERR_SCHED_LOCKED           The scheduler has been locked
 720:..\..\..\..\..\..\Software\uCOS-III\Source/os_core.c **** *                             OS_ERR_YIELD_ISR              Can't be called from an ISR
 721:..\..\..\..\..\..\Software\uCOS-III\Source/os_core.c **** *
 722:..\..\..\..\..\..\Software\uCOS-III\Source/os_core.c **** * Returns    : none
 723:..\..\..\..\..\..\Software\uCOS-III\Source/os_core.c **** *
 724:..\..\..\..\..\..\Software\uCOS-III\Source/os_core.c **** * Note(s)    : 1) This function MUST be called from a task.
 725:..\..\..\..\..\..\Software\uCOS-III\Source/os_core.c **** ***************************************************************************************************
 726:..\..\..\..\..\..\Software\uCOS-III\Source/os_core.c **** */
 727:..\..\..\..\..\..\Software\uCOS-III\Source/os_core.c **** 
 728:..\..\..\..\..\..\Software\uCOS-III\Source/os_core.c **** #if (OS_CFG_SCHED_ROUND_ROBIN_EN == DEF_ENABLED)
 729:..\..\..\..\..\..\Software\uCOS-III\Source/os_core.c **** void  OSSchedRoundRobinYield (OS_ERR  *p_err)
 730:..\..\..\..\..\..\Software\uCOS-III\Source/os_core.c **** {
 731:..\..\..\..\..\..\Software\uCOS-III\Source/os_core.c ****     OS_RDY_LIST  *p_rdy_list;
 732:..\..\..\..\..\..\Software\uCOS-III\Source/os_core.c ****     OS_TCB       *p_tcb;
 733:..\..\..\..\..\..\Software\uCOS-III\Source/os_core.c ****     CPU_SR_ALLOC();
 734:..\..\..\..\..\..\Software\uCOS-III\Source/os_core.c **** 
 735:..\..\..\..\..\..\Software\uCOS-III\Source/os_core.c **** 
ARM GAS  C:\Users\ADMINI~1\AppData\Local\Temp\cczjWrOu.s 			page 29


 736:..\..\..\..\..\..\Software\uCOS-III\Source/os_core.c **** 
 737:..\..\..\..\..\..\Software\uCOS-III\Source/os_core.c **** #ifdef OS_SAFETY_CRITICAL
 738:..\..\..\..\..\..\Software\uCOS-III\Source/os_core.c ****     if (p_err == DEF_NULL) {
 739:..\..\..\..\..\..\Software\uCOS-III\Source/os_core.c ****         OS_SAFETY_CRITICAL_EXCEPTION();
 740:..\..\..\..\..\..\Software\uCOS-III\Source/os_core.c ****         return;
 741:..\..\..\..\..\..\Software\uCOS-III\Source/os_core.c ****     }
 742:..\..\..\..\..\..\Software\uCOS-III\Source/os_core.c **** #endif
 743:..\..\..\..\..\..\Software\uCOS-III\Source/os_core.c **** 
 744:..\..\..\..\..\..\Software\uCOS-III\Source/os_core.c **** #if (OS_CFG_CALLED_FROM_ISR_CHK_EN == DEF_ENABLED)
 745:..\..\..\..\..\..\Software\uCOS-III\Source/os_core.c ****     if (OSIntNestingCtr > 0u) {                                 /* Can't call this function from an
 746:..\..\..\..\..\..\Software\uCOS-III\Source/os_core.c ****        *p_err = OS_ERR_YIELD_ISR;
 747:..\..\..\..\..\..\Software\uCOS-III\Source/os_core.c ****         return;
 748:..\..\..\..\..\..\Software\uCOS-III\Source/os_core.c ****     }
 749:..\..\..\..\..\..\Software\uCOS-III\Source/os_core.c **** #endif
 750:..\..\..\..\..\..\Software\uCOS-III\Source/os_core.c **** 
 751:..\..\..\..\..\..\Software\uCOS-III\Source/os_core.c ****     if (OSSchedLockNestingCtr > 0u) {                           /* Can't yield if the scheduler is 
 752:..\..\..\..\..\..\Software\uCOS-III\Source/os_core.c ****        *p_err = OS_ERR_SCHED_LOCKED;
 753:..\..\..\..\..\..\Software\uCOS-III\Source/os_core.c ****         return;
 754:..\..\..\..\..\..\Software\uCOS-III\Source/os_core.c ****     }
 755:..\..\..\..\..\..\Software\uCOS-III\Source/os_core.c **** 
 756:..\..\..\..\..\..\Software\uCOS-III\Source/os_core.c ****     if (OSSchedRoundRobinEn != DEF_TRUE) {                      /* Make sure round-robin has been e
 757:..\..\..\..\..\..\Software\uCOS-III\Source/os_core.c ****        *p_err = OS_ERR_ROUND_ROBIN_DISABLED;
 758:..\..\..\..\..\..\Software\uCOS-III\Source/os_core.c ****         return;
 759:..\..\..\..\..\..\Software\uCOS-III\Source/os_core.c ****     }
 760:..\..\..\..\..\..\Software\uCOS-III\Source/os_core.c **** 
 761:..\..\..\..\..\..\Software\uCOS-III\Source/os_core.c ****     CPU_CRITICAL_ENTER();
 762:..\..\..\..\..\..\Software\uCOS-III\Source/os_core.c ****     p_rdy_list = &OSRdyList[OSPrioCur];                         /* Can't yield if it's the only tas
 763:..\..\..\..\..\..\Software\uCOS-III\Source/os_core.c ****     if (p_rdy_list->HeadPtr == p_rdy_list->TailPtr) {
 764:..\..\..\..\..\..\Software\uCOS-III\Source/os_core.c ****         CPU_CRITICAL_EXIT();
 765:..\..\..\..\..\..\Software\uCOS-III\Source/os_core.c ****        *p_err = OS_ERR_ROUND_ROBIN_1;
 766:..\..\..\..\..\..\Software\uCOS-III\Source/os_core.c ****         return;
 767:..\..\..\..\..\..\Software\uCOS-III\Source/os_core.c ****     }
 768:..\..\..\..\..\..\Software\uCOS-III\Source/os_core.c **** 
 769:..\..\..\..\..\..\Software\uCOS-III\Source/os_core.c ****     OS_RdyListMoveHeadToTail(p_rdy_list);                       /* Move current OS_TCB to the end o
 770:..\..\..\..\..\..\Software\uCOS-III\Source/os_core.c ****     p_tcb = p_rdy_list->HeadPtr;                                /* Point to new OS_TCB at head of t
 771:..\..\..\..\..\..\Software\uCOS-III\Source/os_core.c ****     if (p_tcb->TimeQuanta == 0u) {                              /* See if we need to use the defaul
 772:..\..\..\..\..\..\Software\uCOS-III\Source/os_core.c ****         p_tcb->TimeQuantaCtr = OSSchedRoundRobinDfltTimeQuanta;
 773:..\..\..\..\..\..\Software\uCOS-III\Source/os_core.c ****     } else {
 774:..\..\..\..\..\..\Software\uCOS-III\Source/os_core.c ****         p_tcb->TimeQuantaCtr = p_tcb->TimeQuanta;               /* Load time slice counter with new
 775:..\..\..\..\..\..\Software\uCOS-III\Source/os_core.c ****     }
 776:..\..\..\..\..\..\Software\uCOS-III\Source/os_core.c **** 
 777:..\..\..\..\..\..\Software\uCOS-III\Source/os_core.c ****     CPU_CRITICAL_EXIT();
 778:..\..\..\..\..\..\Software\uCOS-III\Source/os_core.c **** 
 779:..\..\..\..\..\..\Software\uCOS-III\Source/os_core.c ****     OSSched();                                                  /* Run new task                    
 780:..\..\..\..\..\..\Software\uCOS-III\Source/os_core.c ****    *p_err = OS_ERR_NONE;
 781:..\..\..\..\..\..\Software\uCOS-III\Source/os_core.c **** }
 782:..\..\..\..\..\..\Software\uCOS-III\Source/os_core.c **** #endif
 783:..\..\..\..\..\..\Software\uCOS-III\Source/os_core.c **** 
 784:..\..\..\..\..\..\Software\uCOS-III\Source/os_core.c **** 
 785:..\..\..\..\..\..\Software\uCOS-III\Source/os_core.c **** /*
 786:..\..\..\..\..\..\Software\uCOS-III\Source/os_core.c **** ***************************************************************************************************
 787:..\..\..\..\..\..\Software\uCOS-III\Source/os_core.c **** *                                                 START MULTITASKING
 788:..\..\..\..\..\..\Software\uCOS-III\Source/os_core.c **** *
 789:..\..\..\..\..\..\Software\uCOS-III\Source/os_core.c **** * Description: This function is used to start the multitasking process which lets uC/OS-III manages
 790:..\..\..\..\..\..\Software\uCOS-III\Source/os_core.c **** *              created.  Before you can call OSStart(), you MUST have called OSInit() and you MUST 
 791:..\..\..\..\..\..\Software\uCOS-III\Source/os_core.c **** *              one application task.
 792:..\..\..\..\..\..\Software\uCOS-III\Source/os_core.c **** *
ARM GAS  C:\Users\ADMINI~1\AppData\Local\Temp\cczjWrOu.s 			page 30


 793:..\..\..\..\..\..\Software\uCOS-III\Source/os_core.c **** * Argument(s): p_err      is a pointer to a variable that will contain an error code returned by th
 794:..\..\..\..\..\..\Software\uCOS-III\Source/os_core.c **** *
 795:..\..\..\..\..\..\Software\uCOS-III\Source/os_core.c **** *                             OS_ERR_FATAL_RETURN    OS was running and OSStart() returned
 796:..\..\..\..\..\..\Software\uCOS-III\Source/os_core.c **** *                             OS_ERR_OS_NOT_INIT     OS is not initialized, OSStart() has no effect
 797:..\..\..\..\..\..\Software\uCOS-III\Source/os_core.c **** *                             OS_ERR_OS_NO_APP_TASK  No application task created, OSStart() has no 
 798:..\..\..\..\..\..\Software\uCOS-III\Source/os_core.c **** *                             OS_ERR_OS_RUNNING      OS is already running, OSStart() has no effect
 799:..\..\..\..\..\..\Software\uCOS-III\Source/os_core.c **** *
 800:..\..\..\..\..\..\Software\uCOS-III\Source/os_core.c **** * Returns    : none
 801:..\..\..\..\..\..\Software\uCOS-III\Source/os_core.c **** *
 802:..\..\..\..\..\..\Software\uCOS-III\Source/os_core.c **** * Note(s)    : 1) OSStartHighRdy() MUST:
 803:..\..\..\..\..\..\Software\uCOS-III\Source/os_core.c **** *                 a) Call OSTaskSwHook() then,
 804:..\..\..\..\..\..\Software\uCOS-III\Source/os_core.c **** *                 b) Load the context of the task pointed to by OSTCBHighRdyPtr.
 805:..\..\..\..\..\..\Software\uCOS-III\Source/os_core.c **** *                 c) Execute the task.
 806:..\..\..\..\..\..\Software\uCOS-III\Source/os_core.c **** *
 807:..\..\..\..\..\..\Software\uCOS-III\Source/os_core.c **** *              2) OSStart() is not supposed to return.  If it does, that would be considered a fata
 808:..\..\..\..\..\..\Software\uCOS-III\Source/os_core.c **** ***************************************************************************************************
 809:..\..\..\..\..\..\Software\uCOS-III\Source/os_core.c **** */
 810:..\..\..\..\..\..\Software\uCOS-III\Source/os_core.c **** 
 811:..\..\..\..\..\..\Software\uCOS-III\Source/os_core.c **** void  OSStart (OS_ERR  *p_err)
 812:..\..\..\..\..\..\Software\uCOS-III\Source/os_core.c **** {
 849              		.loc 1 812 0
 850              		.cfi_startproc
 851              		@ args = 0, pretend = 0, frame = 16
 852              		@ frame_needed = 1, uses_anonymous_args = 0
 853 0000 80B5     		push	{r7, lr}
 854              		.cfi_def_cfa_offset 8
 855              		.cfi_offset 7, -8
 856              		.cfi_offset 14, -4
 857 0002 84B0     		sub	sp, sp, #16
 858              		.cfi_def_cfa_offset 24
 859 0004 00AF     		add	r7, sp, #0
 860              		.cfi_def_cfa_register 7
 861 0006 7860     		str	r0, [r7, #4]
 813:..\..\..\..\..\..\Software\uCOS-III\Source/os_core.c ****     OS_OBJ_QTY  kernel_task_cnt;
 814:..\..\..\..\..\..\Software\uCOS-III\Source/os_core.c **** 
 815:..\..\..\..\..\..\Software\uCOS-III\Source/os_core.c **** 
 816:..\..\..\..\..\..\Software\uCOS-III\Source/os_core.c **** #ifdef OS_SAFETY_CRITICAL
 817:..\..\..\..\..\..\Software\uCOS-III\Source/os_core.c ****     if (p_err == DEF_NULL) {
 818:..\..\..\..\..\..\Software\uCOS-III\Source/os_core.c ****         OS_SAFETY_CRITICAL_EXCEPTION();
 819:..\..\..\..\..\..\Software\uCOS-III\Source/os_core.c ****         return;
 820:..\..\..\..\..\..\Software\uCOS-III\Source/os_core.c ****     }
 821:..\..\..\..\..\..\Software\uCOS-III\Source/os_core.c **** #endif
 822:..\..\..\..\..\..\Software\uCOS-III\Source/os_core.c **** 
 823:..\..\..\..\..\..\Software\uCOS-III\Source/os_core.c ****     if (OSInitialized != DEF_TRUE) {
 862              		.loc 1 823 0
 863 0008 2F4B     		ldr	r3, .L69
 864 000a 1B78     		ldrb	r3, [r3]
 865 000c 012B     		cmp	r3, #1
 866 000e 03D0     		beq	.L65
 824:..\..\..\..\..\..\Software\uCOS-III\Source/os_core.c ****        *p_err = OS_ERR_OS_NOT_INIT;
 867              		.loc 1 824 0
 868 0010 7B68     		ldr	r3, [r7, #4]
 869 0012 2E4A     		ldr	r2, .L69+4
 870 0014 1A80     		strh	r2, [r3]
 825:..\..\..\..\..\..\Software\uCOS-III\Source/os_core.c ****         return;
 871              		.loc 1 825 0
 872 0016 53E0     		b	.L64
ARM GAS  C:\Users\ADMINI~1\AppData\Local\Temp\cczjWrOu.s 			page 31


 873              	.L65:
 826:..\..\..\..\..\..\Software\uCOS-III\Source/os_core.c ****     }
 827:..\..\..\..\..\..\Software\uCOS-III\Source/os_core.c **** 
 828:..\..\..\..\..\..\Software\uCOS-III\Source/os_core.c ****     kernel_task_cnt = 0u;                                       /* Calculate the number of kernel t
 874              		.loc 1 828 0
 875 0018 0E23     		movs	r3, #14
 876 001a FB18     		adds	r3, r7, r3
 877 001c 0022     		movs	r2, #0
 878 001e 1A80     		strh	r2, [r3]
 829:..\..\..\..\..\..\Software\uCOS-III\Source/os_core.c **** #if (OS_CFG_STAT_TASK_EN == DEF_ENABLED)
 830:..\..\..\..\..\..\Software\uCOS-III\Source/os_core.c ****     kernel_task_cnt++;
 879              		.loc 1 830 0
 880 0020 0E23     		movs	r3, #14
 881 0022 FB18     		adds	r3, r7, r3
 882 0024 1A88     		ldrh	r2, [r3]
 883 0026 0E23     		movs	r3, #14
 884 0028 FB18     		adds	r3, r7, r3
 885 002a 0132     		adds	r2, r2, #1
 886 002c 1A80     		strh	r2, [r3]
 831:..\..\..\..\..\..\Software\uCOS-III\Source/os_core.c **** #endif
 832:..\..\..\..\..\..\Software\uCOS-III\Source/os_core.c **** #if (OS_CFG_TASK_TICK_EN  == DEF_ENABLED)
 833:..\..\..\..\..\..\Software\uCOS-III\Source/os_core.c ****     kernel_task_cnt++;
 887              		.loc 1 833 0
 888 002e 0E23     		movs	r3, #14
 889 0030 FB18     		adds	r3, r7, r3
 890 0032 1A88     		ldrh	r2, [r3]
 891 0034 0E23     		movs	r3, #14
 892 0036 FB18     		adds	r3, r7, r3
 893 0038 0132     		adds	r2, r2, #1
 894 003a 1A80     		strh	r2, [r3]
 834:..\..\..\..\..\..\Software\uCOS-III\Source/os_core.c **** #endif
 835:..\..\..\..\..\..\Software\uCOS-III\Source/os_core.c **** #if (OS_CFG_TMR_EN == DEF_ENABLED)
 836:..\..\..\..\..\..\Software\uCOS-III\Source/os_core.c ****     kernel_task_cnt++;
 895              		.loc 1 836 0
 896 003c 0E23     		movs	r3, #14
 897 003e FB18     		adds	r3, r7, r3
 898 0040 1A88     		ldrh	r2, [r3]
 899 0042 0E23     		movs	r3, #14
 900 0044 FB18     		adds	r3, r7, r3
 901 0046 0132     		adds	r2, r2, #1
 902 0048 1A80     		strh	r2, [r3]
 837:..\..\..\..\..\..\Software\uCOS-III\Source/os_core.c **** #endif
 838:..\..\..\..\..\..\Software\uCOS-III\Source/os_core.c **** #if (OS_CFG_TASK_IDLE_EN == DEF_ENABLED)
 839:..\..\..\..\..\..\Software\uCOS-III\Source/os_core.c ****     kernel_task_cnt++;
 903              		.loc 1 839 0
 904 004a 0E23     		movs	r3, #14
 905 004c FB18     		adds	r3, r7, r3
 906 004e 1A88     		ldrh	r2, [r3]
 907 0050 0E23     		movs	r3, #14
 908 0052 FB18     		adds	r3, r7, r3
 909 0054 0132     		adds	r2, r2, #1
 910 0056 1A80     		strh	r2, [r3]
 840:..\..\..\..\..\..\Software\uCOS-III\Source/os_core.c **** #endif
 841:..\..\..\..\..\..\Software\uCOS-III\Source/os_core.c **** 
 842:..\..\..\..\..\..\Software\uCOS-III\Source/os_core.c ****     if (OSTaskQty <= kernel_task_cnt) {                         /* No application task created     
 911              		.loc 1 842 0
 912 0058 1D4B     		ldr	r3, .L69+8
ARM GAS  C:\Users\ADMINI~1\AppData\Local\Temp\cczjWrOu.s 			page 32


 913 005a 1B88     		ldrh	r3, [r3]
 914 005c 0E22     		movs	r2, #14
 915 005e BA18     		adds	r2, r7, r2
 916 0060 1288     		ldrh	r2, [r2]
 917 0062 9A42     		cmp	r2, r3
 918 0064 03D3     		bcc	.L67
 843:..\..\..\..\..\..\Software\uCOS-III\Source/os_core.c ****         *p_err = OS_ERR_OS_NO_APP_TASK;
 919              		.loc 1 843 0
 920 0066 7B68     		ldr	r3, [r7, #4]
 921 0068 1A4A     		ldr	r2, .L69+12
 922 006a 1A80     		strh	r2, [r3]
 844:..\..\..\..\..\..\Software\uCOS-III\Source/os_core.c ****          return;
 923              		.loc 1 844 0
 924 006c 28E0     		b	.L64
 925              	.L67:
 845:..\..\..\..\..\..\Software\uCOS-III\Source/os_core.c ****     }
 846:..\..\..\..\..\..\Software\uCOS-III\Source/os_core.c **** 
 847:..\..\..\..\..\..\Software\uCOS-III\Source/os_core.c ****     if (OSRunning == OS_STATE_OS_STOPPED) {
 926              		.loc 1 847 0
 927 006e 1A4B     		ldr	r3, .L69+16
 928 0070 1B78     		ldrb	r3, [r3]
 929 0072 002B     		cmp	r3, #0
 930 0074 21D1     		bne	.L68
 848:..\..\..\..\..\..\Software\uCOS-III\Source/os_core.c ****         OSPrioHighRdy             = OS_PrioGetHighest();        /* Find the highest priority       
 931              		.loc 1 848 0
 932 0076 FFF7FEFF 		bl	OS_PrioGetHighest
 933 007a 0300     		movs	r3, r0
 934 007c 1A00     		movs	r2, r3
 935 007e 174B     		ldr	r3, .L69+20
 936 0080 1A70     		strb	r2, [r3]
 849:..\..\..\..\..\..\Software\uCOS-III\Source/os_core.c ****         OSPrioCur                 = OSPrioHighRdy;
 937              		.loc 1 849 0
 938 0082 164B     		ldr	r3, .L69+20
 939 0084 1A78     		ldrb	r2, [r3]
 940 0086 164B     		ldr	r3, .L69+24
 941 0088 1A70     		strb	r2, [r3]
 850:..\..\..\..\..\..\Software\uCOS-III\Source/os_core.c ****         OSTCBHighRdyPtr           = OSRdyList[OSPrioHighRdy].HeadPtr;
 942              		.loc 1 850 0
 943 008a 144B     		ldr	r3, .L69+20
 944 008c 1B78     		ldrb	r3, [r3]
 945 008e 1900     		movs	r1, r3
 946 0090 144A     		ldr	r2, .L69+28
 947 0092 0B00     		movs	r3, r1
 948 0094 5B00     		lsls	r3, r3, #1
 949 0096 5B18     		adds	r3, r3, r1
 950 0098 9B00     		lsls	r3, r3, #2
 951 009a 9A58     		ldr	r2, [r3, r2]
 952 009c 124B     		ldr	r3, .L69+32
 953 009e 1A60     		str	r2, [r3]
 851:..\..\..\..\..\..\Software\uCOS-III\Source/os_core.c ****         OSTCBCurPtr               = OSTCBHighRdyPtr;
 954              		.loc 1 851 0
 955 00a0 114B     		ldr	r3, .L69+32
 956 00a2 1A68     		ldr	r2, [r3]
 957 00a4 114B     		ldr	r3, .L69+36
 958 00a6 1A60     		str	r2, [r3]
 852:..\..\..\..\..\..\Software\uCOS-III\Source/os_core.c ****         OSRunning                 = OS_STATE_OS_RUNNING;
 959              		.loc 1 852 0
ARM GAS  C:\Users\ADMINI~1\AppData\Local\Temp\cczjWrOu.s 			page 33


 960 00a8 0B4B     		ldr	r3, .L69+16
 961 00aa 0122     		movs	r2, #1
 962 00ac 1A70     		strb	r2, [r3]
 853:..\..\..\..\..\..\Software\uCOS-III\Source/os_core.c ****         OSStartHighRdy();                                       /* Execute target specific code to 
 963              		.loc 1 853 0
 964 00ae FFF7FEFF 		bl	OSStartHighRdy
 854:..\..\..\..\..\..\Software\uCOS-III\Source/os_core.c ****        *p_err                     = OS_ERR_FATAL_RETURN;        /* OSStart() is not supposed to ret
 965              		.loc 1 854 0
 966 00b2 7B68     		ldr	r3, [r7, #4]
 967 00b4 0E4A     		ldr	r2, .L69+40
 968 00b6 1A80     		strh	r2, [r3]
 969 00b8 02E0     		b	.L64
 970              	.L68:
 855:..\..\..\..\..\..\Software\uCOS-III\Source/os_core.c ****     } else {
 856:..\..\..\..\..\..\Software\uCOS-III\Source/os_core.c ****        *p_err                     = OS_ERR_OS_RUNNING;          /* OS is already running           
 971              		.loc 1 856 0
 972 00ba 7B68     		ldr	r3, [r7, #4]
 973 00bc 0D4A     		ldr	r2, .L69+44
 974 00be 1A80     		strh	r2, [r3]
 975              	.L64:
 857:..\..\..\..\..\..\Software\uCOS-III\Source/os_core.c ****     }
 858:..\..\..\..\..\..\Software\uCOS-III\Source/os_core.c **** }
 976              		.loc 1 858 0
 977 00c0 BD46     		mov	sp, r7
 978 00c2 04B0     		add	sp, sp, #16
 979              		@ sp needed
 980 00c4 80BD     		pop	{r7, pc}
 981              	.L70:
 982 00c6 C046     		.align	2
 983              	.L69:
 984 00c8 00000000 		.word	OSInitialized
 985 00cc 8B5E0000 		.word	24203
 986 00d0 00000000 		.word	OSTaskQty
 987 00d4 8C5E0000 		.word	24204
 988 00d8 00000000 		.word	OSRunning
 989 00dc 00000000 		.word	OSPrioHighRdy
 990 00e0 00000000 		.word	OSPrioCur
 991 00e4 00000000 		.word	OSRdyList
 992 00e8 00000000 		.word	OSTCBHighRdyPtr
 993 00ec 00000000 		.word	OSTCBCurPtr
 994 00f0 993A0000 		.word	15001
 995 00f4 8A5E0000 		.word	24202
 996              		.cfi_endproc
 997              	.LFE6:
 998              		.size	OSStart, .-OSStart
 999              		.section	.text.OSVersion,"ax",%progbits
 1000              		.align	2
 1001              		.global	OSVersion
 1002              		.code	16
 1003              		.thumb_func
 1004              		.type	OSVersion, %function
 1005              	OSVersion:
 1006              	.LFB7:
 859:..\..\..\..\..\..\Software\uCOS-III\Source/os_core.c **** 
 860:..\..\..\..\..\..\Software\uCOS-III\Source/os_core.c **** 
 861:..\..\..\..\..\..\Software\uCOS-III\Source/os_core.c **** /*
 862:..\..\..\..\..\..\Software\uCOS-III\Source/os_core.c **** ***************************************************************************************************
ARM GAS  C:\Users\ADMINI~1\AppData\Local\Temp\cczjWrOu.s 			page 34


 863:..\..\..\..\..\..\Software\uCOS-III\Source/os_core.c **** *                                                    GET VERSION
 864:..\..\..\..\..\..\Software\uCOS-III\Source/os_core.c **** *
 865:..\..\..\..\..\..\Software\uCOS-III\Source/os_core.c **** * Description: This function is used to return the version number of uC/OS-III.  The returned value
 866:..\..\..\..\..\..\Software\uCOS-III\Source/os_core.c **** *              uC/OS-III's version number multiplied by 10000.  In other words, version 3.01.02 wou
 867:..\..\..\..\..\..\Software\uCOS-III\Source/os_core.c **** *
 868:..\..\..\..\..\..\Software\uCOS-III\Source/os_core.c **** * Arguments  : p_err   is a pointer to a variable that will receive an error code.  However, OSVers
 869:..\..\..\..\..\..\Software\uCOS-III\Source/os_core.c **** *                      variable to
 870:..\..\..\..\..\..\Software\uCOS-III\Source/os_core.c **** *
 871:..\..\..\..\..\..\Software\uCOS-III\Source/os_core.c **** *                         OS_ERR_NONE
 872:..\..\..\..\..\..\Software\uCOS-III\Source/os_core.c **** *
 873:..\..\..\..\..\..\Software\uCOS-III\Source/os_core.c **** * Returns    : The version number of uC/OS-III multiplied by 10000.
 874:..\..\..\..\..\..\Software\uCOS-III\Source/os_core.c **** *
 875:..\..\..\..\..\..\Software\uCOS-III\Source/os_core.c **** * Note(s)    : none
 876:..\..\..\..\..\..\Software\uCOS-III\Source/os_core.c **** ***************************************************************************************************
 877:..\..\..\..\..\..\Software\uCOS-III\Source/os_core.c **** */
 878:..\..\..\..\..\..\Software\uCOS-III\Source/os_core.c **** 
 879:..\..\..\..\..\..\Software\uCOS-III\Source/os_core.c **** CPU_INT16U  OSVersion (OS_ERR  *p_err)
 880:..\..\..\..\..\..\Software\uCOS-III\Source/os_core.c **** {
 1007              		.loc 1 880 0
 1008              		.cfi_startproc
 1009              		@ args = 0, pretend = 0, frame = 8
 1010              		@ frame_needed = 1, uses_anonymous_args = 0
 1011 0000 80B5     		push	{r7, lr}
 1012              		.cfi_def_cfa_offset 8
 1013              		.cfi_offset 7, -8
 1014              		.cfi_offset 14, -4
 1015 0002 82B0     		sub	sp, sp, #8
 1016              		.cfi_def_cfa_offset 16
 1017 0004 00AF     		add	r7, sp, #0
 1018              		.cfi_def_cfa_register 7
 1019 0006 7860     		str	r0, [r7, #4]
 881:..\..\..\..\..\..\Software\uCOS-III\Source/os_core.c **** #ifdef OS_SAFETY_CRITICAL
 882:..\..\..\..\..\..\Software\uCOS-III\Source/os_core.c ****     if (p_err == DEF_NULL) {
 883:..\..\..\..\..\..\Software\uCOS-III\Source/os_core.c ****         OS_SAFETY_CRITICAL_EXCEPTION();
 884:..\..\..\..\..\..\Software\uCOS-III\Source/os_core.c ****         return (0u);
 885:..\..\..\..\..\..\Software\uCOS-III\Source/os_core.c ****     }
 886:..\..\..\..\..\..\Software\uCOS-III\Source/os_core.c **** #endif
 887:..\..\..\..\..\..\Software\uCOS-III\Source/os_core.c **** 
 888:..\..\..\..\..\..\Software\uCOS-III\Source/os_core.c ****    *p_err = OS_ERR_NONE;
 1020              		.loc 1 888 0
 1021 0008 7B68     		ldr	r3, [r7, #4]
 1022 000a 0022     		movs	r2, #0
 1023 000c 1A80     		strh	r2, [r3]
 889:..\..\..\..\..\..\Software\uCOS-III\Source/os_core.c ****     return (OS_VERSION);
 1024              		.loc 1 889 0
 1025 000e 024B     		ldr	r3, .L73
 890:..\..\..\..\..\..\Software\uCOS-III\Source/os_core.c **** }
 1026              		.loc 1 890 0
 1027 0010 1800     		movs	r0, r3
 1028 0012 BD46     		mov	sp, r7
 1029 0014 02B0     		add	sp, sp, #8
 1030              		@ sp needed
 1031 0016 80BD     		pop	{r7, pc}
 1032              	.L74:
 1033              		.align	2
 1034              	.L73:
 1035 0018 25770000 		.word	30501
ARM GAS  C:\Users\ADMINI~1\AppData\Local\Temp\cczjWrOu.s 			page 35


 1036              		.cfi_endproc
 1037              	.LFE7:
 1038              		.size	OSVersion, .-OSVersion
 1039              		.section	.text.OS_IdleTask,"ax",%progbits
 1040              		.align	2
 1041              		.global	OS_IdleTask
 1042              		.code	16
 1043              		.thumb_func
 1044              		.type	OS_IdleTask, %function
 1045              	OS_IdleTask:
 1046              	.LFB8:
 891:..\..\..\..\..\..\Software\uCOS-III\Source/os_core.c **** 
 892:..\..\..\..\..\..\Software\uCOS-III\Source/os_core.c **** 
 893:..\..\..\..\..\..\Software\uCOS-III\Source/os_core.c **** /*
 894:..\..\..\..\..\..\Software\uCOS-III\Source/os_core.c **** ***************************************************************************************************
 895:..\..\..\..\..\..\Software\uCOS-III\Source/os_core.c **** *                                                      IDLE TASK
 896:..\..\..\..\..\..\Software\uCOS-III\Source/os_core.c **** *
 897:..\..\..\..\..\..\Software\uCOS-III\Source/os_core.c **** * Description: This task is internal to uC/OS-III and executes whenever no other higher priority ta
 898:..\..\..\..\..\..\Software\uCOS-III\Source/os_core.c **** *              they are ALL waiting for event(s) to occur.
 899:..\..\..\..\..\..\Software\uCOS-III\Source/os_core.c **** *
 900:..\..\..\..\..\..\Software\uCOS-III\Source/os_core.c **** * Arguments  : p_arg    is an argument passed to the task when the task is created.
 901:..\..\..\..\..\..\Software\uCOS-III\Source/os_core.c **** *
 902:..\..\..\..\..\..\Software\uCOS-III\Source/os_core.c **** * Returns    : none
 903:..\..\..\..\..\..\Software\uCOS-III\Source/os_core.c **** *
 904:..\..\..\..\..\..\Software\uCOS-III\Source/os_core.c **** * Note(s)    : 1) This function is INTERNAL to uC/OS-III and your application MUST NOT call it.
 905:..\..\..\..\..\..\Software\uCOS-III\Source/os_core.c **** *
 906:..\..\..\..\..\..\Software\uCOS-III\Source/os_core.c **** *              2) OSIdleTaskHook() is called after the critical section to ensure that interrupts w
 907:..\..\..\..\..\..\Software\uCOS-III\Source/os_core.c **** *                 least a few instructions.  On some processors (ex. Philips XA), enabling and then
 908:..\..\..\..\..\..\Software\uCOS-III\Source/os_core.c **** *                 doesn't allow the processor enough time to have interrupts enabled before they we
 909:..\..\..\..\..\..\Software\uCOS-III\Source/os_core.c **** *                 uC/OS-III would thus never recognize interrupts.
 910:..\..\..\..\..\..\Software\uCOS-III\Source/os_core.c **** *
 911:..\..\..\..\..\..\Software\uCOS-III\Source/os_core.c **** *              3) This hook has been added to allow you to do such things as STOP the CPU to conser
 912:..\..\..\..\..\..\Software\uCOS-III\Source/os_core.c **** ***************************************************************************************************
 913:..\..\..\..\..\..\Software\uCOS-III\Source/os_core.c **** */
 914:..\..\..\..\..\..\Software\uCOS-III\Source/os_core.c **** #if (OS_CFG_TASK_IDLE_EN == DEF_ENABLED)
 915:..\..\..\..\..\..\Software\uCOS-III\Source/os_core.c **** void  OS_IdleTask (void  *p_arg)
 916:..\..\..\..\..\..\Software\uCOS-III\Source/os_core.c **** {
 1047              		.loc 1 916 0
 1048              		.cfi_startproc
 1049              		@ args = 0, pretend = 0, frame = 16
 1050              		@ frame_needed = 1, uses_anonymous_args = 0
 1051 0000 80B5     		push	{r7, lr}
 1052              		.cfi_def_cfa_offset 8
 1053              		.cfi_offset 7, -8
 1054              		.cfi_offset 14, -4
 1055 0002 84B0     		sub	sp, sp, #16
 1056              		.cfi_def_cfa_offset 24
 1057 0004 00AF     		add	r7, sp, #0
 1058              		.cfi_def_cfa_register 7
 1059 0006 7860     		str	r0, [r7, #4]
 917:..\..\..\..\..\..\Software\uCOS-III\Source/os_core.c **** #if ((OS_CFG_DBG_EN == DEF_ENABLED) || (OS_CFG_STAT_TASK_EN == DEF_ENABLED))
 918:..\..\..\..\..\..\Software\uCOS-III\Source/os_core.c ****     CPU_SR_ALLOC();
 1060              		.loc 1 918 0
 1061 0008 0023     		movs	r3, #0
 1062 000a FB60     		str	r3, [r7, #12]
 1063              	.L76:
 919:..\..\..\..\..\..\Software\uCOS-III\Source/os_core.c **** #endif
ARM GAS  C:\Users\ADMINI~1\AppData\Local\Temp\cczjWrOu.s 			page 36


 920:..\..\..\..\..\..\Software\uCOS-III\Source/os_core.c **** 
 921:..\..\..\..\..\..\Software\uCOS-III\Source/os_core.c **** 
 922:..\..\..\..\..\..\Software\uCOS-III\Source/os_core.c ****     (void)p_arg;                                                /* Prevent compiler warning for not
 923:..\..\..\..\..\..\Software\uCOS-III\Source/os_core.c **** 
 924:..\..\..\..\..\..\Software\uCOS-III\Source/os_core.c ****     while (DEF_ON) {
 925:..\..\..\..\..\..\Software\uCOS-III\Source/os_core.c **** #if ((OS_CFG_DBG_EN == DEF_ENABLED) || (OS_CFG_STAT_TASK_EN == DEF_ENABLED))
 926:..\..\..\..\..\..\Software\uCOS-III\Source/os_core.c ****         CPU_CRITICAL_ENTER();
 1064              		.loc 1 926 0 discriminator 1
 1065 000c FFF7FEFF 		bl	CPU_SR_Save
 1066 0010 0300     		movs	r3, r0
 1067 0012 FB60     		str	r3, [r7, #12]
 1068 0014 FFF7FEFF 		bl	CPU_IntDisMeasStart
 927:..\..\..\..\..\..\Software\uCOS-III\Source/os_core.c **** #if (OS_CFG_DBG_EN == DEF_ENABLED)
 928:..\..\..\..\..\..\Software\uCOS-III\Source/os_core.c ****         OSIdleTaskCtr++;
 1069              		.loc 1 928 0 discriminator 1
 1070 0018 084B     		ldr	r3, .L77
 1071 001a 1B68     		ldr	r3, [r3]
 1072 001c 5A1C     		adds	r2, r3, #1
 1073 001e 074B     		ldr	r3, .L77
 1074 0020 1A60     		str	r2, [r3]
 929:..\..\..\..\..\..\Software\uCOS-III\Source/os_core.c **** #endif
 930:..\..\..\..\..\..\Software\uCOS-III\Source/os_core.c **** #if (OS_CFG_STAT_TASK_EN == DEF_ENABLED)
 931:..\..\..\..\..\..\Software\uCOS-III\Source/os_core.c ****         OSStatTaskCtr++;
 1075              		.loc 1 931 0 discriminator 1
 1076 0022 074B     		ldr	r3, .L77+4
 1077 0024 1B68     		ldr	r3, [r3]
 1078 0026 5A1C     		adds	r2, r3, #1
 1079 0028 054B     		ldr	r3, .L77+4
 1080 002a 1A60     		str	r2, [r3]
 932:..\..\..\..\..\..\Software\uCOS-III\Source/os_core.c **** #endif
 933:..\..\..\..\..\..\Software\uCOS-III\Source/os_core.c ****         CPU_CRITICAL_EXIT();
 1081              		.loc 1 933 0 discriminator 1
 1082 002c FFF7FEFF 		bl	CPU_IntDisMeasStop
 1083 0030 FB68     		ldr	r3, [r7, #12]
 1084 0032 1800     		movs	r0, r3
 1085 0034 FFF7FEFF 		bl	CPU_SR_Restore
 934:..\..\..\..\..\..\Software\uCOS-III\Source/os_core.c **** #endif
 935:..\..\..\..\..\..\Software\uCOS-III\Source/os_core.c **** 
 936:..\..\..\..\..\..\Software\uCOS-III\Source/os_core.c **** #if (OS_CFG_APP_HOOKS_EN == DEF_ENABLED)
 937:..\..\..\..\..\..\Software\uCOS-III\Source/os_core.c ****         OSIdleTaskHook();                                       /* Call user definable HOOK        
 938:..\..\..\..\..\..\Software\uCOS-III\Source/os_core.c **** #endif
 939:..\..\..\..\..\..\Software\uCOS-III\Source/os_core.c ****     }
 1086              		.loc 1 939 0 discriminator 1
 1087 0038 E8E7     		b	.L76
 1088              	.L78:
 1089 003a C046     		.align	2
 1090              	.L77:
 1091 003c 00000000 		.word	OSIdleTaskCtr
 1092 0040 00000000 		.word	OSStatTaskCtr
 1093              		.cfi_endproc
 1094              	.LFE8:
 1095              		.size	OS_IdleTask, .-OS_IdleTask
 1096              		.section	.rodata
 1097              		.align	2
 1098              	.LC60:
 1099 0000 75432F4F 		.ascii	"uC/OS-III Idle Task\000"
 1099      532D4949 
ARM GAS  C:\Users\ADMINI~1\AppData\Local\Temp\cczjWrOu.s 			page 37


 1099      49204964 
 1099      6C652054 
 1099      61736B00 
 1100              		.section	.text.OS_IdleTaskInit,"ax",%progbits
 1101              		.align	2
 1102              		.global	OS_IdleTaskInit
 1103              		.code	16
 1104              		.thumb_func
 1105              		.type	OS_IdleTaskInit, %function
 1106              	OS_IdleTaskInit:
 1107              	.LFB9:
 940:..\..\..\..\..\..\Software\uCOS-III\Source/os_core.c **** }
 941:..\..\..\..\..\..\Software\uCOS-III\Source/os_core.c **** #endif
 942:..\..\..\..\..\..\Software\uCOS-III\Source/os_core.c **** 
 943:..\..\..\..\..\..\Software\uCOS-III\Source/os_core.c **** /*
 944:..\..\..\..\..\..\Software\uCOS-III\Source/os_core.c **** ***************************************************************************************************
 945:..\..\..\..\..\..\Software\uCOS-III\Source/os_core.c **** *                                               INITIALIZE THE IDLE TASK
 946:..\..\..\..\..\..\Software\uCOS-III\Source/os_core.c **** *
 947:..\..\..\..\..\..\Software\uCOS-III\Source/os_core.c **** * Description: This function initializes the idle task
 948:..\..\..\..\..\..\Software\uCOS-III\Source/os_core.c **** *
 949:..\..\..\..\..\..\Software\uCOS-III\Source/os_core.c **** * Arguments  : p_err    is a pointer to a variable that will contain an error code returned by this
 950:..\..\..\..\..\..\Software\uCOS-III\Source/os_core.c **** *
 951:..\..\..\..\..\..\Software\uCOS-III\Source/os_core.c **** * Returns    : none
 952:..\..\..\..\..\..\Software\uCOS-III\Source/os_core.c **** *
 953:..\..\..\..\..\..\Software\uCOS-III\Source/os_core.c **** * Note(s)    : 1) This function is INTERNAL to uC/OS-III and your application MUST NOT call it.
 954:..\..\..\..\..\..\Software\uCOS-III\Source/os_core.c **** ***************************************************************************************************
 955:..\..\..\..\..\..\Software\uCOS-III\Source/os_core.c **** */
 956:..\..\..\..\..\..\Software\uCOS-III\Source/os_core.c **** #if (OS_CFG_TASK_IDLE_EN == DEF_ENABLED)
 957:..\..\..\..\..\..\Software\uCOS-III\Source/os_core.c **** void  OS_IdleTaskInit (OS_ERR  *p_err)
 958:..\..\..\..\..\..\Software\uCOS-III\Source/os_core.c **** {
 1108              		.loc 1 958 0
 1109              		.cfi_startproc
 1110              		@ args = 0, pretend = 0, frame = 8
 1111              		@ frame_needed = 1, uses_anonymous_args = 0
 1112 0000 F0B5     		push	{r4, r5, r6, r7, lr}
 1113              		.cfi_def_cfa_offset 20
 1114              		.cfi_offset 4, -20
 1115              		.cfi_offset 5, -16
 1116              		.cfi_offset 6, -12
 1117              		.cfi_offset 7, -8
 1118              		.cfi_offset 14, -4
 1119 0002 8DB0     		sub	sp, sp, #52
 1120              		.cfi_def_cfa_offset 72
 1121 0004 0AAF     		add	r7, sp, #40
 1122              		.cfi_def_cfa 7, 32
 1123 0006 7860     		str	r0, [r7, #4]
 959:..\..\..\..\..\..\Software\uCOS-III\Source/os_core.c **** #if (OS_CFG_DBG_EN == DEF_ENABLED)
 960:..\..\..\..\..\..\Software\uCOS-III\Source/os_core.c ****     OSIdleTaskCtr = 0u;
 1124              		.loc 1 960 0
 1125 0008 124B     		ldr	r3, .L80
 1126 000a 0022     		movs	r2, #0
 1127 000c 1A60     		str	r2, [r3]
 961:..\..\..\..\..\..\Software\uCOS-III\Source/os_core.c **** #endif
 962:..\..\..\..\..\..\Software\uCOS-III\Source/os_core.c ****                                                                 /* --------------- CREATE THE IDLE 
 963:..\..\..\..\..\..\Software\uCOS-III\Source/os_core.c ****     OSTaskCreate(&OSIdleTaskTCB,
 1128              		.loc 1 963 0
 1129 000e 124B     		ldr	r3, .L80+4
ARM GAS  C:\Users\ADMINI~1\AppData\Local\Temp\cczjWrOu.s 			page 38


 1130 0010 1A68     		ldr	r2, [r3]
 1131 0012 124B     		ldr	r3, .L80+8
 1132 0014 1968     		ldr	r1, [r3]
 1133 0016 124B     		ldr	r3, .L80+12
 1134 0018 1B68     		ldr	r3, [r3]
 1135 001a 124E     		ldr	r6, .L80+16
 1136 001c 124D     		ldr	r5, .L80+20
 1137 001e 134C     		ldr	r4, .L80+24
 1138 0020 7868     		ldr	r0, [r7, #4]
 1139 0022 0890     		str	r0, [sp, #32]
 1140 0024 0B20     		movs	r0, #11
 1141 0026 0790     		str	r0, [sp, #28]
 1142 0028 0020     		movs	r0, #0
 1143 002a 0690     		str	r0, [sp, #24]
 1144 002c 0020     		movs	r0, #0
 1145 002e 0590     		str	r0, [sp, #20]
 1146 0030 0020     		movs	r0, #0
 1147 0032 0490     		str	r0, [sp, #16]
 1148 0034 0393     		str	r3, [sp, #12]
 1149 0036 0291     		str	r1, [sp, #8]
 1150 0038 0192     		str	r2, [sp, #4]
 1151 003a 1F23     		movs	r3, #31
 1152 003c 0093     		str	r3, [sp]
 1153 003e 0023     		movs	r3, #0
 1154 0040 3200     		movs	r2, r6
 1155 0042 2900     		movs	r1, r5
 1156 0044 2000     		movs	r0, r4
 1157 0046 FFF7FEFF 		bl	OSTaskCreate
 964:..\..\..\..\..\..\Software\uCOS-III\Source/os_core.c ****                  (CPU_CHAR   *)((void *)"uC/OS-III Idle Task"),
 965:..\..\..\..\..\..\Software\uCOS-III\Source/os_core.c ****                   OS_IdleTask,
 966:..\..\..\..\..\..\Software\uCOS-III\Source/os_core.c ****                   DEF_NULL,
 967:..\..\..\..\..\..\Software\uCOS-III\Source/os_core.c ****                  (OS_CFG_PRIO_MAX - 1u),
 968:..\..\..\..\..\..\Software\uCOS-III\Source/os_core.c ****                   OSCfg_IdleTaskStkBasePtr,
 969:..\..\..\..\..\..\Software\uCOS-III\Source/os_core.c ****                   OSCfg_IdleTaskStkLimit,
 970:..\..\..\..\..\..\Software\uCOS-III\Source/os_core.c ****                   OSCfg_IdleTaskStkSize,
 971:..\..\..\..\..\..\Software\uCOS-III\Source/os_core.c ****                   0u,
 972:..\..\..\..\..\..\Software\uCOS-III\Source/os_core.c ****                   0u,
 973:..\..\..\..\..\..\Software\uCOS-III\Source/os_core.c ****                   DEF_NULL,
 974:..\..\..\..\..\..\Software\uCOS-III\Source/os_core.c ****                  (OS_OPT_TASK_STK_CHK | OS_OPT_TASK_STK_CLR | OS_OPT_TASK_NO_TLS),
 975:..\..\..\..\..\..\Software\uCOS-III\Source/os_core.c ****                   p_err);
 976:..\..\..\..\..\..\Software\uCOS-III\Source/os_core.c **** }
 1158              		.loc 1 976 0
 1159 004a C046     		nop
 1160 004c BD46     		mov	sp, r7
 1161 004e 03B0     		add	sp, sp, #12
 1162              		@ sp needed
 1163 0050 F0BD     		pop	{r4, r5, r6, r7, pc}
 1164              	.L81:
 1165 0052 C046     		.align	2
 1166              	.L80:
 1167 0054 00000000 		.word	OSIdleTaskCtr
 1168 0058 00000000 		.word	OSCfg_IdleTaskStkBasePtr
 1169 005c 00000000 		.word	OSCfg_IdleTaskStkLimit
 1170 0060 00000000 		.word	OSCfg_IdleTaskStkSize
 1171 0064 00000000 		.word	OS_IdleTask
 1172 0068 00000000 		.word	.LC60
 1173 006c 00000000 		.word	OSIdleTaskTCB
ARM GAS  C:\Users\ADMINI~1\AppData\Local\Temp\cczjWrOu.s 			page 39


 1174              		.cfi_endproc
 1175              	.LFE9:
 1176              		.size	OS_IdleTaskInit, .-OS_IdleTaskInit
 1177              		.section	.text.OS_Pend,"ax",%progbits
 1178              		.align	2
 1179              		.global	OS_Pend
 1180              		.code	16
 1181              		.thumb_func
 1182              		.type	OS_Pend, %function
 1183              	OS_Pend:
 1184              	.LFB10:
 977:..\..\..\..\..\..\Software\uCOS-III\Source/os_core.c **** #endif
 978:..\..\..\..\..\..\Software\uCOS-III\Source/os_core.c **** 
 979:..\..\..\..\..\..\Software\uCOS-III\Source/os_core.c **** /*
 980:..\..\..\..\..\..\Software\uCOS-III\Source/os_core.c **** ***************************************************************************************************
 981:..\..\..\..\..\..\Software\uCOS-III\Source/os_core.c **** *                                             BLOCK A TASK PENDING ON EVENT
 982:..\..\..\..\..\..\Software\uCOS-III\Source/os_core.c **** *
 983:..\..\..\..\..\..\Software\uCOS-III\Source/os_core.c **** * Description: This function is called to place a task in the blocked state waiting for an event to
 984:..\..\..\..\..\..\Software\uCOS-III\Source/os_core.c **** *              exist because it is common to a number of OSxxxPend() services.
 985:..\..\..\..\..\..\Software\uCOS-III\Source/os_core.c **** *
 986:..\..\..\..\..\..\Software\uCOS-III\Source/os_core.c **** * Arguments  : p_pend_data    is a pointer to an object used to link the task being blocked to the 
 987:..\..\..\..\..\..\Software\uCOS-III\Source/os_core.c **** *              -----------    pending on the desired object.
 988:..\..\..\..\..\..\Software\uCOS-III\Source/os_core.c **** 
 989:..\..\..\..\..\..\Software\uCOS-III\Source/os_core.c **** *              p_obj          is a pointer to the object to pend on.  If there are no object used t
 990:..\..\..\..\..\..\Software\uCOS-III\Source/os_core.c **** *              -----          the caller must pass a NULL pointer.
 991:..\..\..\..\..\..\Software\uCOS-III\Source/os_core.c **** *
 992:..\..\..\..\..\..\Software\uCOS-III\Source/os_core.c **** *              pending_on     Specifies what the task will be pending on:
 993:..\..\..\..\..\..\Software\uCOS-III\Source/os_core.c **** *
 994:..\..\..\..\..\..\Software\uCOS-III\Source/os_core.c **** *                                 OS_TASK_PEND_ON_FLAG
 995:..\..\..\..\..\..\Software\uCOS-III\Source/os_core.c **** *                                 OS_TASK_PEND_ON_TASK_Q     <- No object (pending for a message se
 996:..\..\..\..\..\..\Software\uCOS-III\Source/os_core.c **** *                                 OS_TASK_PEND_ON_MUTEX
 997:..\..\..\..\..\..\Software\uCOS-III\Source/os_core.c **** *                                 OS_TASK_PEND_ON_Q
 998:..\..\..\..\..\..\Software\uCOS-III\Source/os_core.c **** *                                 OS_TASK_PEND_ON_SEM
 999:..\..\..\..\..\..\Software\uCOS-III\Source/os_core.c **** *                                 OS_TASK_PEND_ON_TASK_SEM   <- No object (pending on a signal sent
1000:..\..\..\..\..\..\Software\uCOS-III\Source/os_core.c **** *
1001:..\..\..\..\..\..\Software\uCOS-III\Source/os_core.c **** *              timeout        Is the amount of time the task will wait for the event to occur.
1002:..\..\..\..\..\..\Software\uCOS-III\Source/os_core.c **** *
1003:..\..\..\..\..\..\Software\uCOS-III\Source/os_core.c **** * Returns    : none
1004:..\..\..\..\..\..\Software\uCOS-III\Source/os_core.c **** *
1005:..\..\..\..\..\..\Software\uCOS-III\Source/os_core.c **** * Note(s)    : 1) This function is INTERNAL to uC/OS-III and your application MUST NOT call it.
1006:..\..\..\..\..\..\Software\uCOS-III\Source/os_core.c **** ***************************************************************************************************
1007:..\..\..\..\..\..\Software\uCOS-III\Source/os_core.c **** */
1008:..\..\..\..\..\..\Software\uCOS-III\Source/os_core.c **** 
1009:..\..\..\..\..\..\Software\uCOS-III\Source/os_core.c **** void  OS_Pend (OS_PEND_DATA  *p_pend_data,
1010:..\..\..\..\..\..\Software\uCOS-III\Source/os_core.c ****                OS_PEND_OBJ   *p_obj,
1011:..\..\..\..\..\..\Software\uCOS-III\Source/os_core.c ****                OS_STATE       pending_on,
1012:..\..\..\..\..\..\Software\uCOS-III\Source/os_core.c ****                OS_TICK        timeout)
1013:..\..\..\..\..\..\Software\uCOS-III\Source/os_core.c **** {
 1185              		.loc 1 1013 0
 1186              		.cfi_startproc
 1187              		@ args = 0, pretend = 0, frame = 24
 1188              		@ frame_needed = 1, uses_anonymous_args = 0
 1189 0000 80B5     		push	{r7, lr}
 1190              		.cfi_def_cfa_offset 8
 1191              		.cfi_offset 7, -8
 1192              		.cfi_offset 14, -4
 1193 0002 86B0     		sub	sp, sp, #24
ARM GAS  C:\Users\ADMINI~1\AppData\Local\Temp\cczjWrOu.s 			page 40


 1194              		.cfi_def_cfa_offset 32
 1195 0004 00AF     		add	r7, sp, #0
 1196              		.cfi_def_cfa_register 7
 1197 0006 F860     		str	r0, [r7, #12]
 1198 0008 B960     		str	r1, [r7, #8]
 1199 000a 3B60     		str	r3, [r7]
 1200 000c FB1D     		adds	r3, r7, #7
 1201 000e 1A70     		strb	r2, [r3]
1014:..\..\..\..\..\..\Software\uCOS-III\Source/os_core.c ****     OS_PEND_LIST  *p_pend_list;
1015:..\..\..\..\..\..\Software\uCOS-III\Source/os_core.c **** 
1016:..\..\..\..\..\..\Software\uCOS-III\Source/os_core.c **** 
1017:..\..\..\..\..\..\Software\uCOS-III\Source/os_core.c **** 
1018:..\..\..\..\..\..\Software\uCOS-III\Source/os_core.c ****     OSTCBCurPtr->PendOn     = pending_on;                       /* Resource not available, wait unt
 1202              		.loc 1 1018 0
 1203 0010 1B4B     		ldr	r3, .L85
 1204 0012 1B68     		ldr	r3, [r3]
 1205 0014 FA1D     		adds	r2, r7, #7
 1206 0016 3421     		movs	r1, #52
 1207 0018 1278     		ldrb	r2, [r2]
 1208 001a 5A54     		strb	r2, [r3, r1]
1019:..\..\..\..\..\..\Software\uCOS-III\Source/os_core.c ****     OSTCBCurPtr->PendStatus = OS_STATUS_PEND_OK;
 1209              		.loc 1 1019 0
 1210 001c 184B     		ldr	r3, .L85
 1211 001e 1B68     		ldr	r3, [r3]
 1212 0020 3522     		movs	r2, #53
 1213 0022 0021     		movs	r1, #0
 1214 0024 9954     		strb	r1, [r3, r2]
1020:..\..\..\..\..\..\Software\uCOS-III\Source/os_core.c **** 
1021:..\..\..\..\..\..\Software\uCOS-III\Source/os_core.c ****     OS_TaskBlock(OSTCBCurPtr,                                   /* Block the task and add it to the
 1215              		.loc 1 1021 0
 1216 0026 164B     		ldr	r3, .L85
 1217 0028 1B68     		ldr	r3, [r3]
 1218 002a 3A68     		ldr	r2, [r7]
 1219 002c 1100     		movs	r1, r2
 1220 002e 1800     		movs	r0, r3
 1221 0030 FFF7FEFF 		bl	OS_TaskBlock
1022:..\..\..\..\..\..\Software\uCOS-III\Source/os_core.c ****                  timeout);
1023:..\..\..\..\..\..\Software\uCOS-III\Source/os_core.c **** 
1024:..\..\..\..\..\..\Software\uCOS-III\Source/os_core.c ****     if (p_obj != DEF_NULL) {                                    /* Add the current task to the pend
 1222              		.loc 1 1024 0
 1223 0034 BB68     		ldr	r3, [r7, #8]
 1224 0036 002B     		cmp	r3, #0
 1225 0038 13D0     		beq	.L83
1025:..\..\..\..\..\..\Software\uCOS-III\Source/os_core.c ****         p_pend_list             = &p_obj->PendList;             /* ... if there is an object to pen
 1226              		.loc 1 1025 0
 1227 003a BB68     		ldr	r3, [r7, #8]
 1228 003c 0833     		adds	r3, r3, #8
 1229 003e 7B61     		str	r3, [r7, #20]
1026:..\..\..\..\..\..\Software\uCOS-III\Source/os_core.c ****         p_pend_data->PendObjPtr = p_obj;                        /* Save the pointer to the object p
 1230              		.loc 1 1026 0
 1231 0040 FB68     		ldr	r3, [r7, #12]
 1232 0042 BA68     		ldr	r2, [r7, #8]
 1233 0044 DA60     		str	r2, [r3, #12]
1027:..\..\..\..\..\..\Software\uCOS-III\Source/os_core.c ****         OS_PendDataInit(OSTCBCurPtr,                            /* Initialize the remaining field  
 1234              		.loc 1 1027 0
 1235 0046 0E4B     		ldr	r3, .L85
 1236 0048 1B68     		ldr	r3, [r3]
ARM GAS  C:\Users\ADMINI~1\AppData\Local\Temp\cczjWrOu.s 			page 41


 1237 004a F968     		ldr	r1, [r7, #12]
 1238 004c 0122     		movs	r2, #1
 1239 004e 1800     		movs	r0, r3
 1240 0050 FFF7FEFF 		bl	OS_PendDataInit
1028:..\..\..\..\..\..\Software\uCOS-III\Source/os_core.c ****                         p_pend_data,
1029:..\..\..\..\..\..\Software\uCOS-III\Source/os_core.c ****                         1u);
1030:..\..\..\..\..\..\Software\uCOS-III\Source/os_core.c ****         OS_PendListInsertPrio(p_pend_list,                      /* Insert in the pend list in prior
 1241              		.loc 1 1030 0
 1242 0054 FA68     		ldr	r2, [r7, #12]
 1243 0056 7B69     		ldr	r3, [r7, #20]
 1244 0058 1100     		movs	r1, r2
 1245 005a 1800     		movs	r0, r3
 1246 005c FFF7FEFF 		bl	OS_PendListInsertPrio
 1247 0060 03E0     		b	.L84
 1248              	.L83:
1031:..\..\..\..\..\..\Software\uCOS-III\Source/os_core.c ****                               p_pend_data);
1032:..\..\..\..\..\..\Software\uCOS-III\Source/os_core.c ****     } else {
1033:..\..\..\..\..\..\Software\uCOS-III\Source/os_core.c **** #if (OS_CFG_PEND_MULTI_EN == DEF_ENABLED)
1034:..\..\..\..\..\..\Software\uCOS-III\Source/os_core.c ****         OSTCBCurPtr->PendDataTblEntries = 0u;                   /* If no object being pended on the
1035:..\..\..\..\..\..\Software\uCOS-III\Source/os_core.c **** #endif
1036:..\..\..\..\..\..\Software\uCOS-III\Source/os_core.c ****         OSTCBCurPtr->PendDataTblPtr     = DEF_NULL;             /* ... in the TCB                  
 1249              		.loc 1 1036 0
 1250 0062 074B     		ldr	r3, .L85
 1251 0064 1B68     		ldr	r3, [r3]
 1252 0066 0022     		movs	r2, #0
 1253 0068 1A63     		str	r2, [r3, #48]
 1254              	.L84:
1037:..\..\..\..\..\..\Software\uCOS-III\Source/os_core.c ****     }
1038:..\..\..\..\..\..\Software\uCOS-III\Source/os_core.c **** #if (OS_CFG_DBG_EN == DEF_ENABLED)
1039:..\..\..\..\..\..\Software\uCOS-III\Source/os_core.c ****     OS_PendDbgNameAdd(p_obj,
 1255              		.loc 1 1039 0
 1256 006a 054B     		ldr	r3, .L85
 1257 006c 1A68     		ldr	r2, [r3]
 1258 006e BB68     		ldr	r3, [r7, #8]
 1259 0070 1100     		movs	r1, r2
 1260 0072 1800     		movs	r0, r3
 1261 0074 FFF7FEFF 		bl	OS_PendDbgNameAdd
1040:..\..\..\..\..\..\Software\uCOS-III\Source/os_core.c ****                       OSTCBCurPtr);
1041:..\..\..\..\..\..\Software\uCOS-III\Source/os_core.c **** #endif
1042:..\..\..\..\..\..\Software\uCOS-III\Source/os_core.c **** }
 1262              		.loc 1 1042 0
 1263 0078 C046     		nop
 1264 007a BD46     		mov	sp, r7
 1265 007c 06B0     		add	sp, sp, #24
 1266              		@ sp needed
 1267 007e 80BD     		pop	{r7, pc}
 1268              	.L86:
 1269              		.align	2
 1270              	.L85:
 1271 0080 00000000 		.word	OSTCBCurPtr
 1272              		.cfi_endproc
 1273              	.LFE10:
 1274              		.size	OS_Pend, .-OS_Pend
 1275              		.section	.text.OS_PendAbort,"ax",%progbits
 1276              		.align	2
 1277              		.global	OS_PendAbort
 1278              		.code	16
ARM GAS  C:\Users\ADMINI~1\AppData\Local\Temp\cczjWrOu.s 			page 42


 1279              		.thumb_func
 1280              		.type	OS_PendAbort, %function
 1281              	OS_PendAbort:
 1282              	.LFB11:
1043:..\..\..\..\..\..\Software\uCOS-III\Source/os_core.c **** 
1044:..\..\..\..\..\..\Software\uCOS-III\Source/os_core.c **** 
1045:..\..\..\..\..\..\Software\uCOS-III\Source/os_core.c **** /*
1046:..\..\..\..\..\..\Software\uCOS-III\Source/os_core.c **** ***************************************************************************************************
1047:..\..\..\..\..\..\Software\uCOS-III\Source/os_core.c **** *                                                     ABORT PENDING
1048:..\..\..\..\..\..\Software\uCOS-III\Source/os_core.c **** *
1049:..\..\..\..\..\..\Software\uCOS-III\Source/os_core.c **** * Description: This function is called by OSxxxPendAbort() functions to abort pending on an event.
1050:..\..\..\..\..\..\Software\uCOS-III\Source/os_core.c **** *
1051:..\..\..\..\..\..\Software\uCOS-III\Source/os_core.c **** * Arguments  : p_obj          Is a pointer to the object to pend abort.
1052:..\..\..\..\..\..\Software\uCOS-III\Source/os_core.c **** *              -----
1053:..\..\..\..\..\..\Software\uCOS-III\Source/os_core.c **** *
1054:..\..\..\..\..\..\Software\uCOS-III\Source/os_core.c **** *              p_tcb          Is a pointer to the OS_TCB of the task that we'll abort the pend for
1055:..\..\..\..\..\..\Software\uCOS-III\Source/os_core.c **** *              -----
1056:..\..\..\..\..\..\Software\uCOS-III\Source/os_core.c **** *
1057:..\..\..\..\..\..\Software\uCOS-III\Source/os_core.c **** *              ts             The is a timestamp as to when the pend abort occurred
1058:..\..\..\..\..\..\Software\uCOS-III\Source/os_core.c **** *
1059:..\..\..\..\..\..\Software\uCOS-III\Source/os_core.c **** * Returns    : none
1060:..\..\..\..\..\..\Software\uCOS-III\Source/os_core.c **** *
1061:..\..\..\..\..\..\Software\uCOS-III\Source/os_core.c **** * Note(s)    : 1) This function is INTERNAL to uC/OS-III and your application MUST NOT call it.
1062:..\..\..\..\..\..\Software\uCOS-III\Source/os_core.c **** ***************************************************************************************************
1063:..\..\..\..\..\..\Software\uCOS-III\Source/os_core.c **** */
1064:..\..\..\..\..\..\Software\uCOS-III\Source/os_core.c **** 
1065:..\..\..\..\..\..\Software\uCOS-III\Source/os_core.c **** void  OS_PendAbort (OS_PEND_OBJ  *p_obj,
1066:..\..\..\..\..\..\Software\uCOS-III\Source/os_core.c ****                     OS_TCB       *p_tcb,
1067:..\..\..\..\..\..\Software\uCOS-III\Source/os_core.c ****                     CPU_TS        ts)
1068:..\..\..\..\..\..\Software\uCOS-III\Source/os_core.c **** {
 1283              		.loc 1 1068 0
 1284              		.cfi_startproc
 1285              		@ args = 0, pretend = 0, frame = 16
 1286              		@ frame_needed = 1, uses_anonymous_args = 0
 1287 0000 80B5     		push	{r7, lr}
 1288              		.cfi_def_cfa_offset 8
 1289              		.cfi_offset 7, -8
 1290              		.cfi_offset 14, -4
 1291 0002 84B0     		sub	sp, sp, #16
 1292              		.cfi_def_cfa_offset 24
 1293 0004 00AF     		add	r7, sp, #0
 1294              		.cfi_def_cfa_register 7
 1295 0006 F860     		str	r0, [r7, #12]
 1296 0008 B960     		str	r1, [r7, #8]
 1297 000a 7A60     		str	r2, [r7, #4]
1069:..\..\..\..\..\..\Software\uCOS-III\Source/os_core.c **** #if (OS_CFG_TS_EN == DEF_DISABLED)
1070:..\..\..\..\..\..\Software\uCOS-III\Source/os_core.c ****     (void)ts;                                                   /* Prevent compiler warning for not
1071:..\..\..\..\..\..\Software\uCOS-III\Source/os_core.c **** #endif
1072:..\..\..\..\..\..\Software\uCOS-III\Source/os_core.c **** 
1073:..\..\..\..\..\..\Software\uCOS-III\Source/os_core.c ****     switch (p_tcb->TaskState) {
 1298              		.loc 1 1073 0
 1299 000c BB68     		ldr	r3, [r7, #8]
 1300 000e 3622     		movs	r2, #54
 1301 0010 9B5C     		ldrb	r3, [r3, r2]
 1302 0012 022B     		cmp	r3, #2
 1303 0014 57DB     		blt	.L97
 1304 0016 032B     		cmp	r3, #3
ARM GAS  C:\Users\ADMINI~1\AppData\Local\Temp\cczjWrOu.s 			page 43


 1305 0018 03DD     		ble	.L89
 1306 001a 063B     		subs	r3, r3, #6
 1307 001c 012B     		cmp	r3, #1
 1308 001e 52D8     		bhi	.L97
 1309 0020 2AE0     		b	.L96
 1310              	.L89:
1074:..\..\..\..\..\..\Software\uCOS-III\Source/os_core.c ****         case OS_TASK_STATE_PEND:
1075:..\..\..\..\..\..\Software\uCOS-III\Source/os_core.c ****         case OS_TASK_STATE_PEND_TIMEOUT:
1076:..\..\..\..\..\..\Software\uCOS-III\Source/os_core.c **** #if (OS_CFG_PEND_MULTI_EN == DEF_ENABLED)
1077:..\..\..\..\..\..\Software\uCOS-III\Source/os_core.c ****              if (p_tcb->PendOn == OS_TASK_PEND_ON_MULTI) {
1078:..\..\..\..\..\..\Software\uCOS-III\Source/os_core.c ****                  OS_PendAbort1(p_obj,                           /* Indicate which object was pend a
1079:..\..\..\..\..\..\Software\uCOS-III\Source/os_core.c ****                                p_tcb,
1080:..\..\..\..\..\..\Software\uCOS-III\Source/os_core.c ****                                ts);
1081:..\..\..\..\..\..\Software\uCOS-III\Source/os_core.c ****              }
1082:..\..\..\..\..\..\Software\uCOS-III\Source/os_core.c **** #endif
1083:..\..\..\..\..\..\Software\uCOS-III\Source/os_core.c **** #if (OS_MSG_EN == DEF_ENABLED)
1084:..\..\..\..\..\..\Software\uCOS-III\Source/os_core.c ****              p_tcb->MsgPtr     = DEF_NULL;
 1311              		.loc 1 1084 0
 1312 0022 BB68     		ldr	r3, [r7, #8]
 1313 0024 0022     		movs	r2, #0
 1314 0026 9A65     		str	r2, [r3, #88]
1085:..\..\..\..\..\..\Software\uCOS-III\Source/os_core.c ****              p_tcb->MsgSize    = 0u;
 1315              		.loc 1 1085 0
 1316 0028 BB68     		ldr	r3, [r7, #8]
 1317 002a 5C22     		movs	r2, #92
 1318 002c 0021     		movs	r1, #0
 1319 002e 9952     		strh	r1, [r3, r2]
1086:..\..\..\..\..\..\Software\uCOS-III\Source/os_core.c **** #endif
1087:..\..\..\..\..\..\Software\uCOS-III\Source/os_core.c **** #if (OS_CFG_TS_EN == DEF_ENABLED)
1088:..\..\..\..\..\..\Software\uCOS-III\Source/os_core.c ****              p_tcb->TS         = ts;
 1320              		.loc 1 1088 0
 1321 0030 BB68     		ldr	r3, [r7, #8]
 1322 0032 7A68     		ldr	r2, [r7, #4]
 1323 0034 9A64     		str	r2, [r3, #72]
1089:..\..\..\..\..\..\Software\uCOS-III\Source/os_core.c **** #endif
1090:..\..\..\..\..\..\Software\uCOS-III\Source/os_core.c ****              if (p_obj != DEF_NULL) {
 1324              		.loc 1 1090 0
 1325 0036 FB68     		ldr	r3, [r7, #12]
 1326 0038 002B     		cmp	r3, #0
 1327 003a 03D0     		beq	.L91
1091:..\..\..\..\..\..\Software\uCOS-III\Source/os_core.c ****                  OS_PendListRemove(p_tcb);                      /* Remove task from all pend lists 
 1328              		.loc 1 1091 0
 1329 003c BB68     		ldr	r3, [r7, #8]
 1330 003e 1800     		movs	r0, r3
 1331 0040 FFF7FEFF 		bl	OS_PendListRemove
 1332              	.L91:
1092:..\..\..\..\..\..\Software\uCOS-III\Source/os_core.c ****              }
1093:..\..\..\..\..\..\Software\uCOS-III\Source/os_core.c **** #if (OS_CFG_TASK_TICK_EN == DEF_ENABLED)
1094:..\..\..\..\..\..\Software\uCOS-III\Source/os_core.c ****              if (p_tcb->TaskState == OS_TASK_STATE_PEND_TIMEOUT) {
 1333              		.loc 1 1094 0
 1334 0044 BB68     		ldr	r3, [r7, #8]
 1335 0046 3622     		movs	r2, #54
 1336 0048 9B5C     		ldrb	r3, [r3, r2]
 1337 004a 032B     		cmp	r3, #3
 1338 004c 03D1     		bne	.L92
1095:..\..\..\..\..\..\Software\uCOS-III\Source/os_core.c ****                  OS_TickListRemove(p_tcb);                      /* Remove from tick list           
 1339              		.loc 1 1095 0
ARM GAS  C:\Users\ADMINI~1\AppData\Local\Temp\cczjWrOu.s 			page 44


 1340 004e BB68     		ldr	r3, [r7, #8]
 1341 0050 1800     		movs	r0, r3
 1342 0052 FFF7FEFF 		bl	OS_TickListRemove
 1343              	.L92:
1096:..\..\..\..\..\..\Software\uCOS-III\Source/os_core.c ****              }
1097:..\..\..\..\..\..\Software\uCOS-III\Source/os_core.c **** #endif
1098:..\..\..\..\..\..\Software\uCOS-III\Source/os_core.c ****              OS_RdyListInsert(p_tcb);                           /* Insert the task in the ready lis
 1344              		.loc 1 1098 0
 1345 0056 BB68     		ldr	r3, [r7, #8]
 1346 0058 1800     		movs	r0, r3
 1347 005a FFF7FEFF 		bl	OS_RdyListInsert
1099:..\..\..\..\..\..\Software\uCOS-III\Source/os_core.c ****              p_tcb->TaskState  = OS_TASK_STATE_RDY;             /* Task will be ready              
 1348              		.loc 1 1099 0
 1349 005e BB68     		ldr	r3, [r7, #8]
 1350 0060 3622     		movs	r2, #54
 1351 0062 0021     		movs	r1, #0
 1352 0064 9954     		strb	r1, [r3, r2]
1100:..\..\..\..\..\..\Software\uCOS-III\Source/os_core.c ****              p_tcb->PendStatus = OS_STATUS_PEND_ABORT;          /* Indicate pend was aborted       
 1353              		.loc 1 1100 0
 1354 0066 BB68     		ldr	r3, [r7, #8]
 1355 0068 3522     		movs	r2, #53
 1356 006a 0121     		movs	r1, #1
 1357 006c 9954     		strb	r1, [r3, r2]
1101:..\..\..\..\..\..\Software\uCOS-III\Source/os_core.c ****              p_tcb->PendOn     = OS_TASK_PEND_ON_NOTHING;       /* Indicate no longer pending      
 1358              		.loc 1 1101 0
 1359 006e BB68     		ldr	r3, [r7, #8]
 1360 0070 3422     		movs	r2, #52
 1361 0072 0021     		movs	r1, #0
 1362 0074 9954     		strb	r1, [r3, r2]
1102:..\..\..\..\..\..\Software\uCOS-III\Source/os_core.c ****              break;
 1363              		.loc 1 1102 0
 1364 0076 27E0     		b	.L93
 1365              	.L96:
1103:..\..\..\..\..\..\Software\uCOS-III\Source/os_core.c **** 
1104:..\..\..\..\..\..\Software\uCOS-III\Source/os_core.c ****         case OS_TASK_STATE_PEND_SUSPENDED:
1105:..\..\..\..\..\..\Software\uCOS-III\Source/os_core.c ****         case OS_TASK_STATE_PEND_TIMEOUT_SUSPENDED:
1106:..\..\..\..\..\..\Software\uCOS-III\Source/os_core.c **** #if (OS_CFG_PEND_MULTI_EN == DEF_ENABLED)
1107:..\..\..\..\..\..\Software\uCOS-III\Source/os_core.c ****              if (p_tcb->PendOn == OS_TASK_PEND_ON_MULTI) {
1108:..\..\..\..\..\..\Software\uCOS-III\Source/os_core.c ****                  OS_PendAbort1(p_obj,                           /* Indicate which object was pend a
1109:..\..\..\..\..\..\Software\uCOS-III\Source/os_core.c ****                                p_tcb,
1110:..\..\..\..\..\..\Software\uCOS-III\Source/os_core.c ****                                ts);
1111:..\..\..\..\..\..\Software\uCOS-III\Source/os_core.c ****              }
1112:..\..\..\..\..\..\Software\uCOS-III\Source/os_core.c **** #endif
1113:..\..\..\..\..\..\Software\uCOS-III\Source/os_core.c **** #if (OS_MSG_EN == DEF_ENABLED)
1114:..\..\..\..\..\..\Software\uCOS-III\Source/os_core.c ****              p_tcb->MsgPtr     = DEF_NULL;
 1366              		.loc 1 1114 0
 1367 0078 BB68     		ldr	r3, [r7, #8]
 1368 007a 0022     		movs	r2, #0
 1369 007c 9A65     		str	r2, [r3, #88]
1115:..\..\..\..\..\..\Software\uCOS-III\Source/os_core.c ****              p_tcb->MsgSize    = 0u;
 1370              		.loc 1 1115 0
 1371 007e BB68     		ldr	r3, [r7, #8]
 1372 0080 5C22     		movs	r2, #92
 1373 0082 0021     		movs	r1, #0
 1374 0084 9952     		strh	r1, [r3, r2]
1116:..\..\..\..\..\..\Software\uCOS-III\Source/os_core.c **** #endif
1117:..\..\..\..\..\..\Software\uCOS-III\Source/os_core.c **** #if (OS_CFG_TS_EN == DEF_ENABLED)
ARM GAS  C:\Users\ADMINI~1\AppData\Local\Temp\cczjWrOu.s 			page 45


1118:..\..\..\..\..\..\Software\uCOS-III\Source/os_core.c ****              p_tcb->TS         = ts;
 1375              		.loc 1 1118 0
 1376 0086 BB68     		ldr	r3, [r7, #8]
 1377 0088 7A68     		ldr	r2, [r7, #4]
 1378 008a 9A64     		str	r2, [r3, #72]
1119:..\..\..\..\..\..\Software\uCOS-III\Source/os_core.c **** #endif
1120:..\..\..\..\..\..\Software\uCOS-III\Source/os_core.c ****              if (p_obj != DEF_NULL) {
 1379              		.loc 1 1120 0
 1380 008c FB68     		ldr	r3, [r7, #12]
 1381 008e 002B     		cmp	r3, #0
 1382 0090 03D0     		beq	.L94
1121:..\..\..\..\..\..\Software\uCOS-III\Source/os_core.c ****                  OS_PendListRemove(p_tcb);                      /* Remove task from all pend lists 
 1383              		.loc 1 1121 0
 1384 0092 BB68     		ldr	r3, [r7, #8]
 1385 0094 1800     		movs	r0, r3
 1386 0096 FFF7FEFF 		bl	OS_PendListRemove
 1387              	.L94:
1122:..\..\..\..\..\..\Software\uCOS-III\Source/os_core.c ****              }
1123:..\..\..\..\..\..\Software\uCOS-III\Source/os_core.c **** #if (OS_CFG_TASK_TICK_EN == DEF_ENABLED)
1124:..\..\..\..\..\..\Software\uCOS-III\Source/os_core.c ****              if (p_tcb->TaskState == OS_TASK_STATE_PEND_TIMEOUT_SUSPENDED) {
 1388              		.loc 1 1124 0
 1389 009a BB68     		ldr	r3, [r7, #8]
 1390 009c 3622     		movs	r2, #54
 1391 009e 9B5C     		ldrb	r3, [r3, r2]
 1392 00a0 072B     		cmp	r3, #7
 1393 00a2 03D1     		bne	.L95
1125:..\..\..\..\..\..\Software\uCOS-III\Source/os_core.c ****                  OS_TickListRemove(p_tcb);                      /* Cancel the timeout              
 1394              		.loc 1 1125 0
 1395 00a4 BB68     		ldr	r3, [r7, #8]
 1396 00a6 1800     		movs	r0, r3
 1397 00a8 FFF7FEFF 		bl	OS_TickListRemove
 1398              	.L95:
1126:..\..\..\..\..\..\Software\uCOS-III\Source/os_core.c ****              }
1127:..\..\..\..\..\..\Software\uCOS-III\Source/os_core.c **** #endif
1128:..\..\..\..\..\..\Software\uCOS-III\Source/os_core.c ****              p_tcb->TaskState  = OS_TASK_STATE_SUSPENDED;       /* Pend Aborted task is still suspe
 1399              		.loc 1 1128 0
 1400 00ac BB68     		ldr	r3, [r7, #8]
 1401 00ae 3622     		movs	r2, #54
 1402 00b0 0421     		movs	r1, #4
 1403 00b2 9954     		strb	r1, [r3, r2]
1129:..\..\..\..\..\..\Software\uCOS-III\Source/os_core.c ****              p_tcb->PendStatus = OS_STATUS_PEND_ABORT;          /* Indicate pend was aborted       
 1404              		.loc 1 1129 0
 1405 00b4 BB68     		ldr	r3, [r7, #8]
 1406 00b6 3522     		movs	r2, #53
 1407 00b8 0121     		movs	r1, #1
 1408 00ba 9954     		strb	r1, [r3, r2]
1130:..\..\..\..\..\..\Software\uCOS-III\Source/os_core.c ****              p_tcb->PendOn     = OS_TASK_PEND_ON_NOTHING;       /* Indicate no longer pending      
 1409              		.loc 1 1130 0
 1410 00bc BB68     		ldr	r3, [r7, #8]
 1411 00be 3422     		movs	r2, #52
 1412 00c0 0021     		movs	r1, #0
 1413 00c2 9954     		strb	r1, [r3, r2]
1131:..\..\..\..\..\..\Software\uCOS-III\Source/os_core.c ****              break;
 1414              		.loc 1 1131 0
 1415 00c4 00E0     		b	.L93
 1416              	.L97:
1132:..\..\..\..\..\..\Software\uCOS-III\Source/os_core.c **** 
ARM GAS  C:\Users\ADMINI~1\AppData\Local\Temp\cczjWrOu.s 			page 46


1133:..\..\..\..\..\..\Software\uCOS-III\Source/os_core.c ****         case OS_TASK_STATE_RDY:                                 /* Cannot Pend Abort a task that is
1134:..\..\..\..\..\..\Software\uCOS-III\Source/os_core.c ****         case OS_TASK_STATE_DLY:                                 /* Cannot Pend Abort a task that is
1135:..\..\..\..\..\..\Software\uCOS-III\Source/os_core.c ****         case OS_TASK_STATE_SUSPENDED:                           /* Cannot Pend Abort a suspended ta
1136:..\..\..\..\..\..\Software\uCOS-III\Source/os_core.c ****         case OS_TASK_STATE_DLY_SUSPENDED:                       /* Cannot Pend Abort a suspended ta
1137:..\..\..\..\..\..\Software\uCOS-III\Source/os_core.c ****         default:
1138:..\..\..\..\..\..\Software\uCOS-III\Source/os_core.c ****              break;
 1417              		.loc 1 1138 0
 1418 00c6 C046     		nop
 1419              	.L93:
1139:..\..\..\..\..\..\Software\uCOS-III\Source/os_core.c ****     }
1140:..\..\..\..\..\..\Software\uCOS-III\Source/os_core.c **** }
 1420              		.loc 1 1140 0
 1421 00c8 C046     		nop
 1422 00ca BD46     		mov	sp, r7
 1423 00cc 04B0     		add	sp, sp, #16
 1424              		@ sp needed
 1425 00ce 80BD     		pop	{r7, pc}
 1426              		.cfi_endproc
 1427              	.LFE11:
 1428              		.size	OS_PendAbort, .-OS_PendAbort
 1429              		.section	.text.OS_PendDataInit,"ax",%progbits
 1430              		.align	2
 1431              		.global	OS_PendDataInit
 1432              		.code	16
 1433              		.thumb_func
 1434              		.type	OS_PendDataInit, %function
 1435              	OS_PendDataInit:
 1436              	.LFB12:
1141:..\..\..\..\..\..\Software\uCOS-III\Source/os_core.c **** 
1142:..\..\..\..\..\..\Software\uCOS-III\Source/os_core.c **** 
1143:..\..\..\..\..\..\Software\uCOS-III\Source/os_core.c **** /*
1144:..\..\..\..\..\..\Software\uCOS-III\Source/os_core.c **** ***************************************************************************************************
1145:..\..\..\..\..\..\Software\uCOS-III\Source/os_core.c **** *                                           PEND ABORT A TASK PENDING ON MULTIPLE OBJECTS
1146:..\..\..\..\..\..\Software\uCOS-III\Source/os_core.c **** *
1147:..\..\..\..\..\..\Software\uCOS-III\Source/os_core.c **** * Description: This function is called when a task is pending on multiple objects and one of the ob
1148:..\..\..\..\..\..\Software\uCOS-III\Source/os_core.c **** *              aborted.  This function needs to indicate to the caller which object was pend aborte
1149:..\..\..\..\..\..\Software\uCOS-III\Source/os_core.c **** *              address of the object in the OS_PEND_DATA table corresponding to the pend aborted ob
1150:..\..\..\..\..\..\Software\uCOS-III\Source/os_core.c **** *
1151:..\..\..\..\..\..\Software\uCOS-III\Source/os_core.c **** *              For example, if the task pends on six (6) objects, the address of those 6 objects ar
1152:..\..\..\..\..\..\Software\uCOS-III\Source/os_core.c **** *              .PendObjPtr field of the OS_PEND_DATA table as shown below.  Note that the .PendData
1153:..\..\..\..\..\..\Software\uCOS-III\Source/os_core.c **** *              OS_TCB would be set to six (6) in this case.  As shown, when the pend call returns b
1154:..\..\..\..\..\..\Software\uCOS-III\Source/os_core.c **** *              aborted 'Obj C' then, only the one entry contains the .RdyObjPtr filled in data and 
1155:..\..\..\..\..\..\Software\uCOS-III\Source/os_core.c **** *              contains NULL pointers and zero data.
1156:..\..\..\..\..\..\Software\uCOS-III\Source/os_core.c **** *
1157:..\..\..\..\..\..\Software\uCOS-III\Source/os_core.c **** *              You should note that the NULL pointers are zero data values are actually filled in b
1158:..\..\..\..\..\..\Software\uCOS-III\Source/os_core.c **** *
1159:..\..\..\..\..\..\Software\uCOS-III\Source/os_core.c **** *
1160:..\..\..\..\..\..\Software\uCOS-III\Source/os_core.c **** *                                           .PendObjPtr    .RdyObjPtr     .RdyMsgPtr     .RdyMsgSiz
1161:..\..\..\..\..\..\Software\uCOS-III\Source/os_core.c **** *                                         +--------------+--------------+--------------+-----------
1162:..\..\..\..\..\..\Software\uCOS-III\Source/os_core.c **** *              p_tcb->PendDataTblPtr  ->  |  Obj A       |  0           | 0            | 0         
1163:..\..\..\..\..\..\Software\uCOS-III\Source/os_core.c **** *                                         +--------------+--------------+--------------+-----------
1164:..\..\..\..\..\..\Software\uCOS-III\Source/os_core.c **** *                                         |  Obj B       |  0           | 0            | 0         
1165:..\..\..\..\..\..\Software\uCOS-III\Source/os_core.c **** *                                         +--------------+--------------+--------------+-----------
1166:..\..\..\..\..\..\Software\uCOS-III\Source/os_core.c **** *                                         |  Obj C       |  Obj C       | 0            | 0         
1167:..\..\..\..\..\..\Software\uCOS-III\Source/os_core.c **** *                                         +--------------+--------------+--------------+-----------
1168:..\..\..\..\..\..\Software\uCOS-III\Source/os_core.c **** *                                         |  Obj D       |  0           | 0            | 0         
1169:..\..\..\..\..\..\Software\uCOS-III\Source/os_core.c **** *                                         +--------------+--------------+--------------+-----------
ARM GAS  C:\Users\ADMINI~1\AppData\Local\Temp\cczjWrOu.s 			page 47


1170:..\..\..\..\..\..\Software\uCOS-III\Source/os_core.c **** *                                         |  Obj E       |  0           | 0            | 0         
1171:..\..\..\..\..\..\Software\uCOS-III\Source/os_core.c **** *                                         +--------------+--------------+--------------+-----------
1172:..\..\..\..\..\..\Software\uCOS-III\Source/os_core.c **** *                                         |  Obj F       |  0           | 0            | 0         
1173:..\..\..\..\..\..\Software\uCOS-III\Source/os_core.c **** *                                         +--------------+--------------+--------------+-----------
1174:..\..\..\..\..\..\Software\uCOS-III\Source/os_core.c **** *
1175:..\..\..\..\..\..\Software\uCOS-III\Source/os_core.c **** *
1176:..\..\..\..\..\..\Software\uCOS-III\Source/os_core.c **** * Arguments  : p_obj        is a pointer to the object being pend aborted to
1177:..\..\..\..\..\..\Software\uCOS-III\Source/os_core.c **** *              -----
1178:..\..\..\..\..\..\Software\uCOS-III\Source/os_core.c **** *
1179:..\..\..\..\..\..\Software\uCOS-III\Source/os_core.c **** *              p_tcb        is a pointer to the OS_TCB of the task that we'll abort he pend for
1180:..\..\..\..\..\..\Software\uCOS-III\Source/os_core.c **** *              -----
1181:..\..\..\..\..\..\Software\uCOS-III\Source/os_core.c **** *
1182:..\..\..\..\..\..\Software\uCOS-III\Source/os_core.c **** *              ts           is the time stamp of when the pend abort occurred
1183:..\..\..\..\..\..\Software\uCOS-III\Source/os_core.c **** *
1184:..\..\..\..\..\..\Software\uCOS-III\Source/os_core.c **** * Returns    : none
1185:..\..\..\..\..\..\Software\uCOS-III\Source/os_core.c **** *
1186:..\..\..\..\..\..\Software\uCOS-III\Source/os_core.c **** * Note(s)    : 1) This function is INTERNAL to uC/OS-III and your application MUST NOT call it.
1187:..\..\..\..\..\..\Software\uCOS-III\Source/os_core.c **** *
1188:..\..\..\..\..\..\Software\uCOS-III\Source/os_core.c **** *              2) This function is DEPRECATED, see OSPendMulti() note 1 for details.
1189:..\..\..\..\..\..\Software\uCOS-III\Source/os_core.c **** ***************************************************************************************************
1190:..\..\..\..\..\..\Software\uCOS-III\Source/os_core.c **** */
1191:..\..\..\..\..\..\Software\uCOS-III\Source/os_core.c **** #if (OS_CFG_PEND_MULTI_EN == DEF_ENABLED)
1192:..\..\..\..\..\..\Software\uCOS-III\Source/os_core.c **** void  OS_PendAbort1 (OS_PEND_OBJ  *p_obj,
1193:..\..\..\..\..\..\Software\uCOS-III\Source/os_core.c ****                      OS_TCB       *p_tcb,
1194:..\..\..\..\..\..\Software\uCOS-III\Source/os_core.c ****                      CPU_TS        ts)
1195:..\..\..\..\..\..\Software\uCOS-III\Source/os_core.c **** {
1196:..\..\..\..\..\..\Software\uCOS-III\Source/os_core.c ****     OS_OBJ_QTY      n_pend_list;                                /* Number of pend lists            
1197:..\..\..\..\..\..\Software\uCOS-III\Source/os_core.c ****     OS_PEND_DATA   *p_pend_data;
1198:..\..\..\..\..\..\Software\uCOS-III\Source/os_core.c **** 
1199:..\..\..\..\..\..\Software\uCOS-III\Source/os_core.c **** 
1200:..\..\..\..\..\..\Software\uCOS-III\Source/os_core.c **** #if (OS_CFG_TS_EN == DEF_DISABLED)
1201:..\..\..\..\..\..\Software\uCOS-III\Source/os_core.c ****     (void)ts;                                                   /* Prevent compiler warning for not
1202:..\..\..\..\..\..\Software\uCOS-III\Source/os_core.c **** #endif
1203:..\..\..\..\..\..\Software\uCOS-III\Source/os_core.c **** 
1204:..\..\..\..\..\..\Software\uCOS-III\Source/os_core.c ****     p_pend_data = p_tcb->PendDataTblPtr;                        /* Point to the first OS_PEND_DATA 
1205:..\..\..\..\..\..\Software\uCOS-III\Source/os_core.c ****     n_pend_list = p_tcb->PendDataTblEntries;                    /* Get number of entries in the tab
1206:..\..\..\..\..\..\Software\uCOS-III\Source/os_core.c **** 
1207:..\..\..\..\..\..\Software\uCOS-III\Source/os_core.c ****     while (n_pend_list > 0u) {                                  /* Mark posted object in OS_PEND_DA
1208:..\..\..\..\..\..\Software\uCOS-III\Source/os_core.c ****         if (p_obj == p_pend_data->PendObjPtr) {                 /* Did we find the object pend abor
1209:..\..\..\..\..\..\Software\uCOS-III\Source/os_core.c ****             p_pend_data->RdyObjPtr = p_obj;                     /* Yes, indicate the object in the 
1210:..\..\..\..\..\..\Software\uCOS-III\Source/os_core.c **** #if (OS_CFG_TS_EN == DEF_ENABLED)
1211:..\..\..\..\..\..\Software\uCOS-III\Source/os_core.c ****             p_pend_data->RdyTS     = ts;                        /* save the timestamp of the pend a
1212:..\..\..\..\..\..\Software\uCOS-III\Source/os_core.c **** #endif
1213:..\..\..\..\..\..\Software\uCOS-III\Source/os_core.c ****             break;
1214:..\..\..\..\..\..\Software\uCOS-III\Source/os_core.c ****         }
1215:..\..\..\..\..\..\Software\uCOS-III\Source/os_core.c ****         p_pend_data++;
1216:..\..\..\..\..\..\Software\uCOS-III\Source/os_core.c ****         n_pend_list--;
1217:..\..\..\..\..\..\Software\uCOS-III\Source/os_core.c ****     }
1218:..\..\..\..\..\..\Software\uCOS-III\Source/os_core.c **** }
1219:..\..\..\..\..\..\Software\uCOS-III\Source/os_core.c **** #endif
1220:..\..\..\..\..\..\Software\uCOS-III\Source/os_core.c **** 
1221:..\..\..\..\..\..\Software\uCOS-III\Source/os_core.c **** /*
1222:..\..\..\..\..\..\Software\uCOS-III\Source/os_core.c **** ***************************************************************************************************
1223:..\..\..\..\..\..\Software\uCOS-III\Source/os_core.c **** *                                              INITIALIZE A WAIT LIST TABLE
1224:..\..\..\..\..\..\Software\uCOS-III\Source/os_core.c **** *
1225:..\..\..\..\..\..\Software\uCOS-III\Source/os_core.c **** * Description: This function is called to initialize the fields of a table of OS_PEND_DATA entries.
1226:..\..\..\..\..\..\Software\uCOS-III\Source/os_core.c **** *              the .PendObjPtr field of each entry in the table is set by the caller and thus will 
ARM GAS  C:\Users\ADMINI~1\AppData\Local\Temp\cczjWrOu.s 			page 48


1227:..\..\..\..\..\..\Software\uCOS-III\Source/os_core.c **** *              this function.
1228:..\..\..\..\..\..\Software\uCOS-III\Source/os_core.c **** *
1229:..\..\..\..\..\..\Software\uCOS-III\Source/os_core.c **** * Arguments  : p_tcb              is a pointer to the TCB of the task that we want to pend abort.
1230:..\..\..\..\..\..\Software\uCOS-III\Source/os_core.c **** *              -----
1231:..\..\..\..\..\..\Software\uCOS-III\Source/os_core.c **** *
1232:..\..\..\..\..\..\Software\uCOS-III\Source/os_core.c **** *              p_pend_data_tbl    is a pointer to a table (see below) of OS_PEND_DATA elements to i
1233:..\..\..\..\..\..\Software\uCOS-III\Source/os_core.c **** *              ---------------
1234:..\..\..\..\..\..\Software\uCOS-III\Source/os_core.c **** *
1235:..\..\..\..\..\..\Software\uCOS-III\Source/os_core.c **** *                                  .PendObjPtr .RdyObjPtr .RdyMsgPtr .RdyMsgSize .RdyTS .TCBPtr .Ne
1236:..\..\..\..\..\..\Software\uCOS-III\Source/os_core.c **** *                                 +-----------+----------+----------+-----------+------+-------+---
1237:..\..\..\..\..\..\Software\uCOS-III\Source/os_core.c **** *               p_pend_data_tbl-> |     ?     |  0       | 0        | 0         | 0    | p_tcb | 0 
1238:..\..\..\..\..\..\Software\uCOS-III\Source/os_core.c **** *                                 +-----------+----------+----------+-----------+------+-------+---
1239:..\..\..\..\..\..\Software\uCOS-III\Source/os_core.c **** *                                 |     ?     |  0       | 0        | 0         | 0    | p_tcb | 0 
1240:..\..\..\..\..\..\Software\uCOS-III\Source/os_core.c **** *                                 +-----------+----------+----------+-----------+------+-------+---
1241:..\..\..\..\..\..\Software\uCOS-III\Source/os_core.c **** *                                 |     ?     |  0       | 0        | 0         | 0    | p_tcb | 0 
1242:..\..\..\..\..\..\Software\uCOS-III\Source/os_core.c **** *                                 +-----------+----------+----------+-----------+------+-------+---
1243:..\..\..\..\..\..\Software\uCOS-III\Source/os_core.c **** *                                 |     ?     |  0       | 0        | 0         | 0    | p_tcb | 0 
1244:..\..\..\..\..\..\Software\uCOS-III\Source/os_core.c **** *                                 +-----------+----------+----------+-----------+------+-------+---
1245:..\..\..\..\..\..\Software\uCOS-III\Source/os_core.c **** *                                 |     ?     |  0       | 0        | 0         | 0    | p_tcb | 0 
1246:..\..\..\..\..\..\Software\uCOS-III\Source/os_core.c **** *                                 +-----------+----------+----------+-----------+------+-------+---
1247:..\..\..\..\..\..\Software\uCOS-III\Source/os_core.c **** *                                 |     ?     |  0       | 0        | 0         | 0    | p_tcb | 0 
1248:..\..\..\..\..\..\Software\uCOS-III\Source/os_core.c **** *                                 +-----------+----------+----------+-----------+------+-------+---
1249:..\..\..\..\..\..\Software\uCOS-III\Source/os_core.c **** *
1250:..\..\..\..\..\..\Software\uCOS-III\Source/os_core.c **** *              tbl_size           is the size of the table in number of entries
1251:..\..\..\..\..\..\Software\uCOS-III\Source/os_core.c **** *
1252:..\..\..\..\..\..\Software\uCOS-III\Source/os_core.c **** * Returns    : none
1253:..\..\..\..\..\..\Software\uCOS-III\Source/os_core.c **** *
1254:..\..\..\..\..\..\Software\uCOS-III\Source/os_core.c **** * Note(s)    : 1) This function is INTERNAL to uC/OS-III and your application must not call it.
1255:..\..\..\..\..\..\Software\uCOS-III\Source/os_core.c **** *
1256:..\..\..\..\..\..\Software\uCOS-III\Source/os_core.c **** *              2) It's possible for the table to be of size 1 when multi-pend is not used
1257:..\..\..\..\..\..\Software\uCOS-III\Source/os_core.c **** *
1258:..\..\..\..\..\..\Software\uCOS-III\Source/os_core.c **** *              3) Note that the .PendObjPtr is NOT touched because it's assumed to be set by the ca
1259:..\..\..\..\..\..\Software\uCOS-III\Source/os_core.c **** ***************************************************************************************************
1260:..\..\..\..\..\..\Software\uCOS-III\Source/os_core.c **** */
1261:..\..\..\..\..\..\Software\uCOS-III\Source/os_core.c **** 
1262:..\..\..\..\..\..\Software\uCOS-III\Source/os_core.c **** void  OS_PendDataInit (OS_TCB        *p_tcb,
1263:..\..\..\..\..\..\Software\uCOS-III\Source/os_core.c ****                        OS_PEND_DATA  *p_pend_data_tbl,
1264:..\..\..\..\..\..\Software\uCOS-III\Source/os_core.c ****                        OS_OBJ_QTY     tbl_size)
1265:..\..\..\..\..\..\Software\uCOS-III\Source/os_core.c **** {
 1437              		.loc 1 1265 0
 1438              		.cfi_startproc
 1439              		@ args = 0, pretend = 0, frame = 16
 1440              		@ frame_needed = 1, uses_anonymous_args = 0
 1441 0000 80B5     		push	{r7, lr}
 1442              		.cfi_def_cfa_offset 8
 1443              		.cfi_offset 7, -8
 1444              		.cfi_offset 14, -4
 1445 0002 84B0     		sub	sp, sp, #16
 1446              		.cfi_def_cfa_offset 24
 1447 0004 00AF     		add	r7, sp, #0
 1448              		.cfi_def_cfa_register 7
 1449 0006 F860     		str	r0, [r7, #12]
 1450 0008 B960     		str	r1, [r7, #8]
 1451 000a BB1D     		adds	r3, r7, #6
 1452 000c 1A80     		strh	r2, [r3]
1266:..\..\..\..\..\..\Software\uCOS-III\Source/os_core.c **** #if (OS_CFG_PEND_MULTI_EN == DEF_ENABLED)
1267:..\..\..\..\..\..\Software\uCOS-III\Source/os_core.c ****     OS_OBJ_QTY  i;
ARM GAS  C:\Users\ADMINI~1\AppData\Local\Temp\cczjWrOu.s 			page 49


1268:..\..\..\..\..\..\Software\uCOS-III\Source/os_core.c **** #endif
1269:..\..\..\..\..\..\Software\uCOS-III\Source/os_core.c **** 
1270:..\..\..\..\..\..\Software\uCOS-III\Source/os_core.c **** 
1271:..\..\..\..\..\..\Software\uCOS-III\Source/os_core.c **** #if (OS_CFG_PEND_MULTI_EN == DEF_ENABLED)
1272:..\..\..\..\..\..\Software\uCOS-III\Source/os_core.c ****     p_tcb->PendDataTblEntries = tbl_size;                       /* Link the TCB to the beginning of
1273:..\..\..\..\..\..\Software\uCOS-III\Source/os_core.c ****     p_tcb->PendDataTblPtr     = p_pend_data_tbl;
1274:..\..\..\..\..\..\Software\uCOS-III\Source/os_core.c **** 
1275:..\..\..\..\..\..\Software\uCOS-III\Source/os_core.c ****     for (i = 0u; i < tbl_size; i++) {
1276:..\..\..\..\..\..\Software\uCOS-III\Source/os_core.c ****         p_pend_data_tbl->NextPtr    = DEF_NULL;                 /* Initialize all the fields       
1277:..\..\..\..\..\..\Software\uCOS-III\Source/os_core.c ****         p_pend_data_tbl->PrevPtr    = DEF_NULL;
1278:..\..\..\..\..\..\Software\uCOS-III\Source/os_core.c ****         p_pend_data_tbl->RdyObjPtr  = DEF_NULL;
1279:..\..\..\..\..\..\Software\uCOS-III\Source/os_core.c ****         p_pend_data_tbl->RdyMsgPtr  = DEF_NULL;
1280:..\..\..\..\..\..\Software\uCOS-III\Source/os_core.c ****         p_pend_data_tbl->RdyMsgSize = 0u;
1281:..\..\..\..\..\..\Software\uCOS-III\Source/os_core.c **** #if (OS_CFG_TS_EN == DEF_ENABLED)
1282:..\..\..\..\..\..\Software\uCOS-III\Source/os_core.c ****         p_pend_data_tbl->RdyTS      = 0u;
1283:..\..\..\..\..\..\Software\uCOS-III\Source/os_core.c **** #endif
1284:..\..\..\..\..\..\Software\uCOS-III\Source/os_core.c ****         p_pend_data_tbl->TCBPtr     = p_tcb;                    /* Every entry points back to the T
1285:..\..\..\..\..\..\Software\uCOS-III\Source/os_core.c ****         p_pend_data_tbl++;
1286:..\..\..\..\..\..\Software\uCOS-III\Source/os_core.c ****     }
1287:..\..\..\..\..\..\Software\uCOS-III\Source/os_core.c **** #else
1288:..\..\..\..\..\..\Software\uCOS-III\Source/os_core.c ****     (void)tbl_size;
1289:..\..\..\..\..\..\Software\uCOS-III\Source/os_core.c **** 
1290:..\..\..\..\..\..\Software\uCOS-III\Source/os_core.c ****     p_tcb->PendDataTblPtr       = p_pend_data_tbl;
 1453              		.loc 1 1290 0
 1454 000e FB68     		ldr	r3, [r7, #12]
 1455 0010 BA68     		ldr	r2, [r7, #8]
 1456 0012 1A63     		str	r2, [r3, #48]
1291:..\..\..\..\..\..\Software\uCOS-III\Source/os_core.c **** 
1292:..\..\..\..\..\..\Software\uCOS-III\Source/os_core.c ****     p_pend_data_tbl->NextPtr    = DEF_NULL;        /* Initialize all the fields                    
 1457              		.loc 1 1292 0
 1458 0014 BB68     		ldr	r3, [r7, #8]
 1459 0016 0022     		movs	r2, #0
 1460 0018 5A60     		str	r2, [r3, #4]
1293:..\..\..\..\..\..\Software\uCOS-III\Source/os_core.c ****     p_pend_data_tbl->PrevPtr    = DEF_NULL;
 1461              		.loc 1 1293 0
 1462 001a BB68     		ldr	r3, [r7, #8]
 1463 001c 0022     		movs	r2, #0
 1464 001e 1A60     		str	r2, [r3]
1294:..\..\..\..\..\..\Software\uCOS-III\Source/os_core.c ****     p_pend_data_tbl->RdyObjPtr  = DEF_NULL;
 1465              		.loc 1 1294 0
 1466 0020 BB68     		ldr	r3, [r7, #8]
 1467 0022 0022     		movs	r2, #0
 1468 0024 1A61     		str	r2, [r3, #16]
1295:..\..\..\..\..\..\Software\uCOS-III\Source/os_core.c ****     p_pend_data_tbl->RdyMsgPtr  = DEF_NULL;
 1469              		.loc 1 1295 0
 1470 0026 BB68     		ldr	r3, [r7, #8]
 1471 0028 0022     		movs	r2, #0
 1472 002a 5A61     		str	r2, [r3, #20]
1296:..\..\..\..\..\..\Software\uCOS-III\Source/os_core.c ****     p_pend_data_tbl->RdyMsgSize = 0u;
 1473              		.loc 1 1296 0
 1474 002c BB68     		ldr	r3, [r7, #8]
 1475 002e 0022     		movs	r2, #0
 1476 0030 1A83     		strh	r2, [r3, #24]
1297:..\..\..\..\..\..\Software\uCOS-III\Source/os_core.c **** #if (OS_CFG_TS_EN == DEF_ENABLED)
1298:..\..\..\..\..\..\Software\uCOS-III\Source/os_core.c ****     p_pend_data_tbl->RdyTS      = 0u;
 1477              		.loc 1 1298 0
 1478 0032 BB68     		ldr	r3, [r7, #8]
ARM GAS  C:\Users\ADMINI~1\AppData\Local\Temp\cczjWrOu.s 			page 50


 1479 0034 0022     		movs	r2, #0
 1480 0036 DA61     		str	r2, [r3, #28]
1299:..\..\..\..\..\..\Software\uCOS-III\Source/os_core.c **** #endif
1300:..\..\..\..\..\..\Software\uCOS-III\Source/os_core.c ****     p_pend_data_tbl->TCBPtr     = p_tcb;                    /* Every entry points back to the TCB o
 1481              		.loc 1 1300 0
 1482 0038 BB68     		ldr	r3, [r7, #8]
 1483 003a FA68     		ldr	r2, [r7, #12]
 1484 003c 9A60     		str	r2, [r3, #8]
1301:..\..\..\..\..\..\Software\uCOS-III\Source/os_core.c **** #endif
1302:..\..\..\..\..\..\Software\uCOS-III\Source/os_core.c **** }
 1485              		.loc 1 1302 0
 1486 003e C046     		nop
 1487 0040 BD46     		mov	sp, r7
 1488 0042 04B0     		add	sp, sp, #16
 1489              		@ sp needed
 1490 0044 80BD     		pop	{r7, pc}
 1491              		.cfi_endproc
 1492              	.LFE12:
 1493              		.size	OS_PendDataInit, .-OS_PendDataInit
 1494 0046 C046     		.section	.rodata
 1495              		.align	2
 1496              	.LC64:
 1497 0014 5461736B 		.ascii	"Task Q\000"
 1497      205100
 1498 001b 00       		.align	2
 1499              	.LC66:
 1500 001c 5461736B 		.ascii	"Task Sem\000"
 1500      2053656D 
 1500      00
 1501 0025 000000   		.align	2
 1502              	.LC68:
 1503 0028 2000     		.ascii	" \000"
 1504              		.section	.text.OS_PendDbgNameAdd,"ax",%progbits
 1505              		.align	2
 1506              		.global	OS_PendDbgNameAdd
 1507              		.code	16
 1508              		.thumb_func
 1509              		.type	OS_PendDbgNameAdd, %function
 1510              	OS_PendDbgNameAdd:
 1511              	.LFB13:
1303:..\..\..\..\..\..\Software\uCOS-III\Source/os_core.c **** 
1304:..\..\..\..\..\..\Software\uCOS-III\Source/os_core.c **** 
1305:..\..\..\..\..\..\Software\uCOS-III\Source/os_core.c **** /*
1306:..\..\..\..\..\..\Software\uCOS-III\Source/os_core.c **** ***************************************************************************************************
1307:..\..\..\..\..\..\Software\uCOS-III\Source/os_core.c **** *                                     ADD/REMOVE DEBUG NAMES TO PENDED OBJECT AND OS_TCB
1308:..\..\..\..\..\..\Software\uCOS-III\Source/os_core.c **** *
1309:..\..\..\..\..\..\Software\uCOS-III\Source/os_core.c **** * Description: These functions are used to add pointers to ASCII 'names' of objects so they can eas
1310:..\..\..\..\..\..\Software\uCOS-III\Source/os_core.c **** *              using a kernel aware tool.
1311:..\..\..\..\..\..\Software\uCOS-III\Source/os_core.c **** *
1312:..\..\..\..\..\..\Software\uCOS-III\Source/os_core.c **** * Arguments  : p_obj              is a pointer to the object being pended on
1313:..\..\..\..\..\..\Software\uCOS-III\Source/os_core.c **** *
1314:..\..\..\..\..\..\Software\uCOS-III\Source/os_core.c **** *              p_tcb              is a pointer to the OS_TCB of the task pending on the object
1315:..\..\..\..\..\..\Software\uCOS-III\Source/os_core.c **** *
1316:..\..\..\..\..\..\Software\uCOS-III\Source/os_core.c **** * Returns    : none
1317:..\..\..\..\..\..\Software\uCOS-III\Source/os_core.c **** *
1318:..\..\..\..\..\..\Software\uCOS-III\Source/os_core.c **** * Note(s)    : 1) These functions are INTERNAL to uC/OS-III and your application must not call it.
1319:..\..\..\..\..\..\Software\uCOS-III\Source/os_core.c **** ***************************************************************************************************
ARM GAS  C:\Users\ADMINI~1\AppData\Local\Temp\cczjWrOu.s 			page 51


1320:..\..\..\..\..\..\Software\uCOS-III\Source/os_core.c **** */
1321:..\..\..\..\..\..\Software\uCOS-III\Source/os_core.c **** 
1322:..\..\..\..\..\..\Software\uCOS-III\Source/os_core.c **** 
1323:..\..\..\..\..\..\Software\uCOS-III\Source/os_core.c **** #if (OS_CFG_DBG_EN == DEF_ENABLED)
1324:..\..\..\..\..\..\Software\uCOS-III\Source/os_core.c **** void  OS_PendDbgNameAdd (OS_PEND_OBJ  *p_obj,
1325:..\..\..\..\..\..\Software\uCOS-III\Source/os_core.c ****                          OS_TCB       *p_tcb)
1326:..\..\..\..\..\..\Software\uCOS-III\Source/os_core.c **** {
 1512              		.loc 1 1326 0
 1513              		.cfi_startproc
 1514              		@ args = 0, pretend = 0, frame = 24
 1515              		@ frame_needed = 1, uses_anonymous_args = 0
 1516 0000 80B5     		push	{r7, lr}
 1517              		.cfi_def_cfa_offset 8
 1518              		.cfi_offset 7, -8
 1519              		.cfi_offset 14, -4
 1520 0002 86B0     		sub	sp, sp, #24
 1521              		.cfi_def_cfa_offset 32
 1522 0004 00AF     		add	r7, sp, #0
 1523              		.cfi_def_cfa_register 7
 1524 0006 7860     		str	r0, [r7, #4]
 1525 0008 3960     		str	r1, [r7]
1327:..\..\..\..\..\..\Software\uCOS-III\Source/os_core.c ****     OS_PEND_LIST  *p_pend_list;
1328:..\..\..\..\..\..\Software\uCOS-III\Source/os_core.c ****     OS_PEND_DATA  *p_pend_data;
1329:..\..\..\..\..\..\Software\uCOS-III\Source/os_core.c ****     OS_TCB        *p_tcb1;
1330:..\..\..\..\..\..\Software\uCOS-III\Source/os_core.c **** 
1331:..\..\..\..\..\..\Software\uCOS-III\Source/os_core.c **** 
1332:..\..\..\..\..\..\Software\uCOS-III\Source/os_core.c ****     if (p_obj != DEF_NULL) {
 1526              		.loc 1 1332 0
 1527 000a 7B68     		ldr	r3, [r7, #4]
 1528 000c 002B     		cmp	r3, #0
 1529 000e 12D0     		beq	.L100
1333:..\..\..\..\..\..\Software\uCOS-III\Source/os_core.c ****         p_tcb->DbgNamePtr =  p_obj->NamePtr;                    /* Task pending on this object ... 
 1530              		.loc 1 1333 0
 1531 0010 7B68     		ldr	r3, [r7, #4]
 1532 0012 5A68     		ldr	r2, [r3, #4]
 1533 0014 3B68     		ldr	r3, [r7]
 1534 0016 C021     		movs	r1, #192
 1535 0018 5A50     		str	r2, [r3, r1]
1334:..\..\..\..\..\..\Software\uCOS-III\Source/os_core.c ****         p_pend_list       = &p_obj->PendList;                   /* Find name of HP task pending on 
 1536              		.loc 1 1334 0
 1537 001a 7B68     		ldr	r3, [r7, #4]
 1538 001c 0833     		adds	r3, r3, #8
 1539 001e 7B61     		str	r3, [r7, #20]
1335:..\..\..\..\..\..\Software\uCOS-III\Source/os_core.c ****         p_pend_data       =  p_pend_list->HeadPtr;
 1540              		.loc 1 1335 0
 1541 0020 7B69     		ldr	r3, [r7, #20]
 1542 0022 1B68     		ldr	r3, [r3]
 1543 0024 3B61     		str	r3, [r7, #16]
1336:..\..\..\..\..\..\Software\uCOS-III\Source/os_core.c ****         p_tcb1            =  p_pend_data->TCBPtr;
 1544              		.loc 1 1336 0
 1545 0026 3B69     		ldr	r3, [r7, #16]
 1546 0028 9B68     		ldr	r3, [r3, #8]
 1547 002a FB60     		str	r3, [r7, #12]
1337:..\..\..\..\..\..\Software\uCOS-III\Source/os_core.c ****         p_obj->DbgNamePtr = p_tcb1->NamePtr;                    /* ... Save in object              
 1548              		.loc 1 1337 0
 1549 002c FB68     		ldr	r3, [r7, #12]
 1550 002e 9A68     		ldr	r2, [r3, #8]
ARM GAS  C:\Users\ADMINI~1\AppData\Local\Temp\cczjWrOu.s 			page 52


 1551 0030 7B68     		ldr	r3, [r7, #4]
 1552 0032 DA61     		str	r2, [r3, #28]
1338:..\..\..\..\..\..\Software\uCOS-III\Source/os_core.c ****     } else {
1339:..\..\..\..\..\..\Software\uCOS-III\Source/os_core.c ****         switch (p_tcb->PendOn) {
1340:..\..\..\..\..\..\Software\uCOS-III\Source/os_core.c ****             case OS_TASK_PEND_ON_TASK_Q:
1341:..\..\..\..\..\..\Software\uCOS-III\Source/os_core.c ****                  p_tcb->DbgNamePtr = (CPU_CHAR *)((void *)"Task Q");
1342:..\..\..\..\..\..\Software\uCOS-III\Source/os_core.c ****                  break;
1343:..\..\..\..\..\..\Software\uCOS-III\Source/os_core.c **** 
1344:..\..\..\..\..\..\Software\uCOS-III\Source/os_core.c ****             case OS_TASK_PEND_ON_TASK_SEM:
1345:..\..\..\..\..\..\Software\uCOS-III\Source/os_core.c ****                  p_tcb->DbgNamePtr = (CPU_CHAR *)((void *)"Task Sem");
1346:..\..\..\..\..\..\Software\uCOS-III\Source/os_core.c ****                  break;
1347:..\..\..\..\..\..\Software\uCOS-III\Source/os_core.c **** 
1348:..\..\..\..\..\..\Software\uCOS-III\Source/os_core.c ****             default:
1349:..\..\..\..\..\..\Software\uCOS-III\Source/os_core.c ****                  p_tcb->DbgNamePtr = (CPU_CHAR *)((void *)" ");
1350:..\..\..\..\..\..\Software\uCOS-III\Source/os_core.c ****                  break;
1351:..\..\..\..\..\..\Software\uCOS-III\Source/os_core.c ****         }
1352:..\..\..\..\..\..\Software\uCOS-III\Source/os_core.c ****     }
1353:..\..\..\..\..\..\Software\uCOS-III\Source/os_core.c **** }
 1553              		.loc 1 1353 0
 1554 0034 16E0     		b	.L106
 1555              	.L100:
1339:..\..\..\..\..\..\Software\uCOS-III\Source/os_core.c ****             case OS_TASK_PEND_ON_TASK_Q:
 1556              		.loc 1 1339 0
 1557 0036 3B68     		ldr	r3, [r7]
 1558 0038 3422     		movs	r2, #52
 1559 003a 9B5C     		ldrb	r3, [r3, r2]
 1560 003c 022B     		cmp	r3, #2
 1561 003e 02D0     		beq	.L103
 1562 0040 072B     		cmp	r3, #7
 1563 0042 05D0     		beq	.L104
 1564 0044 09E0     		b	.L105
 1565              	.L103:
1341:..\..\..\..\..\..\Software\uCOS-III\Source/os_core.c ****                  break;
 1566              		.loc 1 1341 0
 1567 0046 3B68     		ldr	r3, [r7]
 1568 0048 C021     		movs	r1, #192
 1569 004a 084A     		ldr	r2, .L107
 1570 004c 5A50     		str	r2, [r3, r1]
1342:..\..\..\..\..\..\Software\uCOS-III\Source/os_core.c **** 
 1571              		.loc 1 1342 0
 1572 004e 09E0     		b	.L101
 1573              	.L104:
1345:..\..\..\..\..\..\Software\uCOS-III\Source/os_core.c ****                  break;
 1574              		.loc 1 1345 0
 1575 0050 3B68     		ldr	r3, [r7]
 1576 0052 C021     		movs	r1, #192
 1577 0054 064A     		ldr	r2, .L107+4
 1578 0056 5A50     		str	r2, [r3, r1]
1346:..\..\..\..\..\..\Software\uCOS-III\Source/os_core.c **** 
 1579              		.loc 1 1346 0
 1580 0058 04E0     		b	.L101
 1581              	.L105:
1349:..\..\..\..\..\..\Software\uCOS-III\Source/os_core.c ****                  break;
 1582              		.loc 1 1349 0
 1583 005a 3B68     		ldr	r3, [r7]
 1584 005c C021     		movs	r1, #192
 1585 005e 054A     		ldr	r2, .L107+8
ARM GAS  C:\Users\ADMINI~1\AppData\Local\Temp\cczjWrOu.s 			page 53


 1586 0060 5A50     		str	r2, [r3, r1]
1350:..\..\..\..\..\..\Software\uCOS-III\Source/os_core.c ****         }
 1587              		.loc 1 1350 0
 1588 0062 C046     		nop
 1589              	.L101:
 1590              	.L106:
 1591              		.loc 1 1353 0
 1592 0064 C046     		nop
 1593 0066 BD46     		mov	sp, r7
 1594 0068 06B0     		add	sp, sp, #24
 1595              		@ sp needed
 1596 006a 80BD     		pop	{r7, pc}
 1597              	.L108:
 1598              		.align	2
 1599              	.L107:
 1600 006c 14000000 		.word	.LC64
 1601 0070 1C000000 		.word	.LC66
 1602 0074 28000000 		.word	.LC68
 1603              		.cfi_endproc
 1604              	.LFE13:
 1605              		.size	OS_PendDbgNameAdd, .-OS_PendDbgNameAdd
 1606              		.section	.text.OS_PendDbgNameRemove,"ax",%progbits
 1607              		.align	2
 1608              		.global	OS_PendDbgNameRemove
 1609              		.code	16
 1610              		.thumb_func
 1611              		.type	OS_PendDbgNameRemove, %function
 1612              	OS_PendDbgNameRemove:
 1613              	.LFB14:
1354:..\..\..\..\..\..\Software\uCOS-III\Source/os_core.c **** 
1355:..\..\..\..\..\..\Software\uCOS-III\Source/os_core.c **** 
1356:..\..\..\..\..\..\Software\uCOS-III\Source/os_core.c **** 
1357:..\..\..\..\..\..\Software\uCOS-III\Source/os_core.c **** void  OS_PendDbgNameRemove (OS_PEND_OBJ  *p_obj,
1358:..\..\..\..\..\..\Software\uCOS-III\Source/os_core.c ****                             OS_TCB       *p_tcb)
1359:..\..\..\..\..\..\Software\uCOS-III\Source/os_core.c **** {
 1614              		.loc 1 1359 0
 1615              		.cfi_startproc
 1616              		@ args = 0, pretend = 0, frame = 24
 1617              		@ frame_needed = 1, uses_anonymous_args = 0
 1618 0000 80B5     		push	{r7, lr}
 1619              		.cfi_def_cfa_offset 8
 1620              		.cfi_offset 7, -8
 1621              		.cfi_offset 14, -4
 1622 0002 86B0     		sub	sp, sp, #24
 1623              		.cfi_def_cfa_offset 32
 1624 0004 00AF     		add	r7, sp, #0
 1625              		.cfi_def_cfa_register 7
 1626 0006 7860     		str	r0, [r7, #4]
 1627 0008 3960     		str	r1, [r7]
1360:..\..\..\..\..\..\Software\uCOS-III\Source/os_core.c ****     OS_PEND_LIST  *p_pend_list;
1361:..\..\..\..\..\..\Software\uCOS-III\Source/os_core.c ****     OS_PEND_DATA  *p_pend_data;
1362:..\..\..\..\..\..\Software\uCOS-III\Source/os_core.c ****     OS_TCB        *p_tcb1;
1363:..\..\..\..\..\..\Software\uCOS-III\Source/os_core.c **** 
1364:..\..\..\..\..\..\Software\uCOS-III\Source/os_core.c **** 
1365:..\..\..\..\..\..\Software\uCOS-III\Source/os_core.c ****     p_tcb->DbgNamePtr = (CPU_CHAR *)((void *)" ");              /* Remove name of object pended on 
 1628              		.loc 1 1365 0
 1629 000a 3B68     		ldr	r3, [r7]
ARM GAS  C:\Users\ADMINI~1\AppData\Local\Temp\cczjWrOu.s 			page 54


 1630 000c C021     		movs	r1, #192
 1631 000e 0D4A     		ldr	r2, .L113
 1632 0010 5A50     		str	r2, [r3, r1]
1366:..\..\..\..\..\..\Software\uCOS-III\Source/os_core.c ****     p_pend_list       = &p_obj->PendList;
 1633              		.loc 1 1366 0
 1634 0012 7B68     		ldr	r3, [r7, #4]
 1635 0014 0833     		adds	r3, r3, #8
 1636 0016 7B61     		str	r3, [r7, #20]
1367:..\..\..\..\..\..\Software\uCOS-III\Source/os_core.c ****     p_pend_data       =  p_pend_list->HeadPtr;
 1637              		.loc 1 1367 0
 1638 0018 7B69     		ldr	r3, [r7, #20]
 1639 001a 1B68     		ldr	r3, [r3]
 1640 001c 3B61     		str	r3, [r7, #16]
1368:..\..\..\..\..\..\Software\uCOS-III\Source/os_core.c ****     if (p_pend_data != DEF_NULL) {
 1641              		.loc 1 1368 0
 1642 001e 3B69     		ldr	r3, [r7, #16]
 1643 0020 002B     		cmp	r3, #0
 1644 0022 07D0     		beq	.L110
1369:..\..\..\..\..\..\Software\uCOS-III\Source/os_core.c ****         p_tcb1            = p_pend_data->TCBPtr;
 1645              		.loc 1 1369 0
 1646 0024 3B69     		ldr	r3, [r7, #16]
 1647 0026 9B68     		ldr	r3, [r3, #8]
 1648 0028 FB60     		str	r3, [r7, #12]
1370:..\..\..\..\..\..\Software\uCOS-III\Source/os_core.c ****         p_obj->DbgNamePtr = p_tcb1->NamePtr;
 1649              		.loc 1 1370 0
 1650 002a FB68     		ldr	r3, [r7, #12]
 1651 002c 9A68     		ldr	r2, [r3, #8]
 1652 002e 7B68     		ldr	r3, [r7, #4]
 1653 0030 DA61     		str	r2, [r3, #28]
1371:..\..\..\..\..\..\Software\uCOS-III\Source/os_core.c ****     } else {
1372:..\..\..\..\..\..\Software\uCOS-III\Source/os_core.c ****         p_obj->DbgNamePtr = (CPU_CHAR *)((void *)" ");          /* No other task pending on object 
1373:..\..\..\..\..\..\Software\uCOS-III\Source/os_core.c ****     }
1374:..\..\..\..\..\..\Software\uCOS-III\Source/os_core.c **** }
 1654              		.loc 1 1374 0
 1655 0032 02E0     		b	.L112
 1656              	.L110:
1372:..\..\..\..\..\..\Software\uCOS-III\Source/os_core.c ****     }
 1657              		.loc 1 1372 0
 1658 0034 7B68     		ldr	r3, [r7, #4]
 1659 0036 034A     		ldr	r2, .L113
 1660 0038 DA61     		str	r2, [r3, #28]
 1661              	.L112:
 1662              		.loc 1 1374 0
 1663 003a C046     		nop
 1664 003c BD46     		mov	sp, r7
 1665 003e 06B0     		add	sp, sp, #24
 1666              		@ sp needed
 1667 0040 80BD     		pop	{r7, pc}
 1668              	.L114:
 1669 0042 C046     		.align	2
 1670              	.L113:
 1671 0044 28000000 		.word	.LC68
 1672              		.cfi_endproc
 1673              	.LFE14:
 1674              		.size	OS_PendDbgNameRemove, .-OS_PendDbgNameRemove
 1675              		.section	.text.OS_PendListChangePrio,"ax",%progbits
 1676              		.align	2
ARM GAS  C:\Users\ADMINI~1\AppData\Local\Temp\cczjWrOu.s 			page 55


 1677              		.global	OS_PendListChangePrio
 1678              		.code	16
 1679              		.thumb_func
 1680              		.type	OS_PendListChangePrio, %function
 1681              	OS_PendListChangePrio:
 1682              	.LFB15:
1375:..\..\..\..\..\..\Software\uCOS-III\Source/os_core.c **** #endif
1376:..\..\..\..\..\..\Software\uCOS-III\Source/os_core.c **** 
1377:..\..\..\..\..\..\Software\uCOS-III\Source/os_core.c **** 
1378:..\..\..\..\..\..\Software\uCOS-III\Source/os_core.c **** /*
1379:..\..\..\..\..\..\Software\uCOS-III\Source/os_core.c **** ***************************************************************************************************
1380:..\..\..\..\..\..\Software\uCOS-III\Source/os_core.c **** *                               CHANGE THE PRIORITY OF A TASK WAITING IN ONE OR MORE PEND LISTS
1381:..\..\..\..\..\..\Software\uCOS-III\Source/os_core.c **** *
1382:..\..\..\..\..\..\Software\uCOS-III\Source/os_core.c **** * Description: This function is called to change the position of a task waiting in one or more pend
1383:..\..\..\..\..\..\Software\uCOS-III\Source/os_core.c **** *              task can be waiting on multiple objects then each pend list needs to be updated.  Sp
1384:..\..\..\..\..\..\Software\uCOS-III\Source/os_core.c **** *              task can be the highest priority task waiting on one pend list, the lowest priority 
1385:..\..\..\..\..\..\Software\uCOS-III\Source/os_core.c **** *              another pend list or somewhere else in another pend list.  Because of this, we need 
1386:..\..\..\..\..\..\Software\uCOS-III\Source/os_core.c **** *              each of those pend lists individually.
1387:..\..\..\..\..\..\Software\uCOS-III\Source/os_core.c **** *
1388:..\..\..\..\..\..\Software\uCOS-III\Source/os_core.c **** *              The drawing below shows an example of a task (OS_TCB) that belongs to 3 separate pen
1389:..\..\..\..\..\..\Software\uCOS-III\Source/os_core.c **** *              pend list can contain multiple tasks (the .PrevPtr and .NextPtr show a '?' to indica
1390:..\..\..\..\..\..\Software\uCOS-III\Source/os_core.c **** *              contains a pointer (.PendDataTblPtr) to the first entry in the list of pend lists.
1391:..\..\..\..\..\..\Software\uCOS-III\Source/os_core.c **** *
1392:..\..\..\..\..\..\Software\uCOS-III\Source/os_core.c **** *                                                                                                  
1393:..\..\..\..\..\..\Software\uCOS-III\Source/os_core.c **** *                                                                                                  
1394:..\..\..\..\..\..\Software\uCOS-III\Source/os_core.c **** *                                                                                                  
1395:..\..\..\..\..\..\Software\uCOS-III\Source/os_core.c **** *                                                                                                  
1396:..\..\..\..\..\..\Software\uCOS-III\Source/os_core.c **** *                                                                                                  
1397:..\..\..\..\..\..\Software\uCOS-III\Source/os_core.c **** *                                      Point to first entry in the OS_PEND_DATA table (i.e. [0])   
1398:..\..\..\..\..\..\Software\uCOS-III\Source/os_core.c **** *                                          /-----------------------------<-------------------------
1399:..\..\..\..\..\..\Software\uCOS-III\Source/os_core.c **** *                                          |                                                       
1400:..\..\..\..\..\..\Software\uCOS-III\Source/os_core.c **** *                                          |                                                       
1401:..\..\..\..\..\..\Software\uCOS-III\Source/os_core.c **** *              OS_PEND_LIST                |                                                       
1402:..\..\..\..\..\..\Software\uCOS-III\Source/os_core.c **** *              +------------+              |                                                       
1403:..\..\..\..\..\..\Software\uCOS-III\Source/os_core.c **** *              | TailPtr    |              |                                                       
1404:..\..\..\..\..\..\Software\uCOS-III\Source/os_core.c **** *              +------------+              |                                                       
1405:..\..\..\..\..\..\Software\uCOS-III\Source/os_core.c **** *              | HeadPtr    |              |                                                       
1406:..\..\..\..\..\..\Software\uCOS-III\Source/os_core.c **** *              +------------+              |                                        /---------->---
1407:..\..\..\..\..\..\Software\uCOS-III\Source/os_core.c **** *              | NbrEntries |              |                                        |              
1408:..\..\..\..\..\..\Software\uCOS-III\Source/os_core.c **** *              +------------+     [0]      V   OS_PEND_DATA                         |              
1409:..\..\..\..\..\..\Software\uCOS-III\Source/os_core.c **** *                                     +---------+------------+-------+---------+--------+---------+
1410:..\..\..\..\..\..\Software\uCOS-III\Source/os_core.c **** *                             ? <---- | PrevPtr | PendObjPtr |       |         | TCBPtr | NextPtr |
1411:..\..\..\..\..\..\Software\uCOS-III\Source/os_core.c **** *                                     +---------+------------+-------+---------+--------+---------+
1412:..\..\..\..\..\..\Software\uCOS-III\Source/os_core.c **** *                                                                                                  
1413:..\..\..\..\..\..\Software\uCOS-III\Source/os_core.c **** *                                                                                                  
1414:..\..\..\..\..\..\Software\uCOS-III\Source/os_core.c **** *                                                                                                  
1415:..\..\..\..\..\..\Software\uCOS-III\Source/os_core.c **** *                                                                                                  
1416:..\..\..\..\..\..\Software\uCOS-III\Source/os_core.c **** *                                                                                                  
1417:..\..\..\..\..\..\Software\uCOS-III\Source/os_core.c **** *              OS_PEND_LIST                                                                Point ba
1418:..\..\..\..\..\..\Software\uCOS-III\Source/os_core.c **** *              +------------+                                                                      
1419:..\..\..\..\..\..\Software\uCOS-III\Source/os_core.c **** *              | TailPtr    |                                                                      
1420:..\..\..\..\..\..\Software\uCOS-III\Source/os_core.c **** *              +------------+                                                                      
1421:..\..\..\..\..\..\Software\uCOS-III\Source/os_core.c **** *              | HeadPtr    |                                                                      
1422:..\..\..\..\..\..\Software\uCOS-III\Source/os_core.c **** *              +------------+                                                      /----------->---
1423:..\..\..\..\..\..\Software\uCOS-III\Source/os_core.c **** *              | NbrEntries |                                                      |               
1424:..\..\..\..\..\..\Software\uCOS-III\Source/os_core.c **** *              +------------+     [1]          OS_PEND_DATA                        |               
1425:..\..\..\..\..\..\Software\uCOS-III\Source/os_core.c **** *                                     +---------+------------+-------+---------+--------+---------+
ARM GAS  C:\Users\ADMINI~1\AppData\Local\Temp\cczjWrOu.s 			page 56


1426:..\..\..\..\..\..\Software\uCOS-III\Source/os_core.c **** *                             ? <---- | PrevPtr | PendObjPtr |       |         | TCBPtr | NextPtr |
1427:..\..\..\..\..\..\Software\uCOS-III\Source/os_core.c **** *                                     +---------+------------+-------+---------+--------+---------+
1428:..\..\..\..\..\..\Software\uCOS-III\Source/os_core.c **** *                                                                                                  
1429:..\..\..\..\..\..\Software\uCOS-III\Source/os_core.c **** *                                                                                                  
1430:..\..\..\..\..\..\Software\uCOS-III\Source/os_core.c **** *                                                                                                  
1431:..\..\..\..\..\..\Software\uCOS-III\Source/os_core.c **** *                                                                                                  
1432:..\..\..\..\..\..\Software\uCOS-III\Source/os_core.c **** *                                                                                                  
1433:..\..\..\..\..\..\Software\uCOS-III\Source/os_core.c **** *              OS_PEND_LIST                                                                        
1434:..\..\..\..\..\..\Software\uCOS-III\Source/os_core.c **** *              +------------+                                                                      
1435:..\..\..\..\..\..\Software\uCOS-III\Source/os_core.c **** *              | TailPtr    |                                                                      
1436:..\..\..\..\..\..\Software\uCOS-III\Source/os_core.c **** *              +------------+                                                                      
1437:..\..\..\..\..\..\Software\uCOS-III\Source/os_core.c **** *              | HeadPtr    |                                                                      
1438:..\..\..\..\..\..\Software\uCOS-III\Source/os_core.c **** *              +------------+                                                      /----------->---
1439:..\..\..\..\..\..\Software\uCOS-III\Source/os_core.c **** *              | NbrEntries |                                                      |
1440:..\..\..\..\..\..\Software\uCOS-III\Source/os_core.c **** *              +------------+     [2]          OS_PEND_DATA                        |
1441:..\..\..\..\..\..\Software\uCOS-III\Source/os_core.c **** *                                     +---------+------------+-------+---------+--------+---------+
1442:..\..\..\..\..\..\Software\uCOS-III\Source/os_core.c **** *                             ? <---- | PrevPtr | PendObjPtr |       |         | TCBPtr | NextPtr |
1443:..\..\..\..\..\..\Software\uCOS-III\Source/os_core.c **** *                                     +---------+------------+-------+---------+--------+---------+
1444:..\..\..\..\..\..\Software\uCOS-III\Source/os_core.c **** *
1445:..\..\..\..\..\..\Software\uCOS-III\Source/os_core.c **** *
1446:..\..\..\..\..\..\Software\uCOS-III\Source/os_core.c **** * Arguments  : p_tcb       is a pointer to the TCB of the task to move
1447:..\..\..\..\..\..\Software\uCOS-III\Source/os_core.c **** *              -----
1448:..\..\..\..\..\..\Software\uCOS-III\Source/os_core.c **** *
1449:..\..\..\..\..\..\Software\uCOS-III\Source/os_core.c **** * Returns    : none
1450:..\..\..\..\..\..\Software\uCOS-III\Source/os_core.c **** *
1451:..\..\..\..\..\..\Software\uCOS-III\Source/os_core.c **** * Note(s)    : 1) This function is INTERNAL to uC/OS-III and your application MUST NOT call it.
1452:..\..\..\..\..\..\Software\uCOS-III\Source/os_core.c **** *
1453:..\..\..\..\..\..\Software\uCOS-III\Source/os_core.c **** *              2) It's assumed that the TCB contains the NEW priority in its .Prio field.
1454:..\..\..\..\..\..\Software\uCOS-III\Source/os_core.c **** ***************************************************************************************************
1455:..\..\..\..\..\..\Software\uCOS-III\Source/os_core.c **** */
1456:..\..\..\..\..\..\Software\uCOS-III\Source/os_core.c **** 
1457:..\..\..\..\..\..\Software\uCOS-III\Source/os_core.c **** void  OS_PendListChangePrio (OS_TCB   *p_tcb)
1458:..\..\..\..\..\..\Software\uCOS-III\Source/os_core.c **** {
 1683              		.loc 1 1458 0
 1684              		.cfi_startproc
 1685              		@ args = 0, pretend = 0, frame = 24
 1686              		@ frame_needed = 1, uses_anonymous_args = 0
 1687 0000 80B5     		push	{r7, lr}
 1688              		.cfi_def_cfa_offset 8
 1689              		.cfi_offset 7, -8
 1690              		.cfi_offset 14, -4
 1691 0002 86B0     		sub	sp, sp, #24
 1692              		.cfi_def_cfa_offset 32
 1693 0004 00AF     		add	r7, sp, #0
 1694              		.cfi_def_cfa_register 7
 1695 0006 7860     		str	r0, [r7, #4]
1459:..\..\..\..\..\..\Software\uCOS-III\Source/os_core.c ****     OS_OBJ_QTY      n_pend_list;                                /* Number of pend lists            
1460:..\..\..\..\..\..\Software\uCOS-III\Source/os_core.c ****     OS_PEND_DATA   *p_pend_data;
1461:..\..\..\..\..\..\Software\uCOS-III\Source/os_core.c ****     OS_PEND_LIST   *p_pend_list;
1462:..\..\..\..\..\..\Software\uCOS-III\Source/os_core.c ****     OS_PEND_OBJ    *p_obj;
1463:..\..\..\..\..\..\Software\uCOS-III\Source/os_core.c **** 
1464:..\..\..\..\..\..\Software\uCOS-III\Source/os_core.c **** 
1465:..\..\..\..\..\..\Software\uCOS-III\Source/os_core.c ****     p_pend_data = p_tcb->PendDataTblPtr;                        /* Point to first wait list entry  
 1696              		.loc 1 1465 0
 1697 0008 7B68     		ldr	r3, [r7, #4]
 1698 000a 1B6B     		ldr	r3, [r3, #48]
 1699 000c 3B61     		str	r3, [r7, #16]
ARM GAS  C:\Users\ADMINI~1\AppData\Local\Temp\cczjWrOu.s 			page 57


1466:..\..\..\..\..\..\Software\uCOS-III\Source/os_core.c **** #if (OS_CFG_PEND_MULTI_EN == DEF_ENABLED)
1467:..\..\..\..\..\..\Software\uCOS-III\Source/os_core.c ****     n_pend_list = p_tcb->PendDataTblEntries;                    /* Get the number of pend list task
1468:..\..\..\..\..\..\Software\uCOS-III\Source/os_core.c **** #else
1469:..\..\..\..\..\..\Software\uCOS-III\Source/os_core.c ****     n_pend_list = 1u;
 1700              		.loc 1 1469 0
 1701 000e 1623     		movs	r3, #22
 1702 0010 FB18     		adds	r3, r7, r3
 1703 0012 0122     		movs	r2, #1
 1704 0014 1A80     		strh	r2, [r3]
1470:..\..\..\..\..\..\Software\uCOS-III\Source/os_core.c **** #endif
1471:..\..\..\..\..\..\Software\uCOS-III\Source/os_core.c **** 
1472:..\..\..\..\..\..\Software\uCOS-III\Source/os_core.c ****     while (n_pend_list > 0u) {
 1705              		.loc 1 1472 0
 1706 0016 20E0     		b	.L116
 1707              	.L118:
1473:..\..\..\..\..\..\Software\uCOS-III\Source/os_core.c ****         p_obj       =  p_pend_data->PendObjPtr;                 /* Get pointer to pend list        
 1708              		.loc 1 1473 0
 1709 0018 3B69     		ldr	r3, [r7, #16]
 1710 001a DB68     		ldr	r3, [r3, #12]
 1711 001c FB60     		str	r3, [r7, #12]
1474:..\..\..\..\..\..\Software\uCOS-III\Source/os_core.c ****         p_pend_list = &p_obj->PendList;
 1712              		.loc 1 1474 0
 1713 001e FB68     		ldr	r3, [r7, #12]
 1714 0020 0833     		adds	r3, r3, #8
 1715 0022 BB60     		str	r3, [r7, #8]
1475:..\..\..\..\..\..\Software\uCOS-III\Source/os_core.c ****         if (p_pend_list->HeadPtr->NextPtr != DEF_NULL) {        /* Only move if multiple entries in
 1716              		.loc 1 1475 0
 1717 0024 BB68     		ldr	r3, [r7, #8]
 1718 0026 1B68     		ldr	r3, [r3]
 1719 0028 5B68     		ldr	r3, [r3, #4]
 1720 002a 002B     		cmp	r3, #0
 1721 002c 0BD0     		beq	.L117
1476:..\..\..\..\..\..\Software\uCOS-III\Source/os_core.c ****             OS_PendListRemove1(p_pend_list,                     /* Remove entry from current positi
 1722              		.loc 1 1476 0
 1723 002e 3A69     		ldr	r2, [r7, #16]
 1724 0030 BB68     		ldr	r3, [r7, #8]
 1725 0032 1100     		movs	r1, r2
 1726 0034 1800     		movs	r0, r3
 1727 0036 FFF7FEFF 		bl	OS_PendListRemove1
1477:..\..\..\..\..\..\Software\uCOS-III\Source/os_core.c ****                                p_pend_data);
1478:..\..\..\..\..\..\Software\uCOS-III\Source/os_core.c ****             OS_PendListInsertPrio(p_pend_list,                  /* INSERT it back in the list      
 1728              		.loc 1 1478 0
 1729 003a 3A69     		ldr	r2, [r7, #16]
 1730 003c BB68     		ldr	r3, [r7, #8]
 1731 003e 1100     		movs	r1, r2
 1732 0040 1800     		movs	r0, r3
 1733 0042 FFF7FEFF 		bl	OS_PendListInsertPrio
 1734              	.L117:
1479:..\..\..\..\..\..\Software\uCOS-III\Source/os_core.c ****                                   p_pend_data);
1480:..\..\..\..\..\..\Software\uCOS-III\Source/os_core.c ****         }
1481:..\..\..\..\..\..\Software\uCOS-III\Source/os_core.c ****         p_pend_data++;                                          /* Point to next wait list         
 1735              		.loc 1 1481 0
 1736 0046 3B69     		ldr	r3, [r7, #16]
 1737 0048 2033     		adds	r3, r3, #32
 1738 004a 3B61     		str	r3, [r7, #16]
1482:..\..\..\..\..\..\Software\uCOS-III\Source/os_core.c ****         n_pend_list--;
 1739              		.loc 1 1482 0
ARM GAS  C:\Users\ADMINI~1\AppData\Local\Temp\cczjWrOu.s 			page 58


 1740 004c 1623     		movs	r3, #22
 1741 004e FB18     		adds	r3, r7, r3
 1742 0050 1A88     		ldrh	r2, [r3]
 1743 0052 1623     		movs	r3, #22
 1744 0054 FB18     		adds	r3, r7, r3
 1745 0056 013A     		subs	r2, r2, #1
 1746 0058 1A80     		strh	r2, [r3]
 1747              	.L116:
1472:..\..\..\..\..\..\Software\uCOS-III\Source/os_core.c ****         p_obj       =  p_pend_data->PendObjPtr;                 /* Get pointer to pend list        
 1748              		.loc 1 1472 0
 1749 005a 1623     		movs	r3, #22
 1750 005c FB18     		adds	r3, r7, r3
 1751 005e 1B88     		ldrh	r3, [r3]
 1752 0060 002B     		cmp	r3, #0
 1753 0062 D9D1     		bne	.L118
1483:..\..\..\..\..\..\Software\uCOS-III\Source/os_core.c ****     }
1484:..\..\..\..\..\..\Software\uCOS-III\Source/os_core.c **** }
 1754              		.loc 1 1484 0
 1755 0064 C046     		nop
 1756 0066 BD46     		mov	sp, r7
 1757 0068 06B0     		add	sp, sp, #24
 1758              		@ sp needed
 1759 006a 80BD     		pop	{r7, pc}
 1760              		.cfi_endproc
 1761              	.LFE15:
 1762              		.size	OS_PendListChangePrio, .-OS_PendListChangePrio
 1763              		.section	.text.OS_PendListInit,"ax",%progbits
 1764              		.align	2
 1765              		.global	OS_PendListInit
 1766              		.code	16
 1767              		.thumb_func
 1768              		.type	OS_PendListInit, %function
 1769              	OS_PendListInit:
 1770              	.LFB16:
1485:..\..\..\..\..\..\Software\uCOS-III\Source/os_core.c **** 
1486:..\..\..\..\..\..\Software\uCOS-III\Source/os_core.c **** 
1487:..\..\..\..\..\..\Software\uCOS-III\Source/os_core.c **** /*
1488:..\..\..\..\..\..\Software\uCOS-III\Source/os_core.c **** ***************************************************************************************************
1489:..\..\..\..\..\..\Software\uCOS-III\Source/os_core.c **** *                                                INITIALIZE A WAIT LIST
1490:..\..\..\..\..\..\Software\uCOS-III\Source/os_core.c **** *
1491:..\..\..\..\..\..\Software\uCOS-III\Source/os_core.c **** * Description: This function is called to initialize the fields of an OS_PEND_LIST.
1492:..\..\..\..\..\..\Software\uCOS-III\Source/os_core.c **** *
1493:..\..\..\..\..\..\Software\uCOS-III\Source/os_core.c **** * Arguments  : p_pend_list   is a pointer to an OS_PEND_LIST
1494:..\..\..\..\..\..\Software\uCOS-III\Source/os_core.c **** *              -----------
1495:..\..\..\..\..\..\Software\uCOS-III\Source/os_core.c **** *
1496:..\..\..\..\..\..\Software\uCOS-III\Source/os_core.c **** * Returns    : none
1497:..\..\..\..\..\..\Software\uCOS-III\Source/os_core.c **** *
1498:..\..\..\..\..\..\Software\uCOS-III\Source/os_core.c **** * Note(s)    : 1) This function is INTERNAL to uC/OS-III and your application must not call it.
1499:..\..\..\..\..\..\Software\uCOS-III\Source/os_core.c **** ***************************************************************************************************
1500:..\..\..\..\..\..\Software\uCOS-III\Source/os_core.c **** */
1501:..\..\..\..\..\..\Software\uCOS-III\Source/os_core.c **** 
1502:..\..\..\..\..\..\Software\uCOS-III\Source/os_core.c **** void  OS_PendListInit (OS_PEND_LIST  *p_pend_list)
1503:..\..\..\..\..\..\Software\uCOS-III\Source/os_core.c **** {
 1771              		.loc 1 1503 0
 1772              		.cfi_startproc
 1773              		@ args = 0, pretend = 0, frame = 8
 1774              		@ frame_needed = 1, uses_anonymous_args = 0
ARM GAS  C:\Users\ADMINI~1\AppData\Local\Temp\cczjWrOu.s 			page 59


 1775 0000 80B5     		push	{r7, lr}
 1776              		.cfi_def_cfa_offset 8
 1777              		.cfi_offset 7, -8
 1778              		.cfi_offset 14, -4
 1779 0002 82B0     		sub	sp, sp, #8
 1780              		.cfi_def_cfa_offset 16
 1781 0004 00AF     		add	r7, sp, #0
 1782              		.cfi_def_cfa_register 7
 1783 0006 7860     		str	r0, [r7, #4]
1504:..\..\..\..\..\..\Software\uCOS-III\Source/os_core.c ****     p_pend_list->HeadPtr    = DEF_NULL;
 1784              		.loc 1 1504 0
 1785 0008 7B68     		ldr	r3, [r7, #4]
 1786 000a 0022     		movs	r2, #0
 1787 000c 1A60     		str	r2, [r3]
1505:..\..\..\..\..\..\Software\uCOS-III\Source/os_core.c ****     p_pend_list->TailPtr    = DEF_NULL;
 1788              		.loc 1 1505 0
 1789 000e 7B68     		ldr	r3, [r7, #4]
 1790 0010 0022     		movs	r2, #0
 1791 0012 5A60     		str	r2, [r3, #4]
1506:..\..\..\..\..\..\Software\uCOS-III\Source/os_core.c **** #if (OS_CFG_DBG_EN == DEF_ENABLED)
1507:..\..\..\..\..\..\Software\uCOS-III\Source/os_core.c ****     p_pend_list->NbrEntries = 0u;
 1792              		.loc 1 1507 0
 1793 0014 7B68     		ldr	r3, [r7, #4]
 1794 0016 0022     		movs	r2, #0
 1795 0018 1A81     		strh	r2, [r3, #8]
1508:..\..\..\..\..\..\Software\uCOS-III\Source/os_core.c **** #endif
1509:..\..\..\..\..\..\Software\uCOS-III\Source/os_core.c **** }
 1796              		.loc 1 1509 0
 1797 001a C046     		nop
 1798 001c BD46     		mov	sp, r7
 1799 001e 02B0     		add	sp, sp, #8
 1800              		@ sp needed
 1801 0020 80BD     		pop	{r7, pc}
 1802              		.cfi_endproc
 1803              	.LFE16:
 1804              		.size	OS_PendListInit, .-OS_PendListInit
 1805 0022 C046     		.section	.text.OS_PendListInsertPrio,"ax",%progbits
 1806              		.align	2
 1807              		.global	OS_PendListInsertPrio
 1808              		.code	16
 1809              		.thumb_func
 1810              		.type	OS_PendListInsertPrio, %function
 1811              	OS_PendListInsertPrio:
 1812              	.LFB17:
1510:..\..\..\..\..\..\Software\uCOS-III\Source/os_core.c **** 
1511:..\..\..\..\..\..\Software\uCOS-III\Source/os_core.c **** 
1512:..\..\..\..\..\..\Software\uCOS-III\Source/os_core.c **** /*
1513:..\..\..\..\..\..\Software\uCOS-III\Source/os_core.c **** ***************************************************************************************************
1514:..\..\..\..\..\..\Software\uCOS-III\Source/os_core.c **** *                                   INSERT PEND DATA BASED ON IT'S PRIORITY IN A LIST
1515:..\..\..\..\..\..\Software\uCOS-III\Source/os_core.c **** *
1516:..\..\..\..\..\..\Software\uCOS-III\Source/os_core.c **** * Description: This function is called to place an OS_PEND_DATA entry in a linked list based on its
1517:..\..\..\..\..\..\Software\uCOS-III\Source/os_core.c **** *              highest priority being placed at the head of the list.  It's assumed that the OS_PEN
1518:..\..\..\..\..\..\Software\uCOS-III\Source/os_core.c **** *              insert points to the TCB of the task being inserted.  The TCB is also assumed to con
1519:..\..\..\..\..\..\Software\uCOS-III\Source/os_core.c **** *              of the task in its .Prio field.
1520:..\..\..\..\..\..\Software\uCOS-III\Source/os_core.c **** *
1521:..\..\..\..\..\..\Software\uCOS-III\Source/os_core.c **** *              CASE 0: Insert in an empty list.
1522:..\..\..\..\..\..\Software\uCOS-III\Source/os_core.c **** *
ARM GAS  C:\Users\ADMINI~1\AppData\Local\Temp\cczjWrOu.s 			page 60


1523:..\..\..\..\..\..\Software\uCOS-III\Source/os_core.c **** *                     OS_PEND_LIST
1524:..\..\..\..\..\..\Software\uCOS-III\Source/os_core.c **** *                     +---------------+
1525:..\..\..\..\..\..\Software\uCOS-III\Source/os_core.c **** *                     | TailPtr       |-> 0
1526:..\..\..\..\..\..\Software\uCOS-III\Source/os_core.c **** *                     +---------------+
1527:..\..\..\..\..\..\Software\uCOS-III\Source/os_core.c **** *                     | HeadPtr       |-> 0
1528:..\..\..\..\..\..\Software\uCOS-III\Source/os_core.c **** *                     +---------------+
1529:..\..\..\..\..\..\Software\uCOS-III\Source/os_core.c **** *                     | NbrEntries=0  |
1530:..\..\..\..\..\..\Software\uCOS-III\Source/os_core.c **** *                     +---------------+
1531:..\..\..\..\..\..\Software\uCOS-III\Source/os_core.c **** *
1532:..\..\..\..\..\..\Software\uCOS-III\Source/os_core.c **** *
1533:..\..\..\..\..\..\Software\uCOS-III\Source/os_core.c **** *
1534:..\..\..\..\..\..\Software\uCOS-III\Source/os_core.c **** *              CASE 1: Insert BEFORE or AFTER an OS_TCB
1535:..\..\..\..\..\..\Software\uCOS-III\Source/os_core.c **** *
1536:..\..\..\..\..\..\Software\uCOS-III\Source/os_core.c **** *                     OS_PEND_LIST
1537:..\..\..\..\..\..\Software\uCOS-III\Source/os_core.c **** *                     +--------------+         OS_PEND_DATA
1538:..\..\..\..\..\..\Software\uCOS-III\Source/os_core.c **** *                     | TailPtr      |--+---> +------------+
1539:..\..\..\..\..\..\Software\uCOS-III\Source/os_core.c **** *                     +--------------+  |     | NextPtr    |->0
1540:..\..\..\..\..\..\Software\uCOS-III\Source/os_core.c **** *                     | HeadPtr      |--/     +------------+
1541:..\..\..\..\..\..\Software\uCOS-III\Source/os_core.c **** *                     +--------------+     0<-| PrevPtr    |
1542:..\..\..\..\..\..\Software\uCOS-III\Source/os_core.c **** *                     | NbrEntries=1 |        +------------+
1543:..\..\..\..\..\..\Software\uCOS-III\Source/os_core.c **** *                     +--------------+        |            |
1544:..\..\..\..\..\..\Software\uCOS-III\Source/os_core.c **** *                                             +------------+
1545:..\..\..\..\..\..\Software\uCOS-III\Source/os_core.c **** *                                             |            |
1546:..\..\..\..\..\..\Software\uCOS-III\Source/os_core.c **** *                                             +------------+
1547:..\..\..\..\..\..\Software\uCOS-III\Source/os_core.c **** *
1548:..\..\..\..\..\..\Software\uCOS-III\Source/os_core.c **** *
1549:..\..\..\..\..\..\Software\uCOS-III\Source/os_core.c **** *                     OS_PEND_LIST
1550:..\..\..\..\..\..\Software\uCOS-III\Source/os_core.c **** *                     +--------------+
1551:..\..\..\..\..\..\Software\uCOS-III\Source/os_core.c **** *                     | TailPtr      |-----------------------------------------------+
1552:..\..\..\..\..\..\Software\uCOS-III\Source/os_core.c **** *                     +--------------+         OS_PEND_DATA         OS_PEND_DATA     |    OS_PEND_D
1553:..\..\..\..\..\..\Software\uCOS-III\Source/os_core.c **** *                     | HeadPtr      |------> +------------+       +------------+    +-> +---------
1554:..\..\..\..\..\..\Software\uCOS-III\Source/os_core.c **** *                     +--------------+        | NextPtr    |------>| NextPtr    | ...... | NextPtr 
1555:..\..\..\..\..\..\Software\uCOS-III\Source/os_core.c **** *                     | NbrEntries=N |        +------------+       +------------+        +---------
1556:..\..\..\..\..\..\Software\uCOS-III\Source/os_core.c **** *                     +--------------+     0<-| PrevPtr    |<------| PrevPtr    | ...... | PrevPtr 
1557:..\..\..\..\..\..\Software\uCOS-III\Source/os_core.c **** *                                             +------------+       +------------+        +---------
1558:..\..\..\..\..\..\Software\uCOS-III\Source/os_core.c **** *                                             |            |       |            |        |         
1559:..\..\..\..\..\..\Software\uCOS-III\Source/os_core.c **** *                                             +------------+       +------------+        +---------
1560:..\..\..\..\..\..\Software\uCOS-III\Source/os_core.c **** *                                             |            |       |            |        |         
1561:..\..\..\..\..\..\Software\uCOS-III\Source/os_core.c **** *                                             +------------+       +------------+        +---------
1562:..\..\..\..\..\..\Software\uCOS-III\Source/os_core.c **** *
1563:..\..\..\..\..\..\Software\uCOS-III\Source/os_core.c **** *
1564:..\..\..\..\..\..\Software\uCOS-III\Source/os_core.c **** * Arguments  : p_pend_list    is a pointer to the OS_PEND_LIST where the OS_PEND_DATA entry will be
1565:..\..\..\..\..\..\Software\uCOS-III\Source/os_core.c **** *              -----------
1566:..\..\..\..\..\..\Software\uCOS-III\Source/os_core.c **** *
1567:..\..\..\..\..\..\Software\uCOS-III\Source/os_core.c **** *              p_pend_data    is the OS_PEND_DATA to insert in the list
1568:..\..\..\..\..\..\Software\uCOS-III\Source/os_core.c **** *              -----------
1569:..\..\..\..\..\..\Software\uCOS-III\Source/os_core.c **** *
1570:..\..\..\..\..\..\Software\uCOS-III\Source/os_core.c **** * Returns    : none
1571:..\..\..\..\..\..\Software\uCOS-III\Source/os_core.c **** *
1572:..\..\..\..\..\..\Software\uCOS-III\Source/os_core.c **** * Note(s)    : 1) This function is INTERNAL to uC/OS-III and your application MUST NOT call it.
1573:..\..\..\..\..\..\Software\uCOS-III\Source/os_core.c **** *
1574:..\..\..\..\..\..\Software\uCOS-III\Source/os_core.c **** *              2) 'p_pend_data->TCBPtr->Prio' contains the priority of the TCB associated with the 
1575:..\..\..\..\..\..\Software\uCOS-III\Source/os_core.c **** *                 We can compare this priority with the priority of other entries in the list.
1576:..\..\..\..\..\..\Software\uCOS-III\Source/os_core.c **** ***************************************************************************************************
1577:..\..\..\..\..\..\Software\uCOS-III\Source/os_core.c **** */
1578:..\..\..\..\..\..\Software\uCOS-III\Source/os_core.c **** 
1579:..\..\..\..\..\..\Software\uCOS-III\Source/os_core.c **** void  OS_PendListInsertPrio (OS_PEND_LIST  *p_pend_list,
ARM GAS  C:\Users\ADMINI~1\AppData\Local\Temp\cczjWrOu.s 			page 61


1580:..\..\..\..\..\..\Software\uCOS-III\Source/os_core.c ****                              OS_PEND_DATA  *p_pend_data)
1581:..\..\..\..\..\..\Software\uCOS-III\Source/os_core.c **** {
 1813              		.loc 1 1581 0
 1814              		.cfi_startproc
 1815              		@ args = 0, pretend = 0, frame = 32
 1816              		@ frame_needed = 1, uses_anonymous_args = 0
 1817 0000 80B5     		push	{r7, lr}
 1818              		.cfi_def_cfa_offset 8
 1819              		.cfi_offset 7, -8
 1820              		.cfi_offset 14, -4
 1821 0002 88B0     		sub	sp, sp, #32
 1822              		.cfi_def_cfa_offset 40
 1823 0004 00AF     		add	r7, sp, #0
 1824              		.cfi_def_cfa_register 7
 1825 0006 7860     		str	r0, [r7, #4]
 1826 0008 3960     		str	r1, [r7]
1582:..\..\..\..\..\..\Software\uCOS-III\Source/os_core.c ****     OS_PRIO        prio;
1583:..\..\..\..\..\..\Software\uCOS-III\Source/os_core.c ****     OS_TCB        *p_tcb;
1584:..\..\..\..\..\..\Software\uCOS-III\Source/os_core.c ****     OS_TCB        *p_tcb_next;
1585:..\..\..\..\..\..\Software\uCOS-III\Source/os_core.c ****     OS_PEND_DATA  *p_pend_data_prev;
1586:..\..\..\..\..\..\Software\uCOS-III\Source/os_core.c ****     OS_PEND_DATA  *p_pend_data_next;
1587:..\..\..\..\..\..\Software\uCOS-III\Source/os_core.c **** 
1588:..\..\..\..\..\..\Software\uCOS-III\Source/os_core.c **** 
1589:..\..\..\..\..\..\Software\uCOS-III\Source/os_core.c **** 
1590:..\..\..\..\..\..\Software\uCOS-III\Source/os_core.c ****     p_tcb = p_pend_data->TCBPtr;                                /* Obtain the priority of the task 
 1827              		.loc 1 1590 0
 1828 000a 3B68     		ldr	r3, [r7]
 1829 000c 9B68     		ldr	r3, [r3, #8]
 1830 000e BB61     		str	r3, [r7, #24]
1591:..\..\..\..\..\..\Software\uCOS-III\Source/os_core.c ****     prio  = p_tcb->Prio;
 1831              		.loc 1 1591 0
 1832 0010 1723     		movs	r3, #23
 1833 0012 FB18     		adds	r3, r7, r3
 1834 0014 BA69     		ldr	r2, [r7, #24]
 1835 0016 3721     		movs	r1, #55
 1836 0018 525C     		ldrb	r2, [r2, r1]
 1837 001a 1A70     		strb	r2, [r3]
1592:..\..\..\..\..\..\Software\uCOS-III\Source/os_core.c ****     if (p_pend_list->HeadPtr == DEF_NULL) {                     /* CASE 0: Insert when there are no
 1838              		.loc 1 1592 0
 1839 001c 7B68     		ldr	r3, [r7, #4]
 1840 001e 1B68     		ldr	r3, [r3]
 1841 0020 002B     		cmp	r3, #0
 1842 0022 0FD1     		bne	.L121
1593:..\..\..\..\..\..\Software\uCOS-III\Source/os_core.c **** #if (OS_CFG_DBG_EN == DEF_ENABLED)
1594:..\..\..\..\..\..\Software\uCOS-III\Source/os_core.c ****         p_pend_list->NbrEntries = 1u;                           /* This is the first entry         
 1843              		.loc 1 1594 0
 1844 0024 7B68     		ldr	r3, [r7, #4]
 1845 0026 0122     		movs	r2, #1
 1846 0028 1A81     		strh	r2, [r3, #8]
1595:..\..\..\..\..\..\Software\uCOS-III\Source/os_core.c **** #endif
1596:..\..\..\..\..\..\Software\uCOS-III\Source/os_core.c ****         p_pend_data->NextPtr    = DEF_NULL;                     /* No other OS_PEND_DATAs in the li
 1847              		.loc 1 1596 0
 1848 002a 3B68     		ldr	r3, [r7]
 1849 002c 0022     		movs	r2, #0
 1850 002e 5A60     		str	r2, [r3, #4]
1597:..\..\..\..\..\..\Software\uCOS-III\Source/os_core.c ****         p_pend_data->PrevPtr    = DEF_NULL;
 1851              		.loc 1 1597 0
ARM GAS  C:\Users\ADMINI~1\AppData\Local\Temp\cczjWrOu.s 			page 62


 1852 0030 3B68     		ldr	r3, [r7]
 1853 0032 0022     		movs	r2, #0
 1854 0034 1A60     		str	r2, [r3]
1598:..\..\..\..\..\..\Software\uCOS-III\Source/os_core.c ****         p_pend_list->HeadPtr    = p_pend_data;
 1855              		.loc 1 1598 0
 1856 0036 7B68     		ldr	r3, [r7, #4]
 1857 0038 3A68     		ldr	r2, [r7]
 1858 003a 1A60     		str	r2, [r3]
1599:..\..\..\..\..\..\Software\uCOS-III\Source/os_core.c ****         p_pend_list->TailPtr    = p_pend_data;
 1859              		.loc 1 1599 0
 1860 003c 7B68     		ldr	r3, [r7, #4]
 1861 003e 3A68     		ldr	r2, [r7]
 1862 0040 5A60     		str	r2, [r3, #4]
1600:..\..\..\..\..\..\Software\uCOS-III\Source/os_core.c ****     } else {
1601:..\..\..\..\..\..\Software\uCOS-III\Source/os_core.c **** #if (OS_CFG_DBG_EN == DEF_ENABLED)
1602:..\..\..\..\..\..\Software\uCOS-III\Source/os_core.c ****         p_pend_list->NbrEntries++;                              /* CASE 1: One more OS_PEND_DATA in
1603:..\..\..\..\..\..\Software\uCOS-III\Source/os_core.c **** #endif
1604:..\..\..\..\..\..\Software\uCOS-III\Source/os_core.c ****         p_pend_data_next = p_pend_list->HeadPtr;
1605:..\..\..\..\..\..\Software\uCOS-III\Source/os_core.c ****         while (p_pend_data_next != DEF_NULL) {                  /* Find the position where to inser
1606:..\..\..\..\..\..\Software\uCOS-III\Source/os_core.c ****             p_tcb_next   = p_pend_data_next->TCBPtr;
1607:..\..\..\..\..\..\Software\uCOS-III\Source/os_core.c ****             if (prio < p_tcb_next->Prio) {
1608:..\..\..\..\..\..\Software\uCOS-III\Source/os_core.c ****                 break;                                          /* Found! ... insert BEFORE current
1609:..\..\..\..\..\..\Software\uCOS-III\Source/os_core.c ****             } else {
1610:..\..\..\..\..\..\Software\uCOS-III\Source/os_core.c ****                 p_pend_data_next = p_pend_data_next->NextPtr;   /* Not Found, follow the list      
1611:..\..\..\..\..\..\Software\uCOS-III\Source/os_core.c ****             }
1612:..\..\..\..\..\..\Software\uCOS-III\Source/os_core.c ****         }
1613:..\..\..\..\..\..\Software\uCOS-III\Source/os_core.c ****         if (p_pend_data_next == DEF_NULL) {                     /* TCB to insert is lower in prio  
1614:..\..\..\..\..\..\Software\uCOS-III\Source/os_core.c ****             p_pend_data->NextPtr      = DEF_NULL;               /* ... insert at the tail.         
1615:..\..\..\..\..\..\Software\uCOS-III\Source/os_core.c ****             p_pend_data_prev          = p_pend_list->TailPtr;
1616:..\..\..\..\..\..\Software\uCOS-III\Source/os_core.c ****             p_pend_data->PrevPtr      = p_pend_data_prev;
1617:..\..\..\..\..\..\Software\uCOS-III\Source/os_core.c ****             p_pend_data_prev->NextPtr = p_pend_data;
1618:..\..\..\..\..\..\Software\uCOS-III\Source/os_core.c ****             p_pend_list->TailPtr      = p_pend_data;
1619:..\..\..\..\..\..\Software\uCOS-III\Source/os_core.c ****         } else {
1620:..\..\..\..\..\..\Software\uCOS-III\Source/os_core.c ****             if (p_pend_data_next->PrevPtr == DEF_NULL) {        /* Is new TCB highest priority?    
1621:..\..\..\..\..\..\Software\uCOS-III\Source/os_core.c ****                 p_pend_data_next->PrevPtr = p_pend_data;        /* Yes, insert as new Head of list 
1622:..\..\..\..\..\..\Software\uCOS-III\Source/os_core.c ****                 p_pend_data->PrevPtr      = DEF_NULL;
1623:..\..\..\..\..\..\Software\uCOS-III\Source/os_core.c ****                 p_pend_data->NextPtr      = p_pend_data_next;
1624:..\..\..\..\..\..\Software\uCOS-III\Source/os_core.c ****                 p_pend_list->HeadPtr      = p_pend_data;
1625:..\..\..\..\..\..\Software\uCOS-III\Source/os_core.c ****             } else {
1626:..\..\..\..\..\..\Software\uCOS-III\Source/os_core.c ****                 p_pend_data_prev          = p_pend_data_next->PrevPtr;  /* No,  insert in between t
1627:..\..\..\..\..\..\Software\uCOS-III\Source/os_core.c ****                 p_pend_data->PrevPtr      = p_pend_data_prev;
1628:..\..\..\..\..\..\Software\uCOS-III\Source/os_core.c ****                 p_pend_data->NextPtr      = p_pend_data_next;
1629:..\..\..\..\..\..\Software\uCOS-III\Source/os_core.c ****                 p_pend_data_prev->NextPtr = p_pend_data;
1630:..\..\..\..\..\..\Software\uCOS-III\Source/os_core.c ****                 p_pend_data_next->PrevPtr = p_pend_data;
1631:..\..\..\..\..\..\Software\uCOS-III\Source/os_core.c ****             }
1632:..\..\..\..\..\..\Software\uCOS-III\Source/os_core.c ****         }
1633:..\..\..\..\..\..\Software\uCOS-III\Source/os_core.c ****     }
1634:..\..\..\..\..\..\Software\uCOS-III\Source/os_core.c **** }
 1863              		.loc 1 1634 0
 1864 0042 4FE0     		b	.L130
 1865              	.L121:
1602:..\..\..\..\..\..\Software\uCOS-III\Source/os_core.c **** #endif
 1866              		.loc 1 1602 0
 1867 0044 7B68     		ldr	r3, [r7, #4]
 1868 0046 1B89     		ldrh	r3, [r3, #8]
 1869 0048 0133     		adds	r3, r3, #1
 1870 004a 9AB2     		uxth	r2, r3
ARM GAS  C:\Users\ADMINI~1\AppData\Local\Temp\cczjWrOu.s 			page 63


 1871 004c 7B68     		ldr	r3, [r7, #4]
 1872 004e 1A81     		strh	r2, [r3, #8]
1604:..\..\..\..\..\..\Software\uCOS-III\Source/os_core.c ****         while (p_pend_data_next != DEF_NULL) {                  /* Find the position where to inser
 1873              		.loc 1 1604 0
 1874 0050 7B68     		ldr	r3, [r7, #4]
 1875 0052 1B68     		ldr	r3, [r3]
 1876 0054 FB61     		str	r3, [r7, #28]
1605:..\..\..\..\..\..\Software\uCOS-III\Source/os_core.c ****             p_tcb_next   = p_pend_data_next->TCBPtr;
 1877              		.loc 1 1605 0
 1878 0056 0DE0     		b	.L123
 1879              	.L126:
1606:..\..\..\..\..\..\Software\uCOS-III\Source/os_core.c ****             if (prio < p_tcb_next->Prio) {
 1880              		.loc 1 1606 0
 1881 0058 FB69     		ldr	r3, [r7, #28]
 1882 005a 9B68     		ldr	r3, [r3, #8]
 1883 005c 3B61     		str	r3, [r7, #16]
1607:..\..\..\..\..\..\Software\uCOS-III\Source/os_core.c ****                 break;                                          /* Found! ... insert BEFORE current
 1884              		.loc 1 1607 0
 1885 005e 3B69     		ldr	r3, [r7, #16]
 1886 0060 3722     		movs	r2, #55
 1887 0062 9B5C     		ldrb	r3, [r3, r2]
 1888 0064 1722     		movs	r2, #23
 1889 0066 BA18     		adds	r2, r7, r2
 1890 0068 1278     		ldrb	r2, [r2]
 1891 006a 9A42     		cmp	r2, r3
 1892 006c 06D3     		bcc	.L129
1610:..\..\..\..\..\..\Software\uCOS-III\Source/os_core.c ****             }
 1893              		.loc 1 1610 0
 1894 006e FB69     		ldr	r3, [r7, #28]
 1895 0070 5B68     		ldr	r3, [r3, #4]
 1896 0072 FB61     		str	r3, [r7, #28]
 1897              	.L123:
1605:..\..\..\..\..\..\Software\uCOS-III\Source/os_core.c ****             p_tcb_next   = p_pend_data_next->TCBPtr;
 1898              		.loc 1 1605 0
 1899 0074 FB69     		ldr	r3, [r7, #28]
 1900 0076 002B     		cmp	r3, #0
 1901 0078 EED1     		bne	.L126
 1902 007a 00E0     		b	.L125
 1903              	.L129:
1608:..\..\..\..\..\..\Software\uCOS-III\Source/os_core.c ****             } else {
 1904              		.loc 1 1608 0
 1905 007c C046     		nop
 1906              	.L125:
1613:..\..\..\..\..\..\Software\uCOS-III\Source/os_core.c ****             p_pend_data->NextPtr      = DEF_NULL;               /* ... insert at the tail.         
 1907              		.loc 1 1613 0
 1908 007e FB69     		ldr	r3, [r7, #28]
 1909 0080 002B     		cmp	r3, #0
 1910 0082 0FD1     		bne	.L127
1614:..\..\..\..\..\..\Software\uCOS-III\Source/os_core.c ****             p_pend_data_prev          = p_pend_list->TailPtr;
 1911              		.loc 1 1614 0
 1912 0084 3B68     		ldr	r3, [r7]
 1913 0086 0022     		movs	r2, #0
 1914 0088 5A60     		str	r2, [r3, #4]
1615:..\..\..\..\..\..\Software\uCOS-III\Source/os_core.c ****             p_pend_data->PrevPtr      = p_pend_data_prev;
 1915              		.loc 1 1615 0
 1916 008a 7B68     		ldr	r3, [r7, #4]
 1917 008c 5B68     		ldr	r3, [r3, #4]
ARM GAS  C:\Users\ADMINI~1\AppData\Local\Temp\cczjWrOu.s 			page 64


 1918 008e FB60     		str	r3, [r7, #12]
1616:..\..\..\..\..\..\Software\uCOS-III\Source/os_core.c ****             p_pend_data_prev->NextPtr = p_pend_data;
 1919              		.loc 1 1616 0
 1920 0090 3B68     		ldr	r3, [r7]
 1921 0092 FA68     		ldr	r2, [r7, #12]
 1922 0094 1A60     		str	r2, [r3]
1617:..\..\..\..\..\..\Software\uCOS-III\Source/os_core.c ****             p_pend_list->TailPtr      = p_pend_data;
 1923              		.loc 1 1617 0
 1924 0096 FB68     		ldr	r3, [r7, #12]
 1925 0098 3A68     		ldr	r2, [r7]
 1926 009a 5A60     		str	r2, [r3, #4]
1618:..\..\..\..\..\..\Software\uCOS-III\Source/os_core.c ****         } else {
 1927              		.loc 1 1618 0
 1928 009c 7B68     		ldr	r3, [r7, #4]
 1929 009e 3A68     		ldr	r2, [r7]
 1930 00a0 5A60     		str	r2, [r3, #4]
 1931              		.loc 1 1634 0
 1932 00a2 1FE0     		b	.L130
 1933              	.L127:
1620:..\..\..\..\..\..\Software\uCOS-III\Source/os_core.c ****                 p_pend_data_next->PrevPtr = p_pend_data;        /* Yes, insert as new Head of list 
 1934              		.loc 1 1620 0
 1935 00a4 FB69     		ldr	r3, [r7, #28]
 1936 00a6 1B68     		ldr	r3, [r3]
 1937 00a8 002B     		cmp	r3, #0
 1938 00aa 0CD1     		bne	.L128
1621:..\..\..\..\..\..\Software\uCOS-III\Source/os_core.c ****                 p_pend_data->PrevPtr      = DEF_NULL;
 1939              		.loc 1 1621 0
 1940 00ac FB69     		ldr	r3, [r7, #28]
 1941 00ae 3A68     		ldr	r2, [r7]
 1942 00b0 1A60     		str	r2, [r3]
1622:..\..\..\..\..\..\Software\uCOS-III\Source/os_core.c ****                 p_pend_data->NextPtr      = p_pend_data_next;
 1943              		.loc 1 1622 0
 1944 00b2 3B68     		ldr	r3, [r7]
 1945 00b4 0022     		movs	r2, #0
 1946 00b6 1A60     		str	r2, [r3]
1623:..\..\..\..\..\..\Software\uCOS-III\Source/os_core.c ****                 p_pend_list->HeadPtr      = p_pend_data;
 1947              		.loc 1 1623 0
 1948 00b8 3B68     		ldr	r3, [r7]
 1949 00ba FA69     		ldr	r2, [r7, #28]
 1950 00bc 5A60     		str	r2, [r3, #4]
1624:..\..\..\..\..\..\Software\uCOS-III\Source/os_core.c ****             } else {
 1951              		.loc 1 1624 0
 1952 00be 7B68     		ldr	r3, [r7, #4]
 1953 00c0 3A68     		ldr	r2, [r7]
 1954 00c2 1A60     		str	r2, [r3]
 1955              		.loc 1 1634 0
 1956 00c4 0EE0     		b	.L130
 1957              	.L128:
1626:..\..\..\..\..\..\Software\uCOS-III\Source/os_core.c ****                 p_pend_data->PrevPtr      = p_pend_data_prev;
 1958              		.loc 1 1626 0
 1959 00c6 FB69     		ldr	r3, [r7, #28]
 1960 00c8 1B68     		ldr	r3, [r3]
 1961 00ca FB60     		str	r3, [r7, #12]
1627:..\..\..\..\..\..\Software\uCOS-III\Source/os_core.c ****                 p_pend_data->NextPtr      = p_pend_data_next;
 1962              		.loc 1 1627 0
 1963 00cc 3B68     		ldr	r3, [r7]
 1964 00ce FA68     		ldr	r2, [r7, #12]
ARM GAS  C:\Users\ADMINI~1\AppData\Local\Temp\cczjWrOu.s 			page 65


 1965 00d0 1A60     		str	r2, [r3]
1628:..\..\..\..\..\..\Software\uCOS-III\Source/os_core.c ****                 p_pend_data_prev->NextPtr = p_pend_data;
 1966              		.loc 1 1628 0
 1967 00d2 3B68     		ldr	r3, [r7]
 1968 00d4 FA69     		ldr	r2, [r7, #28]
 1969 00d6 5A60     		str	r2, [r3, #4]
1629:..\..\..\..\..\..\Software\uCOS-III\Source/os_core.c ****                 p_pend_data_next->PrevPtr = p_pend_data;
 1970              		.loc 1 1629 0
 1971 00d8 FB68     		ldr	r3, [r7, #12]
 1972 00da 3A68     		ldr	r2, [r7]
 1973 00dc 5A60     		str	r2, [r3, #4]
1630:..\..\..\..\..\..\Software\uCOS-III\Source/os_core.c ****             }
 1974              		.loc 1 1630 0
 1975 00de FB69     		ldr	r3, [r7, #28]
 1976 00e0 3A68     		ldr	r2, [r7]
 1977 00e2 1A60     		str	r2, [r3]
 1978              	.L130:
 1979              		.loc 1 1634 0
 1980 00e4 C046     		nop
 1981 00e6 BD46     		mov	sp, r7
 1982 00e8 08B0     		add	sp, sp, #32
 1983              		@ sp needed
 1984 00ea 80BD     		pop	{r7, pc}
 1985              		.cfi_endproc
 1986              	.LFE17:
 1987              		.size	OS_PendListInsertPrio, .-OS_PendListInsertPrio
 1988              		.section	.text.OS_PendListRemove,"ax",%progbits
 1989              		.align	2
 1990              		.global	OS_PendListRemove
 1991              		.code	16
 1992              		.thumb_func
 1993              		.type	OS_PendListRemove, %function
 1994              	OS_PendListRemove:
 1995              	.LFB18:
1635:..\..\..\..\..\..\Software\uCOS-III\Source/os_core.c **** 
1636:..\..\..\..\..\..\Software\uCOS-III\Source/os_core.c **** 
1637:..\..\..\..\..\..\Software\uCOS-III\Source/os_core.c **** /*
1638:..\..\..\..\..\..\Software\uCOS-III\Source/os_core.c **** ***************************************************************************************************
1639:..\..\..\..\..\..\Software\uCOS-III\Source/os_core.c **** *                           REMOVE TASK FROM PEND LIST(s) KNOWING ONLY WHICH TCB TO REMOVE
1640:..\..\..\..\..\..\Software\uCOS-III\Source/os_core.c **** *
1641:..\..\..\..\..\..\Software\uCOS-III\Source/os_core.c **** * Description: This function is called to remove a task from a pend list knowing only the TCB of th
1642:..\..\..\..\..\..\Software\uCOS-III\Source/os_core.c **** *
1643:..\..\..\..\..\..\Software\uCOS-III\Source/os_core.c **** *
1644:..\..\..\..\..\..\Software\uCOS-III\Source/os_core.c **** *              CASE 0: OS_PEND_DATA list is empty, nothing to do.
1645:..\..\..\..\..\..\Software\uCOS-III\Source/os_core.c **** *
1646:..\..\..\..\..\..\Software\uCOS-III\Source/os_core.c **** *              CASE 1: Only 1 OS_PEND_DATA in the list.
1647:..\..\..\..\..\..\Software\uCOS-III\Source/os_core.c **** *
1648:..\..\..\..\..\..\Software\uCOS-III\Source/os_core.c **** *                     OS_PEND_LIST
1649:..\..\..\..\..\..\Software\uCOS-III\Source/os_core.c **** *                     +--------------+         OS_PEND_DATA
1650:..\..\..\..\..\..\Software\uCOS-III\Source/os_core.c **** *                     | TailPtr      |--+---> +------------+
1651:..\..\..\..\..\..\Software\uCOS-III\Source/os_core.c **** *                     +--------------+  |     | NextPtr    |->0
1652:..\..\..\..\..\..\Software\uCOS-III\Source/os_core.c **** *                     | HeadPtr      |--/     +------------+
1653:..\..\..\..\..\..\Software\uCOS-III\Source/os_core.c **** *                     +--------------+     0<-| PrevPtr    |
1654:..\..\..\..\..\..\Software\uCOS-III\Source/os_core.c **** *                     | NbrEntries=1 |        +------------+
1655:..\..\..\..\..\..\Software\uCOS-III\Source/os_core.c **** *                     +--------------+        |            |
1656:..\..\..\..\..\..\Software\uCOS-III\Source/os_core.c **** *                                             +------------+
1657:..\..\..\..\..\..\Software\uCOS-III\Source/os_core.c **** *                                             |            |
ARM GAS  C:\Users\ADMINI~1\AppData\Local\Temp\cczjWrOu.s 			page 66


1658:..\..\..\..\..\..\Software\uCOS-III\Source/os_core.c **** *                                             +------------+
1659:..\..\..\..\..\..\Software\uCOS-III\Source/os_core.c **** *
1660:..\..\..\..\..\..\Software\uCOS-III\Source/os_core.c **** *              CASE N: Two or more OS_PEND_DATAs in the list.
1661:..\..\..\..\..\..\Software\uCOS-III\Source/os_core.c **** *
1662:..\..\..\..\..\..\Software\uCOS-III\Source/os_core.c **** *                     OS_PEND_LIST
1663:..\..\..\..\..\..\Software\uCOS-III\Source/os_core.c **** *                     +--------------+
1664:..\..\..\..\..\..\Software\uCOS-III\Source/os_core.c **** *                     | TailPtr      |-----------------------------------------------+
1665:..\..\..\..\..\..\Software\uCOS-III\Source/os_core.c **** *                     +--------------+         OS_PEND_DATA         OS_PEND_DATA     |    OS_PEND_D
1666:..\..\..\..\..\..\Software\uCOS-III\Source/os_core.c **** *                     | HeadPtr      |------> +------------+       +------------+    +-> +---------
1667:..\..\..\..\..\..\Software\uCOS-III\Source/os_core.c **** *                     +--------------+        | NextPtr    |------>| NextPtr    | ...... | NextPtr 
1668:..\..\..\..\..\..\Software\uCOS-III\Source/os_core.c **** *                     | NbrEntries=N |        +------------+       +------------+        +---------
1669:..\..\..\..\..\..\Software\uCOS-III\Source/os_core.c **** *                     +--------------+     0<-| PrevPtr    |<------| PrevPtr    | ...... | PrevPtr 
1670:..\..\..\..\..\..\Software\uCOS-III\Source/os_core.c **** *                                             +------------+       +------------+        +---------
1671:..\..\..\..\..\..\Software\uCOS-III\Source/os_core.c **** *                                             |            |       |            |        |         
1672:..\..\..\..\..\..\Software\uCOS-III\Source/os_core.c **** *                                             +------------+       +------------+        +---------
1673:..\..\..\..\..\..\Software\uCOS-III\Source/os_core.c **** *                                             |            |       |            |        |         
1674:..\..\..\..\..\..\Software\uCOS-III\Source/os_core.c **** *                                             +------------+       +------------+        +---------
1675:..\..\..\..\..\..\Software\uCOS-III\Source/os_core.c **** *
1676:..\..\..\..\..\..\Software\uCOS-III\Source/os_core.c **** *
1677:..\..\..\..\..\..\Software\uCOS-III\Source/os_core.c **** * Arguments  : p_tcb          is a pointer to the TCB of the task to remove from all pend lists
1678:..\..\..\..\..\..\Software\uCOS-III\Source/os_core.c **** *              -----
1679:..\..\..\..\..\..\Software\uCOS-III\Source/os_core.c **** *
1680:..\..\..\..\..\..\Software\uCOS-III\Source/os_core.c **** * Returns    : none
1681:..\..\..\..\..\..\Software\uCOS-III\Source/os_core.c **** *
1682:..\..\..\..\..\..\Software\uCOS-III\Source/os_core.c **** * Note(s)    : 1) This function is INTERNAL to uC/OS-III and your application MUST NOT call it.
1683:..\..\..\..\..\..\Software\uCOS-III\Source/os_core.c **** ***************************************************************************************************
1684:..\..\..\..\..\..\Software\uCOS-III\Source/os_core.c **** */
1685:..\..\..\..\..\..\Software\uCOS-III\Source/os_core.c **** 
1686:..\..\..\..\..\..\Software\uCOS-III\Source/os_core.c **** void  OS_PendListRemove (OS_TCB  *p_tcb)
1687:..\..\..\..\..\..\Software\uCOS-III\Source/os_core.c **** {
 1996              		.loc 1 1687 0
 1997              		.cfi_startproc
 1998              		@ args = 0, pretend = 0, frame = 24
 1999              		@ frame_needed = 1, uses_anonymous_args = 0
 2000 0000 80B5     		push	{r7, lr}
 2001              		.cfi_def_cfa_offset 8
 2002              		.cfi_offset 7, -8
 2003              		.cfi_offset 14, -4
 2004 0002 86B0     		sub	sp, sp, #24
 2005              		.cfi_def_cfa_offset 32
 2006 0004 00AF     		add	r7, sp, #0
 2007              		.cfi_def_cfa_register 7
 2008 0006 7860     		str	r0, [r7, #4]
1688:..\..\..\..\..\..\Software\uCOS-III\Source/os_core.c ****     OS_OBJ_QTY      n_pend_list;                                /* Number of pend lists            
1689:..\..\..\..\..\..\Software\uCOS-III\Source/os_core.c ****     OS_PEND_DATA   *p_pend_data;
1690:..\..\..\..\..\..\Software\uCOS-III\Source/os_core.c ****     OS_PEND_LIST   *p_pend_list;
1691:..\..\..\..\..\..\Software\uCOS-III\Source/os_core.c ****     OS_PEND_OBJ    *p_obj;
1692:..\..\..\..\..\..\Software\uCOS-III\Source/os_core.c **** 
1693:..\..\..\..\..\..\Software\uCOS-III\Source/os_core.c **** 
1694:..\..\..\..\..\..\Software\uCOS-III\Source/os_core.c ****     if (p_tcb->PendDataTblPtr != DEF_NULL) {                    /* Only remove if object has a pend
 2009              		.loc 1 1694 0
 2010 0008 7B68     		ldr	r3, [r7, #4]
 2011 000a 1B6B     		ldr	r3, [r3, #48]
 2012 000c 002B     		cmp	r3, #0
 2013 000e 25D0     		beq	.L135
1695:..\..\..\..\..\..\Software\uCOS-III\Source/os_core.c ****         p_pend_data = p_tcb->PendDataTblPtr;                    /* Point to the first OS_PEND_DATA 
 2014              		.loc 1 1695 0
ARM GAS  C:\Users\ADMINI~1\AppData\Local\Temp\cczjWrOu.s 			page 67


 2015 0010 7B68     		ldr	r3, [r7, #4]
 2016 0012 1B6B     		ldr	r3, [r3, #48]
 2017 0014 3B61     		str	r3, [r7, #16]
1696:..\..\..\..\..\..\Software\uCOS-III\Source/os_core.c **** #if (OS_CFG_PEND_MULTI_EN == DEF_ENABLED)
1697:..\..\..\..\..\..\Software\uCOS-III\Source/os_core.c ****         n_pend_list = p_tcb->PendDataTblEntries;                /* Get number of entries in the tab
1698:..\..\..\..\..\..\Software\uCOS-III\Source/os_core.c **** #else
1699:..\..\..\..\..\..\Software\uCOS-III\Source/os_core.c ****         n_pend_list = 1u;
 2018              		.loc 1 1699 0
 2019 0016 1623     		movs	r3, #22
 2020 0018 FB18     		adds	r3, r7, r3
 2021 001a 0122     		movs	r2, #1
 2022 001c 1A80     		strh	r2, [r3]
1700:..\..\..\..\..\..\Software\uCOS-III\Source/os_core.c **** #endif
1701:..\..\..\..\..\..\Software\uCOS-III\Source/os_core.c **** 
1702:..\..\..\..\..\..\Software\uCOS-III\Source/os_core.c **** 
1703:..\..\..\..\..\..\Software\uCOS-III\Source/os_core.c ****         while (n_pend_list > 0u) {
 2023              		.loc 1 1703 0
 2024 001e 15E0     		b	.L133
 2025              	.L134:
1704:..\..\..\..\..\..\Software\uCOS-III\Source/os_core.c ****         p_obj       =  p_pend_data->PendObjPtr;                 /* Get pointer to pend list        
 2026              		.loc 1 1704 0
 2027 0020 3B69     		ldr	r3, [r7, #16]
 2028 0022 DB68     		ldr	r3, [r3, #12]
 2029 0024 FB60     		str	r3, [r7, #12]
1705:..\..\..\..\..\..\Software\uCOS-III\Source/os_core.c ****             p_pend_list = &p_obj->PendList;
 2030              		.loc 1 1705 0
 2031 0026 FB68     		ldr	r3, [r7, #12]
 2032 0028 0833     		adds	r3, r3, #8
 2033 002a BB60     		str	r3, [r7, #8]
1706:..\..\..\..\..\..\Software\uCOS-III\Source/os_core.c ****             OS_PendListRemove1(p_pend_list,
 2034              		.loc 1 1706 0
 2035 002c 3A69     		ldr	r2, [r7, #16]
 2036 002e BB68     		ldr	r3, [r7, #8]
 2037 0030 1100     		movs	r1, r2
 2038 0032 1800     		movs	r0, r3
 2039 0034 FFF7FEFF 		bl	OS_PendListRemove1
1707:..\..\..\..\..\..\Software\uCOS-III\Source/os_core.c ****                                p_pend_data);
1708:..\..\..\..\..\..\Software\uCOS-III\Source/os_core.c ****             p_pend_data++;
 2040              		.loc 1 1708 0
 2041 0038 3B69     		ldr	r3, [r7, #16]
 2042 003a 2033     		adds	r3, r3, #32
 2043 003c 3B61     		str	r3, [r7, #16]
1709:..\..\..\..\..\..\Software\uCOS-III\Source/os_core.c ****             n_pend_list--;
 2044              		.loc 1 1709 0
 2045 003e 1623     		movs	r3, #22
 2046 0040 FB18     		adds	r3, r7, r3
 2047 0042 1A88     		ldrh	r2, [r3]
 2048 0044 1623     		movs	r3, #22
 2049 0046 FB18     		adds	r3, r7, r3
 2050 0048 013A     		subs	r2, r2, #1
 2051 004a 1A80     		strh	r2, [r3]
 2052              	.L133:
1703:..\..\..\..\..\..\Software\uCOS-III\Source/os_core.c ****         p_obj       =  p_pend_data->PendObjPtr;                 /* Get pointer to pend list        
 2053              		.loc 1 1703 0
 2054 004c 1623     		movs	r3, #22
 2055 004e FB18     		adds	r3, r7, r3
 2056 0050 1B88     		ldrh	r3, [r3]
ARM GAS  C:\Users\ADMINI~1\AppData\Local\Temp\cczjWrOu.s 			page 68


 2057 0052 002B     		cmp	r3, #0
 2058 0054 E4D1     		bne	.L134
1710:..\..\..\..\..\..\Software\uCOS-III\Source/os_core.c ****         }
1711:..\..\..\..\..\..\Software\uCOS-III\Source/os_core.c ****     #if (OS_CFG_PEND_MULTI_EN == DEF_ENABLED)
1712:..\..\..\..\..\..\Software\uCOS-III\Source/os_core.c ****         p_tcb->PendDataTblEntries = 0u;
1713:..\..\..\..\..\..\Software\uCOS-III\Source/os_core.c ****     #endif
1714:..\..\..\..\..\..\Software\uCOS-III\Source/os_core.c ****         p_tcb->PendDataTblPtr     = DEF_NULL;
 2059              		.loc 1 1714 0
 2060 0056 7B68     		ldr	r3, [r7, #4]
 2061 0058 0022     		movs	r2, #0
 2062 005a 1A63     		str	r2, [r3, #48]
 2063              	.L135:
1715:..\..\..\..\..\..\Software\uCOS-III\Source/os_core.c ****     }
1716:..\..\..\..\..\..\Software\uCOS-III\Source/os_core.c **** }
 2064              		.loc 1 1716 0
 2065 005c C046     		nop
 2066 005e BD46     		mov	sp, r7
 2067 0060 06B0     		add	sp, sp, #24
 2068              		@ sp needed
 2069 0062 80BD     		pop	{r7, pc}
 2070              		.cfi_endproc
 2071              	.LFE18:
 2072              		.size	OS_PendListRemove, .-OS_PendListRemove
 2073              		.section	.text.OS_PendListRemove1,"ax",%progbits
 2074              		.align	2
 2075              		.global	OS_PendListRemove1
 2076              		.code	16
 2077              		.thumb_func
 2078              		.type	OS_PendListRemove1, %function
 2079              	OS_PendListRemove1:
 2080              	.LFB19:
1717:..\..\..\..\..\..\Software\uCOS-III\Source/os_core.c **** 
1718:..\..\..\..\..\..\Software\uCOS-III\Source/os_core.c **** 
1719:..\..\..\..\..\..\Software\uCOS-III\Source/os_core.c **** /*
1720:..\..\..\..\..\..\Software\uCOS-III\Source/os_core.c **** ***************************************************************************************************
1721:..\..\..\..\..\..\Software\uCOS-III\Source/os_core.c **** *                               REMOVE AN 'OS_PEND_DATA' ENTRY from a 'OS_PEND_LIST'
1722:..\..\..\..\..\..\Software\uCOS-III\Source/os_core.c **** *
1723:..\..\..\..\..\..\Software\uCOS-III\Source/os_core.c **** * Description: This function is called to remove a task from a wait list knowing only the TCB of th
1724:..\..\..\..\..\..\Software\uCOS-III\Source/os_core.c **** *
1725:..\..\..\..\..\..\Software\uCOS-III\Source/os_core.c **** *
1726:..\..\..\..\..\..\Software\uCOS-III\Source/os_core.c **** *              CASE 1: Only 1 OS_PEND_DATA in the list.
1727:..\..\..\..\..\..\Software\uCOS-III\Source/os_core.c **** *
1728:..\..\..\..\..\..\Software\uCOS-III\Source/os_core.c **** *                     OS_PEND_LIST
1729:..\..\..\..\..\..\Software\uCOS-III\Source/os_core.c **** *                     +--------------+         OS_PEND_DATA
1730:..\..\..\..\..\..\Software\uCOS-III\Source/os_core.c **** *                     | TailPtr      |--+---> +------------+
1731:..\..\..\..\..\..\Software\uCOS-III\Source/os_core.c **** *                     +--------------+  |     | NextPtr    |->0
1732:..\..\..\..\..\..\Software\uCOS-III\Source/os_core.c **** *                     | HeadPtr      |--/      +------------+
1733:..\..\..\..\..\..\Software\uCOS-III\Source/os_core.c **** *                     +--------------+     0<-| PrevPtr    |
1734:..\..\..\..\..\..\Software\uCOS-III\Source/os_core.c **** *                     | NbrEntries=1 |        +------------+
1735:..\..\..\..\..\..\Software\uCOS-III\Source/os_core.c **** *                     +--------------+        |            |
1736:..\..\..\..\..\..\Software\uCOS-III\Source/os_core.c **** *                                             +------------+
1737:..\..\..\..\..\..\Software\uCOS-III\Source/os_core.c **** *                                             |            |
1738:..\..\..\..\..\..\Software\uCOS-III\Source/os_core.c **** *                                             +------------+
1739:..\..\..\..\..\..\Software\uCOS-III\Source/os_core.c **** *
1740:..\..\..\..\..\..\Software\uCOS-III\Source/os_core.c **** *              CASE N: Two or more OS_PEND_DATAs in the list.
1741:..\..\..\..\..\..\Software\uCOS-III\Source/os_core.c **** *
1742:..\..\..\..\..\..\Software\uCOS-III\Source/os_core.c **** *                     OS_PEND_LIST
ARM GAS  C:\Users\ADMINI~1\AppData\Local\Temp\cczjWrOu.s 			page 69


1743:..\..\..\..\..\..\Software\uCOS-III\Source/os_core.c **** *                     +--------------+
1744:..\..\..\..\..\..\Software\uCOS-III\Source/os_core.c **** *                     | TailPtr      |-----------------------------------------------+
1745:..\..\..\..\..\..\Software\uCOS-III\Source/os_core.c **** *                     +--------------+         OS_PEND_DATA         OS_PEND_DATA     |    OS_PEND_D
1746:..\..\..\..\..\..\Software\uCOS-III\Source/os_core.c **** *                     | HeadPtr      |------> +------------+       +------------+    +-> +---------
1747:..\..\..\..\..\..\Software\uCOS-III\Source/os_core.c **** *                     +--------------+        | NextPtr    |------>| NextPtr    | ...... | NextPtr 
1748:..\..\..\..\..\..\Software\uCOS-III\Source/os_core.c **** *                     | NbrEntries=N |        +------------+       +------------+        +---------
1749:..\..\..\..\..\..\Software\uCOS-III\Source/os_core.c **** *                     +--------------+     0<-| PrevPtr    |<------| PrevPtr    | ...... | PrevPtr 
1750:..\..\..\..\..\..\Software\uCOS-III\Source/os_core.c **** *                                             +------------+       +------------+        +---------
1751:..\..\..\..\..\..\Software\uCOS-III\Source/os_core.c **** *                                             |            |       |            |        |         
1752:..\..\..\..\..\..\Software\uCOS-III\Source/os_core.c **** *                                             +------------+       +------------+        +---------
1753:..\..\..\..\..\..\Software\uCOS-III\Source/os_core.c **** *                                             |            |       |            |        |         
1754:..\..\..\..\..\..\Software\uCOS-III\Source/os_core.c **** *                                             +------------+       +------------+        +---------
1755:..\..\..\..\..\..\Software\uCOS-III\Source/os_core.c **** *
1756:..\..\..\..\..\..\Software\uCOS-III\Source/os_core.c **** *
1757:..\..\..\..\..\..\Software\uCOS-III\Source/os_core.c **** * Arguments  : p_pend_list     is a pointer to the pend list where 'p_pend_data' will be removed fr
1758:..\..\..\..\..\..\Software\uCOS-III\Source/os_core.c **** *              -----------
1759:..\..\..\..\..\..\Software\uCOS-III\Source/os_core.c **** *
1760:..\..\..\..\..\..\Software\uCOS-III\Source/os_core.c **** *              p_pend_data     is a pointer to the OS_PEND_DATA to remove from the pend list
1761:..\..\..\..\..\..\Software\uCOS-III\Source/os_core.c **** *              -----------
1762:..\..\..\..\..\..\Software\uCOS-III\Source/os_core.c **** *
1763:..\..\..\..\..\..\Software\uCOS-III\Source/os_core.c **** * Returns    : none
1764:..\..\..\..\..\..\Software\uCOS-III\Source/os_core.c **** *
1765:..\..\..\..\..\..\Software\uCOS-III\Source/os_core.c **** * Note(s)    : 1) This function is INTERNAL to uC/OS-III and your application MUST NOT call it.
1766:..\..\..\..\..\..\Software\uCOS-III\Source/os_core.c **** ***************************************************************************************************
1767:..\..\..\..\..\..\Software\uCOS-III\Source/os_core.c **** */
1768:..\..\..\..\..\..\Software\uCOS-III\Source/os_core.c **** 
1769:..\..\..\..\..\..\Software\uCOS-III\Source/os_core.c **** void  OS_PendListRemove1 (OS_PEND_LIST  *p_pend_list,
1770:..\..\..\..\..\..\Software\uCOS-III\Source/os_core.c ****                           OS_PEND_DATA  *p_pend_data)
1771:..\..\..\..\..\..\Software\uCOS-III\Source/os_core.c **** {
 2081              		.loc 1 1771 0
 2082              		.cfi_startproc
 2083              		@ args = 0, pretend = 0, frame = 16
 2084              		@ frame_needed = 1, uses_anonymous_args = 0
 2085 0000 80B5     		push	{r7, lr}
 2086              		.cfi_def_cfa_offset 8
 2087              		.cfi_offset 7, -8
 2088              		.cfi_offset 14, -4
 2089 0002 84B0     		sub	sp, sp, #16
 2090              		.cfi_def_cfa_offset 24
 2091 0004 00AF     		add	r7, sp, #0
 2092              		.cfi_def_cfa_register 7
 2093 0006 7860     		str	r0, [r7, #4]
 2094 0008 3960     		str	r1, [r7]
1772:..\..\..\..\..\..\Software\uCOS-III\Source/os_core.c ****     OS_PEND_DATA  *p_prev;
1773:..\..\..\..\..\..\Software\uCOS-III\Source/os_core.c ****     OS_PEND_DATA  *p_next;
1774:..\..\..\..\..\..\Software\uCOS-III\Source/os_core.c **** 
1775:..\..\..\..\..\..\Software\uCOS-III\Source/os_core.c **** 
1776:..\..\..\..\..\..\Software\uCOS-III\Source/os_core.c **** 
1777:..\..\..\..\..\..\Software\uCOS-III\Source/os_core.c ****     if (p_pend_list->HeadPtr->NextPtr == DEF_NULL) {
 2095              		.loc 1 1777 0
 2096 000a 7B68     		ldr	r3, [r7, #4]
 2097 000c 1B68     		ldr	r3, [r3]
 2098 000e 5B68     		ldr	r3, [r3, #4]
 2099 0010 002B     		cmp	r3, #0
 2100 0012 06D1     		bne	.L137
1778:..\..\..\..\..\..\Software\uCOS-III\Source/os_core.c ****         p_pend_list->HeadPtr = DEF_NULL;                        /* Only one entry in the pend list 
 2101              		.loc 1 1778 0
ARM GAS  C:\Users\ADMINI~1\AppData\Local\Temp\cczjWrOu.s 			page 70


 2102 0014 7B68     		ldr	r3, [r7, #4]
 2103 0016 0022     		movs	r2, #0
 2104 0018 1A60     		str	r2, [r3]
1779:..\..\..\..\..\..\Software\uCOS-III\Source/os_core.c ****         p_pend_list->TailPtr = DEF_NULL;
 2105              		.loc 1 1779 0
 2106 001a 7B68     		ldr	r3, [r7, #4]
 2107 001c 0022     		movs	r2, #0
 2108 001e 5A60     		str	r2, [r3, #4]
 2109 0020 27E0     		b	.L138
 2110              	.L137:
1780:..\..\..\..\..\..\Software\uCOS-III\Source/os_core.c **** 
1781:..\..\..\..\..\..\Software\uCOS-III\Source/os_core.c ****     } else if (p_pend_data->PrevPtr == DEF_NULL) {              /* See if entry is at the head of t
 2111              		.loc 1 1781 0
 2112 0022 3B68     		ldr	r3, [r7]
 2113 0024 1B68     		ldr	r3, [r3]
 2114 0026 002B     		cmp	r3, #0
 2115 0028 09D1     		bne	.L139
1782:..\..\..\..\..\..\Software\uCOS-III\Source/os_core.c ****         p_next               = p_pend_data->NextPtr;            /* Yes                             
 2116              		.loc 1 1782 0
 2117 002a 3B68     		ldr	r3, [r7]
 2118 002c 5B68     		ldr	r3, [r3, #4]
 2119 002e FB60     		str	r3, [r7, #12]
1783:..\..\..\..\..\..\Software\uCOS-III\Source/os_core.c ****         p_next->PrevPtr      = DEF_NULL;
 2120              		.loc 1 1783 0
 2121 0030 FB68     		ldr	r3, [r7, #12]
 2122 0032 0022     		movs	r2, #0
 2123 0034 1A60     		str	r2, [r3]
1784:..\..\..\..\..\..\Software\uCOS-III\Source/os_core.c ****         p_pend_list->HeadPtr = p_next;
 2124              		.loc 1 1784 0
 2125 0036 7B68     		ldr	r3, [r7, #4]
 2126 0038 FA68     		ldr	r2, [r7, #12]
 2127 003a 1A60     		str	r2, [r3]
 2128 003c 19E0     		b	.L138
 2129              	.L139:
1785:..\..\..\..\..\..\Software\uCOS-III\Source/os_core.c **** 
1786:..\..\..\..\..\..\Software\uCOS-III\Source/os_core.c ****     } else if (p_pend_data->NextPtr == DEF_NULL) {              /* See if entry is at the tail of t
 2130              		.loc 1 1786 0
 2131 003e 3B68     		ldr	r3, [r7]
 2132 0040 5B68     		ldr	r3, [r3, #4]
 2133 0042 002B     		cmp	r3, #0
 2134 0044 09D1     		bne	.L140
1787:..\..\..\..\..\..\Software\uCOS-III\Source/os_core.c ****         p_prev               = p_pend_data->PrevPtr;            /* Yes                             
 2135              		.loc 1 1787 0
 2136 0046 3B68     		ldr	r3, [r7]
 2137 0048 1B68     		ldr	r3, [r3]
 2138 004a BB60     		str	r3, [r7, #8]
1788:..\..\..\..\..\..\Software\uCOS-III\Source/os_core.c ****         p_prev->NextPtr      = DEF_NULL;
 2139              		.loc 1 1788 0
 2140 004c BB68     		ldr	r3, [r7, #8]
 2141 004e 0022     		movs	r2, #0
 2142 0050 5A60     		str	r2, [r3, #4]
1789:..\..\..\..\..\..\Software\uCOS-III\Source/os_core.c ****         p_pend_list->TailPtr = p_prev;
 2143              		.loc 1 1789 0
 2144 0052 7B68     		ldr	r3, [r7, #4]
 2145 0054 BA68     		ldr	r2, [r7, #8]
 2146 0056 5A60     		str	r2, [r3, #4]
 2147 0058 0BE0     		b	.L138
ARM GAS  C:\Users\ADMINI~1\AppData\Local\Temp\cczjWrOu.s 			page 71


 2148              	.L140:
1790:..\..\..\..\..\..\Software\uCOS-III\Source/os_core.c **** 
1791:..\..\..\..\..\..\Software\uCOS-III\Source/os_core.c ****     } else {
1792:..\..\..\..\..\..\Software\uCOS-III\Source/os_core.c ****         p_prev               = p_pend_data->PrevPtr;            /* Remove from inside the list     
 2149              		.loc 1 1792 0
 2150 005a 3B68     		ldr	r3, [r7]
 2151 005c 1B68     		ldr	r3, [r3]
 2152 005e BB60     		str	r3, [r7, #8]
1793:..\..\..\..\..\..\Software\uCOS-III\Source/os_core.c ****         p_next               = p_pend_data->NextPtr;
 2153              		.loc 1 1793 0
 2154 0060 3B68     		ldr	r3, [r7]
 2155 0062 5B68     		ldr	r3, [r3, #4]
 2156 0064 FB60     		str	r3, [r7, #12]
1794:..\..\..\..\..\..\Software\uCOS-III\Source/os_core.c ****         p_prev->NextPtr      = p_next;
 2157              		.loc 1 1794 0
 2158 0066 BB68     		ldr	r3, [r7, #8]
 2159 0068 FA68     		ldr	r2, [r7, #12]
 2160 006a 5A60     		str	r2, [r3, #4]
1795:..\..\..\..\..\..\Software\uCOS-III\Source/os_core.c ****         p_next->PrevPtr      = p_prev;
 2161              		.loc 1 1795 0
 2162 006c FB68     		ldr	r3, [r7, #12]
 2163 006e BA68     		ldr	r2, [r7, #8]
 2164 0070 1A60     		str	r2, [r3]
 2165              	.L138:
1796:..\..\..\..\..\..\Software\uCOS-III\Source/os_core.c ****     }
1797:..\..\..\..\..\..\Software\uCOS-III\Source/os_core.c **** #if (OS_CFG_DBG_EN == DEF_ENABLED)
1798:..\..\..\..\..\..\Software\uCOS-III\Source/os_core.c ****     p_pend_list->NbrEntries--;                                  /* One less entry in the list      
 2166              		.loc 1 1798 0
 2167 0072 7B68     		ldr	r3, [r7, #4]
 2168 0074 1B89     		ldrh	r3, [r3, #8]
 2169 0076 013B     		subs	r3, r3, #1
 2170 0078 9AB2     		uxth	r2, r3
 2171 007a 7B68     		ldr	r3, [r7, #4]
 2172 007c 1A81     		strh	r2, [r3, #8]
1799:..\..\..\..\..\..\Software\uCOS-III\Source/os_core.c **** #endif
1800:..\..\..\..\..\..\Software\uCOS-III\Source/os_core.c ****     p_pend_data->NextPtr = DEF_NULL;
 2173              		.loc 1 1800 0
 2174 007e 3B68     		ldr	r3, [r7]
 2175 0080 0022     		movs	r2, #0
 2176 0082 5A60     		str	r2, [r3, #4]
1801:..\..\..\..\..\..\Software\uCOS-III\Source/os_core.c ****     p_pend_data->PrevPtr = DEF_NULL;
 2177              		.loc 1 1801 0
 2178 0084 3B68     		ldr	r3, [r7]
 2179 0086 0022     		movs	r2, #0
 2180 0088 1A60     		str	r2, [r3]
1802:..\..\..\..\..\..\Software\uCOS-III\Source/os_core.c **** }
 2181              		.loc 1 1802 0
 2182 008a C046     		nop
 2183 008c BD46     		mov	sp, r7
 2184 008e 04B0     		add	sp, sp, #16
 2185              		@ sp needed
 2186 0090 80BD     		pop	{r7, pc}
 2187              		.cfi_endproc
 2188              	.LFE19:
 2189              		.size	OS_PendListRemove1, .-OS_PendListRemove1
 2190 0092 C046     		.section	.text.OS_PendObjDel,"ax",%progbits
 2191              		.align	2
ARM GAS  C:\Users\ADMINI~1\AppData\Local\Temp\cczjWrOu.s 			page 72


 2192              		.global	OS_PendObjDel
 2193              		.code	16
 2194              		.thumb_func
 2195              		.type	OS_PendObjDel, %function
 2196              	OS_PendObjDel:
 2197              	.LFB20:
1803:..\..\..\..\..\..\Software\uCOS-III\Source/os_core.c **** 
1804:..\..\..\..\..\..\Software\uCOS-III\Source/os_core.c **** 
1805:..\..\..\..\..\..\Software\uCOS-III\Source/os_core.c **** /*
1806:..\..\..\..\..\..\Software\uCOS-III\Source/os_core.c **** ***************************************************************************************************
1807:..\..\..\..\..\..\Software\uCOS-III\Source/os_core.c **** *                                READY A TASK THAT WAS PENDING ON AN OBJECT BEING DELETED
1808:..\..\..\..\..\..\Software\uCOS-III\Source/os_core.c **** *
1809:..\..\..\..\..\..\Software\uCOS-III\Source/os_core.c **** * Description: This function is called to make a task ready-to-run because an object is being delet
1810:..\..\..\..\..\..\Software\uCOS-III\Source/os_core.c **** *
1811:..\..\..\..\..\..\Software\uCOS-III\Source/os_core.c **** * Arguments  : p_obj          is a pointer to the object being deleted
1812:..\..\..\..\..\..\Software\uCOS-III\Source/os_core.c **** *              -----
1813:..\..\..\..\..\..\Software\uCOS-III\Source/os_core.c **** *
1814:..\..\..\..\..\..\Software\uCOS-III\Source/os_core.c **** *              p_tcb          is a pointer to the OS_TCB of the task to make ready-to-run
1815:..\..\..\..\..\..\Software\uCOS-III\Source/os_core.c **** *              -----
1816:..\..\..\..\..\..\Software\uCOS-III\Source/os_core.c **** *
1817:..\..\..\..\..\..\Software\uCOS-III\Source/os_core.c **** *              ts             is a timestamp to indicate when the object was deleted
1818:..\..\..\..\..\..\Software\uCOS-III\Source/os_core.c **** *
1819:..\..\..\..\..\..\Software\uCOS-III\Source/os_core.c **** * Returns    : none
1820:..\..\..\..\..\..\Software\uCOS-III\Source/os_core.c **** *
1821:..\..\..\..\..\..\Software\uCOS-III\Source/os_core.c **** * Note(s)    : This function is INTERNAL to uC/OS-III and your application should not call it.
1822:..\..\..\..\..\..\Software\uCOS-III\Source/os_core.c **** ***************************************************************************************************
1823:..\..\..\..\..\..\Software\uCOS-III\Source/os_core.c **** */
1824:..\..\..\..\..\..\Software\uCOS-III\Source/os_core.c **** 
1825:..\..\..\..\..\..\Software\uCOS-III\Source/os_core.c **** void  OS_PendObjDel (OS_PEND_OBJ  *p_obj,
1826:..\..\..\..\..\..\Software\uCOS-III\Source/os_core.c ****                      OS_TCB       *p_tcb,
1827:..\..\..\..\..\..\Software\uCOS-III\Source/os_core.c ****                      CPU_TS        ts)
1828:..\..\..\..\..\..\Software\uCOS-III\Source/os_core.c **** {
 2198              		.loc 1 1828 0
 2199              		.cfi_startproc
 2200              		@ args = 0, pretend = 0, frame = 16
 2201              		@ frame_needed = 1, uses_anonymous_args = 0
 2202 0000 80B5     		push	{r7, lr}
 2203              		.cfi_def_cfa_offset 8
 2204              		.cfi_offset 7, -8
 2205              		.cfi_offset 14, -4
 2206 0002 84B0     		sub	sp, sp, #16
 2207              		.cfi_def_cfa_offset 24
 2208 0004 00AF     		add	r7, sp, #0
 2209              		.cfi_def_cfa_register 7
 2210 0006 F860     		str	r0, [r7, #12]
 2211 0008 B960     		str	r1, [r7, #8]
 2212 000a 7A60     		str	r2, [r7, #4]
1829:..\..\..\..\..\..\Software\uCOS-III\Source/os_core.c **** #if (OS_CFG_TS_EN == DEF_DISABLED)
1830:..\..\..\..\..\..\Software\uCOS-III\Source/os_core.c ****     (void)ts;                                                   /* Prevent compiler warning for not
1831:..\..\..\..\..\..\Software\uCOS-III\Source/os_core.c **** #endif
1832:..\..\..\..\..\..\Software\uCOS-III\Source/os_core.c **** #if (OS_CFG_PEND_MULTI_EN == DEF_DISABLED)
1833:..\..\..\..\..\..\Software\uCOS-III\Source/os_core.c ****     (void)p_obj;
1834:..\..\..\..\..\..\Software\uCOS-III\Source/os_core.c **** #endif
1835:..\..\..\..\..\..\Software\uCOS-III\Source/os_core.c **** 
1836:..\..\..\..\..\..\Software\uCOS-III\Source/os_core.c ****     switch (p_tcb->TaskState) {
 2213              		.loc 1 1836 0
 2214 000c BB68     		ldr	r3, [r7, #8]
ARM GAS  C:\Users\ADMINI~1\AppData\Local\Temp\cczjWrOu.s 			page 73


 2215 000e 3622     		movs	r2, #54
 2216 0010 9B5C     		ldrb	r3, [r3, r2]
 2217 0012 072B     		cmp	r3, #7
 2218 0014 50D8     		bhi	.L150
 2219 0016 9A00     		lsls	r2, r3, #2
 2220 0018 2B4B     		ldr	r3, .L152
 2221 001a D318     		adds	r3, r2, r3
 2222 001c 1B68     		ldr	r3, [r3]
 2223 001e 9F46     		mov	pc, r3
 2224              		.section	.rodata
 2225 002a 0000     		.align	2
 2226              	.L144:
 2227 002c BC000000 		.word	.L151
 2228 0030 BC000000 		.word	.L151
 2229 0034 20000000 		.word	.L145
 2230 0038 20000000 		.word	.L145
 2231 003c BC000000 		.word	.L151
 2232 0040 BC000000 		.word	.L151
 2233 0044 70000000 		.word	.L146
 2234 0048 70000000 		.word	.L146
 2235              		.section	.text.OS_PendObjDel
 2236              	.L145:
1837:..\..\..\..\..\..\Software\uCOS-III\Source/os_core.c ****         case OS_TASK_STATE_RDY:                                 /* These states should never occur 
1838:..\..\..\..\..\..\Software\uCOS-III\Source/os_core.c ****         case OS_TASK_STATE_DLY:
1839:..\..\..\..\..\..\Software\uCOS-III\Source/os_core.c ****         case OS_TASK_STATE_SUSPENDED:
1840:..\..\..\..\..\..\Software\uCOS-III\Source/os_core.c ****         case OS_TASK_STATE_DLY_SUSPENDED:
1841:..\..\..\..\..\..\Software\uCOS-III\Source/os_core.c ****              break;
1842:..\..\..\..\..\..\Software\uCOS-III\Source/os_core.c **** 
1843:..\..\..\..\..\..\Software\uCOS-III\Source/os_core.c ****         case OS_TASK_STATE_PEND:
1844:..\..\..\..\..\..\Software\uCOS-III\Source/os_core.c ****         case OS_TASK_STATE_PEND_TIMEOUT:
1845:..\..\..\..\..\..\Software\uCOS-III\Source/os_core.c **** #if (OS_CFG_PEND_MULTI_EN == DEF_ENABLED)
1846:..\..\..\..\..\..\Software\uCOS-III\Source/os_core.c ****              if (p_tcb->PendOn == OS_TASK_PEND_ON_MULTI) {
1847:..\..\..\..\..\..\Software\uCOS-III\Source/os_core.c ****                  OS_PendObjDel1(p_obj,                          /* Indicate which object was pend a
1848:..\..\..\..\..\..\Software\uCOS-III\Source/os_core.c ****                                 p_tcb,
1849:..\..\..\..\..\..\Software\uCOS-III\Source/os_core.c ****                                 ts);
1850:..\..\..\..\..\..\Software\uCOS-III\Source/os_core.c ****              }
1851:..\..\..\..\..\..\Software\uCOS-III\Source/os_core.c **** #endif
1852:..\..\..\..\..\..\Software\uCOS-III\Source/os_core.c **** #if (OS_MSG_EN == DEF_ENABLED)
1853:..\..\..\..\..\..\Software\uCOS-III\Source/os_core.c ****              p_tcb->MsgPtr     = DEF_NULL;
 2237              		.loc 1 1853 0
 2238 0020 BB68     		ldr	r3, [r7, #8]
 2239 0022 0022     		movs	r2, #0
 2240 0024 9A65     		str	r2, [r3, #88]
1854:..\..\..\..\..\..\Software\uCOS-III\Source/os_core.c ****              p_tcb->MsgSize    = 0u;
 2241              		.loc 1 1854 0
 2242 0026 BB68     		ldr	r3, [r7, #8]
 2243 0028 5C22     		movs	r2, #92
 2244 002a 0021     		movs	r1, #0
 2245 002c 9952     		strh	r1, [r3, r2]
1855:..\..\..\..\..\..\Software\uCOS-III\Source/os_core.c **** #endif
1856:..\..\..\..\..\..\Software\uCOS-III\Source/os_core.c **** #if (OS_CFG_TS_EN == DEF_ENABLED)
1857:..\..\..\..\..\..\Software\uCOS-III\Source/os_core.c ****              p_tcb->TS         = ts;
 2246              		.loc 1 1857 0
 2247 002e BB68     		ldr	r3, [r7, #8]
 2248 0030 7A68     		ldr	r2, [r7, #4]
 2249 0032 9A64     		str	r2, [r3, #72]
1858:..\..\..\..\..\..\Software\uCOS-III\Source/os_core.c **** #endif
ARM GAS  C:\Users\ADMINI~1\AppData\Local\Temp\cczjWrOu.s 			page 74


1859:..\..\..\..\..\..\Software\uCOS-III\Source/os_core.c ****              OS_PendListRemove(p_tcb);                          /* Remove task from all wait lists 
 2250              		.loc 1 1859 0
 2251 0034 BB68     		ldr	r3, [r7, #8]
 2252 0036 1800     		movs	r0, r3
 2253 0038 FFF7FEFF 		bl	OS_PendListRemove
1860:..\..\..\..\..\..\Software\uCOS-III\Source/os_core.c **** #if (OS_CFG_TASK_TICK_EN == DEF_ENABLED)
1861:..\..\..\..\..\..\Software\uCOS-III\Source/os_core.c ****              if (p_tcb->TaskState == OS_TASK_STATE_PEND_TIMEOUT) {
 2254              		.loc 1 1861 0
 2255 003c BB68     		ldr	r3, [r7, #8]
 2256 003e 3622     		movs	r2, #54
 2257 0040 9B5C     		ldrb	r3, [r3, r2]
 2258 0042 032B     		cmp	r3, #3
 2259 0044 03D1     		bne	.L148
1862:..\..\..\..\..\..\Software\uCOS-III\Source/os_core.c ****                  OS_TickListRemove(p_tcb);                      /* Remove from tick list           
 2260              		.loc 1 1862 0
 2261 0046 BB68     		ldr	r3, [r7, #8]
 2262 0048 1800     		movs	r0, r3
 2263 004a FFF7FEFF 		bl	OS_TickListRemove
 2264              	.L148:
1863:..\..\..\..\..\..\Software\uCOS-III\Source/os_core.c ****              }
1864:..\..\..\..\..\..\Software\uCOS-III\Source/os_core.c **** #endif
1865:..\..\..\..\..\..\Software\uCOS-III\Source/os_core.c ****              OS_RdyListInsert(p_tcb);                           /* Insert the task in the ready lis
 2265              		.loc 1 1865 0
 2266 004e BB68     		ldr	r3, [r7, #8]
 2267 0050 1800     		movs	r0, r3
 2268 0052 FFF7FEFF 		bl	OS_RdyListInsert
1866:..\..\..\..\..\..\Software\uCOS-III\Source/os_core.c ****              p_tcb->TaskState  = OS_TASK_STATE_RDY;             /* Task is readied because object i
 2269              		.loc 1 1866 0
 2270 0056 BB68     		ldr	r3, [r7, #8]
 2271 0058 3622     		movs	r2, #54
 2272 005a 0021     		movs	r1, #0
 2273 005c 9954     		strb	r1, [r3, r2]
1867:..\..\..\..\..\..\Software\uCOS-III\Source/os_core.c ****              p_tcb->PendStatus = OS_STATUS_PEND_DEL;
 2274              		.loc 1 1867 0
 2275 005e BB68     		ldr	r3, [r7, #8]
 2276 0060 3522     		movs	r2, #53
 2277 0062 0221     		movs	r1, #2
 2278 0064 9954     		strb	r1, [r3, r2]
1868:..\..\..\..\..\..\Software\uCOS-III\Source/os_core.c ****              p_tcb->PendOn     = OS_TASK_PEND_ON_NOTHING;
 2279              		.loc 1 1868 0
 2280 0066 BB68     		ldr	r3, [r7, #8]
 2281 0068 3422     		movs	r2, #52
 2282 006a 0021     		movs	r1, #0
 2283 006c 9954     		strb	r1, [r3, r2]
1869:..\..\..\..\..\..\Software\uCOS-III\Source/os_core.c ****              break;
 2284              		.loc 1 1869 0
 2285 006e 26E0     		b	.L147
 2286              	.L146:
1870:..\..\..\..\..\..\Software\uCOS-III\Source/os_core.c **** 
1871:..\..\..\..\..\..\Software\uCOS-III\Source/os_core.c ****         case OS_TASK_STATE_PEND_SUSPENDED:
1872:..\..\..\..\..\..\Software\uCOS-III\Source/os_core.c ****         case OS_TASK_STATE_PEND_TIMEOUT_SUSPENDED:
1873:..\..\..\..\..\..\Software\uCOS-III\Source/os_core.c **** #if (OS_CFG_PEND_MULTI_EN == DEF_ENABLED)
1874:..\..\..\..\..\..\Software\uCOS-III\Source/os_core.c ****              if (p_tcb->PendOn == OS_TASK_PEND_ON_MULTI) {
1875:..\..\..\..\..\..\Software\uCOS-III\Source/os_core.c ****                  OS_PendObjDel1(p_obj,                          /* Indicate which object was pend a
1876:..\..\..\..\..\..\Software\uCOS-III\Source/os_core.c ****                                 p_tcb,
1877:..\..\..\..\..\..\Software\uCOS-III\Source/os_core.c ****                                 ts);
1878:..\..\..\..\..\..\Software\uCOS-III\Source/os_core.c ****              }
ARM GAS  C:\Users\ADMINI~1\AppData\Local\Temp\cczjWrOu.s 			page 75


1879:..\..\..\..\..\..\Software\uCOS-III\Source/os_core.c **** #endif
1880:..\..\..\..\..\..\Software\uCOS-III\Source/os_core.c **** #if (OS_MSG_EN == DEF_ENABLED)
1881:..\..\..\..\..\..\Software\uCOS-III\Source/os_core.c ****              p_tcb->MsgPtr     = DEF_NULL;
 2287              		.loc 1 1881 0
 2288 0070 BB68     		ldr	r3, [r7, #8]
 2289 0072 0022     		movs	r2, #0
 2290 0074 9A65     		str	r2, [r3, #88]
1882:..\..\..\..\..\..\Software\uCOS-III\Source/os_core.c ****              p_tcb->MsgSize    = 0u;
 2291              		.loc 1 1882 0
 2292 0076 BB68     		ldr	r3, [r7, #8]
 2293 0078 5C22     		movs	r2, #92
 2294 007a 0021     		movs	r1, #0
 2295 007c 9952     		strh	r1, [r3, r2]
1883:..\..\..\..\..\..\Software\uCOS-III\Source/os_core.c **** #endif
1884:..\..\..\..\..\..\Software\uCOS-III\Source/os_core.c **** #if (OS_CFG_TS_EN == DEF_ENABLED)
1885:..\..\..\..\..\..\Software\uCOS-III\Source/os_core.c ****              p_tcb->TS         = ts;
 2296              		.loc 1 1885 0
 2297 007e BB68     		ldr	r3, [r7, #8]
 2298 0080 7A68     		ldr	r2, [r7, #4]
 2299 0082 9A64     		str	r2, [r3, #72]
1886:..\..\..\..\..\..\Software\uCOS-III\Source/os_core.c **** #endif
1887:..\..\..\..\..\..\Software\uCOS-III\Source/os_core.c ****              OS_PendListRemove(p_tcb);                          /* Remove task from all wait lists 
 2300              		.loc 1 1887 0
 2301 0084 BB68     		ldr	r3, [r7, #8]
 2302 0086 1800     		movs	r0, r3
 2303 0088 FFF7FEFF 		bl	OS_PendListRemove
1888:..\..\..\..\..\..\Software\uCOS-III\Source/os_core.c **** #if (OS_CFG_TASK_TICK_EN == DEF_ENABLED)
1889:..\..\..\..\..\..\Software\uCOS-III\Source/os_core.c ****              if (p_tcb->TaskState == OS_TASK_STATE_PEND_TIMEOUT_SUSPENDED) {
 2304              		.loc 1 1889 0
 2305 008c BB68     		ldr	r3, [r7, #8]
 2306 008e 3622     		movs	r2, #54
 2307 0090 9B5C     		ldrb	r3, [r3, r2]
 2308 0092 072B     		cmp	r3, #7
 2309 0094 03D1     		bne	.L149
1890:..\..\..\..\..\..\Software\uCOS-III\Source/os_core.c ****                  OS_TickListRemove(p_tcb);                      /* Cancel the timeout              
 2310              		.loc 1 1890 0
 2311 0096 BB68     		ldr	r3, [r7, #8]
 2312 0098 1800     		movs	r0, r3
 2313 009a FFF7FEFF 		bl	OS_TickListRemove
 2314              	.L149:
1891:..\..\..\..\..\..\Software\uCOS-III\Source/os_core.c ****              }
1892:..\..\..\..\..\..\Software\uCOS-III\Source/os_core.c **** #endif
1893:..\..\..\..\..\..\Software\uCOS-III\Source/os_core.c ****              p_tcb->TaskState  = OS_TASK_STATE_SUSPENDED;       /* Task needs to remain suspended  
 2315              		.loc 1 1893 0
 2316 009e BB68     		ldr	r3, [r7, #8]
 2317 00a0 3622     		movs	r2, #54
 2318 00a2 0421     		movs	r1, #4
 2319 00a4 9954     		strb	r1, [r3, r2]
1894:..\..\..\..\..\..\Software\uCOS-III\Source/os_core.c ****              p_tcb->PendStatus = OS_STATUS_PEND_DEL;
 2320              		.loc 1 1894 0
 2321 00a6 BB68     		ldr	r3, [r7, #8]
 2322 00a8 3522     		movs	r2, #53
 2323 00aa 0221     		movs	r1, #2
 2324 00ac 9954     		strb	r1, [r3, r2]
1895:..\..\..\..\..\..\Software\uCOS-III\Source/os_core.c ****              p_tcb->PendOn     = OS_TASK_PEND_ON_NOTHING;       /* Indicate no longer pending      
 2325              		.loc 1 1895 0
 2326 00ae BB68     		ldr	r3, [r7, #8]
ARM GAS  C:\Users\ADMINI~1\AppData\Local\Temp\cczjWrOu.s 			page 76


 2327 00b0 3422     		movs	r2, #52
 2328 00b2 0021     		movs	r1, #0
 2329 00b4 9954     		strb	r1, [r3, r2]
1896:..\..\..\..\..\..\Software\uCOS-III\Source/os_core.c ****              break;
 2330              		.loc 1 1896 0
 2331 00b6 02E0     		b	.L147
 2332              	.L150:
1897:..\..\..\..\..\..\Software\uCOS-III\Source/os_core.c **** 
1898:..\..\..\..\..\..\Software\uCOS-III\Source/os_core.c ****         default:
1899:..\..\..\..\..\..\Software\uCOS-III\Source/os_core.c ****              break;
 2333              		.loc 1 1899 0
 2334 00b8 C046     		nop
 2335 00ba 00E0     		b	.L147
 2336              	.L151:
1841:..\..\..\..\..\..\Software\uCOS-III\Source/os_core.c **** 
 2337              		.loc 1 1841 0
 2338 00bc C046     		nop
 2339              	.L147:
1900:..\..\..\..\..\..\Software\uCOS-III\Source/os_core.c ****     }
1901:..\..\..\..\..\..\Software\uCOS-III\Source/os_core.c **** }
 2340              		.loc 1 1901 0
 2341 00be C046     		nop
 2342 00c0 BD46     		mov	sp, r7
 2343 00c2 04B0     		add	sp, sp, #16
 2344              		@ sp needed
 2345 00c4 80BD     		pop	{r7, pc}
 2346              	.L153:
 2347 00c6 C046     		.align	2
 2348              	.L152:
 2349 00c8 2C000000 		.word	.L144
 2350              		.cfi_endproc
 2351              	.LFE20:
 2352              		.size	OS_PendObjDel, .-OS_PendObjDel
 2353              		.section	.text.OS_Post,"ax",%progbits
 2354              		.align	2
 2355              		.global	OS_Post
 2356              		.code	16
 2357              		.thumb_func
 2358              		.type	OS_Post, %function
 2359              	OS_Post:
 2360              	.LFB21:
1902:..\..\..\..\..\..\Software\uCOS-III\Source/os_core.c **** 
1903:..\..\..\..\..\..\Software\uCOS-III\Source/os_core.c **** 
1904:..\..\..\..\..\..\Software\uCOS-III\Source/os_core.c **** /*
1905:..\..\..\..\..\..\Software\uCOS-III\Source/os_core.c **** ***************************************************************************************************
1906:..\..\..\..\..\..\Software\uCOS-III\Source/os_core.c **** *                                    DELETE AN OBJECT FROM A TASK PENDING ON MULTIPLE OBJECTS
1907:..\..\..\..\..\..\Software\uCOS-III\Source/os_core.c **** *
1908:..\..\..\..\..\..\Software\uCOS-III\Source/os_core.c **** * Description: This function is called when a task is pending on multiple objects and the object is
1909:..\..\..\..\..\..\Software\uCOS-III\Source/os_core.c **** *              This function needs to indicate to the caller which object was deleted by placing th
1910:..\..\..\..\..\..\Software\uCOS-III\Source/os_core.c **** *              object in the OS_PEND_DATA table corresponding to the deleted object.
1911:..\..\..\..\..\..\Software\uCOS-III\Source/os_core.c **** *
1912:..\..\..\..\..\..\Software\uCOS-III\Source/os_core.c **** *              For example, if the task pends on six (6) objects, the address of those 6 objects ar
1913:..\..\..\..\..\..\Software\uCOS-III\Source/os_core.c **** *              .PendObjPtr field of the OS_PEND_DATA table as shown below.  Note that the .PendData
1914:..\..\..\..\..\..\Software\uCOS-III\Source/os_core.c **** *              set to six (6) in this case.  As shown, when the pend call returns because a task de
1915:..\..\..\..\..\..\Software\uCOS-III\Source/os_core.c **** *              only the one entry contains the filled in data and the other entries contains NULL p
1916:..\..\..\..\..\..\Software\uCOS-III\Source/os_core.c **** *              data.
1917:..\..\..\..\..\..\Software\uCOS-III\Source/os_core.c **** *
ARM GAS  C:\Users\ADMINI~1\AppData\Local\Temp\cczjWrOu.s 			page 77


1918:..\..\..\..\..\..\Software\uCOS-III\Source/os_core.c **** *              You should note that the NULL pointers are zero data values are actually filled in b
1919:..\..\..\..\..\..\Software\uCOS-III\Source/os_core.c **** *
1920:..\..\..\..\..\..\Software\uCOS-III\Source/os_core.c **** *
1921:..\..\..\..\..\..\Software\uCOS-III\Source/os_core.c **** *                                           .PendObjPtr    .RdyObjPtr     .RdyMsgPtr     .RdyMsgSiz
1922:..\..\..\..\..\..\Software\uCOS-III\Source/os_core.c **** *                                         +--------------+--------------+--------------+-----------
1923:..\..\..\..\..\..\Software\uCOS-III\Source/os_core.c **** *              p_tcb->PendDataTblPtr  ->  |  Obj A       |  0           | 0            | 0         
1924:..\..\..\..\..\..\Software\uCOS-III\Source/os_core.c **** *                                         +--------------+--------------+--------------+-----------
1925:..\..\..\..\..\..\Software\uCOS-III\Source/os_core.c **** *                                         |  Obj B       |  0           | 0            | 0         
1926:..\..\..\..\..\..\Software\uCOS-III\Source/os_core.c **** *                                         +--------------+--------------+--------------+-----------
1927:..\..\..\..\..\..\Software\uCOS-III\Source/os_core.c **** *                                         |  Obj C       |  Obj C       | 0            | 0         
1928:..\..\..\..\..\..\Software\uCOS-III\Source/os_core.c **** *                                         +--------------+--------------+--------------+-----------
1929:..\..\..\..\..\..\Software\uCOS-III\Source/os_core.c **** *                                         |  Obj D       |  0           | 0            | 0         
1930:..\..\..\..\..\..\Software\uCOS-III\Source/os_core.c **** *                                         +--------------+--------------+--------------+-----------
1931:..\..\..\..\..\..\Software\uCOS-III\Source/os_core.c **** *                                         |  Obj E       |  0           | 0            | 0         
1932:..\..\..\..\..\..\Software\uCOS-III\Source/os_core.c **** *                                         +--------------+--------------+--------------+-----------
1933:..\..\..\..\..\..\Software\uCOS-III\Source/os_core.c **** *                                         |  Obj F       |  0           | 0            | 0         
1934:..\..\..\..\..\..\Software\uCOS-III\Source/os_core.c **** *                                         +--------------+--------------+--------------+-----------
1935:..\..\..\..\..\..\Software\uCOS-III\Source/os_core.c **** *
1936:..\..\..\..\..\..\Software\uCOS-III\Source/os_core.c **** *
1937:..\..\..\..\..\..\Software\uCOS-III\Source/os_core.c **** * Arguments  : p_obj        is a pointer to the object being deleted
1938:..\..\..\..\..\..\Software\uCOS-III\Source/os_core.c **** *              -----
1939:..\..\..\..\..\..\Software\uCOS-III\Source/os_core.c **** *
1940:..\..\..\..\..\..\Software\uCOS-III\Source/os_core.c **** *              p_tcb        is the OS_TCB of the task pending on the object being deleted
1941:..\..\..\..\..\..\Software\uCOS-III\Source/os_core.c **** *              -----
1942:..\..\..\..\..\..\Software\uCOS-III\Source/os_core.c **** *
1943:..\..\..\..\..\..\Software\uCOS-III\Source/os_core.c **** *              ts           is the time stamp of when the object was deleted
1944:..\..\..\..\..\..\Software\uCOS-III\Source/os_core.c **** *
1945:..\..\..\..\..\..\Software\uCOS-III\Source/os_core.c **** * Returns    : none
1946:..\..\..\..\..\..\Software\uCOS-III\Source/os_core.c **** *
1947:..\..\..\..\..\..\Software\uCOS-III\Source/os_core.c **** * Note(s)    : 1) This function is INTERNAL to uC/OS-III and your application MUST NOT call it.
1948:..\..\..\..\..\..\Software\uCOS-III\Source/os_core.c **** ***************************************************************************************************
1949:..\..\..\..\..\..\Software\uCOS-III\Source/os_core.c **** */
1950:..\..\..\..\..\..\Software\uCOS-III\Source/os_core.c **** #if (OS_CFG_PEND_MULTI_EN == DEF_ENABLED)
1951:..\..\..\..\..\..\Software\uCOS-III\Source/os_core.c **** void  OS_PendObjDel1 (OS_PEND_OBJ  *p_obj,
1952:..\..\..\..\..\..\Software\uCOS-III\Source/os_core.c ****                       OS_TCB       *p_tcb,
1953:..\..\..\..\..\..\Software\uCOS-III\Source/os_core.c ****                       CPU_TS        ts)
1954:..\..\..\..\..\..\Software\uCOS-III\Source/os_core.c **** {
1955:..\..\..\..\..\..\Software\uCOS-III\Source/os_core.c ****     OS_OBJ_QTY      n_pend_list;                                /* Number of pend lists            
1956:..\..\..\..\..\..\Software\uCOS-III\Source/os_core.c ****     OS_PEND_DATA   *p_pend_data;
1957:..\..\..\..\..\..\Software\uCOS-III\Source/os_core.c **** 
1958:..\..\..\..\..\..\Software\uCOS-III\Source/os_core.c **** 
1959:..\..\..\..\..\..\Software\uCOS-III\Source/os_core.c **** #if (OS_CFG_TS_EN == DEF_DISABLED)
1960:..\..\..\..\..\..\Software\uCOS-III\Source/os_core.c ****     (void)ts;                                                   /* Prevent compiler warning for not
1961:..\..\..\..\..\..\Software\uCOS-III\Source/os_core.c **** #endif
1962:..\..\..\..\..\..\Software\uCOS-III\Source/os_core.c **** 
1963:..\..\..\..\..\..\Software\uCOS-III\Source/os_core.c ****     p_pend_data = p_tcb->PendDataTblPtr;                        /* Point to the first OS_PEND_DATA 
1964:..\..\..\..\..\..\Software\uCOS-III\Source/os_core.c ****     n_pend_list = p_tcb->PendDataTblEntries;                    /* Get number of entries in the tab
1965:..\..\..\..\..\..\Software\uCOS-III\Source/os_core.c **** 
1966:..\..\..\..\..\..\Software\uCOS-III\Source/os_core.c ****     while (n_pend_list > 0u) {                                  /* Mark posted object in OS_PEND_DA
1967:..\..\..\..\..\..\Software\uCOS-III\Source/os_core.c ****         if (p_obj == p_pend_data->PendObjPtr) {                 /* Did we find the object deleted? 
1968:..\..\..\..\..\..\Software\uCOS-III\Source/os_core.c ****             p_pend_data->RdyObjPtr = p_obj;                     /* Yes, indicate the object in the 
1969:..\..\..\..\..\..\Software\uCOS-III\Source/os_core.c **** #if (OS_CFG_TS_EN == DEF_ENABLED)
1970:..\..\..\..\..\..\Software\uCOS-III\Source/os_core.c ****             p_pend_data->RdyTS     = ts;                        /* save the timestamp              
1971:..\..\..\..\..\..\Software\uCOS-III\Source/os_core.c **** #endif
1972:..\..\..\..\..\..\Software\uCOS-III\Source/os_core.c ****             break;
1973:..\..\..\..\..\..\Software\uCOS-III\Source/os_core.c ****         }
1974:..\..\..\..\..\..\Software\uCOS-III\Source/os_core.c ****         p_pend_data++;
ARM GAS  C:\Users\ADMINI~1\AppData\Local\Temp\cczjWrOu.s 			page 78


1975:..\..\..\..\..\..\Software\uCOS-III\Source/os_core.c ****         n_pend_list--;
1976:..\..\..\..\..\..\Software\uCOS-III\Source/os_core.c ****     }
1977:..\..\..\..\..\..\Software\uCOS-III\Source/os_core.c **** }
1978:..\..\..\..\..\..\Software\uCOS-III\Source/os_core.c **** #endif
1979:..\..\..\..\..\..\Software\uCOS-III\Source/os_core.c **** 
1980:..\..\..\..\..\..\Software\uCOS-III\Source/os_core.c **** /*
1981:..\..\..\..\..\..\Software\uCOS-III\Source/os_core.c **** ***************************************************************************************************
1982:..\..\..\..\..\..\Software\uCOS-III\Source/os_core.c **** *                                                   POST TO A TASK
1983:..\..\..\..\..\..\Software\uCOS-III\Source/os_core.c **** *
1984:..\..\..\..\..\..\Software\uCOS-III\Source/os_core.c **** * Description: This function is called to post to a task.  This function exist because it is common
1985:..\..\..\..\..\..\Software\uCOS-III\Source/os_core.c **** *              OSxxxPost() services.
1986:..\..\..\..\..\..\Software\uCOS-III\Source/os_core.c **** *
1987:..\..\..\..\..\..\Software\uCOS-III\Source/os_core.c **** * Arguments  : p_obj          Is a pointer to the object being posted to or NULL pointer if there i
1988:..\..\..\..\..\..\Software\uCOS-III\Source/os_core.c **** *              -----
1989:..\..\..\..\..\..\Software\uCOS-III\Source/os_core.c **** *
1990:..\..\..\..\..\..\Software\uCOS-III\Source/os_core.c **** *              p_tcb          Is a pointer to the OS_TCB that will receive the 'post'
1991:..\..\..\..\..\..\Software\uCOS-III\Source/os_core.c **** *              -----
1992:..\..\..\..\..\..\Software\uCOS-III\Source/os_core.c **** *
1993:..\..\..\..\..\..\Software\uCOS-III\Source/os_core.c **** *              p_void         If we are posting a message to a task, this is the message that the t
1994:..\..\..\..\..\..\Software\uCOS-III\Source/os_core.c **** *
1995:..\..\..\..\..\..\Software\uCOS-III\Source/os_core.c **** *              msg_size       If we are posting a message to a task, this is the size of the messag
1996:..\..\..\..\..\..\Software\uCOS-III\Source/os_core.c **** *
1997:..\..\..\..\..\..\Software\uCOS-III\Source/os_core.c **** *              ts             The timestamp as to when the post occurred
1998:..\..\..\..\..\..\Software\uCOS-III\Source/os_core.c **** *
1999:..\..\..\..\..\..\Software\uCOS-III\Source/os_core.c **** * Returns    : none
2000:..\..\..\..\..\..\Software\uCOS-III\Source/os_core.c **** *
2001:..\..\..\..\..\..\Software\uCOS-III\Source/os_core.c **** * Note(s)    : This function is INTERNAL to uC/OS-III and your application should not call it.
2002:..\..\..\..\..\..\Software\uCOS-III\Source/os_core.c **** ***************************************************************************************************
2003:..\..\..\..\..\..\Software\uCOS-III\Source/os_core.c **** */
2004:..\..\..\..\..\..\Software\uCOS-III\Source/os_core.c **** 
2005:..\..\..\..\..\..\Software\uCOS-III\Source/os_core.c **** void  OS_Post (OS_PEND_OBJ  *p_obj,
2006:..\..\..\..\..\..\Software\uCOS-III\Source/os_core.c ****                OS_TCB       *p_tcb,
2007:..\..\..\..\..\..\Software\uCOS-III\Source/os_core.c ****                void         *p_void,
2008:..\..\..\..\..\..\Software\uCOS-III\Source/os_core.c ****                OS_MSG_SIZE   msg_size,
2009:..\..\..\..\..\..\Software\uCOS-III\Source/os_core.c ****                CPU_TS        ts)
2010:..\..\..\..\..\..\Software\uCOS-III\Source/os_core.c **** {
 2361              		.loc 1 2010 0
 2362              		.cfi_startproc
 2363              		@ args = 4, pretend = 0, frame = 16
 2364              		@ frame_needed = 1, uses_anonymous_args = 0
 2365 0000 80B5     		push	{r7, lr}
 2366              		.cfi_def_cfa_offset 8
 2367              		.cfi_offset 7, -8
 2368              		.cfi_offset 14, -4
 2369 0002 84B0     		sub	sp, sp, #16
 2370              		.cfi_def_cfa_offset 24
 2371 0004 00AF     		add	r7, sp, #0
 2372              		.cfi_def_cfa_register 7
 2373 0006 F860     		str	r0, [r7, #12]
 2374 0008 B960     		str	r1, [r7, #8]
 2375 000a 7A60     		str	r2, [r7, #4]
 2376 000c 1A00     		movs	r2, r3
 2377 000e BB1C     		adds	r3, r7, #2
 2378 0010 1A80     		strh	r2, [r3]
2011:..\..\..\..\..\..\Software\uCOS-III\Source/os_core.c **** #if (OS_CFG_TS_EN == DEF_DISABLED)
2012:..\..\..\..\..\..\Software\uCOS-III\Source/os_core.c ****     (void)ts;                                                   /* Prevent compiler warning for not
2013:..\..\..\..\..\..\Software\uCOS-III\Source/os_core.c **** #endif
ARM GAS  C:\Users\ADMINI~1\AppData\Local\Temp\cczjWrOu.s 			page 79


2014:..\..\..\..\..\..\Software\uCOS-III\Source/os_core.c **** 
2015:..\..\..\..\..\..\Software\uCOS-III\Source/os_core.c ****     switch (p_tcb->TaskState) {
 2379              		.loc 1 2015 0
 2380 0012 BB68     		ldr	r3, [r7, #8]
 2381 0014 3622     		movs	r2, #54
 2382 0016 9B5C     		ldrb	r3, [r3, r2]
 2383 0018 072B     		cmp	r3, #7
 2384 001a 64D8     		bhi	.L165
 2385 001c 9A00     		lsls	r2, r3, #2
 2386 001e 354B     		ldr	r3, .L167
 2387 0020 D318     		adds	r3, r2, r3
 2388 0022 1B68     		ldr	r3, [r3]
 2389 0024 9F46     		mov	pc, r3
 2390              		.section	.rodata
 2391              		.align	2
 2392              	.L157:
 2393 004c EA000000 		.word	.L166
 2394 0050 EA000000 		.word	.L166
 2395 0054 26000000 		.word	.L158
 2396 0058 26000000 		.word	.L158
 2397 005c EA000000 		.word	.L166
 2398 0060 EA000000 		.word	.L166
 2399 0064 8A000000 		.word	.L159
 2400 0068 8A000000 		.word	.L159
 2401              		.section	.text.OS_Post
 2402              	.L158:
2016:..\..\..\..\..\..\Software\uCOS-III\Source/os_core.c ****         case OS_TASK_STATE_RDY:                                 /* Cannot Pend Abort a task that is
2017:..\..\..\..\..\..\Software\uCOS-III\Source/os_core.c ****         case OS_TASK_STATE_DLY:                                 /* Cannot Pend Abort a task that is
2018:..\..\..\..\..\..\Software\uCOS-III\Source/os_core.c ****         case OS_TASK_STATE_SUSPENDED:                           /* Cannot Post a suspended task    
2019:..\..\..\..\..\..\Software\uCOS-III\Source/os_core.c ****         case OS_TASK_STATE_DLY_SUSPENDED:                       /* Cannot Post a suspended task tha
2020:..\..\..\..\..\..\Software\uCOS-III\Source/os_core.c ****              break;
2021:..\..\..\..\..\..\Software\uCOS-III\Source/os_core.c **** 
2022:..\..\..\..\..\..\Software\uCOS-III\Source/os_core.c ****         case OS_TASK_STATE_PEND:
2023:..\..\..\..\..\..\Software\uCOS-III\Source/os_core.c ****         case OS_TASK_STATE_PEND_TIMEOUT:
2024:..\..\..\..\..\..\Software\uCOS-III\Source/os_core.c **** #if (OS_CFG_PEND_MULTI_EN == DEF_ENABLED)
2025:..\..\..\..\..\..\Software\uCOS-III\Source/os_core.c ****              if (p_tcb->PendOn == OS_TASK_PEND_ON_MULTI) {
2026:..\..\..\..\..\..\Software\uCOS-III\Source/os_core.c ****                  OS_Post1(p_obj,                                /* Indicate which object was posted
2027:..\..\..\..\..\..\Software\uCOS-III\Source/os_core.c ****                           p_tcb,
2028:..\..\..\..\..\..\Software\uCOS-III\Source/os_core.c ****                           p_void,
2029:..\..\..\..\..\..\Software\uCOS-III\Source/os_core.c ****                           msg_size,
2030:..\..\..\..\..\..\Software\uCOS-III\Source/os_core.c ****                           ts);
2031:..\..\..\..\..\..\Software\uCOS-III\Source/os_core.c ****              } else {
2032:..\..\..\..\..\..\Software\uCOS-III\Source/os_core.c **** #endif
2033:..\..\..\..\..\..\Software\uCOS-III\Source/os_core.c **** #if (OS_MSG_EN == DEF_ENABLED)
2034:..\..\..\..\..\..\Software\uCOS-III\Source/os_core.c ****                  p_tcb->MsgPtr  = p_void;                       /* Deposit message in OS_TCB of tas
 2403              		.loc 1 2034 0
 2404 0026 BB68     		ldr	r3, [r7, #8]
 2405 0028 7A68     		ldr	r2, [r7, #4]
 2406 002a 9A65     		str	r2, [r3, #88]
2035:..\..\..\..\..\..\Software\uCOS-III\Source/os_core.c ****                  p_tcb->MsgSize = msg_size;                     /* ... assuming posting a message  
 2407              		.loc 1 2035 0
 2408 002c BB68     		ldr	r3, [r7, #8]
 2409 002e BA1C     		adds	r2, r7, #2
 2410 0030 5C21     		movs	r1, #92
 2411 0032 1288     		ldrh	r2, [r2]
 2412 0034 5A52     		strh	r2, [r3, r1]
2036:..\..\..\..\..\..\Software\uCOS-III\Source/os_core.c **** #endif
ARM GAS  C:\Users\ADMINI~1\AppData\Local\Temp\cczjWrOu.s 			page 80


2037:..\..\..\..\..\..\Software\uCOS-III\Source/os_core.c **** #if (OS_CFG_TS_EN == DEF_ENABLED)
2038:..\..\..\..\..\..\Software\uCOS-III\Source/os_core.c ****                  p_tcb->TS      = ts;
 2413              		.loc 1 2038 0
 2414 0036 BB68     		ldr	r3, [r7, #8]
 2415 0038 BA69     		ldr	r2, [r7, #24]
 2416 003a 9A64     		str	r2, [r3, #72]
2039:..\..\..\..\..\..\Software\uCOS-III\Source/os_core.c **** #endif
2040:..\..\..\..\..\..\Software\uCOS-III\Source/os_core.c **** #if (OS_CFG_PEND_MULTI_EN == DEF_ENABLED)
2041:..\..\..\..\..\..\Software\uCOS-III\Source/os_core.c ****              }
2042:..\..\..\..\..\..\Software\uCOS-III\Source/os_core.c **** #endif
2043:..\..\..\..\..\..\Software\uCOS-III\Source/os_core.c ****              if (p_obj != DEF_NULL) {
 2417              		.loc 1 2043 0
 2418 003c FB68     		ldr	r3, [r7, #12]
 2419 003e 002B     		cmp	r3, #0
 2420 0040 09D0     		beq	.L161
2044:..\..\..\..\..\..\Software\uCOS-III\Source/os_core.c ****                  OS_PendListRemove(p_tcb);                      /* Remove task from wait list(s)   
 2421              		.loc 1 2044 0
 2422 0042 BB68     		ldr	r3, [r7, #8]
 2423 0044 1800     		movs	r0, r3
 2424 0046 FFF7FEFF 		bl	OS_PendListRemove
2045:..\..\..\..\..\..\Software\uCOS-III\Source/os_core.c **** #if (OS_CFG_DBG_EN == DEF_ENABLED)
2046:..\..\..\..\..\..\Software\uCOS-III\Source/os_core.c ****                  OS_PendDbgNameRemove(p_obj,
 2425              		.loc 1 2046 0
 2426 004a BA68     		ldr	r2, [r7, #8]
 2427 004c FB68     		ldr	r3, [r7, #12]
 2428 004e 1100     		movs	r1, r2
 2429 0050 1800     		movs	r0, r3
 2430 0052 FFF7FEFF 		bl	OS_PendDbgNameRemove
 2431              	.L161:
2047:..\..\..\..\..\..\Software\uCOS-III\Source/os_core.c ****                                       p_tcb);
2048:..\..\..\..\..\..\Software\uCOS-III\Source/os_core.c **** #endif
2049:..\..\..\..\..\..\Software\uCOS-III\Source/os_core.c ****              }
2050:..\..\..\..\..\..\Software\uCOS-III\Source/os_core.c **** #if (OS_CFG_TASK_TICK_EN == DEF_ENABLED)
2051:..\..\..\..\..\..\Software\uCOS-III\Source/os_core.c ****              if (p_tcb->TaskState == OS_TASK_STATE_PEND_TIMEOUT) {
 2432              		.loc 1 2051 0
 2433 0056 BB68     		ldr	r3, [r7, #8]
 2434 0058 3622     		movs	r2, #54
 2435 005a 9B5C     		ldrb	r3, [r3, r2]
 2436 005c 032B     		cmp	r3, #3
 2437 005e 03D1     		bne	.L162
2052:..\..\..\..\..\..\Software\uCOS-III\Source/os_core.c ****                  OS_TickListRemove(p_tcb);                      /* Remove from tick list           
 2438              		.loc 1 2052 0
 2439 0060 BB68     		ldr	r3, [r7, #8]
 2440 0062 1800     		movs	r0, r3
 2441 0064 FFF7FEFF 		bl	OS_TickListRemove
 2442              	.L162:
2053:..\..\..\..\..\..\Software\uCOS-III\Source/os_core.c ****              }
2054:..\..\..\..\..\..\Software\uCOS-III\Source/os_core.c **** #endif
2055:..\..\..\..\..\..\Software\uCOS-III\Source/os_core.c ****              OS_RdyListInsert(p_tcb);                           /* Insert the task in the ready lis
 2443              		.loc 1 2055 0
 2444 0068 BB68     		ldr	r3, [r7, #8]
 2445 006a 1800     		movs	r0, r3
 2446 006c FFF7FEFF 		bl	OS_RdyListInsert
2056:..\..\..\..\..\..\Software\uCOS-III\Source/os_core.c ****              p_tcb->TaskState  = OS_TASK_STATE_RDY;
 2447              		.loc 1 2056 0
 2448 0070 BB68     		ldr	r3, [r7, #8]
 2449 0072 3622     		movs	r2, #54
ARM GAS  C:\Users\ADMINI~1\AppData\Local\Temp\cczjWrOu.s 			page 81


 2450 0074 0021     		movs	r1, #0
 2451 0076 9954     		strb	r1, [r3, r2]
2057:..\..\..\..\..\..\Software\uCOS-III\Source/os_core.c ****              p_tcb->PendStatus = OS_STATUS_PEND_OK;             /* Clear pend status               
 2452              		.loc 1 2057 0
 2453 0078 BB68     		ldr	r3, [r7, #8]
 2454 007a 3522     		movs	r2, #53
 2455 007c 0021     		movs	r1, #0
 2456 007e 9954     		strb	r1, [r3, r2]
2058:..\..\..\..\..\..\Software\uCOS-III\Source/os_core.c ****              p_tcb->PendOn     = OS_TASK_PEND_ON_NOTHING;       /* Indicate no longer pending      
 2457              		.loc 1 2058 0
 2458 0080 BB68     		ldr	r3, [r7, #8]
 2459 0082 3422     		movs	r2, #52
 2460 0084 0021     		movs	r1, #0
 2461 0086 9954     		strb	r1, [r3, r2]
2059:..\..\..\..\..\..\Software\uCOS-III\Source/os_core.c ****              break;
 2462              		.loc 1 2059 0
 2463 0088 30E0     		b	.L160
 2464              	.L159:
2060:..\..\..\..\..\..\Software\uCOS-III\Source/os_core.c **** 
2061:..\..\..\..\..\..\Software\uCOS-III\Source/os_core.c ****         case OS_TASK_STATE_PEND_SUSPENDED:
2062:..\..\..\..\..\..\Software\uCOS-III\Source/os_core.c ****         case OS_TASK_STATE_PEND_TIMEOUT_SUSPENDED:
2063:..\..\..\..\..\..\Software\uCOS-III\Source/os_core.c **** #if (OS_CFG_PEND_MULTI_EN == DEF_ENABLED)
2064:..\..\..\..\..\..\Software\uCOS-III\Source/os_core.c ****              if (p_tcb->PendOn == OS_TASK_PEND_ON_MULTI) {
2065:..\..\..\..\..\..\Software\uCOS-III\Source/os_core.c ****                  OS_Post1(p_obj,                                /* Indicate which object was posted
2066:..\..\..\..\..\..\Software\uCOS-III\Source/os_core.c ****                           p_tcb,
2067:..\..\..\..\..\..\Software\uCOS-III\Source/os_core.c ****                           p_void,
2068:..\..\..\..\..\..\Software\uCOS-III\Source/os_core.c ****                           msg_size,
2069:..\..\..\..\..\..\Software\uCOS-III\Source/os_core.c ****                           ts);
2070:..\..\..\..\..\..\Software\uCOS-III\Source/os_core.c ****              } else {
2071:..\..\..\..\..\..\Software\uCOS-III\Source/os_core.c **** #endif
2072:..\..\..\..\..\..\Software\uCOS-III\Source/os_core.c **** #if (OS_MSG_EN == DEF_ENABLED)
2073:..\..\..\..\..\..\Software\uCOS-III\Source/os_core.c ****                  p_tcb->MsgPtr  = p_void;                       /* Deposit message in OS_TCB of tas
 2465              		.loc 1 2073 0
 2466 008a BB68     		ldr	r3, [r7, #8]
 2467 008c 7A68     		ldr	r2, [r7, #4]
 2468 008e 9A65     		str	r2, [r3, #88]
2074:..\..\..\..\..\..\Software\uCOS-III\Source/os_core.c ****                  p_tcb->MsgSize = msg_size;                     /* ... assuming posting a message  
 2469              		.loc 1 2074 0
 2470 0090 BB68     		ldr	r3, [r7, #8]
 2471 0092 BA1C     		adds	r2, r7, #2
 2472 0094 5C21     		movs	r1, #92
 2473 0096 1288     		ldrh	r2, [r2]
 2474 0098 5A52     		strh	r2, [r3, r1]
2075:..\..\..\..\..\..\Software\uCOS-III\Source/os_core.c **** #endif
2076:..\..\..\..\..\..\Software\uCOS-III\Source/os_core.c **** #if (OS_CFG_TS_EN == DEF_ENABLED)
2077:..\..\..\..\..\..\Software\uCOS-III\Source/os_core.c ****                  p_tcb->TS      = ts;
 2475              		.loc 1 2077 0
 2476 009a BB68     		ldr	r3, [r7, #8]
 2477 009c BA69     		ldr	r2, [r7, #24]
 2478 009e 9A64     		str	r2, [r3, #72]
2078:..\..\..\..\..\..\Software\uCOS-III\Source/os_core.c **** #endif
2079:..\..\..\..\..\..\Software\uCOS-III\Source/os_core.c **** #if (OS_CFG_PEND_MULTI_EN == DEF_ENABLED)
2080:..\..\..\..\..\..\Software\uCOS-III\Source/os_core.c ****              }
2081:..\..\..\..\..\..\Software\uCOS-III\Source/os_core.c **** #endif
2082:..\..\..\..\..\..\Software\uCOS-III\Source/os_core.c ****              if (p_obj != DEF_NULL) {
 2479              		.loc 1 2082 0
 2480 00a0 FB68     		ldr	r3, [r7, #12]
ARM GAS  C:\Users\ADMINI~1\AppData\Local\Temp\cczjWrOu.s 			page 82


 2481 00a2 002B     		cmp	r3, #0
 2482 00a4 09D0     		beq	.L163
2083:..\..\..\..\..\..\Software\uCOS-III\Source/os_core.c ****                  OS_PendListRemove(p_tcb);                      /* Remove task from wait list(s)   
 2483              		.loc 1 2083 0
 2484 00a6 BB68     		ldr	r3, [r7, #8]
 2485 00a8 1800     		movs	r0, r3
 2486 00aa FFF7FEFF 		bl	OS_PendListRemove
2084:..\..\..\..\..\..\Software\uCOS-III\Source/os_core.c **** #if (OS_CFG_DBG_EN == DEF_ENABLED)
2085:..\..\..\..\..\..\Software\uCOS-III\Source/os_core.c ****                  OS_PendDbgNameRemove(p_obj,
 2487              		.loc 1 2085 0
 2488 00ae BA68     		ldr	r2, [r7, #8]
 2489 00b0 FB68     		ldr	r3, [r7, #12]
 2490 00b2 1100     		movs	r1, r2
 2491 00b4 1800     		movs	r0, r3
 2492 00b6 FFF7FEFF 		bl	OS_PendDbgNameRemove
 2493              	.L163:
2086:..\..\..\..\..\..\Software\uCOS-III\Source/os_core.c ****                                       p_tcb);
2087:..\..\..\..\..\..\Software\uCOS-III\Source/os_core.c **** #endif
2088:..\..\..\..\..\..\Software\uCOS-III\Source/os_core.c ****              }
2089:..\..\..\..\..\..\Software\uCOS-III\Source/os_core.c **** #if (OS_CFG_TASK_TICK_EN == DEF_ENABLED)
2090:..\..\..\..\..\..\Software\uCOS-III\Source/os_core.c ****              if (p_tcb->TaskState == OS_TASK_STATE_PEND_TIMEOUT_SUSPENDED) {
 2494              		.loc 1 2090 0
 2495 00ba BB68     		ldr	r3, [r7, #8]
 2496 00bc 3622     		movs	r2, #54
 2497 00be 9B5C     		ldrb	r3, [r3, r2]
 2498 00c0 072B     		cmp	r3, #7
 2499 00c2 03D1     		bne	.L164
2091:..\..\..\..\..\..\Software\uCOS-III\Source/os_core.c ****                  OS_TickListRemove(p_tcb);                      /* Cancel any timeout              
 2500              		.loc 1 2091 0
 2501 00c4 BB68     		ldr	r3, [r7, #8]
 2502 00c6 1800     		movs	r0, r3
 2503 00c8 FFF7FEFF 		bl	OS_TickListRemove
 2504              	.L164:
2092:..\..\..\..\..\..\Software\uCOS-III\Source/os_core.c ****              }
2093:..\..\..\..\..\..\Software\uCOS-III\Source/os_core.c **** #endif
2094:..\..\..\..\..\..\Software\uCOS-III\Source/os_core.c ****              p_tcb->TaskState  = OS_TASK_STATE_SUSPENDED;
 2505              		.loc 1 2094 0
 2506 00cc BB68     		ldr	r3, [r7, #8]
 2507 00ce 3622     		movs	r2, #54
 2508 00d0 0421     		movs	r1, #4
 2509 00d2 9954     		strb	r1, [r3, r2]
2095:..\..\..\..\..\..\Software\uCOS-III\Source/os_core.c ****              p_tcb->PendStatus = OS_STATUS_PEND_OK;             /* Clear pend status               
 2510              		.loc 1 2095 0
 2511 00d4 BB68     		ldr	r3, [r7, #8]
 2512 00d6 3522     		movs	r2, #53
 2513 00d8 0021     		movs	r1, #0
 2514 00da 9954     		strb	r1, [r3, r2]
2096:..\..\..\..\..\..\Software\uCOS-III\Source/os_core.c ****              p_tcb->PendOn     = OS_TASK_PEND_ON_NOTHING;       /* Indicate no longer pending      
 2515              		.loc 1 2096 0
 2516 00dc BB68     		ldr	r3, [r7, #8]
 2517 00de 3422     		movs	r2, #52
 2518 00e0 0021     		movs	r1, #0
 2519 00e2 9954     		strb	r1, [r3, r2]
2097:..\..\..\..\..\..\Software\uCOS-III\Source/os_core.c ****              break;
 2520              		.loc 1 2097 0
 2521 00e4 02E0     		b	.L160
 2522              	.L165:
ARM GAS  C:\Users\ADMINI~1\AppData\Local\Temp\cczjWrOu.s 			page 83


2098:..\..\..\..\..\..\Software\uCOS-III\Source/os_core.c **** 
2099:..\..\..\..\..\..\Software\uCOS-III\Source/os_core.c ****         default:
2100:..\..\..\..\..\..\Software\uCOS-III\Source/os_core.c ****              break;
 2523              		.loc 1 2100 0
 2524 00e6 C046     		nop
 2525 00e8 00E0     		b	.L160
 2526              	.L166:
2020:..\..\..\..\..\..\Software\uCOS-III\Source/os_core.c **** 
 2527              		.loc 1 2020 0
 2528 00ea C046     		nop
 2529              	.L160:
2101:..\..\..\..\..\..\Software\uCOS-III\Source/os_core.c ****     }
2102:..\..\..\..\..\..\Software\uCOS-III\Source/os_core.c **** }
 2530              		.loc 1 2102 0
 2531 00ec C046     		nop
 2532 00ee BD46     		mov	sp, r7
 2533 00f0 04B0     		add	sp, sp, #16
 2534              		@ sp needed
 2535 00f2 80BD     		pop	{r7, pc}
 2536              	.L168:
 2537              		.align	2
 2538              	.L167:
 2539 00f4 4C000000 		.word	.L157
 2540              		.cfi_endproc
 2541              	.LFE21:
 2542              		.size	OS_Post, .-OS_Post
 2543              		.section	.text.OS_RdyListInit,"ax",%progbits
 2544              		.align	2
 2545              		.global	OS_RdyListInit
 2546              		.code	16
 2547              		.thumb_func
 2548              		.type	OS_RdyListInit, %function
 2549              	OS_RdyListInit:
 2550              	.LFB22:
2103:..\..\..\..\..\..\Software\uCOS-III\Source/os_core.c **** 
2104:..\..\..\..\..\..\Software\uCOS-III\Source/os_core.c **** 
2105:..\..\..\..\..\..\Software\uCOS-III\Source/os_core.c **** /*
2106:..\..\..\..\..\..\Software\uCOS-III\Source/os_core.c **** ***************************************************************************************************
2107:..\..\..\..\..\..\Software\uCOS-III\Source/os_core.c **** *                                           POST TO A TASK PENDING ON MULTIPLE OBJECTS
2108:..\..\..\..\..\..\Software\uCOS-III\Source/os_core.c **** *
2109:..\..\..\..\..\..\Software\uCOS-III\Source/os_core.c **** * Description: This function is called when a task is pending on multiple objects and the object ha
2110:..\..\..\..\..\..\Software\uCOS-III\Source/os_core.c **** *              This function needs to indicate to the caller which object was posted to by placing 
2111:..\..\..\..\..\..\Software\uCOS-III\Source/os_core.c **** *              object in the OS_PEND_DATA table corresponding to the posted object.
2112:..\..\..\..\..\..\Software\uCOS-III\Source/os_core.c **** *
2113:..\..\..\..\..\..\Software\uCOS-III\Source/os_core.c **** *              For example, if the task pends on six (6) objects, the address of those 6 objects ar
2114:..\..\..\..\..\..\Software\uCOS-III\Source/os_core.c **** *              .PendObjPtr field of the OS_PEND_DATA table as shown below.  Note that the .PendData
2115:..\..\..\..\..\..\Software\uCOS-III\Source/os_core.c **** *              set to six (6) in this case.  As shown, when the pend call returns because a task or
2116:..\..\..\..\..\..\Software\uCOS-III\Source/os_core.c **** *              'Obj C' then, only the one entry contains the filled in data and the other entries c
2117:..\..\..\..\..\..\Software\uCOS-III\Source/os_core.c **** *              and zero data.
2118:..\..\..\..\..\..\Software\uCOS-III\Source/os_core.c **** *
2119:..\..\..\..\..\..\Software\uCOS-III\Source/os_core.c **** *              You should note that the NULL pointers are zero data values are actually filled in b
2120:..\..\..\..\..\..\Software\uCOS-III\Source/os_core.c **** *
2121:..\..\..\..\..\..\Software\uCOS-III\Source/os_core.c **** *
2122:..\..\..\..\..\..\Software\uCOS-III\Source/os_core.c **** *                                           .PendObjPtr    .RdyObjPtr     .RdyMsgPtr     .RdyMsgSiz
2123:..\..\..\..\..\..\Software\uCOS-III\Source/os_core.c **** *                                         +--------------+--------------+--------------+-----------
2124:..\..\..\..\..\..\Software\uCOS-III\Source/os_core.c **** *              p_tcb->PendDataTblPtr  ->  |  Obj A       |  0           | 0            | 0         
2125:..\..\..\..\..\..\Software\uCOS-III\Source/os_core.c **** *                                         +--------------+--------------+--------------+-----------
ARM GAS  C:\Users\ADMINI~1\AppData\Local\Temp\cczjWrOu.s 			page 84


2126:..\..\..\..\..\..\Software\uCOS-III\Source/os_core.c **** *                                         |  Obj B       |  0           | 0            | 0         
2127:..\..\..\..\..\..\Software\uCOS-III\Source/os_core.c **** *                                         +--------------+--------------+--------------+-----------
2128:..\..\..\..\..\..\Software\uCOS-III\Source/os_core.c **** *                                         |  Obj C       |  Obj C       | Msg Ptr      | Msg Size  
2129:..\..\..\..\..\..\Software\uCOS-III\Source/os_core.c **** *                                         +--------------+--------------+--------------+-----------
2130:..\..\..\..\..\..\Software\uCOS-III\Source/os_core.c **** *                                         |  Obj D       |  0           | 0            | 0         
2131:..\..\..\..\..\..\Software\uCOS-III\Source/os_core.c **** *                                         +--------------+--------------+--------------+-----------
2132:..\..\..\..\..\..\Software\uCOS-III\Source/os_core.c **** *                                         |  Obj E       |  0           | 0            | 0         
2133:..\..\..\..\..\..\Software\uCOS-III\Source/os_core.c **** *                                         +--------------+--------------+--------------+-----------
2134:..\..\..\..\..\..\Software\uCOS-III\Source/os_core.c **** *                                         |  Obj F       |  0           | 0            | 0         
2135:..\..\..\..\..\..\Software\uCOS-III\Source/os_core.c **** *                                         +--------------+--------------+--------------+-----------
2136:..\..\..\..\..\..\Software\uCOS-III\Source/os_core.c **** *
2137:..\..\..\..\..\..\Software\uCOS-III\Source/os_core.c **** *
2138:..\..\..\..\..\..\Software\uCOS-III\Source/os_core.c **** * Arguments  : p_obj        is a pointer to the object being posted to
2139:..\..\..\..\..\..\Software\uCOS-III\Source/os_core.c **** *              -----
2140:..\..\..\..\..\..\Software\uCOS-III\Source/os_core.c **** *
2141:..\..\..\..\..\..\Software\uCOS-III\Source/os_core.c **** *              p_tcb        is the OS_TCB of the task receiving the signal or the message
2142:..\..\..\..\..\..\Software\uCOS-III\Source/os_core.c **** *              -----
2143:..\..\..\..\..\..\Software\uCOS-III\Source/os_core.c **** *
2144:..\..\..\..\..\..\Software\uCOS-III\Source/os_core.c **** *              p_void       is the actual message (assuming posting to a message queue).  A NULL po
2145:..\..\..\..\..\..\Software\uCOS-III\Source/os_core.c **** *
2146:..\..\..\..\..\..\Software\uCOS-III\Source/os_core.c **** *              msg_size     is the size of the message sent (if posted to a message queue)
2147:..\..\..\..\..\..\Software\uCOS-III\Source/os_core.c **** *
2148:..\..\..\..\..\..\Software\uCOS-III\Source/os_core.c **** *              ts           is the time stamp of when the post occurred
2149:..\..\..\..\..\..\Software\uCOS-III\Source/os_core.c **** *
2150:..\..\..\..\..\..\Software\uCOS-III\Source/os_core.c **** * Returns    : none
2151:..\..\..\..\..\..\Software\uCOS-III\Source/os_core.c **** *
2152:..\..\..\..\..\..\Software\uCOS-III\Source/os_core.c **** * Note(s)    : 1) This function is INTERNAL to uC/OS-III and your application MUST NOT call it.
2153:..\..\..\..\..\..\Software\uCOS-III\Source/os_core.c **** ***************************************************************************************************
2154:..\..\..\..\..\..\Software\uCOS-III\Source/os_core.c **** */
2155:..\..\..\..\..\..\Software\uCOS-III\Source/os_core.c **** #if (OS_CFG_PEND_MULTI_EN == DEF_ENABLED)
2156:..\..\..\..\..\..\Software\uCOS-III\Source/os_core.c **** void  OS_Post1 (OS_PEND_OBJ  *p_obj,
2157:..\..\..\..\..\..\Software\uCOS-III\Source/os_core.c ****                 OS_TCB       *p_tcb,
2158:..\..\..\..\..\..\Software\uCOS-III\Source/os_core.c ****                 void         *p_void,
2159:..\..\..\..\..\..\Software\uCOS-III\Source/os_core.c ****                 OS_MSG_SIZE   msg_size,
2160:..\..\..\..\..\..\Software\uCOS-III\Source/os_core.c ****                 CPU_TS        ts)
2161:..\..\..\..\..\..\Software\uCOS-III\Source/os_core.c **** {
2162:..\..\..\..\..\..\Software\uCOS-III\Source/os_core.c ****     OS_OBJ_QTY      n_pend_list;                                /* Number of pend lists            
2163:..\..\..\..\..\..\Software\uCOS-III\Source/os_core.c ****     OS_PEND_DATA   *p_pend_data;
2164:..\..\..\..\..\..\Software\uCOS-III\Source/os_core.c **** 
2165:..\..\..\..\..\..\Software\uCOS-III\Source/os_core.c **** 
2166:..\..\..\..\..\..\Software\uCOS-III\Source/os_core.c **** #if (OS_CFG_TS_EN == DEF_DISABLED)
2167:..\..\..\..\..\..\Software\uCOS-III\Source/os_core.c ****     (void)ts;                                                   /* Prevent compiler warning for not
2168:..\..\..\..\..\..\Software\uCOS-III\Source/os_core.c **** #endif
2169:..\..\..\..\..\..\Software\uCOS-III\Source/os_core.c **** 
2170:..\..\..\..\..\..\Software\uCOS-III\Source/os_core.c ****     p_pend_data = p_tcb->PendDataTblPtr;                        /* Point to the first OS_PEND_DATA 
2171:..\..\..\..\..\..\Software\uCOS-III\Source/os_core.c ****     n_pend_list = p_tcb->PendDataTblEntries;                    /* Get number of entries in the tab
2172:..\..\..\..\..\..\Software\uCOS-III\Source/os_core.c **** 
2173:..\..\..\..\..\..\Software\uCOS-III\Source/os_core.c ****     while (n_pend_list > 0u) {                                  /* Mark posted object in OS_PEND_DA
2174:..\..\..\..\..\..\Software\uCOS-III\Source/os_core.c ****         if (p_obj == p_pend_data->PendObjPtr) {                 /* Did we find the object posted to
2175:..\..\..\..\..\..\Software\uCOS-III\Source/os_core.c ****             p_pend_data->RdyObjPtr  = p_obj;                    /* Yes, indicate the object in the 
2176:..\..\..\..\..\..\Software\uCOS-III\Source/os_core.c ****             p_pend_data->RdyMsgPtr  = p_void;                   /* store the message posted        
2177:..\..\..\..\..\..\Software\uCOS-III\Source/os_core.c ****             p_pend_data->RdyMsgSize = msg_size;                 /* store the size of the message po
2178:..\..\..\..\..\..\Software\uCOS-III\Source/os_core.c **** #if (OS_CFG_TS_EN == DEF_ENABLED)
2179:..\..\..\..\..\..\Software\uCOS-III\Source/os_core.c ****             p_pend_data->RdyTS      = ts;                       /* save the timestamp of the post  
2180:..\..\..\..\..\..\Software\uCOS-III\Source/os_core.c **** #endif
2181:..\..\..\..\..\..\Software\uCOS-III\Source/os_core.c ****             break;
2182:..\..\..\..\..\..\Software\uCOS-III\Source/os_core.c ****         }
ARM GAS  C:\Users\ADMINI~1\AppData\Local\Temp\cczjWrOu.s 			page 85


2183:..\..\..\..\..\..\Software\uCOS-III\Source/os_core.c ****         p_pend_data++;
2184:..\..\..\..\..\..\Software\uCOS-III\Source/os_core.c ****         n_pend_list--;
2185:..\..\..\..\..\..\Software\uCOS-III\Source/os_core.c ****     }
2186:..\..\..\..\..\..\Software\uCOS-III\Source/os_core.c **** }
2187:..\..\..\..\..\..\Software\uCOS-III\Source/os_core.c **** #endif
2188:..\..\..\..\..\..\Software\uCOS-III\Source/os_core.c **** 
2189:..\..\..\..\..\..\Software\uCOS-III\Source/os_core.c **** /*
2190:..\..\..\..\..\..\Software\uCOS-III\Source/os_core.c **** ***************************************************************************************************
2191:..\..\..\..\..\..\Software\uCOS-III\Source/os_core.c **** *                                                    INITIALIZATION
2192:..\..\..\..\..\..\Software\uCOS-III\Source/os_core.c **** *                                               READY LIST INITIALIZATION
2193:..\..\..\..\..\..\Software\uCOS-III\Source/os_core.c **** *
2194:..\..\..\..\..\..\Software\uCOS-III\Source/os_core.c **** * Description: This function is called by OSInit() to initialize the ready list.  The ready list co
2195:..\..\..\..\..\..\Software\uCOS-III\Source/os_core.c **** *              the tasks that are ready to run.  The list is actually an array of OS_RDY_LIST.  An 
2196:..\..\..\..\..\..\Software\uCOS-III\Source/os_core.c **** *              three fields.  The number of OS_TCBs in the list (i.e. .NbrEntries), a pointer to th
2197:..\..\..\..\..\..\Software\uCOS-III\Source/os_core.c **** *              OS_RDY_LIST (i.e. .HeadPtr) and a pointer to the last OS_TCB in the OS_RDY_LIST (i.e
2198:..\..\..\..\..\..\Software\uCOS-III\Source/os_core.c **** *
2199:..\..\..\..\..\..\Software\uCOS-III\Source/os_core.c **** *              OS_TCBs are doubly linked in the OS_RDY_LIST and each OS_TCB points pack to the OS_R
2200:..\..\..\..\..\..\Software\uCOS-III\Source/os_core.c **** *              to.
2201:..\..\..\..\..\..\Software\uCOS-III\Source/os_core.c **** *
2202:..\..\..\..\..\..\Software\uCOS-III\Source/os_core.c **** *              'OS_RDY_LIST  OSRdyTbl[OS_CFG_PRIO_MAX]'  looks like this once initialized:
2203:..\..\..\..\..\..\Software\uCOS-III\Source/os_core.c **** *
2204:..\..\..\..\..\..\Software\uCOS-III\Source/os_core.c **** *                               +---------------+--------------+
2205:..\..\..\..\..\..\Software\uCOS-III\Source/os_core.c **** *                               |               | TailPtr      |-----> 0
2206:..\..\..\..\..\..\Software\uCOS-III\Source/os_core.c **** *                          [0]  | NbrEntries=0  +--------------+
2207:..\..\..\..\..\..\Software\uCOS-III\Source/os_core.c **** *                               |               | HeadPtr      |-----> 0
2208:..\..\..\..\..\..\Software\uCOS-III\Source/os_core.c **** *                               +---------------+--------------+
2209:..\..\..\..\..\..\Software\uCOS-III\Source/os_core.c **** *                               |               | TailPtr      |-----> 0
2210:..\..\..\..\..\..\Software\uCOS-III\Source/os_core.c **** *                          [1]  | NbrEntries=0  +--------------+
2211:..\..\..\..\..\..\Software\uCOS-III\Source/os_core.c **** *                               |               | HeadPtr      |-----> 0
2212:..\..\..\..\..\..\Software\uCOS-III\Source/os_core.c **** *                               +---------------+--------------+
2213:..\..\..\..\..\..\Software\uCOS-III\Source/os_core.c **** *                                       :              :
2214:..\..\..\..\..\..\Software\uCOS-III\Source/os_core.c **** *                                       :              :
2215:..\..\..\..\..\..\Software\uCOS-III\Source/os_core.c **** *                                       :              :
2216:..\..\..\..\..\..\Software\uCOS-III\Source/os_core.c **** *                               +---------------+--------------+
2217:..\..\..\..\..\..\Software\uCOS-III\Source/os_core.c **** *                               |               | TailPtr      |-----> 0
2218:..\..\..\..\..\..\Software\uCOS-III\Source/os_core.c **** *          [OS_CFG_PRIO_MAX-1]  | NbrEntries=0  +--------------+
2219:..\..\..\..\..\..\Software\uCOS-III\Source/os_core.c **** *                               |               | HeadPtr      |-----> 0
2220:..\..\..\..\..\..\Software\uCOS-III\Source/os_core.c **** *                               +---------------+--------------+
2221:..\..\..\..\..\..\Software\uCOS-III\Source/os_core.c **** *
2222:..\..\..\..\..\..\Software\uCOS-III\Source/os_core.c **** *
2223:..\..\..\..\..\..\Software\uCOS-III\Source/os_core.c **** * Arguments  : none
2224:..\..\..\..\..\..\Software\uCOS-III\Source/os_core.c **** *
2225:..\..\..\..\..\..\Software\uCOS-III\Source/os_core.c **** * Returns    : none
2226:..\..\..\..\..\..\Software\uCOS-III\Source/os_core.c **** *
2227:..\..\..\..\..\..\Software\uCOS-III\Source/os_core.c **** * Note(s)    : This function is INTERNAL to uC/OS-III and your application should not call it.
2228:..\..\..\..\..\..\Software\uCOS-III\Source/os_core.c **** ***************************************************************************************************
2229:..\..\..\..\..\..\Software\uCOS-III\Source/os_core.c **** */
2230:..\..\..\..\..\..\Software\uCOS-III\Source/os_core.c **** 
2231:..\..\..\..\..\..\Software\uCOS-III\Source/os_core.c **** void  OS_RdyListInit (void)
2232:..\..\..\..\..\..\Software\uCOS-III\Source/os_core.c **** {
 2551              		.loc 1 2232 0
 2552              		.cfi_startproc
 2553              		@ args = 0, pretend = 0, frame = 8
 2554              		@ frame_needed = 1, uses_anonymous_args = 0
 2555 0000 80B5     		push	{r7, lr}
 2556              		.cfi_def_cfa_offset 8
 2557              		.cfi_offset 7, -8
ARM GAS  C:\Users\ADMINI~1\AppData\Local\Temp\cczjWrOu.s 			page 86


 2558              		.cfi_offset 14, -4
 2559 0002 82B0     		sub	sp, sp, #8
 2560              		.cfi_def_cfa_offset 16
 2561 0004 00AF     		add	r7, sp, #0
 2562              		.cfi_def_cfa_register 7
2233:..\..\..\..\..\..\Software\uCOS-III\Source/os_core.c ****     CPU_INT32U    i;
2234:..\..\..\..\..\..\Software\uCOS-III\Source/os_core.c ****     OS_RDY_LIST  *p_rdy_list;
2235:..\..\..\..\..\..\Software\uCOS-III\Source/os_core.c **** 
2236:..\..\..\..\..\..\Software\uCOS-III\Source/os_core.c **** 
2237:..\..\..\..\..\..\Software\uCOS-III\Source/os_core.c **** 
2238:..\..\..\..\..\..\Software\uCOS-III\Source/os_core.c ****     for (i = 0u; i < OS_CFG_PRIO_MAX; i++) {                    /* Initialize the array of OS_RDY_L
 2563              		.loc 1 2238 0
 2564 0006 0023     		movs	r3, #0
 2565 0008 7B60     		str	r3, [r7, #4]
 2566 000a 13E0     		b	.L170
 2567              	.L171:
2239:..\..\..\..\..\..\Software\uCOS-III\Source/os_core.c ****         p_rdy_list = &OSRdyList[i];
 2568              		.loc 1 2239 0 discriminator 3
 2569 000c 7A68     		ldr	r2, [r7, #4]
 2570 000e 1300     		movs	r3, r2
 2571 0010 5B00     		lsls	r3, r3, #1
 2572 0012 9B18     		adds	r3, r3, r2
 2573 0014 9B00     		lsls	r3, r3, #2
 2574 0016 0B4A     		ldr	r2, .L172
 2575 0018 9B18     		adds	r3, r3, r2
 2576 001a 3B60     		str	r3, [r7]
2240:..\..\..\..\..\..\Software\uCOS-III\Source/os_core.c **** #if (OS_CFG_DBG_EN == DEF_ENABLED)
2241:..\..\..\..\..\..\Software\uCOS-III\Source/os_core.c ****         p_rdy_list->NbrEntries = 0u;
 2577              		.loc 1 2241 0 discriminator 3
 2578 001c 3B68     		ldr	r3, [r7]
 2579 001e 0022     		movs	r2, #0
 2580 0020 1A81     		strh	r2, [r3, #8]
2242:..\..\..\..\..\..\Software\uCOS-III\Source/os_core.c **** #endif
2243:..\..\..\..\..\..\Software\uCOS-III\Source/os_core.c ****         p_rdy_list->HeadPtr    = DEF_NULL;
 2581              		.loc 1 2243 0 discriminator 3
 2582 0022 3B68     		ldr	r3, [r7]
 2583 0024 0022     		movs	r2, #0
 2584 0026 1A60     		str	r2, [r3]
2244:..\..\..\..\..\..\Software\uCOS-III\Source/os_core.c ****         p_rdy_list->TailPtr    = DEF_NULL;
 2585              		.loc 1 2244 0 discriminator 3
 2586 0028 3B68     		ldr	r3, [r7]
 2587 002a 0022     		movs	r2, #0
 2588 002c 5A60     		str	r2, [r3, #4]
2238:..\..\..\..\..\..\Software\uCOS-III\Source/os_core.c ****         p_rdy_list = &OSRdyList[i];
 2589              		.loc 1 2238 0 discriminator 3
 2590 002e 7B68     		ldr	r3, [r7, #4]
 2591 0030 0133     		adds	r3, r3, #1
 2592 0032 7B60     		str	r3, [r7, #4]
 2593              	.L170:
2238:..\..\..\..\..\..\Software\uCOS-III\Source/os_core.c ****         p_rdy_list = &OSRdyList[i];
 2594              		.loc 1 2238 0 is_stmt 0 discriminator 1
 2595 0034 7B68     		ldr	r3, [r7, #4]
 2596 0036 1F2B     		cmp	r3, #31
 2597 0038 E8D9     		bls	.L171
2245:..\..\..\..\..\..\Software\uCOS-III\Source/os_core.c ****     }
2246:..\..\..\..\..\..\Software\uCOS-III\Source/os_core.c **** }
 2598              		.loc 1 2246 0 is_stmt 1
ARM GAS  C:\Users\ADMINI~1\AppData\Local\Temp\cczjWrOu.s 			page 87


 2599 003a C046     		nop
 2600 003c BD46     		mov	sp, r7
 2601 003e 02B0     		add	sp, sp, #8
 2602              		@ sp needed
 2603 0040 80BD     		pop	{r7, pc}
 2604              	.L173:
 2605 0042 C046     		.align	2
 2606              	.L172:
 2607 0044 00000000 		.word	OSRdyList
 2608              		.cfi_endproc
 2609              	.LFE22:
 2610              		.size	OS_RdyListInit, .-OS_RdyListInit
 2611              		.section	.text.OS_RdyListInsert,"ax",%progbits
 2612              		.align	2
 2613              		.global	OS_RdyListInsert
 2614              		.code	16
 2615              		.thumb_func
 2616              		.type	OS_RdyListInsert, %function
 2617              	OS_RdyListInsert:
 2618              	.LFB23:
2247:..\..\..\..\..\..\Software\uCOS-III\Source/os_core.c **** 
2248:..\..\..\..\..\..\Software\uCOS-III\Source/os_core.c **** 
2249:..\..\..\..\..\..\Software\uCOS-III\Source/os_core.c **** /*
2250:..\..\..\..\..\..\Software\uCOS-III\Source/os_core.c **** ***************************************************************************************************
2251:..\..\..\..\..\..\Software\uCOS-III\Source/os_core.c **** *                                             INSERT TCB IN THE READY LIST
2252:..\..\..\..\..\..\Software\uCOS-III\Source/os_core.c **** *
2253:..\..\..\..\..\..\Software\uCOS-III\Source/os_core.c **** * Description: This function is called to insert a TCB in the ready list.
2254:..\..\..\..\..\..\Software\uCOS-III\Source/os_core.c **** *
2255:..\..\..\..\..\..\Software\uCOS-III\Source/os_core.c **** *              The TCB is inserted at the tail of the list if the priority of the TCB is the same a
2256:..\..\..\..\..\..\Software\uCOS-III\Source/os_core.c **** *              current task.  The TCB is inserted at the head of the list if not.
2257:..\..\..\..\..\..\Software\uCOS-III\Source/os_core.c **** *
2258:..\..\..\..\..\..\Software\uCOS-III\Source/os_core.c **** * Arguments  : p_tcb     is a pointer to the TCB to insert into the ready list
2259:..\..\..\..\..\..\Software\uCOS-III\Source/os_core.c **** *              -----
2260:..\..\..\..\..\..\Software\uCOS-III\Source/os_core.c **** *
2261:..\..\..\..\..\..\Software\uCOS-III\Source/os_core.c **** * Returns    : none
2262:..\..\..\..\..\..\Software\uCOS-III\Source/os_core.c **** *
2263:..\..\..\..\..\..\Software\uCOS-III\Source/os_core.c **** * Note(s)    : This function is INTERNAL to uC/OS-III and your application should not call it.
2264:..\..\..\..\..\..\Software\uCOS-III\Source/os_core.c **** ***************************************************************************************************
2265:..\..\..\..\..\..\Software\uCOS-III\Source/os_core.c **** */
2266:..\..\..\..\..\..\Software\uCOS-III\Source/os_core.c **** 
2267:..\..\..\..\..\..\Software\uCOS-III\Source/os_core.c **** void  OS_RdyListInsert (OS_TCB  *p_tcb)
2268:..\..\..\..\..\..\Software\uCOS-III\Source/os_core.c **** {
 2619              		.loc 1 2268 0
 2620              		.cfi_startproc
 2621              		@ args = 0, pretend = 0, frame = 8
 2622              		@ frame_needed = 1, uses_anonymous_args = 0
 2623 0000 80B5     		push	{r7, lr}
 2624              		.cfi_def_cfa_offset 8
 2625              		.cfi_offset 7, -8
 2626              		.cfi_offset 14, -4
 2627 0002 82B0     		sub	sp, sp, #8
 2628              		.cfi_def_cfa_offset 16
 2629 0004 00AF     		add	r7, sp, #0
 2630              		.cfi_def_cfa_register 7
 2631 0006 7860     		str	r0, [r7, #4]
2269:..\..\..\..\..\..\Software\uCOS-III\Source/os_core.c ****     OS_PrioInsert(p_tcb->Prio);
 2632              		.loc 1 2269 0
ARM GAS  C:\Users\ADMINI~1\AppData\Local\Temp\cczjWrOu.s 			page 88


 2633 0008 7B68     		ldr	r3, [r7, #4]
 2634 000a 3722     		movs	r2, #55
 2635 000c 9B5C     		ldrb	r3, [r3, r2]
 2636 000e 1800     		movs	r0, r3
 2637 0010 FFF7FEFF 		bl	OS_PrioInsert
2270:..\..\..\..\..\..\Software\uCOS-III\Source/os_core.c ****     if (p_tcb->Prio == OSPrioCur) {                             /* Are we readying a task at the sa
 2638              		.loc 1 2270 0
 2639 0014 7B68     		ldr	r3, [r7, #4]
 2640 0016 3722     		movs	r2, #55
 2641 0018 9A5C     		ldrb	r2, [r3, r2]
 2642 001a 084B     		ldr	r3, .L178
 2643 001c 1B78     		ldrb	r3, [r3]
 2644 001e 9A42     		cmp	r2, r3
 2645 0020 04D1     		bne	.L175
2271:..\..\..\..\..\..\Software\uCOS-III\Source/os_core.c ****         OS_RdyListInsertTail(p_tcb);                            /* Yes, insert readied task at the 
 2646              		.loc 1 2271 0
 2647 0022 7B68     		ldr	r3, [r7, #4]
 2648 0024 1800     		movs	r0, r3
 2649 0026 FFF7FEFF 		bl	OS_RdyListInsertTail
2272:..\..\..\..\..\..\Software\uCOS-III\Source/os_core.c ****     } else {
2273:..\..\..\..\..\..\Software\uCOS-III\Source/os_core.c ****         OS_RdyListInsertHead(p_tcb);                            /* No,  insert readied task at the 
2274:..\..\..\..\..\..\Software\uCOS-III\Source/os_core.c ****     }
2275:..\..\..\..\..\..\Software\uCOS-III\Source/os_core.c **** 
2276:..\..\..\..\..\..\Software\uCOS-III\Source/os_core.c **** #if (defined(TRACE_CFG_EN) && (TRACE_CFG_EN == DEF_ENABLED))
2277:..\..\..\..\..\..\Software\uCOS-III\Source/os_core.c ****         TRACE_OS_TASK_READY(p_tcb);                             /* Record the event.               
2278:..\..\..\..\..\..\Software\uCOS-III\Source/os_core.c **** #endif
2279:..\..\..\..\..\..\Software\uCOS-III\Source/os_core.c **** }
 2650              		.loc 1 2279 0
 2651 002a 03E0     		b	.L177
 2652              	.L175:
2273:..\..\..\..\..\..\Software\uCOS-III\Source/os_core.c ****     }
 2653              		.loc 1 2273 0
 2654 002c 7B68     		ldr	r3, [r7, #4]
 2655 002e 1800     		movs	r0, r3
 2656 0030 FFF7FEFF 		bl	OS_RdyListInsertHead
 2657              	.L177:
 2658              		.loc 1 2279 0
 2659 0034 C046     		nop
 2660 0036 BD46     		mov	sp, r7
 2661 0038 02B0     		add	sp, sp, #8
 2662              		@ sp needed
 2663 003a 80BD     		pop	{r7, pc}
 2664              	.L179:
 2665              		.align	2
 2666              	.L178:
 2667 003c 00000000 		.word	OSPrioCur
 2668              		.cfi_endproc
 2669              	.LFE23:
 2670              		.size	OS_RdyListInsert, .-OS_RdyListInsert
 2671              		.section	.text.OS_RdyListInsertHead,"ax",%progbits
 2672              		.align	2
 2673              		.global	OS_RdyListInsertHead
 2674              		.code	16
 2675              		.thumb_func
 2676              		.type	OS_RdyListInsertHead, %function
 2677              	OS_RdyListInsertHead:
 2678              	.LFB24:
ARM GAS  C:\Users\ADMINI~1\AppData\Local\Temp\cczjWrOu.s 			page 89


2280:..\..\..\..\..\..\Software\uCOS-III\Source/os_core.c **** 
2281:..\..\..\..\..\..\Software\uCOS-III\Source/os_core.c **** 
2282:..\..\..\..\..\..\Software\uCOS-III\Source/os_core.c **** /*
2283:..\..\..\..\..\..\Software\uCOS-III\Source/os_core.c **** ***************************************************************************************************
2284:..\..\..\..\..\..\Software\uCOS-III\Source/os_core.c **** *                                          INSERT TCB AT THE BEGINNING OF A LIST
2285:..\..\..\..\..\..\Software\uCOS-III\Source/os_core.c **** *
2286:..\..\..\..\..\..\Software\uCOS-III\Source/os_core.c **** * Description: This function is called to place an OS_TCB at the beginning of a linked list as foll
2287:..\..\..\..\..\..\Software\uCOS-III\Source/os_core.c **** *
2288:..\..\..\..\..\..\Software\uCOS-III\Source/os_core.c **** *              CASE 0: Insert in an empty list.
2289:..\..\..\..\..\..\Software\uCOS-III\Source/os_core.c **** *
2290:..\..\..\..\..\..\Software\uCOS-III\Source/os_core.c **** *                     OS_RDY_LIST
2291:..\..\..\..\..\..\Software\uCOS-III\Source/os_core.c **** *                     +--------------+
2292:..\..\..\..\..\..\Software\uCOS-III\Source/os_core.c **** *                     | TailPtr      |-> 0
2293:..\..\..\..\..\..\Software\uCOS-III\Source/os_core.c **** *                     +--------------+
2294:..\..\..\..\..\..\Software\uCOS-III\Source/os_core.c **** *                     | HeadPtr      |-> 0
2295:..\..\..\..\..\..\Software\uCOS-III\Source/os_core.c **** *                     +--------------+
2296:..\..\..\..\..\..\Software\uCOS-III\Source/os_core.c **** *                     | NbrEntries=0 |
2297:..\..\..\..\..\..\Software\uCOS-III\Source/os_core.c **** *                     +--------------+
2298:..\..\..\..\..\..\Software\uCOS-III\Source/os_core.c **** *
2299:..\..\..\..\..\..\Software\uCOS-III\Source/os_core.c **** *
2300:..\..\..\..\..\..\Software\uCOS-III\Source/os_core.c **** *
2301:..\..\..\..\..\..\Software\uCOS-III\Source/os_core.c **** *              CASE 1: Insert BEFORE the current head of list
2302:..\..\..\..\..\..\Software\uCOS-III\Source/os_core.c **** *
2303:..\..\..\..\..\..\Software\uCOS-III\Source/os_core.c **** *                     OS_RDY_LIST
2304:..\..\..\..\..\..\Software\uCOS-III\Source/os_core.c **** *                     +--------------+          OS_TCB
2305:..\..\..\..\..\..\Software\uCOS-III\Source/os_core.c **** *                     | TailPtr      |--+---> +------------+
2306:..\..\..\..\..\..\Software\uCOS-III\Source/os_core.c **** *                     +--------------+  |     | NextPtr    |->0
2307:..\..\..\..\..\..\Software\uCOS-III\Source/os_core.c **** *                     | HeadPtr      |--/     +------------+
2308:..\..\..\..\..\..\Software\uCOS-III\Source/os_core.c **** *                     +--------------+     0<-| PrevPtr    |
2309:..\..\..\..\..\..\Software\uCOS-III\Source/os_core.c **** *                     | NbrEntries=1 |        +------------+
2310:..\..\..\..\..\..\Software\uCOS-III\Source/os_core.c **** *                     +--------------+        :            :
2311:..\..\..\..\..\..\Software\uCOS-III\Source/os_core.c **** *                                             :            :
2312:..\..\..\..\..\..\Software\uCOS-III\Source/os_core.c **** *                                             +------------+
2313:..\..\..\..\..\..\Software\uCOS-III\Source/os_core.c **** *
2314:..\..\..\..\..\..\Software\uCOS-III\Source/os_core.c **** *
2315:..\..\..\..\..\..\Software\uCOS-III\Source/os_core.c **** *                     OS_RDY_LIST
2316:..\..\..\..\..\..\Software\uCOS-III\Source/os_core.c **** *                     +--------------+
2317:..\..\..\..\..\..\Software\uCOS-III\Source/os_core.c **** *                     | TailPtr      |-----------------------------------------------+
2318:..\..\..\..\..\..\Software\uCOS-III\Source/os_core.c **** *                     +--------------+          OS_TCB               OS_TCB          |     OS_TCB
2319:..\..\..\..\..\..\Software\uCOS-III\Source/os_core.c **** *                     | HeadPtr      |------> +------------+       +------------+    +-> +---------
2320:..\..\..\..\..\..\Software\uCOS-III\Source/os_core.c **** *                     +--------------+        | NextPtr    |------>| NextPtr    | ...... | NextPtr 
2321:..\..\..\..\..\..\Software\uCOS-III\Source/os_core.c **** *                     | NbrEntries=N |        +------------+       +------------+        +---------
2322:..\..\..\..\..\..\Software\uCOS-III\Source/os_core.c **** *                     +--------------+     0<-| PrevPtr    |<------| PrevPtr    | ...... | PrevPtr 
2323:..\..\..\..\..\..\Software\uCOS-III\Source/os_core.c **** *                                             +------------+       +------------+        +---------
2324:..\..\..\..\..\..\Software\uCOS-III\Source/os_core.c **** *                                             :            :       :            :        :         
2325:..\..\..\..\..\..\Software\uCOS-III\Source/os_core.c **** *                                             :            :       :            :        :         
2326:..\..\..\..\..\..\Software\uCOS-III\Source/os_core.c **** *                                             +------------+       +------------+        +---------
2327:..\..\..\..\..\..\Software\uCOS-III\Source/os_core.c **** *
2328:..\..\..\..\..\..\Software\uCOS-III\Source/os_core.c **** *
2329:..\..\..\..\..\..\Software\uCOS-III\Source/os_core.c **** * Arguments  : p_tcb     is the OS_TCB to insert in the list
2330:..\..\..\..\..\..\Software\uCOS-III\Source/os_core.c **** *              -----
2331:..\..\..\..\..\..\Software\uCOS-III\Source/os_core.c **** *
2332:..\..\..\..\..\..\Software\uCOS-III\Source/os_core.c **** * Returns    : none
2333:..\..\..\..\..\..\Software\uCOS-III\Source/os_core.c **** *
2334:..\..\..\..\..\..\Software\uCOS-III\Source/os_core.c **** * Note(s)    : 1) This function is INTERNAL to uC/OS-III and your application MUST NOT call it.
2335:..\..\..\..\..\..\Software\uCOS-III\Source/os_core.c **** ***************************************************************************************************
2336:..\..\..\..\..\..\Software\uCOS-III\Source/os_core.c **** */
ARM GAS  C:\Users\ADMINI~1\AppData\Local\Temp\cczjWrOu.s 			page 90


2337:..\..\..\..\..\..\Software\uCOS-III\Source/os_core.c **** 
2338:..\..\..\..\..\..\Software\uCOS-III\Source/os_core.c **** void  OS_RdyListInsertHead (OS_TCB  *p_tcb)
2339:..\..\..\..\..\..\Software\uCOS-III\Source/os_core.c **** {
 2679              		.loc 1 2339 0
 2680              		.cfi_startproc
 2681              		@ args = 0, pretend = 0, frame = 16
 2682              		@ frame_needed = 1, uses_anonymous_args = 0
 2683 0000 80B5     		push	{r7, lr}
 2684              		.cfi_def_cfa_offset 8
 2685              		.cfi_offset 7, -8
 2686              		.cfi_offset 14, -4
 2687 0002 84B0     		sub	sp, sp, #16
 2688              		.cfi_def_cfa_offset 24
 2689 0004 00AF     		add	r7, sp, #0
 2690              		.cfi_def_cfa_register 7
 2691 0006 7860     		str	r0, [r7, #4]
2340:..\..\..\..\..\..\Software\uCOS-III\Source/os_core.c ****     OS_RDY_LIST  *p_rdy_list;
2341:..\..\..\..\..\..\Software\uCOS-III\Source/os_core.c ****     OS_TCB       *p_tcb2;
2342:..\..\..\..\..\..\Software\uCOS-III\Source/os_core.c **** 
2343:..\..\..\..\..\..\Software\uCOS-III\Source/os_core.c **** 
2344:..\..\..\..\..\..\Software\uCOS-III\Source/os_core.c **** 
2345:..\..\..\..\..\..\Software\uCOS-III\Source/os_core.c ****     p_rdy_list = &OSRdyList[p_tcb->Prio];
 2692              		.loc 1 2345 0
 2693 0008 7B68     		ldr	r3, [r7, #4]
 2694 000a 3722     		movs	r2, #55
 2695 000c 9B5C     		ldrb	r3, [r3, r2]
 2696 000e 1A00     		movs	r2, r3
 2697 0010 1300     		movs	r3, r2
 2698 0012 5B00     		lsls	r3, r3, #1
 2699 0014 9B18     		adds	r3, r3, r2
 2700 0016 9B00     		lsls	r3, r3, #2
 2701 0018 184A     		ldr	r2, .L184
 2702 001a 9B18     		adds	r3, r3, r2
 2703 001c FB60     		str	r3, [r7, #12]
2346:..\..\..\..\..\..\Software\uCOS-III\Source/os_core.c ****     if (p_rdy_list->HeadPtr == DEF_NULL) {                      /* CASE 0: Insert when there are no
 2704              		.loc 1 2346 0
 2705 001e FB68     		ldr	r3, [r7, #12]
 2706 0020 1B68     		ldr	r3, [r3]
 2707 0022 002B     		cmp	r3, #0
 2708 0024 0FD1     		bne	.L181
2347:..\..\..\..\..\..\Software\uCOS-III\Source/os_core.c **** #if (OS_CFG_DBG_EN == DEF_ENABLED)
2348:..\..\..\..\..\..\Software\uCOS-III\Source/os_core.c ****         p_rdy_list->NbrEntries =  1u;                           /* This is the first entry         
 2709              		.loc 1 2348 0
 2710 0026 FB68     		ldr	r3, [r7, #12]
 2711 0028 0122     		movs	r2, #1
 2712 002a 1A81     		strh	r2, [r3, #8]
2349:..\..\..\..\..\..\Software\uCOS-III\Source/os_core.c **** #endif
2350:..\..\..\..\..\..\Software\uCOS-III\Source/os_core.c ****         p_tcb->NextPtr         =  DEF_NULL;                     /* No other OS_TCBs in the list    
 2713              		.loc 1 2350 0
 2714 002c 7B68     		ldr	r3, [r7, #4]
 2715 002e 0022     		movs	r2, #0
 2716 0030 1A61     		str	r2, [r3, #16]
2351:..\..\..\..\..\..\Software\uCOS-III\Source/os_core.c ****         p_tcb->PrevPtr         =  DEF_NULL;
 2717              		.loc 1 2351 0
 2718 0032 7B68     		ldr	r3, [r7, #4]
 2719 0034 0022     		movs	r2, #0
 2720 0036 5A61     		str	r2, [r3, #20]
ARM GAS  C:\Users\ADMINI~1\AppData\Local\Temp\cczjWrOu.s 			page 91


2352:..\..\..\..\..\..\Software\uCOS-III\Source/os_core.c ****         p_rdy_list->HeadPtr    =  p_tcb;                        /* Both list pointers point to this
 2721              		.loc 1 2352 0
 2722 0038 FB68     		ldr	r3, [r7, #12]
 2723 003a 7A68     		ldr	r2, [r7, #4]
 2724 003c 1A60     		str	r2, [r3]
2353:..\..\..\..\..\..\Software\uCOS-III\Source/os_core.c ****         p_rdy_list->TailPtr    =  p_tcb;
 2725              		.loc 1 2353 0
 2726 003e FB68     		ldr	r3, [r7, #12]
 2727 0040 7A68     		ldr	r2, [r7, #4]
 2728 0042 5A60     		str	r2, [r3, #4]
2354:..\..\..\..\..\..\Software\uCOS-III\Source/os_core.c ****     } else {                                                    /* CASE 1: Insert BEFORE the curren
2355:..\..\..\..\..\..\Software\uCOS-III\Source/os_core.c **** #if (OS_CFG_DBG_EN == DEF_ENABLED)
2356:..\..\..\..\..\..\Software\uCOS-III\Source/os_core.c ****         p_rdy_list->NbrEntries++;                               /* One more OS_TCB in the list     
2357:..\..\..\..\..\..\Software\uCOS-III\Source/os_core.c **** #endif
2358:..\..\..\..\..\..\Software\uCOS-III\Source/os_core.c ****         p_tcb->NextPtr         = p_rdy_list->HeadPtr;           /* Adjust new OS_TCBs links        
2359:..\..\..\..\..\..\Software\uCOS-III\Source/os_core.c ****         p_tcb->PrevPtr         = DEF_NULL;
2360:..\..\..\..\..\..\Software\uCOS-III\Source/os_core.c ****         p_tcb2                 = p_rdy_list->HeadPtr;           /* Adjust old head of list's links 
2361:..\..\..\..\..\..\Software\uCOS-III\Source/os_core.c ****         p_tcb2->PrevPtr        = p_tcb;
2362:..\..\..\..\..\..\Software\uCOS-III\Source/os_core.c ****         p_rdy_list->HeadPtr    = p_tcb;
2363:..\..\..\..\..\..\Software\uCOS-III\Source/os_core.c ****     }
2364:..\..\..\..\..\..\Software\uCOS-III\Source/os_core.c **** }
 2729              		.loc 1 2364 0
 2730 0044 15E0     		b	.L183
 2731              	.L181:
2356:..\..\..\..\..\..\Software\uCOS-III\Source/os_core.c **** #endif
 2732              		.loc 1 2356 0
 2733 0046 FB68     		ldr	r3, [r7, #12]
 2734 0048 1B89     		ldrh	r3, [r3, #8]
 2735 004a 0133     		adds	r3, r3, #1
 2736 004c 9AB2     		uxth	r2, r3
 2737 004e FB68     		ldr	r3, [r7, #12]
 2738 0050 1A81     		strh	r2, [r3, #8]
2358:..\..\..\..\..\..\Software\uCOS-III\Source/os_core.c ****         p_tcb->PrevPtr         = DEF_NULL;
 2739              		.loc 1 2358 0
 2740 0052 FB68     		ldr	r3, [r7, #12]
 2741 0054 1A68     		ldr	r2, [r3]
 2742 0056 7B68     		ldr	r3, [r7, #4]
 2743 0058 1A61     		str	r2, [r3, #16]
2359:..\..\..\..\..\..\Software\uCOS-III\Source/os_core.c ****         p_tcb2                 = p_rdy_list->HeadPtr;           /* Adjust old head of list's links 
 2744              		.loc 1 2359 0
 2745 005a 7B68     		ldr	r3, [r7, #4]
 2746 005c 0022     		movs	r2, #0
 2747 005e 5A61     		str	r2, [r3, #20]
2360:..\..\..\..\..\..\Software\uCOS-III\Source/os_core.c ****         p_tcb2->PrevPtr        = p_tcb;
 2748              		.loc 1 2360 0
 2749 0060 FB68     		ldr	r3, [r7, #12]
 2750 0062 1B68     		ldr	r3, [r3]
 2751 0064 BB60     		str	r3, [r7, #8]
2361:..\..\..\..\..\..\Software\uCOS-III\Source/os_core.c ****         p_rdy_list->HeadPtr    = p_tcb;
 2752              		.loc 1 2361 0
 2753 0066 BB68     		ldr	r3, [r7, #8]
 2754 0068 7A68     		ldr	r2, [r7, #4]
 2755 006a 5A61     		str	r2, [r3, #20]
2362:..\..\..\..\..\..\Software\uCOS-III\Source/os_core.c ****     }
 2756              		.loc 1 2362 0
 2757 006c FB68     		ldr	r3, [r7, #12]
 2758 006e 7A68     		ldr	r2, [r7, #4]
ARM GAS  C:\Users\ADMINI~1\AppData\Local\Temp\cczjWrOu.s 			page 92


 2759 0070 1A60     		str	r2, [r3]
 2760              	.L183:
 2761              		.loc 1 2364 0
 2762 0072 C046     		nop
 2763 0074 BD46     		mov	sp, r7
 2764 0076 04B0     		add	sp, sp, #16
 2765              		@ sp needed
 2766 0078 80BD     		pop	{r7, pc}
 2767              	.L185:
 2768 007a C046     		.align	2
 2769              	.L184:
 2770 007c 00000000 		.word	OSRdyList
 2771              		.cfi_endproc
 2772              	.LFE24:
 2773              		.size	OS_RdyListInsertHead, .-OS_RdyListInsertHead
 2774              		.section	.text.OS_RdyListInsertTail,"ax",%progbits
 2775              		.align	2
 2776              		.global	OS_RdyListInsertTail
 2777              		.code	16
 2778              		.thumb_func
 2779              		.type	OS_RdyListInsertTail, %function
 2780              	OS_RdyListInsertTail:
 2781              	.LFB25:
2365:..\..\..\..\..\..\Software\uCOS-III\Source/os_core.c **** 
2366:..\..\..\..\..\..\Software\uCOS-III\Source/os_core.c **** 
2367:..\..\..\..\..\..\Software\uCOS-III\Source/os_core.c **** /*
2368:..\..\..\..\..\..\Software\uCOS-III\Source/os_core.c **** ***************************************************************************************************
2369:..\..\..\..\..\..\Software\uCOS-III\Source/os_core.c **** *                                           INSERT TCB AT THE END OF A LIST
2370:..\..\..\..\..\..\Software\uCOS-III\Source/os_core.c **** *
2371:..\..\..\..\..\..\Software\uCOS-III\Source/os_core.c **** * Description: This function is called to place an OS_TCB at the end of a linked list as follows:
2372:..\..\..\..\..\..\Software\uCOS-III\Source/os_core.c **** *
2373:..\..\..\..\..\..\Software\uCOS-III\Source/os_core.c **** *              CASE 0: Insert in an empty list.
2374:..\..\..\..\..\..\Software\uCOS-III\Source/os_core.c **** *
2375:..\..\..\..\..\..\Software\uCOS-III\Source/os_core.c **** *                     OS_RDY_LIST
2376:..\..\..\..\..\..\Software\uCOS-III\Source/os_core.c **** *                     +--------------+
2377:..\..\..\..\..\..\Software\uCOS-III\Source/os_core.c **** *                     | TailPtr      |-> 0
2378:..\..\..\..\..\..\Software\uCOS-III\Source/os_core.c **** *                     +--------------+
2379:..\..\..\..\..\..\Software\uCOS-III\Source/os_core.c **** *                     | HeadPtr      |-> 0
2380:..\..\..\..\..\..\Software\uCOS-III\Source/os_core.c **** *                     +--------------+
2381:..\..\..\..\..\..\Software\uCOS-III\Source/os_core.c **** *                     | NbrEntries=0 |
2382:..\..\..\..\..\..\Software\uCOS-III\Source/os_core.c **** *                     +--------------+
2383:..\..\..\..\..\..\Software\uCOS-III\Source/os_core.c **** *
2384:..\..\..\..\..\..\Software\uCOS-III\Source/os_core.c **** *
2385:..\..\..\..\..\..\Software\uCOS-III\Source/os_core.c **** *
2386:..\..\..\..\..\..\Software\uCOS-III\Source/os_core.c **** *              CASE 1: Insert AFTER the current tail of list
2387:..\..\..\..\..\..\Software\uCOS-III\Source/os_core.c **** *
2388:..\..\..\..\..\..\Software\uCOS-III\Source/os_core.c **** *                     OS_RDY_LIST
2389:..\..\..\..\..\..\Software\uCOS-III\Source/os_core.c **** *                     +--------------+          OS_TCB
2390:..\..\..\..\..\..\Software\uCOS-III\Source/os_core.c **** *                     | TailPtr      |--+---> +------------+
2391:..\..\..\..\..\..\Software\uCOS-III\Source/os_core.c **** *                     +--------------+  |     | NextPtr    |->0
2392:..\..\..\..\..\..\Software\uCOS-III\Source/os_core.c **** *                     | HeadPtr      |--/     +------------+
2393:..\..\..\..\..\..\Software\uCOS-III\Source/os_core.c **** *                     +--------------+     0<-| PrevPtr    |
2394:..\..\..\..\..\..\Software\uCOS-III\Source/os_core.c **** *                     | NbrEntries=1 |        +------------+
2395:..\..\..\..\..\..\Software\uCOS-III\Source/os_core.c **** *                     +--------------+        :            :
2396:..\..\..\..\..\..\Software\uCOS-III\Source/os_core.c **** *                                             :            :
2397:..\..\..\..\..\..\Software\uCOS-III\Source/os_core.c **** *                                             +------------+
2398:..\..\..\..\..\..\Software\uCOS-III\Source/os_core.c **** *
ARM GAS  C:\Users\ADMINI~1\AppData\Local\Temp\cczjWrOu.s 			page 93


2399:..\..\..\..\..\..\Software\uCOS-III\Source/os_core.c **** *
2400:..\..\..\..\..\..\Software\uCOS-III\Source/os_core.c **** *                     OS_RDY_LIST
2401:..\..\..\..\..\..\Software\uCOS-III\Source/os_core.c **** *                     +--------------+
2402:..\..\..\..\..\..\Software\uCOS-III\Source/os_core.c **** *                     | TailPtr      |-----------------------------------------------+
2403:..\..\..\..\..\..\Software\uCOS-III\Source/os_core.c **** *                     +--------------+          OS_TCB               OS_TCB          |     OS_TCB
2404:..\..\..\..\..\..\Software\uCOS-III\Source/os_core.c **** *                     | HeadPtr      |------> +------------+       +------------+    +-> +---------
2405:..\..\..\..\..\..\Software\uCOS-III\Source/os_core.c **** *                     +--------------+        | NextPtr    |------>| NextPtr    | ...... | NextPtr 
2406:..\..\..\..\..\..\Software\uCOS-III\Source/os_core.c **** *                     | NbrEntries=N |        +------------+       +------------+        +---------
2407:..\..\..\..\..\..\Software\uCOS-III\Source/os_core.c **** *                     +--------------+     0<-| PrevPtr    |<------| PrevPtr    | ...... | PrevPtr 
2408:..\..\..\..\..\..\Software\uCOS-III\Source/os_core.c **** *                                             +------------+       +------------+        +---------
2409:..\..\..\..\..\..\Software\uCOS-III\Source/os_core.c **** *                                             :            :       :            :        :         
2410:..\..\..\..\..\..\Software\uCOS-III\Source/os_core.c **** *                                             :            :       :            :        :         
2411:..\..\..\..\..\..\Software\uCOS-III\Source/os_core.c **** *                                             +------------+       +------------+        +---------
2412:..\..\..\..\..\..\Software\uCOS-III\Source/os_core.c **** *
2413:..\..\..\..\..\..\Software\uCOS-III\Source/os_core.c **** *
2414:..\..\..\..\..\..\Software\uCOS-III\Source/os_core.c **** * Arguments  : p_tcb     is the OS_TCB to insert in the list
2415:..\..\..\..\..\..\Software\uCOS-III\Source/os_core.c **** *              -----
2416:..\..\..\..\..\..\Software\uCOS-III\Source/os_core.c **** *
2417:..\..\..\..\..\..\Software\uCOS-III\Source/os_core.c **** * Returns    : none
2418:..\..\..\..\..\..\Software\uCOS-III\Source/os_core.c **** *
2419:..\..\..\..\..\..\Software\uCOS-III\Source/os_core.c **** * Note(s)    : 1) This function is INTERNAL to uC/OS-III and your application MUST NOT call it.
2420:..\..\..\..\..\..\Software\uCOS-III\Source/os_core.c **** ***************************************************************************************************
2421:..\..\..\..\..\..\Software\uCOS-III\Source/os_core.c **** */
2422:..\..\..\..\..\..\Software\uCOS-III\Source/os_core.c **** 
2423:..\..\..\..\..\..\Software\uCOS-III\Source/os_core.c **** void  OS_RdyListInsertTail (OS_TCB  *p_tcb)
2424:..\..\..\..\..\..\Software\uCOS-III\Source/os_core.c **** {
 2782              		.loc 1 2424 0
 2783              		.cfi_startproc
 2784              		@ args = 0, pretend = 0, frame = 16
 2785              		@ frame_needed = 1, uses_anonymous_args = 0
 2786 0000 80B5     		push	{r7, lr}
 2787              		.cfi_def_cfa_offset 8
 2788              		.cfi_offset 7, -8
 2789              		.cfi_offset 14, -4
 2790 0002 84B0     		sub	sp, sp, #16
 2791              		.cfi_def_cfa_offset 24
 2792 0004 00AF     		add	r7, sp, #0
 2793              		.cfi_def_cfa_register 7
 2794 0006 7860     		str	r0, [r7, #4]
2425:..\..\..\..\..\..\Software\uCOS-III\Source/os_core.c ****     OS_RDY_LIST  *p_rdy_list;
2426:..\..\..\..\..\..\Software\uCOS-III\Source/os_core.c ****     OS_TCB       *p_tcb2;
2427:..\..\..\..\..\..\Software\uCOS-III\Source/os_core.c **** 
2428:..\..\..\..\..\..\Software\uCOS-III\Source/os_core.c **** 
2429:..\..\..\..\..\..\Software\uCOS-III\Source/os_core.c **** 
2430:..\..\..\..\..\..\Software\uCOS-III\Source/os_core.c ****     p_rdy_list = &OSRdyList[p_tcb->Prio];
 2795              		.loc 1 2430 0
 2796 0008 7B68     		ldr	r3, [r7, #4]
 2797 000a 3722     		movs	r2, #55
 2798 000c 9B5C     		ldrb	r3, [r3, r2]
 2799 000e 1A00     		movs	r2, r3
 2800 0010 1300     		movs	r3, r2
 2801 0012 5B00     		lsls	r3, r3, #1
 2802 0014 9B18     		adds	r3, r3, r2
 2803 0016 9B00     		lsls	r3, r3, #2
 2804 0018 174A     		ldr	r2, .L190
 2805 001a 9B18     		adds	r3, r3, r2
 2806 001c FB60     		str	r3, [r7, #12]
ARM GAS  C:\Users\ADMINI~1\AppData\Local\Temp\cczjWrOu.s 			page 94


2431:..\..\..\..\..\..\Software\uCOS-III\Source/os_core.c ****     if (p_rdy_list->HeadPtr == DEF_NULL) {                      /* CASE 0: Insert when there are no
 2807              		.loc 1 2431 0
 2808 001e FB68     		ldr	r3, [r7, #12]
 2809 0020 1B68     		ldr	r3, [r3]
 2810 0022 002B     		cmp	r3, #0
 2811 0024 0FD1     		bne	.L187
2432:..\..\..\..\..\..\Software\uCOS-III\Source/os_core.c **** #if (OS_CFG_DBG_EN == DEF_ENABLED)
2433:..\..\..\..\..\..\Software\uCOS-III\Source/os_core.c ****         p_rdy_list->NbrEntries  = 1u;                           /* This is the first entry         
 2812              		.loc 1 2433 0
 2813 0026 FB68     		ldr	r3, [r7, #12]
 2814 0028 0122     		movs	r2, #1
 2815 002a 1A81     		strh	r2, [r3, #8]
2434:..\..\..\..\..\..\Software\uCOS-III\Source/os_core.c **** #endif
2435:..\..\..\..\..\..\Software\uCOS-III\Source/os_core.c ****         p_tcb->NextPtr          = DEF_NULL;                     /* No other OS_TCBs in the list    
 2816              		.loc 1 2435 0
 2817 002c 7B68     		ldr	r3, [r7, #4]
 2818 002e 0022     		movs	r2, #0
 2819 0030 1A61     		str	r2, [r3, #16]
2436:..\..\..\..\..\..\Software\uCOS-III\Source/os_core.c ****         p_tcb->PrevPtr          = DEF_NULL;
 2820              		.loc 1 2436 0
 2821 0032 7B68     		ldr	r3, [r7, #4]
 2822 0034 0022     		movs	r2, #0
 2823 0036 5A61     		str	r2, [r3, #20]
2437:..\..\..\..\..\..\Software\uCOS-III\Source/os_core.c ****         p_rdy_list->HeadPtr     = p_tcb;                        /* Both list pointers point to this
 2824              		.loc 1 2437 0
 2825 0038 FB68     		ldr	r3, [r7, #12]
 2826 003a 7A68     		ldr	r2, [r7, #4]
 2827 003c 1A60     		str	r2, [r3]
2438:..\..\..\..\..\..\Software\uCOS-III\Source/os_core.c ****         p_rdy_list->TailPtr     = p_tcb;
 2828              		.loc 1 2438 0
 2829 003e FB68     		ldr	r3, [r7, #12]
 2830 0040 7A68     		ldr	r2, [r7, #4]
 2831 0042 5A60     		str	r2, [r3, #4]
2439:..\..\..\..\..\..\Software\uCOS-III\Source/os_core.c ****     } else {                                                    /* CASE 1: Insert AFTER the current
2440:..\..\..\..\..\..\Software\uCOS-III\Source/os_core.c **** #if (OS_CFG_DBG_EN == DEF_ENABLED)
2441:..\..\..\..\..\..\Software\uCOS-III\Source/os_core.c ****         p_rdy_list->NbrEntries++;                               /* One more OS_TCB in the list     
2442:..\..\..\..\..\..\Software\uCOS-III\Source/os_core.c **** #endif
2443:..\..\..\..\..\..\Software\uCOS-III\Source/os_core.c ****         p_tcb->NextPtr          = DEF_NULL;                     /* Adjust new OS_TCBs links        
2444:..\..\..\..\..\..\Software\uCOS-III\Source/os_core.c ****         p_tcb2                  = p_rdy_list->TailPtr;
2445:..\..\..\..\..\..\Software\uCOS-III\Source/os_core.c ****         p_tcb->PrevPtr          = p_tcb2;
2446:..\..\..\..\..\..\Software\uCOS-III\Source/os_core.c ****         p_tcb2->NextPtr         = p_tcb;                        /* Adjust old tail of list's links 
2447:..\..\..\..\..\..\Software\uCOS-III\Source/os_core.c ****         p_rdy_list->TailPtr     = p_tcb;
2448:..\..\..\..\..\..\Software\uCOS-III\Source/os_core.c ****     }
2449:..\..\..\..\..\..\Software\uCOS-III\Source/os_core.c **** }
 2832              		.loc 1 2449 0
 2833 0044 14E0     		b	.L189
 2834              	.L187:
2441:..\..\..\..\..\..\Software\uCOS-III\Source/os_core.c **** #endif
 2835              		.loc 1 2441 0
 2836 0046 FB68     		ldr	r3, [r7, #12]
 2837 0048 1B89     		ldrh	r3, [r3, #8]
 2838 004a 0133     		adds	r3, r3, #1
 2839 004c 9AB2     		uxth	r2, r3
 2840 004e FB68     		ldr	r3, [r7, #12]
 2841 0050 1A81     		strh	r2, [r3, #8]
2443:..\..\..\..\..\..\Software\uCOS-III\Source/os_core.c ****         p_tcb2                  = p_rdy_list->TailPtr;
 2842              		.loc 1 2443 0
ARM GAS  C:\Users\ADMINI~1\AppData\Local\Temp\cczjWrOu.s 			page 95


 2843 0052 7B68     		ldr	r3, [r7, #4]
 2844 0054 0022     		movs	r2, #0
 2845 0056 1A61     		str	r2, [r3, #16]
2444:..\..\..\..\..\..\Software\uCOS-III\Source/os_core.c ****         p_tcb->PrevPtr          = p_tcb2;
 2846              		.loc 1 2444 0
 2847 0058 FB68     		ldr	r3, [r7, #12]
 2848 005a 5B68     		ldr	r3, [r3, #4]
 2849 005c BB60     		str	r3, [r7, #8]
2445:..\..\..\..\..\..\Software\uCOS-III\Source/os_core.c ****         p_tcb2->NextPtr         = p_tcb;                        /* Adjust old tail of list's links 
 2850              		.loc 1 2445 0
 2851 005e 7B68     		ldr	r3, [r7, #4]
 2852 0060 BA68     		ldr	r2, [r7, #8]
 2853 0062 5A61     		str	r2, [r3, #20]
2446:..\..\..\..\..\..\Software\uCOS-III\Source/os_core.c ****         p_rdy_list->TailPtr     = p_tcb;
 2854              		.loc 1 2446 0
 2855 0064 BB68     		ldr	r3, [r7, #8]
 2856 0066 7A68     		ldr	r2, [r7, #4]
 2857 0068 1A61     		str	r2, [r3, #16]
2447:..\..\..\..\..\..\Software\uCOS-III\Source/os_core.c ****     }
 2858              		.loc 1 2447 0
 2859 006a FB68     		ldr	r3, [r7, #12]
 2860 006c 7A68     		ldr	r2, [r7, #4]
 2861 006e 5A60     		str	r2, [r3, #4]
 2862              	.L189:
 2863              		.loc 1 2449 0
 2864 0070 C046     		nop
 2865 0072 BD46     		mov	sp, r7
 2866 0074 04B0     		add	sp, sp, #16
 2867              		@ sp needed
 2868 0076 80BD     		pop	{r7, pc}
 2869              	.L191:
 2870              		.align	2
 2871              	.L190:
 2872 0078 00000000 		.word	OSRdyList
 2873              		.cfi_endproc
 2874              	.LFE25:
 2875              		.size	OS_RdyListInsertTail, .-OS_RdyListInsertTail
 2876              		.section	.text.OS_RdyListMoveHeadToTail,"ax",%progbits
 2877              		.align	2
 2878              		.global	OS_RdyListMoveHeadToTail
 2879              		.code	16
 2880              		.thumb_func
 2881              		.type	OS_RdyListMoveHeadToTail, %function
 2882              	OS_RdyListMoveHeadToTail:
 2883              	.LFB26:
2450:..\..\..\..\..\..\Software\uCOS-III\Source/os_core.c **** 
2451:..\..\..\..\..\..\Software\uCOS-III\Source/os_core.c **** 
2452:..\..\..\..\..\..\Software\uCOS-III\Source/os_core.c **** /*
2453:..\..\..\..\..\..\Software\uCOS-III\Source/os_core.c **** ***************************************************************************************************
2454:..\..\..\..\..\..\Software\uCOS-III\Source/os_core.c **** *                                                MOVE TCB AT HEAD TO TAIL
2455:..\..\..\..\..\..\Software\uCOS-III\Source/os_core.c **** *
2456:..\..\..\..\..\..\Software\uCOS-III\Source/os_core.c **** * Description: This function is called to move the current head of a list to the tail of the list.
2457:..\..\..\..\..\..\Software\uCOS-III\Source/os_core.c **** *
2458:..\..\..\..\..\..\Software\uCOS-III\Source/os_core.c **** *
2459:..\..\..\..\..\..\Software\uCOS-III\Source/os_core.c **** *              CASE 0: TCB list is empty, nothing to do.
2460:..\..\..\..\..\..\Software\uCOS-III\Source/os_core.c **** *
2461:..\..\..\..\..\..\Software\uCOS-III\Source/os_core.c **** *              CASE 1: Only 1 OS_TCB  in the list, nothing to do.
ARM GAS  C:\Users\ADMINI~1\AppData\Local\Temp\cczjWrOu.s 			page 96


2462:..\..\..\..\..\..\Software\uCOS-III\Source/os_core.c **** *
2463:..\..\..\..\..\..\Software\uCOS-III\Source/os_core.c **** *              CASE 2: Only 2 OS_TCBs in the list.
2464:..\..\..\..\..\..\Software\uCOS-III\Source/os_core.c **** *
2465:..\..\..\..\..\..\Software\uCOS-III\Source/os_core.c **** *                     OS_RDY_LIST
2466:..\..\..\..\..\..\Software\uCOS-III\Source/os_core.c **** *                     +--------------+
2467:..\..\..\..\..\..\Software\uCOS-III\Source/os_core.c **** *                     | TailPtr      |--------------------------+
2468:..\..\..\..\..\..\Software\uCOS-III\Source/os_core.c **** *                     +--------------+          OS_TCB          |     OS_TCB
2469:..\..\..\..\..\..\Software\uCOS-III\Source/os_core.c **** *                     | HeadPtr      |------> +------------+    +-> +------------+
2470:..\..\..\..\..\..\Software\uCOS-III\Source/os_core.c **** *                     +--------------+        | NextPtr    |------> | NextPtr    |->0
2471:..\..\..\..\..\..\Software\uCOS-III\Source/os_core.c **** *                     | NbrEntries=2 |        +------------+        +------------+
2472:..\..\..\..\..\..\Software\uCOS-III\Source/os_core.c **** *                     +--------------+     0<-| PrevPtr    | <------| PrevPtr    |
2473:..\..\..\..\..\..\Software\uCOS-III\Source/os_core.c **** *                                             +------------+        +------------+
2474:..\..\..\..\..\..\Software\uCOS-III\Source/os_core.c **** *                                             :            :        :            :
2475:..\..\..\..\..\..\Software\uCOS-III\Source/os_core.c **** *                                             :            :        :            :
2476:..\..\..\..\..\..\Software\uCOS-III\Source/os_core.c **** *                                             +------------+        +------------+
2477:..\..\..\..\..\..\Software\uCOS-III\Source/os_core.c **** *
2478:..\..\..\..\..\..\Software\uCOS-III\Source/os_core.c **** *
2479:..\..\..\..\..\..\Software\uCOS-III\Source/os_core.c **** *              CASE N: More than 2 OS_TCBs in the list.
2480:..\..\..\..\..\..\Software\uCOS-III\Source/os_core.c **** *
2481:..\..\..\..\..\..\Software\uCOS-III\Source/os_core.c **** *                     OS_RDY_LIST
2482:..\..\..\..\..\..\Software\uCOS-III\Source/os_core.c **** *                     +--------------+
2483:..\..\..\..\..\..\Software\uCOS-III\Source/os_core.c **** *                     | TailPtr      |-----------------------------------------------+
2484:..\..\..\..\..\..\Software\uCOS-III\Source/os_core.c **** *                     +--------------+          OS_TCB               OS_TCB          |     OS_TCB
2485:..\..\..\..\..\..\Software\uCOS-III\Source/os_core.c **** *                     | HeadPtr      |------> +------------+       +------------+    +-> +---------
2486:..\..\..\..\..\..\Software\uCOS-III\Source/os_core.c **** *                     +--------------+        | NextPtr    |------>| NextPtr    | ...... | NextPtr 
2487:..\..\..\..\..\..\Software\uCOS-III\Source/os_core.c **** *                     | NbrEntries=N |        +------------+       +------------+        +---------
2488:..\..\..\..\..\..\Software\uCOS-III\Source/os_core.c **** *                     +--------------+     0<-| PrevPtr    |<------| PrevPtr    | ...... | PrevPtr 
2489:..\..\..\..\..\..\Software\uCOS-III\Source/os_core.c **** *                                             +------------+       +------------+        +---------
2490:..\..\..\..\..\..\Software\uCOS-III\Source/os_core.c **** *                                             :            :       :            :        :         
2491:..\..\..\..\..\..\Software\uCOS-III\Source/os_core.c **** *                                             :            :       :            :        :         
2492:..\..\..\..\..\..\Software\uCOS-III\Source/os_core.c **** *                                             +------------+       +------------+        +---------
2493:..\..\..\..\..\..\Software\uCOS-III\Source/os_core.c **** *
2494:..\..\..\..\..\..\Software\uCOS-III\Source/os_core.c **** *
2495:..\..\..\..\..\..\Software\uCOS-III\Source/os_core.c **** * Arguments  : p_list    is a pointer to the OS_RDY_LIST where the OS_TCB will be inserted
2496:..\..\..\..\..\..\Software\uCOS-III\Source/os_core.c **** *              ------
2497:..\..\..\..\..\..\Software\uCOS-III\Source/os_core.c **** *
2498:..\..\..\..\..\..\Software\uCOS-III\Source/os_core.c **** * Returns    : none
2499:..\..\..\..\..\..\Software\uCOS-III\Source/os_core.c **** *
2500:..\..\..\..\..\..\Software\uCOS-III\Source/os_core.c **** * Note(s)    : 1) This function is INTERNAL to uC/OS-III and your application MUST NOT call it.
2501:..\..\..\..\..\..\Software\uCOS-III\Source/os_core.c **** ***************************************************************************************************
2502:..\..\..\..\..\..\Software\uCOS-III\Source/os_core.c **** */
2503:..\..\..\..\..\..\Software\uCOS-III\Source/os_core.c **** 
2504:..\..\..\..\..\..\Software\uCOS-III\Source/os_core.c **** void  OS_RdyListMoveHeadToTail (OS_RDY_LIST  *p_rdy_list)
2505:..\..\..\..\..\..\Software\uCOS-III\Source/os_core.c **** {
 2884              		.loc 1 2505 0
 2885              		.cfi_startproc
 2886              		@ args = 0, pretend = 0, frame = 24
 2887              		@ frame_needed = 1, uses_anonymous_args = 0
 2888 0000 80B5     		push	{r7, lr}
 2889              		.cfi_def_cfa_offset 8
 2890              		.cfi_offset 7, -8
 2891              		.cfi_offset 14, -4
 2892 0002 86B0     		sub	sp, sp, #24
 2893              		.cfi_def_cfa_offset 32
 2894 0004 00AF     		add	r7, sp, #0
 2895              		.cfi_def_cfa_register 7
 2896 0006 7860     		str	r0, [r7, #4]
ARM GAS  C:\Users\ADMINI~1\AppData\Local\Temp\cczjWrOu.s 			page 97


2506:..\..\..\..\..\..\Software\uCOS-III\Source/os_core.c ****     OS_TCB  *p_tcb1;
2507:..\..\..\..\..\..\Software\uCOS-III\Source/os_core.c ****     OS_TCB  *p_tcb2;
2508:..\..\..\..\..\..\Software\uCOS-III\Source/os_core.c ****     OS_TCB  *p_tcb3;
2509:..\..\..\..\..\..\Software\uCOS-III\Source/os_core.c **** 
2510:..\..\..\..\..\..\Software\uCOS-III\Source/os_core.c **** 
2511:..\..\..\..\..\..\Software\uCOS-III\Source/os_core.c ****      if (p_rdy_list->HeadPtr != p_rdy_list->TailPtr) {
 2897              		.loc 1 2511 0
 2898 0008 7B68     		ldr	r3, [r7, #4]
 2899 000a 1A68     		ldr	r2, [r3]
 2900 000c 7B68     		ldr	r3, [r7, #4]
 2901 000e 5B68     		ldr	r3, [r3, #4]
 2902 0010 9A42     		cmp	r2, r3
 2903 0012 3AD0     		beq	.L195
2512:..\..\..\..\..\..\Software\uCOS-III\Source/os_core.c ****          if (p_rdy_list->HeadPtr->NextPtr == p_rdy_list->TailPtr) { /* SWAP the TCBs               
 2904              		.loc 1 2512 0
 2905 0014 7B68     		ldr	r3, [r7, #4]
 2906 0016 1B68     		ldr	r3, [r3]
 2907 0018 1A69     		ldr	r2, [r3, #16]
 2908 001a 7B68     		ldr	r3, [r7, #4]
 2909 001c 5B68     		ldr	r3, [r3, #4]
 2910 001e 9A42     		cmp	r2, r3
 2911 0020 18D1     		bne	.L194
2513:..\..\..\..\..\..\Software\uCOS-III\Source/os_core.c ****              p_tcb1              = p_rdy_list->HeadPtr;         /* Point to current head           
 2912              		.loc 1 2513 0
 2913 0022 7B68     		ldr	r3, [r7, #4]
 2914 0024 1B68     		ldr	r3, [r3]
 2915 0026 7B61     		str	r3, [r7, #20]
2514:..\..\..\..\..\..\Software\uCOS-III\Source/os_core.c ****              p_tcb2              = p_rdy_list->TailPtr;         /* Point to current tail           
 2916              		.loc 1 2514 0
 2917 0028 7B68     		ldr	r3, [r7, #4]
 2918 002a 5B68     		ldr	r3, [r3, #4]
 2919 002c 3B61     		str	r3, [r7, #16]
2515:..\..\..\..\..\..\Software\uCOS-III\Source/os_core.c ****              p_tcb1->PrevPtr     = p_tcb2;
 2920              		.loc 1 2515 0
 2921 002e 7B69     		ldr	r3, [r7, #20]
 2922 0030 3A69     		ldr	r2, [r7, #16]
 2923 0032 5A61     		str	r2, [r3, #20]
2516:..\..\..\..\..\..\Software\uCOS-III\Source/os_core.c ****              p_tcb1->NextPtr     = DEF_NULL;
 2924              		.loc 1 2516 0
 2925 0034 7B69     		ldr	r3, [r7, #20]
 2926 0036 0022     		movs	r2, #0
 2927 0038 1A61     		str	r2, [r3, #16]
2517:..\..\..\..\..\..\Software\uCOS-III\Source/os_core.c ****              p_tcb2->PrevPtr     = DEF_NULL;
 2928              		.loc 1 2517 0
 2929 003a 3B69     		ldr	r3, [r7, #16]
 2930 003c 0022     		movs	r2, #0
 2931 003e 5A61     		str	r2, [r3, #20]
2518:..\..\..\..\..\..\Software\uCOS-III\Source/os_core.c ****              p_tcb2->NextPtr     = p_tcb1;
 2932              		.loc 1 2518 0
 2933 0040 3B69     		ldr	r3, [r7, #16]
 2934 0042 7A69     		ldr	r2, [r7, #20]
 2935 0044 1A61     		str	r2, [r3, #16]
2519:..\..\..\..\..\..\Software\uCOS-III\Source/os_core.c ****              p_rdy_list->HeadPtr = p_tcb2;
 2936              		.loc 1 2519 0
 2937 0046 7B68     		ldr	r3, [r7, #4]
 2938 0048 3A69     		ldr	r2, [r7, #16]
 2939 004a 1A60     		str	r2, [r3]
ARM GAS  C:\Users\ADMINI~1\AppData\Local\Temp\cczjWrOu.s 			page 98


2520:..\..\..\..\..\..\Software\uCOS-III\Source/os_core.c ****              p_rdy_list->TailPtr = p_tcb1;
 2940              		.loc 1 2520 0
 2941 004c 7B68     		ldr	r3, [r7, #4]
 2942 004e 7A69     		ldr	r2, [r7, #20]
 2943 0050 5A60     		str	r2, [r3, #4]
2521:..\..\..\..\..\..\Software\uCOS-III\Source/os_core.c ****          } else {
2522:..\..\..\..\..\..\Software\uCOS-III\Source/os_core.c ****              p_tcb1              = p_rdy_list->HeadPtr;         /* Point to current head           
2523:..\..\..\..\..\..\Software\uCOS-III\Source/os_core.c ****              p_tcb2              = p_rdy_list->TailPtr;         /* Point to current tail           
2524:..\..\..\..\..\..\Software\uCOS-III\Source/os_core.c ****              p_tcb3              = p_tcb1->NextPtr;             /* Point to new list head          
2525:..\..\..\..\..\..\Software\uCOS-III\Source/os_core.c ****              p_tcb3->PrevPtr     = DEF_NULL;                    /* Adjust back    link of new list 
2526:..\..\..\..\..\..\Software\uCOS-III\Source/os_core.c ****              p_tcb1->NextPtr     = DEF_NULL;                    /* Adjust forward link of new list 
2527:..\..\..\..\..\..\Software\uCOS-III\Source/os_core.c ****              p_tcb1->PrevPtr     = p_tcb2;                      /* Adjust back    link of new list 
2528:..\..\..\..\..\..\Software\uCOS-III\Source/os_core.c ****              p_tcb2->NextPtr     = p_tcb1;                      /* Adjust forward link of old list 
2529:..\..\..\..\..\..\Software\uCOS-III\Source/os_core.c ****              p_rdy_list->HeadPtr = p_tcb3;                      /* Adjust new list head and tail po
2530:..\..\..\..\..\..\Software\uCOS-III\Source/os_core.c ****              p_rdy_list->TailPtr = p_tcb1;
2531:..\..\..\..\..\..\Software\uCOS-III\Source/os_core.c ****          }
2532:..\..\..\..\..\..\Software\uCOS-III\Source/os_core.c ****      }
2533:..\..\..\..\..\..\Software\uCOS-III\Source/os_core.c **** }
 2944              		.loc 1 2533 0
 2945 0052 1AE0     		b	.L195
 2946              	.L194:
2522:..\..\..\..\..\..\Software\uCOS-III\Source/os_core.c ****              p_tcb2              = p_rdy_list->TailPtr;         /* Point to current tail           
 2947              		.loc 1 2522 0
 2948 0054 7B68     		ldr	r3, [r7, #4]
 2949 0056 1B68     		ldr	r3, [r3]
 2950 0058 7B61     		str	r3, [r7, #20]
2523:..\..\..\..\..\..\Software\uCOS-III\Source/os_core.c ****              p_tcb3              = p_tcb1->NextPtr;             /* Point to new list head          
 2951              		.loc 1 2523 0
 2952 005a 7B68     		ldr	r3, [r7, #4]
 2953 005c 5B68     		ldr	r3, [r3, #4]
 2954 005e 3B61     		str	r3, [r7, #16]
2524:..\..\..\..\..\..\Software\uCOS-III\Source/os_core.c ****              p_tcb3->PrevPtr     = DEF_NULL;                    /* Adjust back    link of new list 
 2955              		.loc 1 2524 0
 2956 0060 7B69     		ldr	r3, [r7, #20]
 2957 0062 1B69     		ldr	r3, [r3, #16]
 2958 0064 FB60     		str	r3, [r7, #12]
2525:..\..\..\..\..\..\Software\uCOS-III\Source/os_core.c ****              p_tcb1->NextPtr     = DEF_NULL;                    /* Adjust forward link of new list 
 2959              		.loc 1 2525 0
 2960 0066 FB68     		ldr	r3, [r7, #12]
 2961 0068 0022     		movs	r2, #0
 2962 006a 5A61     		str	r2, [r3, #20]
2526:..\..\..\..\..\..\Software\uCOS-III\Source/os_core.c ****              p_tcb1->PrevPtr     = p_tcb2;                      /* Adjust back    link of new list 
 2963              		.loc 1 2526 0
 2964 006c 7B69     		ldr	r3, [r7, #20]
 2965 006e 0022     		movs	r2, #0
 2966 0070 1A61     		str	r2, [r3, #16]
2527:..\..\..\..\..\..\Software\uCOS-III\Source/os_core.c ****              p_tcb2->NextPtr     = p_tcb1;                      /* Adjust forward link of old list 
 2967              		.loc 1 2527 0
 2968 0072 7B69     		ldr	r3, [r7, #20]
 2969 0074 3A69     		ldr	r2, [r7, #16]
 2970 0076 5A61     		str	r2, [r3, #20]
2528:..\..\..\..\..\..\Software\uCOS-III\Source/os_core.c ****              p_rdy_list->HeadPtr = p_tcb3;                      /* Adjust new list head and tail po
 2971              		.loc 1 2528 0
 2972 0078 3B69     		ldr	r3, [r7, #16]
 2973 007a 7A69     		ldr	r2, [r7, #20]
 2974 007c 1A61     		str	r2, [r3, #16]
2529:..\..\..\..\..\..\Software\uCOS-III\Source/os_core.c ****              p_rdy_list->TailPtr = p_tcb1;
ARM GAS  C:\Users\ADMINI~1\AppData\Local\Temp\cczjWrOu.s 			page 99


 2975              		.loc 1 2529 0
 2976 007e 7B68     		ldr	r3, [r7, #4]
 2977 0080 FA68     		ldr	r2, [r7, #12]
 2978 0082 1A60     		str	r2, [r3]
2530:..\..\..\..\..\..\Software\uCOS-III\Source/os_core.c ****          }
 2979              		.loc 1 2530 0
 2980 0084 7B68     		ldr	r3, [r7, #4]
 2981 0086 7A69     		ldr	r2, [r7, #20]
 2982 0088 5A60     		str	r2, [r3, #4]
 2983              	.L195:
 2984              		.loc 1 2533 0
 2985 008a C046     		nop
 2986 008c BD46     		mov	sp, r7
 2987 008e 06B0     		add	sp, sp, #24
 2988              		@ sp needed
 2989 0090 80BD     		pop	{r7, pc}
 2990              		.cfi_endproc
 2991              	.LFE26:
 2992              		.size	OS_RdyListMoveHeadToTail, .-OS_RdyListMoveHeadToTail
 2993 0092 C046     		.section	.text.OS_RdyListRemove,"ax",%progbits
 2994              		.align	2
 2995              		.global	OS_RdyListRemove
 2996              		.code	16
 2997              		.thumb_func
 2998              		.type	OS_RdyListRemove, %function
 2999              	OS_RdyListRemove:
 3000              	.LFB27:
2534:..\..\..\..\..\..\Software\uCOS-III\Source/os_core.c **** 
2535:..\..\..\..\..\..\Software\uCOS-III\Source/os_core.c **** 
2536:..\..\..\..\..\..\Software\uCOS-III\Source/os_core.c **** /*
2537:..\..\..\..\..\..\Software\uCOS-III\Source/os_core.c **** ***************************************************************************************************
2538:..\..\..\..\..\..\Software\uCOS-III\Source/os_core.c **** *                                REMOVE TCB FROM LIST KNOWING ONLY WHICH OS_TCB TO REMOVE
2539:..\..\..\..\..\..\Software\uCOS-III\Source/os_core.c **** *
2540:..\..\..\..\..\..\Software\uCOS-III\Source/os_core.c **** * Description: This function is called to remove an OS_TCB from an OS_RDY_LIST knowing the address 
2541:..\..\..\..\..\..\Software\uCOS-III\Source/os_core.c **** *              remove.
2542:..\..\..\..\..\..\Software\uCOS-III\Source/os_core.c **** *
2543:..\..\..\..\..\..\Software\uCOS-III\Source/os_core.c **** *
2544:..\..\..\..\..\..\Software\uCOS-III\Source/os_core.c **** *              CASE 0: TCB list is empty, nothing to do.
2545:..\..\..\..\..\..\Software\uCOS-III\Source/os_core.c **** *
2546:..\..\..\..\..\..\Software\uCOS-III\Source/os_core.c **** *              CASE 1: Only 1 OS_TCBs in the list.
2547:..\..\..\..\..\..\Software\uCOS-III\Source/os_core.c **** *
2548:..\..\..\..\..\..\Software\uCOS-III\Source/os_core.c **** *                     OS_RDY_LIST
2549:..\..\..\..\..\..\Software\uCOS-III\Source/os_core.c **** *                     +--------------+          OS_TCB
2550:..\..\..\..\..\..\Software\uCOS-III\Source/os_core.c **** *                     | TailPtr      |--+---> +------------+
2551:..\..\..\..\..\..\Software\uCOS-III\Source/os_core.c **** *                     +--------------+  |     | NextPtr    |->0
2552:..\..\..\..\..\..\Software\uCOS-III\Source/os_core.c **** *                     | HeadPtr      |--/     +------------+
2553:..\..\..\..\..\..\Software\uCOS-III\Source/os_core.c **** *                     +--------------+     0<-| PrevPtr    |
2554:..\..\..\..\..\..\Software\uCOS-III\Source/os_core.c **** *                     | NbrEntries=1 |        +------------+
2555:..\..\..\..\..\..\Software\uCOS-III\Source/os_core.c **** *                     +--------------+        :            :
2556:..\..\..\..\..\..\Software\uCOS-III\Source/os_core.c **** *                                             :            :
2557:..\..\..\..\..\..\Software\uCOS-III\Source/os_core.c **** *                                             +------------+
2558:..\..\..\..\..\..\Software\uCOS-III\Source/os_core.c **** *
2559:..\..\..\..\..\..\Software\uCOS-III\Source/os_core.c **** *              CASE N: Two or more OS_TCBs in the list.
2560:..\..\..\..\..\..\Software\uCOS-III\Source/os_core.c **** *
2561:..\..\..\..\..\..\Software\uCOS-III\Source/os_core.c **** *                     OS_RDY_LIST
2562:..\..\..\..\..\..\Software\uCOS-III\Source/os_core.c **** *                     +--------------+
2563:..\..\..\..\..\..\Software\uCOS-III\Source/os_core.c **** *                     | TailPtr      |-----------------------------------------------+
ARM GAS  C:\Users\ADMINI~1\AppData\Local\Temp\cczjWrOu.s 			page 100


2564:..\..\..\..\..\..\Software\uCOS-III\Source/os_core.c **** *                     +--------------+          OS_TCB               OS_TCB          |     OS_TCB
2565:..\..\..\..\..\..\Software\uCOS-III\Source/os_core.c **** *                     | HeadPtr      |------> +------------+       +------------+    +-> +---------
2566:..\..\..\..\..\..\Software\uCOS-III\Source/os_core.c **** *                     +--------------+        | NextPtr    |------>| NextPtr    | ...... | NextPtr 
2567:..\..\..\..\..\..\Software\uCOS-III\Source/os_core.c **** *                     | NbrEntries=N |        +------------+       +------------+        +---------
2568:..\..\..\..\..\..\Software\uCOS-III\Source/os_core.c **** *                     +--------------+     0<-| PrevPtr    |<------| PrevPtr    | ...... | PrevPtr 
2569:..\..\..\..\..\..\Software\uCOS-III\Source/os_core.c **** *                                             +------------+       +------------+        +---------
2570:..\..\..\..\..\..\Software\uCOS-III\Source/os_core.c **** *                                             :            :       :            :        :         
2571:..\..\..\..\..\..\Software\uCOS-III\Source/os_core.c **** *                                             :            :       :            :        :         
2572:..\..\..\..\..\..\Software\uCOS-III\Source/os_core.c **** *                                             +------------+       +------------+        +---------
2573:..\..\..\..\..\..\Software\uCOS-III\Source/os_core.c **** *
2574:..\..\..\..\..\..\Software\uCOS-III\Source/os_core.c **** *
2575:..\..\..\..\..\..\Software\uCOS-III\Source/os_core.c **** * Arguments  : p_tcb    is a pointer to the OS_TCB to remove
2576:..\..\..\..\..\..\Software\uCOS-III\Source/os_core.c **** *              -----
2577:..\..\..\..\..\..\Software\uCOS-III\Source/os_core.c **** *
2578:..\..\..\..\..\..\Software\uCOS-III\Source/os_core.c **** * Returns    : A pointer to the OS_RDY_LIST where the OS_TCB was
2579:..\..\..\..\..\..\Software\uCOS-III\Source/os_core.c **** *
2580:..\..\..\..\..\..\Software\uCOS-III\Source/os_core.c **** * Note(s)    : 1) This function is INTERNAL to uC/OS-III and your application MUST NOT call it.
2581:..\..\..\..\..\..\Software\uCOS-III\Source/os_core.c **** ***************************************************************************************************
2582:..\..\..\..\..\..\Software\uCOS-III\Source/os_core.c **** */
2583:..\..\..\..\..\..\Software\uCOS-III\Source/os_core.c **** 
2584:..\..\..\..\..\..\Software\uCOS-III\Source/os_core.c **** void  OS_RdyListRemove (OS_TCB  *p_tcb)
2585:..\..\..\..\..\..\Software\uCOS-III\Source/os_core.c **** {
 3001              		.loc 1 2585 0
 3002              		.cfi_startproc
 3003              		@ args = 0, pretend = 0, frame = 24
 3004              		@ frame_needed = 1, uses_anonymous_args = 0
 3005 0000 80B5     		push	{r7, lr}
 3006              		.cfi_def_cfa_offset 8
 3007              		.cfi_offset 7, -8
 3008              		.cfi_offset 14, -4
 3009 0002 86B0     		sub	sp, sp, #24
 3010              		.cfi_def_cfa_offset 32
 3011 0004 00AF     		add	r7, sp, #0
 3012              		.cfi_def_cfa_register 7
 3013 0006 7860     		str	r0, [r7, #4]
2586:..\..\..\..\..\..\Software\uCOS-III\Source/os_core.c ****     OS_RDY_LIST  *p_rdy_list;
2587:..\..\..\..\..\..\Software\uCOS-III\Source/os_core.c ****     OS_TCB       *p_tcb1;
2588:..\..\..\..\..\..\Software\uCOS-III\Source/os_core.c ****     OS_TCB       *p_tcb2;
2589:..\..\..\..\..\..\Software\uCOS-III\Source/os_core.c **** 
2590:..\..\..\..\..\..\Software\uCOS-III\Source/os_core.c **** 
2591:..\..\..\..\..\..\Software\uCOS-III\Source/os_core.c **** 
2592:..\..\..\..\..\..\Software\uCOS-III\Source/os_core.c ****     p_rdy_list = &OSRdyList[p_tcb->Prio];
 3014              		.loc 1 2592 0
 3015 0008 7B68     		ldr	r3, [r7, #4]
 3016 000a 3722     		movs	r2, #55
 3017 000c 9B5C     		ldrb	r3, [r3, r2]
 3018 000e 1A00     		movs	r2, r3
 3019 0010 1300     		movs	r3, r2
 3020 0012 5B00     		lsls	r3, r3, #1
 3021 0014 9B18     		adds	r3, r3, r2
 3022 0016 9B00     		lsls	r3, r3, #2
 3023 0018 244A     		ldr	r2, .L202
 3024 001a 9B18     		adds	r3, r3, r2
 3025 001c 7B61     		str	r3, [r7, #20]
2593:..\..\..\..\..\..\Software\uCOS-III\Source/os_core.c ****     p_tcb1     = p_tcb->PrevPtr;                                /* Point to next and previous OS_TC
 3026              		.loc 1 2593 0
 3027 001e 7B68     		ldr	r3, [r7, #4]
ARM GAS  C:\Users\ADMINI~1\AppData\Local\Temp\cczjWrOu.s 			page 101


 3028 0020 5B69     		ldr	r3, [r3, #20]
 3029 0022 3B61     		str	r3, [r7, #16]
2594:..\..\..\..\..\..\Software\uCOS-III\Source/os_core.c ****     p_tcb2     = p_tcb->NextPtr;
 3030              		.loc 1 2594 0
 3031 0024 7B68     		ldr	r3, [r7, #4]
 3032 0026 1B69     		ldr	r3, [r3, #16]
 3033 0028 FB60     		str	r3, [r7, #12]
2595:..\..\..\..\..\..\Software\uCOS-III\Source/os_core.c ****     if (p_tcb1 == DEF_NULL) {                                   /* Was the OS_TCB to remove at the 
 3034              		.loc 1 2595 0
 3035 002a 3B69     		ldr	r3, [r7, #16]
 3036 002c 002B     		cmp	r3, #0
 3037 002e 1FD1     		bne	.L197
2596:..\..\..\..\..\..\Software\uCOS-III\Source/os_core.c ****         if (p_tcb2 == DEF_NULL) {                               /* Yes, was it the only OS_TCB?    
 3038              		.loc 1 2596 0
 3039 0030 FB68     		ldr	r3, [r7, #12]
 3040 0032 002B     		cmp	r3, #0
 3041 0034 0FD1     		bne	.L198
2597:..\..\..\..\..\..\Software\uCOS-III\Source/os_core.c **** #if (OS_CFG_DBG_EN == DEF_ENABLED)
2598:..\..\..\..\..\..\Software\uCOS-III\Source/os_core.c ****             p_rdy_list->NbrEntries = 0u;                        /* Yes, no more entries            
 3042              		.loc 1 2598 0
 3043 0036 7B69     		ldr	r3, [r7, #20]
 3044 0038 0022     		movs	r2, #0
 3045 003a 1A81     		strh	r2, [r3, #8]
2599:..\..\..\..\..\..\Software\uCOS-III\Source/os_core.c **** #endif
2600:..\..\..\..\..\..\Software\uCOS-III\Source/os_core.c ****             p_rdy_list->HeadPtr    = DEF_NULL;
 3046              		.loc 1 2600 0
 3047 003c 7B69     		ldr	r3, [r7, #20]
 3048 003e 0022     		movs	r2, #0
 3049 0040 1A60     		str	r2, [r3]
2601:..\..\..\..\..\..\Software\uCOS-III\Source/os_core.c ****             p_rdy_list->TailPtr    = DEF_NULL;
 3050              		.loc 1 2601 0
 3051 0042 7B69     		ldr	r3, [r7, #20]
 3052 0044 0022     		movs	r2, #0
 3053 0046 5A60     		str	r2, [r3, #4]
2602:..\..\..\..\..\..\Software\uCOS-III\Source/os_core.c ****             OS_PrioRemove(p_tcb->Prio);
 3054              		.loc 1 2602 0
 3055 0048 7B68     		ldr	r3, [r7, #4]
 3056 004a 3722     		movs	r2, #55
 3057 004c 9B5C     		ldrb	r3, [r3, r2]
 3058 004e 1800     		movs	r0, r3
 3059 0050 FFF7FEFF 		bl	OS_PrioRemove
 3060 0054 1FE0     		b	.L200
 3061              	.L198:
2603:..\..\..\..\..\..\Software\uCOS-III\Source/os_core.c ****         } else {
2604:..\..\..\..\..\..\Software\uCOS-III\Source/os_core.c **** #if (OS_CFG_DBG_EN == DEF_ENABLED)
2605:..\..\..\..\..\..\Software\uCOS-III\Source/os_core.c ****             p_rdy_list->NbrEntries--;                           /* No,  one less entry             
 3062              		.loc 1 2605 0
 3063 0056 7B69     		ldr	r3, [r7, #20]
 3064 0058 1B89     		ldrh	r3, [r3, #8]
 3065 005a 013B     		subs	r3, r3, #1
 3066 005c 9AB2     		uxth	r2, r3
 3067 005e 7B69     		ldr	r3, [r7, #20]
 3068 0060 1A81     		strh	r2, [r3, #8]
2606:..\..\..\..\..\..\Software\uCOS-III\Source/os_core.c **** #endif
2607:..\..\..\..\..\..\Software\uCOS-III\Source/os_core.c ****             p_tcb2->PrevPtr     = DEF_NULL;                     /* adjust back link of new list hea
 3069              		.loc 1 2607 0
 3070 0062 FB68     		ldr	r3, [r7, #12]
ARM GAS  C:\Users\ADMINI~1\AppData\Local\Temp\cczjWrOu.s 			page 102


 3071 0064 0022     		movs	r2, #0
 3072 0066 5A61     		str	r2, [r3, #20]
2608:..\..\..\..\..\..\Software\uCOS-III\Source/os_core.c ****             p_rdy_list->HeadPtr = p_tcb2;                       /* adjust OS_RDY_LIST's new head   
 3073              		.loc 1 2608 0
 3074 0068 7B69     		ldr	r3, [r7, #20]
 3075 006a FA68     		ldr	r2, [r7, #12]
 3076 006c 1A60     		str	r2, [r3]
 3077 006e 12E0     		b	.L200
 3078              	.L197:
2609:..\..\..\..\..\..\Software\uCOS-III\Source/os_core.c ****         }
2610:..\..\..\..\..\..\Software\uCOS-III\Source/os_core.c ****     } else {
2611:..\..\..\..\..\..\Software\uCOS-III\Source/os_core.c **** #if (OS_CFG_DBG_EN == DEF_ENABLED)
2612:..\..\..\..\..\..\Software\uCOS-III\Source/os_core.c ****         p_rdy_list->NbrEntries--;                               /* No,  one less entry             
 3079              		.loc 1 2612 0
 3080 0070 7B69     		ldr	r3, [r7, #20]
 3081 0072 1B89     		ldrh	r3, [r3, #8]
 3082 0074 013B     		subs	r3, r3, #1
 3083 0076 9AB2     		uxth	r2, r3
 3084 0078 7B69     		ldr	r3, [r7, #20]
 3085 007a 1A81     		strh	r2, [r3, #8]
2613:..\..\..\..\..\..\Software\uCOS-III\Source/os_core.c **** #endif
2614:..\..\..\..\..\..\Software\uCOS-III\Source/os_core.c ****         p_tcb1->NextPtr = p_tcb2;
 3086              		.loc 1 2614 0
 3087 007c 3B69     		ldr	r3, [r7, #16]
 3088 007e FA68     		ldr	r2, [r7, #12]
 3089 0080 1A61     		str	r2, [r3, #16]
2615:..\..\..\..\..\..\Software\uCOS-III\Source/os_core.c ****         if (p_tcb2 == DEF_NULL) {
 3090              		.loc 1 2615 0
 3091 0082 FB68     		ldr	r3, [r7, #12]
 3092 0084 002B     		cmp	r3, #0
 3093 0086 03D1     		bne	.L201
2616:..\..\..\..\..\..\Software\uCOS-III\Source/os_core.c ****             p_rdy_list->TailPtr = p_tcb1;                       /* Removing the TCB at the tail, ad
 3094              		.loc 1 2616 0
 3095 0088 7B69     		ldr	r3, [r7, #20]
 3096 008a 3A69     		ldr	r2, [r7, #16]
 3097 008c 5A60     		str	r2, [r3, #4]
 3098 008e 02E0     		b	.L200
 3099              	.L201:
2617:..\..\..\..\..\..\Software\uCOS-III\Source/os_core.c ****         } else {
2618:..\..\..\..\..\..\Software\uCOS-III\Source/os_core.c ****             p_tcb2->PrevPtr     = p_tcb1;
 3100              		.loc 1 2618 0
 3101 0090 FB68     		ldr	r3, [r7, #12]
 3102 0092 3A69     		ldr	r2, [r7, #16]
 3103 0094 5A61     		str	r2, [r3, #20]
 3104              	.L200:
2619:..\..\..\..\..\..\Software\uCOS-III\Source/os_core.c ****         }
2620:..\..\..\..\..\..\Software\uCOS-III\Source/os_core.c ****     }
2621:..\..\..\..\..\..\Software\uCOS-III\Source/os_core.c ****     p_tcb->PrevPtr = DEF_NULL;
 3105              		.loc 1 2621 0
 3106 0096 7B68     		ldr	r3, [r7, #4]
 3107 0098 0022     		movs	r2, #0
 3108 009a 5A61     		str	r2, [r3, #20]
2622:..\..\..\..\..\..\Software\uCOS-III\Source/os_core.c ****     p_tcb->NextPtr = DEF_NULL;
 3109              		.loc 1 2622 0
 3110 009c 7B68     		ldr	r3, [r7, #4]
 3111 009e 0022     		movs	r2, #0
 3112 00a0 1A61     		str	r2, [r3, #16]
ARM GAS  C:\Users\ADMINI~1\AppData\Local\Temp\cczjWrOu.s 			page 103


2623:..\..\..\..\..\..\Software\uCOS-III\Source/os_core.c **** 
2624:..\..\..\..\..\..\Software\uCOS-III\Source/os_core.c **** #if (defined(TRACE_CFG_EN) && (TRACE_CFG_EN == DEF_ENABLED))
2625:..\..\..\..\..\..\Software\uCOS-III\Source/os_core.c ****     TRACE_OS_TASK_SUSPEND(p_tcb);                               /* Record the event.               
2626:..\..\..\..\..\..\Software\uCOS-III\Source/os_core.c **** #endif
2627:..\..\..\..\..\..\Software\uCOS-III\Source/os_core.c **** }
 3113              		.loc 1 2627 0
 3114 00a2 C046     		nop
 3115 00a4 BD46     		mov	sp, r7
 3116 00a6 06B0     		add	sp, sp, #24
 3117              		@ sp needed
 3118 00a8 80BD     		pop	{r7, pc}
 3119              	.L203:
 3120 00aa C046     		.align	2
 3121              	.L202:
 3122 00ac 00000000 		.word	OSRdyList
 3123              		.cfi_endproc
 3124              	.LFE27:
 3125              		.size	OS_RdyListRemove, .-OS_RdyListRemove
 3126              		.section	.text.OS_SchedLockTimeMeasStart,"ax",%progbits
 3127              		.align	2
 3128              		.global	OS_SchedLockTimeMeasStart
 3129              		.code	16
 3130              		.thumb_func
 3131              		.type	OS_SchedLockTimeMeasStart, %function
 3132              	OS_SchedLockTimeMeasStart:
 3133              	.LFB28:
2628:..\..\..\..\..\..\Software\uCOS-III\Source/os_core.c **** 
2629:..\..\..\..\..\..\Software\uCOS-III\Source/os_core.c **** 
2630:..\..\..\..\..\..\Software\uCOS-III\Source/os_core.c **** /*
2631:..\..\..\..\..\..\Software\uCOS-III\Source/os_core.c **** ***************************************************************************************************
2632:..\..\..\..\..\..\Software\uCOS-III\Source/os_core.c **** *                                             SCHEDULE THE ISR HANDLER TASK
2633:..\..\..\..\..\..\Software\uCOS-III\Source/os_core.c **** *
2634:..\..\..\..\..\..\Software\uCOS-III\Source/os_core.c **** * Description: This function is called by other uC/OS-III services to schedule task at priority 0 w
2635:..\..\..\..\..\..\Software\uCOS-III\Source/os_core.c **** *              ISR handler task.
2636:..\..\..\..\..\..\Software\uCOS-III\Source/os_core.c **** *
2637:..\..\..\..\..\..\Software\uCOS-III\Source/os_core.c **** * Arguments  : none
2638:..\..\..\..\..\..\Software\uCOS-III\Source/os_core.c **** *
2639:..\..\..\..\..\..\Software\uCOS-III\Source/os_core.c **** * Returns    : none
2640:..\..\..\..\..\..\Software\uCOS-III\Source/os_core.c **** *
2641:..\..\..\..\..\..\Software\uCOS-III\Source/os_core.c **** * Note(s)    : 1) This function is INTERNAL to uC/OS-III and your application MUST NOT call it.
2642:..\..\..\..\..\..\Software\uCOS-III\Source/os_core.c **** *
2643:..\..\..\..\..\..\Software\uCOS-III\Source/os_core.c **** *              2) This function is DEPRECATED, see OS_IntQPost() note 1 for details.
2644:..\..\..\..\..\..\Software\uCOS-III\Source/os_core.c **** ***************************************************************************************************
2645:..\..\..\..\..\..\Software\uCOS-III\Source/os_core.c **** */
2646:..\..\..\..\..\..\Software\uCOS-III\Source/os_core.c **** 
2647:..\..\..\..\..\..\Software\uCOS-III\Source/os_core.c **** #if (OS_CFG_ISR_POST_DEFERRED_EN == DEF_ENABLED)
2648:..\..\..\..\..\..\Software\uCOS-III\Source/os_core.c **** void  OS_Sched0 (void)
2649:..\..\..\..\..\..\Software\uCOS-III\Source/os_core.c **** {
2650:..\..\..\..\..\..\Software\uCOS-III\Source/os_core.c ****     CPU_SR_ALLOC();
2651:..\..\..\..\..\..\Software\uCOS-III\Source/os_core.c **** 
2652:..\..\..\..\..\..\Software\uCOS-III\Source/os_core.c **** 
2653:..\..\..\..\..\..\Software\uCOS-III\Source/os_core.c **** 
2654:..\..\..\..\..\..\Software\uCOS-III\Source/os_core.c ****     CPU_INT_DIS();
2655:..\..\..\..\..\..\Software\uCOS-III\Source/os_core.c ****     OSPrioHighRdy   =  0u;                                      /* Force the priority to 0         
2656:..\..\..\..\..\..\Software\uCOS-III\Source/os_core.c ****     OSTCBHighRdyPtr = &OSIntQTaskTCB;                           /* Always schedule the ISR handler 
2657:..\..\..\..\..\..\Software\uCOS-III\Source/os_core.c **** #if (OS_CFG_TASK_PROFILE_EN == DEF_ENABLED)
2658:..\..\..\..\..\..\Software\uCOS-III\Source/os_core.c ****     OSTCBHighRdyPtr->CtxSwCtr++;                                /* Inc. # of context switches to th
ARM GAS  C:\Users\ADMINI~1\AppData\Local\Temp\cczjWrOu.s 			page 104


2659:..\..\..\..\..\..\Software\uCOS-III\Source/os_core.c **** #endif
2660:..\..\..\..\..\..\Software\uCOS-III\Source/os_core.c **** #if ((OS_CFG_TASK_PROFILE_EN == DEF_ENABLED) || (OS_CFG_DBG_EN == DEF_ENABLED))
2661:..\..\..\..\..\..\Software\uCOS-III\Source/os_core.c ****     OSTaskCtxSwCtr++;                                           /* Increment context switch counter
2662:..\..\..\..\..\..\Software\uCOS-III\Source/os_core.c **** #endif
2663:..\..\..\..\..\..\Software\uCOS-III\Source/os_core.c ****     OS_TASK_SW();                                               /* Perform a task level context swi
2664:..\..\..\..\..\..\Software\uCOS-III\Source/os_core.c ****     CPU_INT_EN();
2665:..\..\..\..\..\..\Software\uCOS-III\Source/os_core.c **** }
2666:..\..\..\..\..\..\Software\uCOS-III\Source/os_core.c **** #endif
2667:..\..\..\..\..\..\Software\uCOS-III\Source/os_core.c **** 
2668:..\..\..\..\..\..\Software\uCOS-III\Source/os_core.c **** 
2669:..\..\..\..\..\..\Software\uCOS-III\Source/os_core.c **** /*
2670:..\..\..\..\..\..\Software\uCOS-III\Source/os_core.c **** ***************************************************************************************************
2671:..\..\..\..\..\..\Software\uCOS-III\Source/os_core.c **** *                                               SCHEDULER LOCK TIME MEASUREMENT
2672:..\..\..\..\..\..\Software\uCOS-III\Source/os_core.c **** *
2673:..\..\..\..\..\..\Software\uCOS-III\Source/os_core.c **** * Description: These functions are used to measure the peak amount of time that the scheduler is lo
2674:..\..\..\..\..\..\Software\uCOS-III\Source/os_core.c **** *
2675:..\..\..\..\..\..\Software\uCOS-III\Source/os_core.c **** * Arguments  : none
2676:..\..\..\..\..\..\Software\uCOS-III\Source/os_core.c **** *
2677:..\..\..\..\..\..\Software\uCOS-III\Source/os_core.c **** * Returns    : none
2678:..\..\..\..\..\..\Software\uCOS-III\Source/os_core.c **** *
2679:..\..\..\..\..\..\Software\uCOS-III\Source/os_core.c **** * Note(s)    : 1) The are internal functions to uC/OS-III and MUST not be called by your applicatio
2680:..\..\..\..\..\..\Software\uCOS-III\Source/os_core.c **** *
2681:..\..\..\..\..\..\Software\uCOS-III\Source/os_core.c **** *              2) It's assumed that these functions are called when interrupts are disabled.
2682:..\..\..\..\..\..\Software\uCOS-III\Source/os_core.c **** *
2683:..\..\..\..\..\..\Software\uCOS-III\Source/os_core.c **** *              3) We are reading the CPU_TS_TmrRd() directly even if this is a 16-bit timer.  The r
2684:..\..\..\..\..\..\Software\uCOS-III\Source/os_core.c **** *                 don't expect to have the scheduler locked for 65536 counts even at the rate the T
2685:..\..\..\..\..\..\Software\uCOS-III\Source/os_core.c **** *                 In other words, locking the scheduler for longer than 65536 count would not be a 
2686:..\..\..\..\..\..\Software\uCOS-III\Source/os_core.c **** *                 real-time system.
2687:..\..\..\..\..\..\Software\uCOS-III\Source/os_core.c **** ***************************************************************************************************
2688:..\..\..\..\..\..\Software\uCOS-III\Source/os_core.c **** */
2689:..\..\..\..\..\..\Software\uCOS-III\Source/os_core.c **** 
2690:..\..\..\..\..\..\Software\uCOS-III\Source/os_core.c **** #if (OS_CFG_SCHED_LOCK_TIME_MEAS_EN == DEF_ENABLED)
2691:..\..\..\..\..\..\Software\uCOS-III\Source/os_core.c **** void  OS_SchedLockTimeMeasStart (void)
2692:..\..\..\..\..\..\Software\uCOS-III\Source/os_core.c **** {
 3134              		.loc 1 2692 0
 3135              		.cfi_startproc
 3136              		@ args = 0, pretend = 0, frame = 0
 3137              		@ frame_needed = 1, uses_anonymous_args = 0
 3138 0000 80B5     		push	{r7, lr}
 3139              		.cfi_def_cfa_offset 8
 3140              		.cfi_offset 7, -8
 3141              		.cfi_offset 14, -4
 3142 0002 00AF     		add	r7, sp, #0
 3143              		.cfi_def_cfa_register 7
2693:..\..\..\..\..\..\Software\uCOS-III\Source/os_core.c ****     if (OSSchedLockNestingCtr == 1u) {
 3144              		.loc 1 2693 0
 3145 0004 054B     		ldr	r3, .L207
 3146 0006 1B78     		ldrb	r3, [r3]
 3147 0008 012B     		cmp	r3, #1
 3148 000a 04D1     		bne	.L206
2694:..\..\..\..\..\..\Software\uCOS-III\Source/os_core.c ****         OSSchedLockTimeBegin = CPU_TS_TmrRd();
 3149              		.loc 1 2694 0
 3150 000c FFF7FEFF 		bl	CPU_TS_TmrRd
 3151 0010 0200     		movs	r2, r0
 3152 0012 034B     		ldr	r3, .L207+4
 3153 0014 1A60     		str	r2, [r3]
 3154              	.L206:
ARM GAS  C:\Users\ADMINI~1\AppData\Local\Temp\cczjWrOu.s 			page 105


2695:..\..\..\..\..\..\Software\uCOS-III\Source/os_core.c ****     }
2696:..\..\..\..\..\..\Software\uCOS-III\Source/os_core.c **** }
 3155              		.loc 1 2696 0
 3156 0016 C046     		nop
 3157 0018 BD46     		mov	sp, r7
 3158              		@ sp needed
 3159 001a 80BD     		pop	{r7, pc}
 3160              	.L208:
 3161              		.align	2
 3162              	.L207:
 3163 001c 00000000 		.word	OSSchedLockNestingCtr
 3164 0020 00000000 		.word	OSSchedLockTimeBegin
 3165              		.cfi_endproc
 3166              	.LFE28:
 3167              		.size	OS_SchedLockTimeMeasStart, .-OS_SchedLockTimeMeasStart
 3168              		.section	.text.OS_SchedLockTimeMeasStop,"ax",%progbits
 3169              		.align	2
 3170              		.global	OS_SchedLockTimeMeasStop
 3171              		.code	16
 3172              		.thumb_func
 3173              		.type	OS_SchedLockTimeMeasStop, %function
 3174              	OS_SchedLockTimeMeasStop:
 3175              	.LFB29:
2697:..\..\..\..\..\..\Software\uCOS-III\Source/os_core.c **** 
2698:..\..\..\..\..\..\Software\uCOS-III\Source/os_core.c **** 
2699:..\..\..\..\..\..\Software\uCOS-III\Source/os_core.c **** 
2700:..\..\..\..\..\..\Software\uCOS-III\Source/os_core.c **** 
2701:..\..\..\..\..\..\Software\uCOS-III\Source/os_core.c **** void  OS_SchedLockTimeMeasStop (void)
2702:..\..\..\..\..\..\Software\uCOS-III\Source/os_core.c **** {
 3176              		.loc 1 2702 0
 3177              		.cfi_startproc
 3178              		@ args = 0, pretend = 0, frame = 8
 3179              		@ frame_needed = 1, uses_anonymous_args = 0
 3180 0000 80B5     		push	{r7, lr}
 3181              		.cfi_def_cfa_offset 8
 3182              		.cfi_offset 7, -8
 3183              		.cfi_offset 14, -4
 3184 0002 82B0     		sub	sp, sp, #8
 3185              		.cfi_def_cfa_offset 16
 3186 0004 00AF     		add	r7, sp, #0
 3187              		.cfi_def_cfa_register 7
2703:..\..\..\..\..\..\Software\uCOS-III\Source/os_core.c ****     CPU_TS_TMR  delta;
2704:..\..\..\..\..\..\Software\uCOS-III\Source/os_core.c **** 
2705:..\..\..\..\..\..\Software\uCOS-III\Source/os_core.c **** 
2706:..\..\..\..\..\..\Software\uCOS-III\Source/os_core.c ****     if (OSSchedLockNestingCtr == 0u) {                          /* Make sure we fully un-nested sch
 3188              		.loc 1 2706 0
 3189 0006 0F4B     		ldr	r3, .L213
 3190 0008 1B78     		ldrb	r3, [r3]
 3191 000a 002B     		cmp	r3, #0
 3192 000c 16D1     		bne	.L212
2707:..\..\..\..\..\..\Software\uCOS-III\Source/os_core.c ****         delta = CPU_TS_TmrRd()                                  /* Compute the delta time between b
 3193              		.loc 1 2707 0
 3194 000e FFF7FEFF 		bl	CPU_TS_TmrRd
 3195 0012 0200     		movs	r2, r0
2708:..\..\..\..\..\..\Software\uCOS-III\Source/os_core.c ****               - OSSchedLockTimeBegin;
 3196              		.loc 1 2708 0
 3197 0014 0C4B     		ldr	r3, .L213+4
ARM GAS  C:\Users\ADMINI~1\AppData\Local\Temp\cczjWrOu.s 			page 106


 3198 0016 1B68     		ldr	r3, [r3]
2707:..\..\..\..\..\..\Software\uCOS-III\Source/os_core.c ****         delta = CPU_TS_TmrRd()                                  /* Compute the delta time between b
 3199              		.loc 1 2707 0
 3200 0018 D31A     		subs	r3, r2, r3
 3201 001a 7B60     		str	r3, [r7, #4]
2709:..\..\..\..\..\..\Software\uCOS-III\Source/os_core.c ****         if (OSSchedLockTimeMax    < delta) {                    /* Detect peak value               
 3202              		.loc 1 2709 0
 3203 001c 0B4B     		ldr	r3, .L213+8
 3204 001e 1A68     		ldr	r2, [r3]
 3205 0020 7B68     		ldr	r3, [r7, #4]
 3206 0022 9A42     		cmp	r2, r3
 3207 0024 02D2     		bcs	.L211
2710:..\..\..\..\..\..\Software\uCOS-III\Source/os_core.c ****             OSSchedLockTimeMax    = delta;
 3208              		.loc 1 2710 0
 3209 0026 094B     		ldr	r3, .L213+8
 3210 0028 7A68     		ldr	r2, [r7, #4]
 3211 002a 1A60     		str	r2, [r3]
 3212              	.L211:
2711:..\..\..\..\..\..\Software\uCOS-III\Source/os_core.c ****         }
2712:..\..\..\..\..\..\Software\uCOS-III\Source/os_core.c ****         if (OSSchedLockTimeMaxCur < delta) {                    /* Detect peak value (for resettabl
 3213              		.loc 1 2712 0
 3214 002c 084B     		ldr	r3, .L213+12
 3215 002e 1A68     		ldr	r2, [r3]
 3216 0030 7B68     		ldr	r3, [r7, #4]
 3217 0032 9A42     		cmp	r2, r3
 3218 0034 02D2     		bcs	.L212
2713:..\..\..\..\..\..\Software\uCOS-III\Source/os_core.c ****             OSSchedLockTimeMaxCur = delta;
 3219              		.loc 1 2713 0
 3220 0036 064B     		ldr	r3, .L213+12
 3221 0038 7A68     		ldr	r2, [r7, #4]
 3222 003a 1A60     		str	r2, [r3]
 3223              	.L212:
2714:..\..\..\..\..\..\Software\uCOS-III\Source/os_core.c ****         }
2715:..\..\..\..\..\..\Software\uCOS-III\Source/os_core.c ****     }
2716:..\..\..\..\..\..\Software\uCOS-III\Source/os_core.c **** }
 3224              		.loc 1 2716 0
 3225 003c C046     		nop
 3226 003e BD46     		mov	sp, r7
 3227 0040 02B0     		add	sp, sp, #8
 3228              		@ sp needed
 3229 0042 80BD     		pop	{r7, pc}
 3230              	.L214:
 3231              		.align	2
 3232              	.L213:
 3233 0044 00000000 		.word	OSSchedLockNestingCtr
 3234 0048 00000000 		.word	OSSchedLockTimeBegin
 3235 004c 00000000 		.word	OSSchedLockTimeMax
 3236 0050 00000000 		.word	OSSchedLockTimeMaxCur
 3237              		.cfi_endproc
 3238              	.LFE29:
 3239              		.size	OS_SchedLockTimeMeasStop, .-OS_SchedLockTimeMeasStop
 3240              		.section	.text.OS_TaskBlock,"ax",%progbits
 3241              		.align	2
 3242              		.global	OS_TaskBlock
 3243              		.code	16
 3244              		.thumb_func
 3245              		.type	OS_TaskBlock, %function
ARM GAS  C:\Users\ADMINI~1\AppData\Local\Temp\cczjWrOu.s 			page 107


 3246              	OS_TaskBlock:
 3247              	.LFB30:
2717:..\..\..\..\..\..\Software\uCOS-III\Source/os_core.c **** #endif
2718:..\..\..\..\..\..\Software\uCOS-III\Source/os_core.c **** 
2719:..\..\..\..\..\..\Software\uCOS-III\Source/os_core.c **** 
2720:..\..\..\..\..\..\Software\uCOS-III\Source/os_core.c **** /*
2721:..\..\..\..\..\..\Software\uCOS-III\Source/os_core.c **** ***************************************************************************************************
2722:..\..\..\..\..\..\Software\uCOS-III\Source/os_core.c **** *                                        RUN ROUND-ROBIN SCHEDULING ALGORITHM
2723:..\..\..\..\..\..\Software\uCOS-III\Source/os_core.c **** *
2724:..\..\..\..\..\..\Software\uCOS-III\Source/os_core.c **** * Description: This function is called on every tick to determine if a new task at the same priorit
2725:..\..\..\..\..\..\Software\uCOS-III\Source/os_core.c **** *
2726:..\..\..\..\..\..\Software\uCOS-III\Source/os_core.c **** *
2727:..\..\..\..\..\..\Software\uCOS-III\Source/os_core.c **** * Arguments  : p_rdy_list    is a pointer to the OS_RDY_LIST entry of the ready list at the current
2728:..\..\..\..\..\..\Software\uCOS-III\Source/os_core.c **** *              ----------
2729:..\..\..\..\..\..\Software\uCOS-III\Source/os_core.c **** *
2730:..\..\..\..\..\..\Software\uCOS-III\Source/os_core.c **** * Returns    : none
2731:..\..\..\..\..\..\Software\uCOS-III\Source/os_core.c **** *
2732:..\..\..\..\..\..\Software\uCOS-III\Source/os_core.c **** * Note(s)    : 1) This function is INTERNAL to uC/OS-III and your application MUST NOT call it.
2733:..\..\..\..\..\..\Software\uCOS-III\Source/os_core.c **** ***************************************************************************************************
2734:..\..\..\..\..\..\Software\uCOS-III\Source/os_core.c **** */
2735:..\..\..\..\..\..\Software\uCOS-III\Source/os_core.c **** 
2736:..\..\..\..\..\..\Software\uCOS-III\Source/os_core.c **** #if (OS_CFG_SCHED_ROUND_ROBIN_EN == DEF_ENABLED)
2737:..\..\..\..\..\..\Software\uCOS-III\Source/os_core.c **** void  OS_SchedRoundRobin (OS_RDY_LIST  *p_rdy_list)
2738:..\..\..\..\..\..\Software\uCOS-III\Source/os_core.c **** {
2739:..\..\..\..\..\..\Software\uCOS-III\Source/os_core.c ****     OS_TCB   *p_tcb;
2740:..\..\..\..\..\..\Software\uCOS-III\Source/os_core.c ****     CPU_SR_ALLOC();
2741:..\..\..\..\..\..\Software\uCOS-III\Source/os_core.c **** 
2742:..\..\..\..\..\..\Software\uCOS-III\Source/os_core.c **** 
2743:..\..\..\..\..\..\Software\uCOS-III\Source/os_core.c ****     if (OSSchedRoundRobinEn != DEF_TRUE) {                      /* Make sure round-robin has been e
2744:..\..\..\..\..\..\Software\uCOS-III\Source/os_core.c ****         return;
2745:..\..\..\..\..\..\Software\uCOS-III\Source/os_core.c ****     }
2746:..\..\..\..\..\..\Software\uCOS-III\Source/os_core.c **** 
2747:..\..\..\..\..\..\Software\uCOS-III\Source/os_core.c ****     CPU_CRITICAL_ENTER();
2748:..\..\..\..\..\..\Software\uCOS-III\Source/os_core.c ****     p_tcb = p_rdy_list->HeadPtr;                                /* Decrement time quanta counter   
2749:..\..\..\..\..\..\Software\uCOS-III\Source/os_core.c **** 
2750:..\..\..\..\..\..\Software\uCOS-III\Source/os_core.c ****     if (p_tcb == DEF_NULL) {
2751:..\..\..\..\..\..\Software\uCOS-III\Source/os_core.c ****         CPU_CRITICAL_EXIT();
2752:..\..\..\..\..\..\Software\uCOS-III\Source/os_core.c ****         return;
2753:..\..\..\..\..\..\Software\uCOS-III\Source/os_core.c ****     }
2754:..\..\..\..\..\..\Software\uCOS-III\Source/os_core.c **** 
2755:..\..\..\..\..\..\Software\uCOS-III\Source/os_core.c **** #if (OS_CFG_TASK_IDLE_EN == DEF_ENABLED)
2756:..\..\..\..\..\..\Software\uCOS-III\Source/os_core.c ****     if (p_tcb == &OSIdleTaskTCB) {
2757:..\..\..\..\..\..\Software\uCOS-III\Source/os_core.c ****         CPU_CRITICAL_EXIT();
2758:..\..\..\..\..\..\Software\uCOS-III\Source/os_core.c ****         return;
2759:..\..\..\..\..\..\Software\uCOS-III\Source/os_core.c ****     }
2760:..\..\..\..\..\..\Software\uCOS-III\Source/os_core.c **** #endif
2761:..\..\..\..\..\..\Software\uCOS-III\Source/os_core.c **** 
2762:..\..\..\..\..\..\Software\uCOS-III\Source/os_core.c ****     if (p_tcb->TimeQuantaCtr > 0u) {
2763:..\..\..\..\..\..\Software\uCOS-III\Source/os_core.c ****         p_tcb->TimeQuantaCtr--;
2764:..\..\..\..\..\..\Software\uCOS-III\Source/os_core.c ****     }
2765:..\..\..\..\..\..\Software\uCOS-III\Source/os_core.c **** 
2766:..\..\..\..\..\..\Software\uCOS-III\Source/os_core.c ****     if (p_tcb->TimeQuantaCtr > 0u) {                            /* Task not done with its time quan
2767:..\..\..\..\..\..\Software\uCOS-III\Source/os_core.c ****         CPU_CRITICAL_EXIT();
2768:..\..\..\..\..\..\Software\uCOS-III\Source/os_core.c ****         return;
2769:..\..\..\..\..\..\Software\uCOS-III\Source/os_core.c ****     }
2770:..\..\..\..\..\..\Software\uCOS-III\Source/os_core.c **** 
2771:..\..\..\..\..\..\Software\uCOS-III\Source/os_core.c ****     if (p_rdy_list->HeadPtr == p_rdy_list->TailPtr) {           /* See if it's time to time slice c
ARM GAS  C:\Users\ADMINI~1\AppData\Local\Temp\cczjWrOu.s 			page 108


2772:..\..\..\..\..\..\Software\uCOS-III\Source/os_core.c ****         CPU_CRITICAL_EXIT();                                    /* ... only if multiple tasks at sa
2773:..\..\..\..\..\..\Software\uCOS-III\Source/os_core.c ****         return;
2774:..\..\..\..\..\..\Software\uCOS-III\Source/os_core.c ****     }
2775:..\..\..\..\..\..\Software\uCOS-III\Source/os_core.c **** 
2776:..\..\..\..\..\..\Software\uCOS-III\Source/os_core.c ****     if (OSSchedLockNestingCtr > 0u) {                           /* Can't round-robin if the schedul
2777:..\..\..\..\..\..\Software\uCOS-III\Source/os_core.c ****         CPU_CRITICAL_EXIT();
2778:..\..\..\..\..\..\Software\uCOS-III\Source/os_core.c ****         return;
2779:..\..\..\..\..\..\Software\uCOS-III\Source/os_core.c ****     }
2780:..\..\..\..\..\..\Software\uCOS-III\Source/os_core.c **** 
2781:..\..\..\..\..\..\Software\uCOS-III\Source/os_core.c ****     OS_RdyListMoveHeadToTail(p_rdy_list);                       /* Move current OS_TCB to the end o
2782:..\..\..\..\..\..\Software\uCOS-III\Source/os_core.c ****     p_tcb = p_rdy_list->HeadPtr;                                /* Point to new OS_TCB at head of t
2783:..\..\..\..\..\..\Software\uCOS-III\Source/os_core.c ****     if (p_tcb->TimeQuanta == 0u) {                              /* See if we need to use the defaul
2784:..\..\..\..\..\..\Software\uCOS-III\Source/os_core.c ****         p_tcb->TimeQuantaCtr = OSSchedRoundRobinDfltTimeQuanta;
2785:..\..\..\..\..\..\Software\uCOS-III\Source/os_core.c ****     } else {
2786:..\..\..\..\..\..\Software\uCOS-III\Source/os_core.c ****         p_tcb->TimeQuantaCtr = p_tcb->TimeQuanta;               /* Load time slice counter with new
2787:..\..\..\..\..\..\Software\uCOS-III\Source/os_core.c ****     }
2788:..\..\..\..\..\..\Software\uCOS-III\Source/os_core.c ****     CPU_CRITICAL_EXIT();
2789:..\..\..\..\..\..\Software\uCOS-III\Source/os_core.c **** }
2790:..\..\..\..\..\..\Software\uCOS-III\Source/os_core.c **** #endif
2791:..\..\..\..\..\..\Software\uCOS-III\Source/os_core.c **** 
2792:..\..\..\..\..\..\Software\uCOS-III\Source/os_core.c **** 
2793:..\..\..\..\..\..\Software\uCOS-III\Source/os_core.c **** /*
2794:..\..\..\..\..\..\Software\uCOS-III\Source/os_core.c **** ***************************************************************************************************
2795:..\..\..\..\..\..\Software\uCOS-III\Source/os_core.c **** *                                                     BLOCK A TASK
2796:..\..\..\..\..\..\Software\uCOS-III\Source/os_core.c **** *
2797:..\..\..\..\..\..\Software\uCOS-III\Source/os_core.c **** * Description: This function is called to remove a task from the ready list and also insert it in t
2798:..\..\..\..\..\..\Software\uCOS-III\Source/os_core.c **** *              the specified timeout is non-zero.
2799:..\..\..\..\..\..\Software\uCOS-III\Source/os_core.c **** *
2800:..\..\..\..\..\..\Software\uCOS-III\Source/os_core.c **** * Arguments  : p_tcb          is a pointer to the OS_TCB of the task block
2801:..\..\..\..\..\..\Software\uCOS-III\Source/os_core.c **** *              -----
2802:..\..\..\..\..\..\Software\uCOS-III\Source/os_core.c **** *
2803:..\..\..\..\..\..\Software\uCOS-III\Source/os_core.c **** *              timeout        is the desired timeout
2804:..\..\..\..\..\..\Software\uCOS-III\Source/os_core.c **** *
2805:..\..\..\..\..\..\Software\uCOS-III\Source/os_core.c **** * Returns    : none
2806:..\..\..\..\..\..\Software\uCOS-III\Source/os_core.c **** *
2807:..\..\..\..\..\..\Software\uCOS-III\Source/os_core.c **** * Note(s)    : 1) This function is INTERNAL to uC/OS-III and your application MUST NOT call it.
2808:..\..\..\..\..\..\Software\uCOS-III\Source/os_core.c **** ***************************************************************************************************
2809:..\..\..\..\..\..\Software\uCOS-III\Source/os_core.c **** */
2810:..\..\..\..\..\..\Software\uCOS-III\Source/os_core.c **** 
2811:..\..\..\..\..\..\Software\uCOS-III\Source/os_core.c **** void  OS_TaskBlock (OS_TCB   *p_tcb,
2812:..\..\..\..\..\..\Software\uCOS-III\Source/os_core.c ****                     OS_TICK   timeout)
2813:..\..\..\..\..\..\Software\uCOS-III\Source/os_core.c **** {
 3248              		.loc 1 2813 0
 3249              		.cfi_startproc
 3250              		@ args = 0, pretend = 0, frame = 8
 3251              		@ frame_needed = 1, uses_anonymous_args = 0
 3252 0000 80B5     		push	{r7, lr}
 3253              		.cfi_def_cfa_offset 8
 3254              		.cfi_offset 7, -8
 3255              		.cfi_offset 14, -4
 3256 0002 82B0     		sub	sp, sp, #8
 3257              		.cfi_def_cfa_offset 16
 3258 0004 00AF     		add	r7, sp, #0
 3259              		.cfi_def_cfa_register 7
 3260 0006 7860     		str	r0, [r7, #4]
 3261 0008 3960     		str	r1, [r7]
2814:..\..\..\..\..\..\Software\uCOS-III\Source/os_core.c **** #if (OS_CFG_TASK_TICK_EN == DEF_ENABLED)
ARM GAS  C:\Users\ADMINI~1\AppData\Local\Temp\cczjWrOu.s 			page 109


2815:..\..\..\..\..\..\Software\uCOS-III\Source/os_core.c **** #if (OS_CFG_DYN_TICK_EN == DEF_ENABLED)
2816:..\..\..\..\..\..\Software\uCOS-III\Source/os_core.c ****         OS_TICK tick_ctr;
2817:..\..\..\..\..\..\Software\uCOS-III\Source/os_core.c **** #endif
2818:..\..\..\..\..\..\Software\uCOS-III\Source/os_core.c **** 
2819:..\..\..\..\..\..\Software\uCOS-III\Source/os_core.c **** 
2820:..\..\..\..\..\..\Software\uCOS-III\Source/os_core.c ****     if (timeout > 0u) {                                         /* Add task to tick list if timeout
 3262              		.loc 1 2820 0
 3263 000a 3B68     		ldr	r3, [r7]
 3264 000c 002B     		cmp	r3, #0
 3265 000e 0AD0     		beq	.L216
2821:..\..\..\..\..\..\Software\uCOS-III\Source/os_core.c **** #if (OS_CFG_DYN_TICK_EN == DEF_ENABLED)
2822:..\..\..\..\..\..\Software\uCOS-III\Source/os_core.c ****         tick_ctr = BSP_OS_TickGet();
2823:..\..\..\..\..\..\Software\uCOS-III\Source/os_core.c ****         OS_TickListInsert(&OSTickListTimeout, p_tcb, timeout + (tick_ctr - OSTickCtr));
2824:..\..\..\..\..\..\Software\uCOS-III\Source/os_core.c **** #else
2825:..\..\..\..\..\..\Software\uCOS-III\Source/os_core.c ****         OS_TickListInsert(&OSTickListTimeout, p_tcb, timeout);
 3266              		.loc 1 2825 0
 3267 0010 3A68     		ldr	r2, [r7]
 3268 0012 7968     		ldr	r1, [r7, #4]
 3269 0014 0A4B     		ldr	r3, .L218
 3270 0016 1800     		movs	r0, r3
 3271 0018 FFF7FEFF 		bl	OS_TickListInsert
2826:..\..\..\..\..\..\Software\uCOS-III\Source/os_core.c **** #endif
2827:..\..\..\..\..\..\Software\uCOS-III\Source/os_core.c ****         p_tcb->TaskState = OS_TASK_STATE_PEND_TIMEOUT;
 3272              		.loc 1 2827 0
 3273 001c 7B68     		ldr	r3, [r7, #4]
 3274 001e 3622     		movs	r2, #54
 3275 0020 0321     		movs	r1, #3
 3276 0022 9954     		strb	r1, [r3, r2]
 3277 0024 03E0     		b	.L217
 3278              	.L216:
2828:..\..\..\..\..\..\Software\uCOS-III\Source/os_core.c ****     } else {
2829:..\..\..\..\..\..\Software\uCOS-III\Source/os_core.c ****         p_tcb->TaskState = OS_TASK_STATE_PEND;
 3279              		.loc 1 2829 0
 3280 0026 7B68     		ldr	r3, [r7, #4]
 3281 0028 3622     		movs	r2, #54
 3282 002a 0221     		movs	r1, #2
 3283 002c 9954     		strb	r1, [r3, r2]
 3284              	.L217:
2830:..\..\..\..\..\..\Software\uCOS-III\Source/os_core.c ****     }
2831:..\..\..\..\..\..\Software\uCOS-III\Source/os_core.c **** #else
2832:..\..\..\..\..\..\Software\uCOS-III\Source/os_core.c ****     p_tcb->TaskState = OS_TASK_STATE_PEND;
2833:..\..\..\..\..\..\Software\uCOS-III\Source/os_core.c **** #endif
2834:..\..\..\..\..\..\Software\uCOS-III\Source/os_core.c ****     OS_RdyListRemove(p_tcb);
 3285              		.loc 1 2834 0
 3286 002e 7B68     		ldr	r3, [r7, #4]
 3287 0030 1800     		movs	r0, r3
 3288 0032 FFF7FEFF 		bl	OS_RdyListRemove
2835:..\..\..\..\..\..\Software\uCOS-III\Source/os_core.c **** }
 3289              		.loc 1 2835 0
 3290 0036 C046     		nop
 3291 0038 BD46     		mov	sp, r7
 3292 003a 02B0     		add	sp, sp, #8
 3293              		@ sp needed
 3294 003c 80BD     		pop	{r7, pc}
 3295              	.L219:
 3296 003e C046     		.align	2
 3297              	.L218:
ARM GAS  C:\Users\ADMINI~1\AppData\Local\Temp\cczjWrOu.s 			page 110


 3298 0040 00000000 		.word	OSTickListTimeout
 3299              		.cfi_endproc
 3300              	.LFE30:
 3301              		.size	OS_TaskBlock, .-OS_TaskBlock
 3302              		.text
 3303              	.Letext0:
 3304              		.file 2 "..\\..\\..\\..\\..\\..\\Software\\uC-CPU\\ARM-Cortex-M0\\GNU/cpu.h"
 3305              		.file 3 "..\\..\\..\\..\\..\\..\\Software\\uC-CPU/cpu_core.h"
 3306              		.file 4 "..\\..\\..\\..\\..\\..\\Software\\uCOS-III\\Source\\os_type.h"
 3307              		.file 5 "..\\..\\..\\..\\..\\..\\Software\\uCOS-III\\Source\\os.h"
 3308              		.section	.debug_info,"",%progbits
 3309              	.Ldebug_info0:
 3310 0000 5D170000 		.4byte	0x175d
 3311 0004 0400     		.2byte	0x4
 3312 0006 00000000 		.4byte	.Ldebug_abbrev0
 3313 000a 04       		.byte	0x4
 3314 000b 01       		.uleb128 0x1
 3315 000c AF030000 		.4byte	.LASF394
 3316 0010 0C       		.byte	0xc
 3317 0011 50120000 		.4byte	.LASF395
 3318 0015 B8000000 		.4byte	.LASF396
 3319 0019 00000000 		.4byte	.Ldebug_ranges0+0
 3320 001d 00000000 		.4byte	0
 3321 0021 00000000 		.4byte	.Ldebug_line0
 3322 0025 02       		.uleb128 0x2
 3323 0026 BF090000 		.4byte	.LASF2
 3324 002a 02       		.byte	0x2
 3325 002b 7C       		.byte	0x7c
 3326 002c 30000000 		.4byte	0x30
 3327 0030 03       		.uleb128 0x3
 3328 0031 01       		.byte	0x1
 3329 0032 08       		.byte	0x8
 3330 0033 8A0B0000 		.4byte	.LASF0
 3331 0037 03       		.uleb128 0x3
 3332 0038 01       		.byte	0x1
 3333 0039 08       		.byte	0x8
 3334 003a 23140000 		.4byte	.LASF1
 3335 003e 02       		.uleb128 0x2
 3336 003f 65080000 		.4byte	.LASF3
 3337 0043 02       		.byte	0x2
 3338 0044 7E       		.byte	0x7e
 3339 0045 37000000 		.4byte	0x37
 3340 0049 03       		.uleb128 0x3
 3341 004a 01       		.byte	0x1
 3342 004b 06       		.byte	0x6
 3343 004c DF150000 		.4byte	.LASF4
 3344 0050 02       		.uleb128 0x2
 3345 0051 900D0000 		.4byte	.LASF5
 3346 0055 02       		.byte	0x2
 3347 0056 80       		.byte	0x80
 3348 0057 5B000000 		.4byte	0x5b
 3349 005b 03       		.uleb128 0x3
 3350 005c 02       		.byte	0x2
 3351 005d 07       		.byte	0x7
 3352 005e 0B160000 		.4byte	.LASF6
 3353 0062 03       		.uleb128 0x3
 3354 0063 02       		.byte	0x2
ARM GAS  C:\Users\ADMINI~1\AppData\Local\Temp\cczjWrOu.s 			page 111


 3355 0064 05       		.byte	0x5
 3356 0065 FC100000 		.4byte	.LASF7
 3357 0069 02       		.uleb128 0x2
 3358 006a 3F020000 		.4byte	.LASF8
 3359 006e 02       		.byte	0x2
 3360 006f 82       		.byte	0x82
 3361 0070 74000000 		.4byte	0x74
 3362 0074 03       		.uleb128 0x3
 3363 0075 04       		.byte	0x4
 3364 0076 07       		.byte	0x7
 3365 0077 B6120000 		.4byte	.LASF9
 3366 007b 04       		.uleb128 0x4
 3367 007c 04       		.byte	0x4
 3368 007d 05       		.byte	0x5
 3369 007e 696E7400 		.ascii	"int\000"
 3370 0082 03       		.uleb128 0x3
 3371 0083 08       		.byte	0x8
 3372 0084 07       		.byte	0x7
 3373 0085 61070000 		.4byte	.LASF10
 3374 0089 03       		.uleb128 0x3
 3375 008a 08       		.byte	0x8
 3376 008b 05       		.byte	0x5
 3377 008c C00C0000 		.4byte	.LASF11
 3378 0090 03       		.uleb128 0x3
 3379 0091 04       		.byte	0x4
 3380 0092 04       		.byte	0x4
 3381 0093 CC060000 		.4byte	.LASF12
 3382 0097 03       		.uleb128 0x3
 3383 0098 08       		.byte	0x8
 3384 0099 04       		.byte	0x4
 3385 009a 9E160000 		.4byte	.LASF13
 3386 009e 05       		.uleb128 0x5
 3387 009f 04       		.byte	0x4
 3388 00a0 A4000000 		.4byte	0xa4
 3389 00a4 06       		.uleb128 0x6
 3390 00a5 AF000000 		.4byte	0xaf
 3391 00a9 07       		.uleb128 0x7
 3392 00aa AF000000 		.4byte	0xaf
 3393 00ae 00       		.byte	0
 3394 00af 08       		.uleb128 0x8
 3395 00b0 04       		.byte	0x4
 3396 00b1 02       		.uleb128 0x2
 3397 00b2 7C130000 		.4byte	.LASF14
 3398 00b6 02       		.byte	0x2
 3399 00b7 BA       		.byte	0xba
 3400 00b8 69000000 		.4byte	0x69
 3401 00bc 02       		.uleb128 0x2
 3402 00bd 4A180000 		.4byte	.LASF15
 3403 00c1 02       		.byte	0x2
 3404 00c2 E5       		.byte	0xe5
 3405 00c3 69000000 		.4byte	0x69
 3406 00c7 02       		.uleb128 0x2
 3407 00c8 0E0A0000 		.4byte	.LASF16
 3408 00cc 02       		.byte	0x2
 3409 00cd E6       		.byte	0xe6
 3410 00ce B1000000 		.4byte	0xb1
 3411 00d2 09       		.uleb128 0x9
ARM GAS  C:\Users\ADMINI~1\AppData\Local\Temp\cczjWrOu.s 			page 112


 3412 00d3 C00B0000 		.4byte	.LASF17
 3413 00d7 02       		.byte	0x2
 3414 00d8 3301     		.2byte	0x133
 3415 00da 69000000 		.4byte	0x69
 3416 00de 02       		.uleb128 0x2
 3417 00df 420E0000 		.4byte	.LASF18
 3418 00e3 03       		.byte	0x3
 3419 00e4 C3       		.byte	0xc3
 3420 00e5 69000000 		.4byte	0x69
 3421 00e9 02       		.uleb128 0x2
 3422 00ea B90C0000 		.4byte	.LASF19
 3423 00ee 03       		.byte	0x3
 3424 00ef C6       		.byte	0xc6
 3425 00f0 DE000000 		.4byte	0xde
 3426 00f4 02       		.uleb128 0x2
 3427 00f5 F6040000 		.4byte	.LASF20
 3428 00f9 03       		.byte	0x3
 3429 00fa D1       		.byte	0xd1
 3430 00fb 69000000 		.4byte	0x69
 3431 00ff 02       		.uleb128 0x2
 3432 0100 15020000 		.4byte	.LASF21
 3433 0104 04       		.byte	0x4
 3434 0105 32       		.byte	0x32
 3435 0106 50000000 		.4byte	0x50
 3436 010a 02       		.uleb128 0x2
 3437 010b 49000000 		.4byte	.LASF22
 3438 010f 04       		.byte	0x4
 3439 0110 36       		.byte	0x36
 3440 0111 69000000 		.4byte	0x69
 3441 0115 02       		.uleb128 0x2
 3442 0116 D6130000 		.4byte	.LASF23
 3443 011a 04       		.byte	0x4
 3444 011b 38       		.byte	0x38
 3445 011c 69000000 		.4byte	0x69
 3446 0120 02       		.uleb128 0x2
 3447 0121 28160000 		.4byte	.LASF24
 3448 0125 04       		.byte	0x4
 3449 0126 3A       		.byte	0x3a
 3450 0127 69000000 		.4byte	0x69
 3451 012b 02       		.uleb128 0x2
 3452 012c 500D0000 		.4byte	.LASF25
 3453 0130 04       		.byte	0x4
 3454 0131 3C       		.byte	0x3c
 3455 0132 69000000 		.4byte	0x69
 3456 0136 02       		.uleb128 0x2
 3457 0137 1B0A0000 		.4byte	.LASF26
 3458 013b 04       		.byte	0x4
 3459 013c 41       		.byte	0x41
 3460 013d 50000000 		.4byte	0x50
 3461 0141 02       		.uleb128 0x2
 3462 0142 78090000 		.4byte	.LASF27
 3463 0146 04       		.byte	0x4
 3464 0147 42       		.byte	0x42
 3465 0148 50000000 		.4byte	0x50
 3466 014c 02       		.uleb128 0x2
 3467 014d BA110000 		.4byte	.LASF28
 3468 0151 04       		.byte	0x4
ARM GAS  C:\Users\ADMINI~1\AppData\Local\Temp\cczjWrOu.s 			page 113


 3469 0152 44       		.byte	0x44
 3470 0153 3E000000 		.4byte	0x3e
 3471 0157 02       		.uleb128 0x2
 3472 0158 33060000 		.4byte	.LASF29
 3473 015c 04       		.byte	0x4
 3474 015d 46       		.byte	0x46
 3475 015e 50000000 		.4byte	0x50
 3476 0162 02       		.uleb128 0x2
 3477 0163 8F0B0000 		.4byte	.LASF30
 3478 0167 04       		.byte	0x4
 3479 0168 47       		.byte	0x47
 3480 0169 69000000 		.4byte	0x69
 3481 016d 02       		.uleb128 0x2
 3482 016e A5140000 		.4byte	.LASF31
 3483 0172 04       		.byte	0x4
 3484 0173 49       		.byte	0x49
 3485 0174 50000000 		.4byte	0x50
 3486 0178 02       		.uleb128 0x2
 3487 0179 AF060000 		.4byte	.LASF32
 3488 017d 04       		.byte	0x4
 3489 017e 4D       		.byte	0x4d
 3490 017f 3E000000 		.4byte	0x3e
 3491 0183 02       		.uleb128 0x2
 3492 0184 F3080000 		.4byte	.LASF33
 3493 0188 04       		.byte	0x4
 3494 0189 56       		.byte	0x56
 3495 018a 69000000 		.4byte	0x69
 3496 018e 02       		.uleb128 0x2
 3497 018f 6A160000 		.4byte	.LASF34
 3498 0193 04       		.byte	0x4
 3499 0194 58       		.byte	0x58
 3500 0195 3E000000 		.4byte	0x3e
 3501 0199 02       		.uleb128 0x2
 3502 019a 670E0000 		.4byte	.LASF35
 3503 019e 04       		.byte	0x4
 3504 019f 5A       		.byte	0x5a
 3505 01a0 69000000 		.4byte	0x69
 3506 01a4 02       		.uleb128 0x2
 3507 01a5 77140000 		.4byte	.LASF36
 3508 01a9 04       		.byte	0x4
 3509 01aa 5C       		.byte	0x5c
 3510 01ab 3E000000 		.4byte	0x3e
 3511 01af 02       		.uleb128 0x2
 3512 01b0 30090000 		.4byte	.LASF37
 3513 01b4 04       		.byte	0x4
 3514 01b5 5E       		.byte	0x5e
 3515 01b6 3E000000 		.4byte	0x3e
 3516 01ba 02       		.uleb128 0x2
 3517 01bb F90D0000 		.4byte	.LASF38
 3518 01bf 04       		.byte	0x4
 3519 01c0 60       		.byte	0x60
 3520 01c1 69000000 		.4byte	0x69
 3521 01c5 0A       		.uleb128 0xa
 3522 01c6 BD010000 		.4byte	.LASF397
 3523 01ca 02       		.byte	0x2
 3524 01cb 5B000000 		.4byte	0x5b
 3525 01cf 05       		.byte	0x5
ARM GAS  C:\Users\ADMINI~1\AppData\Local\Temp\cczjWrOu.s 			page 114


 3526 01d0 E201     		.2byte	0x1e2
 3527 01d2 67060000 		.4byte	0x667
 3528 01d6 0B       		.uleb128 0xb
 3529 01d7 51160000 		.4byte	.LASF39
 3530 01db 00       		.byte	0
 3531 01dc 0C       		.uleb128 0xc
 3532 01dd 82000000 		.4byte	.LASF40
 3533 01e1 1027     		.2byte	0x2710
 3534 01e3 0C       		.uleb128 0xc
 3535 01e4 46060000 		.4byte	.LASF41
 3536 01e8 1127     		.2byte	0x2711
 3537 01ea 0C       		.uleb128 0xc
 3538 01eb 8B000000 		.4byte	.LASF42
 3539 01ef F82A     		.2byte	0x2af8
 3540 01f1 0C       		.uleb128 0xc
 3541 01f2 94000000 		.4byte	.LASF43
 3542 01f6 E02E     		.2byte	0x2ee0
 3543 01f8 0C       		.uleb128 0xc
 3544 01f9 F3010000 		.4byte	.LASF44
 3545 01fd E12E     		.2byte	0x2ee1
 3546 01ff 0C       		.uleb128 0xc
 3547 0200 9D000000 		.4byte	.LASF45
 3548 0204 C832     		.2byte	0x32c8
 3549 0206 0C       		.uleb128 0xc
 3550 0207 540B0000 		.4byte	.LASF46
 3551 020b C932     		.2byte	0x32c9
 3552 020d 0C       		.uleb128 0xc
 3553 020e A6000000 		.4byte	.LASF47
 3554 0212 B036     		.2byte	0x36b0
 3555 0214 0C       		.uleb128 0xc
 3556 0215 AF000000 		.4byte	.LASF48
 3557 0219 983A     		.2byte	0x3a98
 3558 021b 0C       		.uleb128 0xc
 3559 021c F7150000 		.4byte	.LASF49
 3560 0220 993A     		.2byte	0x3a99
 3561 0222 0C       		.uleb128 0xc
 3562 0223 BD0A0000 		.4byte	.LASF50
 3563 0227 FD3A     		.2byte	0x3afd
 3564 0229 0C       		.uleb128 0xc
 3565 022a 15130000 		.4byte	.LASF51
 3566 022e FE3A     		.2byte	0x3afe
 3567 0230 0C       		.uleb128 0xc
 3568 0231 E00C0000 		.4byte	.LASF52
 3569 0235 FF3A     		.2byte	0x3aff
 3570 0237 0C       		.uleb128 0xc
 3571 0238 88160000 		.4byte	.LASF53
 3572 023c 003B     		.2byte	0x3b00
 3573 023e 0C       		.uleb128 0xc
 3574 023f FF130000 		.4byte	.LASF54
 3575 0243 803E     		.2byte	0x3e80
 3576 0245 0C       		.uleb128 0xc
 3577 0246 0A010000 		.4byte	.LASF55
 3578 024a 6842     		.2byte	0x4268
 3579 024c 0C       		.uleb128 0xc
 3580 024d 13010000 		.4byte	.LASF56
 3581 0251 5046     		.2byte	0x4650
 3582 0253 0C       		.uleb128 0xc
ARM GAS  C:\Users\ADMINI~1\AppData\Local\Temp\cczjWrOu.s 			page 115


 3583 0254 F3050000 		.4byte	.LASF57
 3584 0258 5146     		.2byte	0x4651
 3585 025a 0C       		.uleb128 0xc
 3586 025b 99040000 		.4byte	.LASF58
 3587 025f 5246     		.2byte	0x4652
 3588 0261 0C       		.uleb128 0xc
 3589 0262 C0050000 		.4byte	.LASF59
 3590 0266 5346     		.2byte	0x4653
 3591 0268 0C       		.uleb128 0xc
 3592 0269 E1010000 		.4byte	.LASF60
 3593 026d 5446     		.2byte	0x4654
 3594 026f 0C       		.uleb128 0xc
 3595 0270 60150000 		.4byte	.LASF61
 3596 0274 5546     		.2byte	0x4655
 3597 0276 0C       		.uleb128 0xc
 3598 0277 370F0000 		.4byte	.LASF62
 3599 027b 5646     		.2byte	0x4656
 3600 027d 0C       		.uleb128 0xc
 3601 027e 4E030000 		.4byte	.LASF63
 3602 0282 5746     		.2byte	0x4657
 3603 0284 0C       		.uleb128 0xc
 3604 0285 1C010000 		.4byte	.LASF64
 3605 0289 384A     		.2byte	0x4a38
 3606 028b 0C       		.uleb128 0xc
 3607 028c 25010000 		.4byte	.LASF65
 3608 0290 204E     		.2byte	0x4e20
 3609 0292 0C       		.uleb128 0xc
 3610 0293 2E010000 		.4byte	.LASF66
 3611 0297 0852     		.2byte	0x5208
 3612 0299 0C       		.uleb128 0xc
 3613 029a BF100000 		.4byte	.LASF67
 3614 029e 0952     		.2byte	0x5209
 3615 02a0 0C       		.uleb128 0xc
 3616 02a1 37010000 		.4byte	.LASF68
 3617 02a5 F055     		.2byte	0x55f0
 3618 02a7 0C       		.uleb128 0xc
 3619 02a8 C8140000 		.4byte	.LASF69
 3620 02ac B956     		.2byte	0x56b9
 3621 02ae 0C       		.uleb128 0xc
 3622 02af 010E0000 		.4byte	.LASF70
 3623 02b3 BA56     		.2byte	0x56ba
 3624 02b5 0C       		.uleb128 0xc
 3625 02b6 9F100000 		.4byte	.LASF71
 3626 02ba BB56     		.2byte	0x56bb
 3627 02bc 0C       		.uleb128 0xc
 3628 02bd D60A0000 		.4byte	.LASF72
 3629 02c1 BC56     		.2byte	0x56bc
 3630 02c3 0C       		.uleb128 0xc
 3631 02c4 B70D0000 		.4byte	.LASF73
 3632 02c8 BD56     		.2byte	0x56bd
 3633 02ca 0C       		.uleb128 0xc
 3634 02cb 86100000 		.4byte	.LASF74
 3635 02cf BE56     		.2byte	0x56be
 3636 02d1 0C       		.uleb128 0xc
 3637 02d2 290E0000 		.4byte	.LASF75
 3638 02d6 BF56     		.2byte	0x56bf
 3639 02d8 0C       		.uleb128 0xc
ARM GAS  C:\Users\ADMINI~1\AppData\Local\Temp\cczjWrOu.s 			page 116


 3640 02d9 FF060000 		.4byte	.LASF76
 3641 02dd C056     		.2byte	0x56c0
 3642 02df 0C       		.uleb128 0xc
 3643 02e0 24170000 		.4byte	.LASF77
 3644 02e4 C156     		.2byte	0x56c1
 3645 02e6 0C       		.uleb128 0xc
 3646 02e7 1C180000 		.4byte	.LASF78
 3647 02eb C256     		.2byte	0x56c2
 3648 02ed 0C       		.uleb128 0xc
 3649 02ee 11110000 		.4byte	.LASF79
 3650 02f2 1D57     		.2byte	0x571d
 3651 02f4 0C       		.uleb128 0xc
 3652 02f5 A1110000 		.4byte	.LASF80
 3653 02f9 1E57     		.2byte	0x571e
 3654 02fb 0C       		.uleb128 0xc
 3655 02fc 61090000 		.4byte	.LASF81
 3656 0300 8157     		.2byte	0x5781
 3657 0302 0C       		.uleb128 0xc
 3658 0303 CB120000 		.4byte	.LASF82
 3659 0307 8257     		.2byte	0x5782
 3660 0309 0C       		.uleb128 0xc
 3661 030a 28050000 		.4byte	.LASF83
 3662 030e 8357     		.2byte	0x5783
 3663 0310 0C       		.uleb128 0xc
 3664 0311 62040000 		.4byte	.LASF84
 3665 0315 8457     		.2byte	0x5784
 3666 0317 0C       		.uleb128 0xc
 3667 0318 40010000 		.4byte	.LASF85
 3668 031c D859     		.2byte	0x59d8
 3669 031e 0C       		.uleb128 0xc
 3670 031f FA080000 		.4byte	.LASF86
 3671 0323 D959     		.2byte	0x59d9
 3672 0325 0C       		.uleb128 0xc
 3673 0326 E7060000 		.4byte	.LASF87
 3674 032a DA59     		.2byte	0x59da
 3675 032c 0C       		.uleb128 0xc
 3676 032d 49010000 		.4byte	.LASF88
 3677 0331 C05D     		.2byte	0x5dc0
 3678 0333 0C       		.uleb128 0xc
 3679 0334 72050000 		.4byte	.LASF89
 3680 0338 C15D     		.2byte	0x5dc1
 3681 033a 0C       		.uleb128 0xc
 3682 033b 930C0000 		.4byte	.LASF90
 3683 033f C25D     		.2byte	0x5dc2
 3684 0341 0C       		.uleb128 0xc
 3685 0342 CF0D0000 		.4byte	.LASF91
 3686 0346 C35D     		.2byte	0x5dc3
 3687 0348 0C       		.uleb128 0xc
 3688 0349 24120000 		.4byte	.LASF92
 3689 034d C45D     		.2byte	0x5dc4
 3690 034f 0C       		.uleb128 0xc
 3691 0350 AD0B0000 		.4byte	.LASF93
 3692 0354 255E     		.2byte	0x5e25
 3693 0356 0C       		.uleb128 0xc
 3694 0357 EC0F0000 		.4byte	.LASF94
 3695 035b 895E     		.2byte	0x5e89
 3696 035d 0C       		.uleb128 0xc
ARM GAS  C:\Users\ADMINI~1\AppData\Local\Temp\cczjWrOu.s 			page 117


 3697 035e 260A0000 		.4byte	.LASF95
 3698 0362 8A5E     		.2byte	0x5e8a
 3699 0364 0C       		.uleb128 0xc
 3700 0365 0C0B0000 		.4byte	.LASF96
 3701 0369 8B5E     		.2byte	0x5e8b
 3702 036b 0C       		.uleb128 0xc
 3703 036c E70B0000 		.4byte	.LASF97
 3704 0370 8C5E     		.2byte	0x5e8c
 3705 0372 0C       		.uleb128 0xc
 3706 0373 52010000 		.4byte	.LASF98
 3707 0377 A861     		.2byte	0x61a8
 3708 0379 0C       		.uleb128 0xc
 3709 037a A5160000 		.4byte	.LASF99
 3710 037e A961     		.2byte	0x61a9
 3711 0380 0C       		.uleb128 0xc
 3712 0381 66130000 		.4byte	.LASF100
 3713 0385 AA61     		.2byte	0x61aa
 3714 0387 0C       		.uleb128 0xc
 3715 0388 9F120000 		.4byte	.LASF101
 3716 038c AB61     		.2byte	0x61ab
 3717 038e 0C       		.uleb128 0xc
 3718 038f 790D0000 		.4byte	.LASF102
 3719 0393 AC61     		.2byte	0x61ac
 3720 0395 0C       		.uleb128 0xc
 3721 0396 EE160000 		.4byte	.LASF103
 3722 039a AD61     		.2byte	0x61ad
 3723 039c 0C       		.uleb128 0xc
 3724 039d FD140000 		.4byte	.LASF104
 3725 03a1 AE61     		.2byte	0x61ae
 3726 03a3 0C       		.uleb128 0xc
 3727 03a4 9C030000 		.4byte	.LASF105
 3728 03a8 AF61     		.2byte	0x61af
 3729 03aa 0C       		.uleb128 0xc
 3730 03ab D0020000 		.4byte	.LASF106
 3731 03af B061     		.2byte	0x61b0
 3732 03b1 0C       		.uleb128 0xc
 3733 03b2 D2060000 		.4byte	.LASF107
 3734 03b6 0D62     		.2byte	0x620d
 3735 03b8 0C       		.uleb128 0xc
 3736 03b9 85130000 		.4byte	.LASF108
 3737 03bd 0E62     		.2byte	0x620e
 3738 03bf 0C       		.uleb128 0xc
 3739 03c0 01180000 		.4byte	.LASF109
 3740 03c4 7162     		.2byte	0x6271
 3741 03c6 0C       		.uleb128 0xc
 3742 03c7 E2160000 		.4byte	.LASF110
 3743 03cb 7262     		.2byte	0x6272
 3744 03cd 0C       		.uleb128 0xc
 3745 03ce 20000000 		.4byte	.LASF111
 3746 03d2 7362     		.2byte	0x6273
 3747 03d4 0C       		.uleb128 0xc
 3748 03d5 B30F0000 		.4byte	.LASF112
 3749 03d9 D562     		.2byte	0x62d5
 3750 03db 0C       		.uleb128 0xc
 3751 03dc 5B010000 		.4byte	.LASF113
 3752 03e0 9065     		.2byte	0x6590
 3753 03e2 0C       		.uleb128 0xc
ARM GAS  C:\Users\ADMINI~1\AppData\Local\Temp\cczjWrOu.s 			page 118


 3754 03e3 35150000 		.4byte	.LASF114
 3755 03e7 9165     		.2byte	0x6591
 3756 03e9 0C       		.uleb128 0xc
 3757 03ea B9080000 		.4byte	.LASF115
 3758 03ee 9265     		.2byte	0x6592
 3759 03f0 0C       		.uleb128 0xc
 3760 03f1 690B0000 		.4byte	.LASF116
 3761 03f5 9365     		.2byte	0x6593
 3762 03f7 0C       		.uleb128 0xc
 3763 03f8 280D0000 		.4byte	.LASF117
 3764 03fc 9465     		.2byte	0x6594
 3765 03fe 0C       		.uleb128 0xc
 3766 03ff 64010000 		.4byte	.LASF118
 3767 0403 7869     		.2byte	0x6978
 3768 0405 0C       		.uleb128 0xc
 3769 0406 E30D0000 		.4byte	.LASF119
 3770 040a 7969     		.2byte	0x6979
 3771 040c 0C       		.uleb128 0xc
 3772 040d 71100000 		.4byte	.LASF120
 3773 0411 7A69     		.2byte	0x697a
 3774 0413 0C       		.uleb128 0xc
 3775 0414 9B0D0000 		.4byte	.LASF121
 3776 0418 7B69     		.2byte	0x697b
 3777 041a 0C       		.uleb128 0xc
 3778 041b 6D010000 		.4byte	.LASF122
 3779 041f 606D     		.2byte	0x6d60
 3780 0421 0C       		.uleb128 0xc
 3781 0422 C70B0000 		.4byte	.LASF123
 3782 0426 616D     		.2byte	0x6d61
 3783 0428 0C       		.uleb128 0xc
 3784 0429 3E0B0000 		.4byte	.LASF124
 3785 042d 626D     		.2byte	0x6d62
 3786 042f 0C       		.uleb128 0xc
 3787 0430 74160000 		.4byte	.LASF125
 3788 0434 636D     		.2byte	0x6d63
 3789 0436 0C       		.uleb128 0xc
 3790 0437 CA160000 		.4byte	.LASF126
 3791 043b 646D     		.2byte	0x6d64
 3792 043d 0C       		.uleb128 0xc
 3793 043e 35110000 		.4byte	.LASF127
 3794 0442 656D     		.2byte	0x6d65
 3795 0444 0C       		.uleb128 0xc
 3796 0445 95170000 		.4byte	.LASF128
 3797 0449 C56D     		.2byte	0x6dc5
 3798 044b 0C       		.uleb128 0xc
 3799 044c 5E170000 		.4byte	.LASF129
 3800 0450 C66D     		.2byte	0x6dc6
 3801 0452 0C       		.uleb128 0xc
 3802 0453 6A030000 		.4byte	.LASF130
 3803 0457 296E     		.2byte	0x6e29
 3804 0459 0C       		.uleb128 0xc
 3805 045a 2D0C0000 		.4byte	.LASF131
 3806 045e 2A6E     		.2byte	0x6e2a
 3807 0460 0C       		.uleb128 0xc
 3808 0461 940A0000 		.4byte	.LASF132
 3809 0465 2B6E     		.2byte	0x6e2b
 3810 0467 0C       		.uleb128 0xc
ARM GAS  C:\Users\ADMINI~1\AppData\Local\Temp\cczjWrOu.s 			page 119


 3811 0468 F8120000 		.4byte	.LASF133
 3812 046c 2C6E     		.2byte	0x6e2c
 3813 046e 0C       		.uleb128 0xc
 3814 046f C60F0000 		.4byte	.LASF134
 3815 0473 2D6E     		.2byte	0x6e2d
 3816 0475 0C       		.uleb128 0xc
 3817 0476 DE140000 		.4byte	.LASF135
 3818 047a 2E6E     		.2byte	0x6e2e
 3819 047c 0C       		.uleb128 0xc
 3820 047d 6F020000 		.4byte	.LASF136
 3821 0481 2F6E     		.2byte	0x6e2f
 3822 0483 0C       		.uleb128 0xc
 3823 0484 E7130000 		.4byte	.LASF137
 3824 0488 306E     		.2byte	0x6e30
 3825 048a 0C       		.uleb128 0xc
 3826 048b BD130000 		.4byte	.LASF138
 3827 048f 316E     		.2byte	0x6e31
 3828 0491 0C       		.uleb128 0xc
 3829 0492 76010000 		.4byte	.LASF139
 3830 0496 4871     		.2byte	0x7148
 3831 0498 0C       		.uleb128 0xc
 3832 0499 E8020000 		.4byte	.LASF140
 3833 049d 4971     		.2byte	0x7149
 3834 049f 0C       		.uleb128 0xc
 3835 04a0 C8090000 		.4byte	.LASF141
 3836 04a4 4A71     		.2byte	0x714a
 3837 04a6 0C       		.uleb128 0xc
 3838 04a7 95150000 		.4byte	.LASF142
 3839 04ab 4B71     		.2byte	0x714b
 3840 04ad 0C       		.uleb128 0xc
 3841 04ae A4170000 		.4byte	.LASF143
 3842 04b2 4C71     		.2byte	0x714c
 3843 04b4 0C       		.uleb128 0xc
 3844 04b5 E0070000 		.4byte	.LASF144
 3845 04b9 4D71     		.2byte	0x714d
 3846 04bb 0C       		.uleb128 0xc
 3847 04bc 8E0F0000 		.4byte	.LASF145
 3848 04c0 4E71     		.2byte	0x714e
 3849 04c2 0C       		.uleb128 0xc
 3850 04c3 D80E0000 		.4byte	.LASF146
 3851 04c7 4F71     		.2byte	0x714f
 3852 04c9 0C       		.uleb128 0xc
 3853 04ca 110E0000 		.4byte	.LASF147
 3854 04ce 5071     		.2byte	0x7150
 3855 04d0 0C       		.uleb128 0xc
 3856 04d1 73040000 		.4byte	.LASF148
 3857 04d5 5171     		.2byte	0x7151
 3858 04d7 0C       		.uleb128 0xc
 3859 04d8 B10E0000 		.4byte	.LASF149
 3860 04dc 5271     		.2byte	0x7152
 3861 04de 0C       		.uleb128 0xc
 3862 04df 3D040000 		.4byte	.LASF150
 3863 04e3 5371     		.2byte	0x7153
 3864 04e5 0C       		.uleb128 0xc
 3865 04e6 31140000 		.4byte	.LASF151
 3866 04ea 5471     		.2byte	0x7154
 3867 04ec 0C       		.uleb128 0xc
ARM GAS  C:\Users\ADMINI~1\AppData\Local\Temp\cczjWrOu.s 			page 120


 3868 04ed B9020000 		.4byte	.LASF152
 3869 04f1 5571     		.2byte	0x7155
 3870 04f3 0C       		.uleb128 0xc
 3871 04f4 71060000 		.4byte	.LASF153
 3872 04f8 5671     		.2byte	0x7156
 3873 04fa 0C       		.uleb128 0xc
 3874 04fb F7110000 		.4byte	.LASF154
 3875 04ff 5771     		.2byte	0x7157
 3876 0501 0C       		.uleb128 0xc
 3877 0502 78070000 		.4byte	.LASF155
 3878 0506 5871     		.2byte	0x7158
 3879 0508 0C       		.uleb128 0xc
 3880 0509 D7100000 		.4byte	.LASF156
 3881 050d 5971     		.2byte	0x7159
 3882 050f 0C       		.uleb128 0xc
 3883 0510 3C170000 		.4byte	.LASF157
 3884 0514 5A71     		.2byte	0x715a
 3885 0516 0C       		.uleb128 0xc
 3886 0517 A7050000 		.4byte	.LASF158
 3887 051b 5B71     		.2byte	0x715b
 3888 051d 0C       		.uleb128 0xc
 3889 051e C0070000 		.4byte	.LASF159
 3890 0522 5C71     		.2byte	0x715c
 3891 0524 0C       		.uleb128 0xc
 3892 0525 01050000 		.4byte	.LASF160
 3893 0529 5D71     		.2byte	0x715d
 3894 052b 0C       		.uleb128 0xc
 3895 052c 040F0000 		.4byte	.LASF161
 3896 0530 5E71     		.2byte	0x715e
 3897 0532 0C       		.uleb128 0xc
 3898 0533 C2040000 		.4byte	.LASF162
 3899 0537 5F71     		.2byte	0x715f
 3900 0539 0C       		.uleb128 0xc
 3901 053a 020D0000 		.4byte	.LASF163
 3902 053e 6071     		.2byte	0x7160
 3903 0540 0C       		.uleb128 0xc
 3904 0541 77080000 		.4byte	.LASF164
 3905 0545 AD71     		.2byte	0x71ad
 3906 0547 0C       		.uleb128 0xc
 3907 0548 4B070000 		.4byte	.LASF165
 3908 054c C071     		.2byte	0x71c0
 3909 054e 0C       		.uleb128 0xc
 3910 054f 550F0000 		.4byte	.LASF166
 3911 0553 C171     		.2byte	0x71c1
 3912 0555 0C       		.uleb128 0xc
 3913 0556 38160000 		.4byte	.LASF167
 3914 055a C271     		.2byte	0x71c2
 3915 055c 0C       		.uleb128 0xc
 3916 055d 9B0B0000 		.4byte	.LASF168
 3917 0561 C371     		.2byte	0x71c3
 3918 0563 0C       		.uleb128 0xc
 3919 0564 44090000 		.4byte	.LASF169
 3920 0568 C471     		.2byte	0x71c4
 3921 056a 0C       		.uleb128 0xc
 3922 056b E8170000 		.4byte	.LASF170
 3923 056f 1172     		.2byte	0x7211
 3924 0571 0C       		.uleb128 0xc
ARM GAS  C:\Users\ADMINI~1\AppData\Local\Temp\cczjWrOu.s 			page 121


 3925 0572 89110000 		.4byte	.LASF171
 3926 0576 1272     		.2byte	0x7212
 3927 0578 0C       		.uleb128 0xc
 3928 0579 22020000 		.4byte	.LASF172
 3929 057d 1372     		.2byte	0x7213
 3930 057f 0C       		.uleb128 0xc
 3931 0580 8E0E0000 		.4byte	.LASF173
 3932 0584 1472     		.2byte	0x7214
 3933 0586 0C       		.uleb128 0xc
 3934 0587 A9130000 		.4byte	.LASF174
 3935 058b 7572     		.2byte	0x7275
 3936 058d 0C       		.uleb128 0xc
 3937 058e CD170000 		.4byte	.LASF175
 3938 0592 7672     		.2byte	0x7276
 3939 0594 0C       		.uleb128 0xc
 3940 0595 B9170000 		.4byte	.LASF176
 3941 0599 7772     		.2byte	0x7277
 3942 059b 0C       		.uleb128 0xc
 3943 059c 84090000 		.4byte	.LASF177
 3944 05a0 7872     		.2byte	0x7278
 3945 05a2 0C       		.uleb128 0xc
 3946 05a3 66000000 		.4byte	.LASF178
 3947 05a7 7972     		.2byte	0x7279
 3948 05a9 0C       		.uleb128 0xc
 3949 05aa 79150000 		.4byte	.LASF179
 3950 05ae 7A72     		.2byte	0x727a
 3951 05b0 0C       		.uleb128 0xc
 3952 05b1 C8080000 		.4byte	.LASF180
 3953 05b5 7B72     		.2byte	0x727b
 3954 05b7 0C       		.uleb128 0xc
 3955 05b8 460C0000 		.4byte	.LASF181
 3956 05bc 7C72     		.2byte	0x727c
 3957 05be 0C       		.uleb128 0xc
 3958 05bf 5D100000 		.4byte	.LASF182
 3959 05c3 7D72     		.2byte	0x727d
 3960 05c5 0C       		.uleb128 0xc
 3961 05c6 5B0A0000 		.4byte	.LASF183
 3962 05ca 7E72     		.2byte	0x727e
 3963 05cc 0C       		.uleb128 0xc
 3964 05cd 57140000 		.4byte	.LASF184
 3965 05d1 D972     		.2byte	0x72d9
 3966 05d3 0C       		.uleb128 0xc
 3967 05d4 37070000 		.4byte	.LASF185
 3968 05d8 3D73     		.2byte	0x733d
 3969 05da 0C       		.uleb128 0xc
 3970 05db 260B0000 		.4byte	.LASF186
 3971 05df 3E73     		.2byte	0x733e
 3972 05e1 0C       		.uleb128 0xc
 3973 05e2 1C060000 		.4byte	.LASF187
 3974 05e6 3F73     		.2byte	0x733f
 3975 05e8 0C       		.uleb128 0xc
 3976 05e9 A3010000 		.4byte	.LASF188
 3977 05ed 4073     		.2byte	0x7340
 3978 05ef 0C       		.uleb128 0xc
 3979 05f0 52050000 		.4byte	.LASF189
 3980 05f4 4173     		.2byte	0x7341
 3981 05f6 0C       		.uleb128 0xc
ARM GAS  C:\Users\ADMINI~1\AppData\Local\Temp\cczjWrOu.s 			page 122


 3982 05f7 A0070000 		.4byte	.LASF190
 3983 05fb 4273     		.2byte	0x7342
 3984 05fd 0C       		.uleb128 0xc
 3985 05fe 57000000 		.4byte	.LASF191
 3986 0602 4373     		.2byte	0x7343
 3987 0604 0C       		.uleb128 0xc
 3988 0605 20070000 		.4byte	.LASF192
 3989 0609 4473     		.2byte	0x7344
 3990 060b 0C       		.uleb128 0xc
 3991 060c 9E090000 		.4byte	.LASF193
 3992 0610 4573     		.2byte	0x7345
 3993 0612 0C       		.uleb128 0xc
 3994 0613 EC0E0000 		.4byte	.LASF194
 3995 0617 4673     		.2byte	0x7346
 3996 0619 0C       		.uleb128 0xc
 3997 061a 42080000 		.4byte	.LASF195
 3998 061e 4773     		.2byte	0x7347
 3999 0620 0C       		.uleb128 0xc
 4000 0621 720E0000 		.4byte	.LASF196
 4001 0625 4873     		.2byte	0x7348
 4002 0627 0C       		.uleb128 0xc
 4003 0628 08140000 		.4byte	.LASF197
 4004 062c 4973     		.2byte	0x7349
 4005 062e 0C       		.uleb128 0xc
 4006 062f 640F0000 		.4byte	.LASF198
 4007 0633 4A73     		.2byte	0x734a
 4008 0635 0C       		.uleb128 0xc
 4009 0636 7F010000 		.4byte	.LASF199
 4010 063a 3075     		.2byte	0x7530
 4011 063c 0C       		.uleb128 0xc
 4012 063d 88010000 		.4byte	.LASF200
 4013 0641 1879     		.2byte	0x7918
 4014 0643 0C       		.uleb128 0xc
 4015 0644 91010000 		.4byte	.LASF201
 4016 0648 007D     		.2byte	0x7d00
 4017 064a 0C       		.uleb128 0xc
 4018 064b 9A010000 		.4byte	.LASF202
 4019 064f E880     		.2byte	0x80e8
 4020 0651 0C       		.uleb128 0xc
 4021 0652 F4140000 		.4byte	.LASF203
 4022 0656 D084     		.2byte	0x84d0
 4023 0658 0C       		.uleb128 0xc
 4024 0659 820C0000 		.4byte	.LASF204
 4025 065d D184     		.2byte	0x84d1
 4026 065f 0C       		.uleb128 0xc
 4027 0660 0D150000 		.4byte	.LASF205
 4028 0664 B888     		.2byte	0x88b8
 4029 0666 00       		.byte	0
 4030 0667 09       		.uleb128 0x9
 4031 0668 34000000 		.4byte	.LASF206
 4032 066c 05       		.byte	0x5
 4033 066d B502     		.2byte	0x2b5
 4034 066f C5010000 		.4byte	0x1c5
 4035 0673 09       		.uleb128 0x9
 4036 0674 52170000 		.4byte	.LASF207
 4037 0678 05       		.byte	0x5
 4038 0679 C002     		.2byte	0x2c0
ARM GAS  C:\Users\ADMINI~1\AppData\Local\Temp\cczjWrOu.s 			page 123


 4039 067b 7F060000 		.4byte	0x67f
 4040 067f 0D       		.uleb128 0xd
 4041 0680 D5010000 		.4byte	.LASF216
 4042 0684 28       		.byte	0x28
 4043 0685 05       		.byte	0x5
 4044 0686 6703     		.2byte	0x367
 4045 0688 F4060000 		.4byte	0x6f4
 4046 068c 0E       		.uleb128 0xe
 4047 068d 760C0000 		.4byte	.LASF208
 4048 0691 05       		.byte	0x5
 4049 0692 6A03     		.2byte	0x36a
 4050 0694 62010000 		.4byte	0x162
 4051 0698 00       		.byte	0
 4052 0699 0E       		.uleb128 0xe
 4053 069a 5A0C0000 		.4byte	.LASF209
 4054 069e 05       		.byte	0x5
 4055 069f 6D03     		.2byte	0x36d
 4056 06a1 A90D0000 		.4byte	0xda9
 4057 06a5 04       		.byte	0x4
 4058 06a6 0E       		.uleb128 0xe
 4059 06a7 1B120000 		.4byte	.LASF210
 4060 06ab 05       		.byte	0x5
 4061 06ac 6F03     		.2byte	0x36f
 4062 06ae EE0C0000 		.4byte	0xcee
 4063 06b2 08       		.byte	0x8
 4064 06b3 0E       		.uleb128 0xe
 4065 06b4 87040000 		.4byte	.LASF211
 4066 06b8 05       		.byte	0x5
 4067 06b9 7103     		.2byte	0x371
 4068 06bb AF0D0000 		.4byte	0xdaf
 4069 06bf 14       		.byte	0x14
 4070 06c0 0E       		.uleb128 0xe
 4071 06c1 A6040000 		.4byte	.LASF212
 4072 06c5 05       		.byte	0x5
 4073 06c6 7203     		.2byte	0x372
 4074 06c8 AF0D0000 		.4byte	0xdaf
 4075 06cc 18       		.byte	0x18
 4076 06cd 0E       		.uleb128 0xe
 4077 06ce 16150000 		.4byte	.LASF213
 4078 06d2 05       		.byte	0x5
 4079 06d3 7303     		.2byte	0x373
 4080 06d5 A90D0000 		.4byte	0xda9
 4081 06d9 1C       		.byte	0x1c
 4082 06da 0E       		.uleb128 0xe
 4083 06db A9060000 		.4byte	.LASF214
 4084 06df 05       		.byte	0x5
 4085 06e0 7603     		.2byte	0x376
 4086 06e2 20010000 		.4byte	0x120
 4087 06e6 20       		.byte	0x20
 4088 06e7 0F       		.uleb128 0xf
 4089 06e8 545300   		.ascii	"TS\000"
 4090 06eb 05       		.byte	0x5
 4091 06ec 7803     		.2byte	0x378
 4092 06ee E9000000 		.4byte	0xe9
 4093 06f2 24       		.byte	0x24
 4094 06f3 00       		.byte	0
 4095 06f4 09       		.uleb128 0x9
ARM GAS  C:\Users\ADMINI~1\AppData\Local\Temp\cczjWrOu.s 			page 124


 4096 06f5 1F0B0000 		.4byte	.LASF215
 4097 06f9 05       		.byte	0x5
 4098 06fa C402     		.2byte	0x2c4
 4099 06fc 00070000 		.4byte	0x700
 4100 0700 0D       		.uleb128 0xd
 4101 0701 70080000 		.4byte	.LASF217
 4102 0705 10       		.byte	0x10
 4103 0706 05       		.byte	0x5
 4104 0707 A303     		.2byte	0x3a3
 4105 0709 42070000 		.4byte	0x742
 4106 070d 0E       		.uleb128 0xe
 4107 070e E40F0000 		.4byte	.LASF218
 4108 0712 05       		.byte	0x5
 4109 0713 A403     		.2byte	0x3a4
 4110 0715 B50D0000 		.4byte	0xdb5
 4111 0719 00       		.byte	0
 4112 071a 0E       		.uleb128 0xe
 4113 071b 31160000 		.4byte	.LASF219
 4114 071f 05       		.byte	0x5
 4115 0720 A503     		.2byte	0x3a5
 4116 0722 AF000000 		.4byte	0xaf
 4117 0726 04       		.byte	0x4
 4118 0727 0E       		.uleb128 0xe
 4119 0728 C3120000 		.4byte	.LASF220
 4120 072c 05       		.byte	0x5
 4121 072d A603     		.2byte	0x3a6
 4122 072f 41010000 		.4byte	0x141
 4123 0733 08       		.byte	0x8
 4124 0734 0E       		.uleb128 0xe
 4125 0735 EB150000 		.4byte	.LASF221
 4126 0739 05       		.byte	0x5
 4127 073a A803     		.2byte	0x3a8
 4128 073c E9000000 		.4byte	0xe9
 4129 0740 0C       		.byte	0xc
 4130 0741 00       		.byte	0
 4131 0742 09       		.uleb128 0x9
 4132 0743 6D0C0000 		.4byte	.LASF222
 4133 0747 05       		.byte	0x5
 4134 0748 C602     		.2byte	0x2c6
 4135 074a 4E070000 		.4byte	0x74e
 4136 074e 0D       		.uleb128 0xd
 4137 074f 13180000 		.4byte	.LASF223
 4138 0753 10       		.byte	0x10
 4139 0754 05       		.byte	0x5
 4140 0755 BA03     		.2byte	0x3ba
 4141 0757 9D070000 		.4byte	0x79d
 4142 075b 0E       		.uleb128 0xe
 4143 075c 4A120000 		.4byte	.LASF224
 4144 0760 05       		.byte	0x5
 4145 0761 BB03     		.2byte	0x3bb
 4146 0763 B50D0000 		.4byte	0xdb5
 4147 0767 00       		.byte	0
 4148 0768 0E       		.uleb128 0xe
 4149 0769 21150000 		.4byte	.LASF225
 4150 076d 05       		.byte	0x5
 4151 076e BC03     		.2byte	0x3bc
 4152 0770 B50D0000 		.4byte	0xdb5
ARM GAS  C:\Users\ADMINI~1\AppData\Local\Temp\cczjWrOu.s 			page 125


 4153 0774 04       		.byte	0x4
 4154 0775 0E       		.uleb128 0xe
 4155 0776 4C0A0000 		.4byte	.LASF226
 4156 077a 05       		.byte	0x5
 4157 077b BD03     		.2byte	0x3bd
 4158 077d 36010000 		.4byte	0x136
 4159 0781 08       		.byte	0x8
 4160 0782 0E       		.uleb128 0xe
 4161 0783 CA010000 		.4byte	.LASF227
 4162 0787 05       		.byte	0x5
 4163 0788 BE03     		.2byte	0x3be
 4164 078a 36010000 		.4byte	0x136
 4165 078e 0A       		.byte	0xa
 4166 078f 0E       		.uleb128 0xe
 4167 0790 09170000 		.4byte	.LASF228
 4168 0794 05       		.byte	0x5
 4169 0795 C003     		.2byte	0x3c0
 4170 0797 36010000 		.4byte	0x136
 4171 079b 0C       		.byte	0xc
 4172 079c 00       		.byte	0
 4173 079d 09       		.uleb128 0x9
 4174 079e 66020000 		.4byte	.LASF229
 4175 07a2 05       		.byte	0x5
 4176 07a3 C802     		.2byte	0x2c8
 4177 07a5 A9070000 		.4byte	0x7a9
 4178 07a9 0D       		.uleb128 0xd
 4179 07aa 0F100000 		.4byte	.LASF230
 4180 07ae 30       		.byte	0x30
 4181 07af 05       		.byte	0x5
 4182 07b0 D003     		.2byte	0x3d0
 4183 07b2 38080000 		.4byte	0x838
 4184 07b6 0E       		.uleb128 0xe
 4185 07b7 760C0000 		.4byte	.LASF208
 4186 07bb 05       		.byte	0x5
 4187 07bc D303     		.2byte	0x3d3
 4188 07be 62010000 		.4byte	0x162
 4189 07c2 00       		.byte	0
 4190 07c3 0E       		.uleb128 0xe
 4191 07c4 5A0C0000 		.4byte	.LASF209
 4192 07c8 05       		.byte	0x5
 4193 07c9 D603     		.2byte	0x3d6
 4194 07cb A90D0000 		.4byte	0xda9
 4195 07cf 04       		.byte	0x4
 4196 07d0 0E       		.uleb128 0xe
 4197 07d1 1B120000 		.4byte	.LASF210
 4198 07d5 05       		.byte	0x5
 4199 07d6 D803     		.2byte	0x3d8
 4200 07d8 EE0C0000 		.4byte	0xcee
 4201 07dc 08       		.byte	0x8
 4202 07dd 0E       		.uleb128 0xe
 4203 07de 87040000 		.4byte	.LASF211
 4204 07e2 05       		.byte	0x5
 4205 07e3 DA03     		.2byte	0x3da
 4206 07e5 BB0D0000 		.4byte	0xdbb
 4207 07e9 14       		.byte	0x14
 4208 07ea 0E       		.uleb128 0xe
 4209 07eb A6040000 		.4byte	.LASF212
ARM GAS  C:\Users\ADMINI~1\AppData\Local\Temp\cczjWrOu.s 			page 126


 4210 07ef 05       		.byte	0x5
 4211 07f0 DB03     		.2byte	0x3db
 4212 07f2 BB0D0000 		.4byte	0xdbb
 4213 07f6 18       		.byte	0x18
 4214 07f7 0E       		.uleb128 0xe
 4215 07f8 16150000 		.4byte	.LASF213
 4216 07fc 05       		.byte	0x5
 4217 07fd DC03     		.2byte	0x3dc
 4218 07ff A90D0000 		.4byte	0xda9
 4219 0803 1C       		.byte	0x1c
 4220 0804 0E       		.uleb128 0xe
 4221 0805 6C110000 		.4byte	.LASF231
 4222 0809 05       		.byte	0x5
 4223 080a DF03     		.2byte	0x3df
 4224 080c BB0D0000 		.4byte	0xdbb
 4225 0810 20       		.byte	0x20
 4226 0811 0E       		.uleb128 0xe
 4227 0812 B3090000 		.4byte	.LASF232
 4228 0816 05       		.byte	0x5
 4229 0817 E003     		.2byte	0x3e0
 4230 0819 970D0000 		.4byte	0xd97
 4231 081d 24       		.byte	0x24
 4232 081e 0E       		.uleb128 0xe
 4233 081f 05020000 		.4byte	.LASF233
 4234 0823 05       		.byte	0x5
 4235 0824 E103     		.2byte	0x3e1
 4236 0826 4C010000 		.4byte	0x14c
 4237 082a 28       		.byte	0x28
 4238 082b 0F       		.uleb128 0xf
 4239 082c 545300   		.ascii	"TS\000"
 4240 082f 05       		.byte	0x5
 4241 0830 E303     		.2byte	0x3e3
 4242 0832 E9000000 		.4byte	0xe9
 4243 0836 2C       		.byte	0x2c
 4244 0837 00       		.byte	0
 4245 0838 09       		.uleb128 0x9
 4246 0839 F70A0000 		.4byte	.LASF234
 4247 083d 05       		.byte	0x5
 4248 083e CC02     		.2byte	0x2cc
 4249 0840 44080000 		.4byte	0x844
 4250 0844 0D       		.uleb128 0xd
 4251 0845 560E0000 		.4byte	.LASF235
 4252 0849 30       		.byte	0x30
 4253 084a 05       		.byte	0x5
 4254 084b F303     		.2byte	0x3f3
 4255 084d AD080000 		.4byte	0x8ad
 4256 0851 0E       		.uleb128 0xe
 4257 0852 760C0000 		.4byte	.LASF208
 4258 0856 05       		.byte	0x5
 4259 0857 F603     		.2byte	0x3f6
 4260 0859 62010000 		.4byte	0x162
 4261 085d 00       		.byte	0
 4262 085e 0E       		.uleb128 0xe
 4263 085f 5A0C0000 		.4byte	.LASF209
 4264 0863 05       		.byte	0x5
 4265 0864 F903     		.2byte	0x3f9
 4266 0866 A90D0000 		.4byte	0xda9
ARM GAS  C:\Users\ADMINI~1\AppData\Local\Temp\cczjWrOu.s 			page 127


 4267 086a 04       		.byte	0x4
 4268 086b 0E       		.uleb128 0xe
 4269 086c 1B120000 		.4byte	.LASF210
 4270 0870 05       		.byte	0x5
 4271 0871 FB03     		.2byte	0x3fb
 4272 0873 EE0C0000 		.4byte	0xcee
 4273 0877 08       		.byte	0x8
 4274 0878 0E       		.uleb128 0xe
 4275 0879 87040000 		.4byte	.LASF211
 4276 087d 05       		.byte	0x5
 4277 087e FD03     		.2byte	0x3fd
 4278 0880 C10D0000 		.4byte	0xdc1
 4279 0884 14       		.byte	0x14
 4280 0885 0E       		.uleb128 0xe
 4281 0886 A6040000 		.4byte	.LASF212
 4282 088a 05       		.byte	0x5
 4283 088b FE03     		.2byte	0x3fe
 4284 088d C10D0000 		.4byte	0xdc1
 4285 0891 18       		.byte	0x18
 4286 0892 0E       		.uleb128 0xe
 4287 0893 16150000 		.4byte	.LASF213
 4288 0897 05       		.byte	0x5
 4289 0898 FF03     		.2byte	0x3ff
 4290 089a A90D0000 		.4byte	0xda9
 4291 089e 1C       		.byte	0x1c
 4292 089f 0E       		.uleb128 0xe
 4293 08a0 1A0C0000 		.4byte	.LASF236
 4294 08a4 05       		.byte	0x5
 4295 08a5 0204     		.2byte	0x402
 4296 08a7 42070000 		.4byte	0x742
 4297 08ab 20       		.byte	0x20
 4298 08ac 00       		.byte	0
 4299 08ad 09       		.uleb128 0x9
 4300 08ae C9110000 		.4byte	.LASF237
 4301 08b2 05       		.byte	0x5
 4302 08b3 D202     		.2byte	0x2d2
 4303 08b5 B9080000 		.4byte	0x8b9
 4304 08b9 0D       		.uleb128 0xd
 4305 08ba 98120000 		.4byte	.LASF238
 4306 08be 28       		.byte	0x28
 4307 08bf 05       		.byte	0x5
 4308 08c0 1104     		.2byte	0x411
 4309 08c2 2E090000 		.4byte	0x92e
 4310 08c6 0E       		.uleb128 0xe
 4311 08c7 760C0000 		.4byte	.LASF208
 4312 08cb 05       		.byte	0x5
 4313 08cc 1404     		.2byte	0x414
 4314 08ce 62010000 		.4byte	0x162
 4315 08d2 00       		.byte	0
 4316 08d3 0E       		.uleb128 0xe
 4317 08d4 5A0C0000 		.4byte	.LASF209
 4318 08d8 05       		.byte	0x5
 4319 08d9 1704     		.2byte	0x417
 4320 08db A90D0000 		.4byte	0xda9
 4321 08df 04       		.byte	0x4
 4322 08e0 0E       		.uleb128 0xe
 4323 08e1 1B120000 		.4byte	.LASF210
ARM GAS  C:\Users\ADMINI~1\AppData\Local\Temp\cczjWrOu.s 			page 128


 4324 08e5 05       		.byte	0x5
 4325 08e6 1904     		.2byte	0x419
 4326 08e8 EE0C0000 		.4byte	0xcee
 4327 08ec 08       		.byte	0x8
 4328 08ed 0E       		.uleb128 0xe
 4329 08ee 87040000 		.4byte	.LASF211
 4330 08f2 05       		.byte	0x5
 4331 08f3 1B04     		.2byte	0x41b
 4332 08f5 C70D0000 		.4byte	0xdc7
 4333 08f9 14       		.byte	0x14
 4334 08fa 0E       		.uleb128 0xe
 4335 08fb A6040000 		.4byte	.LASF212
 4336 08ff 05       		.byte	0x5
 4337 0900 1C04     		.2byte	0x41c
 4338 0902 C70D0000 		.4byte	0xdc7
 4339 0906 18       		.byte	0x18
 4340 0907 0E       		.uleb128 0xe
 4341 0908 16150000 		.4byte	.LASF213
 4342 090c 05       		.byte	0x5
 4343 090d 1D04     		.2byte	0x41d
 4344 090f A90D0000 		.4byte	0xda9
 4345 0913 1C       		.byte	0x1c
 4346 0914 0F       		.uleb128 0xf
 4347 0915 43747200 		.ascii	"Ctr\000"
 4348 0919 05       		.byte	0x5
 4349 091a 2004     		.2byte	0x420
 4350 091c 99010000 		.4byte	0x199
 4351 0920 20       		.byte	0x20
 4352 0921 0F       		.uleb128 0xf
 4353 0922 545300   		.ascii	"TS\000"
 4354 0925 05       		.byte	0x5
 4355 0926 2204     		.2byte	0x422
 4356 0928 E9000000 		.4byte	0xe9
 4357 092c 24       		.byte	0x24
 4358 092d 00       		.byte	0
 4359 092e 09       		.uleb128 0x9
 4360 092f AC140000 		.4byte	.LASF239
 4361 0933 05       		.byte	0x5
 4362 0934 D402     		.2byte	0x2d4
 4363 0936 9E000000 		.4byte	0x9e
 4364 093a 09       		.uleb128 0x9
 4365 093b E0130000 		.4byte	.LASF240
 4366 093f 05       		.byte	0x5
 4367 0940 D902     		.2byte	0x2d9
 4368 0942 46090000 		.4byte	0x946
 4369 0946 0D       		.uleb128 0xd
 4370 0947 19000000 		.4byte	.LASF241
 4371 094b C4       		.byte	0xc4
 4372 094c 05       		.byte	0x5
 4373 094d 5004     		.2byte	0x450
 4374 094f EA0B0000 		.4byte	0xbea
 4375 0953 0E       		.uleb128 0xe
 4376 0954 F50C0000 		.4byte	.LASF242
 4377 0958 05       		.byte	0x5
 4378 0959 5104     		.2byte	0x451
 4379 095b CD0D0000 		.4byte	0xdcd
 4380 095f 00       		.byte	0
ARM GAS  C:\Users\ADMINI~1\AppData\Local\Temp\cczjWrOu.s 			page 129


 4381 0960 0E       		.uleb128 0xe
 4382 0961 2F130000 		.4byte	.LASF243
 4383 0965 05       		.byte	0x5
 4384 0966 5304     		.2byte	0x453
 4385 0968 AF000000 		.4byte	0xaf
 4386 096c 04       		.byte	0x4
 4387 096d 0E       		.uleb128 0xe
 4388 096e 5A0C0000 		.4byte	.LASF209
 4389 0972 05       		.byte	0x5
 4390 0973 5604     		.2byte	0x456
 4391 0975 A90D0000 		.4byte	0xda9
 4392 0979 08       		.byte	0x8
 4393 097a 0E       		.uleb128 0xe
 4394 097b 3B100000 		.4byte	.LASF244
 4395 097f 05       		.byte	0x5
 4396 0980 5A04     		.2byte	0x45a
 4397 0982 CD0D0000 		.4byte	0xdcd
 4398 0986 0C       		.byte	0xc
 4399 0987 0E       		.uleb128 0xe
 4400 0988 E40F0000 		.4byte	.LASF218
 4401 098c 05       		.byte	0x5
 4402 098d 5D04     		.2byte	0x45d
 4403 098f 970D0000 		.4byte	0xd97
 4404 0993 10       		.byte	0x10
 4405 0994 0E       		.uleb128 0xe
 4406 0995 820B0000 		.4byte	.LASF245
 4407 0999 05       		.byte	0x5
 4408 099a 5E04     		.2byte	0x45e
 4409 099c 970D0000 		.4byte	0xd97
 4410 09a0 14       		.byte	0x14
 4411 09a1 0E       		.uleb128 0xe
 4412 09a2 A50E0000 		.4byte	.LASF246
 4413 09a6 05       		.byte	0x5
 4414 09a7 6104     		.2byte	0x461
 4415 09a9 970D0000 		.4byte	0xd97
 4416 09ad 18       		.byte	0x18
 4417 09ae 0E       		.uleb128 0xe
 4418 09af 7F0A0000 		.4byte	.LASF247
 4419 09b3 05       		.byte	0x5
 4420 09b4 6204     		.2byte	0x462
 4421 09b6 970D0000 		.4byte	0xd97
 4422 09ba 1C       		.byte	0x1c
 4423 09bb 0E       		.uleb128 0xe
 4424 09bc 51100000 		.4byte	.LASF248
 4425 09c0 05       		.byte	0x5
 4426 09c1 6404     		.2byte	0x464
 4427 09c3 D30D0000 		.4byte	0xdd3
 4428 09c7 20       		.byte	0x20
 4429 09c8 0E       		.uleb128 0xe
 4430 09c9 AE080000 		.4byte	.LASF249
 4431 09cd 05       		.byte	0x5
 4432 09ce 6804     		.2byte	0x468
 4433 09d0 CD0D0000 		.4byte	0xdcd
 4434 09d4 24       		.byte	0x24
 4435 09d5 0E       		.uleb128 0xe
 4436 09d6 1F0C0000 		.4byte	.LASF250
 4437 09da 05       		.byte	0x5
ARM GAS  C:\Users\ADMINI~1\AppData\Local\Temp\cczjWrOu.s 			page 130


 4438 09db 7004     		.2byte	0x470
 4439 09dd 2E090000 		.4byte	0x92e
 4440 09e1 28       		.byte	0x28
 4441 09e2 0E       		.uleb128 0xe
 4442 09e3 28150000 		.4byte	.LASF251
 4443 09e7 05       		.byte	0x5
 4444 09e8 7104     		.2byte	0x471
 4445 09ea AF000000 		.4byte	0xaf
 4446 09ee 2C       		.byte	0x2c
 4447 09ef 0E       		.uleb128 0xe
 4448 09f0 34120000 		.4byte	.LASF252
 4449 09f4 05       		.byte	0x5
 4450 09f5 7404     		.2byte	0x474
 4451 09f7 9D0D0000 		.4byte	0xd9d
 4452 09fb 30       		.byte	0x30
 4453 09fc 0E       		.uleb128 0xe
 4454 09fd 6B050000 		.4byte	.LASF253
 4455 0a01 05       		.byte	0x5
 4456 0a02 7504     		.2byte	0x475
 4457 0a04 A4010000 		.4byte	0x1a4
 4458 0a08 34       		.byte	0x34
 4459 0a09 0E       		.uleb128 0xe
 4460 0a0a 620C0000 		.4byte	.LASF254
 4461 0a0e 05       		.byte	0x5
 4462 0a0f 7604     		.2byte	0x476
 4463 0a11 AF010000 		.4byte	0x1af
 4464 0a15 35       		.byte	0x35
 4465 0a16 0E       		.uleb128 0xe
 4466 0a17 3A090000 		.4byte	.LASF255
 4467 0a1b 05       		.byte	0x5
 4468 0a1c 7804     		.2byte	0x478
 4469 0a1e A4010000 		.4byte	0x1a4
 4470 0a22 36       		.byte	0x36
 4471 0a23 0E       		.uleb128 0xe
 4472 0a24 99160000 		.4byte	.LASF256
 4473 0a28 05       		.byte	0x5
 4474 0a29 7904     		.2byte	0x479
 4475 0a2b 78010000 		.4byte	0x178
 4476 0a2f 37       		.byte	0x37
 4477 0a30 0E       		.uleb128 0xe
 4478 0a31 EE0A0000 		.4byte	.LASF257
 4479 0a35 05       		.byte	0x5
 4480 0a36 7B04     		.2byte	0x47b
 4481 0a38 78010000 		.4byte	0x178
 4482 0a3c 38       		.byte	0x38
 4483 0a3d 0E       		.uleb128 0xe
 4484 0a3e 2C030000 		.4byte	.LASF258
 4485 0a42 05       		.byte	0x5
 4486 0a43 7C04     		.2byte	0x47c
 4487 0a45 BB0D0000 		.4byte	0xdbb
 4488 0a49 3C       		.byte	0x3c
 4489 0a4a 0E       		.uleb128 0xe
 4490 0a4b A6080000 		.4byte	.LASF259
 4491 0a4f 05       		.byte	0x5
 4492 0a50 8004     		.2byte	0x480
 4493 0a52 C7000000 		.4byte	0xc7
 4494 0a56 40       		.byte	0x40
ARM GAS  C:\Users\ADMINI~1\AppData\Local\Temp\cczjWrOu.s 			page 131


 4495 0a57 0F       		.uleb128 0xf
 4496 0a58 4F707400 		.ascii	"Opt\000"
 4497 0a5c 05       		.byte	0x5
 4498 0a5d 8204     		.2byte	0x482
 4499 0a5f 6D010000 		.4byte	0x16d
 4500 0a63 44       		.byte	0x44
 4501 0a64 0F       		.uleb128 0xf
 4502 0a65 545300   		.ascii	"TS\000"
 4503 0a68 05       		.byte	0x5
 4504 0a69 8804     		.2byte	0x488
 4505 0a6b E9000000 		.4byte	0xe9
 4506 0a6f 48       		.byte	0x48
 4507 0a70 0E       		.uleb128 0xe
 4508 0a71 43120000 		.4byte	.LASF260
 4509 0a75 05       		.byte	0x5
 4510 0a76 8D04     		.2byte	0x48d
 4511 0a78 99010000 		.4byte	0x199
 4512 0a7c 4C       		.byte	0x4c
 4513 0a7d 0E       		.uleb128 0xe
 4514 0a7e 85120000 		.4byte	.LASF261
 4515 0a82 05       		.byte	0x5
 4516 0a83 9104     		.2byte	0x491
 4517 0a85 BA010000 		.4byte	0x1ba
 4518 0a89 50       		.byte	0x50
 4519 0a8a 0E       		.uleb128 0xe
 4520 0a8b 400A0000 		.4byte	.LASF262
 4521 0a8f 05       		.byte	0x5
 4522 0a90 9204     		.2byte	0x492
 4523 0a92 BA010000 		.4byte	0x1ba
 4524 0a96 54       		.byte	0x54
 4525 0a97 0E       		.uleb128 0xe
 4526 0a98 31160000 		.4byte	.LASF219
 4527 0a9c 05       		.byte	0x5
 4528 0a9d 9B04     		.2byte	0x49b
 4529 0a9f AF000000 		.4byte	0xaf
 4530 0aa3 58       		.byte	0x58
 4531 0aa4 0E       		.uleb128 0xe
 4532 0aa5 C3120000 		.4byte	.LASF220
 4533 0aa9 05       		.byte	0x5
 4534 0aaa 9C04     		.2byte	0x49c
 4535 0aac 41010000 		.4byte	0x141
 4536 0ab0 5C       		.byte	0x5c
 4537 0ab1 0E       		.uleb128 0xe
 4538 0ab2 1A0C0000 		.4byte	.LASF236
 4539 0ab6 05       		.byte	0x5
 4540 0ab7 A004     		.2byte	0x4a0
 4541 0ab9 42070000 		.4byte	0x742
 4542 0abd 60       		.byte	0x60
 4543 0abe 0E       		.uleb128 0xe
 4544 0abf 02100000 		.4byte	.LASF263
 4545 0ac3 05       		.byte	0x5
 4546 0ac4 A204     		.2byte	0x4a2
 4547 0ac6 E9000000 		.4byte	0xe9
 4548 0aca 70       		.byte	0x70
 4549 0acb 0E       		.uleb128 0xe
 4550 0acc FC0A0000 		.4byte	.LASF264
 4551 0ad0 05       		.byte	0x5
ARM GAS  C:\Users\ADMINI~1\AppData\Local\Temp\cczjWrOu.s 			page 132


 4552 0ad1 A304     		.2byte	0x4a3
 4553 0ad3 E9000000 		.4byte	0xe9
 4554 0ad7 74       		.byte	0x74
 4555 0ad8 0E       		.uleb128 0xe
 4556 0ad9 8E170000 		.4byte	.LASF265
 4557 0add 05       		.byte	0x5
 4558 0ade A804     		.2byte	0x4a8
 4559 0ae0 D90D0000 		.4byte	0xdd9
 4560 0ae4 78       		.byte	0x78
 4561 0ae5 0E       		.uleb128 0xe
 4562 0ae6 12060000 		.4byte	.LASF266
 4563 0aea 05       		.byte	0x5
 4564 0aeb AC04     		.2byte	0x4ac
 4565 0aed 20010000 		.4byte	0x120
 4566 0af1 7C       		.byte	0x7c
 4567 0af2 0E       		.uleb128 0xe
 4568 0af3 8B0A0000 		.4byte	.LASF267
 4569 0af7 05       		.byte	0x5
 4570 0af8 AD04     		.2byte	0x4ad
 4571 0afa 20010000 		.4byte	0x120
 4572 0afe 80       		.byte	0x80
 4573 0aff 0E       		.uleb128 0xe
 4574 0b00 B0020000 		.4byte	.LASF268
 4575 0b04 05       		.byte	0x5
 4576 0b05 AE04     		.2byte	0x4ae
 4577 0b07 6D010000 		.4byte	0x16d
 4578 0b0b 84       		.byte	0x84
 4579 0b0c 0E       		.uleb128 0xe
 4580 0b0d 4B0E0000 		.4byte	.LASF269
 4581 0b11 05       		.byte	0x5
 4582 0b12 B204     		.2byte	0x4b2
 4583 0b14 4C010000 		.4byte	0x14c
 4584 0b18 86       		.byte	0x86
 4585 0b19 0E       		.uleb128 0xe
 4586 0b1a B7160000 		.4byte	.LASF270
 4587 0b1e 05       		.byte	0x5
 4588 0b1f B604     		.2byte	0x4b6
 4589 0b21 FF000000 		.4byte	0xff
 4590 0b25 88       		.byte	0x88
 4591 0b26 0E       		.uleb128 0xe
 4592 0b27 0F120000 		.4byte	.LASF271
 4593 0b2b 05       		.byte	0x5
 4594 0b2c B704     		.2byte	0x4b7
 4595 0b2e FF000000 		.4byte	0xff
 4596 0b32 8A       		.byte	0x8a
 4597 0b33 0E       		.uleb128 0xe
 4598 0b34 58060000 		.4byte	.LASF272
 4599 0b38 05       		.byte	0x5
 4600 0b39 B804     		.2byte	0x4b8
 4601 0b3b 0A010000 		.4byte	0x10a
 4602 0b3f 8C       		.byte	0x8c
 4603 0b40 0E       		.uleb128 0xe
 4604 0b41 5B0E0000 		.4byte	.LASF273
 4605 0b45 05       		.byte	0x5
 4606 0b46 B904     		.2byte	0x4b9
 4607 0b48 E9000000 		.4byte	0xe9
 4608 0b4c 90       		.byte	0x90
ARM GAS  C:\Users\ADMINI~1\AppData\Local\Temp\cczjWrOu.s 			page 133


 4609 0b4d 0E       		.uleb128 0xe
 4610 0b4e 360D0000 		.4byte	.LASF274
 4611 0b52 05       		.byte	0x5
 4612 0b53 BA04     		.2byte	0x4ba
 4613 0b55 E9000000 		.4byte	0xe9
 4614 0b59 94       		.byte	0x94
 4615 0b5a 0E       		.uleb128 0xe
 4616 0b5b 6D170000 		.4byte	.LASF275
 4617 0b5f 05       		.byte	0x5
 4618 0b60 BB04     		.2byte	0x4bb
 4619 0b62 15010000 		.4byte	0x115
 4620 0b66 98       		.byte	0x98
 4621 0b67 0E       		.uleb128 0xe
 4622 0b68 5C110000 		.4byte	.LASF276
 4623 0b6c 05       		.byte	0x5
 4624 0b6d BC04     		.2byte	0x4bc
 4625 0b6f 15010000 		.4byte	0x115
 4626 0b73 9C       		.byte	0x9c
 4627 0b74 0E       		.uleb128 0xe
 4628 0b75 A70F0000 		.4byte	.LASF277
 4629 0b79 05       		.byte	0x5
 4630 0b7a BE04     		.2byte	0x4be
 4631 0b7c E9000000 		.4byte	0xe9
 4632 0b80 A0       		.byte	0xa0
 4633 0b81 0E       		.uleb128 0xe
 4634 0b82 4D110000 		.4byte	.LASF278
 4635 0b86 05       		.byte	0x5
 4636 0b87 BF04     		.2byte	0x4bf
 4637 0b89 E9000000 		.4byte	0xe9
 4638 0b8d A4       		.byte	0xa4
 4639 0b8e 0E       		.uleb128 0xe
 4640 0b8f 8C070000 		.4byte	.LASF279
 4641 0b93 05       		.byte	0x5
 4642 0b94 C304     		.2byte	0x4c3
 4643 0b96 C7000000 		.4byte	0xc7
 4644 0b9a A8       		.byte	0xa8
 4645 0b9b 0E       		.uleb128 0xe
 4646 0b9c 380A0000 		.4byte	.LASF280
 4647 0ba0 05       		.byte	0x5
 4648 0ba1 C404     		.2byte	0x4c4
 4649 0ba3 C7000000 		.4byte	0xc7
 4650 0ba7 AC       		.byte	0xac
 4651 0ba8 0E       		.uleb128 0xe
 4652 0ba9 27110000 		.4byte	.LASF281
 4653 0bad 05       		.byte	0x5
 4654 0bae C804     		.2byte	0x4c8
 4655 0bb0 E9000000 		.4byte	0xe9
 4656 0bb4 B0       		.byte	0xb0
 4657 0bb5 0E       		.uleb128 0xe
 4658 0bb6 B1040000 		.4byte	.LASF282
 4659 0bba 05       		.byte	0x5
 4660 0bbb CB04     		.2byte	0x4cb
 4661 0bbd E9000000 		.4byte	0xe9
 4662 0bc1 B4       		.byte	0xb4
 4663 0bc2 0E       		.uleb128 0xe
 4664 0bc3 87040000 		.4byte	.LASF211
 4665 0bc7 05       		.byte	0x5
ARM GAS  C:\Users\ADMINI~1\AppData\Local\Temp\cczjWrOu.s 			page 134


 4666 0bc8 CF04     		.2byte	0x4cf
 4667 0bca 970D0000 		.4byte	0xd97
 4668 0bce B8       		.byte	0xb8
 4669 0bcf 0E       		.uleb128 0xe
 4670 0bd0 A6040000 		.4byte	.LASF212
 4671 0bd4 05       		.byte	0x5
 4672 0bd5 D004     		.2byte	0x4d0
 4673 0bd7 970D0000 		.4byte	0xd97
 4674 0bdb BC       		.byte	0xbc
 4675 0bdc 0E       		.uleb128 0xe
 4676 0bdd 16150000 		.4byte	.LASF213
 4677 0be1 05       		.byte	0x5
 4678 0be2 D104     		.2byte	0x4d1
 4679 0be4 A90D0000 		.4byte	0xda9
 4680 0be8 C0       		.byte	0xc0
 4681 0be9 00       		.byte	0
 4682 0bea 09       		.uleb128 0x9
 4683 0beb 59080000 		.4byte	.LASF283
 4684 0bef 05       		.byte	0x5
 4685 0bf0 E502     		.2byte	0x2e5
 4686 0bf2 F60B0000 		.4byte	0xbf6
 4687 0bf6 0D       		.uleb128 0xd
 4688 0bf7 94070000 		.4byte	.LASF284
 4689 0bfb 0C       		.byte	0xc
 4690 0bfc 05       		.byte	0x5
 4691 0bfd 1903     		.2byte	0x319
 4692 0bff 2B0C0000 		.4byte	0xc2b
 4693 0c03 0E       		.uleb128 0xe
 4694 0c04 90120000 		.4byte	.LASF285
 4695 0c08 05       		.byte	0x5
 4696 0c09 1A03     		.2byte	0x31a
 4697 0c0b 970D0000 		.4byte	0xd97
 4698 0c0f 00       		.byte	0
 4699 0c10 0E       		.uleb128 0xe
 4700 0c11 98050000 		.4byte	.LASF286
 4701 0c15 05       		.byte	0x5
 4702 0c16 1B03     		.2byte	0x31b
 4703 0c18 970D0000 		.4byte	0xd97
 4704 0c1c 04       		.byte	0x4
 4705 0c1d 0E       		.uleb128 0xe
 4706 0c1e CA010000 		.4byte	.LASF227
 4707 0c22 05       		.byte	0x5
 4708 0c23 1D03     		.2byte	0x31d
 4709 0c25 57010000 		.4byte	0x157
 4710 0c29 08       		.byte	0x8
 4711 0c2a 00       		.byte	0
 4712 0c2b 09       		.uleb128 0x9
 4713 0c2c 7C110000 		.4byte	.LASF287
 4714 0c30 05       		.byte	0x5
 4715 0c31 E702     		.2byte	0x2e7
 4716 0c33 370C0000 		.4byte	0xc37
 4717 0c37 0D       		.uleb128 0xd
 4718 0c38 EF100000 		.4byte	.LASF288
 4719 0c3c 08       		.byte	0x8
 4720 0c3d 05       		.byte	0x5
 4721 0c3e DF04     		.2byte	0x4df
 4722 0c40 6C0C0000 		.4byte	0xc6c
ARM GAS  C:\Users\ADMINI~1\AppData\Local\Temp\cczjWrOu.s 			page 135


 4723 0c44 0E       		.uleb128 0xe
 4724 0c45 90050000 		.4byte	.LASF289
 4725 0c49 05       		.byte	0x5
 4726 0c4a E004     		.2byte	0x4e0
 4727 0c4c 970D0000 		.4byte	0xd97
 4728 0c50 00       		.byte	0
 4729 0c51 0E       		.uleb128 0xe
 4730 0c52 CA010000 		.4byte	.LASF227
 4731 0c56 05       		.byte	0x5
 4732 0c57 E204     		.2byte	0x4e2
 4733 0c59 57010000 		.4byte	0x157
 4734 0c5d 04       		.byte	0x4
 4735 0c5e 0E       		.uleb128 0xe
 4736 0c5f 37080000 		.4byte	.LASF290
 4737 0c63 05       		.byte	0x5
 4738 0c64 E304     		.2byte	0x4e3
 4739 0c66 57010000 		.4byte	0x157
 4740 0c6a 06       		.byte	0x6
 4741 0c6b 00       		.byte	0
 4742 0c6c 09       		.uleb128 0x9
 4743 0c6d B3070000 		.4byte	.LASF291
 4744 0c71 05       		.byte	0x5
 4745 0c72 EC02     		.2byte	0x2ec
 4746 0c74 780C0000 		.4byte	0xc78
 4747 0c78 0D       		.uleb128 0xd
 4748 0c79 5D160000 		.4byte	.LASF292
 4749 0c7d 20       		.byte	0x20
 4750 0c7e 05       		.byte	0x5
 4751 0c7f 2803     		.2byte	0x328
 4752 0c81 EE0C0000 		.4byte	0xcee
 4753 0c85 0E       		.uleb128 0xe
 4754 0c86 820B0000 		.4byte	.LASF245
 4755 0c8a 05       		.byte	0x5
 4756 0c8b 2903     		.2byte	0x329
 4757 0c8d 9D0D0000 		.4byte	0xd9d
 4758 0c91 00       		.byte	0
 4759 0c92 0E       		.uleb128 0xe
 4760 0c93 E40F0000 		.4byte	.LASF218
 4761 0c97 05       		.byte	0x5
 4762 0c98 2A03     		.2byte	0x32a
 4763 0c9a 9D0D0000 		.4byte	0xd9d
 4764 0c9e 04       		.byte	0x4
 4765 0c9f 0E       		.uleb128 0xe
 4766 0ca0 720D0000 		.4byte	.LASF293
 4767 0ca4 05       		.byte	0x5
 4768 0ca5 2B03     		.2byte	0x32b
 4769 0ca7 970D0000 		.4byte	0xd97
 4770 0cab 08       		.byte	0x8
 4771 0cac 0E       		.uleb128 0xe
 4772 0cad FE160000 		.4byte	.LASF294
 4773 0cb1 05       		.byte	0x5
 4774 0cb2 2C03     		.2byte	0x32c
 4775 0cb4 A30D0000 		.4byte	0xda3
 4776 0cb8 0C       		.byte	0xc
 4777 0cb9 0E       		.uleb128 0xe
 4778 0cba 1D0F0000 		.4byte	.LASF295
 4779 0cbe 05       		.byte	0x5
ARM GAS  C:\Users\ADMINI~1\AppData\Local\Temp\cczjWrOu.s 			page 136


 4780 0cbf 2D03     		.2byte	0x32d
 4781 0cc1 A30D0000 		.4byte	0xda3
 4782 0cc5 10       		.byte	0x10
 4783 0cc6 0E       		.uleb128 0xe
 4784 0cc7 DD050000 		.4byte	.LASF296
 4785 0ccb 05       		.byte	0x5
 4786 0ccc 2E03     		.2byte	0x32e
 4787 0cce AF000000 		.4byte	0xaf
 4788 0cd2 14       		.byte	0x14
 4789 0cd3 0E       		.uleb128 0xe
 4790 0cd4 06110000 		.4byte	.LASF297
 4791 0cd8 05       		.byte	0x5
 4792 0cd9 2F03     		.2byte	0x32f
 4793 0cdb 41010000 		.4byte	0x141
 4794 0cdf 18       		.byte	0x18
 4795 0ce0 0E       		.uleb128 0xe
 4796 0ce1 B9100000 		.4byte	.LASF298
 4797 0ce5 05       		.byte	0x5
 4798 0ce6 3103     		.2byte	0x331
 4799 0ce8 E9000000 		.4byte	0xe9
 4800 0cec 1C       		.byte	0x1c
 4801 0ced 00       		.byte	0
 4802 0cee 09       		.uleb128 0x9
 4803 0cef A5150000 		.4byte	.LASF299
 4804 0cf3 05       		.byte	0x5
 4805 0cf4 ED02     		.2byte	0x2ed
 4806 0cf6 FA0C0000 		.4byte	0xcfa
 4807 0cfa 0D       		.uleb128 0xd
 4808 0cfb 17170000 		.4byte	.LASF300
 4809 0cff 0C       		.byte	0xc
 4810 0d00 05       		.byte	0x5
 4811 0d01 3603     		.2byte	0x336
 4812 0d03 2F0D0000 		.4byte	0xd2f
 4813 0d07 0E       		.uleb128 0xe
 4814 0d08 90120000 		.4byte	.LASF285
 4815 0d0c 05       		.byte	0x5
 4816 0d0d 3703     		.2byte	0x337
 4817 0d0f 9D0D0000 		.4byte	0xd9d
 4818 0d13 00       		.byte	0
 4819 0d14 0E       		.uleb128 0xe
 4820 0d15 98050000 		.4byte	.LASF286
 4821 0d19 05       		.byte	0x5
 4822 0d1a 3803     		.2byte	0x338
 4823 0d1c 9D0D0000 		.4byte	0xd9d
 4824 0d20 04       		.byte	0x4
 4825 0d21 0E       		.uleb128 0xe
 4826 0d22 CA010000 		.4byte	.LASF227
 4827 0d26 05       		.byte	0x5
 4828 0d27 3A03     		.2byte	0x33a
 4829 0d29 57010000 		.4byte	0x157
 4830 0d2d 08       		.byte	0x8
 4831 0d2e 00       		.byte	0
 4832 0d2f 09       		.uleb128 0x9
 4833 0d30 D7110000 		.4byte	.LASF301
 4834 0d34 05       		.byte	0x5
 4835 0d35 EE02     		.2byte	0x2ee
 4836 0d37 3B0D0000 		.4byte	0xd3b
ARM GAS  C:\Users\ADMINI~1\AppData\Local\Temp\cczjWrOu.s 			page 137


 4837 0d3b 0D       		.uleb128 0xd
 4838 0d3c E7050000 		.4byte	.LASF302
 4839 0d40 20       		.byte	0x20
 4840 0d41 05       		.byte	0x5
 4841 0d42 4E03     		.2byte	0x34e
 4842 0d44 970D0000 		.4byte	0xd97
 4843 0d48 0E       		.uleb128 0xe
 4844 0d49 760C0000 		.4byte	.LASF208
 4845 0d4d 05       		.byte	0x5
 4846 0d4e 5003     		.2byte	0x350
 4847 0d50 62010000 		.4byte	0x162
 4848 0d54 00       		.byte	0
 4849 0d55 0E       		.uleb128 0xe
 4850 0d56 5A0C0000 		.4byte	.LASF209
 4851 0d5a 05       		.byte	0x5
 4852 0d5b 5303     		.2byte	0x353
 4853 0d5d A90D0000 		.4byte	0xda9
 4854 0d61 04       		.byte	0x4
 4855 0d62 0E       		.uleb128 0xe
 4856 0d63 1B120000 		.4byte	.LASF210
 4857 0d67 05       		.byte	0x5
 4858 0d68 5503     		.2byte	0x355
 4859 0d6a EE0C0000 		.4byte	0xcee
 4860 0d6e 08       		.byte	0x8
 4861 0d6f 0E       		.uleb128 0xe
 4862 0d70 87040000 		.4byte	.LASF211
 4863 0d74 05       		.byte	0x5
 4864 0d75 5703     		.2byte	0x357
 4865 0d77 AF000000 		.4byte	0xaf
 4866 0d7b 14       		.byte	0x14
 4867 0d7c 0E       		.uleb128 0xe
 4868 0d7d A6040000 		.4byte	.LASF212
 4869 0d81 05       		.byte	0x5
 4870 0d82 5803     		.2byte	0x358
 4871 0d84 AF000000 		.4byte	0xaf
 4872 0d88 18       		.byte	0x18
 4873 0d89 0E       		.uleb128 0xe
 4874 0d8a 16150000 		.4byte	.LASF213
 4875 0d8e 05       		.byte	0x5
 4876 0d8f 5903     		.2byte	0x359
 4877 0d91 A90D0000 		.4byte	0xda9
 4878 0d95 1C       		.byte	0x1c
 4879 0d96 00       		.byte	0
 4880 0d97 05       		.uleb128 0x5
 4881 0d98 04       		.byte	0x4
 4882 0d99 3A090000 		.4byte	0x93a
 4883 0d9d 05       		.uleb128 0x5
 4884 0d9e 04       		.byte	0x4
 4885 0d9f 6C0C0000 		.4byte	0xc6c
 4886 0da3 05       		.uleb128 0x5
 4887 0da4 04       		.byte	0x4
 4888 0da5 2F0D0000 		.4byte	0xd2f
 4889 0da9 05       		.uleb128 0x5
 4890 0daa 04       		.byte	0x4
 4891 0dab 25000000 		.4byte	0x25
 4892 0daf 05       		.uleb128 0x5
 4893 0db0 04       		.byte	0x4
ARM GAS  C:\Users\ADMINI~1\AppData\Local\Temp\cczjWrOu.s 			page 138


 4894 0db1 73060000 		.4byte	0x673
 4895 0db5 05       		.uleb128 0x5
 4896 0db6 04       		.byte	0x4
 4897 0db7 F4060000 		.4byte	0x6f4
 4898 0dbb 05       		.uleb128 0x5
 4899 0dbc 04       		.byte	0x4
 4900 0dbd 9D070000 		.4byte	0x79d
 4901 0dc1 05       		.uleb128 0x5
 4902 0dc2 04       		.byte	0x4
 4903 0dc3 38080000 		.4byte	0x838
 4904 0dc7 05       		.uleb128 0x5
 4905 0dc8 04       		.byte	0x4
 4906 0dc9 AD080000 		.4byte	0x8ad
 4907 0dcd 05       		.uleb128 0x5
 4908 0dce 04       		.byte	0x4
 4909 0dcf BC000000 		.4byte	0xbc
 4910 0dd3 05       		.uleb128 0x5
 4911 0dd4 04       		.byte	0x4
 4912 0dd5 2B0C0000 		.4byte	0xc2b
 4913 0dd9 10       		.uleb128 0x10
 4914 0dda 83010000 		.4byte	0x183
 4915 0dde E90D0000 		.4byte	0xde9
 4916 0de2 11       		.uleb128 0x11
 4917 0de3 E90D0000 		.4byte	0xde9
 4918 0de7 00       		.byte	0
 4919 0de8 00       		.byte	0
 4920 0de9 03       		.uleb128 0x3
 4921 0dea 04       		.byte	0x4
 4922 0deb 07       		.byte	0x7
 4923 0dec 36130000 		.4byte	.LASF303
 4924 0df0 12       		.uleb128 0x12
 4925 0df1 92040000 		.4byte	.LASF306
 4926 0df5 01       		.byte	0x1
 4927 0df6 39       		.byte	0x39
 4928 0df7 00000000 		.4byte	.LFB0
 4929 0dfb AC010000 		.4byte	.LFE0-.LFB0
 4930 0dff 01       		.uleb128 0x1
 4931 0e00 9C       		.byte	0x9c
 4932 0e01 300E0000 		.4byte	0xe30
 4933 0e05 13       		.uleb128 0x13
 4934 0e06 630B0000 		.4byte	.LASF311
 4935 0e0a 01       		.byte	0x1
 4936 0e0b 39       		.byte	0x39
 4937 0e0c 300E0000 		.4byte	0xe30
 4938 0e10 02       		.uleb128 0x2
 4939 0e11 91       		.byte	0x91
 4940 0e12 6C       		.sleb128 -20
 4941 0e13 14       		.uleb128 0x14
 4942 0e14 C4010000 		.4byte	.LASF304
 4943 0e18 01       		.byte	0x1
 4944 0e19 3C       		.byte	0x3c
 4945 0e1a CD0D0000 		.4byte	0xdcd
 4946 0e1e 02       		.uleb128 0x2
 4947 0e1f 91       		.byte	0x91
 4948 0e20 74       		.sleb128 -12
 4949 0e21 14       		.uleb128 0x14
 4950 0e22 6C060000 		.4byte	.LASF305
ARM GAS  C:\Users\ADMINI~1\AppData\Local\Temp\cczjWrOu.s 			page 139


 4951 0e26 01       		.byte	0x1
 4952 0e27 3D       		.byte	0x3d
 4953 0e28 C7000000 		.4byte	0xc7
 4954 0e2c 02       		.uleb128 0x2
 4955 0e2d 91       		.byte	0x91
 4956 0e2e 70       		.sleb128 -16
 4957 0e2f 00       		.byte	0
 4958 0e30 05       		.uleb128 0x5
 4959 0e31 04       		.byte	0x4
 4960 0e32 67060000 		.4byte	0x667
 4961 0e36 15       		.uleb128 0x15
 4962 0e37 61060000 		.4byte	.LASF357
 4963 0e3b 01       		.byte	0x1
 4964 0e3c 1B01     		.2byte	0x11b
 4965 0e3e 00000000 		.4byte	.LFB1
 4966 0e42 34000000 		.4byte	.LFE1-.LFB1
 4967 0e46 01       		.uleb128 0x1
 4968 0e47 9C       		.byte	0x9c
 4969 0e48 16       		.uleb128 0x16
 4970 0e49 47100000 		.4byte	.LASF307
 4971 0e4d 01       		.byte	0x1
 4972 0e4e 3D01     		.2byte	0x13d
 4973 0e50 00000000 		.4byte	.LFB2
 4974 0e54 E4000000 		.4byte	.LFE2-.LFB2
 4975 0e58 01       		.uleb128 0x1
 4976 0e59 9C       		.byte	0x9c
 4977 0e5a 6E0E0000 		.4byte	0xe6e
 4978 0e5e 17       		.uleb128 0x17
 4979 0e5f 19070000 		.4byte	.LASF308
 4980 0e63 01       		.byte	0x1
 4981 0e64 4201     		.2byte	0x142
 4982 0e66 D2000000 		.4byte	0xd2
 4983 0e6a 02       		.uleb128 0x2
 4984 0e6b 91       		.byte	0x91
 4985 0e6c 74       		.sleb128 -12
 4986 0e6d 00       		.byte	0
 4987 0e6e 16       		.uleb128 0x16
 4988 0e6f 1B140000 		.4byte	.LASF309
 4989 0e73 01       		.byte	0x1
 4990 0e74 B401     		.2byte	0x1b4
 4991 0e76 00000000 		.4byte	.LFB3
 4992 0e7a AC000000 		.4byte	.LFE3-.LFB3
 4993 0e7e 01       		.uleb128 0x1
 4994 0e7f 9C       		.byte	0x9c
 4995 0e80 940E0000 		.4byte	0xe94
 4996 0e84 17       		.uleb128 0x17
 4997 0e85 19070000 		.4byte	.LASF308
 4998 0e89 01       		.byte	0x1
 4999 0e8a B601     		.2byte	0x1b6
 5000 0e8c D2000000 		.4byte	0xd2
 5001 0e90 02       		.uleb128 0x2
 5002 0e91 91       		.byte	0x91
 5003 0e92 74       		.sleb128 -12
 5004 0e93 00       		.byte	0
 5005 0e94 16       		.uleb128 0x16
 5006 0e95 FD0B0000 		.4byte	.LASF310
 5007 0e99 01       		.byte	0x1
ARM GAS  C:\Users\ADMINI~1\AppData\Local\Temp\cczjWrOu.s 			page 140


 5008 0e9a 2102     		.2byte	0x221
 5009 0e9c 00000000 		.4byte	.LFB4
 5010 0ea0 88000000 		.4byte	.LFE4-.LFB4
 5011 0ea4 01       		.uleb128 0x1
 5012 0ea5 9C       		.byte	0x9c
 5013 0ea6 C90E0000 		.4byte	0xec9
 5014 0eaa 18       		.uleb128 0x18
 5015 0eab 630B0000 		.4byte	.LASF311
 5016 0eaf 01       		.byte	0x1
 5017 0eb0 2102     		.2byte	0x221
 5018 0eb2 300E0000 		.4byte	0xe30
 5019 0eb6 02       		.uleb128 0x2
 5020 0eb7 91       		.byte	0x91
 5021 0eb8 6C       		.sleb128 -20
 5022 0eb9 17       		.uleb128 0x17
 5023 0eba 19070000 		.4byte	.LASF308
 5024 0ebe 01       		.byte	0x1
 5025 0ebf 2302     		.2byte	0x223
 5026 0ec1 D2000000 		.4byte	0xd2
 5027 0ec5 02       		.uleb128 0x2
 5028 0ec6 91       		.byte	0x91
 5029 0ec7 74       		.sleb128 -12
 5030 0ec8 00       		.byte	0
 5031 0ec9 16       		.uleb128 0x16
 5032 0eca 420D0000 		.4byte	.LASF312
 5033 0ece 01       		.byte	0x1
 5034 0ecf 5E02     		.2byte	0x25e
 5035 0ed1 00000000 		.4byte	.LFB5
 5036 0ed5 AC000000 		.4byte	.LFE5-.LFB5
 5037 0ed9 01       		.uleb128 0x1
 5038 0eda 9C       		.byte	0x9c
 5039 0edb FE0E0000 		.4byte	0xefe
 5040 0edf 18       		.uleb128 0x18
 5041 0ee0 630B0000 		.4byte	.LASF311
 5042 0ee4 01       		.byte	0x1
 5043 0ee5 5E02     		.2byte	0x25e
 5044 0ee7 300E0000 		.4byte	0xe30
 5045 0eeb 02       		.uleb128 0x2
 5046 0eec 91       		.byte	0x91
 5047 0eed 6C       		.sleb128 -20
 5048 0eee 17       		.uleb128 0x17
 5049 0eef 19070000 		.4byte	.LASF308
 5050 0ef3 01       		.byte	0x1
 5051 0ef4 6002     		.2byte	0x260
 5052 0ef6 D2000000 		.4byte	0xd2
 5053 0efa 02       		.uleb128 0x2
 5054 0efb 91       		.byte	0x91
 5055 0efc 74       		.sleb128 -12
 5056 0efd 00       		.byte	0
 5057 0efe 16       		.uleb128 0x16
 5058 0eff 80140000 		.4byte	.LASF313
 5059 0f03 01       		.byte	0x1
 5060 0f04 2B03     		.2byte	0x32b
 5061 0f06 00000000 		.4byte	.LFB6
 5062 0f0a F8000000 		.4byte	.LFE6-.LFB6
 5063 0f0e 01       		.uleb128 0x1
 5064 0f0f 9C       		.byte	0x9c
ARM GAS  C:\Users\ADMINI~1\AppData\Local\Temp\cczjWrOu.s 			page 141


 5065 0f10 330F0000 		.4byte	0xf33
 5066 0f14 18       		.uleb128 0x18
 5067 0f15 630B0000 		.4byte	.LASF311
 5068 0f19 01       		.byte	0x1
 5069 0f1a 2B03     		.2byte	0x32b
 5070 0f1c 300E0000 		.4byte	0xe30
 5071 0f20 02       		.uleb128 0x2
 5072 0f21 91       		.byte	0x91
 5073 0f22 6C       		.sleb128 -20
 5074 0f23 17       		.uleb128 0x17
 5075 0f24 B8140000 		.4byte	.LASF314
 5076 0f28 01       		.byte	0x1
 5077 0f29 2D03     		.2byte	0x32d
 5078 0f2b 57010000 		.4byte	0x157
 5079 0f2f 02       		.uleb128 0x2
 5080 0f30 91       		.byte	0x91
 5081 0f31 76       		.sleb128 -10
 5082 0f32 00       		.byte	0
 5083 0f33 19       		.uleb128 0x19
 5084 0f34 C0160000 		.4byte	.LASF398
 5085 0f38 01       		.byte	0x1
 5086 0f39 6F03     		.2byte	0x36f
 5087 0f3b 50000000 		.4byte	0x50
 5088 0f3f 00000000 		.4byte	.LFB7
 5089 0f43 1C000000 		.4byte	.LFE7-.LFB7
 5090 0f47 01       		.uleb128 0x1
 5091 0f48 9C       		.byte	0x9c
 5092 0f49 5D0F0000 		.4byte	0xf5d
 5093 0f4d 18       		.uleb128 0x18
 5094 0f4e 630B0000 		.4byte	.LASF311
 5095 0f52 01       		.byte	0x1
 5096 0f53 6F03     		.2byte	0x36f
 5097 0f55 300E0000 		.4byte	0xe30
 5098 0f59 02       		.uleb128 0x2
 5099 0f5a 91       		.byte	0x91
 5100 0f5b 74       		.sleb128 -12
 5101 0f5c 00       		.byte	0
 5102 0f5d 16       		.uleb128 0x16
 5103 0f5e 82020000 		.4byte	.LASF315
 5104 0f62 01       		.byte	0x1
 5105 0f63 9303     		.2byte	0x393
 5106 0f65 00000000 		.4byte	.LFB8
 5107 0f69 44000000 		.4byte	.LFE8-.LFB8
 5108 0f6d 01       		.uleb128 0x1
 5109 0f6e 9C       		.byte	0x9c
 5110 0f6f 920F0000 		.4byte	0xf92
 5111 0f73 18       		.uleb128 0x18
 5112 0f74 29130000 		.4byte	.LASF316
 5113 0f78 01       		.byte	0x1
 5114 0f79 9303     		.2byte	0x393
 5115 0f7b AF000000 		.4byte	0xaf
 5116 0f7f 02       		.uleb128 0x2
 5117 0f80 91       		.byte	0x91
 5118 0f81 6C       		.sleb128 -20
 5119 0f82 17       		.uleb128 0x17
 5120 0f83 19070000 		.4byte	.LASF308
 5121 0f87 01       		.byte	0x1
ARM GAS  C:\Users\ADMINI~1\AppData\Local\Temp\cczjWrOu.s 			page 142


 5122 0f88 9603     		.2byte	0x396
 5123 0f8a D2000000 		.4byte	0xd2
 5124 0f8e 02       		.uleb128 0x2
 5125 0f8f 91       		.byte	0x91
 5126 0f90 74       		.sleb128 -12
 5127 0f91 00       		.byte	0
 5128 0f92 16       		.uleb128 0x16
 5129 0f93 06080000 		.4byte	.LASF317
 5130 0f97 01       		.byte	0x1
 5131 0f98 BD03     		.2byte	0x3bd
 5132 0f9a 00000000 		.4byte	.LFB9
 5133 0f9e 70000000 		.4byte	.LFE9-.LFB9
 5134 0fa2 01       		.uleb128 0x1
 5135 0fa3 9C       		.byte	0x9c
 5136 0fa4 B80F0000 		.4byte	0xfb8
 5137 0fa8 18       		.uleb128 0x18
 5138 0fa9 630B0000 		.4byte	.LASF311
 5139 0fad 01       		.byte	0x1
 5140 0fae BD03     		.2byte	0x3bd
 5141 0fb0 300E0000 		.4byte	0xe30
 5142 0fb4 02       		.uleb128 0x2
 5143 0fb5 91       		.byte	0x91
 5144 0fb6 64       		.sleb128 -28
 5145 0fb7 00       		.byte	0
 5146 0fb8 16       		.uleb128 0x16
 5147 0fb9 3E060000 		.4byte	.LASF318
 5148 0fbd 01       		.byte	0x1
 5149 0fbe F103     		.2byte	0x3f1
 5150 0fc0 00000000 		.4byte	.LFB10
 5151 0fc4 84000000 		.4byte	.LFE10-.LFB10
 5152 0fc8 01       		.uleb128 0x1
 5153 0fc9 9C       		.byte	0x9c
 5154 0fca 1A100000 		.4byte	0x101a
 5155 0fce 18       		.uleb128 0x18
 5156 0fcf 760B0000 		.4byte	.LASF319
 5157 0fd3 01       		.byte	0x1
 5158 0fd4 F103     		.2byte	0x3f1
 5159 0fd6 9D0D0000 		.4byte	0xd9d
 5160 0fda 02       		.uleb128 0x2
 5161 0fdb 91       		.byte	0x91
 5162 0fdc 6C       		.sleb128 -20
 5163 0fdd 18       		.uleb128 0x18
 5164 0fde 8A080000 		.4byte	.LASF320
 5165 0fe2 01       		.byte	0x1
 5166 0fe3 F203     		.2byte	0x3f2
 5167 0fe5 A30D0000 		.4byte	0xda3
 5168 0fe9 02       		.uleb128 0x2
 5169 0fea 91       		.byte	0x91
 5170 0feb 68       		.sleb128 -24
 5171 0fec 18       		.uleb128 0x18
 5172 0fed D2050000 		.4byte	.LASF321
 5173 0ff1 01       		.byte	0x1
 5174 0ff2 F303     		.2byte	0x3f3
 5175 0ff4 A4010000 		.4byte	0x1a4
 5176 0ff8 02       		.uleb128 0x2
 5177 0ff9 91       		.byte	0x91
 5178 0ffa 67       		.sleb128 -25
ARM GAS  C:\Users\ADMINI~1\AppData\Local\Temp\cczjWrOu.s 			page 143


 5179 0ffb 18       		.uleb128 0x18
 5180 0ffc 9D140000 		.4byte	.LASF322
 5181 1000 01       		.byte	0x1
 5182 1001 F403     		.2byte	0x3f4
 5183 1003 BA010000 		.4byte	0x1ba
 5184 1007 02       		.uleb128 0x2
 5185 1008 91       		.byte	0x91
 5186 1009 60       		.sleb128 -32
 5187 100a 17       		.uleb128 0x17
 5188 100b 46050000 		.4byte	.LASF323
 5189 100f 01       		.byte	0x1
 5190 1010 F603     		.2byte	0x3f6
 5191 1012 1A100000 		.4byte	0x101a
 5192 1016 02       		.uleb128 0x2
 5193 1017 91       		.byte	0x91
 5194 1018 74       		.sleb128 -12
 5195 1019 00       		.byte	0
 5196 101a 05       		.uleb128 0x5
 5197 101b 04       		.byte	0x4
 5198 101c EE0C0000 		.4byte	0xcee
 5199 1020 16       		.uleb128 0x16
 5200 1021 A3020000 		.4byte	.LASF324
 5201 1025 01       		.byte	0x1
 5202 1026 2904     		.2byte	0x429
 5203 1028 00000000 		.4byte	.LFB11
 5204 102c D0000000 		.4byte	.LFE11-.LFB11
 5205 1030 01       		.uleb128 0x1
 5206 1031 9C       		.byte	0x9c
 5207 1032 63100000 		.4byte	0x1063
 5208 1036 18       		.uleb128 0x18
 5209 1037 8A080000 		.4byte	.LASF320
 5210 103b 01       		.byte	0x1
 5211 103c 2904     		.2byte	0x429
 5212 103e A30D0000 		.4byte	0xda3
 5213 1042 02       		.uleb128 0x2
 5214 1043 91       		.byte	0x91
 5215 1044 74       		.sleb128 -12
 5216 1045 18       		.uleb128 0x18
 5217 1046 FC0C0000 		.4byte	.LASF325
 5218 104a 01       		.byte	0x1
 5219 104b 2A04     		.2byte	0x42a
 5220 104d 970D0000 		.4byte	0xd97
 5221 1051 02       		.uleb128 0x2
 5222 1052 91       		.byte	0x91
 5223 1053 70       		.sleb128 -16
 5224 1054 1A       		.uleb128 0x1a
 5225 1055 747300   		.ascii	"ts\000"
 5226 1058 01       		.byte	0x1
 5227 1059 2B04     		.2byte	0x42b
 5228 105b E9000000 		.4byte	0xe9
 5229 105f 02       		.uleb128 0x2
 5230 1060 91       		.byte	0x91
 5231 1061 6C       		.sleb128 -20
 5232 1062 00       		.byte	0
 5233 1063 1B       		.uleb128 0x1b
 5234 1064 D6040000 		.4byte	.LASF326
 5235 1068 01       		.byte	0x1
ARM GAS  C:\Users\ADMINI~1\AppData\Local\Temp\cczjWrOu.s 			page 144


 5236 1069 EE04     		.2byte	0x4ee
 5237 106b 00000000 		.4byte	.LFB12
 5238 106f 46000000 		.4byte	.LFE12-.LFB12
 5239 1073 01       		.uleb128 0x1
 5240 1074 9C       		.byte	0x9c
 5241 1075 A7100000 		.4byte	0x10a7
 5242 1079 18       		.uleb128 0x18
 5243 107a FC0C0000 		.4byte	.LASF325
 5244 107e 01       		.byte	0x1
 5245 107f EE04     		.2byte	0x4ee
 5246 1081 970D0000 		.4byte	0xd97
 5247 1085 02       		.uleb128 0x2
 5248 1086 91       		.byte	0x91
 5249 1087 74       		.sleb128 -12
 5250 1088 18       		.uleb128 0x18
 5251 1089 270F0000 		.4byte	.LASF327
 5252 108d 01       		.byte	0x1
 5253 108e EF04     		.2byte	0x4ef
 5254 1090 9D0D0000 		.4byte	0xd9d
 5255 1094 02       		.uleb128 0x2
 5256 1095 91       		.byte	0x91
 5257 1096 70       		.sleb128 -16
 5258 1097 18       		.uleb128 0x18
 5259 1098 DB0F0000 		.4byte	.LASF328
 5260 109c 01       		.byte	0x1
 5261 109d F004     		.2byte	0x4f0
 5262 109f 57010000 		.4byte	0x157
 5263 10a3 02       		.uleb128 0x2
 5264 10a4 91       		.byte	0x91
 5265 10a5 6E       		.sleb128 -18
 5266 10a6 00       		.byte	0
 5267 10a7 1B       		.uleb128 0x1b
 5268 10a8 CE0C0000 		.4byte	.LASF329
 5269 10ac 01       		.byte	0x1
 5270 10ad 2C05     		.2byte	0x52c
 5271 10af 00000000 		.4byte	.LFB13
 5272 10b3 78000000 		.4byte	.LFE13-.LFB13
 5273 10b7 01       		.uleb128 0x1
 5274 10b8 9C       		.byte	0x9c
 5275 10b9 09110000 		.4byte	0x1109
 5276 10bd 18       		.uleb128 0x18
 5277 10be 8A080000 		.4byte	.LASF320
 5278 10c2 01       		.byte	0x1
 5279 10c3 2C05     		.2byte	0x52c
 5280 10c5 A30D0000 		.4byte	0xda3
 5281 10c9 02       		.uleb128 0x2
 5282 10ca 91       		.byte	0x91
 5283 10cb 64       		.sleb128 -28
 5284 10cc 18       		.uleb128 0x18
 5285 10cd FC0C0000 		.4byte	.LASF325
 5286 10d1 01       		.byte	0x1
 5287 10d2 2D05     		.2byte	0x52d
 5288 10d4 970D0000 		.4byte	0xd97
 5289 10d8 02       		.uleb128 0x2
 5290 10d9 91       		.byte	0x91
 5291 10da 60       		.sleb128 -32
 5292 10db 17       		.uleb128 0x17
ARM GAS  C:\Users\ADMINI~1\AppData\Local\Temp\cczjWrOu.s 			page 145


 5293 10dc 46050000 		.4byte	.LASF323
 5294 10e0 01       		.byte	0x1
 5295 10e1 2F05     		.2byte	0x52f
 5296 10e3 1A100000 		.4byte	0x101a
 5297 10e7 02       		.uleb128 0x2
 5298 10e8 91       		.byte	0x91
 5299 10e9 74       		.sleb128 -12
 5300 10ea 17       		.uleb128 0x17
 5301 10eb 760B0000 		.4byte	.LASF319
 5302 10ef 01       		.byte	0x1
 5303 10f0 3005     		.2byte	0x530
 5304 10f2 9D0D0000 		.4byte	0xd9d
 5305 10f6 02       		.uleb128 0x2
 5306 10f7 91       		.byte	0x91
 5307 10f8 70       		.sleb128 -16
 5308 10f9 17       		.uleb128 0x17
 5309 10fa 43150000 		.4byte	.LASF330
 5310 10fe 01       		.byte	0x1
 5311 10ff 3105     		.2byte	0x531
 5312 1101 970D0000 		.4byte	0xd97
 5313 1105 02       		.uleb128 0x2
 5314 1106 91       		.byte	0x91
 5315 1107 6C       		.sleb128 -20
 5316 1108 00       		.byte	0
 5317 1109 1B       		.uleb128 0x1b
 5318 110a 8E020000 		.4byte	.LASF331
 5319 110e 01       		.byte	0x1
 5320 110f 4D05     		.2byte	0x54d
 5321 1111 00000000 		.4byte	.LFB14
 5322 1115 48000000 		.4byte	.LFE14-.LFB14
 5323 1119 01       		.uleb128 0x1
 5324 111a 9C       		.byte	0x9c
 5325 111b 6B110000 		.4byte	0x116b
 5326 111f 18       		.uleb128 0x18
 5327 1120 8A080000 		.4byte	.LASF320
 5328 1124 01       		.byte	0x1
 5329 1125 4D05     		.2byte	0x54d
 5330 1127 A30D0000 		.4byte	0xda3
 5331 112b 02       		.uleb128 0x2
 5332 112c 91       		.byte	0x91
 5333 112d 64       		.sleb128 -28
 5334 112e 18       		.uleb128 0x18
 5335 112f FC0C0000 		.4byte	.LASF325
 5336 1133 01       		.byte	0x1
 5337 1134 4E05     		.2byte	0x54e
 5338 1136 970D0000 		.4byte	0xd97
 5339 113a 02       		.uleb128 0x2
 5340 113b 91       		.byte	0x91
 5341 113c 60       		.sleb128 -32
 5342 113d 17       		.uleb128 0x17
 5343 113e 46050000 		.4byte	.LASF323
 5344 1142 01       		.byte	0x1
 5345 1143 5005     		.2byte	0x550
 5346 1145 1A100000 		.4byte	0x101a
 5347 1149 02       		.uleb128 0x2
 5348 114a 91       		.byte	0x91
 5349 114b 74       		.sleb128 -12
ARM GAS  C:\Users\ADMINI~1\AppData\Local\Temp\cczjWrOu.s 			page 146


 5350 114c 17       		.uleb128 0x17
 5351 114d 760B0000 		.4byte	.LASF319
 5352 1151 01       		.byte	0x1
 5353 1152 5105     		.2byte	0x551
 5354 1154 9D0D0000 		.4byte	0xd9d
 5355 1158 02       		.uleb128 0x2
 5356 1159 91       		.byte	0x91
 5357 115a 70       		.sleb128 -16
 5358 115b 17       		.uleb128 0x17
 5359 115c 43150000 		.4byte	.LASF330
 5360 1160 01       		.byte	0x1
 5361 1161 5205     		.2byte	0x552
 5362 1163 970D0000 		.4byte	0xd97
 5363 1167 02       		.uleb128 0x2
 5364 1168 91       		.byte	0x91
 5365 1169 6C       		.sleb128 -20
 5366 116a 00       		.byte	0
 5367 116b 16       		.uleb128 0x16
 5368 116c 90080000 		.4byte	.LASF332
 5369 1170 01       		.byte	0x1
 5370 1171 B105     		.2byte	0x5b1
 5371 1173 00000000 		.4byte	.LFB15
 5372 1177 6C000000 		.4byte	.LFE15-.LFB15
 5373 117b 01       		.uleb128 0x1
 5374 117c 9C       		.byte	0x9c
 5375 117d CD110000 		.4byte	0x11cd
 5376 1181 18       		.uleb128 0x18
 5377 1182 FC0C0000 		.4byte	.LASF325
 5378 1186 01       		.byte	0x1
 5379 1187 B105     		.2byte	0x5b1
 5380 1189 970D0000 		.4byte	0xd97
 5381 118d 02       		.uleb128 0x2
 5382 118e 91       		.byte	0x91
 5383 118f 64       		.sleb128 -28
 5384 1190 17       		.uleb128 0x17
 5385 1191 660D0000 		.4byte	.LASF333
 5386 1195 01       		.byte	0x1
 5387 1196 B305     		.2byte	0x5b3
 5388 1198 57010000 		.4byte	0x157
 5389 119c 02       		.uleb128 0x2
 5390 119d 91       		.byte	0x91
 5391 119e 76       		.sleb128 -10
 5392 119f 17       		.uleb128 0x17
 5393 11a0 760B0000 		.4byte	.LASF319
 5394 11a4 01       		.byte	0x1
 5395 11a5 B405     		.2byte	0x5b4
 5396 11a7 9D0D0000 		.4byte	0xd9d
 5397 11ab 02       		.uleb128 0x2
 5398 11ac 91       		.byte	0x91
 5399 11ad 70       		.sleb128 -16
 5400 11ae 17       		.uleb128 0x17
 5401 11af 46050000 		.4byte	.LASF323
 5402 11b3 01       		.byte	0x1
 5403 11b4 B505     		.2byte	0x5b5
 5404 11b6 1A100000 		.4byte	0x101a
 5405 11ba 02       		.uleb128 0x2
 5406 11bb 91       		.byte	0x91
ARM GAS  C:\Users\ADMINI~1\AppData\Local\Temp\cczjWrOu.s 			page 147


 5407 11bc 68       		.sleb128 -24
 5408 11bd 17       		.uleb128 0x17
 5409 11be 8A080000 		.4byte	.LASF320
 5410 11c2 01       		.byte	0x1
 5411 11c3 B605     		.2byte	0x5b6
 5412 11c5 A30D0000 		.4byte	0xda3
 5413 11c9 02       		.uleb128 0x2
 5414 11ca 91       		.byte	0x91
 5415 11cb 6C       		.sleb128 -20
 5416 11cc 00       		.byte	0
 5417 11cd 1B       		.uleb128 0x1b
 5418 11ce E6040000 		.4byte	.LASF334
 5419 11d2 01       		.byte	0x1
 5420 11d3 DE05     		.2byte	0x5de
 5421 11d5 00000000 		.4byte	.LFB16
 5422 11d9 22000000 		.4byte	.LFE16-.LFB16
 5423 11dd 01       		.uleb128 0x1
 5424 11de 9C       		.byte	0x9c
 5425 11df F3110000 		.4byte	0x11f3
 5426 11e3 18       		.uleb128 0x18
 5427 11e4 46050000 		.4byte	.LASF323
 5428 11e8 01       		.byte	0x1
 5429 11e9 DE05     		.2byte	0x5de
 5430 11eb 1A100000 		.4byte	0x101a
 5431 11ef 02       		.uleb128 0x2
 5432 11f0 91       		.byte	0x91
 5433 11f1 74       		.sleb128 -12
 5434 11f2 00       		.byte	0
 5435 11f3 1B       		.uleb128 0x1b
 5436 11f4 DF090000 		.4byte	.LASF335
 5437 11f8 01       		.byte	0x1
 5438 11f9 2B06     		.2byte	0x62b
 5439 11fb 00000000 		.4byte	.LFB17
 5440 11ff EC000000 		.4byte	.LFE17-.LFB17
 5441 1203 01       		.uleb128 0x1
 5442 1204 9C       		.byte	0x9c
 5443 1205 73120000 		.4byte	0x1273
 5444 1209 18       		.uleb128 0x18
 5445 120a 46050000 		.4byte	.LASF323
 5446 120e 01       		.byte	0x1
 5447 120f 2B06     		.2byte	0x62b
 5448 1211 1A100000 		.4byte	0x101a
 5449 1215 02       		.uleb128 0x2
 5450 1216 91       		.byte	0x91
 5451 1217 5C       		.sleb128 -36
 5452 1218 18       		.uleb128 0x18
 5453 1219 760B0000 		.4byte	.LASF319
 5454 121d 01       		.byte	0x1
 5455 121e 2C06     		.2byte	0x62c
 5456 1220 9D0D0000 		.4byte	0xd9d
 5457 1224 02       		.uleb128 0x2
 5458 1225 91       		.byte	0x91
 5459 1226 58       		.sleb128 -40
 5460 1227 17       		.uleb128 0x17
 5461 1228 A20F0000 		.4byte	.LASF336
 5462 122c 01       		.byte	0x1
 5463 122d 2E06     		.2byte	0x62e
ARM GAS  C:\Users\ADMINI~1\AppData\Local\Temp\cczjWrOu.s 			page 148


 5464 122f 78010000 		.4byte	0x178
 5465 1233 02       		.uleb128 0x2
 5466 1234 91       		.byte	0x91
 5467 1235 6F       		.sleb128 -17
 5468 1236 17       		.uleb128 0x17
 5469 1237 FC0C0000 		.4byte	.LASF325
 5470 123b 01       		.byte	0x1
 5471 123c 2F06     		.2byte	0x62f
 5472 123e 970D0000 		.4byte	0xd97
 5473 1242 02       		.uleb128 0x2
 5474 1243 91       		.byte	0x91
 5475 1244 70       		.sleb128 -16
 5476 1245 17       		.uleb128 0x17
 5477 1246 89060000 		.4byte	.LASF337
 5478 124a 01       		.byte	0x1
 5479 124b 3006     		.2byte	0x630
 5480 124d 970D0000 		.4byte	0xd97
 5481 1251 02       		.uleb128 0x2
 5482 1252 91       		.byte	0x91
 5483 1253 68       		.sleb128 -24
 5484 1254 17       		.uleb128 0x17
 5485 1255 AC0A0000 		.4byte	.LASF338
 5486 1259 01       		.byte	0x1
 5487 125a 3106     		.2byte	0x631
 5488 125c 9D0D0000 		.4byte	0xd9d
 5489 1260 02       		.uleb128 0x2
 5490 1261 91       		.byte	0x91
 5491 1262 64       		.sleb128 -28
 5492 1263 17       		.uleb128 0x17
 5493 1264 C70E0000 		.4byte	.LASF339
 5494 1268 01       		.byte	0x1
 5495 1269 3206     		.2byte	0x632
 5496 126b 9D0D0000 		.4byte	0xd9d
 5497 126f 02       		.uleb128 0x2
 5498 1270 91       		.byte	0x91
 5499 1271 74       		.sleb128 -12
 5500 1272 00       		.byte	0
 5501 1273 16       		.uleb128 0x16
 5502 1274 04030000 		.4byte	.LASF340
 5503 1278 01       		.byte	0x1
 5504 1279 9606     		.2byte	0x696
 5505 127b 00000000 		.4byte	.LFB18
 5506 127f 64000000 		.4byte	.LFE18-.LFB18
 5507 1283 01       		.uleb128 0x1
 5508 1284 9C       		.byte	0x9c
 5509 1285 D5120000 		.4byte	0x12d5
 5510 1289 18       		.uleb128 0x18
 5511 128a FC0C0000 		.4byte	.LASF325
 5512 128e 01       		.byte	0x1
 5513 128f 9606     		.2byte	0x696
 5514 1291 970D0000 		.4byte	0xd97
 5515 1295 02       		.uleb128 0x2
 5516 1296 91       		.byte	0x91
 5517 1297 64       		.sleb128 -28
 5518 1298 17       		.uleb128 0x17
 5519 1299 660D0000 		.4byte	.LASF333
 5520 129d 01       		.byte	0x1
ARM GAS  C:\Users\ADMINI~1\AppData\Local\Temp\cczjWrOu.s 			page 149


 5521 129e 9806     		.2byte	0x698
 5522 12a0 57010000 		.4byte	0x157
 5523 12a4 02       		.uleb128 0x2
 5524 12a5 91       		.byte	0x91
 5525 12a6 76       		.sleb128 -10
 5526 12a7 17       		.uleb128 0x17
 5527 12a8 760B0000 		.4byte	.LASF319
 5528 12ac 01       		.byte	0x1
 5529 12ad 9906     		.2byte	0x699
 5530 12af 9D0D0000 		.4byte	0xd9d
 5531 12b3 02       		.uleb128 0x2
 5532 12b4 91       		.byte	0x91
 5533 12b5 70       		.sleb128 -16
 5534 12b6 17       		.uleb128 0x17
 5535 12b7 46050000 		.4byte	.LASF323
 5536 12bb 01       		.byte	0x1
 5537 12bc 9A06     		.2byte	0x69a
 5538 12be 1A100000 		.4byte	0x101a
 5539 12c2 02       		.uleb128 0x2
 5540 12c3 91       		.byte	0x91
 5541 12c4 68       		.sleb128 -24
 5542 12c5 17       		.uleb128 0x17
 5543 12c6 8A080000 		.4byte	.LASF320
 5544 12ca 01       		.byte	0x1
 5545 12cb 9B06     		.2byte	0x69b
 5546 12cd A30D0000 		.4byte	0xda3
 5547 12d1 02       		.uleb128 0x2
 5548 12d2 91       		.byte	0x91
 5549 12d3 6C       		.sleb128 -20
 5550 12d4 00       		.byte	0
 5551 12d5 1B       		.uleb128 0x1b
 5552 12d6 C3150000 		.4byte	.LASF341
 5553 12da 01       		.byte	0x1
 5554 12db E906     		.2byte	0x6e9
 5555 12dd 00000000 		.4byte	.LFB19
 5556 12e1 92000000 		.4byte	.LFE19-.LFB19
 5557 12e5 01       		.uleb128 0x1
 5558 12e6 9C       		.byte	0x9c
 5559 12e7 28130000 		.4byte	0x1328
 5560 12eb 18       		.uleb128 0x18
 5561 12ec 46050000 		.4byte	.LASF323
 5562 12f0 01       		.byte	0x1
 5563 12f1 E906     		.2byte	0x6e9
 5564 12f3 1A100000 		.4byte	0x101a
 5565 12f7 02       		.uleb128 0x2
 5566 12f8 91       		.byte	0x91
 5567 12f9 6C       		.sleb128 -20
 5568 12fa 18       		.uleb128 0x18
 5569 12fb 760B0000 		.4byte	.LASF319
 5570 12ff 01       		.byte	0x1
 5571 1300 EA06     		.2byte	0x6ea
 5572 1302 9D0D0000 		.4byte	0xd9d
 5573 1306 02       		.uleb128 0x2
 5574 1307 91       		.byte	0x91
 5575 1308 68       		.sleb128 -24
 5576 1309 17       		.uleb128 0x17
 5577 130a 7B0C0000 		.4byte	.LASF342
ARM GAS  C:\Users\ADMINI~1\AppData\Local\Temp\cczjWrOu.s 			page 150


 5578 130e 01       		.byte	0x1
 5579 130f EC06     		.2byte	0x6ec
 5580 1311 9D0D0000 		.4byte	0xd9d
 5581 1315 02       		.uleb128 0x2
 5582 1316 91       		.byte	0x91
 5583 1317 70       		.sleb128 -16
 5584 1318 17       		.uleb128 0x17
 5585 1319 F0110000 		.4byte	.LASF343
 5586 131d 01       		.byte	0x1
 5587 131e ED06     		.2byte	0x6ed
 5588 1320 9D0D0000 		.4byte	0xd9d
 5589 1324 02       		.uleb128 0x2
 5590 1325 91       		.byte	0x91
 5591 1326 74       		.sleb128 -12
 5592 1327 00       		.byte	0
 5593 1328 16       		.uleb128 0x16
 5594 1329 06090000 		.4byte	.LASF344
 5595 132d 01       		.byte	0x1
 5596 132e 2107     		.2byte	0x721
 5597 1330 00000000 		.4byte	.LFB20
 5598 1334 CC000000 		.4byte	.LFE20-.LFB20
 5599 1338 01       		.uleb128 0x1
 5600 1339 9C       		.byte	0x9c
 5601 133a 6B130000 		.4byte	0x136b
 5602 133e 18       		.uleb128 0x18
 5603 133f 8A080000 		.4byte	.LASF320
 5604 1343 01       		.byte	0x1
 5605 1344 2107     		.2byte	0x721
 5606 1346 A30D0000 		.4byte	0xda3
 5607 134a 02       		.uleb128 0x2
 5608 134b 91       		.byte	0x91
 5609 134c 74       		.sleb128 -12
 5610 134d 18       		.uleb128 0x18
 5611 134e FC0C0000 		.4byte	.LASF325
 5612 1352 01       		.byte	0x1
 5613 1353 2207     		.2byte	0x722
 5614 1355 970D0000 		.4byte	0xd97
 5615 1359 02       		.uleb128 0x2
 5616 135a 91       		.byte	0x91
 5617 135b 70       		.sleb128 -16
 5618 135c 1A       		.uleb128 0x1a
 5619 135d 747300   		.ascii	"ts\000"
 5620 1360 01       		.byte	0x1
 5621 1361 2307     		.2byte	0x723
 5622 1363 E9000000 		.4byte	0xe9
 5623 1367 02       		.uleb128 0x2
 5624 1368 91       		.byte	0x91
 5625 1369 6C       		.sleb128 -20
 5626 136a 00       		.byte	0
 5627 136b 16       		.uleb128 0x16
 5628 136c 58150000 		.4byte	.LASF345
 5629 1370 01       		.byte	0x1
 5630 1371 D507     		.2byte	0x7d5
 5631 1373 00000000 		.4byte	.LFB21
 5632 1377 F8000000 		.4byte	.LFE21-.LFB21
 5633 137b 01       		.uleb128 0x1
 5634 137c 9C       		.byte	0x9c
ARM GAS  C:\Users\ADMINI~1\AppData\Local\Temp\cczjWrOu.s 			page 151


 5635 137d CC130000 		.4byte	0x13cc
 5636 1381 18       		.uleb128 0x18
 5637 1382 8A080000 		.4byte	.LASF320
 5638 1386 01       		.byte	0x1
 5639 1387 D507     		.2byte	0x7d5
 5640 1389 A30D0000 		.4byte	0xda3
 5641 138d 02       		.uleb128 0x2
 5642 138e 91       		.byte	0x91
 5643 138f 74       		.sleb128 -12
 5644 1390 18       		.uleb128 0x18
 5645 1391 FC0C0000 		.4byte	.LASF325
 5646 1395 01       		.byte	0x1
 5647 1396 D607     		.2byte	0x7d6
 5648 1398 970D0000 		.4byte	0xd97
 5649 139c 02       		.uleb128 0x2
 5650 139d 91       		.byte	0x91
 5651 139e 70       		.sleb128 -16
 5652 139f 18       		.uleb128 0x18
 5653 13a0 A0050000 		.4byte	.LASF346
 5654 13a4 01       		.byte	0x1
 5655 13a5 D707     		.2byte	0x7d7
 5656 13a7 AF000000 		.4byte	0xaf
 5657 13ab 02       		.uleb128 0x2
 5658 13ac 91       		.byte	0x91
 5659 13ad 6C       		.sleb128 -20
 5660 13ae 18       		.uleb128 0x18
 5661 13af D6150000 		.4byte	.LASF347
 5662 13b3 01       		.byte	0x1
 5663 13b4 D807     		.2byte	0x7d8
 5664 13b6 41010000 		.4byte	0x141
 5665 13ba 02       		.uleb128 0x2
 5666 13bb 91       		.byte	0x91
 5667 13bc 6A       		.sleb128 -22
 5668 13bd 1A       		.uleb128 0x1a
 5669 13be 747300   		.ascii	"ts\000"
 5670 13c1 01       		.byte	0x1
 5671 13c2 D907     		.2byte	0x7d9
 5672 13c4 E9000000 		.4byte	0xe9
 5673 13c8 02       		.uleb128 0x2
 5674 13c9 91       		.byte	0x91
 5675 13ca 00       		.sleb128 0
 5676 13cb 00       		.byte	0
 5677 13cc 1B       		.uleb128 0x1b
 5678 13cd 19050000 		.4byte	.LASF348
 5679 13d1 01       		.byte	0x1
 5680 13d2 B708     		.2byte	0x8b7
 5681 13d4 00000000 		.4byte	.LFB22
 5682 13d8 48000000 		.4byte	.LFE22-.LFB22
 5683 13dc 01       		.uleb128 0x1
 5684 13dd 9C       		.byte	0x9c
 5685 13de FF130000 		.4byte	0x13ff
 5686 13e2 1C       		.uleb128 0x1c
 5687 13e3 6900     		.ascii	"i\000"
 5688 13e5 01       		.byte	0x1
 5689 13e6 B908     		.2byte	0x8b9
 5690 13e8 69000000 		.4byte	0x69
 5691 13ec 02       		.uleb128 0x2
ARM GAS  C:\Users\ADMINI~1\AppData\Local\Temp\cczjWrOu.s 			page 152


 5692 13ed 91       		.byte	0x91
 5693 13ee 74       		.sleb128 -12
 5694 13ef 17       		.uleb128 0x17
 5695 13f0 57040000 		.4byte	.LASF349
 5696 13f4 01       		.byte	0x1
 5697 13f5 BA08     		.2byte	0x8ba
 5698 13f7 FF130000 		.4byte	0x13ff
 5699 13fb 02       		.uleb128 0x2
 5700 13fc 91       		.byte	0x91
 5701 13fd 70       		.sleb128 -16
 5702 13fe 00       		.byte	0
 5703 13ff 05       		.uleb128 0x5
 5704 1400 04       		.byte	0x4
 5705 1401 EA0B0000 		.4byte	0xbea
 5706 1405 16       		.uleb128 0x16
 5707 1406 26080000 		.4byte	.LASF350
 5708 140a 01       		.byte	0x1
 5709 140b DB08     		.2byte	0x8db
 5710 140d 00000000 		.4byte	.LFB23
 5711 1411 40000000 		.4byte	.LFE23-.LFB23
 5712 1415 01       		.uleb128 0x1
 5713 1416 9C       		.byte	0x9c
 5714 1417 2B140000 		.4byte	0x142b
 5715 141b 18       		.uleb128 0x18
 5716 141c FC0C0000 		.4byte	.LASF325
 5717 1420 01       		.byte	0x1
 5718 1421 DB08     		.2byte	0x8db
 5719 1423 970D0000 		.4byte	0xd97
 5720 1427 02       		.uleb128 0x2
 5721 1428 91       		.byte	0x91
 5722 1429 74       		.sleb128 -12
 5723 142a 00       		.byte	0
 5724 142b 1B       		.uleb128 0x1b
 5725 142c 94060000 		.4byte	.LASF351
 5726 1430 01       		.byte	0x1
 5727 1431 2209     		.2byte	0x922
 5728 1433 00000000 		.4byte	.LFB24
 5729 1437 80000000 		.4byte	.LFE24-.LFB24
 5730 143b 01       		.uleb128 0x1
 5731 143c 9C       		.byte	0x9c
 5732 143d 6F140000 		.4byte	0x146f
 5733 1441 18       		.uleb128 0x18
 5734 1442 FC0C0000 		.4byte	.LASF325
 5735 1446 01       		.byte	0x1
 5736 1447 2209     		.2byte	0x922
 5737 1449 970D0000 		.4byte	0xd97
 5738 144d 02       		.uleb128 0x2
 5739 144e 91       		.byte	0x91
 5740 144f 6C       		.sleb128 -20
 5741 1450 17       		.uleb128 0x17
 5742 1451 57040000 		.4byte	.LASF349
 5743 1455 01       		.byte	0x1
 5744 1456 2409     		.2byte	0x924
 5745 1458 FF130000 		.4byte	0x13ff
 5746 145c 02       		.uleb128 0x2
 5747 145d 91       		.byte	0x91
 5748 145e 74       		.sleb128 -12
ARM GAS  C:\Users\ADMINI~1\AppData\Local\Temp\cczjWrOu.s 			page 153


 5749 145f 17       		.uleb128 0x17
 5750 1460 4A150000 		.4byte	.LASF352
 5751 1464 01       		.byte	0x1
 5752 1465 2509     		.2byte	0x925
 5753 1467 970D0000 		.4byte	0xd97
 5754 146b 02       		.uleb128 0x2
 5755 146c 91       		.byte	0x91
 5756 146d 70       		.sleb128 -16
 5757 146e 00       		.byte	0
 5758 146f 1B       		.uleb128 0x1b
 5759 1470 88140000 		.4byte	.LASF353
 5760 1474 01       		.byte	0x1
 5761 1475 7709     		.2byte	0x977
 5762 1477 00000000 		.4byte	.LFB25
 5763 147b 7C000000 		.4byte	.LFE25-.LFB25
 5764 147f 01       		.uleb128 0x1
 5765 1480 9C       		.byte	0x9c
 5766 1481 B3140000 		.4byte	0x14b3
 5767 1485 18       		.uleb128 0x18
 5768 1486 FC0C0000 		.4byte	.LASF325
 5769 148a 01       		.byte	0x1
 5770 148b 7709     		.2byte	0x977
 5771 148d 970D0000 		.4byte	0xd97
 5772 1491 02       		.uleb128 0x2
 5773 1492 91       		.byte	0x91
 5774 1493 6C       		.sleb128 -20
 5775 1494 17       		.uleb128 0x17
 5776 1495 57040000 		.4byte	.LASF349
 5777 1499 01       		.byte	0x1
 5778 149a 7909     		.2byte	0x979
 5779 149c FF130000 		.4byte	0x13ff
 5780 14a0 02       		.uleb128 0x2
 5781 14a1 91       		.byte	0x91
 5782 14a2 74       		.sleb128 -12
 5783 14a3 17       		.uleb128 0x17
 5784 14a4 4A150000 		.4byte	.LASF352
 5785 14a8 01       		.byte	0x1
 5786 14a9 7A09     		.2byte	0x97a
 5787 14ab 970D0000 		.4byte	0xd97
 5788 14af 02       		.uleb128 0x2
 5789 14b0 91       		.byte	0x91
 5790 14b1 70       		.sleb128 -16
 5791 14b2 00       		.byte	0
 5792 14b3 1B       		.uleb128 0x1b
 5793 14b4 3F130000 		.4byte	.LASF354
 5794 14b8 01       		.byte	0x1
 5795 14b9 C809     		.2byte	0x9c8
 5796 14bb 00000000 		.4byte	.LFB26
 5797 14bf 92000000 		.4byte	.LFE26-.LFB26
 5798 14c3 01       		.uleb128 0x1
 5799 14c4 9C       		.byte	0x9c
 5800 14c5 06150000 		.4byte	0x1506
 5801 14c9 18       		.uleb128 0x18
 5802 14ca 57040000 		.4byte	.LASF349
 5803 14ce 01       		.byte	0x1
 5804 14cf C809     		.2byte	0x9c8
 5805 14d1 FF130000 		.4byte	0x13ff
ARM GAS  C:\Users\ADMINI~1\AppData\Local\Temp\cczjWrOu.s 			page 154


 5806 14d5 02       		.uleb128 0x2
 5807 14d6 91       		.byte	0x91
 5808 14d7 64       		.sleb128 -28
 5809 14d8 17       		.uleb128 0x17
 5810 14d9 43150000 		.4byte	.LASF330
 5811 14dd 01       		.byte	0x1
 5812 14de CA09     		.2byte	0x9ca
 5813 14e0 970D0000 		.4byte	0xd97
 5814 14e4 02       		.uleb128 0x2
 5815 14e5 91       		.byte	0x91
 5816 14e6 74       		.sleb128 -12
 5817 14e7 17       		.uleb128 0x17
 5818 14e8 4A150000 		.4byte	.LASF352
 5819 14ec 01       		.byte	0x1
 5820 14ed CB09     		.2byte	0x9cb
 5821 14ef 970D0000 		.4byte	0xd97
 5822 14f3 02       		.uleb128 0x2
 5823 14f4 91       		.byte	0x91
 5824 14f5 70       		.sleb128 -16
 5825 14f6 17       		.uleb128 0x17
 5826 14f7 51150000 		.4byte	.LASF355
 5827 14fb 01       		.byte	0x1
 5828 14fc CC09     		.2byte	0x9cc
 5829 14fe 970D0000 		.4byte	0xd97
 5830 1502 02       		.uleb128 0x2
 5831 1503 91       		.byte	0x91
 5832 1504 6C       		.sleb128 -20
 5833 1505 00       		.byte	0
 5834 1506 16       		.uleb128 0x16
 5835 1507 66140000 		.4byte	.LASF356
 5836 150b 01       		.byte	0x1
 5837 150c 180A     		.2byte	0xa18
 5838 150e 00000000 		.4byte	.LFB27
 5839 1512 B0000000 		.4byte	.LFE27-.LFB27
 5840 1516 01       		.uleb128 0x1
 5841 1517 9C       		.byte	0x9c
 5842 1518 59150000 		.4byte	0x1559
 5843 151c 18       		.uleb128 0x18
 5844 151d FC0C0000 		.4byte	.LASF325
 5845 1521 01       		.byte	0x1
 5846 1522 180A     		.2byte	0xa18
 5847 1524 970D0000 		.4byte	0xd97
 5848 1528 02       		.uleb128 0x2
 5849 1529 91       		.byte	0x91
 5850 152a 64       		.sleb128 -28
 5851 152b 17       		.uleb128 0x17
 5852 152c 57040000 		.4byte	.LASF349
 5853 1530 01       		.byte	0x1
 5854 1531 1A0A     		.2byte	0xa1a
 5855 1533 FF130000 		.4byte	0x13ff
 5856 1537 02       		.uleb128 0x2
 5857 1538 91       		.byte	0x91
 5858 1539 74       		.sleb128 -12
 5859 153a 17       		.uleb128 0x17
 5860 153b 43150000 		.4byte	.LASF330
 5861 153f 01       		.byte	0x1
 5862 1540 1B0A     		.2byte	0xa1b
ARM GAS  C:\Users\ADMINI~1\AppData\Local\Temp\cczjWrOu.s 			page 155


 5863 1542 970D0000 		.4byte	0xd97
 5864 1546 02       		.uleb128 0x2
 5865 1547 91       		.byte	0x91
 5866 1548 70       		.sleb128 -16
 5867 1549 17       		.uleb128 0x17
 5868 154a 4A150000 		.4byte	.LASF352
 5869 154e 01       		.byte	0x1
 5870 154f 1C0A     		.2byte	0xa1c
 5871 1551 970D0000 		.4byte	0xd97
 5872 1555 02       		.uleb128 0x2
 5873 1556 91       		.byte	0x91
 5874 1557 6C       		.sleb128 -20
 5875 1558 00       		.byte	0
 5876 1559 1D       		.uleb128 0x1d
 5877 155a DE120000 		.4byte	.LASF358
 5878 155e 01       		.byte	0x1
 5879 155f 830A     		.2byte	0xa83
 5880 1561 00000000 		.4byte	.LFB28
 5881 1565 24000000 		.4byte	.LFE28-.LFB28
 5882 1569 01       		.uleb128 0x1
 5883 156a 9C       		.byte	0x9c
 5884 156b 16       		.uleb128 0x16
 5885 156c 00000000 		.4byte	.LASF359
 5886 1570 01       		.byte	0x1
 5887 1571 8D0A     		.2byte	0xa8d
 5888 1573 00000000 		.4byte	.LFB29
 5889 1577 54000000 		.4byte	.LFE29-.LFB29
 5890 157b 01       		.uleb128 0x1
 5891 157c 9C       		.byte	0x9c
 5892 157d 91150000 		.4byte	0x1591
 5893 1581 17       		.uleb128 0x17
 5894 1582 F1150000 		.4byte	.LASF360
 5895 1586 01       		.byte	0x1
 5896 1587 8F0A     		.2byte	0xa8f
 5897 1589 F4000000 		.4byte	0xf4
 5898 158d 02       		.uleb128 0x2
 5899 158e 91       		.byte	0x91
 5900 158f 74       		.sleb128 -12
 5901 1590 00       		.byte	0
 5902 1591 16       		.uleb128 0x16
 5903 1592 E3110000 		.4byte	.LASF361
 5904 1596 01       		.byte	0x1
 5905 1597 FB0A     		.2byte	0xafb
 5906 1599 00000000 		.4byte	.LFB30
 5907 159d 44000000 		.4byte	.LFE30-.LFB30
 5908 15a1 01       		.uleb128 0x1
 5909 15a2 9C       		.byte	0x9c
 5910 15a3 C6150000 		.4byte	0x15c6
 5911 15a7 18       		.uleb128 0x18
 5912 15a8 FC0C0000 		.4byte	.LASF325
 5913 15ac 01       		.byte	0x1
 5914 15ad FB0A     		.2byte	0xafb
 5915 15af 970D0000 		.4byte	0xd97
 5916 15b3 02       		.uleb128 0x2
 5917 15b4 91       		.byte	0x91
 5918 15b5 74       		.sleb128 -12
 5919 15b6 18       		.uleb128 0x18
ARM GAS  C:\Users\ADMINI~1\AppData\Local\Temp\cczjWrOu.s 			page 156


 5920 15b7 9D140000 		.4byte	.LASF322
 5921 15bb 01       		.byte	0x1
 5922 15bc FC0A     		.2byte	0xafc
 5923 15be BA010000 		.4byte	0x1ba
 5924 15c2 02       		.uleb128 0x2
 5925 15c3 91       		.byte	0x91
 5926 15c4 70       		.sleb128 -16
 5927 15c5 00       		.byte	0
 5928 15c6 1E       		.uleb128 0x1e
 5929 15c7 F8070000 		.4byte	.LASF362
 5930 15cb 05       		.byte	0x5
 5931 15cc 1D05     		.2byte	0x51d
 5932 15ce 2B010000 		.4byte	0x12b
 5933 15d2 1E       		.uleb128 0x1e
 5934 15d3 14090000 		.4byte	.LASF363
 5935 15d7 05       		.byte	0x5
 5936 15d8 2005     		.2byte	0x520
 5937 15da 3A090000 		.4byte	0x93a
 5938 15de 1E       		.uleb128 0x1e
 5939 15df 18100000 		.4byte	.LASF364
 5940 15e3 05       		.byte	0x5
 5941 15e4 2405     		.2byte	0x524
 5942 15e6 4C010000 		.4byte	0x14c
 5943 15ea 1E       		.uleb128 0x1e
 5944 15eb 1E0D0000 		.4byte	.LASF365
 5945 15ef 05       		.byte	0x5
 5946 15f0 2B05     		.2byte	0x52b
 5947 15f2 A4010000 		.4byte	0x1a4
 5948 15f6 1E       		.uleb128 0x1e
 5949 15f7 800F0000 		.4byte	.LASF366
 5950 15fb 05       		.byte	0x5
 5951 15fc 2C05     		.2byte	0x52c
 5952 15fe A4010000 		.4byte	0x1a4
 5953 1602 1E       		.uleb128 0x1e
 5954 1603 B2150000 		.4byte	.LASF367
 5955 1607 05       		.byte	0x5
 5956 1608 3F05     		.2byte	0x53f
 5957 160a AF0D0000 		.4byte	0xdaf
 5958 160e 1E       		.uleb128 0x1e
 5959 160f 1E160000 		.4byte	.LASF368
 5960 1613 05       		.byte	0x5
 5961 1614 4005     		.2byte	0x540
 5962 1616 57010000 		.4byte	0x157
 5963 161a 1E       		.uleb128 0x1e
 5964 161b 8A030000 		.4byte	.LASF369
 5965 161f 05       		.byte	0x5
 5966 1620 5405     		.2byte	0x554
 5967 1622 BB0D0000 		.4byte	0xdbb
 5968 1626 1E       		.uleb128 0x1e
 5969 1627 85050000 		.4byte	.LASF370
 5970 162b 05       		.byte	0x5
 5971 162c 5505     		.2byte	0x555
 5972 162e 57010000 		.4byte	0x157
 5973 1632 1E       		.uleb128 0x1e
 5974 1633 E9080000 		.4byte	.LASF371
 5975 1637 05       		.byte	0x5
 5976 1638 5A05     		.2byte	0x55a
ARM GAS  C:\Users\ADMINI~1\AppData\Local\Temp\cczjWrOu.s 			page 157


 5977 163a 78010000 		.4byte	0x178
 5978 163e 1E       		.uleb128 0x1e
 5979 163f 3B000000 		.4byte	.LASF372
 5980 1643 05       		.byte	0x5
 5981 1644 5B05     		.2byte	0x55b
 5982 1646 78010000 		.4byte	0x178
 5983 164a 1E       		.uleb128 0x1e
 5984 164b 22090000 		.4byte	.LASF373
 5985 164f 05       		.byte	0x5
 5986 1650 6405     		.2byte	0x564
 5987 1652 C10D0000 		.4byte	0xdc1
 5988 1656 1E       		.uleb128 0x1e
 5989 1657 D0110000 		.4byte	.LASF374
 5990 165b 05       		.byte	0x5
 5991 165c 6505     		.2byte	0x565
 5992 165e 57010000 		.4byte	0x157
 5993 1662 10       		.uleb128 0x10
 5994 1663 EA0B0000 		.4byte	0xbea
 5995 1667 72160000 		.4byte	0x1672
 5996 166b 11       		.uleb128 0x11
 5997 166c E90D0000 		.4byte	0xde9
 5998 1670 1F       		.byte	0x1f
 5999 1671 00       		.byte	0
 6000 1672 1E       		.uleb128 0x1e
 6001 1673 80030000 		.4byte	.LASF375
 6002 1677 05       		.byte	0x5
 6003 1678 6C05     		.2byte	0x56c
 6004 167a 62160000 		.4byte	0x1662
 6005 167e 1E       		.uleb128 0x1e
 6006 167f 79170000 		.4byte	.LASF376
 6007 1683 05       		.byte	0x5
 6008 1684 7405     		.2byte	0x574
 6009 1686 F4000000 		.4byte	0xf4
 6010 168a 1E       		.uleb128 0x1e
 6011 168b 28100000 		.4byte	.LASF377
 6012 168f 05       		.byte	0x5
 6013 1690 7505     		.2byte	0x575
 6014 1692 F4000000 		.4byte	0xf4
 6015 1696 1E       		.uleb128 0x1e
 6016 1697 16030000 		.4byte	.LASF378
 6017 169b 05       		.byte	0x5
 6018 169c 7605     		.2byte	0x576
 6019 169e F4000000 		.4byte	0xf4
 6020 16a2 1E       		.uleb128 0x1e
 6021 16a3 41140000 		.4byte	.LASF379
 6022 16a7 05       		.byte	0x5
 6023 16a8 7905     		.2byte	0x579
 6024 16aa 4C010000 		.4byte	0x14c
 6025 16ae 1E       		.uleb128 0x1e
 6026 16af 16080000 		.4byte	.LASF380
 6027 16b3 05       		.byte	0x5
 6028 16b4 8105     		.2byte	0x581
 6029 16b6 C70D0000 		.4byte	0xdc7
 6030 16ba 1E       		.uleb128 0x1e
 6031 16bb 3D050000 		.4byte	.LASF381
 6032 16bf 05       		.byte	0x5
 6033 16c0 8205     		.2byte	0x582
ARM GAS  C:\Users\ADMINI~1\AppData\Local\Temp\cczjWrOu.s 			page 158


 6034 16c2 57010000 		.4byte	0x157
 6035 16c6 1E       		.uleb128 0x1e
 6036 16c7 58130000 		.4byte	.LASF382
 6037 16cb 05       		.byte	0x5
 6038 16cc 9305     		.2byte	0x593
 6039 16ce BA010000 		.4byte	0x1ba
 6040 16d2 1E       		.uleb128 0x1e
 6041 16d3 700A0000 		.4byte	.LASF383
 6042 16d7 05       		.byte	0x5
 6043 16d8 9F05     		.2byte	0x59f
 6044 16da 0A010000 		.4byte	0x10a
 6045 16de 1E       		.uleb128 0x1e
 6046 16df 5C0D0000 		.4byte	.LASF384
 6047 16e3 05       		.byte	0x5
 6048 16e4 A505     		.2byte	0x5a5
 6049 16e6 57010000 		.4byte	0x157
 6050 16ea 1E       		.uleb128 0x1e
 6051 16eb B7060000 		.4byte	.LASF385
 6052 16ef 05       		.byte	0x5
 6053 16f0 A805     		.2byte	0x5a8
 6054 16f2 8E010000 		.4byte	0x18e
 6055 16f6 1E       		.uleb128 0x1e
 6056 16f7 3C030000 		.4byte	.LASF386
 6057 16fb 05       		.byte	0x5
 6058 16fc B705     		.2byte	0x5b7
 6059 16fe 2B0C0000 		.4byte	0xc2b
 6060 1702 1E       		.uleb128 0x1e
 6061 1703 5A020000 		.4byte	.LASF387
 6062 1707 05       		.byte	0x5
 6063 1708 D505     		.2byte	0x5d5
 6064 170a 970D0000 		.4byte	0xd97
 6065 170e 1E       		.uleb128 0x1e
 6066 170f 4A020000 		.4byte	.LASF388
 6067 1713 05       		.byte	0x5
 6068 1714 D605     		.2byte	0x5d6
 6069 1716 970D0000 		.4byte	0xd97
 6070 171a 1E       		.uleb128 0x1e
 6071 171b F5090000 		.4byte	.LASF389
 6072 171f 05       		.byte	0x5
 6073 1720 E105     		.2byte	0x5e1
 6074 1722 26170000 		.4byte	0x1726
 6075 1726 1F       		.uleb128 0x1f
 6076 1727 CD0D0000 		.4byte	0xdcd
 6077 172b 1E       		.uleb128 0x1e
 6078 172c A20C0000 		.4byte	.LASF390
 6079 1730 05       		.byte	0x5
 6080 1731 E205     		.2byte	0x5e2
 6081 1733 37170000 		.4byte	0x1737
 6082 1737 1F       		.uleb128 0x1f
 6083 1738 C7000000 		.4byte	0xc7
 6084 173c 1E       		.uleb128 0x1e
 6085 173d 34180000 		.4byte	.LASF391
 6086 1741 05       		.byte	0x5
 6087 1742 E305     		.2byte	0x5e3
 6088 1744 37170000 		.4byte	0x1737
 6089 1748 1E       		.uleb128 0x1e
 6090 1749 95130000 		.4byte	.LASF392
ARM GAS  C:\Users\ADMINI~1\AppData\Local\Temp\cczjWrOu.s 			page 159


 6091 174d 05       		.byte	0x5
 6092 174e EE05     		.2byte	0x5ee
 6093 1750 26170000 		.4byte	0x1726
 6094 1754 1E       		.uleb128 0x1e
 6095 1755 090C0000 		.4byte	.LASF393
 6096 1759 05       		.byte	0x5
 6097 175a EF05     		.2byte	0x5ef
 6098 175c 37170000 		.4byte	0x1737
 6099 1760 00       		.byte	0
 6100              		.section	.debug_abbrev,"",%progbits
 6101              	.Ldebug_abbrev0:
 6102 0000 01       		.uleb128 0x1
 6103 0001 11       		.uleb128 0x11
 6104 0002 01       		.byte	0x1
 6105 0003 25       		.uleb128 0x25
 6106 0004 0E       		.uleb128 0xe
 6107 0005 13       		.uleb128 0x13
 6108 0006 0B       		.uleb128 0xb
 6109 0007 03       		.uleb128 0x3
 6110 0008 0E       		.uleb128 0xe
 6111 0009 1B       		.uleb128 0x1b
 6112 000a 0E       		.uleb128 0xe
 6113 000b 55       		.uleb128 0x55
 6114 000c 17       		.uleb128 0x17
 6115 000d 11       		.uleb128 0x11
 6116 000e 01       		.uleb128 0x1
 6117 000f 10       		.uleb128 0x10
 6118 0010 17       		.uleb128 0x17
 6119 0011 00       		.byte	0
 6120 0012 00       		.byte	0
 6121 0013 02       		.uleb128 0x2
 6122 0014 16       		.uleb128 0x16
 6123 0015 00       		.byte	0
 6124 0016 03       		.uleb128 0x3
 6125 0017 0E       		.uleb128 0xe
 6126 0018 3A       		.uleb128 0x3a
 6127 0019 0B       		.uleb128 0xb
 6128 001a 3B       		.uleb128 0x3b
 6129 001b 0B       		.uleb128 0xb
 6130 001c 49       		.uleb128 0x49
 6131 001d 13       		.uleb128 0x13
 6132 001e 00       		.byte	0
 6133 001f 00       		.byte	0
 6134 0020 03       		.uleb128 0x3
 6135 0021 24       		.uleb128 0x24
 6136 0022 00       		.byte	0
 6137 0023 0B       		.uleb128 0xb
 6138 0024 0B       		.uleb128 0xb
 6139 0025 3E       		.uleb128 0x3e
 6140 0026 0B       		.uleb128 0xb
 6141 0027 03       		.uleb128 0x3
 6142 0028 0E       		.uleb128 0xe
 6143 0029 00       		.byte	0
 6144 002a 00       		.byte	0
 6145 002b 04       		.uleb128 0x4
 6146 002c 24       		.uleb128 0x24
 6147 002d 00       		.byte	0
ARM GAS  C:\Users\ADMINI~1\AppData\Local\Temp\cczjWrOu.s 			page 160


 6148 002e 0B       		.uleb128 0xb
 6149 002f 0B       		.uleb128 0xb
 6150 0030 3E       		.uleb128 0x3e
 6151 0031 0B       		.uleb128 0xb
 6152 0032 03       		.uleb128 0x3
 6153 0033 08       		.uleb128 0x8
 6154 0034 00       		.byte	0
 6155 0035 00       		.byte	0
 6156 0036 05       		.uleb128 0x5
 6157 0037 0F       		.uleb128 0xf
 6158 0038 00       		.byte	0
 6159 0039 0B       		.uleb128 0xb
 6160 003a 0B       		.uleb128 0xb
 6161 003b 49       		.uleb128 0x49
 6162 003c 13       		.uleb128 0x13
 6163 003d 00       		.byte	0
 6164 003e 00       		.byte	0
 6165 003f 06       		.uleb128 0x6
 6166 0040 15       		.uleb128 0x15
 6167 0041 01       		.byte	0x1
 6168 0042 27       		.uleb128 0x27
 6169 0043 19       		.uleb128 0x19
 6170 0044 01       		.uleb128 0x1
 6171 0045 13       		.uleb128 0x13
 6172 0046 00       		.byte	0
 6173 0047 00       		.byte	0
 6174 0048 07       		.uleb128 0x7
 6175 0049 05       		.uleb128 0x5
 6176 004a 00       		.byte	0
 6177 004b 49       		.uleb128 0x49
 6178 004c 13       		.uleb128 0x13
 6179 004d 00       		.byte	0
 6180 004e 00       		.byte	0
 6181 004f 08       		.uleb128 0x8
 6182 0050 0F       		.uleb128 0xf
 6183 0051 00       		.byte	0
 6184 0052 0B       		.uleb128 0xb
 6185 0053 0B       		.uleb128 0xb
 6186 0054 00       		.byte	0
 6187 0055 00       		.byte	0
 6188 0056 09       		.uleb128 0x9
 6189 0057 16       		.uleb128 0x16
 6190 0058 00       		.byte	0
 6191 0059 03       		.uleb128 0x3
 6192 005a 0E       		.uleb128 0xe
 6193 005b 3A       		.uleb128 0x3a
 6194 005c 0B       		.uleb128 0xb
 6195 005d 3B       		.uleb128 0x3b
 6196 005e 05       		.uleb128 0x5
 6197 005f 49       		.uleb128 0x49
 6198 0060 13       		.uleb128 0x13
 6199 0061 00       		.byte	0
 6200 0062 00       		.byte	0
 6201 0063 0A       		.uleb128 0xa
 6202 0064 04       		.uleb128 0x4
 6203 0065 01       		.byte	0x1
 6204 0066 03       		.uleb128 0x3
ARM GAS  C:\Users\ADMINI~1\AppData\Local\Temp\cczjWrOu.s 			page 161


 6205 0067 0E       		.uleb128 0xe
 6206 0068 0B       		.uleb128 0xb
 6207 0069 0B       		.uleb128 0xb
 6208 006a 49       		.uleb128 0x49
 6209 006b 13       		.uleb128 0x13
 6210 006c 3A       		.uleb128 0x3a
 6211 006d 0B       		.uleb128 0xb
 6212 006e 3B       		.uleb128 0x3b
 6213 006f 05       		.uleb128 0x5
 6214 0070 01       		.uleb128 0x1
 6215 0071 13       		.uleb128 0x13
 6216 0072 00       		.byte	0
 6217 0073 00       		.byte	0
 6218 0074 0B       		.uleb128 0xb
 6219 0075 28       		.uleb128 0x28
 6220 0076 00       		.byte	0
 6221 0077 03       		.uleb128 0x3
 6222 0078 0E       		.uleb128 0xe
 6223 0079 1C       		.uleb128 0x1c
 6224 007a 0B       		.uleb128 0xb
 6225 007b 00       		.byte	0
 6226 007c 00       		.byte	0
 6227 007d 0C       		.uleb128 0xc
 6228 007e 28       		.uleb128 0x28
 6229 007f 00       		.byte	0
 6230 0080 03       		.uleb128 0x3
 6231 0081 0E       		.uleb128 0xe
 6232 0082 1C       		.uleb128 0x1c
 6233 0083 05       		.uleb128 0x5
 6234 0084 00       		.byte	0
 6235 0085 00       		.byte	0
 6236 0086 0D       		.uleb128 0xd
 6237 0087 13       		.uleb128 0x13
 6238 0088 01       		.byte	0x1
 6239 0089 03       		.uleb128 0x3
 6240 008a 0E       		.uleb128 0xe
 6241 008b 0B       		.uleb128 0xb
 6242 008c 0B       		.uleb128 0xb
 6243 008d 3A       		.uleb128 0x3a
 6244 008e 0B       		.uleb128 0xb
 6245 008f 3B       		.uleb128 0x3b
 6246 0090 05       		.uleb128 0x5
 6247 0091 01       		.uleb128 0x1
 6248 0092 13       		.uleb128 0x13
 6249 0093 00       		.byte	0
 6250 0094 00       		.byte	0
 6251 0095 0E       		.uleb128 0xe
 6252 0096 0D       		.uleb128 0xd
 6253 0097 00       		.byte	0
 6254 0098 03       		.uleb128 0x3
 6255 0099 0E       		.uleb128 0xe
 6256 009a 3A       		.uleb128 0x3a
 6257 009b 0B       		.uleb128 0xb
 6258 009c 3B       		.uleb128 0x3b
 6259 009d 05       		.uleb128 0x5
 6260 009e 49       		.uleb128 0x49
 6261 009f 13       		.uleb128 0x13
ARM GAS  C:\Users\ADMINI~1\AppData\Local\Temp\cczjWrOu.s 			page 162


 6262 00a0 38       		.uleb128 0x38
 6263 00a1 0B       		.uleb128 0xb
 6264 00a2 00       		.byte	0
 6265 00a3 00       		.byte	0
 6266 00a4 0F       		.uleb128 0xf
 6267 00a5 0D       		.uleb128 0xd
 6268 00a6 00       		.byte	0
 6269 00a7 03       		.uleb128 0x3
 6270 00a8 08       		.uleb128 0x8
 6271 00a9 3A       		.uleb128 0x3a
 6272 00aa 0B       		.uleb128 0xb
 6273 00ab 3B       		.uleb128 0x3b
 6274 00ac 05       		.uleb128 0x5
 6275 00ad 49       		.uleb128 0x49
 6276 00ae 13       		.uleb128 0x13
 6277 00af 38       		.uleb128 0x38
 6278 00b0 0B       		.uleb128 0xb
 6279 00b1 00       		.byte	0
 6280 00b2 00       		.byte	0
 6281 00b3 10       		.uleb128 0x10
 6282 00b4 01       		.uleb128 0x1
 6283 00b5 01       		.byte	0x1
 6284 00b6 49       		.uleb128 0x49
 6285 00b7 13       		.uleb128 0x13
 6286 00b8 01       		.uleb128 0x1
 6287 00b9 13       		.uleb128 0x13
 6288 00ba 00       		.byte	0
 6289 00bb 00       		.byte	0
 6290 00bc 11       		.uleb128 0x11
 6291 00bd 21       		.uleb128 0x21
 6292 00be 00       		.byte	0
 6293 00bf 49       		.uleb128 0x49
 6294 00c0 13       		.uleb128 0x13
 6295 00c1 2F       		.uleb128 0x2f
 6296 00c2 0B       		.uleb128 0xb
 6297 00c3 00       		.byte	0
 6298 00c4 00       		.byte	0
 6299 00c5 12       		.uleb128 0x12
 6300 00c6 2E       		.uleb128 0x2e
 6301 00c7 01       		.byte	0x1
 6302 00c8 3F       		.uleb128 0x3f
 6303 00c9 19       		.uleb128 0x19
 6304 00ca 03       		.uleb128 0x3
 6305 00cb 0E       		.uleb128 0xe
 6306 00cc 3A       		.uleb128 0x3a
 6307 00cd 0B       		.uleb128 0xb
 6308 00ce 3B       		.uleb128 0x3b
 6309 00cf 0B       		.uleb128 0xb
 6310 00d0 27       		.uleb128 0x27
 6311 00d1 19       		.uleb128 0x19
 6312 00d2 11       		.uleb128 0x11
 6313 00d3 01       		.uleb128 0x1
 6314 00d4 12       		.uleb128 0x12
 6315 00d5 06       		.uleb128 0x6
 6316 00d6 40       		.uleb128 0x40
 6317 00d7 18       		.uleb128 0x18
 6318 00d8 9642     		.uleb128 0x2116
ARM GAS  C:\Users\ADMINI~1\AppData\Local\Temp\cczjWrOu.s 			page 163


 6319 00da 19       		.uleb128 0x19
 6320 00db 01       		.uleb128 0x1
 6321 00dc 13       		.uleb128 0x13
 6322 00dd 00       		.byte	0
 6323 00de 00       		.byte	0
 6324 00df 13       		.uleb128 0x13
 6325 00e0 05       		.uleb128 0x5
 6326 00e1 00       		.byte	0
 6327 00e2 03       		.uleb128 0x3
 6328 00e3 0E       		.uleb128 0xe
 6329 00e4 3A       		.uleb128 0x3a
 6330 00e5 0B       		.uleb128 0xb
 6331 00e6 3B       		.uleb128 0x3b
 6332 00e7 0B       		.uleb128 0xb
 6333 00e8 49       		.uleb128 0x49
 6334 00e9 13       		.uleb128 0x13
 6335 00ea 02       		.uleb128 0x2
 6336 00eb 18       		.uleb128 0x18
 6337 00ec 00       		.byte	0
 6338 00ed 00       		.byte	0
 6339 00ee 14       		.uleb128 0x14
 6340 00ef 34       		.uleb128 0x34
 6341 00f0 00       		.byte	0
 6342 00f1 03       		.uleb128 0x3
 6343 00f2 0E       		.uleb128 0xe
 6344 00f3 3A       		.uleb128 0x3a
 6345 00f4 0B       		.uleb128 0xb
 6346 00f5 3B       		.uleb128 0x3b
 6347 00f6 0B       		.uleb128 0xb
 6348 00f7 49       		.uleb128 0x49
 6349 00f8 13       		.uleb128 0x13
 6350 00f9 02       		.uleb128 0x2
 6351 00fa 18       		.uleb128 0x18
 6352 00fb 00       		.byte	0
 6353 00fc 00       		.byte	0
 6354 00fd 15       		.uleb128 0x15
 6355 00fe 2E       		.uleb128 0x2e
 6356 00ff 00       		.byte	0
 6357 0100 3F       		.uleb128 0x3f
 6358 0101 19       		.uleb128 0x19
 6359 0102 03       		.uleb128 0x3
 6360 0103 0E       		.uleb128 0xe
 6361 0104 3A       		.uleb128 0x3a
 6362 0105 0B       		.uleb128 0xb
 6363 0106 3B       		.uleb128 0x3b
 6364 0107 05       		.uleb128 0x5
 6365 0108 27       		.uleb128 0x27
 6366 0109 19       		.uleb128 0x19
 6367 010a 11       		.uleb128 0x11
 6368 010b 01       		.uleb128 0x1
 6369 010c 12       		.uleb128 0x12
 6370 010d 06       		.uleb128 0x6
 6371 010e 40       		.uleb128 0x40
 6372 010f 18       		.uleb128 0x18
 6373 0110 9742     		.uleb128 0x2117
 6374 0112 19       		.uleb128 0x19
 6375 0113 00       		.byte	0
ARM GAS  C:\Users\ADMINI~1\AppData\Local\Temp\cczjWrOu.s 			page 164


 6376 0114 00       		.byte	0
 6377 0115 16       		.uleb128 0x16
 6378 0116 2E       		.uleb128 0x2e
 6379 0117 01       		.byte	0x1
 6380 0118 3F       		.uleb128 0x3f
 6381 0119 19       		.uleb128 0x19
 6382 011a 03       		.uleb128 0x3
 6383 011b 0E       		.uleb128 0xe
 6384 011c 3A       		.uleb128 0x3a
 6385 011d 0B       		.uleb128 0xb
 6386 011e 3B       		.uleb128 0x3b
 6387 011f 05       		.uleb128 0x5
 6388 0120 27       		.uleb128 0x27
 6389 0121 19       		.uleb128 0x19
 6390 0122 11       		.uleb128 0x11
 6391 0123 01       		.uleb128 0x1
 6392 0124 12       		.uleb128 0x12
 6393 0125 06       		.uleb128 0x6
 6394 0126 40       		.uleb128 0x40
 6395 0127 18       		.uleb128 0x18
 6396 0128 9642     		.uleb128 0x2116
 6397 012a 19       		.uleb128 0x19
 6398 012b 01       		.uleb128 0x1
 6399 012c 13       		.uleb128 0x13
 6400 012d 00       		.byte	0
 6401 012e 00       		.byte	0
 6402 012f 17       		.uleb128 0x17
 6403 0130 34       		.uleb128 0x34
 6404 0131 00       		.byte	0
 6405 0132 03       		.uleb128 0x3
 6406 0133 0E       		.uleb128 0xe
 6407 0134 3A       		.uleb128 0x3a
 6408 0135 0B       		.uleb128 0xb
 6409 0136 3B       		.uleb128 0x3b
 6410 0137 05       		.uleb128 0x5
 6411 0138 49       		.uleb128 0x49
 6412 0139 13       		.uleb128 0x13
 6413 013a 02       		.uleb128 0x2
 6414 013b 18       		.uleb128 0x18
 6415 013c 00       		.byte	0
 6416 013d 00       		.byte	0
 6417 013e 18       		.uleb128 0x18
 6418 013f 05       		.uleb128 0x5
 6419 0140 00       		.byte	0
 6420 0141 03       		.uleb128 0x3
 6421 0142 0E       		.uleb128 0xe
 6422 0143 3A       		.uleb128 0x3a
 6423 0144 0B       		.uleb128 0xb
 6424 0145 3B       		.uleb128 0x3b
 6425 0146 05       		.uleb128 0x5
 6426 0147 49       		.uleb128 0x49
 6427 0148 13       		.uleb128 0x13
 6428 0149 02       		.uleb128 0x2
 6429 014a 18       		.uleb128 0x18
 6430 014b 00       		.byte	0
 6431 014c 00       		.byte	0
 6432 014d 19       		.uleb128 0x19
ARM GAS  C:\Users\ADMINI~1\AppData\Local\Temp\cczjWrOu.s 			page 165


 6433 014e 2E       		.uleb128 0x2e
 6434 014f 01       		.byte	0x1
 6435 0150 3F       		.uleb128 0x3f
 6436 0151 19       		.uleb128 0x19
 6437 0152 03       		.uleb128 0x3
 6438 0153 0E       		.uleb128 0xe
 6439 0154 3A       		.uleb128 0x3a
 6440 0155 0B       		.uleb128 0xb
 6441 0156 3B       		.uleb128 0x3b
 6442 0157 05       		.uleb128 0x5
 6443 0158 27       		.uleb128 0x27
 6444 0159 19       		.uleb128 0x19
 6445 015a 49       		.uleb128 0x49
 6446 015b 13       		.uleb128 0x13
 6447 015c 11       		.uleb128 0x11
 6448 015d 01       		.uleb128 0x1
 6449 015e 12       		.uleb128 0x12
 6450 015f 06       		.uleb128 0x6
 6451 0160 40       		.uleb128 0x40
 6452 0161 18       		.uleb128 0x18
 6453 0162 9742     		.uleb128 0x2117
 6454 0164 19       		.uleb128 0x19
 6455 0165 01       		.uleb128 0x1
 6456 0166 13       		.uleb128 0x13
 6457 0167 00       		.byte	0
 6458 0168 00       		.byte	0
 6459 0169 1A       		.uleb128 0x1a
 6460 016a 05       		.uleb128 0x5
 6461 016b 00       		.byte	0
 6462 016c 03       		.uleb128 0x3
 6463 016d 08       		.uleb128 0x8
 6464 016e 3A       		.uleb128 0x3a
 6465 016f 0B       		.uleb128 0xb
 6466 0170 3B       		.uleb128 0x3b
 6467 0171 05       		.uleb128 0x5
 6468 0172 49       		.uleb128 0x49
 6469 0173 13       		.uleb128 0x13
 6470 0174 02       		.uleb128 0x2
 6471 0175 18       		.uleb128 0x18
 6472 0176 00       		.byte	0
 6473 0177 00       		.byte	0
 6474 0178 1B       		.uleb128 0x1b
 6475 0179 2E       		.uleb128 0x2e
 6476 017a 01       		.byte	0x1
 6477 017b 3F       		.uleb128 0x3f
 6478 017c 19       		.uleb128 0x19
 6479 017d 03       		.uleb128 0x3
 6480 017e 0E       		.uleb128 0xe
 6481 017f 3A       		.uleb128 0x3a
 6482 0180 0B       		.uleb128 0xb
 6483 0181 3B       		.uleb128 0x3b
 6484 0182 05       		.uleb128 0x5
 6485 0183 27       		.uleb128 0x27
 6486 0184 19       		.uleb128 0x19
 6487 0185 11       		.uleb128 0x11
 6488 0186 01       		.uleb128 0x1
 6489 0187 12       		.uleb128 0x12
ARM GAS  C:\Users\ADMINI~1\AppData\Local\Temp\cczjWrOu.s 			page 166


 6490 0188 06       		.uleb128 0x6
 6491 0189 40       		.uleb128 0x40
 6492 018a 18       		.uleb128 0x18
 6493 018b 9742     		.uleb128 0x2117
 6494 018d 19       		.uleb128 0x19
 6495 018e 01       		.uleb128 0x1
 6496 018f 13       		.uleb128 0x13
 6497 0190 00       		.byte	0
 6498 0191 00       		.byte	0
 6499 0192 1C       		.uleb128 0x1c
 6500 0193 34       		.uleb128 0x34
 6501 0194 00       		.byte	0
 6502 0195 03       		.uleb128 0x3
 6503 0196 08       		.uleb128 0x8
 6504 0197 3A       		.uleb128 0x3a
 6505 0198 0B       		.uleb128 0xb
 6506 0199 3B       		.uleb128 0x3b
 6507 019a 05       		.uleb128 0x5
 6508 019b 49       		.uleb128 0x49
 6509 019c 13       		.uleb128 0x13
 6510 019d 02       		.uleb128 0x2
 6511 019e 18       		.uleb128 0x18
 6512 019f 00       		.byte	0
 6513 01a0 00       		.byte	0
 6514 01a1 1D       		.uleb128 0x1d
 6515 01a2 2E       		.uleb128 0x2e
 6516 01a3 00       		.byte	0
 6517 01a4 3F       		.uleb128 0x3f
 6518 01a5 19       		.uleb128 0x19
 6519 01a6 03       		.uleb128 0x3
 6520 01a7 0E       		.uleb128 0xe
 6521 01a8 3A       		.uleb128 0x3a
 6522 01a9 0B       		.uleb128 0xb
 6523 01aa 3B       		.uleb128 0x3b
 6524 01ab 05       		.uleb128 0x5
 6525 01ac 27       		.uleb128 0x27
 6526 01ad 19       		.uleb128 0x19
 6527 01ae 11       		.uleb128 0x11
 6528 01af 01       		.uleb128 0x1
 6529 01b0 12       		.uleb128 0x12
 6530 01b1 06       		.uleb128 0x6
 6531 01b2 40       		.uleb128 0x40
 6532 01b3 18       		.uleb128 0x18
 6533 01b4 9642     		.uleb128 0x2116
 6534 01b6 19       		.uleb128 0x19
 6535 01b7 00       		.byte	0
 6536 01b8 00       		.byte	0
 6537 01b9 1E       		.uleb128 0x1e
 6538 01ba 34       		.uleb128 0x34
 6539 01bb 00       		.byte	0
 6540 01bc 03       		.uleb128 0x3
 6541 01bd 0E       		.uleb128 0xe
 6542 01be 3A       		.uleb128 0x3a
 6543 01bf 0B       		.uleb128 0xb
 6544 01c0 3B       		.uleb128 0x3b
 6545 01c1 05       		.uleb128 0x5
 6546 01c2 49       		.uleb128 0x49
ARM GAS  C:\Users\ADMINI~1\AppData\Local\Temp\cczjWrOu.s 			page 167


 6547 01c3 13       		.uleb128 0x13
 6548 01c4 3F       		.uleb128 0x3f
 6549 01c5 19       		.uleb128 0x19
 6550 01c6 3C       		.uleb128 0x3c
 6551 01c7 19       		.uleb128 0x19
 6552 01c8 00       		.byte	0
 6553 01c9 00       		.byte	0
 6554 01ca 1F       		.uleb128 0x1f
 6555 01cb 26       		.uleb128 0x26
 6556 01cc 00       		.byte	0
 6557 01cd 49       		.uleb128 0x49
 6558 01ce 13       		.uleb128 0x13
 6559 01cf 00       		.byte	0
 6560 01d0 00       		.byte	0
 6561 01d1 00       		.byte	0
 6562              		.section	.debug_aranges,"",%progbits
 6563 0000 0C010000 		.4byte	0x10c
 6564 0004 0200     		.2byte	0x2
 6565 0006 00000000 		.4byte	.Ldebug_info0
 6566 000a 04       		.byte	0x4
 6567 000b 00       		.byte	0
 6568 000c 0000     		.2byte	0
 6569 000e 0000     		.2byte	0
 6570 0010 00000000 		.4byte	.LFB0
 6571 0014 AC010000 		.4byte	.LFE0-.LFB0
 6572 0018 00000000 		.4byte	.LFB1
 6573 001c 34000000 		.4byte	.LFE1-.LFB1
 6574 0020 00000000 		.4byte	.LFB2
 6575 0024 E4000000 		.4byte	.LFE2-.LFB2
 6576 0028 00000000 		.4byte	.LFB3
 6577 002c AC000000 		.4byte	.LFE3-.LFB3
 6578 0030 00000000 		.4byte	.LFB4
 6579 0034 88000000 		.4byte	.LFE4-.LFB4
 6580 0038 00000000 		.4byte	.LFB5
 6581 003c AC000000 		.4byte	.LFE5-.LFB5
 6582 0040 00000000 		.4byte	.LFB6
 6583 0044 F8000000 		.4byte	.LFE6-.LFB6
 6584 0048 00000000 		.4byte	.LFB7
 6585 004c 1C000000 		.4byte	.LFE7-.LFB7
 6586 0050 00000000 		.4byte	.LFB8
 6587 0054 44000000 		.4byte	.LFE8-.LFB8
 6588 0058 00000000 		.4byte	.LFB9
 6589 005c 70000000 		.4byte	.LFE9-.LFB9
 6590 0060 00000000 		.4byte	.LFB10
 6591 0064 84000000 		.4byte	.LFE10-.LFB10
 6592 0068 00000000 		.4byte	.LFB11
 6593 006c D0000000 		.4byte	.LFE11-.LFB11
 6594 0070 00000000 		.4byte	.LFB12
 6595 0074 46000000 		.4byte	.LFE12-.LFB12
 6596 0078 00000000 		.4byte	.LFB13
 6597 007c 78000000 		.4byte	.LFE13-.LFB13
 6598 0080 00000000 		.4byte	.LFB14
 6599 0084 48000000 		.4byte	.LFE14-.LFB14
 6600 0088 00000000 		.4byte	.LFB15
 6601 008c 6C000000 		.4byte	.LFE15-.LFB15
 6602 0090 00000000 		.4byte	.LFB16
 6603 0094 22000000 		.4byte	.LFE16-.LFB16
ARM GAS  C:\Users\ADMINI~1\AppData\Local\Temp\cczjWrOu.s 			page 168


 6604 0098 00000000 		.4byte	.LFB17
 6605 009c EC000000 		.4byte	.LFE17-.LFB17
 6606 00a0 00000000 		.4byte	.LFB18
 6607 00a4 64000000 		.4byte	.LFE18-.LFB18
 6608 00a8 00000000 		.4byte	.LFB19
 6609 00ac 92000000 		.4byte	.LFE19-.LFB19
 6610 00b0 00000000 		.4byte	.LFB20
 6611 00b4 CC000000 		.4byte	.LFE20-.LFB20
 6612 00b8 00000000 		.4byte	.LFB21
 6613 00bc F8000000 		.4byte	.LFE21-.LFB21
 6614 00c0 00000000 		.4byte	.LFB22
 6615 00c4 48000000 		.4byte	.LFE22-.LFB22
 6616 00c8 00000000 		.4byte	.LFB23
 6617 00cc 40000000 		.4byte	.LFE23-.LFB23
 6618 00d0 00000000 		.4byte	.LFB24
 6619 00d4 80000000 		.4byte	.LFE24-.LFB24
 6620 00d8 00000000 		.4byte	.LFB25
 6621 00dc 7C000000 		.4byte	.LFE25-.LFB25
 6622 00e0 00000000 		.4byte	.LFB26
 6623 00e4 92000000 		.4byte	.LFE26-.LFB26
 6624 00e8 00000000 		.4byte	.LFB27
 6625 00ec B0000000 		.4byte	.LFE27-.LFB27
 6626 00f0 00000000 		.4byte	.LFB28
 6627 00f4 24000000 		.4byte	.LFE28-.LFB28
 6628 00f8 00000000 		.4byte	.LFB29
 6629 00fc 54000000 		.4byte	.LFE29-.LFB29
 6630 0100 00000000 		.4byte	.LFB30
 6631 0104 44000000 		.4byte	.LFE30-.LFB30
 6632 0108 00000000 		.4byte	0
 6633 010c 00000000 		.4byte	0
 6634              		.section	.debug_ranges,"",%progbits
 6635              	.Ldebug_ranges0:
 6636 0000 00000000 		.4byte	.LFB0
 6637 0004 AC010000 		.4byte	.LFE0
 6638 0008 00000000 		.4byte	.LFB1
 6639 000c 34000000 		.4byte	.LFE1
 6640 0010 00000000 		.4byte	.LFB2
 6641 0014 E4000000 		.4byte	.LFE2
 6642 0018 00000000 		.4byte	.LFB3
 6643 001c AC000000 		.4byte	.LFE3
 6644 0020 00000000 		.4byte	.LFB4
 6645 0024 88000000 		.4byte	.LFE4
 6646 0028 00000000 		.4byte	.LFB5
 6647 002c AC000000 		.4byte	.LFE5
 6648 0030 00000000 		.4byte	.LFB6
 6649 0034 F8000000 		.4byte	.LFE6
 6650 0038 00000000 		.4byte	.LFB7
 6651 003c 1C000000 		.4byte	.LFE7
 6652 0040 00000000 		.4byte	.LFB8
 6653 0044 44000000 		.4byte	.LFE8
 6654 0048 00000000 		.4byte	.LFB9
 6655 004c 70000000 		.4byte	.LFE9
 6656 0050 00000000 		.4byte	.LFB10
 6657 0054 84000000 		.4byte	.LFE10
 6658 0058 00000000 		.4byte	.LFB11
 6659 005c D0000000 		.4byte	.LFE11
 6660 0060 00000000 		.4byte	.LFB12
ARM GAS  C:\Users\ADMINI~1\AppData\Local\Temp\cczjWrOu.s 			page 169


 6661 0064 46000000 		.4byte	.LFE12
 6662 0068 00000000 		.4byte	.LFB13
 6663 006c 78000000 		.4byte	.LFE13
 6664 0070 00000000 		.4byte	.LFB14
 6665 0074 48000000 		.4byte	.LFE14
 6666 0078 00000000 		.4byte	.LFB15
 6667 007c 6C000000 		.4byte	.LFE15
 6668 0080 00000000 		.4byte	.LFB16
 6669 0084 22000000 		.4byte	.LFE16
 6670 0088 00000000 		.4byte	.LFB17
 6671 008c EC000000 		.4byte	.LFE17
 6672 0090 00000000 		.4byte	.LFB18
 6673 0094 64000000 		.4byte	.LFE18
 6674 0098 00000000 		.4byte	.LFB19
 6675 009c 92000000 		.4byte	.LFE19
 6676 00a0 00000000 		.4byte	.LFB20
 6677 00a4 CC000000 		.4byte	.LFE20
 6678 00a8 00000000 		.4byte	.LFB21
 6679 00ac F8000000 		.4byte	.LFE21
 6680 00b0 00000000 		.4byte	.LFB22
 6681 00b4 48000000 		.4byte	.LFE22
 6682 00b8 00000000 		.4byte	.LFB23
 6683 00bc 40000000 		.4byte	.LFE23
 6684 00c0 00000000 		.4byte	.LFB24
 6685 00c4 80000000 		.4byte	.LFE24
 6686 00c8 00000000 		.4byte	.LFB25
 6687 00cc 7C000000 		.4byte	.LFE25
 6688 00d0 00000000 		.4byte	.LFB26
 6689 00d4 92000000 		.4byte	.LFE26
 6690 00d8 00000000 		.4byte	.LFB27
 6691 00dc B0000000 		.4byte	.LFE27
 6692 00e0 00000000 		.4byte	.LFB28
 6693 00e4 24000000 		.4byte	.LFE28
 6694 00e8 00000000 		.4byte	.LFB29
 6695 00ec 54000000 		.4byte	.LFE29
 6696 00f0 00000000 		.4byte	.LFB30
 6697 00f4 44000000 		.4byte	.LFE30
 6698 00f8 00000000 		.4byte	0
 6699 00fc 00000000 		.4byte	0
 6700              		.section	.debug_line,"",%progbits
 6701              	.Ldebug_line0:
 6702 0000 46050000 		.section	.debug_str,"MS",%progbits,1
 6702      0200CD00 
 6702      00000201 
 6702      FB0E0D00 
 6702      01010101 
 6703              	.LASF359:
 6704 0000 4F535F53 		.ascii	"OS_SchedLockTimeMeasStop\000"
 6704      63686564 
 6704      4C6F636B 
 6704      54696D65 
 6704      4D656173 
 6705              	.LASF241:
 6706 0019 6F735F74 		.ascii	"os_tcb\000"
 6706      636200
 6707              	.LASF111:
 6708 0020 4F535F45 		.ascii	"OS_ERR_PRIO_INVALID\000"
ARM GAS  C:\Users\ADMINI~1\AppData\Local\Temp\cczjWrOu.s 			page 170


 6708      52525F50 
 6708      52494F5F 
 6708      494E5641 
 6708      4C494400 
 6709              	.LASF206:
 6710 0034 4F535F45 		.ascii	"OS_ERR\000"
 6710      525200
 6711              	.LASF372:
 6712 003b 4F535072 		.ascii	"OSPrioHighRdy\000"
 6712      696F4869 
 6712      67685264 
 6712      7900
 6713              	.LASF22:
 6714 0049 4F535F43 		.ascii	"OS_CTX_SW_CTR\000"
 6714      54585F53 
 6714      575F4354 
 6714      5200
 6715              	.LASF191:
 6716 0057 4F535F45 		.ascii	"OS_ERR_TMR_ISR\000"
 6716      52525F54 
 6716      4D525F49 
 6716      535200
 6717              	.LASF178:
 6718 0066 4F535F45 		.ascii	"OS_ERR_TIME_INVALID_MINUTES\000"
 6718      52525F54 
 6718      494D455F 
 6718      494E5641 
 6718      4C49445F 
 6719              	.LASF40:
 6720 0082 4F535F45 		.ascii	"OS_ERR_A\000"
 6720      52525F41 
 6720      00
 6721              	.LASF42:
 6722 008b 4F535F45 		.ascii	"OS_ERR_B\000"
 6722      52525F42 
 6722      00
 6723              	.LASF43:
 6724 0094 4F535F45 		.ascii	"OS_ERR_C\000"
 6724      52525F43 
 6724      00
 6725              	.LASF45:
 6726 009d 4F535F45 		.ascii	"OS_ERR_D\000"
 6726      52525F44 
 6726      00
 6727              	.LASF47:
 6728 00a6 4F535F45 		.ascii	"OS_ERR_E\000"
 6728      52525F45 
 6728      00
 6729              	.LASF48:
 6730 00af 4F535F45 		.ascii	"OS_ERR_F\000"
 6730      52525F46 
 6730      00
 6731              	.LASF396:
 6732 00b8 443A5C43 		.ascii	"D:\\CYTEST\\Micrium_CY8CKIT-044_OS3\\Examples\\Cypr"
 6732      59544553 
 6732      545C4D69 
 6732      63726975 
ARM GAS  C:\Users\ADMINI~1\AppData\Local\Temp\cczjWrOu.s 			page 171


 6732      6D5F4359 
 6733 00e7 6573735C 		.ascii	"ess\\CY8CKIT-044\\OS3\\PSoC\\OS3.cydsn\000"
 6733      43593843 
 6733      4B49542D 
 6733      3034345C 
 6733      4F53335C 
 6734              	.LASF55:
 6735 010a 4F535F45 		.ascii	"OS_ERR_H\000"
 6735      52525F48 
 6735      00
 6736              	.LASF56:
 6737 0113 4F535F45 		.ascii	"OS_ERR_I\000"
 6737      52525F49 
 6737      00
 6738              	.LASF64:
 6739 011c 4F535F45 		.ascii	"OS_ERR_J\000"
 6739      52525F4A 
 6739      00
 6740              	.LASF65:
 6741 0125 4F535F45 		.ascii	"OS_ERR_K\000"
 6741      52525F4B 
 6741      00
 6742              	.LASF66:
 6743 012e 4F535F45 		.ascii	"OS_ERR_L\000"
 6743      52525F4C 
 6743      00
 6744              	.LASF68:
 6745 0137 4F535F45 		.ascii	"OS_ERR_M\000"
 6745      52525F4D 
 6745      00
 6746              	.LASF85:
 6747 0140 4F535F45 		.ascii	"OS_ERR_N\000"
 6747      52525F4E 
 6747      00
 6748              	.LASF88:
 6749 0149 4F535F45 		.ascii	"OS_ERR_O\000"
 6749      52525F4F 
 6749      00
 6750              	.LASF98:
 6751 0152 4F535F45 		.ascii	"OS_ERR_P\000"
 6751      52525F50 
 6751      00
 6752              	.LASF113:
 6753 015b 4F535F45 		.ascii	"OS_ERR_Q\000"
 6753      52525F51 
 6753      00
 6754              	.LASF118:
 6755 0164 4F535F45 		.ascii	"OS_ERR_R\000"
 6755      52525F52 
 6755      00
 6756              	.LASF122:
 6757 016d 4F535F45 		.ascii	"OS_ERR_S\000"
 6757      52525F53 
 6757      00
 6758              	.LASF139:
 6759 0176 4F535F45 		.ascii	"OS_ERR_T\000"
 6759      52525F54 
ARM GAS  C:\Users\ADMINI~1\AppData\Local\Temp\cczjWrOu.s 			page 172


 6759      00
 6760              	.LASF199:
 6761 017f 4F535F45 		.ascii	"OS_ERR_U\000"
 6761      52525F55 
 6761      00
 6762              	.LASF200:
 6763 0188 4F535F45 		.ascii	"OS_ERR_V\000"
 6763      52525F56 
 6763      00
 6764              	.LASF201:
 6765 0191 4F535F45 		.ascii	"OS_ERR_W\000"
 6765      52525F57 
 6765      00
 6766              	.LASF202:
 6767 019a 4F535F45 		.ascii	"OS_ERR_X\000"
 6767      52525F58 
 6767      00
 6768              	.LASF188:
 6769 01a3 4F535F45 		.ascii	"OS_ERR_TMR_INVALID_PERIOD\000"
 6769      52525F54 
 6769      4D525F49 
 6769      4E56414C 
 6769      49445F50 
 6770              	.LASF397:
 6771 01bd 6F735F65 		.ascii	"os_err\000"
 6771      727200
 6772              	.LASF304:
 6773 01c4 705F7374 		.ascii	"p_stk\000"
 6773      6B00
 6774              	.LASF227:
 6775 01ca 4E627245 		.ascii	"NbrEntries\000"
 6775      6E747269 
 6775      657300
 6776              	.LASF216:
 6777 01d5 6F735F66 		.ascii	"os_flag_grp\000"
 6777      6C61675F 
 6777      67727000 
 6778              	.LASF60:
 6779 01e1 4F535F45 		.ascii	"OS_ERR_INT_Q_SIZE\000"
 6779      52525F49 
 6779      4E545F51 
 6779      5F53495A 
 6779      4500
 6780              	.LASF44:
 6781 01f3 4F535F45 		.ascii	"OS_ERR_CREATE_ISR\000"
 6781      52525F43 
 6781      52454154 
 6781      455F4953 
 6781      5200
 6782              	.LASF233:
 6783 0205 4F776E65 		.ascii	"OwnerNestingCtr\000"
 6783      724E6573 
 6783      74696E67 
 6783      43747200 
 6784              	.LASF21:
 6785 0215 4F535F43 		.ascii	"OS_CPU_USAGE\000"
 6785      50555F55 
ARM GAS  C:\Users\ADMINI~1\AppData\Local\Temp\cczjWrOu.s 			page 173


 6785      53414745 
 6785      00
 6786              	.LASF172:
 6787 0222 4F535F45 		.ascii	"OS_ERR_TICK_STK_SIZE_INVALID\000"
 6787      52525F54 
 6787      49434B5F 
 6787      53544B5F 
 6787      53495A45 
 6788              	.LASF8:
 6789 023f 4350555F 		.ascii	"CPU_INT32U\000"
 6789      494E5433 
 6789      325500
 6790              	.LASF388:
 6791 024a 4F535443 		.ascii	"OSTCBHighRdyPtr\000"
 6791      42486967 
 6791      68526479 
 6791      50747200 
 6792              	.LASF387:
 6793 025a 4F535443 		.ascii	"OSTCBCurPtr\000"
 6793      42437572 
 6793      50747200 
 6794              	.LASF229:
 6795 0266 4F535F4D 		.ascii	"OS_MUTEX\000"
 6795      55544558 
 6795      00
 6796              	.LASF136:
 6797 026f 4F535F45 		.ascii	"OS_ERR_STK_INVALID\000"
 6797      52525F53 
 6797      544B5F49 
 6797      4E56414C 
 6797      494400
 6798              	.LASF315:
 6799 0282 4F535F49 		.ascii	"OS_IdleTask\000"
 6799      646C6554 
 6799      61736B00 
 6800              	.LASF331:
 6801 028e 4F535F50 		.ascii	"OS_PendDbgNameRemove\000"
 6801      656E6444 
 6801      62674E61 
 6801      6D655265 
 6801      6D6F7665 
 6802              	.LASF324:
 6803 02a3 4F535F50 		.ascii	"OS_PendAbort\000"
 6803      656E6441 
 6803      626F7274 
 6803      00
 6804              	.LASF268:
 6805 02b0 466C6167 		.ascii	"FlagsOpt\000"
 6805      734F7074 
 6805      00
 6806              	.LASF152:
 6807 02b9 4F535F45 		.ascii	"OS_ERR_TASK_RESUME_ISR\000"
 6807      52525F54 
 6807      41534B5F 
 6807      52455355 
 6807      4D455F49 
 6808              	.LASF106:
ARM GAS  C:\Users\ADMINI~1\AppData\Local\Temp\cczjWrOu.s 			page 174


 6809 02d0 4F535F45 		.ascii	"OS_ERR_PEND_WOULD_BLOCK\000"
 6809      52525F50 
 6809      454E445F 
 6809      574F554C 
 6809      445F424C 
 6810              	.LASF140:
 6811 02e8 4F535F45 		.ascii	"OS_ERR_TASK_CHANGE_PRIO_ISR\000"
 6811      52525F54 
 6811      41534B5F 
 6811      4348414E 
 6811      47455F50 
 6812              	.LASF340:
 6813 0304 4F535F50 		.ascii	"OS_PendListRemove\000"
 6813      656E644C 
 6813      69737452 
 6813      656D6F76 
 6813      6500
 6814              	.LASF378:
 6815 0316 4F535363 		.ascii	"OSSchedLockTimeMaxCur\000"
 6815      6865644C 
 6815      6F636B54 
 6815      696D654D 
 6815      61784375 
 6816              	.LASF258:
 6817 032c 4D757465 		.ascii	"MutexGrpHeadPtr\000"
 6817      78477270 
 6817      48656164 
 6817      50747200 
 6818              	.LASF386:
 6819 033c 4F535469 		.ascii	"OSTickListTimeout\000"
 6819      636B4C69 
 6819      73745469 
 6819      6D656F75 
 6819      7400
 6820              	.LASF63:
 6821 034e 4F535F45 		.ascii	"OS_ERR_ILLEGAL_DEL_RUN_TIME\000"
 6821      52525F49 
 6821      4C4C4547 
 6821      414C5F44 
 6821      454C5F52 
 6822              	.LASF130:
 6823 036a 4F535F45 		.ascii	"OS_ERR_STAT_RESET_ISR\000"
 6823      52525F53 
 6823      5441545F 
 6823      52455345 
 6823      545F4953 
 6824              	.LASF375:
 6825 0380 4F535264 		.ascii	"OSRdyList\000"
 6825      794C6973 
 6825      7400
 6826              	.LASF369:
 6827 038a 4F534D75 		.ascii	"OSMutexDbgListPtr\000"
 6827      74657844 
 6827      62674C69 
 6827      73745074 
 6827      7200
 6828              	.LASF105:
ARM GAS  C:\Users\ADMINI~1\AppData\Local\Temp\cczjWrOu.s 			page 175


 6829 039c 4F535F45 		.ascii	"OS_ERR_PEND_LOCKED\000"
 6829      52525F50 
 6829      454E445F 
 6829      4C4F434B 
 6829      454400
 6830              	.LASF394:
 6831 03af 474E5520 		.ascii	"GNU C11 5.4.1 20160609 (release) [ARM/embedded-5-br"
 6831      43313120 
 6831      352E342E 
 6831      31203230 
 6831      31363036 
 6832 03e2 616E6368 		.ascii	"anch revision 237715] -mcpu=cortex-m0 -mthumb -g -O"
 6832      20726576 
 6832      6973696F 
 6832      6E203233 
 6832      37373135 
 6833 0415 30202D66 		.ascii	"0 -ffunction-sections -ffat-lto-objects\000"
 6833      66756E63 
 6833      74696F6E 
 6833      2D736563 
 6833      74696F6E 
 6834              	.LASF150:
 6835 043d 4F535F45 		.ascii	"OS_ERR_TASK_NOT_SUSPENDED\000"
 6835      52525F54 
 6835      41534B5F 
 6835      4E4F545F 
 6835      53555350 
 6836              	.LASF349:
 6837 0457 705F7264 		.ascii	"p_rdy_list\000"
 6837      795F6C69 
 6837      737400
 6838              	.LASF84:
 6839 0462 4F535F45 		.ascii	"OS_ERR_MUTEX_OVF\000"
 6839      52525F4D 
 6839      55544558 
 6839      5F4F5646 
 6839      00
 6840              	.LASF148:
 6841 0473 4F535F45 		.ascii	"OS_ERR_TASK_NOT_DLY\000"
 6841      52525F54 
 6841      41534B5F 
 6841      4E4F545F 
 6841      444C5900 
 6842              	.LASF211:
 6843 0487 44626750 		.ascii	"DbgPrevPtr\000"
 6843      72657650 
 6843      747200
 6844              	.LASF306:
 6845 0492 4F53496E 		.ascii	"OSInit\000"
 6845      697400
 6846              	.LASF58:
 6847 0499 4F535F45 		.ascii	"OS_ERR_INT_Q\000"
 6847      52525F49 
 6847      4E545F51 
 6847      00
 6848              	.LASF212:
 6849 04a6 4462674E 		.ascii	"DbgNextPtr\000"
ARM GAS  C:\Users\ADMINI~1\AppData\Local\Temp\cczjWrOu.s 			page 176


 6849      65787450 
 6849      747200
 6850              	.LASF282:
 6851 04b1 53636865 		.ascii	"SchedLockTimeMax\000"
 6851      644C6F63 
 6851      6B54696D 
 6851      654D6178 
 6851      00
 6852              	.LASF162:
 6853 04c2 4F535F45 		.ascii	"OS_ERR_TASK_WAITING\000"
 6853      52525F54 
 6853      41534B5F 
 6853      57414954 
 6853      494E4700 
 6854              	.LASF326:
 6855 04d6 4F535F50 		.ascii	"OS_PendDataInit\000"
 6855      656E6444 
 6855      61746149 
 6855      6E697400 
 6856              	.LASF334:
 6857 04e6 4F535F50 		.ascii	"OS_PendListInit\000"
 6857      656E644C 
 6857      69737449 
 6857      6E697400 
 6858              	.LASF20:
 6859 04f6 4350555F 		.ascii	"CPU_TS_TMR\000"
 6859      54535F54 
 6859      4D5200
 6860              	.LASF160:
 6861 0501 4F535F45 		.ascii	"OS_ERR_TASK_SUSPEND_ISR\000"
 6861      52525F54 
 6861      41534B5F 
 6861      53555350 
 6861      454E445F 
 6862              	.LASF348:
 6863 0519 4F535F52 		.ascii	"OS_RdyListInit\000"
 6863      64794C69 
 6863      7374496E 
 6863      697400
 6864              	.LASF83:
 6865 0528 4F535F45 		.ascii	"OS_ERR_MUTEX_NESTING\000"
 6865      52525F4D 
 6865      55544558 
 6865      5F4E4553 
 6865      54494E47 
 6866              	.LASF381:
 6867 053d 4F535365 		.ascii	"OSSemQty\000"
 6867      6D517479 
 6867      00
 6868              	.LASF323:
 6869 0546 705F7065 		.ascii	"p_pend_list\000"
 6869      6E645F6C 
 6869      69737400 
 6870              	.LASF189:
 6871 0552 4F535F45 		.ascii	"OS_ERR_TMR_INVALID_STATE\000"
 6871      52525F54 
 6871      4D525F49 
ARM GAS  C:\Users\ADMINI~1\AppData\Local\Temp\cczjWrOu.s 			page 177


 6871      4E56414C 
 6871      49445F53 
 6872              	.LASF253:
 6873 056b 50656E64 		.ascii	"PendOn\000"
 6873      4F6E00
 6874              	.LASF89:
 6875 0572 4F535F45 		.ascii	"OS_ERR_OBJ_CREATED\000"
 6875      52525F4F 
 6875      424A5F43 
 6875      52454154 
 6875      454400
 6876              	.LASF370:
 6877 0585 4F534D75 		.ascii	"OSMutexQty\000"
 6877      74657851 
 6877      747900
 6878              	.LASF289:
 6879 0590 5443425F 		.ascii	"TCB_Ptr\000"
 6879      50747200 
 6880              	.LASF286:
 6881 0598 5461696C 		.ascii	"TailPtr\000"
 6881      50747200 
 6882              	.LASF346:
 6883 05a0 705F766F 		.ascii	"p_void\000"
 6883      696400
 6884              	.LASF158:
 6885 05a7 4F535F45 		.ascii	"OS_ERR_TASK_SUSPEND_IDLE\000"
 6885      52525F54 
 6885      41534B5F 
 6885      53555350 
 6885      454E445F 
 6886              	.LASF59:
 6887 05c0 4F535F45 		.ascii	"OS_ERR_INT_Q_FULL\000"
 6887      52525F49 
 6887      4E545F51 
 6887      5F46554C 
 6887      4C00
 6888              	.LASF321:
 6889 05d2 70656E64 		.ascii	"pending_on\000"
 6889      696E675F 
 6889      6F6E00
 6890              	.LASF296:
 6891 05dd 5264794D 		.ascii	"RdyMsgPtr\000"
 6891      73675074 
 6891      7200
 6892              	.LASF302:
 6893 05e7 6F735F70 		.ascii	"os_pend_obj\000"
 6893      656E645F 
 6893      6F626A00 
 6894              	.LASF57:
 6895 05f3 4F535F45 		.ascii	"OS_ERR_ILLEGAL_CREATE_RUN_TIME\000"
 6895      52525F49 
 6895      4C4C4547 
 6895      414C5F43 
 6895      52454154 
 6896              	.LASF266:
 6897 0612 466C6167 		.ascii	"FlagsPend\000"
 6897      7350656E 
ARM GAS  C:\Users\ADMINI~1\AppData\Local\Temp\cczjWrOu.s 			page 178


 6897      6400
 6898              	.LASF187:
 6899 061c 4F535F45 		.ascii	"OS_ERR_TMR_INVALID_DLY\000"
 6899      52525F54 
 6899      4D525F49 
 6899      4E56414C 
 6899      49445F44 
 6900              	.LASF29:
 6901 0633 4F535F4F 		.ascii	"OS_OBJ_QTY\000"
 6901      424A5F51 
 6901      545900
 6902              	.LASF318:
 6903 063e 4F535F50 		.ascii	"OS_Pend\000"
 6903      656E6400 
 6904              	.LASF41:
 6905 0646 4F535F45 		.ascii	"OS_ERR_ACCEPT_ISR\000"
 6905      52525F41 
 6905      43434550 
 6905      545F4953 
 6905      5200
 6906              	.LASF272:
 6907 0658 43747853 		.ascii	"CtxSwCtr\000"
 6907      77437472 
 6907      00
 6908              	.LASF357:
 6909 0661 4F53496E 		.ascii	"OSIntEnter\000"
 6909      74456E74 
 6909      657200
 6910              	.LASF305:
 6911 066c 73697A65 		.ascii	"size\000"
 6911      00
 6912              	.LASF153:
 6913 0671 4F535F45 		.ascii	"OS_ERR_TASK_RESUME_PRIO\000"
 6913      52525F54 
 6913      41534B5F 
 6913      52455355 
 6913      4D455F50 
 6914              	.LASF337:
 6915 0689 705F7463 		.ascii	"p_tcb_next\000"
 6915      625F6E65 
 6915      787400
 6916              	.LASF351:
 6917 0694 4F535F52 		.ascii	"OS_RdyListInsertHead\000"
 6917      64794C69 
 6917      7374496E 
 6917      73657274 
 6917      48656164 
 6918              	.LASF214:
 6919 06a9 466C6167 		.ascii	"Flags\000"
 6919      7300
 6920              	.LASF32:
 6921 06af 4F535F50 		.ascii	"OS_PRIO\000"
 6921      52494F00 
 6922              	.LASF385:
 6923 06b7 4F535461 		.ascii	"OSTaskRegNextAvailID\000"
 6923      736B5265 
 6923      674E6578 
ARM GAS  C:\Users\ADMINI~1\AppData\Local\Temp\cczjWrOu.s 			page 179


 6923      74417661 
 6923      696C4944 
 6924              	.LASF12:
 6925 06cc 666C6F61 		.ascii	"float\000"
 6925      7400
 6926              	.LASF107:
 6927 06d2 4F535F45 		.ascii	"OS_ERR_POST_NULL_PTR\000"
 6927      52525F50 
 6927      4F53545F 
 6927      4E554C4C 
 6927      5F505452 
 6928              	.LASF87:
 6929 06e7 4F535F45 		.ascii	"OS_ERR_NO_MORE_ID_AVAIL\000"
 6929      52525F4E 
 6929      4F5F4D4F 
 6929      52455F49 
 6929      445F4156 
 6930              	.LASF76:
 6931 06ff 4F535F45 		.ascii	"OS_ERR_MEM_INVALID_P_DATA\000"
 6931      52525F4D 
 6931      454D5F49 
 6931      4E56414C 
 6931      49445F50 
 6932              	.LASF308:
 6933 0719 6370755F 		.ascii	"cpu_sr\000"
 6933      737200
 6934              	.LASF192:
 6935 0720 4F535F45 		.ascii	"OS_ERR_TMR_NO_CALLBACK\000"
 6935      52525F54 
 6935      4D525F4E 
 6935      4F5F4341 
 6935      4C4C4241 
 6936              	.LASF185:
 6937 0737 4F535F45 		.ascii	"OS_ERR_TMR_INACTIVE\000"
 6937      52525F54 
 6937      4D525F49 
 6937      4E414354 
 6937      49564500 
 6938              	.LASF165:
 6939 074b 4F535F45 		.ascii	"OS_ERR_TLS_ID_INVALID\000"
 6939      52525F54 
 6939      4C535F49 
 6939      445F494E 
 6939      56414C49 
 6940              	.LASF10:
 6941 0761 6C6F6E67 		.ascii	"long long unsigned int\000"
 6941      206C6F6E 
 6941      6720756E 
 6941      7369676E 
 6941      65642069 
 6942              	.LASF155:
 6943 0778 4F535F45 		.ascii	"OS_ERR_TASK_RUNNING\000"
 6943      52525F54 
 6943      41534B5F 
 6943      52554E4E 
 6943      494E4700 
 6944              	.LASF279:
ARM GAS  C:\Users\ADMINI~1\AppData\Local\Temp\cczjWrOu.s 			page 180


 6945 078c 53746B55 		.ascii	"StkUsed\000"
 6945      73656400 
 6946              	.LASF284:
 6947 0794 6F735F72 		.ascii	"os_rdy_list\000"
 6947      64795F6C 
 6947      69737400 
 6948              	.LASF190:
 6949 07a0 4F535F45 		.ascii	"OS_ERR_TMR_INVALID\000"
 6949      52525F54 
 6949      4D525F49 
 6949      4E56414C 
 6949      494400
 6950              	.LASF291:
 6951 07b3 4F535F50 		.ascii	"OS_PEND_DATA\000"
 6951      454E445F 
 6951      44415441 
 6951      00
 6952              	.LASF159:
 6953 07c0 4F535F45 		.ascii	"OS_ERR_TASK_SUSPEND_INT_HANDLER\000"
 6953      52525F54 
 6953      41534B5F 
 6953      53555350 
 6953      454E445F 
 6954              	.LASF144:
 6955 07e0 4F535F45 		.ascii	"OS_ERR_TASK_DEL_INVALID\000"
 6955      52525F54 
 6955      41534B5F 
 6955      44454C5F 
 6955      494E5641 
 6956              	.LASF362:
 6957 07f8 4F534964 		.ascii	"OSIdleTaskCtr\000"
 6957      6C655461 
 6957      736B4374 
 6957      7200
 6958              	.LASF317:
 6959 0806 4F535F49 		.ascii	"OS_IdleTaskInit\000"
 6959      646C6554 
 6959      61736B49 
 6959      6E697400 
 6960              	.LASF380:
 6961 0816 4F535365 		.ascii	"OSSemDbgListPtr\000"
 6961      6D446267 
 6961      4C697374 
 6961      50747200 
 6962              	.LASF350:
 6963 0826 4F535F52 		.ascii	"OS_RdyListInsert\000"
 6963      64794C69 
 6963      7374496E 
 6963      73657274 
 6963      00
 6964              	.LASF290:
 6965 0837 4E627255 		.ascii	"NbrUpdated\000"
 6965      70646174 
 6965      656400
 6966              	.LASF195:
 6967 0842 4F535F45 		.ascii	"OS_ERR_TMR_STK_INVALID\000"
 6967      52525F54 
ARM GAS  C:\Users\ADMINI~1\AppData\Local\Temp\cczjWrOu.s 			page 181


 6967      4D525F53 
 6967      544B5F49 
 6967      4E56414C 
 6968              	.LASF283:
 6969 0859 4F535F52 		.ascii	"OS_RDY_LIST\000"
 6969      44595F4C 
 6969      49535400 
 6970              	.LASF3:
 6971 0865 4350555F 		.ascii	"CPU_INT08U\000"
 6971      494E5430 
 6971      385500
 6972              	.LASF217:
 6973 0870 6F735F6D 		.ascii	"os_msg\000"
 6973      736700
 6974              	.LASF164:
 6975 0877 4F535F45 		.ascii	"OS_ERR_TCB_INVALID\000"
 6975      52525F54 
 6975      43425F49 
 6975      4E56414C 
 6975      494400
 6976              	.LASF320:
 6977 088a 705F6F62 		.ascii	"p_obj\000"
 6977      6A00
 6978              	.LASF332:
 6979 0890 4F535F50 		.ascii	"OS_PendListChangePrio\000"
 6979      656E644C 
 6979      69737443 
 6979      68616E67 
 6979      65507269 
 6980              	.LASF259:
 6981 08a6 53746B53 		.ascii	"StkSize\000"
 6981      697A6500 
 6982              	.LASF249:
 6983 08ae 53746B42 		.ascii	"StkBasePtr\000"
 6983      61736550 
 6983      747200
 6984              	.LASF115:
 6985 08b9 4F535F45 		.ascii	"OS_ERR_Q_EMPTY\000"
 6985      52525F51 
 6985      5F454D50 
 6985      545900
 6986              	.LASF180:
 6987 08c8 4F535F45 		.ascii	"OS_ERR_TIME_INVALID_MILLISECONDS\000"
 6987      52525F54 
 6987      494D455F 
 6987      494E5641 
 6987      4C49445F 
 6988              	.LASF371:
 6989 08e9 4F535072 		.ascii	"OSPrioCur\000"
 6989      696F4375 
 6989      7200
 6990              	.LASF33:
 6991 08f3 4F535F52 		.ascii	"OS_REG\000"
 6991      454700
 6992              	.LASF86:
 6993 08fa 4F535F45 		.ascii	"OS_ERR_NAME\000"
 6993      52525F4E 
ARM GAS  C:\Users\ADMINI~1\AppData\Local\Temp\cczjWrOu.s 			page 182


 6993      414D4500 
 6994              	.LASF344:
 6995 0906 4F535F50 		.ascii	"OS_PendObjDel\000"
 6995      656E644F 
 6995      626A4465 
 6995      6C00
 6996              	.LASF363:
 6997 0914 4F534964 		.ascii	"OSIdleTaskTCB\000"
 6997      6C655461 
 6997      736B5443 
 6997      4200
 6998              	.LASF373:
 6999 0922 4F535144 		.ascii	"OSQDbgListPtr\000"
 6999      62674C69 
 6999      73745074 
 6999      7200
 7000              	.LASF37:
 7001 0930 4F535F53 		.ascii	"OS_STATUS\000"
 7001      54415455 
 7001      5300
 7002              	.LASF255:
 7003 093a 5461736B 		.ascii	"TaskState\000"
 7003      53746174 
 7003      6500
 7004              	.LASF169:
 7005 0944 4F535F45 		.ascii	"OS_ERR_TLS_DESTRUCT_ASSIGNED\000"
 7005      52525F54 
 7005      4C535F44 
 7005      45535452 
 7005      5543545F 
 7006              	.LASF81:
 7007 0961 4F535F45 		.ascii	"OS_ERR_MUTEX_NOT_OWNER\000"
 7007      52525F4D 
 7007      55544558 
 7007      5F4E4F54 
 7007      5F4F574E 
 7008              	.LASF27:
 7009 0978 4F535F4D 		.ascii	"OS_MSG_SIZE\000"
 7009      53475F53 
 7009      495A4500 
 7010              	.LASF177:
 7011 0984 4F535F45 		.ascii	"OS_ERR_TIME_INVALID_HOURS\000"
 7011      52525F54 
 7011      494D455F 
 7011      494E5641 
 7011      4C49445F 
 7012              	.LASF193:
 7013 099e 4F535F45 		.ascii	"OS_ERR_TMR_NON_AVAIL\000"
 7013      52525F54 
 7013      4D525F4E 
 7013      4F4E5F41 
 7013      5641494C 
 7014              	.LASF232:
 7015 09b3 4F776E65 		.ascii	"OwnerTCBPtr\000"
 7015      72544342 
 7015      50747200 
 7016              	.LASF2:
ARM GAS  C:\Users\ADMINI~1\AppData\Local\Temp\cczjWrOu.s 			page 183


 7017 09bf 4350555F 		.ascii	"CPU_CHAR\000"
 7017      43484152 
 7017      00
 7018              	.LASF141:
 7019 09c8 4F535F45 		.ascii	"OS_ERR_TASK_CREATE_ISR\000"
 7019      52525F54 
 7019      41534B5F 
 7019      43524541 
 7019      54455F49 
 7020              	.LASF335:
 7021 09df 4F535F50 		.ascii	"OS_PendListInsertPrio\000"
 7021      656E644C 
 7021      69737449 
 7021      6E736572 
 7021      74507269 
 7022              	.LASF389:
 7023 09f5 4F534366 		.ascii	"OSCfg_IdleTaskStkBasePtr\000"
 7023      675F4964 
 7023      6C655461 
 7023      736B5374 
 7023      6B426173 
 7024              	.LASF16:
 7025 0a0e 4350555F 		.ascii	"CPU_STK_SIZE\000"
 7025      53544B5F 
 7025      53495A45 
 7025      00
 7026              	.LASF26:
 7027 0a1b 4F535F4D 		.ascii	"OS_MSG_QTY\000"
 7027      53475F51 
 7027      545900
 7028              	.LASF95:
 7029 0a26 4F535F45 		.ascii	"OS_ERR_OS_RUNNING\000"
 7029      52525F4F 
 7029      535F5255 
 7029      4E4E494E 
 7029      4700
 7030              	.LASF280:
 7031 0a38 53746B46 		.ascii	"StkFree\000"
 7031      72656500 
 7032              	.LASF262:
 7033 0a40 5469636B 		.ascii	"TickCtrPrev\000"
 7033      43747250 
 7033      72657600 
 7034              	.LASF226:
 7035 0a4c 4E627245 		.ascii	"NbrEntriesSize\000"
 7035      6E747269 
 7035      65735369 
 7035      7A6500
 7036              	.LASF183:
 7037 0a5b 4F535F45 		.ascii	"OS_ERR_TIME_ZERO_DLY\000"
 7037      52525F54 
 7037      494D455F 
 7037      5A45524F 
 7037      5F444C59 
 7038              	.LASF383:
 7039 0a70 4F535461 		.ascii	"OSTaskCtxSwCtr\000"
 7039      736B4374 
ARM GAS  C:\Users\ADMINI~1\AppData\Local\Temp\cczjWrOu.s 			page 184


 7039      78537743 
 7039      747200
 7040              	.LASF247:
 7041 0a7f 5469636B 		.ascii	"TickPrevPtr\000"
 7041      50726576 
 7041      50747200 
 7042              	.LASF267:
 7043 0a8b 466C6167 		.ascii	"FlagsRdy\000"
 7043      73526479 
 7043      00
 7044              	.LASF132:
 7045 0a94 4F535F45 		.ascii	"OS_ERR_STAT_STK_INVALID\000"
 7045      52525F53 
 7045      5441545F 
 7045      53544B5F 
 7045      494E5641 
 7046              	.LASF338:
 7047 0aac 705F7065 		.ascii	"p_pend_data_prev\000"
 7047      6E645F64 
 7047      6174615F 
 7047      70726576 
 7047      00
 7048              	.LASF50:
 7049 0abd 4F535F45 		.ascii	"OS_ERR_FLAG_GRP_DEPLETED\000"
 7049      52525F46 
 7049      4C41475F 
 7049      4752505F 
 7049      4445504C 
 7050              	.LASF72:
 7051 0ad6 4F535F45 		.ascii	"OS_ERR_MEM_INVALID_BLKS\000"
 7051      52525F4D 
 7051      454D5F49 
 7051      4E56414C 
 7051      49445F42 
 7052              	.LASF257:
 7053 0aee 42617365 		.ascii	"BasePrio\000"
 7053      5072696F 
 7053      00
 7054              	.LASF234:
 7055 0af7 4F535F51 		.ascii	"OS_Q\000"
 7055      00
 7056              	.LASF264:
 7057 0afc 4D736751 		.ascii	"MsgQPendTimeMax\000"
 7057      50656E64 
 7057      54696D65 
 7057      4D617800 
 7058              	.LASF96:
 7059 0b0c 4F535F45 		.ascii	"OS_ERR_OS_NOT_INIT\000"
 7059      52525F4F 
 7059      535F4E4F 
 7059      545F494E 
 7059      495400
 7060              	.LASF215:
 7061 0b1f 4F535F4D 		.ascii	"OS_MSG\000"
 7061      534700
 7062              	.LASF186:
 7063 0b26 4F535F45 		.ascii	"OS_ERR_TMR_INVALID_DEST\000"
ARM GAS  C:\Users\ADMINI~1\AppData\Local\Temp\cczjWrOu.s 			page 185


 7063      52525F54 
 7063      4D525F49 
 7063      4E56414C 
 7063      49445F44 
 7064              	.LASF124:
 7065 0b3e 4F535F45 		.ascii	"OS_ERR_SCHED_LOCK_ISR\000"
 7065      52525F53 
 7065      43484544 
 7065      5F4C4F43 
 7065      4B5F4953 
 7066              	.LASF46:
 7067 0b54 4F535F45 		.ascii	"OS_ERR_DEL_ISR\000"
 7067      52525F44 
 7067      454C5F49 
 7067      535200
 7068              	.LASF311:
 7069 0b63 705F6572 		.ascii	"p_err\000"
 7069      7200
 7070              	.LASF116:
 7071 0b69 4F535F45 		.ascii	"OS_ERR_Q_MAX\000"
 7071      52525F51 
 7071      5F4D4158 
 7071      00
 7072              	.LASF319:
 7073 0b76 705F7065 		.ascii	"p_pend_data\000"
 7073      6E645F64 
 7073      61746100 
 7074              	.LASF245:
 7075 0b82 50726576 		.ascii	"PrevPtr\000"
 7075      50747200 
 7076              	.LASF0:
 7077 0b8a 63686172 		.ascii	"char\000"
 7077      00
 7078              	.LASF30:
 7079 0b8f 4F535F4F 		.ascii	"OS_OBJ_TYPE\000"
 7079      424A5F54 
 7079      59504500 
 7080              	.LASF168:
 7081 0b9b 4F535F45 		.ascii	"OS_ERR_TLS_NOT_EN\000"
 7081      52525F54 
 7081      4C535F4E 
 7081      4F545F45 
 7081      4E00
 7082              	.LASF93:
 7083 0bad 4F535F45 		.ascii	"OS_ERR_OPT_INVALID\000"
 7083      52525F4F 
 7083      50545F49 
 7083      4E56414C 
 7083      494400
 7084              	.LASF17:
 7085 0bc0 4350555F 		.ascii	"CPU_SR\000"
 7085      535200
 7086              	.LASF123:
 7087 0bc7 4F535F45 		.ascii	"OS_ERR_SCHED_INVALID_TIME_SLICE\000"
 7087      52525F53 
 7087      43484544 
 7087      5F494E56 
ARM GAS  C:\Users\ADMINI~1\AppData\Local\Temp\cczjWrOu.s 			page 186


 7087      414C4944 
 7088              	.LASF97:
 7089 0be7 4F535F45 		.ascii	"OS_ERR_OS_NO_APP_TASK\000"
 7089      52525F4F 
 7089      535F4E4F 
 7089      5F415050 
 7089      5F544153 
 7090              	.LASF310:
 7091 0bfd 4F535363 		.ascii	"OSSchedLock\000"
 7091      6865644C 
 7091      6F636B00 
 7092              	.LASF393:
 7093 0c09 4F534366 		.ascii	"OSCfg_ISRStkSize\000"
 7093      675F4953 
 7093      5253746B 
 7093      53697A65 
 7093      00
 7094              	.LASF236:
 7095 0c1a 4D736751 		.ascii	"MsgQ\000"
 7095      00
 7096              	.LASF250:
 7097 0c1f 5461736B 		.ascii	"TaskEntryAddr\000"
 7097      456E7472 
 7097      79416464 
 7097      7200
 7098              	.LASF131:
 7099 0c2d 4F535F45 		.ascii	"OS_ERR_STAT_PRIO_INVALID\000"
 7099      52525F53 
 7099      5441545F 
 7099      5052494F 
 7099      5F494E56 
 7100              	.LASF181:
 7101 0c46 4F535F45 		.ascii	"OS_ERR_TIME_NOT_DLY\000"
 7101      52525F54 
 7101      494D455F 
 7101      4E4F545F 
 7101      444C5900 
 7102              	.LASF209:
 7103 0c5a 4E616D65 		.ascii	"NamePtr\000"
 7103      50747200 
 7104              	.LASF254:
 7105 0c62 50656E64 		.ascii	"PendStatus\000"
 7105      53746174 
 7105      757300
 7106              	.LASF222:
 7107 0c6d 4F535F4D 		.ascii	"OS_MSG_Q\000"
 7107      53475F51 
 7107      00
 7108              	.LASF208:
 7109 0c76 54797065 		.ascii	"Type\000"
 7109      00
 7110              	.LASF342:
 7111 0c7b 705F7072 		.ascii	"p_prev\000"
 7111      657600
 7112              	.LASF204:
 7113 0c82 4F535F45 		.ascii	"OS_ERR_YIELD_ISR\000"
 7113      52525F59 
ARM GAS  C:\Users\ADMINI~1\AppData\Local\Temp\cczjWrOu.s 			page 187


 7113      49454C44 
 7113      5F495352 
 7113      00
 7114              	.LASF90:
 7115 0c93 4F535F45 		.ascii	"OS_ERR_OBJ_DEL\000"
 7115      52525F4F 
 7115      424A5F44 
 7115      454C00
 7116              	.LASF390:
 7117 0ca2 4F534366 		.ascii	"OSCfg_IdleTaskStkLimit\000"
 7117      675F4964 
 7117      6C655461 
 7117      736B5374 
 7117      6B4C696D 
 7118              	.LASF19:
 7119 0cb9 4350555F 		.ascii	"CPU_TS\000"
 7119      545300
 7120              	.LASF11:
 7121 0cc0 6C6F6E67 		.ascii	"long long int\000"
 7121      206C6F6E 
 7121      6720696E 
 7121      7400
 7122              	.LASF329:
 7123 0cce 4F535F50 		.ascii	"OS_PendDbgNameAdd\000"
 7123      656E6444 
 7123      62674E61 
 7123      6D654164 
 7123      6400
 7124              	.LASF52:
 7125 0ce0 4F535F45 		.ascii	"OS_ERR_FLAG_PEND_OPT\000"
 7125      52525F46 
 7125      4C41475F 
 7125      50454E44 
 7125      5F4F5054 
 7126              	.LASF242:
 7127 0cf5 53746B50 		.ascii	"StkPtr\000"
 7127      747200
 7128              	.LASF325:
 7129 0cfc 705F7463 		.ascii	"p_tcb\000"
 7129      6200
 7130              	.LASF163:
 7131 0d02 4F535F45 		.ascii	"OS_ERR_TASK_SUSPEND_CTR_OVF\000"
 7131      52525F54 
 7131      41534B5F 
 7131      53555350 
 7131      454E445F 
 7132              	.LASF365:
 7133 0d1e 4F535275 		.ascii	"OSRunning\000"
 7133      6E6E696E 
 7133      6700
 7134              	.LASF117:
 7135 0d28 4F535F45 		.ascii	"OS_ERR_Q_SIZE\000"
 7135      52525F51 
 7135      5F53495A 
 7135      4500
 7136              	.LASF274:
 7137 0d36 4379636C 		.ascii	"CyclesStart\000"
ARM GAS  C:\Users\ADMINI~1\AppData\Local\Temp\cczjWrOu.s 			page 188


 7137      65735374 
 7137      61727400 
 7138              	.LASF312:
 7139 0d42 4F535363 		.ascii	"OSSchedUnlock\000"
 7139      68656455 
 7139      6E6C6F63 
 7139      6B00
 7140              	.LASF25:
 7141 0d50 4F535F49 		.ascii	"OS_IDLE_CTR\000"
 7141      444C455F 
 7141      43545200 
 7142              	.LASF384:
 7143 0d5c 4F535461 		.ascii	"OSTaskQty\000"
 7143      736B5174 
 7143      7900
 7144              	.LASF333:
 7145 0d66 6E5F7065 		.ascii	"n_pend_list\000"
 7145      6E645F6C 
 7145      69737400 
 7146              	.LASF293:
 7147 0d72 54434250 		.ascii	"TCBPtr\000"
 7147      747200
 7148              	.LASF102:
 7149 0d79 4F535F45 		.ascii	"OS_ERR_PEND_ABORT_SELF\000"
 7149      52525F50 
 7149      454E445F 
 7149      41424F52 
 7149      545F5345 
 7150              	.LASF5:
 7151 0d90 4350555F 		.ascii	"CPU_INT16U\000"
 7151      494E5431 
 7151      365500
 7152              	.LASF121:
 7153 0d9b 4F535F45 		.ascii	"OS_ERR_ROUND_ROBIN_DISABLED\000"
 7153      52525F52 
 7153      4F554E44 
 7153      5F524F42 
 7153      494E5F44 
 7154              	.LASF73:
 7155 0db7 4F535F45 		.ascii	"OS_ERR_MEM_INVALID_PART\000"
 7155      52525F4D 
 7155      454D5F49 
 7155      4E56414C 
 7155      49445F50 
 7156              	.LASF91:
 7157 0dcf 4F535F45 		.ascii	"OS_ERR_OBJ_PTR_NULL\000"
 7157      52525F4F 
 7157      424A5F50 
 7157      54525F4E 
 7157      554C4C00 
 7158              	.LASF119:
 7159 0de3 4F535F45 		.ascii	"OS_ERR_REG_ID_INVALID\000"
 7159      52525F52 
 7159      45475F49 
 7159      445F494E 
 7159      56414C49 
 7160              	.LASF38:
ARM GAS  C:\Users\ADMINI~1\AppData\Local\Temp\cczjWrOu.s 			page 189


 7161 0df9 4F535F54 		.ascii	"OS_TICK\000"
 7161      49434B00 
 7162              	.LASF70:
 7163 0e01 4F535F45 		.ascii	"OS_ERR_MEM_FULL\000"
 7163      52525F4D 
 7163      454D5F46 
 7163      554C4C00 
 7164              	.LASF147:
 7165 0e11 4F535F45 		.ascii	"OS_ERR_TASK_NO_MORE_TCB\000"
 7165      52525F54 
 7165      41534B5F 
 7165      4E4F5F4D 
 7165      4F52455F 
 7166              	.LASF75:
 7167 0e29 4F535F45 		.ascii	"OS_ERR_MEM_INVALID_P_MEM\000"
 7167      52525F4D 
 7167      454D5F49 
 7167      4E56414C 
 7167      49445F50 
 7168              	.LASF18:
 7169 0e42 4350555F 		.ascii	"CPU_TS32\000"
 7169      54533332 
 7169      00
 7170              	.LASF269:
 7171 0e4b 53757370 		.ascii	"SuspendCtr\000"
 7171      656E6443 
 7171      747200
 7172              	.LASF235:
 7173 0e56 6F735F71 		.ascii	"os_q\000"
 7173      00
 7174              	.LASF273:
 7175 0e5b 4379636C 		.ascii	"CyclesDelta\000"
 7175      65734465 
 7175      6C746100 
 7176              	.LASF35:
 7177 0e67 4F535F53 		.ascii	"OS_SEM_CTR\000"
 7177      454D5F43 
 7177      545200
 7178              	.LASF196:
 7179 0e72 4F535F45 		.ascii	"OS_ERR_TMR_STK_SIZE_INVALID\000"
 7179      52525F54 
 7179      4D525F53 
 7179      544B5F53 
 7179      495A455F 
 7180              	.LASF173:
 7181 0e8e 4F535F45 		.ascii	"OS_ERR_TICK_WHEEL_SIZE\000"
 7181      52525F54 
 7181      49434B5F 
 7181      57484545 
 7181      4C5F5349 
 7182              	.LASF246:
 7183 0ea5 5469636B 		.ascii	"TickNextPtr\000"
 7183      4E657874 
 7183      50747200 
 7184              	.LASF149:
 7185 0eb1 4F535F45 		.ascii	"OS_ERR_TASK_NOT_EXIST\000"
 7185      52525F54 
ARM GAS  C:\Users\ADMINI~1\AppData\Local\Temp\cczjWrOu.s 			page 190


 7185      41534B5F 
 7185      4E4F545F 
 7185      45584953 
 7186              	.LASF339:
 7187 0ec7 705F7065 		.ascii	"p_pend_data_next\000"
 7187      6E645F64 
 7187      6174615F 
 7187      6E657874 
 7187      00
 7188              	.LASF146:
 7189 0ed8 4F535F45 		.ascii	"OS_ERR_TASK_INVALID\000"
 7189      52525F54 
 7189      41534B5F 
 7189      494E5641 
 7189      4C494400 
 7190              	.LASF194:
 7191 0eec 4F535F45 		.ascii	"OS_ERR_TMR_PRIO_INVALID\000"
 7191      52525F54 
 7191      4D525F50 
 7191      52494F5F 
 7191      494E5641 
 7192              	.LASF161:
 7193 0f04 4F535F45 		.ascii	"OS_ERR_TASK_SUSPEND_PRIO\000"
 7193      52525F54 
 7193      41534B5F 
 7193      53555350 
 7193      454E445F 
 7194              	.LASF295:
 7195 0f1d 5264794F 		.ascii	"RdyObjPtr\000"
 7195      626A5074 
 7195      7200
 7196              	.LASF327:
 7197 0f27 705F7065 		.ascii	"p_pend_data_tbl\000"
 7197      6E645F64 
 7197      6174615F 
 7197      74626C00 
 7198              	.LASF62:
 7199 0f37 4F535F45 		.ascii	"OS_ERR_INT_Q_STK_SIZE_INVALID\000"
 7199      52525F49 
 7199      4E545F51 
 7199      5F53544B 
 7199      5F53495A 
 7200              	.LASF166:
 7201 0f55 4F535F45 		.ascii	"OS_ERR_TLS_ISR\000"
 7201      52525F54 
 7201      4C535F49 
 7201      535200
 7202              	.LASF198:
 7203 0f64 4F535F45 		.ascii	"OS_ERR_TMR_INVALID_CALLBACK\000"
 7203      52525F54 
 7203      4D525F49 
 7203      4E56414C 
 7203      49445F43 
 7204              	.LASF366:
 7205 0f80 4F53496E 		.ascii	"OSInitialized\000"
 7205      69746961 
 7205      6C697A65 
ARM GAS  C:\Users\ADMINI~1\AppData\Local\Temp\cczjWrOu.s 			page 191


 7205      6400
 7206              	.LASF145:
 7207 0f8e 4F535F45 		.ascii	"OS_ERR_TASK_DEL_ISR\000"
 7207      52525F54 
 7207      41534B5F 
 7207      44454C5F 
 7207      49535200 
 7208              	.LASF336:
 7209 0fa2 7072696F 		.ascii	"prio\000"
 7209      00
 7210              	.LASF277:
 7211 0fa7 53656D50 		.ascii	"SemPendTime\000"
 7211      656E6454 
 7211      696D6500 
 7212              	.LASF112:
 7213 0fb3 4F535F45 		.ascii	"OS_ERR_PTR_INVALID\000"
 7213      52525F50 
 7213      54525F49 
 7213      4E56414C 
 7213      494400
 7214              	.LASF134:
 7215 0fc6 4F535F45 		.ascii	"OS_ERR_STATE_INVALID\000"
 7215      52525F53 
 7215      54415445 
 7215      5F494E56 
 7215      414C4944 
 7216              	.LASF328:
 7217 0fdb 74626C5F 		.ascii	"tbl_size\000"
 7217      73697A65 
 7217      00
 7218              	.LASF218:
 7219 0fe4 4E657874 		.ascii	"NextPtr\000"
 7219      50747200 
 7220              	.LASF94:
 7221 0fec 4F535F45 		.ascii	"OS_ERR_OS_NOT_RUNNING\000"
 7221      52525F4F 
 7221      535F4E4F 
 7221      545F5255 
 7221      4E4E494E 
 7222              	.LASF263:
 7223 1002 4D736751 		.ascii	"MsgQPendTime\000"
 7223      50656E64 
 7223      54696D65 
 7223      00
 7224              	.LASF230:
 7225 100f 6F735F6D 		.ascii	"os_mutex\000"
 7225      75746578 
 7225      00
 7226              	.LASF364:
 7227 1018 4F53496E 		.ascii	"OSIntNestingCtr\000"
 7227      744E6573 
 7227      74696E67 
 7227      43747200 
 7228              	.LASF377:
 7229 1028 4F535363 		.ascii	"OSSchedLockTimeMax\000"
 7229      6865644C 
 7229      6F636B54 
ARM GAS  C:\Users\ADMINI~1\AppData\Local\Temp\cczjWrOu.s 			page 192


 7229      696D654D 
 7229      617800
 7230              	.LASF244:
 7231 103b 53746B4C 		.ascii	"StkLimitPtr\000"
 7231      696D6974 
 7231      50747200 
 7232              	.LASF307:
 7233 1047 4F53496E 		.ascii	"OSIntExit\000"
 7233      74457869 
 7233      7400
 7234              	.LASF248:
 7235 1051 5469636B 		.ascii	"TickListPtr\000"
 7235      4C697374 
 7235      50747200 
 7236              	.LASF182:
 7237 105d 4F535F45 		.ascii	"OS_ERR_TIME_SET_ISR\000"
 7237      52525F54 
 7237      494D455F 
 7237      5345545F 
 7237      49535200 
 7238              	.LASF120:
 7239 1071 4F535F45 		.ascii	"OS_ERR_ROUND_ROBIN_1\000"
 7239      52525F52 
 7239      4F554E44 
 7239      5F524F42 
 7239      494E5F31 
 7240              	.LASF74:
 7241 1086 4F535F45 		.ascii	"OS_ERR_MEM_INVALID_P_BLK\000"
 7241      52525F4D 
 7241      454D5F49 
 7241      4E56414C 
 7241      49445F50 
 7242              	.LASF71:
 7243 109f 4F535F45 		.ascii	"OS_ERR_MEM_INVALID_P_ADDR\000"
 7243      52525F4D 
 7243      454D5F49 
 7243      4E56414C 
 7243      49445F50 
 7244              	.LASF298:
 7245 10b9 52647954 		.ascii	"RdyTS\000"
 7245      5300
 7246              	.LASF67:
 7247 10bf 4F535F45 		.ascii	"OS_ERR_LOCK_NESTING_OVF\000"
 7247      52525F4C 
 7247      4F434B5F 
 7247      4E455354 
 7247      494E475F 
 7248              	.LASF156:
 7249 10d7 4F535F45 		.ascii	"OS_ERR_TASK_STK_CHK_ISR\000"
 7249      52525F54 
 7249      41534B5F 
 7249      53544B5F 
 7249      43484B5F 
 7250              	.LASF288:
 7251 10ef 6F735F74 		.ascii	"os_tick_list\000"
 7251      69636B5F 
 7251      6C697374 
ARM GAS  C:\Users\ADMINI~1\AppData\Local\Temp\cczjWrOu.s 			page 193


 7251      00
 7252              	.LASF7:
 7253 10fc 73686F72 		.ascii	"short int\000"
 7253      7420696E 
 7253      7400
 7254              	.LASF297:
 7255 1106 5264794D 		.ascii	"RdyMsgSize\000"
 7255      73675369 
 7255      7A6500
 7256              	.LASF79:
 7257 1111 4F535F45 		.ascii	"OS_ERR_MSG_POOL_EMPTY\000"
 7257      52525F4D 
 7257      53475F50 
 7257      4F4F4C5F 
 7257      454D5054 
 7258              	.LASF281:
 7259 1127 496E7444 		.ascii	"IntDisTimeMax\000"
 7259      69735469 
 7259      6D654D61 
 7259      7800
 7260              	.LASF127:
 7261 1135 4F535F45 		.ascii	"OS_ERR_SCHED_UNLOCK_ISR\000"
 7261      52525F53 
 7261      43484544 
 7261      5F554E4C 
 7261      4F434B5F 
 7262              	.LASF278:
 7263 114d 53656D50 		.ascii	"SemPendTimeMax\000"
 7263      656E6454 
 7263      696D654D 
 7263      617800
 7264              	.LASF276:
 7265 115c 4379636C 		.ascii	"CyclesTotalPrev\000"
 7265      6573546F 
 7265      74616C50 
 7265      72657600 
 7266              	.LASF231:
 7267 116c 4D757465 		.ascii	"MutexGrpNextPtr\000"
 7267      78477270 
 7267      4E657874 
 7267      50747200 
 7268              	.LASF287:
 7269 117c 4F535F54 		.ascii	"OS_TICK_LIST\000"
 7269      49434B5F 
 7269      4C495354 
 7269      00
 7270              	.LASF171:
 7271 1189 4F535F45 		.ascii	"OS_ERR_TICK_STK_INVALID\000"
 7271      52525F54 
 7271      49434B5F 
 7271      53544B5F 
 7271      494E5641 
 7272              	.LASF80:
 7273 11a1 4F535F45 		.ascii	"OS_ERR_MSG_POOL_NULL_PTR\000"
 7273      52525F4D 
 7273      53475F50 
 7273      4F4F4C5F 
ARM GAS  C:\Users\ADMINI~1\AppData\Local\Temp\cczjWrOu.s 			page 194


 7273      4E554C4C 
 7274              	.LASF28:
 7275 11ba 4F535F4E 		.ascii	"OS_NESTING_CTR\000"
 7275      45535449 
 7275      4E475F43 
 7275      545200
 7276              	.LASF237:
 7277 11c9 4F535F53 		.ascii	"OS_SEM\000"
 7277      454D00
 7278              	.LASF374:
 7279 11d0 4F535151 		.ascii	"OSQQty\000"
 7279      747900
 7280              	.LASF301:
 7281 11d7 4F535F50 		.ascii	"OS_PEND_OBJ\000"
 7281      454E445F 
 7281      4F424A00 
 7282              	.LASF361:
 7283 11e3 4F535F54 		.ascii	"OS_TaskBlock\000"
 7283      61736B42 
 7283      6C6F636B 
 7283      00
 7284              	.LASF343:
 7285 11f0 705F6E65 		.ascii	"p_next\000"
 7285      787400
 7286              	.LASF154:
 7287 11f7 4F535F45 		.ascii	"OS_ERR_TASK_RESUME_SELF\000"
 7287      52525F54 
 7287      41534B5F 
 7287      52455355 
 7287      4D455F53 
 7288              	.LASF271:
 7289 120f 43505555 		.ascii	"CPUUsageMax\000"
 7289      73616765 
 7289      4D617800 
 7290              	.LASF210:
 7291 121b 50656E64 		.ascii	"PendList\000"
 7291      4C697374 
 7291      00
 7292              	.LASF92:
 7293 1224 4F535F45 		.ascii	"OS_ERR_OBJ_TYPE\000"
 7293      52525F4F 
 7293      424A5F54 
 7293      59504500 
 7294              	.LASF252:
 7295 1234 50656E64 		.ascii	"PendDataTblPtr\000"
 7295      44617461 
 7295      54626C50 
 7295      747200
 7296              	.LASF260:
 7297 1243 53656D43 		.ascii	"SemCtr\000"
 7297      747200
 7298              	.LASF224:
 7299 124a 496E5074 		.ascii	"InPtr\000"
 7299      7200
 7300              	.LASF395:
 7301 1250 2E2E5C2E 		.ascii	"..\\..\\..\\..\\..\\..\\Software\\uCOS-III\\Source\\"
 7301      2E5C2E2E 
ARM GAS  C:\Users\ADMINI~1\AppData\Local\Temp\cczjWrOu.s 			page 195


 7301      5C2E2E5C 
 7301      2E2E5C2E 
 7301      2E5C536F 
 7302 127b 6F735F63 		.ascii	"os_core.c\000"
 7302      6F72652E 
 7302      6300
 7303              	.LASF261:
 7304 1285 5469636B 		.ascii	"TickRemain\000"
 7304      52656D61 
 7304      696E00
 7305              	.LASF285:
 7306 1290 48656164 		.ascii	"HeadPtr\000"
 7306      50747200 
 7307              	.LASF238:
 7308 1298 6F735F73 		.ascii	"os_sem\000"
 7308      656D00
 7309              	.LASF101:
 7310 129f 4F535F45 		.ascii	"OS_ERR_PEND_ABORT_NONE\000"
 7310      52525F50 
 7310      454E445F 
 7310      41424F52 
 7310      545F4E4F 
 7311              	.LASF9:
 7312 12b6 756E7369 		.ascii	"unsigned int\000"
 7312      676E6564 
 7312      20696E74 
 7312      00
 7313              	.LASF220:
 7314 12c3 4D736753 		.ascii	"MsgSize\000"
 7314      697A6500 
 7315              	.LASF82:
 7316 12cb 4F535F45 		.ascii	"OS_ERR_MUTEX_OWNER\000"
 7316      52525F4D 
 7316      55544558 
 7316      5F4F574E 
 7316      455200
 7317              	.LASF358:
 7318 12de 4F535F53 		.ascii	"OS_SchedLockTimeMeasStart\000"
 7318      63686564 
 7318      4C6F636B 
 7318      54696D65 
 7318      4D656173 
 7319              	.LASF133:
 7320 12f8 4F535F45 		.ascii	"OS_ERR_STAT_STK_SIZE_INVALID\000"
 7320      52525F53 
 7320      5441545F 
 7320      53544B5F 
 7320      53495A45 
 7321              	.LASF51:
 7322 1315 4F535F45 		.ascii	"OS_ERR_FLAG_NOT_RDY\000"
 7322      52525F46 
 7322      4C41475F 
 7322      4E4F545F 
 7322      52445900 
 7323              	.LASF316:
 7324 1329 705F6172 		.ascii	"p_arg\000"
 7324      6700
ARM GAS  C:\Users\ADMINI~1\AppData\Local\Temp\cczjWrOu.s 			page 196


 7325              	.LASF243:
 7326 132f 45787450 		.ascii	"ExtPtr\000"
 7326      747200
 7327              	.LASF303:
 7328 1336 73697A65 		.ascii	"sizetype\000"
 7328      74797065 
 7328      00
 7329              	.LASF354:
 7330 133f 4F535F52 		.ascii	"OS_RdyListMoveHeadToTail\000"
 7330      64794C69 
 7330      73744D6F 
 7330      76654865 
 7330      6164546F 
 7331              	.LASF382:
 7332 1358 4F535374 		.ascii	"OSStatTaskCtr\000"
 7332      61745461 
 7332      736B4374 
 7332      7200
 7333              	.LASF100:
 7334 1366 4F535F45 		.ascii	"OS_ERR_PEND_ABORT_ISR\000"
 7334      52525F50 
 7334      454E445F 
 7334      41424F52 
 7334      545F4953 
 7335              	.LASF14:
 7336 137c 4350555F 		.ascii	"CPU_ADDR\000"
 7336      41444452 
 7336      00
 7337              	.LASF108:
 7338 1385 4F535F45 		.ascii	"OS_ERR_POST_ISR\000"
 7338      52525F50 
 7338      4F53545F 
 7338      49535200 
 7339              	.LASF392:
 7340 1395 4F534366 		.ascii	"OSCfg_ISRStkBasePtr\000"
 7340      675F4953 
 7340      5253746B 
 7340      42617365 
 7340      50747200 
 7341              	.LASF174:
 7342 13a9 4F535F45 		.ascii	"OS_ERR_TIME_DLY_ISR\000"
 7342      52525F54 
 7342      494D455F 
 7342      444C595F 
 7342      49535200 
 7343              	.LASF138:
 7344 13bd 4F535F45 		.ascii	"OS_ERR_STK_LIMIT_INVALID\000"
 7344      52525F53 
 7344      544B5F4C 
 7344      494D4954 
 7344      5F494E56 
 7345              	.LASF23:
 7346 13d6 4F535F43 		.ascii	"OS_CYCLES\000"
 7346      59434C45 
 7346      5300
 7347              	.LASF240:
 7348 13e0 4F535F54 		.ascii	"OS_TCB\000"
ARM GAS  C:\Users\ADMINI~1\AppData\Local\Temp\cczjWrOu.s 			page 197


 7348      434200
 7349              	.LASF137:
 7350 13e7 4F535F45 		.ascii	"OS_ERR_STK_SIZE_INVALID\000"
 7350      52525F53 
 7350      544B5F53 
 7350      495A455F 
 7350      494E5641 
 7351              	.LASF54:
 7352 13ff 4F535F45 		.ascii	"OS_ERR_G\000"
 7352      52525F47 
 7352      00
 7353              	.LASF197:
 7354 1408 4F535F45 		.ascii	"OS_ERR_TMR_STOPPED\000"
 7354      52525F54 
 7354      4D525F53 
 7354      544F5050 
 7354      454400
 7355              	.LASF309:
 7356 141b 4F535363 		.ascii	"OSSched\000"
 7356      68656400 
 7357              	.LASF1:
 7358 1423 756E7369 		.ascii	"unsigned char\000"
 7358      676E6564 
 7358      20636861 
 7358      7200
 7359              	.LASF151:
 7360 1431 4F535F45 		.ascii	"OS_ERR_TASK_OPT\000"
 7360      52525F54 
 7360      41534B5F 
 7360      4F505400 
 7361              	.LASF379:
 7362 1441 4F535363 		.ascii	"OSSchedLockNestingCtr\000"
 7362      6865644C 
 7362      6F636B4E 
 7362      65737469 
 7362      6E674374 
 7363              	.LASF184:
 7364 1457 4F535F45 		.ascii	"OS_ERR_TIMEOUT\000"
 7364      52525F54 
 7364      494D454F 
 7364      555400
 7365              	.LASF356:
 7366 1466 4F535F52 		.ascii	"OS_RdyListRemove\000"
 7366      64794C69 
 7366      73745265 
 7366      6D6F7665 
 7366      00
 7367              	.LASF36:
 7368 1477 4F535F53 		.ascii	"OS_STATE\000"
 7368      54415445 
 7368      00
 7369              	.LASF313:
 7370 1480 4F535374 		.ascii	"OSStart\000"
 7370      61727400 
 7371              	.LASF353:
 7372 1488 4F535F52 		.ascii	"OS_RdyListInsertTail\000"
 7372      64794C69 
ARM GAS  C:\Users\ADMINI~1\AppData\Local\Temp\cczjWrOu.s 			page 198


 7372      7374496E 
 7372      73657274 
 7372      5461696C 
 7373              	.LASF322:
 7374 149d 74696D65 		.ascii	"timeout\000"
 7374      6F757400 
 7375              	.LASF31:
 7376 14a5 4F535F4F 		.ascii	"OS_OPT\000"
 7376      505400
 7377              	.LASF239:
 7378 14ac 4F535F54 		.ascii	"OS_TASK_PTR\000"
 7378      41534B5F 
 7378      50545200 
 7379              	.LASF314:
 7380 14b8 6B65726E 		.ascii	"kernel_task_cnt\000"
 7380      656C5F74 
 7380      61736B5F 
 7380      636E7400 
 7381              	.LASF69:
 7382 14c8 4F535F45 		.ascii	"OS_ERR_MEM_CREATE_ISR\000"
 7382      52525F4D 
 7382      454D5F43 
 7382      52454154 
 7382      455F4953 
 7383              	.LASF135:
 7384 14de 4F535F45 		.ascii	"OS_ERR_STATUS_INVALID\000"
 7384      52525F53 
 7384      54415455 
 7384      535F494E 
 7384      56414C49 
 7385              	.LASF203:
 7386 14f4 4F535F45 		.ascii	"OS_ERR_Y\000"
 7386      52525F59 
 7386      00
 7387              	.LASF104:
 7388 14fd 4F535F45 		.ascii	"OS_ERR_PEND_ISR\000"
 7388      52525F50 
 7388      454E445F 
 7388      49535200 
 7389              	.LASF205:
 7390 150d 4F535F45 		.ascii	"OS_ERR_Z\000"
 7390      52525F5A 
 7390      00
 7391              	.LASF213:
 7392 1516 4462674E 		.ascii	"DbgNamePtr\000"
 7392      616D6550 
 7392      747200
 7393              	.LASF225:
 7394 1521 4F757450 		.ascii	"OutPtr\000"
 7394      747200
 7395              	.LASF251:
 7396 1528 5461736B 		.ascii	"TaskEntryArg\000"
 7396      456E7472 
 7396      79417267 
 7396      00
 7397              	.LASF114:
 7398 1535 4F535F45 		.ascii	"OS_ERR_Q_FULL\000"
ARM GAS  C:\Users\ADMINI~1\AppData\Local\Temp\cczjWrOu.s 			page 199


 7398      52525F51 
 7398      5F46554C 
 7398      4C00
 7399              	.LASF330:
 7400 1543 705F7463 		.ascii	"p_tcb1\000"
 7400      623100
 7401              	.LASF352:
 7402 154a 705F7463 		.ascii	"p_tcb2\000"
 7402      623200
 7403              	.LASF355:
 7404 1551 705F7463 		.ascii	"p_tcb3\000"
 7404      623300
 7405              	.LASF345:
 7406 1558 4F535F50 		.ascii	"OS_Post\000"
 7406      6F737400 
 7407              	.LASF61:
 7408 1560 4F535F45 		.ascii	"OS_ERR_INT_Q_STK_INVALID\000"
 7408      52525F49 
 7408      4E545F51 
 7408      5F53544B 
 7408      5F494E56 
 7409              	.LASF179:
 7410 1579 4F535F45 		.ascii	"OS_ERR_TIME_INVALID_SECONDS\000"
 7410      52525F54 
 7410      494D455F 
 7410      494E5641 
 7410      4C49445F 
 7411              	.LASF142:
 7412 1595 4F535F45 		.ascii	"OS_ERR_TASK_DEL\000"
 7412      52525F54 
 7412      41534B5F 
 7412      44454C00 
 7413              	.LASF299:
 7414 15a5 4F535F50 		.ascii	"OS_PEND_LIST\000"
 7414      454E445F 
 7414      4C495354 
 7414      00
 7415              	.LASF367:
 7416 15b2 4F53466C 		.ascii	"OSFlagDbgListPtr\000"
 7416      61674462 
 7416      674C6973 
 7416      74507472 
 7416      00
 7417              	.LASF341:
 7418 15c3 4F535F50 		.ascii	"OS_PendListRemove1\000"
 7418      656E644C 
 7418      69737452 
 7418      656D6F76 
 7418      653100
 7419              	.LASF347:
 7420 15d6 6D73675F 		.ascii	"msg_size\000"
 7420      73697A65 
 7420      00
 7421              	.LASF4:
 7422 15df 7369676E 		.ascii	"signed char\000"
 7422      65642063 
 7422      68617200 
ARM GAS  C:\Users\ADMINI~1\AppData\Local\Temp\cczjWrOu.s 			page 200


 7423              	.LASF221:
 7424 15eb 4D736754 		.ascii	"MsgTS\000"
 7424      5300
 7425              	.LASF360:
 7426 15f1 64656C74 		.ascii	"delta\000"
 7426      6100
 7427              	.LASF49:
 7428 15f7 4F535F45 		.ascii	"OS_ERR_FATAL_RETURN\000"
 7428      52525F46 
 7428      4154414C 
 7428      5F524554 
 7428      55524E00 
 7429              	.LASF6:
 7430 160b 73686F72 		.ascii	"short unsigned int\000"
 7430      7420756E 
 7430      7369676E 
 7430      65642069 
 7430      6E7400
 7431              	.LASF368:
 7432 161e 4F53466C 		.ascii	"OSFlagQty\000"
 7432      61675174 
 7432      7900
 7433              	.LASF24:
 7434 1628 4F535F46 		.ascii	"OS_FLAGS\000"
 7434      4C414753 
 7434      00
 7435              	.LASF219:
 7436 1631 4D736750 		.ascii	"MsgPtr\000"
 7436      747200
 7437              	.LASF167:
 7438 1638 4F535F45 		.ascii	"OS_ERR_TLS_NO_MORE_AVAIL\000"
 7438      52525F54 
 7438      4C535F4E 
 7438      4F5F4D4F 
 7438      52455F41 
 7439              	.LASF39:
 7440 1651 4F535F45 		.ascii	"OS_ERR_NONE\000"
 7440      52525F4E 
 7440      4F4E4500 
 7441              	.LASF292:
 7442 165d 6F735F70 		.ascii	"os_pend_data\000"
 7442      656E645F 
 7442      64617461 
 7442      00
 7443              	.LASF34:
 7444 166a 4F535F52 		.ascii	"OS_REG_ID\000"
 7444      45475F49 
 7444      4400
 7445              	.LASF125:
 7446 1674 4F535F45 		.ascii	"OS_ERR_SCHED_LOCKED\000"
 7446      52525F53 
 7446      43484544 
 7446      5F4C4F43 
 7446      4B454400 
 7447              	.LASF53:
 7448 1688 4F535F45 		.ascii	"OS_ERR_FLUSH_ISR\000"
 7448      52525F46 
ARM GAS  C:\Users\ADMINI~1\AppData\Local\Temp\cczjWrOu.s 			page 201


 7448      4C555348 
 7448      5F495352 
 7448      00
 7449              	.LASF256:
 7450 1699 5072696F 		.ascii	"Prio\000"
 7450      00
 7451              	.LASF13:
 7452 169e 646F7562 		.ascii	"double\000"
 7452      6C6500
 7453              	.LASF99:
 7454 16a5 4F535F45 		.ascii	"OS_ERR_PEND_ABORT\000"
 7454      52525F50 
 7454      454E445F 
 7454      41424F52 
 7454      5400
 7455              	.LASF270:
 7456 16b7 43505555 		.ascii	"CPUUsage\000"
 7456      73616765 
 7456      00
 7457              	.LASF398:
 7458 16c0 4F535665 		.ascii	"OSVersion\000"
 7458      7273696F 
 7458      6E00
 7459              	.LASF126:
 7460 16ca 4F535F45 		.ascii	"OS_ERR_SCHED_NOT_LOCKED\000"
 7460      52525F53 
 7460      43484544 
 7460      5F4E4F54 
 7460      5F4C4F43 
 7461              	.LASF110:
 7462 16e2 4F535F45 		.ascii	"OS_ERR_PRIO\000"
 7462      52525F50 
 7462      52494F00 
 7463              	.LASF103:
 7464 16ee 4F535F45 		.ascii	"OS_ERR_PEND_DEL\000"
 7464      52525F50 
 7464      454E445F 
 7464      44454C00 
 7465              	.LASF294:
 7466 16fe 50656E64 		.ascii	"PendObjPtr\000"
 7466      4F626A50 
 7466      747200
 7467              	.LASF228:
 7468 1709 4E627245 		.ascii	"NbrEntriesMax\000"
 7468      6E747269 
 7468      65734D61 
 7468      7800
 7469              	.LASF300:
 7470 1717 6F735F70 		.ascii	"os_pend_list\000"
 7470      656E645F 
 7470      6C697374 
 7470      00
 7471              	.LASF77:
 7472 1724 4F535F45 		.ascii	"OS_ERR_MEM_INVALID_SIZE\000"
 7472      52525F4D 
 7472      454D5F49 
 7472      4E56414C 
ARM GAS  C:\Users\ADMINI~1\AppData\Local\Temp\cczjWrOu.s 			page 202


 7472      49445F53 
 7473              	.LASF157:
 7474 173c 4F535F45 		.ascii	"OS_ERR_TASK_SUSPENDED\000"
 7474      52525F54 
 7474      41534B5F 
 7474      53555350 
 7474      454E4445 
 7475              	.LASF207:
 7476 1752 4F535F46 		.ascii	"OS_FLAG_GRP\000"
 7476      4C41475F 
 7476      47525000 
 7477              	.LASF129:
 7478 175e 4F535F45 		.ascii	"OS_ERR_SET_ISR\000"
 7478      52525F53 
 7478      45545F49 
 7478      535200
 7479              	.LASF275:
 7480 176d 4379636C 		.ascii	"CyclesTotal\000"
 7480      6573546F 
 7480      74616C00 
 7481              	.LASF376:
 7482 1779 4F535363 		.ascii	"OSSchedLockTimeBegin\000"
 7482      6865644C 
 7482      6F636B54 
 7482      696D6542 
 7482      6567696E 
 7483              	.LASF265:
 7484 178e 52656754 		.ascii	"RegTbl\000"
 7484      626C00
 7485              	.LASF128:
 7486 1795 4F535F45 		.ascii	"OS_ERR_SEM_OVF\000"
 7486      52525F53 
 7486      454D5F4F 
 7486      564600
 7487              	.LASF143:
 7488 17a4 4F535F45 		.ascii	"OS_ERR_TASK_DEL_IDLE\000"
 7488      52525F54 
 7488      41534B5F 
 7488      44454C5F 
 7488      49444C45 
 7489              	.LASF176:
 7490 17b9 4F535F45 		.ascii	"OS_ERR_TIME_GET_ISR\000"
 7490      52525F54 
 7490      494D455F 
 7490      4745545F 
 7490      49535200 
 7491              	.LASF175:
 7492 17cd 4F535F45 		.ascii	"OS_ERR_TIME_DLY_RESUME_ISR\000"
 7492      52525F54 
 7492      494D455F 
 7492      444C595F 
 7492      52455355 
 7493              	.LASF170:
 7494 17e8 4F535F45 		.ascii	"OS_ERR_TICK_PRIO_INVALID\000"
 7494      52525F54 
 7494      49434B5F 
 7494      5052494F 
ARM GAS  C:\Users\ADMINI~1\AppData\Local\Temp\cczjWrOu.s 			page 203


 7494      5F494E56 
 7495              	.LASF109:
 7496 1801 4F535F45 		.ascii	"OS_ERR_PRIO_EXIST\000"
 7496      52525F50 
 7496      52494F5F 
 7496      45584953 
 7496      5400
 7497              	.LASF223:
 7498 1813 6F735F6D 		.ascii	"os_msg_q\000"
 7498      73675F71 
 7498      00
 7499              	.LASF78:
 7500 181c 4F535F45 		.ascii	"OS_ERR_MEM_NO_FREE_BLKS\000"
 7500      52525F4D 
 7500      454D5F4E 
 7500      4F5F4652 
 7500      45455F42 
 7501              	.LASF391:
 7502 1834 4F534366 		.ascii	"OSCfg_IdleTaskStkSize\000"
 7502      675F4964 
 7502      6C655461 
 7502      736B5374 
 7502      6B53697A 
 7503              	.LASF15:
 7504 184a 4350555F 		.ascii	"CPU_STK\000"
 7504      53544B00 
 7505              		.ident	"GCC: (GNU Tools for ARM Embedded Processors) 5.4.1 20160609 (release) [ARM/embedded-5-bran
