ARM GAS  C:\Users\ADMINI~1\AppData\Local\Temp\ccDLN5r4.s 			page 1


   1              		.syntax unified
   2              		.cpu cortex-m0
   3              		.fpu softvfp
   4              		.eabi_attribute 20, 1
   5              		.eabi_attribute 21, 1
   6              		.eabi_attribute 23, 3
   7              		.eabi_attribute 24, 1
   8              		.eabi_attribute 25, 1
   9              		.eabi_attribute 26, 1
  10              		.eabi_attribute 30, 6
  11              		.eabi_attribute 34, 0
  12              		.eabi_attribute 18, 4
  13              		.thumb
  14              		.syntax unified
  15              		.file	"os_dbg.c"
  16              		.text
  17              	.Ltext0:
  18              		.cfi_sections	.debug_frame
  19              		.global	OSDbg_DbgEn
  20              		.section	.rodata
  21              		.type	OSDbg_DbgEn, %object
  22              		.size	OSDbg_DbgEn, 1
  23              	OSDbg_DbgEn:
  24 0000 01       		.byte	1
  25              		.global	OSDbg_ArgChkEn
  26              		.type	OSDbg_ArgChkEn, %object
  27              		.size	OSDbg_ArgChkEn, 1
  28              	OSDbg_ArgChkEn:
  29 0001 01       		.byte	1
  30              		.global	OSDbg_AppHooksEn
  31              		.type	OSDbg_AppHooksEn, %object
  32              		.size	OSDbg_AppHooksEn, 1
  33              	OSDbg_AppHooksEn:
  34 0002 00       		.space	1
  35              		.global	OSDbg_EndiannessTest
  36 0003 00       		.align	2
  37              		.type	OSDbg_EndiannessTest, %object
  38              		.size	OSDbg_EndiannessTest, 4
  39              	OSDbg_EndiannessTest:
  40 0004 78563412 		.word	305419896
  41              		.global	OSDbg_CalledFromISRChkEn
  42              		.type	OSDbg_CalledFromISRChkEn, %object
  43              		.size	OSDbg_CalledFromISRChkEn, 1
  44              	OSDbg_CalledFromISRChkEn:
  45 0008 01       		.byte	1
  46              		.global	OSDbg_FlagEn
  47              		.type	OSDbg_FlagEn, %object
  48              		.size	OSDbg_FlagEn, 1
  49              	OSDbg_FlagEn:
  50 0009 01       		.byte	1
  51              		.global	OSDbg_FlagGrp
  52 000a 0000     		.align	2
  53              		.type	OSDbg_FlagGrp, %object
  54              		.size	OSDbg_FlagGrp, 40
  55              	OSDbg_FlagGrp:
  56 000c 00000000 		.space	40
  56      00000000 
ARM GAS  C:\Users\ADMINI~1\AppData\Local\Temp\ccDLN5r4.s 			page 2


  56      00000000 
  56      00000000 
  56      00000000 
  57              		.global	OSDbg_FlagDelEn
  58              		.type	OSDbg_FlagDelEn, %object
  59              		.size	OSDbg_FlagDelEn, 1
  60              	OSDbg_FlagDelEn:
  61 0034 00       		.space	1
  62              		.global	OSDbg_FlagModeClrEn
  63              		.type	OSDbg_FlagModeClrEn, %object
  64              		.size	OSDbg_FlagModeClrEn, 1
  65              	OSDbg_FlagModeClrEn:
  66 0035 00       		.space	1
  67              		.global	OSDbg_FlagPendAbortEn
  68              		.type	OSDbg_FlagPendAbortEn, %object
  69              		.size	OSDbg_FlagPendAbortEn, 1
  70              	OSDbg_FlagPendAbortEn:
  71 0036 00       		.space	1
  72              		.global	OSDbg_FlagGrpSize
  73 0037 00       		.align	1
  74              		.type	OSDbg_FlagGrpSize, %object
  75              		.size	OSDbg_FlagGrpSize, 2
  76              	OSDbg_FlagGrpSize:
  77 0038 2800     		.short	40
  78              		.global	OSDbg_FlagWidth
  79              		.align	1
  80              		.type	OSDbg_FlagWidth, %object
  81              		.size	OSDbg_FlagWidth, 2
  82              	OSDbg_FlagWidth:
  83 003a 0400     		.short	4
  84              		.global	OSDbg_IntQ
  85              		.align	1
  86              		.type	OSDbg_IntQ, %object
  87              		.size	OSDbg_IntQ, 2
  88              	OSDbg_IntQ:
  89 003c 0000     		.space	2
  90              		.global	OSDbg_ISRPostDeferredEn
  91              		.type	OSDbg_ISRPostDeferredEn, %object
  92              		.size	OSDbg_ISRPostDeferredEn, 1
  93              	OSDbg_ISRPostDeferredEn:
  94 003e 00       		.space	1
  95              		.global	OSDbg_Mem
  96 003f 00       		.align	2
  97              		.type	OSDbg_Mem, %object
  98              		.size	OSDbg_Mem, 32
  99              	OSDbg_Mem:
 100 0040 00000000 		.space	32
 100      00000000 
 100      00000000 
 100      00000000 
 100      00000000 
 101              		.global	OSDbg_MemEn
 102              		.type	OSDbg_MemEn, %object
 103              		.size	OSDbg_MemEn, 1
 104              	OSDbg_MemEn:
 105 0060 01       		.byte	1
 106              		.global	OSDbg_MemSize
ARM GAS  C:\Users\ADMINI~1\AppData\Local\Temp\ccDLN5r4.s 			page 3


 107 0061 00       		.align	1
 108              		.type	OSDbg_MemSize, %object
 109              		.size	OSDbg_MemSize, 2
 110              	OSDbg_MemSize:
 111 0062 2000     		.short	32
 112              		.global	OSDbg_MsgEn
 113              		.type	OSDbg_MsgEn, %object
 114              		.size	OSDbg_MsgEn, 1
 115              	OSDbg_MsgEn:
 116 0064 01       		.byte	1
 117              		.global	OSDbg_MsgSize
 118 0065 00       		.align	1
 119              		.type	OSDbg_MsgSize, %object
 120              		.size	OSDbg_MsgSize, 2
 121              	OSDbg_MsgSize:
 122 0066 1000     		.short	16
 123              		.global	OSDbg_MsgPoolSize
 124              		.align	1
 125              		.type	OSDbg_MsgPoolSize, %object
 126              		.size	OSDbg_MsgPoolSize, 2
 127              	OSDbg_MsgPoolSize:
 128 0068 0C00     		.short	12
 129              		.global	OSDbg_MsgQSize
 130              		.align	1
 131              		.type	OSDbg_MsgQSize, %object
 132              		.size	OSDbg_MsgQSize, 2
 133              	OSDbg_MsgQSize:
 134 006a 1000     		.short	16
 135              		.global	OSDbg_Mutex
 136              		.align	2
 137              		.type	OSDbg_Mutex, %object
 138              		.size	OSDbg_Mutex, 48
 139              	OSDbg_Mutex:
 140 006c 00000000 		.space	48
 140      00000000 
 140      00000000 
 140      00000000 
 140      00000000 
 141              		.global	OSDbg_MutexEn
 142              		.type	OSDbg_MutexEn, %object
 143              		.size	OSDbg_MutexEn, 1
 144              	OSDbg_MutexEn:
 145 009c 01       		.byte	1
 146              		.global	OSDbg_MutexDelEn
 147              		.type	OSDbg_MutexDelEn, %object
 148              		.size	OSDbg_MutexDelEn, 1
 149              	OSDbg_MutexDelEn:
 150 009d 00       		.space	1
 151              		.global	OSDbg_MutexPendAbortEn
 152              		.type	OSDbg_MutexPendAbortEn, %object
 153              		.size	OSDbg_MutexPendAbortEn, 1
 154              	OSDbg_MutexPendAbortEn:
 155 009e 00       		.space	1
 156              		.global	OSDbg_MutexSize
 157 009f 00       		.align	1
 158              		.type	OSDbg_MutexSize, %object
 159              		.size	OSDbg_MutexSize, 2
ARM GAS  C:\Users\ADMINI~1\AppData\Local\Temp\ccDLN5r4.s 			page 4


 160              	OSDbg_MutexSize:
 161 00a0 3000     		.short	48
 162              		.global	OSDbg_ObjTypeChkEn
 163              		.type	OSDbg_ObjTypeChkEn, %object
 164              		.size	OSDbg_ObjTypeChkEn, 1
 165              	OSDbg_ObjTypeChkEn:
 166 00a2 00       		.space	1
 167              		.global	OSDbg_PendMultiEn
 168              		.type	OSDbg_PendMultiEn, %object
 169              		.size	OSDbg_PendMultiEn, 1
 170              	OSDbg_PendMultiEn:
 171 00a3 00       		.space	1
 172              		.global	OSDbg_PendDataSize
 173              		.align	1
 174              		.type	OSDbg_PendDataSize, %object
 175              		.size	OSDbg_PendDataSize, 2
 176              	OSDbg_PendDataSize:
 177 00a4 2000     		.short	32
 178              		.global	OSDbg_PendListSize
 179              		.align	1
 180              		.type	OSDbg_PendListSize, %object
 181              		.size	OSDbg_PendListSize, 2
 182              	OSDbg_PendListSize:
 183 00a6 0C00     		.short	12
 184              		.global	OSDbg_PendObjSize
 185              		.align	1
 186              		.type	OSDbg_PendObjSize, %object
 187              		.size	OSDbg_PendObjSize, 2
 188              	OSDbg_PendObjSize:
 189 00a8 2000     		.short	32
 190              		.global	OSDbg_PrioMax
 191              		.align	1
 192              		.type	OSDbg_PrioMax, %object
 193              		.size	OSDbg_PrioMax, 2
 194              	OSDbg_PrioMax:
 195 00aa 2000     		.short	32
 196              		.global	OSDbg_PrioTblSize
 197              		.align	1
 198              		.type	OSDbg_PrioTblSize, %object
 199              		.size	OSDbg_PrioTblSize, 2
 200              	OSDbg_PrioTblSize:
 201 00ac 0400     		.short	4
 202              		.global	OSDbg_PtrSize
 203              		.align	1
 204              		.type	OSDbg_PtrSize, %object
 205              		.size	OSDbg_PtrSize, 2
 206              	OSDbg_PtrSize:
 207 00ae 0400     		.short	4
 208              		.global	OSDbg_Q
 209              		.align	2
 210              		.type	OSDbg_Q, %object
 211              		.size	OSDbg_Q, 48
 212              	OSDbg_Q:
 213 00b0 00000000 		.space	48
 213      00000000 
 213      00000000 
 213      00000000 
ARM GAS  C:\Users\ADMINI~1\AppData\Local\Temp\ccDLN5r4.s 			page 5


 213      00000000 
 214              		.global	OSDbg_QEn
 215              		.type	OSDbg_QEn, %object
 216              		.size	OSDbg_QEn, 1
 217              	OSDbg_QEn:
 218 00e0 01       		.byte	1
 219              		.global	OSDbg_QDelEn
 220              		.type	OSDbg_QDelEn, %object
 221              		.size	OSDbg_QDelEn, 1
 222              	OSDbg_QDelEn:
 223 00e1 00       		.space	1
 224              		.global	OSDbg_QFlushEn
 225              		.type	OSDbg_QFlushEn, %object
 226              		.size	OSDbg_QFlushEn, 1
 227              	OSDbg_QFlushEn:
 228 00e2 00       		.space	1
 229              		.global	OSDbg_QPendAbortEn
 230              		.type	OSDbg_QPendAbortEn, %object
 231              		.size	OSDbg_QPendAbortEn, 1
 232              	OSDbg_QPendAbortEn:
 233 00e3 01       		.byte	1
 234              		.global	OSDbg_QSize
 235              		.align	1
 236              		.type	OSDbg_QSize, %object
 237              		.size	OSDbg_QSize, 2
 238              	OSDbg_QSize:
 239 00e4 3000     		.short	48
 240              		.global	OSDbg_SchedRoundRobinEn
 241              		.type	OSDbg_SchedRoundRobinEn, %object
 242              		.size	OSDbg_SchedRoundRobinEn, 1
 243              	OSDbg_SchedRoundRobinEn:
 244 00e6 00       		.space	1
 245              		.global	OSDbg_Sem
 246 00e7 00       		.align	2
 247              		.type	OSDbg_Sem, %object
 248              		.size	OSDbg_Sem, 40
 249              	OSDbg_Sem:
 250 00e8 00000000 		.space	40
 250      00000000 
 250      00000000 
 250      00000000 
 250      00000000 
 251              		.global	OSDbg_SemEn
 252              		.type	OSDbg_SemEn, %object
 253              		.size	OSDbg_SemEn, 1
 254              	OSDbg_SemEn:
 255 0110 01       		.byte	1
 256              		.global	OSDbg_SemDelEn
 257              		.type	OSDbg_SemDelEn, %object
 258              		.size	OSDbg_SemDelEn, 1
 259              	OSDbg_SemDelEn:
 260 0111 00       		.space	1
 261              		.global	OSDbg_SemPendAbortEn
 262              		.type	OSDbg_SemPendAbortEn, %object
 263              		.size	OSDbg_SemPendAbortEn, 1
 264              	OSDbg_SemPendAbortEn:
 265 0112 01       		.byte	1
ARM GAS  C:\Users\ADMINI~1\AppData\Local\Temp\ccDLN5r4.s 			page 6


 266              		.global	OSDbg_SemSetEn
 267              		.type	OSDbg_SemSetEn, %object
 268              		.size	OSDbg_SemSetEn, 1
 269              	OSDbg_SemSetEn:
 270 0113 01       		.byte	1
 271              		.global	OSDbg_SemSize
 272              		.align	1
 273              		.type	OSDbg_SemSize, %object
 274              		.size	OSDbg_SemSize, 2
 275              	OSDbg_SemSize:
 276 0114 2800     		.short	40
 277              		.global	OSDbg_RdyList
 278              		.align	1
 279              		.type	OSDbg_RdyList, %object
 280              		.size	OSDbg_RdyList, 2
 281              	OSDbg_RdyList:
 282 0116 0C00     		.short	12
 283              		.global	OSDbg_RdyListSize
 284              		.align	2
 285              		.type	OSDbg_RdyListSize, %object
 286              		.size	OSDbg_RdyListSize, 4
 287              	OSDbg_RdyListSize:
 288 0118 80010000 		.word	384
 289              		.global	OSDbg_StkWidth
 290              		.type	OSDbg_StkWidth, %object
 291              		.size	OSDbg_StkWidth, 1
 292              	OSDbg_StkWidth:
 293 011c 04       		.byte	4
 294              		.global	OSDbg_StatTaskEn
 295              		.type	OSDbg_StatTaskEn, %object
 296              		.size	OSDbg_StatTaskEn, 1
 297              	OSDbg_StatTaskEn:
 298 011d 01       		.byte	1
 299              		.global	OSDbg_StatTaskStkChkEn
 300              		.type	OSDbg_StatTaskStkChkEn, %object
 301              		.size	OSDbg_StatTaskStkChkEn, 1
 302              	OSDbg_StatTaskStkChkEn:
 303 011e 01       		.byte	1
 304              		.global	OSDbg_TaskChangePrioEn
 305              		.type	OSDbg_TaskChangePrioEn, %object
 306              		.size	OSDbg_TaskChangePrioEn, 1
 307              	OSDbg_TaskChangePrioEn:
 308 011f 01       		.byte	1
 309              		.global	OSDbg_TaskDelEn
 310              		.type	OSDbg_TaskDelEn, %object
 311              		.size	OSDbg_TaskDelEn, 1
 312              	OSDbg_TaskDelEn:
 313 0120 00       		.space	1
 314              		.global	OSDbg_TaskQEn
 315              		.type	OSDbg_TaskQEn, %object
 316              		.size	OSDbg_TaskQEn, 1
 317              	OSDbg_TaskQEn:
 318 0121 01       		.byte	1
 319              		.global	OSDbg_TaskQPendAbortEn
 320              		.type	OSDbg_TaskQPendAbortEn, %object
 321              		.size	OSDbg_TaskQPendAbortEn, 1
 322              	OSDbg_TaskQPendAbortEn:
ARM GAS  C:\Users\ADMINI~1\AppData\Local\Temp\ccDLN5r4.s 			page 7


 323 0122 00       		.space	1
 324              		.global	OSDbg_TaskProfileEn
 325              		.type	OSDbg_TaskProfileEn, %object
 326              		.size	OSDbg_TaskProfileEn, 1
 327              	OSDbg_TaskProfileEn:
 328 0123 01       		.byte	1
 329              		.global	OSDbg_TaskRegTblSize
 330              		.align	1
 331              		.type	OSDbg_TaskRegTblSize, %object
 332              		.size	OSDbg_TaskRegTblSize, 2
 333              	OSDbg_TaskRegTblSize:
 334 0124 0100     		.short	1
 335              		.global	OSDbg_TaskSemPendAbortEn
 336              		.type	OSDbg_TaskSemPendAbortEn, %object
 337              		.size	OSDbg_TaskSemPendAbortEn, 1
 338              	OSDbg_TaskSemPendAbortEn:
 339 0126 01       		.byte	1
 340              		.global	OSDbg_TaskSuspendEn
 341              		.type	OSDbg_TaskSuspendEn, %object
 342              		.size	OSDbg_TaskSuspendEn, 1
 343              	OSDbg_TaskSuspendEn:
 344 0127 01       		.byte	1
 345              		.global	OSDbg_TCBSize
 346              		.align	1
 347              		.type	OSDbg_TCBSize, %object
 348              		.size	OSDbg_TCBSize, 2
 349              	OSDbg_TCBSize:
 350 0128 C400     		.short	196
 351              		.global	OSDbg_TickListSize
 352              		.align	1
 353              		.type	OSDbg_TickListSize, %object
 354              		.size	OSDbg_TickListSize, 2
 355              	OSDbg_TickListSize:
 356 012a 0800     		.short	8
 357              		.global	OSDbg_TimeDlyHMSMEn
 358              		.type	OSDbg_TimeDlyHMSMEn, %object
 359              		.size	OSDbg_TimeDlyHMSMEn, 1
 360              	OSDbg_TimeDlyHMSMEn:
 361 012c 01       		.byte	1
 362              		.global	OSDbg_TimeDlyResumeEn
 363              		.type	OSDbg_TimeDlyResumeEn, %object
 364              		.size	OSDbg_TimeDlyResumeEn, 1
 365              	OSDbg_TimeDlyResumeEn:
 366 012d 00       		.space	1
 367              		.global	OSDbg_TLS_TblSize
 368              		.align	1
 369              		.type	OSDbg_TLS_TblSize, %object
 370              		.size	OSDbg_TLS_TblSize, 2
 371              	OSDbg_TLS_TblSize:
 372 012e 0000     		.space	2
 373              		.global	OSDbg_Tmr
 374              		.align	2
 375              		.type	OSDbg_Tmr, %object
 376              		.size	OSDbg_Tmr, 48
 377              	OSDbg_Tmr:
 378 0130 00000000 		.space	48
 378      00000000 
ARM GAS  C:\Users\ADMINI~1\AppData\Local\Temp\ccDLN5r4.s 			page 8


 378      00000000 
 378      00000000 
 378      00000000 
 379              		.global	OSDbg_TmrEn
 380              		.type	OSDbg_TmrEn, %object
 381              		.size	OSDbg_TmrEn, 1
 382              	OSDbg_TmrEn:
 383 0160 01       		.byte	1
 384              		.global	OSDbg_TmrDelEn
 385              		.type	OSDbg_TmrDelEn, %object
 386              		.size	OSDbg_TmrDelEn, 1
 387              	OSDbg_TmrDelEn:
 388 0161 00       		.space	1
 389              		.global	OSDbg_TmrSize
 390              		.align	1
 391              		.type	OSDbg_TmrSize, %object
 392              		.size	OSDbg_TmrSize, 2
 393              	OSDbg_TmrSize:
 394 0162 3000     		.short	48
 395              		.global	OSDbg_VersionNbr
 396              		.align	1
 397              		.type	OSDbg_VersionNbr, %object
 398              		.size	OSDbg_VersionNbr, 2
 399              	OSDbg_VersionNbr:
 400 0164 2577     		.short	30501
 401              		.global	OSDbg_DataSize
 402 0166 0000     		.align	2
 403              		.type	OSDbg_DataSize, %object
 404              		.size	OSDbg_DataSize, 4
 405              	OSDbg_DataSize:
 406 0168 6B050000 		.word	1387
 407              		.section	.text.OS_Dbg_Init,"ax",%progbits
 408              		.align	2
 409              		.global	OS_Dbg_Init
 410              		.code	16
 411              		.thumb_func
 412              		.type	OS_Dbg_Init, %function
 413              	OS_Dbg_Init:
 414              	.LFB0:
 415              		.file 1 "..\\..\\..\\..\\..\\..\\Software\\uCOS-III\\Source\\os_dbg.c"
   1:..\..\..\..\..\..\Software\uCOS-III\Source/os_dbg.c **** /*
   2:..\..\..\..\..\..\Software\uCOS-III\Source/os_dbg.c **** ***************************************************************************************************
   3:..\..\..\..\..\..\Software\uCOS-III\Source/os_dbg.c **** *                                                      uC/OS-III
   4:..\..\..\..\..\..\Software\uCOS-III\Source/os_dbg.c **** *                                                 The Real-Time Kernel
   5:..\..\..\..\..\..\Software\uCOS-III\Source/os_dbg.c **** *
   6:..\..\..\..\..\..\Software\uCOS-III\Source/os_dbg.c **** *                                  (c) Copyright 2009-2015; Micrium, Inc.; Weston, FL
   7:..\..\..\..\..\..\Software\uCOS-III\Source/os_dbg.c **** *                           All rights reserved.  Protected by international copyright laws.
   8:..\..\..\..\..\..\Software\uCOS-III\Source/os_dbg.c **** *
   9:..\..\..\..\..\..\Software\uCOS-III\Source/os_dbg.c **** *                                                  DEBUGGER CONSTANTS
  10:..\..\..\..\..\..\Software\uCOS-III\Source/os_dbg.c **** *
  11:..\..\..\..\..\..\Software\uCOS-III\Source/os_dbg.c **** * File    : OS_DBG.C
  12:..\..\..\..\..\..\Software\uCOS-III\Source/os_dbg.c **** * By      : JJL
  13:..\..\..\..\..\..\Software\uCOS-III\Source/os_dbg.c **** * Version : V3.05.01
  14:..\..\..\..\..\..\Software\uCOS-III\Source/os_dbg.c **** *
  15:..\..\..\..\..\..\Software\uCOS-III\Source/os_dbg.c **** * LICENSING TERMS:
  16:..\..\..\..\..\..\Software\uCOS-III\Source/os_dbg.c **** * ---------------
  17:..\..\..\..\..\..\Software\uCOS-III\Source/os_dbg.c **** *           uC/OS-III is provided in source form for FREE short-term evaluation, for educational us
ARM GAS  C:\Users\ADMINI~1\AppData\Local\Temp\ccDLN5r4.s 			page 9


  18:..\..\..\..\..\..\Software\uCOS-III\Source/os_dbg.c **** *           for peaceful research.  If you plan or intend to use uC/OS-III in a commercial applicat
  19:..\..\..\..\..\..\Software\uCOS-III\Source/os_dbg.c **** *           product then, you need to contact Micrium to properly license uC/OS-III for its use in 
  20:..\..\..\..\..\..\Software\uCOS-III\Source/os_dbg.c **** *           application/product.   We provide ALL the source code for your convenience and to help 
  21:..\..\..\..\..\..\Software\uCOS-III\Source/os_dbg.c **** *           experience uC/OS-III.  The fact that the source is provided does NOT mean that you can 
  22:..\..\..\..\..\..\Software\uCOS-III\Source/os_dbg.c **** *           it commercially without paying a licensing fee.
  23:..\..\..\..\..\..\Software\uCOS-III\Source/os_dbg.c **** *
  24:..\..\..\..\..\..\Software\uCOS-III\Source/os_dbg.c **** *           Knowledge of the source code may NOT be used to develop a similar product.
  25:..\..\..\..\..\..\Software\uCOS-III\Source/os_dbg.c **** *
  26:..\..\..\..\..\..\Software\uCOS-III\Source/os_dbg.c **** *           Please help us continue to provide the embedded community with the finest software avai
  27:..\..\..\..\..\..\Software\uCOS-III\Source/os_dbg.c **** *           Your honesty is greatly appreciated.
  28:..\..\..\..\..\..\Software\uCOS-III\Source/os_dbg.c **** *
  29:..\..\..\..\..\..\Software\uCOS-III\Source/os_dbg.c **** *           You can find our product's user manual, API reference, release notes and
  30:..\..\..\..\..\..\Software\uCOS-III\Source/os_dbg.c **** *           more information at https://doc.micrium.com.
  31:..\..\..\..\..\..\Software\uCOS-III\Source/os_dbg.c **** *           You can contact us at www.micrium.com.
  32:..\..\..\..\..\..\Software\uCOS-III\Source/os_dbg.c **** ***************************************************************************************************
  33:..\..\..\..\..\..\Software\uCOS-III\Source/os_dbg.c **** */
  34:..\..\..\..\..\..\Software\uCOS-III\Source/os_dbg.c **** 
  35:..\..\..\..\..\..\Software\uCOS-III\Source/os_dbg.c **** #define  MICRIUM_SOURCE
  36:..\..\..\..\..\..\Software\uCOS-III\Source/os_dbg.c **** #include "os.h"
  37:..\..\..\..\..\..\Software\uCOS-III\Source/os_dbg.c **** 
  38:..\..\..\..\..\..\Software\uCOS-III\Source/os_dbg.c **** #ifdef VSC_INCLUDE_SOURCE_FILE_NAMES
  39:..\..\..\..\..\..\Software\uCOS-III\Source/os_dbg.c **** const  CPU_CHAR  *os_dbg__c = "$Id: $";
  40:..\..\..\..\..\..\Software\uCOS-III\Source/os_dbg.c **** #endif
  41:..\..\..\..\..\..\Software\uCOS-III\Source/os_dbg.c **** 
  42:..\..\..\..\..\..\Software\uCOS-III\Source/os_dbg.c **** CPU_INT08U  const  OSDbg_DbgEn                 = OS_CFG_DBG_EN;                /* Debug constants a
  43:..\..\..\..\..\..\Software\uCOS-III\Source/os_dbg.c **** 
  44:..\..\..\..\..\..\Software\uCOS-III\Source/os_dbg.c **** #if (OS_CFG_DBG_EN == DEF_ENABLED)
  45:..\..\..\..\..\..\Software\uCOS-III\Source/os_dbg.c **** 
  46:..\..\..\..\..\..\Software\uCOS-III\Source/os_dbg.c **** /*
  47:..\..\..\..\..\..\Software\uCOS-III\Source/os_dbg.c **** ***************************************************************************************************
  48:..\..\..\..\..\..\Software\uCOS-III\Source/os_dbg.c **** *                                                      DEBUG DATA
  49:..\..\..\..\..\..\Software\uCOS-III\Source/os_dbg.c **** ***************************************************************************************************
  50:..\..\..\..\..\..\Software\uCOS-III\Source/os_dbg.c **** */
  51:..\..\..\..\..\..\Software\uCOS-III\Source/os_dbg.c **** 
  52:..\..\..\..\..\..\Software\uCOS-III\Source/os_dbg.c **** CPU_INT08U  const  OSDbg_ArgChkEn              = OS_CFG_ARG_CHK_EN;
  53:..\..\..\..\..\..\Software\uCOS-III\Source/os_dbg.c **** CPU_INT08U  const  OSDbg_AppHooksEn            = OS_CFG_APP_HOOKS_EN;
  54:..\..\..\..\..\..\Software\uCOS-III\Source/os_dbg.c **** 
  55:..\..\..\..\..\..\Software\uCOS-III\Source/os_dbg.c **** CPU_INT32U  const  OSDbg_EndiannessTest        = 0x12345678LU;                 /* Variable to test 
  56:..\..\..\..\..\..\Software\uCOS-III\Source/os_dbg.c **** 
  57:..\..\..\..\..\..\Software\uCOS-III\Source/os_dbg.c **** CPU_INT08U  const  OSDbg_CalledFromISRChkEn    = OS_CFG_CALLED_FROM_ISR_CHK_EN;
  58:..\..\..\..\..\..\Software\uCOS-III\Source/os_dbg.c **** 
  59:..\..\..\..\..\..\Software\uCOS-III\Source/os_dbg.c **** CPU_INT08U  const  OSDbg_FlagEn                = OS_CFG_FLAG_EN;
  60:..\..\..\..\..\..\Software\uCOS-III\Source/os_dbg.c **** OS_FLAG_GRP const  OSDbg_FlagGrp               = { 0u };
  61:..\..\..\..\..\..\Software\uCOS-III\Source/os_dbg.c **** #if (OS_CFG_FLAG_EN == DEF_ENABLED)
  62:..\..\..\..\..\..\Software\uCOS-III\Source/os_dbg.c **** CPU_INT08U  const  OSDbg_FlagDelEn             = OS_CFG_FLAG_DEL_EN;
  63:..\..\..\..\..\..\Software\uCOS-III\Source/os_dbg.c **** CPU_INT08U  const  OSDbg_FlagModeClrEn         = OS_CFG_FLAG_MODE_CLR_EN;
  64:..\..\..\..\..\..\Software\uCOS-III\Source/os_dbg.c **** CPU_INT08U  const  OSDbg_FlagPendAbortEn       = OS_CFG_FLAG_PEND_ABORT_EN;
  65:..\..\..\..\..\..\Software\uCOS-III\Source/os_dbg.c **** CPU_INT16U  const  OSDbg_FlagGrpSize           = sizeof(OS_FLAG_GRP);          /* Size in Bytes of 
  66:..\..\..\..\..\..\Software\uCOS-III\Source/os_dbg.c **** CPU_INT16U  const  OSDbg_FlagWidth             = sizeof(OS_FLAGS);             /* Width (in bytes) 
  67:..\..\..\..\..\..\Software\uCOS-III\Source/os_dbg.c **** #else
  68:..\..\..\..\..\..\Software\uCOS-III\Source/os_dbg.c **** CPU_INT08U  const  OSDbg_FlagDelEn             = 0u;
  69:..\..\..\..\..\..\Software\uCOS-III\Source/os_dbg.c **** CPU_INT08U  const  OSDbg_FlagModeClrEn         = 0u;
  70:..\..\..\..\..\..\Software\uCOS-III\Source/os_dbg.c **** CPU_INT08U  const  OSDbg_FlagPendAbortEn       = 0u;
  71:..\..\..\..\..\..\Software\uCOS-III\Source/os_dbg.c **** CPU_INT16U  const  OSDbg_FlagGrpSize           = 0u;
  72:..\..\..\..\..\..\Software\uCOS-III\Source/os_dbg.c **** CPU_INT16U  const  OSDbg_FlagWidth             = 0u;
  73:..\..\..\..\..\..\Software\uCOS-III\Source/os_dbg.c **** #endif
  74:..\..\..\..\..\..\Software\uCOS-III\Source/os_dbg.c **** 
ARM GAS  C:\Users\ADMINI~1\AppData\Local\Temp\ccDLN5r4.s 			page 10


  75:..\..\..\..\..\..\Software\uCOS-III\Source/os_dbg.c **** #if (OS_CFG_ISR_POST_DEFERRED_EN == DEF_ENABLED)
  76:..\..\..\..\..\..\Software\uCOS-III\Source/os_dbg.c **** CPU_INT16U  const  OSDbg_IntQ                  = sizeof(OS_INT_Q);
  77:..\..\..\..\..\..\Software\uCOS-III\Source/os_dbg.c **** #else
  78:..\..\..\..\..\..\Software\uCOS-III\Source/os_dbg.c **** CPU_INT16U  const  OSDbg_IntQ                  = 0u;
  79:..\..\..\..\..\..\Software\uCOS-III\Source/os_dbg.c **** #endif
  80:..\..\..\..\..\..\Software\uCOS-III\Source/os_dbg.c **** 
  81:..\..\..\..\..\..\Software\uCOS-III\Source/os_dbg.c **** CPU_INT08U  const  OSDbg_ISRPostDeferredEn     = OS_CFG_ISR_POST_DEFERRED_EN;
  82:..\..\..\..\..\..\Software\uCOS-III\Source/os_dbg.c **** 
  83:..\..\..\..\..\..\Software\uCOS-III\Source/os_dbg.c **** OS_MEM      const  OSDbg_Mem                   = { 0u };
  84:..\..\..\..\..\..\Software\uCOS-III\Source/os_dbg.c **** CPU_INT08U  const  OSDbg_MemEn                 = OS_CFG_MEM_EN;
  85:..\..\..\..\..\..\Software\uCOS-III\Source/os_dbg.c **** #if OS_CFG_MEM_EN > 0u
  86:..\..\..\..\..\..\Software\uCOS-III\Source/os_dbg.c **** CPU_INT16U  const  OSDbg_MemSize               = sizeof(OS_MEM);               /* Mem. Partition he
  87:..\..\..\..\..\..\Software\uCOS-III\Source/os_dbg.c **** #else
  88:..\..\..\..\..\..\Software\uCOS-III\Source/os_dbg.c **** CPU_INT16U  const  OSDbg_MemSize               = 0u;
  89:..\..\..\..\..\..\Software\uCOS-III\Source/os_dbg.c **** #endif
  90:..\..\..\..\..\..\Software\uCOS-III\Source/os_dbg.c **** 
  91:..\..\..\..\..\..\Software\uCOS-III\Source/os_dbg.c **** 
  92:..\..\..\..\..\..\Software\uCOS-III\Source/os_dbg.c **** #if (OS_MSG_EN == DEF_ENABLED)
  93:..\..\..\..\..\..\Software\uCOS-III\Source/os_dbg.c **** CPU_INT08U  const  OSDbg_MsgEn                 = 1u;
  94:..\..\..\..\..\..\Software\uCOS-III\Source/os_dbg.c **** CPU_INT16U  const  OSDbg_MsgSize               = sizeof(OS_MSG);               /* OS_MSG size      
  95:..\..\..\..\..\..\Software\uCOS-III\Source/os_dbg.c **** CPU_INT16U  const  OSDbg_MsgPoolSize           = sizeof(OS_MSG_POOL);
  96:..\..\..\..\..\..\Software\uCOS-III\Source/os_dbg.c **** CPU_INT16U  const  OSDbg_MsgQSize              = sizeof(OS_MSG_Q);
  97:..\..\..\..\..\..\Software\uCOS-III\Source/os_dbg.c **** #else
  98:..\..\..\..\..\..\Software\uCOS-III\Source/os_dbg.c **** CPU_INT08U  const  OSDbg_MsgEn                 = 0u;
  99:..\..\..\..\..\..\Software\uCOS-III\Source/os_dbg.c **** CPU_INT16U  const  OSDbg_MsgSize               = 0u;
 100:..\..\..\..\..\..\Software\uCOS-III\Source/os_dbg.c **** CPU_INT16U  const  OSDbg_MsgPoolSize           = 0u;
 101:..\..\..\..\..\..\Software\uCOS-III\Source/os_dbg.c **** CPU_INT16U  const  OSDbg_MsgQSize              = 0u;
 102:..\..\..\..\..\..\Software\uCOS-III\Source/os_dbg.c **** #endif
 103:..\..\..\..\..\..\Software\uCOS-III\Source/os_dbg.c **** 
 104:..\..\..\..\..\..\Software\uCOS-III\Source/os_dbg.c **** 
 105:..\..\..\..\..\..\Software\uCOS-III\Source/os_dbg.c **** OS_MUTEX    const  OSDbg_Mutex                 = { 0u };
 106:..\..\..\..\..\..\Software\uCOS-III\Source/os_dbg.c **** CPU_INT08U  const  OSDbg_MutexEn               = OS_CFG_MUTEX_EN;
 107:..\..\..\..\..\..\Software\uCOS-III\Source/os_dbg.c **** #if (OS_CFG_MUTEX_EN == DEF_ENABLED)
 108:..\..\..\..\..\..\Software\uCOS-III\Source/os_dbg.c **** CPU_INT08U  const  OSDbg_MutexDelEn            = OS_CFG_MUTEX_DEL_EN;
 109:..\..\..\..\..\..\Software\uCOS-III\Source/os_dbg.c **** CPU_INT08U  const  OSDbg_MutexPendAbortEn      = OS_CFG_MUTEX_PEND_ABORT_EN;
 110:..\..\..\..\..\..\Software\uCOS-III\Source/os_dbg.c **** CPU_INT16U  const  OSDbg_MutexSize             = sizeof(OS_MUTEX);             /* Size in bytes of 
 111:..\..\..\..\..\..\Software\uCOS-III\Source/os_dbg.c **** #else
 112:..\..\..\..\..\..\Software\uCOS-III\Source/os_dbg.c **** CPU_INT08U  const  OSDbg_MutexDelEn            = 0u;
 113:..\..\..\..\..\..\Software\uCOS-III\Source/os_dbg.c **** CPU_INT08U  const  OSDbg_MutexPendAbortEn      = 0u;
 114:..\..\..\..\..\..\Software\uCOS-III\Source/os_dbg.c **** CPU_INT16U  const  OSDbg_MutexSize             = 0u;
 115:..\..\..\..\..\..\Software\uCOS-III\Source/os_dbg.c **** #endif
 116:..\..\..\..\..\..\Software\uCOS-III\Source/os_dbg.c **** 
 117:..\..\..\..\..\..\Software\uCOS-III\Source/os_dbg.c **** CPU_INT08U  const  OSDbg_ObjTypeChkEn          = OS_CFG_OBJ_TYPE_CHK_EN;
 118:..\..\..\..\..\..\Software\uCOS-III\Source/os_dbg.c **** 
 119:..\..\..\..\..\..\Software\uCOS-III\Source/os_dbg.c **** 
 120:..\..\..\..\..\..\Software\uCOS-III\Source/os_dbg.c **** CPU_INT08U  const  OSDbg_PendMultiEn           = OS_CFG_PEND_MULTI_EN;
 121:..\..\..\..\..\..\Software\uCOS-III\Source/os_dbg.c **** CPU_INT16U  const  OSDbg_PendDataSize          = sizeof(OS_PEND_DATA);
 122:..\..\..\..\..\..\Software\uCOS-III\Source/os_dbg.c **** CPU_INT16U  const  OSDbg_PendListSize          = sizeof(OS_PEND_LIST);
 123:..\..\..\..\..\..\Software\uCOS-III\Source/os_dbg.c **** CPU_INT16U  const  OSDbg_PendObjSize           = sizeof(OS_PEND_OBJ);
 124:..\..\..\..\..\..\Software\uCOS-III\Source/os_dbg.c **** 
 125:..\..\..\..\..\..\Software\uCOS-III\Source/os_dbg.c **** 
 126:..\..\..\..\..\..\Software\uCOS-III\Source/os_dbg.c **** CPU_INT16U  const  OSDbg_PrioMax               = OS_CFG_PRIO_MAX;              /* Maximum number of
 127:..\..\..\..\..\..\Software\uCOS-III\Source/os_dbg.c **** CPU_INT16U  const  OSDbg_PrioTblSize           = sizeof(OSPrioTbl);
 128:..\..\..\..\..\..\Software\uCOS-III\Source/os_dbg.c **** 
 129:..\..\..\..\..\..\Software\uCOS-III\Source/os_dbg.c **** CPU_INT16U  const  OSDbg_PtrSize               = sizeof(void *);               /* Size in Bytes of 
 130:..\..\..\..\..\..\Software\uCOS-III\Source/os_dbg.c **** 
 131:..\..\..\..\..\..\Software\uCOS-III\Source/os_dbg.c **** 
ARM GAS  C:\Users\ADMINI~1\AppData\Local\Temp\ccDLN5r4.s 			page 11


 132:..\..\..\..\..\..\Software\uCOS-III\Source/os_dbg.c **** OS_Q        const  OSDbg_Q                     = { 0u };
 133:..\..\..\..\..\..\Software\uCOS-III\Source/os_dbg.c **** CPU_INT08U  const  OSDbg_QEn                   = OS_CFG_Q_EN;
 134:..\..\..\..\..\..\Software\uCOS-III\Source/os_dbg.c **** #if (OS_CFG_Q_EN == DEF_ENABLED)
 135:..\..\..\..\..\..\Software\uCOS-III\Source/os_dbg.c **** CPU_INT08U  const  OSDbg_QDelEn                = OS_CFG_Q_DEL_EN;
 136:..\..\..\..\..\..\Software\uCOS-III\Source/os_dbg.c **** CPU_INT08U  const  OSDbg_QFlushEn              = OS_CFG_Q_FLUSH_EN;
 137:..\..\..\..\..\..\Software\uCOS-III\Source/os_dbg.c **** CPU_INT08U  const  OSDbg_QPendAbortEn          = OS_CFG_Q_PEND_ABORT_EN;
 138:..\..\..\..\..\..\Software\uCOS-III\Source/os_dbg.c **** CPU_INT16U  const  OSDbg_QSize                 = sizeof(OS_Q);                 /* Size in bytes of 
 139:..\..\..\..\..\..\Software\uCOS-III\Source/os_dbg.c **** #else
 140:..\..\..\..\..\..\Software\uCOS-III\Source/os_dbg.c **** CPU_INT08U  const  OSDbg_QDelEn                = 0u;
 141:..\..\..\..\..\..\Software\uCOS-III\Source/os_dbg.c **** CPU_INT08U  const  OSDbg_QFlushEn              = 0u;
 142:..\..\..\..\..\..\Software\uCOS-III\Source/os_dbg.c **** CPU_INT08U  const  OSDbg_QPendAbortEn          = 0u;
 143:..\..\..\..\..\..\Software\uCOS-III\Source/os_dbg.c **** CPU_INT16U  const  OSDbg_QSize                 = 0u;
 144:..\..\..\..\..\..\Software\uCOS-III\Source/os_dbg.c **** #endif
 145:..\..\..\..\..\..\Software\uCOS-III\Source/os_dbg.c **** 
 146:..\..\..\..\..\..\Software\uCOS-III\Source/os_dbg.c **** 
 147:..\..\..\..\..\..\Software\uCOS-III\Source/os_dbg.c **** CPU_INT08U  const  OSDbg_SchedRoundRobinEn     = OS_CFG_SCHED_ROUND_ROBIN_EN;
 148:..\..\..\..\..\..\Software\uCOS-III\Source/os_dbg.c **** 
 149:..\..\..\..\..\..\Software\uCOS-III\Source/os_dbg.c **** 
 150:..\..\..\..\..\..\Software\uCOS-III\Source/os_dbg.c **** OS_SEM      const  OSDbg_Sem                   = { 0u };
 151:..\..\..\..\..\..\Software\uCOS-III\Source/os_dbg.c **** CPU_INT08U  const  OSDbg_SemEn                 = OS_CFG_SEM_EN;
 152:..\..\..\..\..\..\Software\uCOS-III\Source/os_dbg.c **** #if (OS_CFG_SEM_EN == DEF_ENABLED)
 153:..\..\..\..\..\..\Software\uCOS-III\Source/os_dbg.c **** CPU_INT08U  const  OSDbg_SemDelEn              = OS_CFG_SEM_DEL_EN;
 154:..\..\..\..\..\..\Software\uCOS-III\Source/os_dbg.c **** CPU_INT08U  const  OSDbg_SemPendAbortEn        = OS_CFG_SEM_PEND_ABORT_EN;
 155:..\..\..\..\..\..\Software\uCOS-III\Source/os_dbg.c **** CPU_INT08U  const  OSDbg_SemSetEn              = OS_CFG_SEM_SET_EN;
 156:..\..\..\..\..\..\Software\uCOS-III\Source/os_dbg.c **** CPU_INT16U  const  OSDbg_SemSize               = sizeof(OS_SEM);               /* Size in bytes of 
 157:..\..\..\..\..\..\Software\uCOS-III\Source/os_dbg.c **** #else
 158:..\..\..\..\..\..\Software\uCOS-III\Source/os_dbg.c **** CPU_INT08U  const  OSDbg_SemDelEn              = 0u;
 159:..\..\..\..\..\..\Software\uCOS-III\Source/os_dbg.c **** CPU_INT08U  const  OSDbg_SemPendAbortEn        = 0u;
 160:..\..\..\..\..\..\Software\uCOS-III\Source/os_dbg.c **** CPU_INT08U  const  OSDbg_SemSetEn              = 0u;
 161:..\..\..\..\..\..\Software\uCOS-III\Source/os_dbg.c **** CPU_INT16U  const  OSDbg_SemSize               = 0u;
 162:..\..\..\..\..\..\Software\uCOS-III\Source/os_dbg.c **** #endif
 163:..\..\..\..\..\..\Software\uCOS-III\Source/os_dbg.c **** 
 164:..\..\..\..\..\..\Software\uCOS-III\Source/os_dbg.c **** 
 165:..\..\..\..\..\..\Software\uCOS-III\Source/os_dbg.c **** CPU_INT16U  const  OSDbg_RdyList               = sizeof(OS_RDY_LIST);
 166:..\..\..\..\..\..\Software\uCOS-III\Source/os_dbg.c **** CPU_INT32U  const  OSDbg_RdyListSize           = sizeof(OSRdyList);            /* Number of bytes i
 167:..\..\..\..\..\..\Software\uCOS-III\Source/os_dbg.c **** 
 168:..\..\..\..\..\..\Software\uCOS-III\Source/os_dbg.c **** CPU_INT08U  const  OSDbg_StkWidth              = sizeof(CPU_STK);
 169:..\..\..\..\..\..\Software\uCOS-III\Source/os_dbg.c **** 
 170:..\..\..\..\..\..\Software\uCOS-III\Source/os_dbg.c **** CPU_INT08U  const  OSDbg_StatTaskEn            = OS_CFG_STAT_TASK_EN;
 171:..\..\..\..\..\..\Software\uCOS-III\Source/os_dbg.c **** CPU_INT08U  const  OSDbg_StatTaskStkChkEn      = OS_CFG_STAT_TASK_STK_CHK_EN;
 172:..\..\..\..\..\..\Software\uCOS-III\Source/os_dbg.c **** 
 173:..\..\..\..\..\..\Software\uCOS-III\Source/os_dbg.c **** CPU_INT08U  const  OSDbg_TaskChangePrioEn      = OS_CFG_TASK_CHANGE_PRIO_EN;
 174:..\..\..\..\..\..\Software\uCOS-III\Source/os_dbg.c **** CPU_INT08U  const  OSDbg_TaskDelEn             = OS_CFG_TASK_DEL_EN;
 175:..\..\..\..\..\..\Software\uCOS-III\Source/os_dbg.c **** CPU_INT08U  const  OSDbg_TaskQEn               = OS_CFG_TASK_Q_EN;
 176:..\..\..\..\..\..\Software\uCOS-III\Source/os_dbg.c **** CPU_INT08U  const  OSDbg_TaskQPendAbortEn      = OS_CFG_TASK_Q_PEND_ABORT_EN;
 177:..\..\..\..\..\..\Software\uCOS-III\Source/os_dbg.c **** CPU_INT08U  const  OSDbg_TaskProfileEn         = OS_CFG_TASK_PROFILE_EN;
 178:..\..\..\..\..\..\Software\uCOS-III\Source/os_dbg.c **** CPU_INT16U  const  OSDbg_TaskRegTblSize        = OS_CFG_TASK_REG_TBL_SIZE;
 179:..\..\..\..\..\..\Software\uCOS-III\Source/os_dbg.c **** CPU_INT08U  const  OSDbg_TaskSemPendAbortEn    = OS_CFG_TASK_SEM_PEND_ABORT_EN;
 180:..\..\..\..\..\..\Software\uCOS-III\Source/os_dbg.c **** CPU_INT08U  const  OSDbg_TaskSuspendEn         = OS_CFG_TASK_SUSPEND_EN;
 181:..\..\..\..\..\..\Software\uCOS-III\Source/os_dbg.c **** 
 182:..\..\..\..\..\..\Software\uCOS-III\Source/os_dbg.c **** 
 183:..\..\..\..\..\..\Software\uCOS-III\Source/os_dbg.c **** CPU_INT16U  const  OSDbg_TCBSize               = sizeof(OS_TCB);               /* Size in Bytes of 
 184:..\..\..\..\..\..\Software\uCOS-III\Source/os_dbg.c **** 
 185:..\..\..\..\..\..\Software\uCOS-III\Source/os_dbg.c **** CPU_INT16U  const  OSDbg_TickListSize          = sizeof(OS_TICK_LIST);
 186:..\..\..\..\..\..\Software\uCOS-III\Source/os_dbg.c **** 
 187:..\..\..\..\..\..\Software\uCOS-III\Source/os_dbg.c **** CPU_INT08U  const  OSDbg_TimeDlyHMSMEn         = OS_CFG_TIME_DLY_HMSM_EN;
 188:..\..\..\..\..\..\Software\uCOS-III\Source/os_dbg.c **** CPU_INT08U  const  OSDbg_TimeDlyResumeEn       = OS_CFG_TIME_DLY_RESUME_EN;
ARM GAS  C:\Users\ADMINI~1\AppData\Local\Temp\ccDLN5r4.s 			page 12


 189:..\..\..\..\..\..\Software\uCOS-III\Source/os_dbg.c **** 
 190:..\..\..\..\..\..\Software\uCOS-III\Source/os_dbg.c **** #if defined(OS_CFG_TLS_TBL_SIZE) && (OS_CFG_TLS_TBL_SIZE > 0u)
 191:..\..\..\..\..\..\Software\uCOS-III\Source/os_dbg.c **** CPU_INT16U  const  OSDbg_TLS_TblSize           = OS_CFG_TLS_TBL_SIZE * sizeof(OS_TLS);
 192:..\..\..\..\..\..\Software\uCOS-III\Source/os_dbg.c **** #else
 193:..\..\..\..\..\..\Software\uCOS-III\Source/os_dbg.c **** CPU_INT16U  const  OSDbg_TLS_TblSize           = 0u;
 194:..\..\..\..\..\..\Software\uCOS-III\Source/os_dbg.c **** #endif
 195:..\..\..\..\..\..\Software\uCOS-III\Source/os_dbg.c **** 
 196:..\..\..\..\..\..\Software\uCOS-III\Source/os_dbg.c **** 
 197:..\..\..\..\..\..\Software\uCOS-III\Source/os_dbg.c **** OS_TMR      const  OSDbg_Tmr                   = { 0u };
 198:..\..\..\..\..\..\Software\uCOS-III\Source/os_dbg.c **** CPU_INT08U  const  OSDbg_TmrEn                 = OS_CFG_TMR_EN;
 199:..\..\..\..\..\..\Software\uCOS-III\Source/os_dbg.c **** #if (OS_CFG_TMR_EN == DEF_ENABLED)
 200:..\..\..\..\..\..\Software\uCOS-III\Source/os_dbg.c **** CPU_INT08U  const  OSDbg_TmrDelEn              = OS_CFG_TMR_DEL_EN;
 201:..\..\..\..\..\..\Software\uCOS-III\Source/os_dbg.c **** CPU_INT16U  const  OSDbg_TmrSize               = sizeof(OS_TMR);
 202:..\..\..\..\..\..\Software\uCOS-III\Source/os_dbg.c **** #else
 203:..\..\..\..\..\..\Software\uCOS-III\Source/os_dbg.c **** CPU_INT08U  const  OSDbg_TmrDelEn              = 0u;
 204:..\..\..\..\..\..\Software\uCOS-III\Source/os_dbg.c **** CPU_INT16U  const  OSDbg_TmrSize               = 0u;
 205:..\..\..\..\..\..\Software\uCOS-III\Source/os_dbg.c **** #endif
 206:..\..\..\..\..\..\Software\uCOS-III\Source/os_dbg.c **** 
 207:..\..\..\..\..\..\Software\uCOS-III\Source/os_dbg.c **** CPU_INT16U  const  OSDbg_VersionNbr            = OS_VERSION;
 208:..\..\..\..\..\..\Software\uCOS-III\Source/os_dbg.c **** 
 209:..\..\..\..\..\..\Software\uCOS-III\Source/os_dbg.c **** 
 210:..\..\..\..\..\..\Software\uCOS-III\Source/os_dbg.c **** /*
 211:..\..\..\..\..\..\Software\uCOS-III\Source/os_dbg.c **** ***************************************************************************************************
 212:..\..\..\..\..\..\Software\uCOS-III\Source/os_dbg.c **** *                                                      DEBUG DATA
 213:..\..\..\..\..\..\Software\uCOS-III\Source/os_dbg.c **** *                                     TOTAL DATA SPACE (i.e. RAM) USED BY uC/OS-III
 214:..\..\..\..\..\..\Software\uCOS-III\Source/os_dbg.c **** ***************************************************************************************************
 215:..\..\..\..\..\..\Software\uCOS-III\Source/os_dbg.c **** */
 216:..\..\..\..\..\..\Software\uCOS-III\Source/os_dbg.c **** 
 217:..\..\..\..\..\..\Software\uCOS-III\Source/os_dbg.c **** CPU_INT32U  const  OSDbg_DataSize = sizeof(OSIntNestingCtr)
 218:..\..\..\..\..\..\Software\uCOS-III\Source/os_dbg.c **** 
 219:..\..\..\..\..\..\Software\uCOS-III\Source/os_dbg.c **** #if (OS_CFG_APP_HOOKS_EN == DEF_ENABLED)
 220:..\..\..\..\..\..\Software\uCOS-III\Source/os_dbg.c **** #if (OS_CFG_TASK_STK_REDZONE_EN == DEF_ENABLED)
 221:..\..\..\..\..\..\Software\uCOS-III\Source/os_dbg.c ****                                   + sizeof(OS_AppRedzoneHitHookPtr)
 222:..\..\..\..\..\..\Software\uCOS-III\Source/os_dbg.c **** #endif
 223:..\..\..\..\..\..\Software\uCOS-III\Source/os_dbg.c ****                                   + sizeof(OS_AppTaskCreateHookPtr)
 224:..\..\..\..\..\..\Software\uCOS-III\Source/os_dbg.c ****                                   + sizeof(OS_AppTaskDelHookPtr)
 225:..\..\..\..\..\..\Software\uCOS-III\Source/os_dbg.c ****                                   + sizeof(OS_AppTaskReturnHookPtr)
 226:..\..\..\..\..\..\Software\uCOS-III\Source/os_dbg.c **** 
 227:..\..\..\..\..\..\Software\uCOS-III\Source/os_dbg.c ****                                   + sizeof(OS_AppIdleTaskHookPtr)
 228:..\..\..\..\..\..\Software\uCOS-III\Source/os_dbg.c ****                                   + sizeof(OS_AppStatTaskHookPtr)
 229:..\..\..\..\..\..\Software\uCOS-III\Source/os_dbg.c ****                                   + sizeof(OS_AppTaskSwHookPtr)
 230:..\..\..\..\..\..\Software\uCOS-III\Source/os_dbg.c ****                                   + sizeof(OS_AppTimeTickHookPtr)
 231:..\..\..\..\..\..\Software\uCOS-III\Source/os_dbg.c **** #endif
 232:..\..\..\..\..\..\Software\uCOS-III\Source/os_dbg.c **** 
 233:..\..\..\..\..\..\Software\uCOS-III\Source/os_dbg.c **** #if (OS_CFG_DBG_EN == DEF_ENABLED)
 234:..\..\..\..\..\..\Software\uCOS-III\Source/os_dbg.c ****                                   + sizeof(OSIdleTaskCtr)
 235:..\..\..\..\..\..\Software\uCOS-III\Source/os_dbg.c **** #endif
 236:..\..\..\..\..\..\Software\uCOS-III\Source/os_dbg.c **** #if (OS_CFG_TASK_IDLE_EN == DEF_ENABLED)
 237:..\..\..\..\..\..\Software\uCOS-III\Source/os_dbg.c ****                                   + sizeof(OSIdleTaskTCB)
 238:..\..\..\..\..\..\Software\uCOS-III\Source/os_dbg.c **** #endif
 239:..\..\..\..\..\..\Software\uCOS-III\Source/os_dbg.c **** 
 240:..\..\..\..\..\..\Software\uCOS-III\Source/os_dbg.c **** #ifdef CPU_CFG_INT_DIS_MEAS_EN
 241:..\..\..\..\..\..\Software\uCOS-III\Source/os_dbg.c ****                                   + sizeof(OSIntDisTimeMax)
 242:..\..\..\..\..\..\Software\uCOS-III\Source/os_dbg.c **** #endif
 243:..\..\..\..\..\..\Software\uCOS-III\Source/os_dbg.c **** 
 244:..\..\..\..\..\..\Software\uCOS-III\Source/os_dbg.c **** #if OS_CFG_ISR_POST_DEFERRED_EN > 0u
 245:..\..\..\..\..\..\Software\uCOS-III\Source/os_dbg.c ****                                   + sizeof(OSIntQInPtr)
ARM GAS  C:\Users\ADMINI~1\AppData\Local\Temp\ccDLN5r4.s 			page 13


 246:..\..\..\..\..\..\Software\uCOS-III\Source/os_dbg.c ****                                   + sizeof(OSIntQOutPtr)
 247:..\..\..\..\..\..\Software\uCOS-III\Source/os_dbg.c ****                                   + sizeof(OSIntQNbrEntries)
 248:..\..\..\..\..\..\Software\uCOS-III\Source/os_dbg.c ****                                   + sizeof(OSIntQNbrEntriesMax)
 249:..\..\..\..\..\..\Software\uCOS-III\Source/os_dbg.c ****                                   + sizeof(OSIntQOvfCtr)
 250:..\..\..\..\..\..\Software\uCOS-III\Source/os_dbg.c ****                                   + sizeof(OSIntQTaskTCB)
 251:..\..\..\..\..\..\Software\uCOS-III\Source/os_dbg.c **** #if (OS_CFG_TS_EN == DEF_ENABLED)
 252:..\..\..\..\..\..\Software\uCOS-III\Source/os_dbg.c ****                                   + sizeof(OSIntQTaskTimeMax)
 253:..\..\..\..\..\..\Software\uCOS-III\Source/os_dbg.c **** #endif
 254:..\..\..\..\..\..\Software\uCOS-III\Source/os_dbg.c **** #endif
 255:..\..\..\..\..\..\Software\uCOS-III\Source/os_dbg.c **** 
 256:..\..\..\..\..\..\Software\uCOS-III\Source/os_dbg.c ****                                   + sizeof(OSRunning)
 257:..\..\..\..\..\..\Software\uCOS-III\Source/os_dbg.c ****                                   + sizeof(OSInitialized)
 258:..\..\..\..\..\..\Software\uCOS-III\Source/os_dbg.c **** 
 259:..\..\..\..\..\..\Software\uCOS-III\Source/os_dbg.c **** #ifdef OS_SAFETY_CRITICAL_IEC61508
 260:..\..\..\..\..\..\Software\uCOS-III\Source/os_dbg.c ****                                   + sizeof(OSSafetyCriticalStartFlag)
 261:..\..\..\..\..\..\Software\uCOS-III\Source/os_dbg.c **** #endif
 262:..\..\..\..\..\..\Software\uCOS-III\Source/os_dbg.c **** 
 263:..\..\..\..\..\..\Software\uCOS-III\Source/os_dbg.c **** #if (OS_CFG_FLAG_EN == DEF_ENABLED)
 264:..\..\..\..\..\..\Software\uCOS-III\Source/os_dbg.c **** #if (OS_CFG_DBG_EN == DEF_ENABLED)
 265:..\..\..\..\..\..\Software\uCOS-III\Source/os_dbg.c ****                                   + sizeof(OSFlagDbgListPtr)
 266:..\..\..\..\..\..\Software\uCOS-III\Source/os_dbg.c ****                                   + sizeof(OSFlagQty)
 267:..\..\..\..\..\..\Software\uCOS-III\Source/os_dbg.c **** #endif
 268:..\..\..\..\..\..\Software\uCOS-III\Source/os_dbg.c **** #endif
 269:..\..\..\..\..\..\Software\uCOS-III\Source/os_dbg.c **** 
 270:..\..\..\..\..\..\Software\uCOS-III\Source/os_dbg.c **** #if (OS_CFG_MON_EN == DEF_ENABLED)
 271:..\..\..\..\..\..\Software\uCOS-III\Source/os_dbg.c **** #if (OS_CFG_DBG_EN == DEF_ENABLED)
 272:..\..\..\..\..\..\Software\uCOS-III\Source/os_dbg.c ****                                   + sizeof(OSMonDbgListPtr)
 273:..\..\..\..\..\..\Software\uCOS-III\Source/os_dbg.c ****                                   + sizeof(OSMonQty)
 274:..\..\..\..\..\..\Software\uCOS-III\Source/os_dbg.c **** #endif
 275:..\..\..\..\..\..\Software\uCOS-III\Source/os_dbg.c **** #endif
 276:..\..\..\..\..\..\Software\uCOS-III\Source/os_dbg.c **** 
 277:..\..\..\..\..\..\Software\uCOS-III\Source/os_dbg.c **** #if (OS_CFG_MEM_EN == DEF_ENABLED)
 278:..\..\..\..\..\..\Software\uCOS-III\Source/os_dbg.c **** #if (OS_CFG_DBG_EN == DEF_ENABLED)
 279:..\..\..\..\..\..\Software\uCOS-III\Source/os_dbg.c ****                                   + sizeof(OSMemDbgListPtr)
 280:..\..\..\..\..\..\Software\uCOS-III\Source/os_dbg.c ****                                   + sizeof(OSMemQty)
 281:..\..\..\..\..\..\Software\uCOS-III\Source/os_dbg.c **** #endif
 282:..\..\..\..\..\..\Software\uCOS-III\Source/os_dbg.c **** #endif
 283:..\..\..\..\..\..\Software\uCOS-III\Source/os_dbg.c **** 
 284:..\..\..\..\..\..\Software\uCOS-III\Source/os_dbg.c **** #if (OS_MSG_EN == DEF_ENABLED)
 285:..\..\..\..\..\..\Software\uCOS-III\Source/os_dbg.c ****                                   + sizeof(OSMsgPool)
 286:..\..\..\..\..\..\Software\uCOS-III\Source/os_dbg.c **** #endif
 287:..\..\..\..\..\..\Software\uCOS-III\Source/os_dbg.c **** 
 288:..\..\..\..\..\..\Software\uCOS-III\Source/os_dbg.c **** #if (OS_CFG_MUTEX_EN == DEF_ENABLED)
 289:..\..\..\..\..\..\Software\uCOS-III\Source/os_dbg.c **** #if (OS_CFG_DBG_EN == DEF_ENABLED)
 290:..\..\..\..\..\..\Software\uCOS-III\Source/os_dbg.c ****                                   + sizeof(OSMutexDbgListPtr)
 291:..\..\..\..\..\..\Software\uCOS-III\Source/os_dbg.c ****                                   + sizeof(OSMutexQty)
 292:..\..\..\..\..\..\Software\uCOS-III\Source/os_dbg.c **** #endif
 293:..\..\..\..\..\..\Software\uCOS-III\Source/os_dbg.c **** #endif
 294:..\..\..\..\..\..\Software\uCOS-III\Source/os_dbg.c **** 
 295:..\..\..\..\..\..\Software\uCOS-III\Source/os_dbg.c ****                                   + sizeof(OSPrioCur)
 296:..\..\..\..\..\..\Software\uCOS-III\Source/os_dbg.c ****                                   + sizeof(OSPrioHighRdy)
 297:..\..\..\..\..\..\Software\uCOS-III\Source/os_dbg.c **** #if (OS_CFG_ISR_POST_DEFERRED_EN == DEF_ENABLED)
 298:..\..\..\..\..\..\Software\uCOS-III\Source/os_dbg.c ****                                   + sizeof(OSPrioSaved)
 299:..\..\..\..\..\..\Software\uCOS-III\Source/os_dbg.c **** #endif
 300:..\..\..\..\..\..\Software\uCOS-III\Source/os_dbg.c ****                                   + sizeof(OSPrioTbl)
 301:..\..\..\..\..\..\Software\uCOS-III\Source/os_dbg.c **** 
 302:..\..\..\..\..\..\Software\uCOS-III\Source/os_dbg.c **** #if (OS_CFG_Q_EN == DEF_ENABLED)
ARM GAS  C:\Users\ADMINI~1\AppData\Local\Temp\ccDLN5r4.s 			page 14


 303:..\..\..\..\..\..\Software\uCOS-III\Source/os_dbg.c **** #if (OS_CFG_DBG_EN == DEF_ENABLED)
 304:..\..\..\..\..\..\Software\uCOS-III\Source/os_dbg.c ****                                   + sizeof(OSQDbgListPtr)
 305:..\..\..\..\..\..\Software\uCOS-III\Source/os_dbg.c ****                                   + sizeof(OSQQty)
 306:..\..\..\..\..\..\Software\uCOS-III\Source/os_dbg.c **** #endif
 307:..\..\..\..\..\..\Software\uCOS-III\Source/os_dbg.c **** #endif
 308:..\..\..\..\..\..\Software\uCOS-III\Source/os_dbg.c **** 
 309:..\..\..\..\..\..\Software\uCOS-III\Source/os_dbg.c ****                                   + sizeof(OSRdyList)
 310:..\..\..\..\..\..\Software\uCOS-III\Source/os_dbg.c **** 
 311:..\..\..\..\..\..\Software\uCOS-III\Source/os_dbg.c ****                                   + sizeof(OSSchedLockNestingCtr)
 312:..\..\..\..\..\..\Software\uCOS-III\Source/os_dbg.c **** 
 313:..\..\..\..\..\..\Software\uCOS-III\Source/os_dbg.c **** #if (OS_CFG_SCHED_LOCK_TIME_MEAS_EN == DEF_ENABLED)
 314:..\..\..\..\..\..\Software\uCOS-III\Source/os_dbg.c ****                                   + sizeof(OSSchedLockTimeBegin)
 315:..\..\..\..\..\..\Software\uCOS-III\Source/os_dbg.c ****                                   + sizeof(OSSchedLockTimeMax)
 316:..\..\..\..\..\..\Software\uCOS-III\Source/os_dbg.c ****                                   + sizeof(OSSchedLockTimeMaxCur)
 317:..\..\..\..\..\..\Software\uCOS-III\Source/os_dbg.c **** #endif
 318:..\..\..\..\..\..\Software\uCOS-III\Source/os_dbg.c **** 
 319:..\..\..\..\..\..\Software\uCOS-III\Source/os_dbg.c **** #if (OS_CFG_SCHED_ROUND_ROBIN_EN == DEF_ENABLED)
 320:..\..\..\..\..\..\Software\uCOS-III\Source/os_dbg.c ****                                   + sizeof(OSSchedRoundRobinDfltTimeQuanta)
 321:..\..\..\..\..\..\Software\uCOS-III\Source/os_dbg.c ****                                   + sizeof(OSSchedRoundRobinEn)
 322:..\..\..\..\..\..\Software\uCOS-III\Source/os_dbg.c **** #endif
 323:..\..\..\..\..\..\Software\uCOS-III\Source/os_dbg.c **** 
 324:..\..\..\..\..\..\Software\uCOS-III\Source/os_dbg.c **** #if (OS_CFG_SEM_EN == DEF_ENABLED)
 325:..\..\..\..\..\..\Software\uCOS-III\Source/os_dbg.c **** #if (OS_CFG_DBG_EN == DEF_ENABLED)
 326:..\..\..\..\..\..\Software\uCOS-III\Source/os_dbg.c ****                                   + sizeof(OSSemDbgListPtr)
 327:..\..\..\..\..\..\Software\uCOS-III\Source/os_dbg.c **** #endif
 328:..\..\..\..\..\..\Software\uCOS-III\Source/os_dbg.c ****                                   + sizeof(OSSemQty)
 329:..\..\..\..\..\..\Software\uCOS-III\Source/os_dbg.c **** #endif
 330:..\..\..\..\..\..\Software\uCOS-III\Source/os_dbg.c **** #if ((OS_CFG_TASK_PROFILE_EN == DEF_ENABLED) || (OS_CFG_DBG_EN == DEF_ENABLED))
 331:..\..\..\..\..\..\Software\uCOS-III\Source/os_dbg.c ****                                   + sizeof(OSTaskCtxSwCtr)
 332:..\..\..\..\..\..\Software\uCOS-III\Source/os_dbg.c **** #if (OS_CFG_DBG_EN == DEF_ENABLED)
 333:..\..\..\..\..\..\Software\uCOS-III\Source/os_dbg.c ****                                   + sizeof(OSTaskDbgListPtr)
 334:..\..\..\..\..\..\Software\uCOS-III\Source/os_dbg.c **** #endif
 335:..\..\..\..\..\..\Software\uCOS-III\Source/os_dbg.c **** #endif
 336:..\..\..\..\..\..\Software\uCOS-III\Source/os_dbg.c **** 
 337:..\..\..\..\..\..\Software\uCOS-III\Source/os_dbg.c ****                                   + sizeof(OSTaskQty)
 338:..\..\..\..\..\..\Software\uCOS-III\Source/os_dbg.c **** 
 339:..\..\..\..\..\..\Software\uCOS-III\Source/os_dbg.c **** 
 340:..\..\..\..\..\..\Software\uCOS-III\Source/os_dbg.c **** #if (OS_CFG_STAT_TASK_EN == DEF_ENABLED)
 341:..\..\..\..\..\..\Software\uCOS-III\Source/os_dbg.c ****                                   + sizeof(OSStatResetFlag)
 342:..\..\..\..\..\..\Software\uCOS-III\Source/os_dbg.c ****                                   + sizeof(OSStatTaskCPUUsage)
 343:..\..\..\..\..\..\Software\uCOS-III\Source/os_dbg.c ****                                   + sizeof(OSStatTaskCPUUsageMax)
 344:..\..\..\..\..\..\Software\uCOS-III\Source/os_dbg.c ****                                   + sizeof(OSStatTaskCtr)
 345:..\..\..\..\..\..\Software\uCOS-III\Source/os_dbg.c ****                                   + sizeof(OSStatTaskCtrMax)
 346:..\..\..\..\..\..\Software\uCOS-III\Source/os_dbg.c ****                                   + sizeof(OSStatTaskCtrRun)
 347:..\..\..\..\..\..\Software\uCOS-III\Source/os_dbg.c ****                                   + sizeof(OSStatTaskRdy)
 348:..\..\..\..\..\..\Software\uCOS-III\Source/os_dbg.c ****                                   + sizeof(OSStatTaskTCB)
 349:..\..\..\..\..\..\Software\uCOS-III\Source/os_dbg.c **** #if (OS_CFG_TS_EN == DEF_ENABLED)
 350:..\..\..\..\..\..\Software\uCOS-III\Source/os_dbg.c ****                                   + sizeof(OSStatTaskTimeMax)
 351:..\..\..\..\..\..\Software\uCOS-III\Source/os_dbg.c **** #endif
 352:..\..\..\..\..\..\Software\uCOS-III\Source/os_dbg.c **** #endif
 353:..\..\..\..\..\..\Software\uCOS-III\Source/os_dbg.c **** 
 354:..\..\..\..\..\..\Software\uCOS-III\Source/os_dbg.c **** #if (OS_CFG_TASK_TICK_EN == DEF_ENABLED)
 355:..\..\..\..\..\..\Software\uCOS-III\Source/os_dbg.c ****                                   + sizeof(OSTickCtr)
 356:..\..\..\..\..\..\Software\uCOS-III\Source/os_dbg.c ****                                   + sizeof(OSTickTaskTCB)
 357:..\..\..\..\..\..\Software\uCOS-III\Source/os_dbg.c **** #if (OS_CFG_TS_EN == DEF_ENABLED)
 358:..\..\..\..\..\..\Software\uCOS-III\Source/os_dbg.c ****                                   + sizeof(OSTickTaskTimeMax)
 359:..\..\..\..\..\..\Software\uCOS-III\Source/os_dbg.c **** #endif
ARM GAS  C:\Users\ADMINI~1\AppData\Local\Temp\ccDLN5r4.s 			page 15


 360:..\..\..\..\..\..\Software\uCOS-III\Source/os_dbg.c ****                                   + sizeof(OSTickListDly)
 361:..\..\..\..\..\..\Software\uCOS-III\Source/os_dbg.c ****                                   + sizeof(OSTickListTimeout)
 362:..\..\..\..\..\..\Software\uCOS-III\Source/os_dbg.c **** #endif
 363:..\..\..\..\..\..\Software\uCOS-III\Source/os_dbg.c **** 
 364:..\..\..\..\..\..\Software\uCOS-III\Source/os_dbg.c **** #if (OS_CFG_TMR_EN == DEF_ENABLED)
 365:..\..\..\..\..\..\Software\uCOS-III\Source/os_dbg.c **** #if (OS_CFG_DBG_EN == DEF_ENABLED)
 366:..\..\..\..\..\..\Software\uCOS-III\Source/os_dbg.c ****                                   + sizeof(OSTmrDbgListPtr)
 367:..\..\..\..\..\..\Software\uCOS-III\Source/os_dbg.c ****                                   + sizeof(OSTmrListEntries)
 368:..\..\..\..\..\..\Software\uCOS-III\Source/os_dbg.c **** #endif
 369:..\..\..\..\..\..\Software\uCOS-III\Source/os_dbg.c ****                                   + sizeof(OSTmrListPtr)
 370:..\..\..\..\..\..\Software\uCOS-III\Source/os_dbg.c **** #if (OS_CFG_MUTEX_EN == DEF_ENABLED)
 371:..\..\..\..\..\..\Software\uCOS-III\Source/os_dbg.c ****                                   + sizeof(OSTmrMutex)
 372:..\..\..\..\..\..\Software\uCOS-III\Source/os_dbg.c **** #endif
 373:..\..\..\..\..\..\Software\uCOS-III\Source/os_dbg.c **** #if (OS_CFG_DBG_EN == DEF_ENABLED)
 374:..\..\..\..\..\..\Software\uCOS-III\Source/os_dbg.c ****                                   + sizeof(OSTmrQty)
 375:..\..\..\..\..\..\Software\uCOS-III\Source/os_dbg.c **** #endif
 376:..\..\..\..\..\..\Software\uCOS-III\Source/os_dbg.c ****                                   + sizeof(OSTmrTaskTCB)
 377:..\..\..\..\..\..\Software\uCOS-III\Source/os_dbg.c **** #if (OS_CFG_TS_EN == DEF_ENABLED)
 378:..\..\..\..\..\..\Software\uCOS-III\Source/os_dbg.c ****                                   + sizeof(OSTmrTaskTimeMax)
 379:..\..\..\..\..\..\Software\uCOS-III\Source/os_dbg.c **** #endif
 380:..\..\..\..\..\..\Software\uCOS-III\Source/os_dbg.c ****                                   + sizeof(OSTmrTickCtr)
 381:..\..\..\..\..\..\Software\uCOS-III\Source/os_dbg.c ****                                   + sizeof(OSTmrUpdateCnt)
 382:..\..\..\..\..\..\Software\uCOS-III\Source/os_dbg.c ****                                   + sizeof(OSTmrUpdateCtr)
 383:..\..\..\..\..\..\Software\uCOS-III\Source/os_dbg.c **** #endif
 384:..\..\..\..\..\..\Software\uCOS-III\Source/os_dbg.c **** 
 385:..\..\..\..\..\..\Software\uCOS-III\Source/os_dbg.c **** #if (OS_CFG_TASK_REG_TBL_SIZE > 0u)
 386:..\..\..\..\..\..\Software\uCOS-III\Source/os_dbg.c ****                                   + sizeof(OSTaskRegNextAvailID)
 387:..\..\..\..\..\..\Software\uCOS-III\Source/os_dbg.c **** #endif
 388:..\..\..\..\..\..\Software\uCOS-III\Source/os_dbg.c **** 
 389:..\..\..\..\..\..\Software\uCOS-III\Source/os_dbg.c ****                                   + sizeof(OSTCBCurPtr)
 390:..\..\..\..\..\..\Software\uCOS-III\Source/os_dbg.c ****                                   + sizeof(OSTCBHighRdyPtr);
 391:..\..\..\..\..\..\Software\uCOS-III\Source/os_dbg.c **** 
 392:..\..\..\..\..\..\Software\uCOS-III\Source/os_dbg.c **** 
 393:..\..\..\..\..\..\Software\uCOS-III\Source/os_dbg.c **** /*
 394:..\..\..\..\..\..\Software\uCOS-III\Source/os_dbg.c **** ***************************************************************************************************
 395:..\..\..\..\..\..\Software\uCOS-III\Source/os_dbg.c **** *                                               OS DEBUG INITIALIZATION
 396:..\..\..\..\..\..\Software\uCOS-III\Source/os_dbg.c **** *
 397:..\..\..\..\..\..\Software\uCOS-III\Source/os_dbg.c **** * Description: This function is used to make sure that debug variables that are unused in the appli
 398:..\..\..\..\..\..\Software\uCOS-III\Source/os_dbg.c **** *              optimized away.  This function might not be necessary for all compilers.  In this ca
 399:..\..\..\..\..\..\Software\uCOS-III\Source/os_dbg.c **** *              DELETE the code in this function while still leaving the declaration of the function
 400:..\..\..\..\..\..\Software\uCOS-III\Source/os_dbg.c **** *
 401:..\..\..\..\..\..\Software\uCOS-III\Source/os_dbg.c **** * Arguments  : none
 402:..\..\..\..\..\..\Software\uCOS-III\Source/os_dbg.c **** *
 403:..\..\..\..\..\..\Software\uCOS-III\Source/os_dbg.c **** * Returns    : none
 404:..\..\..\..\..\..\Software\uCOS-III\Source/os_dbg.c **** *
 405:..\..\..\..\..\..\Software\uCOS-III\Source/os_dbg.c **** * Note(s)    : (1) This code doesn't do anything, it simply prevents the compiler from optimizing o
 406:..\..\..\..\..\..\Software\uCOS-III\Source/os_dbg.c **** *                  variables which are declared in this file.
 407:..\..\..\..\..\..\Software\uCOS-III\Source/os_dbg.c **** *              (2) You may decide to 'compile out' the code (by using #if 0/#endif) INSIDE the func
 408:..\..\..\..\..\..\Software\uCOS-III\Source/os_dbg.c **** *                  DOES NOT optimize out the 'const' variables above.
 409:..\..\..\..\..\..\Software\uCOS-III\Source/os_dbg.c **** ***************************************************************************************************
 410:..\..\..\..\..\..\Software\uCOS-III\Source/os_dbg.c **** */
 411:..\..\..\..\..\..\Software\uCOS-III\Source/os_dbg.c **** 
 412:..\..\..\..\..\..\Software\uCOS-III\Source/os_dbg.c **** void  OS_Dbg_Init (void)
 413:..\..\..\..\..\..\Software\uCOS-III\Source/os_dbg.c **** {
 416              		.loc 1 413 0
 417              		.cfi_startproc
 418              		@ args = 0, pretend = 0, frame = 16
ARM GAS  C:\Users\ADMINI~1\AppData\Local\Temp\ccDLN5r4.s 			page 16


 419              		@ frame_needed = 1, uses_anonymous_args = 0
 420 0000 80B5     		push	{r7, lr}
 421              		.cfi_def_cfa_offset 8
 422              		.cfi_offset 7, -8
 423              		.cfi_offset 14, -4
 424 0002 84B0     		sub	sp, sp, #16
 425              		.cfi_def_cfa_offset 24
 426 0004 00AF     		add	r7, sp, #0
 427              		.cfi_def_cfa_register 7
 414:..\..\..\..\..\..\Software\uCOS-III\Source/os_dbg.c ****     CPU_INT08U const  *p_temp08;
 415:..\..\..\..\..\..\Software\uCOS-III\Source/os_dbg.c ****     CPU_INT16U const  *p_temp16;
 416:..\..\..\..\..\..\Software\uCOS-III\Source/os_dbg.c ****     CPU_INT32U const  *p_temp32;
 417:..\..\..\..\..\..\Software\uCOS-III\Source/os_dbg.c **** 
 418:..\..\..\..\..\..\Software\uCOS-III\Source/os_dbg.c **** 
 419:..\..\..\..\..\..\Software\uCOS-III\Source/os_dbg.c ****     p_temp08 = (CPU_INT08U const *)&OSDbg_DbgEn;
 428              		.loc 1 419 0
 429 0006 474B     		ldr	r3, .L2
 430 0008 FB60     		str	r3, [r7, #12]
 420:..\..\..\..\..\..\Software\uCOS-III\Source/os_dbg.c **** 
 421:..\..\..\..\..\..\Software\uCOS-III\Source/os_dbg.c ****     p_temp32 = (CPU_INT32U const *)&OSDbg_DataSize;
 431              		.loc 1 421 0
 432 000a 474B     		ldr	r3, .L2+4
 433 000c BB60     		str	r3, [r7, #8]
 422:..\..\..\..\..\..\Software\uCOS-III\Source/os_dbg.c **** 
 423:..\..\..\..\..\..\Software\uCOS-III\Source/os_dbg.c ****     p_temp08 = (CPU_INT08U const *)&OSDbg_ArgChkEn;
 434              		.loc 1 423 0
 435 000e 474B     		ldr	r3, .L2+8
 436 0010 FB60     		str	r3, [r7, #12]
 424:..\..\..\..\..\..\Software\uCOS-III\Source/os_dbg.c ****     p_temp08 = (CPU_INT08U const *)&OSDbg_AppHooksEn;
 437              		.loc 1 424 0
 438 0012 474B     		ldr	r3, .L2+12
 439 0014 FB60     		str	r3, [r7, #12]
 425:..\..\..\..\..\..\Software\uCOS-III\Source/os_dbg.c **** 
 426:..\..\..\..\..\..\Software\uCOS-III\Source/os_dbg.c ****     p_temp32 = (CPU_INT32U const *)&OSDbg_EndiannessTest;
 440              		.loc 1 426 0
 441 0016 474B     		ldr	r3, .L2+16
 442 0018 BB60     		str	r3, [r7, #8]
 427:..\..\..\..\..\..\Software\uCOS-III\Source/os_dbg.c **** 
 428:..\..\..\..\..\..\Software\uCOS-III\Source/os_dbg.c ****     p_temp08 = (CPU_INT08U const *)&OSDbg_CalledFromISRChkEn;
 443              		.loc 1 428 0
 444 001a 474B     		ldr	r3, .L2+20
 445 001c FB60     		str	r3, [r7, #12]
 429:..\..\..\..\..\..\Software\uCOS-III\Source/os_dbg.c **** 
 430:..\..\..\..\..\..\Software\uCOS-III\Source/os_dbg.c ****     p_temp16 = (CPU_INT16U const *)&OSDbg_FlagGrp;
 446              		.loc 1 430 0
 447 001e 474B     		ldr	r3, .L2+24
 448 0020 7B60     		str	r3, [r7, #4]
 431:..\..\..\..\..\..\Software\uCOS-III\Source/os_dbg.c ****     p_temp08 = (CPU_INT08U const *)&OSDbg_FlagEn;
 449              		.loc 1 431 0
 450 0022 474B     		ldr	r3, .L2+28
 451 0024 FB60     		str	r3, [r7, #12]
 432:..\..\..\..\..\..\Software\uCOS-III\Source/os_dbg.c **** #if (OS_CFG_FLAG_EN == DEF_ENABLED)
 433:..\..\..\..\..\..\Software\uCOS-III\Source/os_dbg.c ****     p_temp08 = (CPU_INT08U const *)&OSDbg_FlagDelEn;
 452              		.loc 1 433 0
 453 0026 474B     		ldr	r3, .L2+32
 454 0028 FB60     		str	r3, [r7, #12]
 434:..\..\..\..\..\..\Software\uCOS-III\Source/os_dbg.c ****     p_temp08 = (CPU_INT08U const *)&OSDbg_FlagModeClrEn;
ARM GAS  C:\Users\ADMINI~1\AppData\Local\Temp\ccDLN5r4.s 			page 17


 455              		.loc 1 434 0
 456 002a 474B     		ldr	r3, .L2+36
 457 002c FB60     		str	r3, [r7, #12]
 435:..\..\..\..\..\..\Software\uCOS-III\Source/os_dbg.c ****     p_temp08 = (CPU_INT08U const *)&OSDbg_FlagPendAbortEn;
 458              		.loc 1 435 0
 459 002e 474B     		ldr	r3, .L2+40
 460 0030 FB60     		str	r3, [r7, #12]
 436:..\..\..\..\..\..\Software\uCOS-III\Source/os_dbg.c ****     p_temp16 = (CPU_INT16U const *)&OSDbg_FlagGrpSize;
 461              		.loc 1 436 0
 462 0032 474B     		ldr	r3, .L2+44
 463 0034 7B60     		str	r3, [r7, #4]
 437:..\..\..\..\..\..\Software\uCOS-III\Source/os_dbg.c ****     p_temp16 = (CPU_INT16U const *)&OSDbg_FlagWidth;
 464              		.loc 1 437 0
 465 0036 474B     		ldr	r3, .L2+48
 466 0038 7B60     		str	r3, [r7, #4]
 438:..\..\..\..\..\..\Software\uCOS-III\Source/os_dbg.c **** #endif
 439:..\..\..\..\..\..\Software\uCOS-III\Source/os_dbg.c **** 
 440:..\..\..\..\..\..\Software\uCOS-III\Source/os_dbg.c **** #if (OS_CFG_ISR_POST_DEFERRED_EN == DEF_ENABLED)
 441:..\..\..\..\..\..\Software\uCOS-III\Source/os_dbg.c ****     p_temp16 = (CPU_INT16U const *)&OSDbg_IntQ;
 442:..\..\..\..\..\..\Software\uCOS-III\Source/os_dbg.c **** #endif
 443:..\..\..\..\..\..\Software\uCOS-III\Source/os_dbg.c **** 
 444:..\..\..\..\..\..\Software\uCOS-III\Source/os_dbg.c ****     p_temp08 = (CPU_INT08U const *)&OSDbg_ISRPostDeferredEn;
 467              		.loc 1 444 0
 468 003a 474B     		ldr	r3, .L2+52
 469 003c FB60     		str	r3, [r7, #12]
 445:..\..\..\..\..\..\Software\uCOS-III\Source/os_dbg.c **** 
 446:..\..\..\..\..\..\Software\uCOS-III\Source/os_dbg.c ****     p_temp16 = (CPU_INT16U const *)&OSDbg_Mem;
 470              		.loc 1 446 0
 471 003e 474B     		ldr	r3, .L2+56
 472 0040 7B60     		str	r3, [r7, #4]
 447:..\..\..\..\..\..\Software\uCOS-III\Source/os_dbg.c ****     p_temp08 = (CPU_INT08U const *)&OSDbg_MemEn;
 473              		.loc 1 447 0
 474 0042 474B     		ldr	r3, .L2+60
 475 0044 FB60     		str	r3, [r7, #12]
 448:..\..\..\..\..\..\Software\uCOS-III\Source/os_dbg.c **** #if (OS_CFG_MEM_EN == DEF_ENABLED)
 449:..\..\..\..\..\..\Software\uCOS-III\Source/os_dbg.c ****     p_temp16 = (CPU_INT16U const *)&OSDbg_MemSize;
 476              		.loc 1 449 0
 477 0046 474B     		ldr	r3, .L2+64
 478 0048 7B60     		str	r3, [r7, #4]
 450:..\..\..\..\..\..\Software\uCOS-III\Source/os_dbg.c **** #endif
 451:..\..\..\..\..\..\Software\uCOS-III\Source/os_dbg.c **** 
 452:..\..\..\..\..\..\Software\uCOS-III\Source/os_dbg.c ****     p_temp08 = (CPU_INT08U const *)&OSDbg_MsgEn;
 479              		.loc 1 452 0
 480 004a 474B     		ldr	r3, .L2+68
 481 004c FB60     		str	r3, [r7, #12]
 453:..\..\..\..\..\..\Software\uCOS-III\Source/os_dbg.c **** #if (OS_MSG_EN == DEF_ENABLED)
 454:..\..\..\..\..\..\Software\uCOS-III\Source/os_dbg.c ****     p_temp16 = (CPU_INT16U const *)&OSDbg_MsgSize;
 482              		.loc 1 454 0
 483 004e 474B     		ldr	r3, .L2+72
 484 0050 7B60     		str	r3, [r7, #4]
 455:..\..\..\..\..\..\Software\uCOS-III\Source/os_dbg.c ****     p_temp16 = (CPU_INT16U const *)&OSDbg_MsgPoolSize;
 485              		.loc 1 455 0
 486 0052 474B     		ldr	r3, .L2+76
 487 0054 7B60     		str	r3, [r7, #4]
 456:..\..\..\..\..\..\Software\uCOS-III\Source/os_dbg.c ****     p_temp16 = (CPU_INT16U const *)&OSDbg_MsgQSize;
 488              		.loc 1 456 0
 489 0056 474B     		ldr	r3, .L2+80
ARM GAS  C:\Users\ADMINI~1\AppData\Local\Temp\ccDLN5r4.s 			page 18


 490 0058 7B60     		str	r3, [r7, #4]
 457:..\..\..\..\..\..\Software\uCOS-III\Source/os_dbg.c **** #endif
 458:..\..\..\..\..\..\Software\uCOS-III\Source/os_dbg.c **** 
 459:..\..\..\..\..\..\Software\uCOS-III\Source/os_dbg.c ****     p_temp16 = (CPU_INT16U const *)&OSDbg_Mutex;
 491              		.loc 1 459 0
 492 005a 474B     		ldr	r3, .L2+84
 493 005c 7B60     		str	r3, [r7, #4]
 460:..\..\..\..\..\..\Software\uCOS-III\Source/os_dbg.c ****     p_temp08 = (CPU_INT08U const *)&OSDbg_MutexEn;
 494              		.loc 1 460 0
 495 005e 474B     		ldr	r3, .L2+88
 496 0060 FB60     		str	r3, [r7, #12]
 461:..\..\..\..\..\..\Software\uCOS-III\Source/os_dbg.c **** #if (OS_CFG_MUTEX_EN == DEF_ENABLED)
 462:..\..\..\..\..\..\Software\uCOS-III\Source/os_dbg.c ****     p_temp08 = (CPU_INT08U const *)&OSDbg_MutexDelEn;
 497              		.loc 1 462 0
 498 0062 474B     		ldr	r3, .L2+92
 499 0064 FB60     		str	r3, [r7, #12]
 463:..\..\..\..\..\..\Software\uCOS-III\Source/os_dbg.c ****     p_temp08 = (CPU_INT08U const *)&OSDbg_MutexPendAbortEn;
 500              		.loc 1 463 0
 501 0066 474B     		ldr	r3, .L2+96
 502 0068 FB60     		str	r3, [r7, #12]
 464:..\..\..\..\..\..\Software\uCOS-III\Source/os_dbg.c ****     p_temp16 = (CPU_INT16U const *)&OSDbg_MutexSize;
 503              		.loc 1 464 0
 504 006a 474B     		ldr	r3, .L2+100
 505 006c 7B60     		str	r3, [r7, #4]
 465:..\..\..\..\..\..\Software\uCOS-III\Source/os_dbg.c **** #endif
 466:..\..\..\..\..\..\Software\uCOS-III\Source/os_dbg.c **** 
 467:..\..\..\..\..\..\Software\uCOS-III\Source/os_dbg.c ****     p_temp08 = (CPU_INT08U const *)&OSDbg_ObjTypeChkEn;
 506              		.loc 1 467 0
 507 006e 474B     		ldr	r3, .L2+104
 508 0070 FB60     		str	r3, [r7, #12]
 468:..\..\..\..\..\..\Software\uCOS-III\Source/os_dbg.c **** 
 469:..\..\..\..\..\..\Software\uCOS-III\Source/os_dbg.c ****     p_temp08 = (CPU_INT08U const *)&OSDbg_PendMultiEn;
 509              		.loc 1 469 0
 510 0072 474B     		ldr	r3, .L2+108
 511 0074 FB60     		str	r3, [r7, #12]
 470:..\..\..\..\..\..\Software\uCOS-III\Source/os_dbg.c ****     p_temp16 = (CPU_INT16U const *)&OSDbg_PendDataSize;
 512              		.loc 1 470 0
 513 0076 474B     		ldr	r3, .L2+112
 514 0078 7B60     		str	r3, [r7, #4]
 471:..\..\..\..\..\..\Software\uCOS-III\Source/os_dbg.c ****     p_temp16 = (CPU_INT16U const *)&OSDbg_PendListSize;
 515              		.loc 1 471 0
 516 007a 474B     		ldr	r3, .L2+116
 517 007c 7B60     		str	r3, [r7, #4]
 472:..\..\..\..\..\..\Software\uCOS-III\Source/os_dbg.c ****     p_temp16 = (CPU_INT16U const *)&OSDbg_PendObjSize;
 518              		.loc 1 472 0
 519 007e 474B     		ldr	r3, .L2+120
 520 0080 7B60     		str	r3, [r7, #4]
 473:..\..\..\..\..\..\Software\uCOS-III\Source/os_dbg.c **** 
 474:..\..\..\..\..\..\Software\uCOS-III\Source/os_dbg.c ****     p_temp16 = (CPU_INT16U const *)&OSDbg_PrioMax;
 521              		.loc 1 474 0
 522 0082 474B     		ldr	r3, .L2+124
 523 0084 7B60     		str	r3, [r7, #4]
 475:..\..\..\..\..\..\Software\uCOS-III\Source/os_dbg.c ****     p_temp16 = (CPU_INT16U const *)&OSDbg_PrioTblSize;
 524              		.loc 1 475 0
 525 0086 474B     		ldr	r3, .L2+128
 526 0088 7B60     		str	r3, [r7, #4]
 476:..\..\..\..\..\..\Software\uCOS-III\Source/os_dbg.c **** 
ARM GAS  C:\Users\ADMINI~1\AppData\Local\Temp\ccDLN5r4.s 			page 19


 477:..\..\..\..\..\..\Software\uCOS-III\Source/os_dbg.c ****     p_temp16 = (CPU_INT16U const *)&OSDbg_PtrSize;
 527              		.loc 1 477 0
 528 008a 474B     		ldr	r3, .L2+132
 529 008c 7B60     		str	r3, [r7, #4]
 478:..\..\..\..\..\..\Software\uCOS-III\Source/os_dbg.c **** 
 479:..\..\..\..\..\..\Software\uCOS-III\Source/os_dbg.c ****     p_temp16 = (CPU_INT16U const *)&OSDbg_Q;
 530              		.loc 1 479 0
 531 008e 474B     		ldr	r3, .L2+136
 532 0090 7B60     		str	r3, [r7, #4]
 480:..\..\..\..\..\..\Software\uCOS-III\Source/os_dbg.c ****     p_temp08 = (CPU_INT08U const *)&OSDbg_QEn;
 533              		.loc 1 480 0
 534 0092 474B     		ldr	r3, .L2+140
 535 0094 FB60     		str	r3, [r7, #12]
 481:..\..\..\..\..\..\Software\uCOS-III\Source/os_dbg.c **** #if (OS_CFG_Q_EN == DEF_ENABLED)
 482:..\..\..\..\..\..\Software\uCOS-III\Source/os_dbg.c ****     p_temp08 = (CPU_INT08U const *)&OSDbg_QDelEn;
 536              		.loc 1 482 0
 537 0096 474B     		ldr	r3, .L2+144
 538 0098 FB60     		str	r3, [r7, #12]
 483:..\..\..\..\..\..\Software\uCOS-III\Source/os_dbg.c ****     p_temp08 = (CPU_INT08U const *)&OSDbg_QFlushEn;
 539              		.loc 1 483 0
 540 009a 474B     		ldr	r3, .L2+148
 541 009c FB60     		str	r3, [r7, #12]
 484:..\..\..\..\..\..\Software\uCOS-III\Source/os_dbg.c ****     p_temp08 = (CPU_INT08U const *)&OSDbg_QPendAbortEn;
 542              		.loc 1 484 0
 543 009e 474B     		ldr	r3, .L2+152
 544 00a0 FB60     		str	r3, [r7, #12]
 485:..\..\..\..\..\..\Software\uCOS-III\Source/os_dbg.c ****     p_temp16 = (CPU_INT16U const *)&OSDbg_QSize;
 545              		.loc 1 485 0
 546 00a2 474B     		ldr	r3, .L2+156
 547 00a4 7B60     		str	r3, [r7, #4]
 486:..\..\..\..\..\..\Software\uCOS-III\Source/os_dbg.c **** #endif
 487:..\..\..\..\..\..\Software\uCOS-III\Source/os_dbg.c **** 
 488:..\..\..\..\..\..\Software\uCOS-III\Source/os_dbg.c ****     p_temp16 = (CPU_INT16U const *)&OSDbg_SchedRoundRobinEn;
 548              		.loc 1 488 0
 549 00a6 474B     		ldr	r3, .L2+160
 550 00a8 7B60     		str	r3, [r7, #4]
 489:..\..\..\..\..\..\Software\uCOS-III\Source/os_dbg.c **** 
 490:..\..\..\..\..\..\Software\uCOS-III\Source/os_dbg.c ****     p_temp16 = (CPU_INT16U const *)&OSDbg_Sem;
 551              		.loc 1 490 0
 552 00aa 474B     		ldr	r3, .L2+164
 553 00ac 7B60     		str	r3, [r7, #4]
 491:..\..\..\..\..\..\Software\uCOS-III\Source/os_dbg.c ****     p_temp08 = (CPU_INT08U const *)&OSDbg_SemEn;
 554              		.loc 1 491 0
 555 00ae 474B     		ldr	r3, .L2+168
 556 00b0 FB60     		str	r3, [r7, #12]
 492:..\..\..\..\..\..\Software\uCOS-III\Source/os_dbg.c **** #if (OS_CFG_SEM_EN == DEF_ENABLED)
 493:..\..\..\..\..\..\Software\uCOS-III\Source/os_dbg.c ****     p_temp08 = (CPU_INT08U const *)&OSDbg_SemDelEn;
 557              		.loc 1 493 0
 558 00b2 474B     		ldr	r3, .L2+172
 559 00b4 FB60     		str	r3, [r7, #12]
 494:..\..\..\..\..\..\Software\uCOS-III\Source/os_dbg.c ****     p_temp08 = (CPU_INT08U const *)&OSDbg_SemPendAbortEn;
 560              		.loc 1 494 0
 561 00b6 474B     		ldr	r3, .L2+176
 562 00b8 FB60     		str	r3, [r7, #12]
 495:..\..\..\..\..\..\Software\uCOS-III\Source/os_dbg.c ****     p_temp16 = (CPU_INT16U const *)&OSDbg_SemSetEn;
 563              		.loc 1 495 0
 564 00ba 474B     		ldr	r3, .L2+180
ARM GAS  C:\Users\ADMINI~1\AppData\Local\Temp\ccDLN5r4.s 			page 20


 565 00bc 7B60     		str	r3, [r7, #4]
 496:..\..\..\..\..\..\Software\uCOS-III\Source/os_dbg.c ****     p_temp16 = (CPU_INT16U const *)&OSDbg_SemSize;
 566              		.loc 1 496 0
 567 00be 474B     		ldr	r3, .L2+184
 568 00c0 7B60     		str	r3, [r7, #4]
 497:..\..\..\..\..\..\Software\uCOS-III\Source/os_dbg.c **** #endif
 498:..\..\..\..\..\..\Software\uCOS-III\Source/os_dbg.c **** 
 499:..\..\..\..\..\..\Software\uCOS-III\Source/os_dbg.c ****     p_temp16 = (CPU_INT16U const *)&OSDbg_RdyList;
 569              		.loc 1 499 0
 570 00c2 474B     		ldr	r3, .L2+188
 571 00c4 7B60     		str	r3, [r7, #4]
 500:..\..\..\..\..\..\Software\uCOS-III\Source/os_dbg.c ****     p_temp32 = (CPU_INT32U const *)&OSDbg_RdyListSize;
 572              		.loc 1 500 0
 573 00c6 474B     		ldr	r3, .L2+192
 574 00c8 BB60     		str	r3, [r7, #8]
 501:..\..\..\..\..\..\Software\uCOS-III\Source/os_dbg.c **** 
 502:..\..\..\..\..\..\Software\uCOS-III\Source/os_dbg.c ****     p_temp16 = (CPU_INT16U const *)&OSDbg_StkWidth;
 575              		.loc 1 502 0
 576 00ca 474B     		ldr	r3, .L2+196
 577 00cc 7B60     		str	r3, [r7, #4]
 503:..\..\..\..\..\..\Software\uCOS-III\Source/os_dbg.c **** 
 504:..\..\..\..\..\..\Software\uCOS-III\Source/os_dbg.c ****     p_temp08 = (CPU_INT08U const *)&OSDbg_StatTaskEn;
 578              		.loc 1 504 0
 579 00ce 474B     		ldr	r3, .L2+200
 580 00d0 FB60     		str	r3, [r7, #12]
 505:..\..\..\..\..\..\Software\uCOS-III\Source/os_dbg.c ****     p_temp08 = (CPU_INT08U const *)&OSDbg_StatTaskStkChkEn;
 581              		.loc 1 505 0
 582 00d2 474B     		ldr	r3, .L2+204
 583 00d4 FB60     		str	r3, [r7, #12]
 506:..\..\..\..\..\..\Software\uCOS-III\Source/os_dbg.c **** 
 507:..\..\..\..\..\..\Software\uCOS-III\Source/os_dbg.c ****     p_temp08 = (CPU_INT08U const *)&OSDbg_TaskChangePrioEn;
 584              		.loc 1 507 0
 585 00d6 474B     		ldr	r3, .L2+208
 586 00d8 FB60     		str	r3, [r7, #12]
 508:..\..\..\..\..\..\Software\uCOS-III\Source/os_dbg.c ****     p_temp08 = (CPU_INT08U const *)&OSDbg_TaskDelEn;
 587              		.loc 1 508 0
 588 00da 474B     		ldr	r3, .L2+212
 589 00dc FB60     		str	r3, [r7, #12]
 509:..\..\..\..\..\..\Software\uCOS-III\Source/os_dbg.c ****     p_temp08 = (CPU_INT08U const *)&OSDbg_TaskQEn;
 590              		.loc 1 509 0
 591 00de 474B     		ldr	r3, .L2+216
 592 00e0 FB60     		str	r3, [r7, #12]
 510:..\..\..\..\..\..\Software\uCOS-III\Source/os_dbg.c ****     p_temp08 = (CPU_INT08U const *)&OSDbg_TaskQPendAbortEn;
 593              		.loc 1 510 0
 594 00e2 474B     		ldr	r3, .L2+220
 595 00e4 FB60     		str	r3, [r7, #12]
 511:..\..\..\..\..\..\Software\uCOS-III\Source/os_dbg.c ****     p_temp08 = (CPU_INT08U const *)&OSDbg_TaskProfileEn;
 596              		.loc 1 511 0
 597 00e6 474B     		ldr	r3, .L2+224
 598 00e8 FB60     		str	r3, [r7, #12]
 512:..\..\..\..\..\..\Software\uCOS-III\Source/os_dbg.c ****     p_temp16 = (CPU_INT16U const *)&OSDbg_TaskRegTblSize;
 599              		.loc 1 512 0
 600 00ea 474B     		ldr	r3, .L2+228
 601 00ec 7B60     		str	r3, [r7, #4]
 513:..\..\..\..\..\..\Software\uCOS-III\Source/os_dbg.c ****     p_temp08 = (CPU_INT08U const *)&OSDbg_TaskSemPendAbortEn;
 602              		.loc 1 513 0
 603 00ee 474B     		ldr	r3, .L2+232
ARM GAS  C:\Users\ADMINI~1\AppData\Local\Temp\ccDLN5r4.s 			page 21


 604 00f0 FB60     		str	r3, [r7, #12]
 514:..\..\..\..\..\..\Software\uCOS-III\Source/os_dbg.c ****     p_temp08 = (CPU_INT08U const *)&OSDbg_TaskSuspendEn;
 605              		.loc 1 514 0
 606 00f2 474B     		ldr	r3, .L2+236
 607 00f4 FB60     		str	r3, [r7, #12]
 515:..\..\..\..\..\..\Software\uCOS-III\Source/os_dbg.c **** 
 516:..\..\..\..\..\..\Software\uCOS-III\Source/os_dbg.c ****     p_temp16 = (CPU_INT16U const *)&OSDbg_TCBSize;
 608              		.loc 1 516 0
 609 00f6 474B     		ldr	r3, .L2+240
 610 00f8 7B60     		str	r3, [r7, #4]
 517:..\..\..\..\..\..\Software\uCOS-III\Source/os_dbg.c **** 
 518:..\..\..\..\..\..\Software\uCOS-III\Source/os_dbg.c ****     p_temp16 = (CPU_INT16U const *)&OSDbg_TickListSize;
 611              		.loc 1 518 0
 612 00fa 474B     		ldr	r3, .L2+244
 613 00fc 7B60     		str	r3, [r7, #4]
 519:..\..\..\..\..\..\Software\uCOS-III\Source/os_dbg.c **** 
 520:..\..\..\..\..\..\Software\uCOS-III\Source/os_dbg.c ****     p_temp08 = (CPU_INT08U const *)&OSDbg_TimeDlyHMSMEn;
 614              		.loc 1 520 0
 615 00fe 474B     		ldr	r3, .L2+248
 616 0100 FB60     		str	r3, [r7, #12]
 521:..\..\..\..\..\..\Software\uCOS-III\Source/os_dbg.c ****     p_temp08 = (CPU_INT08U const *)&OSDbg_TimeDlyResumeEn;
 617              		.loc 1 521 0
 618 0102 474B     		ldr	r3, .L2+252
 619 0104 FB60     		str	r3, [r7, #12]
 522:..\..\..\..\..\..\Software\uCOS-III\Source/os_dbg.c **** 
 523:..\..\..\..\..\..\Software\uCOS-III\Source/os_dbg.c **** 
 524:..\..\..\..\..\..\Software\uCOS-III\Source/os_dbg.c ****     p_temp16 = (CPU_INT16U const *)&OSDbg_Tmr;
 620              		.loc 1 524 0
 621 0106 474B     		ldr	r3, .L2+256
 622 0108 7B60     		str	r3, [r7, #4]
 525:..\..\..\..\..\..\Software\uCOS-III\Source/os_dbg.c ****     p_temp08 = (CPU_INT08U const *)&OSDbg_TmrEn;
 623              		.loc 1 525 0
 624 010a 474B     		ldr	r3, .L2+260
 625 010c FB60     		str	r3, [r7, #12]
 526:..\..\..\..\..\..\Software\uCOS-III\Source/os_dbg.c **** #if (OS_CFG_TMR_EN == DEF_ENABLED)
 527:..\..\..\..\..\..\Software\uCOS-III\Source/os_dbg.c ****     p_temp08 = (CPU_INT08U const *)&OSDbg_TmrDelEn;
 626              		.loc 1 527 0
 627 010e 474B     		ldr	r3, .L2+264
 628 0110 FB60     		str	r3, [r7, #12]
 528:..\..\..\..\..\..\Software\uCOS-III\Source/os_dbg.c ****     p_temp16 = (CPU_INT16U const *)&OSDbg_TmrSize;
 629              		.loc 1 528 0
 630 0112 474B     		ldr	r3, .L2+268
 631 0114 7B60     		str	r3, [r7, #4]
 529:..\..\..\..\..\..\Software\uCOS-III\Source/os_dbg.c **** #endif
 530:..\..\..\..\..\..\Software\uCOS-III\Source/os_dbg.c **** 
 531:..\..\..\..\..\..\Software\uCOS-III\Source/os_dbg.c ****     p_temp16 = (CPU_INT16U const *)&OSDbg_VersionNbr;
 632              		.loc 1 531 0
 633 0116 474B     		ldr	r3, .L2+272
 634 0118 7B60     		str	r3, [r7, #4]
 532:..\..\..\..\..\..\Software\uCOS-III\Source/os_dbg.c **** 
 533:..\..\..\..\..\..\Software\uCOS-III\Source/os_dbg.c ****     p_temp08 = p_temp08;                                     /* Prevent compiler warning for not us
 534:..\..\..\..\..\..\Software\uCOS-III\Source/os_dbg.c ****     p_temp16 = p_temp16;
 535:..\..\..\..\..\..\Software\uCOS-III\Source/os_dbg.c ****     p_temp32 = p_temp32;
 536:..\..\..\..\..\..\Software\uCOS-III\Source/os_dbg.c **** }
 635              		.loc 1 536 0
 636 011a C046     		nop
 637 011c BD46     		mov	sp, r7
ARM GAS  C:\Users\ADMINI~1\AppData\Local\Temp\ccDLN5r4.s 			page 22


 638 011e 04B0     		add	sp, sp, #16
 639              		@ sp needed
 640 0120 80BD     		pop	{r7, pc}
 641              	.L3:
 642 0122 C046     		.align	2
 643              	.L2:
 644 0124 00000000 		.word	OSDbg_DbgEn
 645 0128 00000000 		.word	OSDbg_DataSize
 646 012c 00000000 		.word	OSDbg_ArgChkEn
 647 0130 00000000 		.word	OSDbg_AppHooksEn
 648 0134 00000000 		.word	OSDbg_EndiannessTest
 649 0138 00000000 		.word	OSDbg_CalledFromISRChkEn
 650 013c 00000000 		.word	OSDbg_FlagGrp
 651 0140 00000000 		.word	OSDbg_FlagEn
 652 0144 00000000 		.word	OSDbg_FlagDelEn
 653 0148 00000000 		.word	OSDbg_FlagModeClrEn
 654 014c 00000000 		.word	OSDbg_FlagPendAbortEn
 655 0150 00000000 		.word	OSDbg_FlagGrpSize
 656 0154 00000000 		.word	OSDbg_FlagWidth
 657 0158 00000000 		.word	OSDbg_ISRPostDeferredEn
 658 015c 00000000 		.word	OSDbg_Mem
 659 0160 00000000 		.word	OSDbg_MemEn
 660 0164 00000000 		.word	OSDbg_MemSize
 661 0168 00000000 		.word	OSDbg_MsgEn
 662 016c 00000000 		.word	OSDbg_MsgSize
 663 0170 00000000 		.word	OSDbg_MsgPoolSize
 664 0174 00000000 		.word	OSDbg_MsgQSize
 665 0178 00000000 		.word	OSDbg_Mutex
 666 017c 00000000 		.word	OSDbg_MutexEn
 667 0180 00000000 		.word	OSDbg_MutexDelEn
 668 0184 00000000 		.word	OSDbg_MutexPendAbortEn
 669 0188 00000000 		.word	OSDbg_MutexSize
 670 018c 00000000 		.word	OSDbg_ObjTypeChkEn
 671 0190 00000000 		.word	OSDbg_PendMultiEn
 672 0194 00000000 		.word	OSDbg_PendDataSize
 673 0198 00000000 		.word	OSDbg_PendListSize
 674 019c 00000000 		.word	OSDbg_PendObjSize
 675 01a0 00000000 		.word	OSDbg_PrioMax
 676 01a4 00000000 		.word	OSDbg_PrioTblSize
 677 01a8 00000000 		.word	OSDbg_PtrSize
 678 01ac 00000000 		.word	OSDbg_Q
 679 01b0 00000000 		.word	OSDbg_QEn
 680 01b4 00000000 		.word	OSDbg_QDelEn
 681 01b8 00000000 		.word	OSDbg_QFlushEn
 682 01bc 00000000 		.word	OSDbg_QPendAbortEn
 683 01c0 00000000 		.word	OSDbg_QSize
 684 01c4 00000000 		.word	OSDbg_SchedRoundRobinEn
 685 01c8 00000000 		.word	OSDbg_Sem
 686 01cc 00000000 		.word	OSDbg_SemEn
 687 01d0 00000000 		.word	OSDbg_SemDelEn
 688 01d4 00000000 		.word	OSDbg_SemPendAbortEn
 689 01d8 00000000 		.word	OSDbg_SemSetEn
 690 01dc 00000000 		.word	OSDbg_SemSize
 691 01e0 00000000 		.word	OSDbg_RdyList
 692 01e4 00000000 		.word	OSDbg_RdyListSize
 693 01e8 00000000 		.word	OSDbg_StkWidth
 694 01ec 00000000 		.word	OSDbg_StatTaskEn
ARM GAS  C:\Users\ADMINI~1\AppData\Local\Temp\ccDLN5r4.s 			page 23


 695 01f0 00000000 		.word	OSDbg_StatTaskStkChkEn
 696 01f4 00000000 		.word	OSDbg_TaskChangePrioEn
 697 01f8 00000000 		.word	OSDbg_TaskDelEn
 698 01fc 00000000 		.word	OSDbg_TaskQEn
 699 0200 00000000 		.word	OSDbg_TaskQPendAbortEn
 700 0204 00000000 		.word	OSDbg_TaskProfileEn
 701 0208 00000000 		.word	OSDbg_TaskRegTblSize
 702 020c 00000000 		.word	OSDbg_TaskSemPendAbortEn
 703 0210 00000000 		.word	OSDbg_TaskSuspendEn
 704 0214 00000000 		.word	OSDbg_TCBSize
 705 0218 00000000 		.word	OSDbg_TickListSize
 706 021c 00000000 		.word	OSDbg_TimeDlyHMSMEn
 707 0220 00000000 		.word	OSDbg_TimeDlyResumeEn
 708 0224 00000000 		.word	OSDbg_Tmr
 709 0228 00000000 		.word	OSDbg_TmrEn
 710 022c 00000000 		.word	OSDbg_TmrDelEn
 711 0230 00000000 		.word	OSDbg_TmrSize
 712 0234 00000000 		.word	OSDbg_VersionNbr
 713              		.cfi_endproc
 714              	.LFE0:
 715              		.size	OS_Dbg_Init, .-OS_Dbg_Init
 716              		.text
 717              	.Letext0:
 718              		.file 2 "..\\..\\..\\..\\..\\..\\Software\\uC-CPU\\ARM-Cortex-M0\\GNU/cpu.h"
 719              		.file 3 "..\\..\\..\\..\\..\\..\\Software\\uC-CPU/cpu_core.h"
 720              		.file 4 "..\\..\\..\\..\\..\\..\\Software\\uCOS-III\\Source\\os_type.h"
 721              		.file 5 "..\\..\\..\\..\\..\\..\\Software\\uCOS-III\\Source\\os.h"