ARM GAS  C:\Users\ADMINI~1\AppData\Local\Temp\cc0ImMof.s 			page 1


   1              		.syntax unified
   2              		.cpu cortex-m0
   3              		.fpu softvfp
   4              		.eabi_attribute 20, 1
   5              		.eabi_attribute 21, 1
   6              		.eabi_attribute 23, 3
   7              		.eabi_attribute 24, 1
   8              		.eabi_attribute 25, 1
   9              		.eabi_attribute 26, 1
  10              		.eabi_attribute 30, 6
  11              		.eabi_attribute 34, 0
  12              		.eabi_attribute 18, 4
  13              		.thumb
  14              		.syntax unified
  15              		.file	"os_flag.c"
  16              		.text
  17              	.Ltext0:
  18              		.cfi_sections	.debug_frame
  19              		.section	.text.OSFlagCreate,"ax",%progbits
  20              		.align	2
  21              		.global	OSFlagCreate
  22              		.code	16
  23              		.thumb_func
  24              		.type	OSFlagCreate, %function
  25              	OSFlagCreate:
  26              	.LFB0:
  27              		.file 1 "..\\..\\..\\..\\..\\..\\Software\\uCOS-III\\Source\\os_flag.c"
   1:..\..\..\..\..\..\Software\uCOS-III\Source/os_flag.c **** /*
   2:..\..\..\..\..\..\Software\uCOS-III\Source/os_flag.c **** ***************************************************************************************************
   3:..\..\..\..\..\..\Software\uCOS-III\Source/os_flag.c **** *                                                      uC/OS-III
   4:..\..\..\..\..\..\Software\uCOS-III\Source/os_flag.c **** *                                                 The Real-Time Kernel
   5:..\..\..\..\..\..\Software\uCOS-III\Source/os_flag.c **** *
   6:..\..\..\..\..\..\Software\uCOS-III\Source/os_flag.c **** *                                  (c) Copyright 2009-2015; Micrium, Inc.; Weston, FL
   7:..\..\..\..\..\..\Software\uCOS-III\Source/os_flag.c **** *                           All rights reserved.  Protected by international copyright laws.
   8:..\..\..\..\..\..\Software\uCOS-III\Source/os_flag.c **** *
   9:..\..\..\..\..\..\Software\uCOS-III\Source/os_flag.c **** *                                                EVENT FLAG MANAGEMENT
  10:..\..\..\..\..\..\Software\uCOS-III\Source/os_flag.c **** *
  11:..\..\..\..\..\..\Software\uCOS-III\Source/os_flag.c **** * File    : OS_FLAG.C
  12:..\..\..\..\..\..\Software\uCOS-III\Source/os_flag.c **** * By      : JJL
  13:..\..\..\..\..\..\Software\uCOS-III\Source/os_flag.c **** * Version : V3.05.01
  14:..\..\..\..\..\..\Software\uCOS-III\Source/os_flag.c **** *
  15:..\..\..\..\..\..\Software\uCOS-III\Source/os_flag.c **** * LICENSING TERMS:
  16:..\..\..\..\..\..\Software\uCOS-III\Source/os_flag.c **** * ---------------
  17:..\..\..\..\..\..\Software\uCOS-III\Source/os_flag.c **** *           uC/OS-III is provided in source form for FREE short-term evaluation, for educational us
  18:..\..\..\..\..\..\Software\uCOS-III\Source/os_flag.c **** *           for peaceful research.  If you plan or intend to use uC/OS-III in a commercial applicat
  19:..\..\..\..\..\..\Software\uCOS-III\Source/os_flag.c **** *           product then, you need to contact Micrium to properly license uC/OS-III for its use in 
  20:..\..\..\..\..\..\Software\uCOS-III\Source/os_flag.c **** *           application/product.   We provide ALL the source code for your convenience and to help 
  21:..\..\..\..\..\..\Software\uCOS-III\Source/os_flag.c **** *           experience uC/OS-III.  The fact that the source is provided does NOT mean that you can 
  22:..\..\..\..\..\..\Software\uCOS-III\Source/os_flag.c **** *           it commercially without paying a licensing fee.
  23:..\..\..\..\..\..\Software\uCOS-III\Source/os_flag.c **** *
  24:..\..\..\..\..\..\Software\uCOS-III\Source/os_flag.c **** *           Knowledge of the source code may NOT be used to develop a similar product.
  25:..\..\..\..\..\..\Software\uCOS-III\Source/os_flag.c **** *
  26:..\..\..\..\..\..\Software\uCOS-III\Source/os_flag.c **** *           Please help us continue to provide the embedded community with the finest software avai
  27:..\..\..\..\..\..\Software\uCOS-III\Source/os_flag.c **** *           Your honesty is greatly appreciated.
  28:..\..\..\..\..\..\Software\uCOS-III\Source/os_flag.c **** *
  29:..\..\..\..\..\..\Software\uCOS-III\Source/os_flag.c **** *           You can find our product's user manual, API reference, release notes and
  30:..\..\..\..\..\..\Software\uCOS-III\Source/os_flag.c **** *           more information at https://doc.micrium.com.
ARM GAS  C:\Users\ADMINI~1\AppData\Local\Temp\cc0ImMof.s 			page 2


  31:..\..\..\..\..\..\Software\uCOS-III\Source/os_flag.c **** *           You can contact us at www.micrium.com.
  32:..\..\..\..\..\..\Software\uCOS-III\Source/os_flag.c **** ***************************************************************************************************
  33:..\..\..\..\..\..\Software\uCOS-III\Source/os_flag.c **** */
  34:..\..\..\..\..\..\Software\uCOS-III\Source/os_flag.c **** 
  35:..\..\..\..\..\..\Software\uCOS-III\Source/os_flag.c **** #define  MICRIUM_SOURCE
  36:..\..\..\..\..\..\Software\uCOS-III\Source/os_flag.c **** #include "os.h"
  37:..\..\..\..\..\..\Software\uCOS-III\Source/os_flag.c **** 
  38:..\..\..\..\..\..\Software\uCOS-III\Source/os_flag.c **** #ifdef VSC_INCLUDE_SOURCE_FILE_NAMES
  39:..\..\..\..\..\..\Software\uCOS-III\Source/os_flag.c **** const  CPU_CHAR  *os_flag__c = "$Id: $";
  40:..\..\..\..\..\..\Software\uCOS-III\Source/os_flag.c **** #endif
  41:..\..\..\..\..\..\Software\uCOS-III\Source/os_flag.c **** 
  42:..\..\..\..\..\..\Software\uCOS-III\Source/os_flag.c **** 
  43:..\..\..\..\..\..\Software\uCOS-III\Source/os_flag.c **** #if (OS_CFG_FLAG_EN == DEF_ENABLED)
  44:..\..\..\..\..\..\Software\uCOS-III\Source/os_flag.c **** 
  45:..\..\..\..\..\..\Software\uCOS-III\Source/os_flag.c **** /*
  46:..\..\..\..\..\..\Software\uCOS-III\Source/os_flag.c **** ***************************************************************************************************
  47:..\..\..\..\..\..\Software\uCOS-III\Source/os_flag.c **** *                                                 CREATE AN EVENT FLAG
  48:..\..\..\..\..\..\Software\uCOS-III\Source/os_flag.c **** *
  49:..\..\..\..\..\..\Software\uCOS-III\Source/os_flag.c **** * Description: This function is called to create an event flag group.
  50:..\..\..\..\..\..\Software\uCOS-III\Source/os_flag.c **** *
  51:..\..\..\..\..\..\Software\uCOS-III\Source/os_flag.c **** * Arguments  : p_grp          is a pointer to the event flag group to create
  52:..\..\..\..\..\..\Software\uCOS-III\Source/os_flag.c **** *
  53:..\..\..\..\..\..\Software\uCOS-III\Source/os_flag.c **** *              p_name         is the name of the event flag group
  54:..\..\..\..\..\..\Software\uCOS-III\Source/os_flag.c **** *
  55:..\..\..\..\..\..\Software\uCOS-III\Source/os_flag.c **** *              flags          contains the initial value to store in the event flag group (typicall
  56:..\..\..\..\..\..\Software\uCOS-III\Source/os_flag.c **** *
  57:..\..\..\..\..\..\Software\uCOS-III\Source/os_flag.c **** *              p_err          is a pointer to an error code which will be returned to your applicat
  58:..\..\..\..\..\..\Software\uCOS-III\Source/os_flag.c **** *
  59:..\..\..\..\..\..\Software\uCOS-III\Source/os_flag.c **** *                                 OS_ERR_NONE                    If the call was successful
  60:..\..\..\..\..\..\Software\uCOS-III\Source/os_flag.c **** *                                 OS_ERR_CREATE_ISR              If you attempted to create an Even
  61:..\..\..\..\..\..\Software\uCOS-III\Source/os_flag.c **** *                                 OS_ERR_ILLEGAL_CREATE_RUN_TIME If you are trying to create the Ev
  62:..\..\..\..\..\..\Software\uCOS-III\Source/os_flag.c **** *                                                                   called OSStart().
  63:..\..\..\..\..\..\Software\uCOS-III\Source/os_flag.c **** *                                 OS_ERR_OBJ_PTR_NULL            If 'p_grp' is a NULL pointer
  64:..\..\..\..\..\..\Software\uCOS-III\Source/os_flag.c **** *
  65:..\..\..\..\..\..\Software\uCOS-III\Source/os_flag.c **** * Returns    : none
  66:..\..\..\..\..\..\Software\uCOS-III\Source/os_flag.c **** ***************************************************************************************************
  67:..\..\..\..\..\..\Software\uCOS-III\Source/os_flag.c **** */
  68:..\..\..\..\..\..\Software\uCOS-III\Source/os_flag.c **** 
  69:..\..\..\..\..\..\Software\uCOS-III\Source/os_flag.c **** void  OSFlagCreate (OS_FLAG_GRP  *p_grp,
  70:..\..\..\..\..\..\Software\uCOS-III\Source/os_flag.c ****                     CPU_CHAR     *p_name,
  71:..\..\..\..\..\..\Software\uCOS-III\Source/os_flag.c ****                     OS_FLAGS      flags,
  72:..\..\..\..\..\..\Software\uCOS-III\Source/os_flag.c ****                     OS_ERR       *p_err)
  73:..\..\..\..\..\..\Software\uCOS-III\Source/os_flag.c **** {
  28              		.loc 1 73 0
  29              		.cfi_startproc
  30              		@ args = 0, pretend = 0, frame = 24
  31              		@ frame_needed = 1, uses_anonymous_args = 0
  32 0000 80B5     		push	{r7, lr}
  33              		.cfi_def_cfa_offset 8
  34              		.cfi_offset 7, -8
  35              		.cfi_offset 14, -4
  36 0002 86B0     		sub	sp, sp, #24
  37              		.cfi_def_cfa_offset 32
  38 0004 00AF     		add	r7, sp, #0
  39              		.cfi_def_cfa_register 7
  40 0006 F860     		str	r0, [r7, #12]
  41 0008 B960     		str	r1, [r7, #8]
ARM GAS  C:\Users\ADMINI~1\AppData\Local\Temp\cc0ImMof.s 			page 3


  42 000a 7A60     		str	r2, [r7, #4]
  43 000c 3B60     		str	r3, [r7]
  74:..\..\..\..\..\..\Software\uCOS-III\Source/os_flag.c ****     CPU_SR_ALLOC();
  44              		.loc 1 74 0
  45 000e 0023     		movs	r3, #0
  46 0010 7B61     		str	r3, [r7, #20]
  75:..\..\..\..\..\..\Software\uCOS-III\Source/os_flag.c **** 
  76:..\..\..\..\..\..\Software\uCOS-III\Source/os_flag.c **** 
  77:..\..\..\..\..\..\Software\uCOS-III\Source/os_flag.c **** 
  78:..\..\..\..\..\..\Software\uCOS-III\Source/os_flag.c **** #ifdef OS_SAFETY_CRITICAL
  79:..\..\..\..\..\..\Software\uCOS-III\Source/os_flag.c ****     if (p_err == DEF_NULL) {
  80:..\..\..\..\..\..\Software\uCOS-III\Source/os_flag.c ****         OS_SAFETY_CRITICAL_EXCEPTION();
  81:..\..\..\..\..\..\Software\uCOS-III\Source/os_flag.c ****         return;
  82:..\..\..\..\..\..\Software\uCOS-III\Source/os_flag.c ****     }
  83:..\..\..\..\..\..\Software\uCOS-III\Source/os_flag.c **** #endif
  84:..\..\..\..\..\..\Software\uCOS-III\Source/os_flag.c **** 
  85:..\..\..\..\..\..\Software\uCOS-III\Source/os_flag.c **** #ifdef OS_SAFETY_CRITICAL_IEC61508
  86:..\..\..\..\..\..\Software\uCOS-III\Source/os_flag.c ****     if (OSSafetyCriticalStartFlag == DEF_TRUE) {
  87:..\..\..\..\..\..\Software\uCOS-III\Source/os_flag.c ****        *p_err = OS_ERR_ILLEGAL_CREATE_RUN_TIME;
  88:..\..\..\..\..\..\Software\uCOS-III\Source/os_flag.c ****         return;
  89:..\..\..\..\..\..\Software\uCOS-III\Source/os_flag.c ****     }
  90:..\..\..\..\..\..\Software\uCOS-III\Source/os_flag.c **** #endif
  91:..\..\..\..\..\..\Software\uCOS-III\Source/os_flag.c **** 
  92:..\..\..\..\..\..\Software\uCOS-III\Source/os_flag.c **** #if (OS_CFG_CALLED_FROM_ISR_CHK_EN == DEF_ENABLED)
  93:..\..\..\..\..\..\Software\uCOS-III\Source/os_flag.c ****     if (OSIntNestingCtr > 0u) {                                 /* See if called from ISR ...      
  47              		.loc 1 93 0
  48 0012 1E4B     		ldr	r3, .L5
  49 0014 1B78     		ldrb	r3, [r3]
  50 0016 002B     		cmp	r3, #0
  51 0018 03D0     		beq	.L2
  94:..\..\..\..\..\..\Software\uCOS-III\Source/os_flag.c ****        *p_err = OS_ERR_CREATE_ISR;                              /* ... can't CREATE from an ISR    
  52              		.loc 1 94 0
  53 001a 3B68     		ldr	r3, [r7]
  54 001c 1C4A     		ldr	r2, .L5+4
  55 001e 1A80     		strh	r2, [r3]
  95:..\..\..\..\..\..\Software\uCOS-III\Source/os_flag.c ****         return;
  56              		.loc 1 95 0
  57 0020 30E0     		b	.L1
  58              	.L2:
  96:..\..\..\..\..\..\Software\uCOS-III\Source/os_flag.c ****     }
  97:..\..\..\..\..\..\Software\uCOS-III\Source/os_flag.c **** #endif
  98:..\..\..\..\..\..\Software\uCOS-III\Source/os_flag.c **** 
  99:..\..\..\..\..\..\Software\uCOS-III\Source/os_flag.c **** #if (OS_CFG_ARG_CHK_EN == DEF_ENABLED)
 100:..\..\..\..\..\..\Software\uCOS-III\Source/os_flag.c ****     if (p_grp == DEF_NULL) {                                    /* Validate 'p_grp'                
  59              		.loc 1 100 0
  60 0022 FB68     		ldr	r3, [r7, #12]
  61 0024 002B     		cmp	r3, #0
  62 0026 03D1     		bne	.L4
 101:..\..\..\..\..\..\Software\uCOS-III\Source/os_flag.c ****        *p_err = OS_ERR_OBJ_PTR_NULL;
  63              		.loc 1 101 0
  64 0028 3B68     		ldr	r3, [r7]
  65 002a 1A4A     		ldr	r2, .L5+8
  66 002c 1A80     		strh	r2, [r3]
 102:..\..\..\..\..\..\Software\uCOS-III\Source/os_flag.c ****         return;
  67              		.loc 1 102 0
  68 002e 29E0     		b	.L1
  69              	.L4:
ARM GAS  C:\Users\ADMINI~1\AppData\Local\Temp\cc0ImMof.s 			page 4


 103:..\..\..\..\..\..\Software\uCOS-III\Source/os_flag.c ****     }
 104:..\..\..\..\..\..\Software\uCOS-III\Source/os_flag.c **** #endif
 105:..\..\..\..\..\..\Software\uCOS-III\Source/os_flag.c **** 
 106:..\..\..\..\..\..\Software\uCOS-III\Source/os_flag.c ****     OS_CRITICAL_ENTER();
  70              		.loc 1 106 0
  71 0030 FFF7FEFF 		bl	CPU_SR_Save
  72 0034 0300     		movs	r3, r0
  73 0036 7B61     		str	r3, [r7, #20]
  74 0038 FFF7FEFF 		bl	CPU_IntDisMeasStart
 107:..\..\..\..\..\..\Software\uCOS-III\Source/os_flag.c **** #if (OS_OBJ_TYPE_REQ == DEF_ENABLED)
 108:..\..\..\..\..\..\Software\uCOS-III\Source/os_flag.c ****     p_grp->Type    = OS_OBJ_TYPE_FLAG;                          /* Set to event flag group type    
  75              		.loc 1 108 0
  76 003c FB68     		ldr	r3, [r7, #12]
  77 003e 164A     		ldr	r2, .L5+12
  78 0040 1A60     		str	r2, [r3]
 109:..\..\..\..\..\..\Software\uCOS-III\Source/os_flag.c **** #endif
 110:..\..\..\..\..\..\Software\uCOS-III\Source/os_flag.c **** #if (OS_CFG_DBG_EN == DEF_ENABLED)
 111:..\..\..\..\..\..\Software\uCOS-III\Source/os_flag.c ****     p_grp->NamePtr = p_name;
  79              		.loc 1 111 0
  80 0042 FB68     		ldr	r3, [r7, #12]
  81 0044 BA68     		ldr	r2, [r7, #8]
  82 0046 5A60     		str	r2, [r3, #4]
 112:..\..\..\..\..\..\Software\uCOS-III\Source/os_flag.c **** #else
 113:..\..\..\..\..\..\Software\uCOS-III\Source/os_flag.c ****     (void)&p_name;
 114:..\..\..\..\..\..\Software\uCOS-III\Source/os_flag.c **** #endif
 115:..\..\..\..\..\..\Software\uCOS-III\Source/os_flag.c ****     p_grp->Flags   = flags;                                     /* Set to desired initial value    
  83              		.loc 1 115 0
  84 0048 FB68     		ldr	r3, [r7, #12]
  85 004a 7A68     		ldr	r2, [r7, #4]
  86 004c 1A62     		str	r2, [r3, #32]
 116:..\..\..\..\..\..\Software\uCOS-III\Source/os_flag.c **** #if (OS_CFG_TS_EN == DEF_ENABLED)
 117:..\..\..\..\..\..\Software\uCOS-III\Source/os_flag.c ****     p_grp->TS      = 0u;
  87              		.loc 1 117 0
  88 004e FB68     		ldr	r3, [r7, #12]
  89 0050 0022     		movs	r2, #0
  90 0052 5A62     		str	r2, [r3, #36]
 118:..\..\..\..\..\..\Software\uCOS-III\Source/os_flag.c **** #endif
 119:..\..\..\..\..\..\Software\uCOS-III\Source/os_flag.c ****     OS_PendListInit(&p_grp->PendList);
  91              		.loc 1 119 0
  92 0054 FB68     		ldr	r3, [r7, #12]
  93 0056 0833     		adds	r3, r3, #8
  94 0058 1800     		movs	r0, r3
  95 005a FFF7FEFF 		bl	OS_PendListInit
 120:..\..\..\..\..\..\Software\uCOS-III\Source/os_flag.c **** 
 121:..\..\..\..\..\..\Software\uCOS-III\Source/os_flag.c **** #if (OS_CFG_DBG_EN == DEF_ENABLED)
 122:..\..\..\..\..\..\Software\uCOS-III\Source/os_flag.c ****     OS_FlagDbgListAdd(p_grp);
  96              		.loc 1 122 0
  97 005e FB68     		ldr	r3, [r7, #12]
  98 0060 1800     		movs	r0, r3
  99 0062 FFF7FEFF 		bl	OS_FlagDbgListAdd
 123:..\..\..\..\..\..\Software\uCOS-III\Source/os_flag.c ****     OSFlagQty++;
 100              		.loc 1 123 0
 101 0066 0D4B     		ldr	r3, .L5+16
 102 0068 1B88     		ldrh	r3, [r3]
 103 006a 0133     		adds	r3, r3, #1
 104 006c 9AB2     		uxth	r2, r3
 105 006e 0B4B     		ldr	r3, .L5+16
ARM GAS  C:\Users\ADMINI~1\AppData\Local\Temp\cc0ImMof.s 			page 5


 106 0070 1A80     		strh	r2, [r3]
 124:..\..\..\..\..\..\Software\uCOS-III\Source/os_flag.c **** #endif
 125:..\..\..\..\..\..\Software\uCOS-III\Source/os_flag.c **** 
 126:..\..\..\..\..\..\Software\uCOS-III\Source/os_flag.c **** #if (defined(TRACE_CFG_EN) && (TRACE_CFG_EN == DEF_ENABLED))
 127:..\..\..\..\..\..\Software\uCOS-III\Source/os_flag.c ****     TRACE_OS_FLAG_CREATE(p_grp, p_name);                        /* Record the event.               
 128:..\..\..\..\..\..\Software\uCOS-III\Source/os_flag.c **** #endif
 129:..\..\..\..\..\..\Software\uCOS-III\Source/os_flag.c ****     
 130:..\..\..\..\..\..\Software\uCOS-III\Source/os_flag.c ****     OS_CRITICAL_EXIT_NO_SCHED();
 107              		.loc 1 130 0
 108 0072 FFF7FEFF 		bl	CPU_IntDisMeasStop
 109 0076 7B69     		ldr	r3, [r7, #20]
 110 0078 1800     		movs	r0, r3
 111 007a FFF7FEFF 		bl	CPU_SR_Restore
 131:..\..\..\..\..\..\Software\uCOS-III\Source/os_flag.c ****    *p_err = OS_ERR_NONE;
 112              		.loc 1 131 0
 113 007e 3B68     		ldr	r3, [r7]
 114 0080 0022     		movs	r2, #0
 115 0082 1A80     		strh	r2, [r3]
 116              	.L1:
 132:..\..\..\..\..\..\Software\uCOS-III\Source/os_flag.c **** }
 117              		.loc 1 132 0
 118 0084 BD46     		mov	sp, r7
 119 0086 06B0     		add	sp, sp, #24
 120              		@ sp needed
 121 0088 80BD     		pop	{r7, pc}
 122              	.L6:
 123 008a C046     		.align	2
 124              	.L5:
 125 008c 00000000 		.word	OSIntNestingCtr
 126 0090 E12E0000 		.word	12001
 127 0094 C35D0000 		.word	24003
 128 0098 464C4147 		.word	1195461702
 129 009c 00000000 		.word	OSFlagQty
 130              		.cfi_endproc
 131              	.LFE0:
 132              		.size	OSFlagCreate, .-OSFlagCreate
 133              		.section	.text.OSFlagPend,"ax",%progbits
 134              		.align	2
 135              		.global	OSFlagPend
 136              		.code	16
 137              		.thumb_func
 138              		.type	OSFlagPend, %function
 139              	OSFlagPend:
 140              	.LFB1:
 133:..\..\..\..\..\..\Software\uCOS-III\Source/os_flag.c **** 
 134:..\..\..\..\..\..\Software\uCOS-III\Source/os_flag.c **** 
 135:..\..\..\..\..\..\Software\uCOS-III\Source/os_flag.c **** /*
 136:..\..\..\..\..\..\Software\uCOS-III\Source/os_flag.c **** ***************************************************************************************************
 137:..\..\..\..\..\..\Software\uCOS-III\Source/os_flag.c **** *                                             DELETE AN EVENT FLAG GROUP
 138:..\..\..\..\..\..\Software\uCOS-III\Source/os_flag.c **** *
 139:..\..\..\..\..\..\Software\uCOS-III\Source/os_flag.c **** * Description: This function deletes an event flag group and readies all tasks pending on the event
 140:..\..\..\..\..\..\Software\uCOS-III\Source/os_flag.c **** *
 141:..\..\..\..\..\..\Software\uCOS-III\Source/os_flag.c **** * Arguments  : p_grp     is a pointer to the desired event flag group.
 142:..\..\..\..\..\..\Software\uCOS-III\Source/os_flag.c **** *
 143:..\..\..\..\..\..\Software\uCOS-III\Source/os_flag.c **** *              opt       determines delete options as follows:
 144:..\..\..\..\..\..\Software\uCOS-III\Source/os_flag.c **** *
 145:..\..\..\..\..\..\Software\uCOS-III\Source/os_flag.c **** *                            OS_OPT_DEL_NO_PEND           Deletes the event flag group ONLY if no t
ARM GAS  C:\Users\ADMINI~1\AppData\Local\Temp\cc0ImMof.s 			page 6


 146:..\..\..\..\..\..\Software\uCOS-III\Source/os_flag.c **** *                            OS_OPT_DEL_ALWAYS            Deletes the event flag group even if task
 147:..\..\..\..\..\..\Software\uCOS-III\Source/os_flag.c **** *                                                         In this case, all the tasks pending will 
 148:..\..\..\..\..\..\Software\uCOS-III\Source/os_flag.c **** *
 149:..\..\..\..\..\..\Software\uCOS-III\Source/os_flag.c **** *              p_err     is a pointer to an error code that can contain one of the following values
 150:..\..\..\..\..\..\Software\uCOS-III\Source/os_flag.c **** *
 151:..\..\..\..\..\..\Software\uCOS-III\Source/os_flag.c **** *                            OS_ERR_NONE                    The call was successful and the event f
 152:..\..\..\..\..\..\Software\uCOS-III\Source/os_flag.c **** *                            OS_ERR_DEL_ISR                 If you attempted to delete the event fl
 153:..\..\..\..\..\..\Software\uCOS-III\Source/os_flag.c **** *                            OS_ERR_ILLEGAL_DEL_RUN_TIME    If you are trying to delete the event f
 154:..\..\..\..\..\..\Software\uCOS-III\Source/os_flag.c **** *                                                             called OSStart()
 155:..\..\..\..\..\..\Software\uCOS-III\Source/os_flag.c **** *                            OS_ERR_OBJ_PTR_NULL            If 'p_grp' is a NULL pointer
 156:..\..\..\..\..\..\Software\uCOS-III\Source/os_flag.c **** *                            OS_ERR_OBJ_TYPE                If you didn't pass a pointer to an even
 157:..\..\..\..\..\..\Software\uCOS-III\Source/os_flag.c **** *                            OS_ERR_OPT_INVALID             An invalid option was specified
 158:..\..\..\..\..\..\Software\uCOS-III\Source/os_flag.c **** *                            OS_ERR_OS_NOT_RUNNING          If uC/OS-III is not running yet
 159:..\..\..\..\..\..\Software\uCOS-III\Source/os_flag.c **** *                            OS_ERR_TASK_WAITING            One or more tasks were waiting on the e
 160:..\..\..\..\..\..\Software\uCOS-III\Source/os_flag.c **** *
 161:..\..\..\..\..\..\Software\uCOS-III\Source/os_flag.c **** * Returns    : == 0          if no tasks were waiting on the event flag group, or upon error.
 162:..\..\..\..\..\..\Software\uCOS-III\Source/os_flag.c **** *              >  0          if one or more tasks waiting on the event flag group are now readied a
 163:..\..\..\..\..\..\Software\uCOS-III\Source/os_flag.c **** *
 164:..\..\..\..\..\..\Software\uCOS-III\Source/os_flag.c **** * Note(s)    : 1) This function must be used with care.  Tasks that would normally expect the prese
 165:..\..\..\..\..\..\Software\uCOS-III\Source/os_flag.c **** *                 group MUST check the return code of OSFlagPost and OSFlagPend().
 166:..\..\..\..\..\..\Software\uCOS-III\Source/os_flag.c **** ***************************************************************************************************
 167:..\..\..\..\..\..\Software\uCOS-III\Source/os_flag.c **** */
 168:..\..\..\..\..\..\Software\uCOS-III\Source/os_flag.c **** 
 169:..\..\..\..\..\..\Software\uCOS-III\Source/os_flag.c **** #if (OS_CFG_FLAG_DEL_EN == DEF_ENABLED)
 170:..\..\..\..\..\..\Software\uCOS-III\Source/os_flag.c **** OS_OBJ_QTY  OSFlagDel (OS_FLAG_GRP  *p_grp,
 171:..\..\..\..\..\..\Software\uCOS-III\Source/os_flag.c ****                        OS_OPT        opt,
 172:..\..\..\..\..\..\Software\uCOS-III\Source/os_flag.c ****                        OS_ERR       *p_err)
 173:..\..\..\..\..\..\Software\uCOS-III\Source/os_flag.c **** {
 174:..\..\..\..\..\..\Software\uCOS-III\Source/os_flag.c ****     OS_OBJ_QTY        nbr_tasks;
 175:..\..\..\..\..\..\Software\uCOS-III\Source/os_flag.c ****     OS_PEND_DATA     *p_pend_data;
 176:..\..\..\..\..\..\Software\uCOS-III\Source/os_flag.c ****     OS_PEND_LIST     *p_pend_list;
 177:..\..\..\..\..\..\Software\uCOS-III\Source/os_flag.c ****     OS_TCB           *p_tcb;
 178:..\..\..\..\..\..\Software\uCOS-III\Source/os_flag.c ****     CPU_TS            ts;
 179:..\..\..\..\..\..\Software\uCOS-III\Source/os_flag.c ****     CPU_SR_ALLOC();
 180:..\..\..\..\..\..\Software\uCOS-III\Source/os_flag.c **** 
 181:..\..\..\..\..\..\Software\uCOS-III\Source/os_flag.c **** 
 182:..\..\..\..\..\..\Software\uCOS-III\Source/os_flag.c **** 
 183:..\..\..\..\..\..\Software\uCOS-III\Source/os_flag.c **** #ifdef OS_SAFETY_CRITICAL
 184:..\..\..\..\..\..\Software\uCOS-III\Source/os_flag.c ****     if (p_err == DEF_NULL) {
 185:..\..\..\..\..\..\Software\uCOS-III\Source/os_flag.c ****         OS_SAFETY_CRITICAL_EXCEPTION();
 186:..\..\..\..\..\..\Software\uCOS-III\Source/os_flag.c ****         return (0u);
 187:..\..\..\..\..\..\Software\uCOS-III\Source/os_flag.c ****     }
 188:..\..\..\..\..\..\Software\uCOS-III\Source/os_flag.c **** #endif
 189:..\..\..\..\..\..\Software\uCOS-III\Source/os_flag.c **** 
 190:..\..\..\..\..\..\Software\uCOS-III\Source/os_flag.c **** #ifdef OS_SAFETY_CRITICAL_IEC61508
 191:..\..\..\..\..\..\Software\uCOS-III\Source/os_flag.c ****     if (OSSafetyCriticalStartFlag == DEF_TRUE) {
 192:..\..\..\..\..\..\Software\uCOS-III\Source/os_flag.c ****        *p_err = OS_ERR_ILLEGAL_DEL_RUN_TIME;
 193:..\..\..\..\..\..\Software\uCOS-III\Source/os_flag.c ****         return (0u);
 194:..\..\..\..\..\..\Software\uCOS-III\Source/os_flag.c ****     }
 195:..\..\..\..\..\..\Software\uCOS-III\Source/os_flag.c **** #endif
 196:..\..\..\..\..\..\Software\uCOS-III\Source/os_flag.c **** 
 197:..\..\..\..\..\..\Software\uCOS-III\Source/os_flag.c **** #if (OS_CFG_CALLED_FROM_ISR_CHK_EN == DEF_ENABLED)
 198:..\..\..\..\..\..\Software\uCOS-III\Source/os_flag.c ****     if (OSIntNestingCtr > 0u) {                                 /* See if called from ISR ...      
 199:..\..\..\..\..\..\Software\uCOS-III\Source/os_flag.c ****        *p_err = OS_ERR_DEL_ISR;                                 /* ... can't DELETE from an ISR    
 200:..\..\..\..\..\..\Software\uCOS-III\Source/os_flag.c ****         return (0u);
 201:..\..\..\..\..\..\Software\uCOS-III\Source/os_flag.c ****     }
 202:..\..\..\..\..\..\Software\uCOS-III\Source/os_flag.c **** #endif
ARM GAS  C:\Users\ADMINI~1\AppData\Local\Temp\cc0ImMof.s 			page 7


 203:..\..\..\..\..\..\Software\uCOS-III\Source/os_flag.c **** 
 204:..\..\..\..\..\..\Software\uCOS-III\Source/os_flag.c **** #if (OS_CFG_INVALID_OS_CALLS_CHK_EN == DEF_ENABLED)             /* Is the kernel running?.         
 205:..\..\..\..\..\..\Software\uCOS-III\Source/os_flag.c ****     if (OSRunning != OS_STATE_OS_RUNNING) {
 206:..\..\..\..\..\..\Software\uCOS-III\Source/os_flag.c ****        *p_err = OS_ERR_OS_NOT_RUNNING;
 207:..\..\..\..\..\..\Software\uCOS-III\Source/os_flag.c ****         return (0u);
 208:..\..\..\..\..\..\Software\uCOS-III\Source/os_flag.c ****     }
 209:..\..\..\..\..\..\Software\uCOS-III\Source/os_flag.c **** #endif
 210:..\..\..\..\..\..\Software\uCOS-III\Source/os_flag.c **** 
 211:..\..\..\..\..\..\Software\uCOS-III\Source/os_flag.c **** #if (OS_CFG_ARG_CHK_EN == DEF_ENABLED)
 212:..\..\..\..\..\..\Software\uCOS-III\Source/os_flag.c ****     if (p_grp == DEF_NULL) {                                    /* Validate 'p_grp'                
 213:..\..\..\..\..\..\Software\uCOS-III\Source/os_flag.c ****        *p_err  = OS_ERR_OBJ_PTR_NULL;
 214:..\..\..\..\..\..\Software\uCOS-III\Source/os_flag.c ****         return (0u);
 215:..\..\..\..\..\..\Software\uCOS-III\Source/os_flag.c ****     }
 216:..\..\..\..\..\..\Software\uCOS-III\Source/os_flag.c **** #endif
 217:..\..\..\..\..\..\Software\uCOS-III\Source/os_flag.c **** 
 218:..\..\..\..\..\..\Software\uCOS-III\Source/os_flag.c **** #if (OS_CFG_OBJ_TYPE_CHK_EN == DEF_ENABLED)
 219:..\..\..\..\..\..\Software\uCOS-III\Source/os_flag.c ****     if (p_grp->Type != OS_OBJ_TYPE_FLAG) {                      /* Validate event group object     
 220:..\..\..\..\..\..\Software\uCOS-III\Source/os_flag.c ****        *p_err = OS_ERR_OBJ_TYPE;
 221:..\..\..\..\..\..\Software\uCOS-III\Source/os_flag.c ****         return (0u);
 222:..\..\..\..\..\..\Software\uCOS-III\Source/os_flag.c ****     }
 223:..\..\..\..\..\..\Software\uCOS-III\Source/os_flag.c **** #endif
 224:..\..\..\..\..\..\Software\uCOS-III\Source/os_flag.c ****     OS_CRITICAL_ENTER();
 225:..\..\..\..\..\..\Software\uCOS-III\Source/os_flag.c ****     p_pend_list = &p_grp->PendList;
 226:..\..\..\..\..\..\Software\uCOS-III\Source/os_flag.c ****     nbr_tasks   = 0u;
 227:..\..\..\..\..\..\Software\uCOS-III\Source/os_flag.c ****     switch (opt) {
 228:..\..\..\..\..\..\Software\uCOS-III\Source/os_flag.c ****         case OS_OPT_DEL_NO_PEND:                                /* Delete group if no task waiting 
 229:..\..\..\..\..\..\Software\uCOS-III\Source/os_flag.c ****              if (p_pend_list->HeadPtr == DEF_NULL) {
 230:..\..\..\..\..\..\Software\uCOS-III\Source/os_flag.c **** #if (OS_CFG_DBG_EN == DEF_ENABLED)
 231:..\..\..\..\..\..\Software\uCOS-III\Source/os_flag.c ****                  OS_FlagDbgListRemove(p_grp);
 232:..\..\..\..\..\..\Software\uCOS-III\Source/os_flag.c ****                  OSFlagQty--;
 233:..\..\..\..\..\..\Software\uCOS-III\Source/os_flag.c **** #endif
 234:..\..\..\..\..\..\Software\uCOS-III\Source/os_flag.c **** #if (defined(TRACE_CFG_EN) && (TRACE_CFG_EN == DEF_ENABLED))
 235:..\..\..\..\..\..\Software\uCOS-III\Source/os_flag.c ****                  TRACE_OS_FLAG_DEL(p_grp);                      /* Record the event.               
 236:..\..\..\..\..\..\Software\uCOS-III\Source/os_flag.c **** #endif
 237:..\..\..\..\..\..\Software\uCOS-III\Source/os_flag.c ****                  OS_FlagClr(p_grp);
 238:..\..\..\..\..\..\Software\uCOS-III\Source/os_flag.c **** 
 239:..\..\..\..\..\..\Software\uCOS-III\Source/os_flag.c ****                  OS_CRITICAL_EXIT();
 240:..\..\..\..\..\..\Software\uCOS-III\Source/os_flag.c **** 
 241:..\..\..\..\..\..\Software\uCOS-III\Source/os_flag.c ****                 *p_err = OS_ERR_NONE;
 242:..\..\..\..\..\..\Software\uCOS-III\Source/os_flag.c ****              } else {
 243:..\..\..\..\..\..\Software\uCOS-III\Source/os_flag.c ****                  OS_CRITICAL_EXIT();
 244:..\..\..\..\..\..\Software\uCOS-III\Source/os_flag.c ****                 *p_err = OS_ERR_TASK_WAITING;
 245:..\..\..\..\..\..\Software\uCOS-III\Source/os_flag.c ****              }
 246:..\..\..\..\..\..\Software\uCOS-III\Source/os_flag.c ****              break;
 247:..\..\..\..\..\..\Software\uCOS-III\Source/os_flag.c **** 
 248:..\..\..\..\..\..\Software\uCOS-III\Source/os_flag.c ****         case OS_OPT_DEL_ALWAYS:                                 /* Always delete the event flag gro
 249:..\..\..\..\..\..\Software\uCOS-III\Source/os_flag.c **** #if (OS_CFG_TS_EN == DEF_ENABLED)
 250:..\..\..\..\..\..\Software\uCOS-III\Source/os_flag.c ****              ts = OS_TS_GET();                                  /* Get local time stamp so all task
 251:..\..\..\..\..\..\Software\uCOS-III\Source/os_flag.c **** #else
 252:..\..\..\..\..\..\Software\uCOS-III\Source/os_flag.c ****              ts = 0u;
 253:..\..\..\..\..\..\Software\uCOS-III\Source/os_flag.c **** #endif
 254:..\..\..\..\..\..\Software\uCOS-III\Source/os_flag.c ****              while (p_pend_list->HeadPtr != DEF_NULL) {         /* Remove all tasks from the pend l
 255:..\..\..\..\..\..\Software\uCOS-III\Source/os_flag.c ****                  p_pend_data = p_pend_list->HeadPtr;
 256:..\..\..\..\..\..\Software\uCOS-III\Source/os_flag.c ****                  p_tcb       = p_pend_data->TCBPtr;
 257:..\..\..\..\..\..\Software\uCOS-III\Source/os_flag.c ****                  OS_PendObjDel((OS_PEND_OBJ *)((void *)p_grp),
 258:..\..\..\..\..\..\Software\uCOS-III\Source/os_flag.c ****                                p_tcb,
 259:..\..\..\..\..\..\Software\uCOS-III\Source/os_flag.c ****                                ts);
ARM GAS  C:\Users\ADMINI~1\AppData\Local\Temp\cc0ImMof.s 			page 8


 260:..\..\..\..\..\..\Software\uCOS-III\Source/os_flag.c ****                  nbr_tasks++;
 261:..\..\..\..\..\..\Software\uCOS-III\Source/os_flag.c ****              }
 262:..\..\..\..\..\..\Software\uCOS-III\Source/os_flag.c **** #if (OS_CFG_DBG_EN == DEF_ENABLED)
 263:..\..\..\..\..\..\Software\uCOS-III\Source/os_flag.c ****              OS_FlagDbgListRemove(p_grp);
 264:..\..\..\..\..\..\Software\uCOS-III\Source/os_flag.c ****              OSFlagQty--;
 265:..\..\..\..\..\..\Software\uCOS-III\Source/os_flag.c **** #endif
 266:..\..\..\..\..\..\Software\uCOS-III\Source/os_flag.c **** #if (defined(TRACE_CFG_EN) && (TRACE_CFG_EN == DEF_ENABLED))
 267:..\..\..\..\..\..\Software\uCOS-III\Source/os_flag.c ****              TRACE_OS_FLAG_DEL(p_grp);                          /* Record the event.               
 268:..\..\..\..\..\..\Software\uCOS-III\Source/os_flag.c **** #endif
 269:..\..\..\..\..\..\Software\uCOS-III\Source/os_flag.c ****              OS_FlagClr(p_grp);
 270:..\..\..\..\..\..\Software\uCOS-III\Source/os_flag.c ****              OS_CRITICAL_EXIT_NO_SCHED();
 271:..\..\..\..\..\..\Software\uCOS-III\Source/os_flag.c **** 
 272:..\..\..\..\..\..\Software\uCOS-III\Source/os_flag.c ****              OSSched();                                         /* Find highest priority task ready
 273:..\..\..\..\..\..\Software\uCOS-III\Source/os_flag.c ****             *p_err = OS_ERR_NONE;
 274:..\..\..\..\..\..\Software\uCOS-III\Source/os_flag.c ****              break;
 275:..\..\..\..\..\..\Software\uCOS-III\Source/os_flag.c **** 
 276:..\..\..\..\..\..\Software\uCOS-III\Source/os_flag.c ****         default:
 277:..\..\..\..\..\..\Software\uCOS-III\Source/os_flag.c ****              OS_CRITICAL_EXIT();
 278:..\..\..\..\..\..\Software\uCOS-III\Source/os_flag.c ****             *p_err = OS_ERR_OPT_INVALID;
 279:..\..\..\..\..\..\Software\uCOS-III\Source/os_flag.c ****              break;
 280:..\..\..\..\..\..\Software\uCOS-III\Source/os_flag.c ****     }
 281:..\..\..\..\..\..\Software\uCOS-III\Source/os_flag.c ****     return (nbr_tasks);
 282:..\..\..\..\..\..\Software\uCOS-III\Source/os_flag.c **** }
 283:..\..\..\..\..\..\Software\uCOS-III\Source/os_flag.c **** #endif
 284:..\..\..\..\..\..\Software\uCOS-III\Source/os_flag.c **** 
 285:..\..\..\..\..\..\Software\uCOS-III\Source/os_flag.c **** /*
 286:..\..\..\..\..\..\Software\uCOS-III\Source/os_flag.c **** ***************************************************************************************************
 287:..\..\..\..\..\..\Software\uCOS-III\Source/os_flag.c **** *                                             WAIT ON AN EVENT FLAG GROUP
 288:..\..\..\..\..\..\Software\uCOS-III\Source/os_flag.c **** *
 289:..\..\..\..\..\..\Software\uCOS-III\Source/os_flag.c **** * Description: This function is called to wait for a combination of bits to be set in an event flag
 290:..\..\..\..\..\..\Software\uCOS-III\Source/os_flag.c **** *              application can wait for ANY bit to be set or ALL bits to be set.
 291:..\..\..\..\..\..\Software\uCOS-III\Source/os_flag.c **** *
 292:..\..\..\..\..\..\Software\uCOS-III\Source/os_flag.c **** * Arguments  : p_grp         is a pointer to the desired event flag group.
 293:..\..\..\..\..\..\Software\uCOS-III\Source/os_flag.c **** *
 294:..\..\..\..\..\..\Software\uCOS-III\Source/os_flag.c **** *              flags         Is a bit pattern indicating which bit(s) (i.e. flags) you wish to wait
 295:..\..\..\..\..\..\Software\uCOS-III\Source/os_flag.c **** *                            The bits you want are specified by setting the corresponding bits in '
 296:..\..\..\..\..\..\Software\uCOS-III\Source/os_flag.c **** *                            e.g. if your application wants to wait for bits 0 and 1 then 'flags' w
 297:..\..\..\..\..\..\Software\uCOS-III\Source/os_flag.c **** *
 298:..\..\..\..\..\..\Software\uCOS-III\Source/os_flag.c **** *              timeout       is an optional timeout (in clock ticks) that your task will wait for t
 299:..\..\..\..\..\..\Software\uCOS-III\Source/os_flag.c **** *                            desired bit combination.  If you specify 0, however, your task will wa
 300:..\..\..\..\..\..\Software\uCOS-III\Source/os_flag.c **** *                            forever at the specified event flag group or, until a message arrives.
 301:..\..\..\..\..\..\Software\uCOS-III\Source/os_flag.c **** *
 302:..\..\..\..\..\..\Software\uCOS-III\Source/os_flag.c **** *              opt           specifies whether you want ALL bits to be set or ANY of the bits to be
 303:..\..\..\..\..\..\Software\uCOS-III\Source/os_flag.c **** *                            You can specify the 'ONE' of the following arguments:
 304:..\..\..\..\..\..\Software\uCOS-III\Source/os_flag.c **** *
 305:..\..\..\..\..\..\Software\uCOS-III\Source/os_flag.c **** *                                OS_OPT_PEND_FLAG_CLR_ALL   You will wait for ALL bits in 'flags' t
 306:..\..\..\..\..\..\Software\uCOS-III\Source/os_flag.c **** *                                OS_OPT_PEND_FLAG_CLR_ANY   You will wait for ANY bit  in 'flags' t
 307:..\..\..\..\..\..\Software\uCOS-III\Source/os_flag.c **** *                                OS_OPT_PEND_FLAG_SET_ALL   You will wait for ALL bits in 'flags' t
 308:..\..\..\..\..\..\Software\uCOS-III\Source/os_flag.c **** *                                OS_OPT_PEND_FLAG_SET_ANY   You will wait for ANY bit  in 'flags' t
 309:..\..\..\..\..\..\Software\uCOS-III\Source/os_flag.c **** *
 310:..\..\..\..\..\..\Software\uCOS-III\Source/os_flag.c **** *                            You can 'ADD' OS_OPT_PEND_FLAG_CONSUME if you want the event flag to b
 311:..\..\..\..\..\..\Software\uCOS-III\Source/os_flag.c **** *                                      the call.  Example, to wait for any flag in a group AND then
 312:..\..\..\..\..\..\Software\uCOS-III\Source/os_flag.c **** *                                      the flags that are present, set 'wait_opt' to:
 313:..\..\..\..\..\..\Software\uCOS-III\Source/os_flag.c **** *
 314:..\..\..\..\..\..\Software\uCOS-III\Source/os_flag.c **** *                                      OS_OPT_PEND_FLAG_SET_ANY + OS_OPT_PEND_FLAG_CONSUME
 315:..\..\..\..\..\..\Software\uCOS-III\Source/os_flag.c **** *
 316:..\..\..\..\..\..\Software\uCOS-III\Source/os_flag.c **** *                            You can also 'ADD' the type of pend with 'ONE' of the two option:
ARM GAS  C:\Users\ADMINI~1\AppData\Local\Temp\cc0ImMof.s 			page 9


 317:..\..\..\..\..\..\Software\uCOS-III\Source/os_flag.c **** *
 318:..\..\..\..\..\..\Software\uCOS-III\Source/os_flag.c **** *                                OS_OPT_PEND_NON_BLOCKING   Task will NOT block if flags are not av
 319:..\..\..\..\..\..\Software\uCOS-III\Source/os_flag.c **** *                                OS_OPT_PEND_BLOCKING       Task will     block if flags are not av
 320:..\..\..\..\..\..\Software\uCOS-III\Source/os_flag.c **** *
 321:..\..\..\..\..\..\Software\uCOS-III\Source/os_flag.c **** *              p_ts          is a pointer to a variable that will receive the timestamp of when the
 322:..\..\..\..\..\..\Software\uCOS-III\Source/os_flag.c **** *                            posted, aborted or the event flag group deleted.  If you pass a NULL p
 323:..\..\..\..\..\..\Software\uCOS-III\Source/os_flag.c **** *                            then you will not get the timestamp.  In other words, passing a NULL p
 324:..\..\..\..\..\..\Software\uCOS-III\Source/os_flag.c **** *                            indicates that you don't need the timestamp.
 325:..\..\..\..\..\..\Software\uCOS-III\Source/os_flag.c **** *
 326:..\..\..\..\..\..\Software\uCOS-III\Source/os_flag.c **** *              p_err         is a pointer to an error code and can be:
 327:..\..\..\..\..\..\Software\uCOS-III\Source/os_flag.c **** *
 328:..\..\..\..\..\..\Software\uCOS-III\Source/os_flag.c **** *                                OS_ERR_NONE                The desired bits have been set within t
 329:..\..\..\..\..\..\Software\uCOS-III\Source/os_flag.c **** *                                OS_ERR_OBJ_DEL             If the event group was deleted
 330:..\..\..\..\..\..\Software\uCOS-III\Source/os_flag.c **** *                                OS_ERR_OBJ_PTR_NULL        If 'p_grp' is a NULL pointer.
 331:..\..\..\..\..\..\Software\uCOS-III\Source/os_flag.c **** *                                OS_ERR_OBJ_TYPE            You are not pointing to an event flag g
 332:..\..\..\..\..\..\Software\uCOS-III\Source/os_flag.c **** *                                OS_ERR_OPT_INVALID         You didn't specify a proper 'opt' argum
 333:..\..\..\..\..\..\Software\uCOS-III\Source/os_flag.c **** *                                OS_ERR_OS_NOT_RUNNING      If uC/OS-III is not running yet
 334:..\..\..\..\..\..\Software\uCOS-III\Source/os_flag.c **** *                                OS_ERR_PEND_ABORT          The wait on the flag was aborted
 335:..\..\..\..\..\..\Software\uCOS-III\Source/os_flag.c **** *                                OS_ERR_PEND_ISR            If you tried to PEND from an ISR
 336:..\..\..\..\..\..\Software\uCOS-III\Source/os_flag.c **** *                                OS_ERR_PEND_WOULD_BLOCK    If you specified non-blocking but the f
 337:..\..\..\..\..\..\Software\uCOS-III\Source/os_flag.c **** *                                                           available
 338:..\..\..\..\..\..\Software\uCOS-III\Source/os_flag.c **** *                                OS_ERR_SCHED_LOCKED        If you called this function when the sc
 339:..\..\..\..\..\..\Software\uCOS-III\Source/os_flag.c **** *                                OS_ERR_STATUS_INVALID      If the pend status has an invalid value
 340:..\..\..\..\..\..\Software\uCOS-III\Source/os_flag.c **** *                                OS_ERR_TIMEOUT             The bit(s) have not been set in the spe
 341:..\..\..\..\..\..\Software\uCOS-III\Source/os_flag.c **** *
 342:..\..\..\..\..\..\Software\uCOS-III\Source/os_flag.c **** * Returns    : The flags in the event flag group that made the task ready or, 0 if a timeout or an 
 343:..\..\..\..\..\..\Software\uCOS-III\Source/os_flag.c **** *              occurred.
 344:..\..\..\..\..\..\Software\uCOS-III\Source/os_flag.c **** *
 345:..\..\..\..\..\..\Software\uCOS-III\Source/os_flag.c **** * Note(s)    : none
 346:..\..\..\..\..\..\Software\uCOS-III\Source/os_flag.c **** ***************************************************************************************************
 347:..\..\..\..\..\..\Software\uCOS-III\Source/os_flag.c **** */
 348:..\..\..\..\..\..\Software\uCOS-III\Source/os_flag.c **** 
 349:..\..\..\..\..\..\Software\uCOS-III\Source/os_flag.c **** OS_FLAGS  OSFlagPend (OS_FLAG_GRP  *p_grp,
 350:..\..\..\..\..\..\Software\uCOS-III\Source/os_flag.c ****                       OS_FLAGS      flags,
 351:..\..\..\..\..\..\Software\uCOS-III\Source/os_flag.c ****                       OS_TICK       timeout,
 352:..\..\..\..\..\..\Software\uCOS-III\Source/os_flag.c ****                       OS_OPT        opt,
 353:..\..\..\..\..\..\Software\uCOS-III\Source/os_flag.c ****                       CPU_TS       *p_ts,
 354:..\..\..\..\..\..\Software\uCOS-III\Source/os_flag.c ****                       OS_ERR       *p_err)
 355:..\..\..\..\..\..\Software\uCOS-III\Source/os_flag.c **** {
 141              		.loc 1 355 0
 142              		.cfi_startproc
 143              		@ args = 8, pretend = 0, frame = 64
 144              		@ frame_needed = 1, uses_anonymous_args = 0
 145 0000 90B5     		push	{r4, r7, lr}
 146              		.cfi_def_cfa_offset 12
 147              		.cfi_offset 4, -12
 148              		.cfi_offset 7, -8
 149              		.cfi_offset 14, -4
 150 0002 93B0     		sub	sp, sp, #76
 151              		.cfi_def_cfa_offset 88
 152 0004 02AF     		add	r7, sp, #8
 153              		.cfi_def_cfa 7, 80
 154 0006 F860     		str	r0, [r7, #12]
 155 0008 B960     		str	r1, [r7, #8]
 156 000a 7A60     		str	r2, [r7, #4]
 157 000c 1A00     		movs	r2, r3
 158 000e BB1C     		adds	r3, r7, #2
ARM GAS  C:\Users\ADMINI~1\AppData\Local\Temp\cc0ImMof.s 			page 10


 159 0010 1A80     		strh	r2, [r3]
 356:..\..\..\..\..\..\Software\uCOS-III\Source/os_flag.c ****     CPU_BOOLEAN   consume;
 357:..\..\..\..\..\..\Software\uCOS-III\Source/os_flag.c ****     OS_FLAGS      flags_rdy;
 358:..\..\..\..\..\..\Software\uCOS-III\Source/os_flag.c ****     OS_OPT        mode;
 359:..\..\..\..\..\..\Software\uCOS-III\Source/os_flag.c ****     OS_PEND_DATA  pend_data;
 360:..\..\..\..\..\..\Software\uCOS-III\Source/os_flag.c ****     CPU_SR_ALLOC();
 160              		.loc 1 360 0
 161 0012 0023     		movs	r3, #0
 162 0014 BB63     		str	r3, [r7, #56]
 361:..\..\..\..\..\..\Software\uCOS-III\Source/os_flag.c **** 
 362:..\..\..\..\..\..\Software\uCOS-III\Source/os_flag.c **** 
 363:..\..\..\..\..\..\Software\uCOS-III\Source/os_flag.c **** #ifdef OS_SAFETY_CRITICAL
 364:..\..\..\..\..\..\Software\uCOS-III\Source/os_flag.c ****     if (p_err == DEF_NULL) {
 365:..\..\..\..\..\..\Software\uCOS-III\Source/os_flag.c ****         OS_SAFETY_CRITICAL_EXCEPTION();
 366:..\..\..\..\..\..\Software\uCOS-III\Source/os_flag.c ****         return (0u);
 367:..\..\..\..\..\..\Software\uCOS-III\Source/os_flag.c ****     }
 368:..\..\..\..\..\..\Software\uCOS-III\Source/os_flag.c **** #endif
 369:..\..\..\..\..\..\Software\uCOS-III\Source/os_flag.c **** 
 370:..\..\..\..\..\..\Software\uCOS-III\Source/os_flag.c **** #if (OS_CFG_CALLED_FROM_ISR_CHK_EN == DEF_ENABLED)
 371:..\..\..\..\..\..\Software\uCOS-III\Source/os_flag.c ****     if (OSIntNestingCtr > 0u) {                                 /* See if called from ISR ...      
 163              		.loc 1 371 0
 164 0016 BD4B     		ldr	r3, .L54
 165 0018 1B78     		ldrb	r3, [r3]
 166 001a 002B     		cmp	r3, #0
 167 001c 04D0     		beq	.L8
 372:..\..\..\..\..\..\Software\uCOS-III\Source/os_flag.c **** #if (defined(TRACE_CFG_EN) && (TRACE_CFG_EN == DEF_ENABLED))
 373:..\..\..\..\..\..\Software\uCOS-III\Source/os_flag.c ****         TRACE_OS_FLAG_PEND_FAILED(p_grp);                       /* Record the event.               
 374:..\..\..\..\..\..\Software\uCOS-III\Source/os_flag.c **** #endif
 375:..\..\..\..\..\..\Software\uCOS-III\Source/os_flag.c ****        *p_err = OS_ERR_PEND_ISR;                                /* ... can't PEND from an ISR      
 168              		.loc 1 375 0
 169 001e 7B6D     		ldr	r3, [r7, #84]
 170 0020 BB4A     		ldr	r2, .L54+4
 171 0022 1A80     		strh	r2, [r3]
 376:..\..\..\..\..\..\Software\uCOS-III\Source/os_flag.c ****         return ((OS_FLAGS)0);
 172              		.loc 1 376 0
 173 0024 0023     		movs	r3, #0
 174 0026 F1E1     		b	.L50
 175              	.L8:
 377:..\..\..\..\..\..\Software\uCOS-III\Source/os_flag.c ****     }
 378:..\..\..\..\..\..\Software\uCOS-III\Source/os_flag.c **** #endif
 379:..\..\..\..\..\..\Software\uCOS-III\Source/os_flag.c **** 
 380:..\..\..\..\..\..\Software\uCOS-III\Source/os_flag.c **** #if (OS_CFG_INVALID_OS_CALLS_CHK_EN == DEF_ENABLED)             /* Is the kernel running?          
 381:..\..\..\..\..\..\Software\uCOS-III\Source/os_flag.c ****     if (OSRunning != OS_STATE_OS_RUNNING) {
 382:..\..\..\..\..\..\Software\uCOS-III\Source/os_flag.c ****        *p_err = OS_ERR_OS_NOT_RUNNING;
 383:..\..\..\..\..\..\Software\uCOS-III\Source/os_flag.c ****         return (0u);
 384:..\..\..\..\..\..\Software\uCOS-III\Source/os_flag.c ****     }
 385:..\..\..\..\..\..\Software\uCOS-III\Source/os_flag.c **** #endif
 386:..\..\..\..\..\..\Software\uCOS-III\Source/os_flag.c **** 
 387:..\..\..\..\..\..\Software\uCOS-III\Source/os_flag.c **** #if (OS_CFG_ARG_CHK_EN == DEF_ENABLED)
 388:..\..\..\..\..\..\Software\uCOS-III\Source/os_flag.c ****     if (p_grp == DEF_NULL) {                                    /* Validate 'p_grp'                
 176              		.loc 1 388 0
 177 0028 FB68     		ldr	r3, [r7, #12]
 178 002a 002B     		cmp	r3, #0
 179 002c 04D1     		bne	.L10
 389:..\..\..\..\..\..\Software\uCOS-III\Source/os_flag.c **** #if (defined(TRACE_CFG_EN) && (TRACE_CFG_EN == DEF_ENABLED))
 390:..\..\..\..\..\..\Software\uCOS-III\Source/os_flag.c ****         TRACE_OS_FLAG_PEND_FAILED(p_grp);                       /* Record the event.               
 391:..\..\..\..\..\..\Software\uCOS-III\Source/os_flag.c **** #endif
ARM GAS  C:\Users\ADMINI~1\AppData\Local\Temp\cc0ImMof.s 			page 11


 392:..\..\..\..\..\..\Software\uCOS-III\Source/os_flag.c ****        *p_err = OS_ERR_OBJ_PTR_NULL;
 180              		.loc 1 392 0
 181 002e 7B6D     		ldr	r3, [r7, #84]
 182 0030 B84A     		ldr	r2, .L54+8
 183 0032 1A80     		strh	r2, [r3]
 393:..\..\..\..\..\..\Software\uCOS-III\Source/os_flag.c ****         return (0u);
 184              		.loc 1 393 0
 185 0034 0023     		movs	r3, #0
 186 0036 E9E1     		b	.L50
 187              	.L10:
 394:..\..\..\..\..\..\Software\uCOS-III\Source/os_flag.c ****     }
 395:..\..\..\..\..\..\Software\uCOS-III\Source/os_flag.c ****     switch (opt) {                                              /* Validate 'opt'                  
 188              		.loc 1 395 0
 189 0038 BB1C     		adds	r3, r7, #2
 190 003a 1B88     		ldrh	r3, [r3]
 191 003c 8422     		movs	r2, #132
 192 003e 5200     		lsls	r2, r2, #1
 193 0040 9342     		cmp	r3, r2
 194 0042 3ED0     		beq	.L53
 195 0044 8422     		movs	r2, #132
 196 0046 5200     		lsls	r2, r2, #1
 197 0048 9342     		cmp	r3, r2
 198 004a 16DC     		bgt	.L13
 199 004c 082B     		cmp	r3, #8
 200 004e 38D0     		beq	.L53
 201 0050 06DC     		bgt	.L14
 202 0052 012B     		cmp	r3, #1
 203 0054 30DB     		blt	.L11
 204 0056 022B     		cmp	r3, #2
 205 0058 33DD     		ble	.L53
 206 005a 042B     		cmp	r3, #4
 207 005c 31D0     		beq	.L53
 208 005e 2BE0     		b	.L11
 209              	.L14:
 210 0060 0222     		movs	r2, #2
 211 0062 FF32     		adds	r2, r2, #255
 212 0064 9342     		cmp	r3, r2
 213 0066 27DB     		blt	.L11
 214 0068 8122     		movs	r2, #129
 215 006a 5200     		lsls	r2, r2, #1
 216 006c 9342     		cmp	r3, r2
 217 006e 28DD     		ble	.L53
 218 0070 8222     		movs	r2, #130
 219 0072 5200     		lsls	r2, r2, #1
 220 0074 9342     		cmp	r3, r2
 221 0076 24D0     		beq	.L53
 222 0078 1EE0     		b	.L11
 223              	.L13:
 224 007a A74A     		ldr	r2, .L54+12
 225 007c 9342     		cmp	r3, r2
 226 007e 20D0     		beq	.L53
 227 0080 A54A     		ldr	r2, .L54+12
 228 0082 9342     		cmp	r3, r2
 229 0084 09DC     		bgt	.L15
 230 0086 A54A     		ldr	r2, .L54+16
 231 0088 9342     		cmp	r3, r2
 232 008a 15DB     		blt	.L11
ARM GAS  C:\Users\ADMINI~1\AppData\Local\Temp\cc0ImMof.s 			page 12


 233 008c A44A     		ldr	r2, .L54+20
 234 008e 9342     		cmp	r3, r2
 235 0090 17DD     		ble	.L53
 236 0092 A44A     		ldr	r2, .L54+24
 237 0094 9342     		cmp	r3, r2
 238 0096 14D0     		beq	.L53
 239 0098 0EE0     		b	.L11
 240              	.L15:
 241 009a A34A     		ldr	r2, .L54+28
 242 009c 9342     		cmp	r3, r2
 243 009e 10D0     		beq	.L53
 244 00a0 A14A     		ldr	r2, .L54+28
 245 00a2 9342     		cmp	r3, r2
 246 00a4 05DC     		bgt	.L16
 247 00a6 A14A     		ldr	r2, .L54+32
 248 00a8 9446     		mov	ip, r2
 249 00aa 6344     		add	r3, r3, ip
 250 00ac 012B     		cmp	r3, #1
 251 00ae 03D8     		bhi	.L11
 396:..\..\..\..\..\..\Software\uCOS-III\Source/os_flag.c ****         case OS_OPT_PEND_FLAG_CLR_ALL:
 397:..\..\..\..\..\..\Software\uCOS-III\Source/os_flag.c ****         case OS_OPT_PEND_FLAG_CLR_ANY:
 398:..\..\..\..\..\..\Software\uCOS-III\Source/os_flag.c ****         case OS_OPT_PEND_FLAG_SET_ALL:
 399:..\..\..\..\..\..\Software\uCOS-III\Source/os_flag.c ****         case OS_OPT_PEND_FLAG_SET_ANY:
 400:..\..\..\..\..\..\Software\uCOS-III\Source/os_flag.c ****         case OS_OPT_PEND_FLAG_CLR_ALL | OS_OPT_PEND_FLAG_CONSUME:
 401:..\..\..\..\..\..\Software\uCOS-III\Source/os_flag.c ****         case OS_OPT_PEND_FLAG_CLR_ANY | OS_OPT_PEND_FLAG_CONSUME:
 402:..\..\..\..\..\..\Software\uCOS-III\Source/os_flag.c ****         case OS_OPT_PEND_FLAG_SET_ALL | OS_OPT_PEND_FLAG_CONSUME:
 403:..\..\..\..\..\..\Software\uCOS-III\Source/os_flag.c ****         case OS_OPT_PEND_FLAG_SET_ANY | OS_OPT_PEND_FLAG_CONSUME:
 404:..\..\..\..\..\..\Software\uCOS-III\Source/os_flag.c ****         case OS_OPT_PEND_FLAG_CLR_ALL | OS_OPT_PEND_NON_BLOCKING:
 405:..\..\..\..\..\..\Software\uCOS-III\Source/os_flag.c ****         case OS_OPT_PEND_FLAG_CLR_ANY | OS_OPT_PEND_NON_BLOCKING:
 406:..\..\..\..\..\..\Software\uCOS-III\Source/os_flag.c ****         case OS_OPT_PEND_FLAG_SET_ALL | OS_OPT_PEND_NON_BLOCKING:
 407:..\..\..\..\..\..\Software\uCOS-III\Source/os_flag.c ****         case OS_OPT_PEND_FLAG_SET_ANY | OS_OPT_PEND_NON_BLOCKING:
 408:..\..\..\..\..\..\Software\uCOS-III\Source/os_flag.c ****         case OS_OPT_PEND_FLAG_CLR_ALL | OS_OPT_PEND_FLAG_CONSUME | OS_OPT_PEND_NON_BLOCKING:
 409:..\..\..\..\..\..\Software\uCOS-III\Source/os_flag.c ****         case OS_OPT_PEND_FLAG_CLR_ANY | OS_OPT_PEND_FLAG_CONSUME | OS_OPT_PEND_NON_BLOCKING:
 410:..\..\..\..\..\..\Software\uCOS-III\Source/os_flag.c ****         case OS_OPT_PEND_FLAG_SET_ALL | OS_OPT_PEND_FLAG_CONSUME | OS_OPT_PEND_NON_BLOCKING:
 411:..\..\..\..\..\..\Software\uCOS-III\Source/os_flag.c ****         case OS_OPT_PEND_FLAG_SET_ANY | OS_OPT_PEND_FLAG_CONSUME | OS_OPT_PEND_NON_BLOCKING:
 412:..\..\..\..\..\..\Software\uCOS-III\Source/os_flag.c ****              break;
 252              		.loc 1 412 0
 253 00b0 07E0     		b	.L53
 254              	.L16:
 395:..\..\..\..\..\..\Software\uCOS-III\Source/os_flag.c ****         case OS_OPT_PEND_FLAG_CLR_ALL:
 255              		.loc 1 395 0
 256 00b2 9F4A     		ldr	r2, .L54+36
 257 00b4 9342     		cmp	r3, r2
 258 00b6 04D0     		beq	.L53
 259              	.L11:
 413:..\..\..\..\..\..\Software\uCOS-III\Source/os_flag.c **** 
 414:..\..\..\..\..\..\Software\uCOS-III\Source/os_flag.c ****         default:
 415:..\..\..\..\..\..\Software\uCOS-III\Source/os_flag.c **** #if (defined(TRACE_CFG_EN) && (TRACE_CFG_EN == DEF_ENABLED))
 416:..\..\..\..\..\..\Software\uCOS-III\Source/os_flag.c ****              TRACE_OS_FLAG_PEND_FAILED(p_grp);                  /* Record the event.               
 417:..\..\..\..\..\..\Software\uCOS-III\Source/os_flag.c **** #endif
 418:..\..\..\..\..\..\Software\uCOS-III\Source/os_flag.c ****             *p_err = OS_ERR_OPT_INVALID;
 260              		.loc 1 418 0
 261 00b8 7B6D     		ldr	r3, [r7, #84]
 262 00ba 9E4A     		ldr	r2, .L54+40
 263 00bc 1A80     		strh	r2, [r3]
 419:..\..\..\..\..\..\Software\uCOS-III\Source/os_flag.c ****              return (0u);
 264              		.loc 1 419 0
ARM GAS  C:\Users\ADMINI~1\AppData\Local\Temp\cc0ImMof.s 			page 13


 265 00be 0023     		movs	r3, #0
 266 00c0 A4E1     		b	.L50
 267              	.L53:
 412:..\..\..\..\..\..\Software\uCOS-III\Source/os_flag.c **** 
 268              		.loc 1 412 0
 269 00c2 C046     		nop
 420:..\..\..\..\..\..\Software\uCOS-III\Source/os_flag.c ****     }
 421:..\..\..\..\..\..\Software\uCOS-III\Source/os_flag.c **** #endif
 422:..\..\..\..\..\..\Software\uCOS-III\Source/os_flag.c **** 
 423:..\..\..\..\..\..\Software\uCOS-III\Source/os_flag.c **** #if (OS_CFG_OBJ_TYPE_CHK_EN == DEF_ENABLED)
 424:..\..\..\..\..\..\Software\uCOS-III\Source/os_flag.c ****     if (p_grp->Type != OS_OBJ_TYPE_FLAG) {                      /* Validate that we are pointing at
 425:..\..\..\..\..\..\Software\uCOS-III\Source/os_flag.c **** #if (defined(TRACE_CFG_EN) && (TRACE_CFG_EN == DEF_ENABLED))
 426:..\..\..\..\..\..\Software\uCOS-III\Source/os_flag.c ****         TRACE_OS_FLAG_PEND_FAILED(p_grp);                       /* Record the event.               
 427:..\..\..\..\..\..\Software\uCOS-III\Source/os_flag.c **** #endif
 428:..\..\..\..\..\..\Software\uCOS-III\Source/os_flag.c ****        *p_err = OS_ERR_OBJ_TYPE;
 429:..\..\..\..\..\..\Software\uCOS-III\Source/os_flag.c ****         return (0u);
 430:..\..\..\..\..\..\Software\uCOS-III\Source/os_flag.c ****     }
 431:..\..\..\..\..\..\Software\uCOS-III\Source/os_flag.c **** #endif
 432:..\..\..\..\..\..\Software\uCOS-III\Source/os_flag.c **** 
 433:..\..\..\..\..\..\Software\uCOS-III\Source/os_flag.c ****     if ((opt & OS_OPT_PEND_FLAG_CONSUME) != 0u) {               /* See if we need to consume the fl
 270              		.loc 1 433 0
 271 00c4 BB1C     		adds	r3, r7, #2
 272 00c6 1A88     		ldrh	r2, [r3]
 273 00c8 8023     		movs	r3, #128
 274 00ca 5B00     		lsls	r3, r3, #1
 275 00cc 1340     		ands	r3, r2
 276 00ce 04D0     		beq	.L18
 434:..\..\..\..\..\..\Software\uCOS-III\Source/os_flag.c ****         consume = DEF_TRUE;
 277              		.loc 1 434 0
 278 00d0 3F23     		movs	r3, #63
 279 00d2 FB18     		adds	r3, r7, r3
 280 00d4 0122     		movs	r2, #1
 281 00d6 1A70     		strb	r2, [r3]
 282 00d8 03E0     		b	.L19
 283              	.L18:
 435:..\..\..\..\..\..\Software\uCOS-III\Source/os_flag.c ****     } else {
 436:..\..\..\..\..\..\Software\uCOS-III\Source/os_flag.c ****         consume = DEF_FALSE;
 284              		.loc 1 436 0
 285 00da 3F23     		movs	r3, #63
 286 00dc FB18     		adds	r3, r7, r3
 287 00de 0022     		movs	r2, #0
 288 00e0 1A70     		strb	r2, [r3]
 289              	.L19:
 437:..\..\..\..\..\..\Software\uCOS-III\Source/os_flag.c ****     }
 438:..\..\..\..\..\..\Software\uCOS-III\Source/os_flag.c **** 
 439:..\..\..\..\..\..\Software\uCOS-III\Source/os_flag.c ****     if (p_ts != DEF_NULL) {
 290              		.loc 1 439 0
 291 00e2 3B6D     		ldr	r3, [r7, #80]
 292 00e4 002B     		cmp	r3, #0
 293 00e6 02D0     		beq	.L20
 440:..\..\..\..\..\..\Software\uCOS-III\Source/os_flag.c ****        *p_ts = 0u;                                              /* Initialize the returned timestam
 294              		.loc 1 440 0
 295 00e8 3B6D     		ldr	r3, [r7, #80]
 296 00ea 0022     		movs	r2, #0
 297 00ec 1A60     		str	r2, [r3]
 298              	.L20:
 441:..\..\..\..\..\..\Software\uCOS-III\Source/os_flag.c ****     }
ARM GAS  C:\Users\ADMINI~1\AppData\Local\Temp\cc0ImMof.s 			page 14


 442:..\..\..\..\..\..\Software\uCOS-III\Source/os_flag.c **** 
 443:..\..\..\..\..\..\Software\uCOS-III\Source/os_flag.c ****     mode = opt & OS_OPT_PEND_FLAG_MASK;
 299              		.loc 1 443 0
 300 00ee 3623     		movs	r3, #54
 301 00f0 FB18     		adds	r3, r7, r3
 302 00f2 BA1C     		adds	r2, r7, #2
 303 00f4 1288     		ldrh	r2, [r2]
 304 00f6 0F21     		movs	r1, #15
 305 00f8 0A40     		ands	r2, r1
 306 00fa 1A80     		strh	r2, [r3]
 444:..\..\..\..\..\..\Software\uCOS-III\Source/os_flag.c ****     CPU_CRITICAL_ENTER();
 307              		.loc 1 444 0
 308 00fc FFF7FEFF 		bl	CPU_SR_Save
 309 0100 0300     		movs	r3, r0
 310 0102 BB63     		str	r3, [r7, #56]
 311 0104 FFF7FEFF 		bl	CPU_IntDisMeasStart
 445:..\..\..\..\..\..\Software\uCOS-III\Source/os_flag.c ****     switch (mode) {
 312              		.loc 1 445 0
 313 0108 3623     		movs	r3, #54
 314 010a FB18     		adds	r3, r7, r3
 315 010c 1B88     		ldrh	r3, [r3]
 316 010e 042B     		cmp	r3, #4
 317 0110 02D0     		beq	.L22
 318 0112 082B     		cmp	r3, #8
 319 0114 5DD0     		beq	.L23
 320 0116 B8E0     		b	.L51
 321              	.L22:
 446:..\..\..\..\..\..\Software\uCOS-III\Source/os_flag.c ****         case OS_OPT_PEND_FLAG_SET_ALL:                          /* See if all required flags are se
 447:..\..\..\..\..\..\Software\uCOS-III\Source/os_flag.c ****              flags_rdy = (p_grp->Flags & flags);                /* Extract only the bits we want   
 322              		.loc 1 447 0
 323 0118 FB68     		ldr	r3, [r7, #12]
 324 011a 1B6A     		ldr	r3, [r3, #32]
 325 011c BA68     		ldr	r2, [r7, #8]
 326 011e 1340     		ands	r3, r2
 327 0120 3B63     		str	r3, [r7, #48]
 448:..\..\..\..\..\..\Software\uCOS-III\Source/os_flag.c ****              if (flags_rdy == flags) {                          /* Must match ALL the bits that we 
 328              		.loc 1 448 0
 329 0122 3A6B     		ldr	r2, [r7, #48]
 330 0124 BB68     		ldr	r3, [r7, #8]
 331 0126 9A42     		cmp	r2, r3
 332 0128 22D1     		bne	.L24
 449:..\..\..\..\..\..\Software\uCOS-III\Source/os_flag.c ****                  if (consume == DEF_TRUE) {                     /* See if we need to consume the fl
 333              		.loc 1 449 0
 334 012a 3F23     		movs	r3, #63
 335 012c FB18     		adds	r3, r7, r3
 336 012e 1B78     		ldrb	r3, [r3]
 337 0130 012B     		cmp	r3, #1
 338 0132 06D1     		bne	.L25
 450:..\..\..\..\..\..\Software\uCOS-III\Source/os_flag.c ****                      p_grp->Flags &= ~flags_rdy;                /* Clear ONLY the flags that we wan
 339              		.loc 1 450 0
 340 0134 FB68     		ldr	r3, [r7, #12]
 341 0136 1B6A     		ldr	r3, [r3, #32]
 342 0138 3A6B     		ldr	r2, [r7, #48]
 343 013a D243     		mvns	r2, r2
 344 013c 1A40     		ands	r2, r3
 345 013e FB68     		ldr	r3, [r7, #12]
 346 0140 1A62     		str	r2, [r3, #32]
ARM GAS  C:\Users\ADMINI~1\AppData\Local\Temp\cc0ImMof.s 			page 15


 347              	.L25:
 451:..\..\..\..\..\..\Software\uCOS-III\Source/os_flag.c ****                  }
 452:..\..\..\..\..\..\Software\uCOS-III\Source/os_flag.c ****                  OSTCBCurPtr->FlagsRdy = flags_rdy;             /* Save flags that were ready      
 348              		.loc 1 452 0
 349 0142 7D4B     		ldr	r3, .L54+44
 350 0144 1B68     		ldr	r3, [r3]
 351 0146 8021     		movs	r1, #128
 352 0148 3A6B     		ldr	r2, [r7, #48]
 353 014a 5A50     		str	r2, [r3, r1]
 453:..\..\..\..\..\..\Software\uCOS-III\Source/os_flag.c **** #if (OS_CFG_TS_EN == DEF_ENABLED)
 454:..\..\..\..\..\..\Software\uCOS-III\Source/os_flag.c ****                  if (p_ts != DEF_NULL) {
 354              		.loc 1 454 0
 355 014c 3B6D     		ldr	r3, [r7, #80]
 356 014e 002B     		cmp	r3, #0
 357 0150 03D0     		beq	.L26
 455:..\..\..\..\..\..\Software\uCOS-III\Source/os_flag.c ****                     *p_ts = p_grp->TS;
 358              		.loc 1 455 0
 359 0152 FB68     		ldr	r3, [r7, #12]
 360 0154 5A6A     		ldr	r2, [r3, #36]
 361 0156 3B6D     		ldr	r3, [r7, #80]
 362 0158 1A60     		str	r2, [r3]
 363              	.L26:
 456:..\..\..\..\..\..\Software\uCOS-III\Source/os_flag.c ****                  }
 457:..\..\..\..\..\..\Software\uCOS-III\Source/os_flag.c **** #endif
 458:..\..\..\..\..\..\Software\uCOS-III\Source/os_flag.c ****                  CPU_CRITICAL_EXIT();                           /* Yes, condition met, return to ca
 364              		.loc 1 458 0
 365 015a FFF7FEFF 		bl	CPU_IntDisMeasStop
 366 015e BB6B     		ldr	r3, [r7, #56]
 367 0160 1800     		movs	r0, r3
 368 0162 FFF7FEFF 		bl	CPU_SR_Restore
 459:..\..\..\..\..\..\Software\uCOS-III\Source/os_flag.c **** #if (defined(TRACE_CFG_EN) && (TRACE_CFG_EN == DEF_ENABLED))
 460:..\..\..\..\..\..\Software\uCOS-III\Source/os_flag.c ****                  TRACE_OS_FLAG_PEND(p_grp);                     /* Record the event.               
 461:..\..\..\..\..\..\Software\uCOS-III\Source/os_flag.c **** #endif
 462:..\..\..\..\..\..\Software\uCOS-III\Source/os_flag.c ****                 *p_err = OS_ERR_NONE;
 369              		.loc 1 462 0
 370 0166 7B6D     		ldr	r3, [r7, #84]
 371 0168 0022     		movs	r2, #0
 372 016a 1A80     		strh	r2, [r3]
 463:..\..\..\..\..\..\Software\uCOS-III\Source/os_flag.c ****                  return (flags_rdy);
 373              		.loc 1 463 0
 374 016c 3B6B     		ldr	r3, [r7, #48]
 375 016e 4DE1     		b	.L50
 376              	.L24:
 464:..\..\..\..\..\..\Software\uCOS-III\Source/os_flag.c ****              } else {                                           /* Block task until events occur or
 465:..\..\..\..\..\..\Software\uCOS-III\Source/os_flag.c ****                  if ((opt & OS_OPT_PEND_NON_BLOCKING) != 0u) {
 377              		.loc 1 465 0
 378 0170 BB1C     		adds	r3, r7, #2
 379 0172 0022     		movs	r2, #0
 380 0174 9B5E     		ldrsh	r3, [r3, r2]
 381 0176 002B     		cmp	r3, #0
 382 0178 0ADA     		bge	.L27
 466:..\..\..\..\..\..\Software\uCOS-III\Source/os_flag.c ****                      CPU_CRITICAL_EXIT();
 383              		.loc 1 466 0
 384 017a FFF7FEFF 		bl	CPU_IntDisMeasStop
 385 017e BB6B     		ldr	r3, [r7, #56]
 386 0180 1800     		movs	r0, r3
 387 0182 FFF7FEFF 		bl	CPU_SR_Restore
ARM GAS  C:\Users\ADMINI~1\AppData\Local\Temp\cc0ImMof.s 			page 16


 467:..\..\..\..\..\..\Software\uCOS-III\Source/os_flag.c **** #if (defined(TRACE_CFG_EN) && (TRACE_CFG_EN == DEF_ENABLED))
 468:..\..\..\..\..\..\Software\uCOS-III\Source/os_flag.c ****                      TRACE_OS_FLAG_PEND_FAILED(p_grp);          /* Record the event.               
 469:..\..\..\..\..\..\Software\uCOS-III\Source/os_flag.c **** #endif
 470:..\..\..\..\..\..\Software\uCOS-III\Source/os_flag.c ****                     *p_err = OS_ERR_PEND_WOULD_BLOCK;           /* Specified non-blocking so task w
 388              		.loc 1 470 0
 389 0186 7B6D     		ldr	r3, [r7, #84]
 390 0188 6C4A     		ldr	r2, .L54+48
 391 018a 1A80     		strh	r2, [r3]
 471:..\..\..\..\..\..\Software\uCOS-III\Source/os_flag.c ****                      return ((OS_FLAGS)0);
 392              		.loc 1 471 0
 393 018c 0023     		movs	r3, #0
 394 018e 3DE1     		b	.L50
 395              	.L27:
 472:..\..\..\..\..\..\Software\uCOS-III\Source/os_flag.c ****                  } else {                                       /* Specified blocking so check is s
 473:..\..\..\..\..\..\Software\uCOS-III\Source/os_flag.c ****                      if (OSSchedLockNestingCtr > 0u) {          /* See if called with scheduler loc
 396              		.loc 1 473 0
 397 0190 6B4B     		ldr	r3, .L54+52
 398 0192 1B78     		ldrb	r3, [r3]
 399 0194 002B     		cmp	r3, #0
 400 0196 0AD0     		beq	.L28
 474:..\..\..\..\..\..\Software\uCOS-III\Source/os_flag.c ****                          CPU_CRITICAL_EXIT();
 401              		.loc 1 474 0
 402 0198 FFF7FEFF 		bl	CPU_IntDisMeasStop
 403 019c BB6B     		ldr	r3, [r7, #56]
 404 019e 1800     		movs	r0, r3
 405 01a0 FFF7FEFF 		bl	CPU_SR_Restore
 475:..\..\..\..\..\..\Software\uCOS-III\Source/os_flag.c **** #if (defined(TRACE_CFG_EN) && (TRACE_CFG_EN == DEF_ENABLED))
 476:..\..\..\..\..\..\Software\uCOS-III\Source/os_flag.c ****                          TRACE_OS_FLAG_PEND_FAILED(p_grp);      /* Record the event.               
 477:..\..\..\..\..\..\Software\uCOS-III\Source/os_flag.c **** #endif
 478:..\..\..\..\..\..\Software\uCOS-III\Source/os_flag.c ****                         *p_err = OS_ERR_SCHED_LOCKED;           /* ... can't PEND when locked      
 406              		.loc 1 478 0
 407 01a4 7B6D     		ldr	r3, [r7, #84]
 408 01a6 674A     		ldr	r2, .L54+56
 409 01a8 1A80     		strh	r2, [r3]
 479:..\..\..\..\..\..\Software\uCOS-III\Source/os_flag.c ****                          return (0u);
 410              		.loc 1 479 0
 411 01aa 0023     		movs	r3, #0
 412 01ac 2EE1     		b	.L50
 413              	.L28:
 480:..\..\..\..\..\..\Software\uCOS-III\Source/os_flag.c ****                      }
 481:..\..\..\..\..\..\Software\uCOS-III\Source/os_flag.c ****                  }
 482:..\..\..\..\..\..\Software\uCOS-III\Source/os_flag.c ****                                                                 /* Lock the scheduler/re-enable int
 483:..\..\..\..\..\..\Software\uCOS-III\Source/os_flag.c ****                  OS_CRITICAL_ENTER_CPU_EXIT();              
 484:..\..\..\..\..\..\Software\uCOS-III\Source/os_flag.c ****                  OS_FlagBlock(&pend_data,
 414              		.loc 1 484 0
 415 01ae BB1C     		adds	r3, r7, #2
 416 01b0 1C88     		ldrh	r4, [r3]
 417 01b2 BA68     		ldr	r2, [r7, #8]
 418 01b4 F968     		ldr	r1, [r7, #12]
 419 01b6 1023     		movs	r3, #16
 420 01b8 F818     		adds	r0, r7, r3
 421 01ba 7B68     		ldr	r3, [r7, #4]
 422 01bc 0093     		str	r3, [sp]
 423 01be 2300     		movs	r3, r4
 424 01c0 FFF7FEFF 		bl	OS_FlagBlock
 485:..\..\..\..\..\..\Software\uCOS-III\Source/os_flag.c ****                               p_grp,
 486:..\..\..\..\..\..\Software\uCOS-III\Source/os_flag.c ****                               flags,
ARM GAS  C:\Users\ADMINI~1\AppData\Local\Temp\cc0ImMof.s 			page 17


 487:..\..\..\..\..\..\Software\uCOS-III\Source/os_flag.c ****                               opt,
 488:..\..\..\..\..\..\Software\uCOS-III\Source/os_flag.c ****                               timeout);
 489:..\..\..\..\..\..\Software\uCOS-III\Source/os_flag.c ****                  OS_CRITICAL_EXIT_NO_SCHED();
 425              		.loc 1 489 0
 426 01c4 FFF7FEFF 		bl	CPU_IntDisMeasStop
 427 01c8 BB6B     		ldr	r3, [r7, #56]
 428 01ca 1800     		movs	r0, r3
 429 01cc FFF7FEFF 		bl	CPU_SR_Restore
 490:..\..\..\..\..\..\Software\uCOS-III\Source/os_flag.c ****              }
 491:..\..\..\..\..\..\Software\uCOS-III\Source/os_flag.c ****              break;
 430              		.loc 1 491 0
 431 01d0 66E0     		b	.L29
 432              	.L23:
 492:..\..\..\..\..\..\Software\uCOS-III\Source/os_flag.c **** 
 493:..\..\..\..\..\..\Software\uCOS-III\Source/os_flag.c ****         case OS_OPT_PEND_FLAG_SET_ANY:
 494:..\..\..\..\..\..\Software\uCOS-III\Source/os_flag.c ****              flags_rdy = (p_grp->Flags & flags);                /* Extract only the bits we want   
 433              		.loc 1 494 0
 434 01d2 FB68     		ldr	r3, [r7, #12]
 435 01d4 1B6A     		ldr	r3, [r3, #32]
 436 01d6 BA68     		ldr	r2, [r7, #8]
 437 01d8 1340     		ands	r3, r2
 438 01da 3B63     		str	r3, [r7, #48]
 495:..\..\..\..\..\..\Software\uCOS-III\Source/os_flag.c ****              if (flags_rdy != 0u) {                             /* See if any flag set             
 439              		.loc 1 495 0
 440 01dc 3B6B     		ldr	r3, [r7, #48]
 441 01de 002B     		cmp	r3, #0
 442 01e0 22D0     		beq	.L30
 496:..\..\..\..\..\..\Software\uCOS-III\Source/os_flag.c ****                  if (consume == DEF_TRUE) {                     /* See if we need to consume the fl
 443              		.loc 1 496 0
 444 01e2 3F23     		movs	r3, #63
 445 01e4 FB18     		adds	r3, r7, r3
 446 01e6 1B78     		ldrb	r3, [r3]
 447 01e8 012B     		cmp	r3, #1
 448 01ea 06D1     		bne	.L31
 497:..\..\..\..\..\..\Software\uCOS-III\Source/os_flag.c ****                      p_grp->Flags &= ~flags_rdy;                /* Clear ONLY the flags that we got
 449              		.loc 1 497 0
 450 01ec FB68     		ldr	r3, [r7, #12]
 451 01ee 1B6A     		ldr	r3, [r3, #32]
 452 01f0 3A6B     		ldr	r2, [r7, #48]
 453 01f2 D243     		mvns	r2, r2
 454 01f4 1A40     		ands	r2, r3
 455 01f6 FB68     		ldr	r3, [r7, #12]
 456 01f8 1A62     		str	r2, [r3, #32]
 457              	.L31:
 498:..\..\..\..\..\..\Software\uCOS-III\Source/os_flag.c ****                  }
 499:..\..\..\..\..\..\Software\uCOS-III\Source/os_flag.c ****                  OSTCBCurPtr->FlagsRdy = flags_rdy;             /* Save flags that were ready      
 458              		.loc 1 499 0
 459 01fa 4F4B     		ldr	r3, .L54+44
 460 01fc 1B68     		ldr	r3, [r3]
 461 01fe 8021     		movs	r1, #128
 462 0200 3A6B     		ldr	r2, [r7, #48]
 463 0202 5A50     		str	r2, [r3, r1]
 500:..\..\..\..\..\..\Software\uCOS-III\Source/os_flag.c **** #if (OS_CFG_TS_EN == DEF_ENABLED)
 501:..\..\..\..\..\..\Software\uCOS-III\Source/os_flag.c ****                  if (p_ts != DEF_NULL) {
 464              		.loc 1 501 0
 465 0204 3B6D     		ldr	r3, [r7, #80]
 466 0206 002B     		cmp	r3, #0
ARM GAS  C:\Users\ADMINI~1\AppData\Local\Temp\cc0ImMof.s 			page 18


 467 0208 03D0     		beq	.L32
 502:..\..\..\..\..\..\Software\uCOS-III\Source/os_flag.c ****                     *p_ts  = p_grp->TS;
 468              		.loc 1 502 0
 469 020a FB68     		ldr	r3, [r7, #12]
 470 020c 5A6A     		ldr	r2, [r3, #36]
 471 020e 3B6D     		ldr	r3, [r7, #80]
 472 0210 1A60     		str	r2, [r3]
 473              	.L32:
 503:..\..\..\..\..\..\Software\uCOS-III\Source/os_flag.c ****                  }
 504:..\..\..\..\..\..\Software\uCOS-III\Source/os_flag.c **** #endif
 505:..\..\..\..\..\..\Software\uCOS-III\Source/os_flag.c ****                  CPU_CRITICAL_EXIT();                           /* Yes, condition met, return to ca
 474              		.loc 1 505 0
 475 0212 FFF7FEFF 		bl	CPU_IntDisMeasStop
 476 0216 BB6B     		ldr	r3, [r7, #56]
 477 0218 1800     		movs	r0, r3
 478 021a FFF7FEFF 		bl	CPU_SR_Restore
 506:..\..\..\..\..\..\Software\uCOS-III\Source/os_flag.c **** #if (defined(TRACE_CFG_EN) && (TRACE_CFG_EN == DEF_ENABLED))
 507:..\..\..\..\..\..\Software\uCOS-III\Source/os_flag.c ****                  TRACE_OS_FLAG_PEND(p_grp);                     /* Record the event.               
 508:..\..\..\..\..\..\Software\uCOS-III\Source/os_flag.c **** #endif
 509:..\..\..\..\..\..\Software\uCOS-III\Source/os_flag.c ****                 *p_err = OS_ERR_NONE;
 479              		.loc 1 509 0
 480 021e 7B6D     		ldr	r3, [r7, #84]
 481 0220 0022     		movs	r2, #0
 482 0222 1A80     		strh	r2, [r3]
 510:..\..\..\..\..\..\Software\uCOS-III\Source/os_flag.c ****                  return (flags_rdy);
 483              		.loc 1 510 0
 484 0224 3B6B     		ldr	r3, [r7, #48]
 485 0226 F1E0     		b	.L50
 486              	.L30:
 511:..\..\..\..\..\..\Software\uCOS-III\Source/os_flag.c ****              } else {                                           /* Block task until events occur or
 512:..\..\..\..\..\..\Software\uCOS-III\Source/os_flag.c ****                  if ((opt & OS_OPT_PEND_NON_BLOCKING) != 0u) {
 487              		.loc 1 512 0
 488 0228 BB1C     		adds	r3, r7, #2
 489 022a 0022     		movs	r2, #0
 490 022c 9B5E     		ldrsh	r3, [r3, r2]
 491 022e 002B     		cmp	r3, #0
 492 0230 0ADA     		bge	.L33
 513:..\..\..\..\..\..\Software\uCOS-III\Source/os_flag.c ****                      CPU_CRITICAL_EXIT();
 493              		.loc 1 513 0
 494 0232 FFF7FEFF 		bl	CPU_IntDisMeasStop
 495 0236 BB6B     		ldr	r3, [r7, #56]
 496 0238 1800     		movs	r0, r3
 497 023a FFF7FEFF 		bl	CPU_SR_Restore
 514:..\..\..\..\..\..\Software\uCOS-III\Source/os_flag.c ****                     *p_err = OS_ERR_PEND_WOULD_BLOCK;           /* Specified non-blocking so task w
 498              		.loc 1 514 0
 499 023e 7B6D     		ldr	r3, [r7, #84]
 500 0240 3E4A     		ldr	r2, .L54+48
 501 0242 1A80     		strh	r2, [r3]
 515:..\..\..\..\..\..\Software\uCOS-III\Source/os_flag.c ****                      return ((OS_FLAGS)0);
 502              		.loc 1 515 0
 503 0244 0023     		movs	r3, #0
 504 0246 E1E0     		b	.L50
 505              	.L33:
 516:..\..\..\..\..\..\Software\uCOS-III\Source/os_flag.c ****                  } else {                                       /* Specified blocking so check is s
 517:..\..\..\..\..\..\Software\uCOS-III\Source/os_flag.c ****                      if (OSSchedLockNestingCtr > 0u) {          /* See if called with scheduler loc
 506              		.loc 1 517 0
 507 0248 3D4B     		ldr	r3, .L54+52
ARM GAS  C:\Users\ADMINI~1\AppData\Local\Temp\cc0ImMof.s 			page 19


 508 024a 1B78     		ldrb	r3, [r3]
 509 024c 002B     		cmp	r3, #0
 510 024e 0AD0     		beq	.L34
 518:..\..\..\..\..\..\Software\uCOS-III\Source/os_flag.c ****                          CPU_CRITICAL_EXIT();
 511              		.loc 1 518 0
 512 0250 FFF7FEFF 		bl	CPU_IntDisMeasStop
 513 0254 BB6B     		ldr	r3, [r7, #56]
 514 0256 1800     		movs	r0, r3
 515 0258 FFF7FEFF 		bl	CPU_SR_Restore
 519:..\..\..\..\..\..\Software\uCOS-III\Source/os_flag.c ****                         *p_err = OS_ERR_SCHED_LOCKED;           /* ... can't PEND when locked      
 516              		.loc 1 519 0
 517 025c 7B6D     		ldr	r3, [r7, #84]
 518 025e 394A     		ldr	r2, .L54+56
 519 0260 1A80     		strh	r2, [r3]
 520:..\..\..\..\..\..\Software\uCOS-III\Source/os_flag.c ****                          return ((OS_FLAGS)0);
 520              		.loc 1 520 0
 521 0262 0023     		movs	r3, #0
 522 0264 D2E0     		b	.L50
 523              	.L34:
 521:..\..\..\..\..\..\Software\uCOS-III\Source/os_flag.c ****                      }
 522:..\..\..\..\..\..\Software\uCOS-III\Source/os_flag.c ****                  }
 523:..\..\..\..\..\..\Software\uCOS-III\Source/os_flag.c ****                                                                 /* Lock the scheduler/re-enable int
 524:..\..\..\..\..\..\Software\uCOS-III\Source/os_flag.c ****                  OS_CRITICAL_ENTER_CPU_EXIT();              
 525:..\..\..\..\..\..\Software\uCOS-III\Source/os_flag.c ****                  OS_FlagBlock(&pend_data,
 524              		.loc 1 525 0
 525 0266 BB1C     		adds	r3, r7, #2
 526 0268 1C88     		ldrh	r4, [r3]
 527 026a BA68     		ldr	r2, [r7, #8]
 528 026c F968     		ldr	r1, [r7, #12]
 529 026e 1023     		movs	r3, #16
 530 0270 F818     		adds	r0, r7, r3
 531 0272 7B68     		ldr	r3, [r7, #4]
 532 0274 0093     		str	r3, [sp]
 533 0276 2300     		movs	r3, r4
 534 0278 FFF7FEFF 		bl	OS_FlagBlock
 526:..\..\..\..\..\..\Software\uCOS-III\Source/os_flag.c ****                               p_grp,
 527:..\..\..\..\..\..\Software\uCOS-III\Source/os_flag.c ****                               flags,
 528:..\..\..\..\..\..\Software\uCOS-III\Source/os_flag.c ****                               opt,
 529:..\..\..\..\..\..\Software\uCOS-III\Source/os_flag.c ****                               timeout);
 530:..\..\..\..\..\..\Software\uCOS-III\Source/os_flag.c ****                  OS_CRITICAL_EXIT_NO_SCHED();
 535              		.loc 1 530 0
 536 027c FFF7FEFF 		bl	CPU_IntDisMeasStop
 537 0280 BB6B     		ldr	r3, [r7, #56]
 538 0282 1800     		movs	r0, r3
 539 0284 FFF7FEFF 		bl	CPU_SR_Restore
 531:..\..\..\..\..\..\Software\uCOS-III\Source/os_flag.c ****              }
 532:..\..\..\..\..\..\Software\uCOS-III\Source/os_flag.c ****              break;
 540              		.loc 1 532 0
 541 0288 0AE0     		b	.L29
 542              	.L51:
 533:..\..\..\..\..\..\Software\uCOS-III\Source/os_flag.c **** 
 534:..\..\..\..\..\..\Software\uCOS-III\Source/os_flag.c **** #if (OS_CFG_FLAG_MODE_CLR_EN == DEF_ENABLED)
 535:..\..\..\..\..\..\Software\uCOS-III\Source/os_flag.c ****         case OS_OPT_PEND_FLAG_CLR_ALL:                          /* See if all required flags are cl
 536:..\..\..\..\..\..\Software\uCOS-III\Source/os_flag.c ****              flags_rdy = (OS_FLAGS)(~p_grp->Flags & flags);     /* Extract only the bits we want   
 537:..\..\..\..\..\..\Software\uCOS-III\Source/os_flag.c ****              if (flags_rdy == flags) {                          /* Must match ALL the bits that we 
 538:..\..\..\..\..\..\Software\uCOS-III\Source/os_flag.c ****                  if (consume == DEF_TRUE) {                     /* See if we need to consume the fl
 539:..\..\..\..\..\..\Software\uCOS-III\Source/os_flag.c ****                      p_grp->Flags |= flags_rdy;                 /* Set ONLY the flags that we wante
ARM GAS  C:\Users\ADMINI~1\AppData\Local\Temp\cc0ImMof.s 			page 20


 540:..\..\..\..\..\..\Software\uCOS-III\Source/os_flag.c ****                  }
 541:..\..\..\..\..\..\Software\uCOS-III\Source/os_flag.c ****                  OSTCBCurPtr->FlagsRdy = flags_rdy;             /* Save flags that were ready      
 542:..\..\..\..\..\..\Software\uCOS-III\Source/os_flag.c **** #if (OS_CFG_TS_EN == DEF_ENABLED)
 543:..\..\..\..\..\..\Software\uCOS-III\Source/os_flag.c ****                  if (p_ts != DEF_NULL) {
 544:..\..\..\..\..\..\Software\uCOS-III\Source/os_flag.c ****                     *p_ts  = p_grp->TS;
 545:..\..\..\..\..\..\Software\uCOS-III\Source/os_flag.c ****                  }
 546:..\..\..\..\..\..\Software\uCOS-III\Source/os_flag.c **** #endif
 547:..\..\..\..\..\..\Software\uCOS-III\Source/os_flag.c ****                  CPU_CRITICAL_EXIT();                           /* Yes, condition met, return to ca
 548:..\..\..\..\..\..\Software\uCOS-III\Source/os_flag.c **** #if (defined(TRACE_CFG_EN) && (TRACE_CFG_EN == DEF_ENABLED))
 549:..\..\..\..\..\..\Software\uCOS-III\Source/os_flag.c ****                  TRACE_OS_FLAG_PEND(p_grp);                     /* Record the event.               
 550:..\..\..\..\..\..\Software\uCOS-III\Source/os_flag.c **** #endif                 
 551:..\..\..\..\..\..\Software\uCOS-III\Source/os_flag.c ****                 *p_err = OS_ERR_NONE;
 552:..\..\..\..\..\..\Software\uCOS-III\Source/os_flag.c ****                  return (flags_rdy);
 553:..\..\..\..\..\..\Software\uCOS-III\Source/os_flag.c ****              } else {                                           /* Block task until events occur or
 554:..\..\..\..\..\..\Software\uCOS-III\Source/os_flag.c ****                  if ((opt & OS_OPT_PEND_NON_BLOCKING) != 0u) {
 555:..\..\..\..\..\..\Software\uCOS-III\Source/os_flag.c ****                      CPU_CRITICAL_EXIT();
 556:..\..\..\..\..\..\Software\uCOS-III\Source/os_flag.c ****                     *p_err = OS_ERR_PEND_WOULD_BLOCK;           /* Specified non-blocking so task w
 557:..\..\..\..\..\..\Software\uCOS-III\Source/os_flag.c ****                      return ((OS_FLAGS)0);
 558:..\..\..\..\..\..\Software\uCOS-III\Source/os_flag.c ****                  } else {                                       /* Specified blocking so check is s
 559:..\..\..\..\..\..\Software\uCOS-III\Source/os_flag.c ****                      if (OSSchedLockNestingCtr > 0u) {          /* See if called with scheduler loc
 560:..\..\..\..\..\..\Software\uCOS-III\Source/os_flag.c ****                          CPU_CRITICAL_EXIT();
 561:..\..\..\..\..\..\Software\uCOS-III\Source/os_flag.c ****                         *p_err = OS_ERR_SCHED_LOCKED;           /* ... can't PEND when locked      
 562:..\..\..\..\..\..\Software\uCOS-III\Source/os_flag.c ****                          return (0);
 563:..\..\..\..\..\..\Software\uCOS-III\Source/os_flag.c ****                      }
 564:..\..\..\..\..\..\Software\uCOS-III\Source/os_flag.c ****                  }
 565:..\..\..\..\..\..\Software\uCOS-III\Source/os_flag.c ****                                                             
 566:..\..\..\..\..\..\Software\uCOS-III\Source/os_flag.c ****                  OS_CRITICAL_ENTER_CPU_EXIT();                  /* Lock the scheduler/re-enable int
 567:..\..\..\..\..\..\Software\uCOS-III\Source/os_flag.c ****                  OS_FlagBlock(&pend_data,
 568:..\..\..\..\..\..\Software\uCOS-III\Source/os_flag.c ****                               p_grp,
 569:..\..\..\..\..\..\Software\uCOS-III\Source/os_flag.c ****                               flags,
 570:..\..\..\..\..\..\Software\uCOS-III\Source/os_flag.c ****                               opt,
 571:..\..\..\..\..\..\Software\uCOS-III\Source/os_flag.c ****                               timeout);
 572:..\..\..\..\..\..\Software\uCOS-III\Source/os_flag.c ****                  OS_CRITICAL_EXIT_NO_SCHED();
 573:..\..\..\..\..\..\Software\uCOS-III\Source/os_flag.c ****              }
 574:..\..\..\..\..\..\Software\uCOS-III\Source/os_flag.c ****              break;
 575:..\..\..\..\..\..\Software\uCOS-III\Source/os_flag.c **** 
 576:..\..\..\..\..\..\Software\uCOS-III\Source/os_flag.c ****         case OS_OPT_PEND_FLAG_CLR_ANY:
 577:..\..\..\..\..\..\Software\uCOS-III\Source/os_flag.c ****              flags_rdy = (~p_grp->Flags & flags);               /* Extract only the bits we want   
 578:..\..\..\..\..\..\Software\uCOS-III\Source/os_flag.c ****              if (flags_rdy != 0u) {                             /* See if any flag cleared         
 579:..\..\..\..\..\..\Software\uCOS-III\Source/os_flag.c ****                  if (consume == DEF_TRUE) {                     /* See if we need to consume the fl
 580:..\..\..\..\..\..\Software\uCOS-III\Source/os_flag.c ****                      p_grp->Flags |= flags_rdy;                 /* Set ONLY the flags that we got  
 581:..\..\..\..\..\..\Software\uCOS-III\Source/os_flag.c ****                  }
 582:..\..\..\..\..\..\Software\uCOS-III\Source/os_flag.c ****                  OSTCBCurPtr->FlagsRdy = flags_rdy;             /* Save flags that were ready      
 583:..\..\..\..\..\..\Software\uCOS-III\Source/os_flag.c **** #if (OS_CFG_TS_EN == DEF_ENABLED)
 584:..\..\..\..\..\..\Software\uCOS-III\Source/os_flag.c ****                  if (p_ts != DEF_NULL) {
 585:..\..\..\..\..\..\Software\uCOS-III\Source/os_flag.c ****                     *p_ts  = p_grp->TS;
 586:..\..\..\..\..\..\Software\uCOS-III\Source/os_flag.c ****                  }
 587:..\..\..\..\..\..\Software\uCOS-III\Source/os_flag.c **** #endif
 588:..\..\..\..\..\..\Software\uCOS-III\Source/os_flag.c ****                  CPU_CRITICAL_EXIT();                           /* Yes, condition met, return to ca
 589:..\..\..\..\..\..\Software\uCOS-III\Source/os_flag.c **** #if (defined(TRACE_CFG_EN) && (TRACE_CFG_EN == DEF_ENABLED))
 590:..\..\..\..\..\..\Software\uCOS-III\Source/os_flag.c ****                  TRACE_OS_FLAG_PEND(p_grp);                     /* Record the event.               
 591:..\..\..\..\..\..\Software\uCOS-III\Source/os_flag.c **** #endif
 592:..\..\..\..\..\..\Software\uCOS-III\Source/os_flag.c ****                 *p_err = OS_ERR_NONE;
 593:..\..\..\..\..\..\Software\uCOS-III\Source/os_flag.c ****                  return (flags_rdy);
 594:..\..\..\..\..\..\Software\uCOS-III\Source/os_flag.c ****              } else {                                           /* Block task until events occur or
 595:..\..\..\..\..\..\Software\uCOS-III\Source/os_flag.c ****                  if ((opt & OS_OPT_PEND_NON_BLOCKING) != 0u) {
 596:..\..\..\..\..\..\Software\uCOS-III\Source/os_flag.c ****                      CPU_CRITICAL_EXIT();
ARM GAS  C:\Users\ADMINI~1\AppData\Local\Temp\cc0ImMof.s 			page 21


 597:..\..\..\..\..\..\Software\uCOS-III\Source/os_flag.c ****                     *p_err = OS_ERR_PEND_WOULD_BLOCK;           /* Specified non-blocking so task w
 598:..\..\..\..\..\..\Software\uCOS-III\Source/os_flag.c ****                      return ((OS_FLAGS)0);
 599:..\..\..\..\..\..\Software\uCOS-III\Source/os_flag.c ****                  } else {                                       /* Specified blocking so check is s
 600:..\..\..\..\..\..\Software\uCOS-III\Source/os_flag.c ****                      if (OSSchedLockNestingCtr > 0u) {          /* See if called with scheduler loc
 601:..\..\..\..\..\..\Software\uCOS-III\Source/os_flag.c ****                          CPU_CRITICAL_EXIT();
 602:..\..\..\..\..\..\Software\uCOS-III\Source/os_flag.c ****                         *p_err = OS_ERR_SCHED_LOCKED;           /* ... can't PEND when locked      
 603:..\..\..\..\..\..\Software\uCOS-III\Source/os_flag.c ****                          return (0u);
 604:..\..\..\..\..\..\Software\uCOS-III\Source/os_flag.c ****                      }
 605:..\..\..\..\..\..\Software\uCOS-III\Source/os_flag.c ****                  }
 606:..\..\..\..\..\..\Software\uCOS-III\Source/os_flag.c ****                                                             
 607:..\..\..\..\..\..\Software\uCOS-III\Source/os_flag.c ****                  OS_CRITICAL_ENTER_CPU_EXIT();                  /* Lock the scheduler/re-enable int
 608:..\..\..\..\..\..\Software\uCOS-III\Source/os_flag.c ****                  OS_FlagBlock(&pend_data,              
 609:..\..\..\..\..\..\Software\uCOS-III\Source/os_flag.c ****                               p_grp,
 610:..\..\..\..\..\..\Software\uCOS-III\Source/os_flag.c ****                               flags,
 611:..\..\..\..\..\..\Software\uCOS-III\Source/os_flag.c ****                               opt,
 612:..\..\..\..\..\..\Software\uCOS-III\Source/os_flag.c ****                               timeout);
 613:..\..\..\..\..\..\Software\uCOS-III\Source/os_flag.c ****                  OS_CRITICAL_EXIT_NO_SCHED();
 614:..\..\..\..\..\..\Software\uCOS-III\Source/os_flag.c ****              }
 615:..\..\..\..\..\..\Software\uCOS-III\Source/os_flag.c ****              break;
 616:..\..\..\..\..\..\Software\uCOS-III\Source/os_flag.c **** #endif
 617:..\..\..\..\..\..\Software\uCOS-III\Source/os_flag.c **** 
 618:..\..\..\..\..\..\Software\uCOS-III\Source/os_flag.c ****         default:
 619:..\..\..\..\..\..\Software\uCOS-III\Source/os_flag.c ****              CPU_CRITICAL_EXIT();
 543              		.loc 1 619 0
 544 028a FFF7FEFF 		bl	CPU_IntDisMeasStop
 545 028e BB6B     		ldr	r3, [r7, #56]
 546 0290 1800     		movs	r0, r3
 547 0292 FFF7FEFF 		bl	CPU_SR_Restore
 620:..\..\..\..\..\..\Software\uCOS-III\Source/os_flag.c **** #if (defined(TRACE_CFG_EN) && (TRACE_CFG_EN == DEF_ENABLED))
 621:..\..\..\..\..\..\Software\uCOS-III\Source/os_flag.c ****              TRACE_OS_FLAG_PEND_FAILED(p_grp);                  /* Record the event.               
 622:..\..\..\..\..\..\Software\uCOS-III\Source/os_flag.c **** #endif
 623:..\..\..\..\..\..\Software\uCOS-III\Source/os_flag.c ****             *p_err = OS_ERR_OPT_INVALID;
 548              		.loc 1 623 0
 549 0296 7B6D     		ldr	r3, [r7, #84]
 550 0298 264A     		ldr	r2, .L54+40
 551 029a 1A80     		strh	r2, [r3]
 624:..\..\..\..\..\..\Software\uCOS-III\Source/os_flag.c ****              return (0u);
 552              		.loc 1 624 0
 553 029c 0023     		movs	r3, #0
 554 029e B5E0     		b	.L50
 555              	.L29:
 625:..\..\..\..\..\..\Software\uCOS-III\Source/os_flag.c ****     }
 626:..\..\..\..\..\..\Software\uCOS-III\Source/os_flag.c **** #if (defined(TRACE_CFG_EN) && (TRACE_CFG_EN == DEF_ENABLED))
 627:..\..\..\..\..\..\Software\uCOS-III\Source/os_flag.c ****     TRACE_OS_FLAG_PEND_BLOCK(p_grp);                            /* Record the event.               
 628:..\..\..\..\..\..\Software\uCOS-III\Source/os_flag.c **** #endif
 629:..\..\..\..\..\..\Software\uCOS-III\Source/os_flag.c ****     OSSched();                                                  /* Find next HPT ready to run      
 556              		.loc 1 629 0
 557 02a0 FFF7FEFF 		bl	OSSched
 630:..\..\..\..\..\..\Software\uCOS-III\Source/os_flag.c **** 
 631:..\..\..\..\..\..\Software\uCOS-III\Source/os_flag.c ****     CPU_CRITICAL_ENTER();
 558              		.loc 1 631 0
 559 02a4 FFF7FEFF 		bl	CPU_SR_Save
 560 02a8 0300     		movs	r3, r0
 561 02aa BB63     		str	r3, [r7, #56]
 562 02ac FFF7FEFF 		bl	CPU_IntDisMeasStart
 632:..\..\..\..\..\..\Software\uCOS-III\Source/os_flag.c ****     switch (OSTCBCurPtr->PendStatus) {
 563              		.loc 1 632 0
ARM GAS  C:\Users\ADMINI~1\AppData\Local\Temp\cc0ImMof.s 			page 22


 564 02b0 214B     		ldr	r3, .L54+44
 565 02b2 1B68     		ldr	r3, [r3]
 566 02b4 3522     		movs	r2, #53
 567 02b6 9B5C     		ldrb	r3, [r3, r2]
 568 02b8 012B     		cmp	r3, #1
 569 02ba 14D0     		beq	.L36
 570 02bc 02DC     		bgt	.L37
 571 02be 002B     		cmp	r3, #0
 572 02c0 05D0     		beq	.L38
 573 02c2 65E0     		b	.L35
 574              	.L37:
 575 02c4 022B     		cmp	r3, #2
 576 02c6 51D0     		beq	.L39
 577 02c8 032B     		cmp	r3, #3
 578 02ca 3FD0     		beq	.L40
 579 02cc 60E0     		b	.L35
 580              	.L38:
 633:..\..\..\..\..\..\Software\uCOS-III\Source/os_flag.c ****         case OS_STATUS_PEND_OK:                                 /* We got the event flags          
 634:..\..\..\..\..\..\Software\uCOS-III\Source/os_flag.c **** #if (OS_CFG_TS_EN == DEF_ENABLED)
 635:..\..\..\..\..\..\Software\uCOS-III\Source/os_flag.c ****              if (p_ts != DEF_NULL) {
 581              		.loc 1 635 0
 582 02ce 3B6D     		ldr	r3, [r7, #80]
 583 02d0 002B     		cmp	r3, #0
 584 02d2 04D0     		beq	.L41
 636:..\..\..\..\..\..\Software\uCOS-III\Source/os_flag.c ****                 *p_ts = OSTCBCurPtr->TS;
 585              		.loc 1 636 0
 586 02d4 184B     		ldr	r3, .L54+44
 587 02d6 1B68     		ldr	r3, [r3]
 588 02d8 9A6C     		ldr	r2, [r3, #72]
 589 02da 3B6D     		ldr	r3, [r7, #80]
 590 02dc 1A60     		str	r2, [r3]
 591              	.L41:
 637:..\..\..\..\..\..\Software\uCOS-III\Source/os_flag.c ****              }
 638:..\..\..\..\..\..\Software\uCOS-III\Source/os_flag.c **** #endif
 639:..\..\..\..\..\..\Software\uCOS-III\Source/os_flag.c **** #if (defined(TRACE_CFG_EN) && (TRACE_CFG_EN == DEF_ENABLED))
 640:..\..\..\..\..\..\Software\uCOS-III\Source/os_flag.c ****              TRACE_OS_FLAG_PEND(p_grp);                         /* Record the event.               
 641:..\..\..\..\..\..\Software\uCOS-III\Source/os_flag.c **** #endif
 642:..\..\..\..\..\..\Software\uCOS-III\Source/os_flag.c ****             *p_err = OS_ERR_NONE;
 592              		.loc 1 642 0
 593 02de 7B6D     		ldr	r3, [r7, #84]
 594 02e0 0022     		movs	r2, #0
 595 02e2 1A80     		strh	r2, [r3]
 643:..\..\..\..\..\..\Software\uCOS-III\Source/os_flag.c ****              break;
 596              		.loc 1 643 0
 597 02e4 5EE0     		b	.L42
 598              	.L36:
 644:..\..\..\..\..\..\Software\uCOS-III\Source/os_flag.c **** 
 645:..\..\..\..\..\..\Software\uCOS-III\Source/os_flag.c ****         case OS_STATUS_PEND_ABORT:                              /* Indicate that we aborted        
 646:..\..\..\..\..\..\Software\uCOS-III\Source/os_flag.c **** #if (OS_CFG_TS_EN == DEF_ENABLED)
 647:..\..\..\..\..\..\Software\uCOS-III\Source/os_flag.c ****              if (p_ts != DEF_NULL) {
 599              		.loc 1 647 0
 600 02e6 3B6D     		ldr	r3, [r7, #80]
 601 02e8 002B     		cmp	r3, #0
 602 02ea 04D0     		beq	.L43
 648:..\..\..\..\..\..\Software\uCOS-III\Source/os_flag.c ****                 *p_ts = OSTCBCurPtr->TS;
 603              		.loc 1 648 0
 604 02ec 124B     		ldr	r3, .L54+44
ARM GAS  C:\Users\ADMINI~1\AppData\Local\Temp\cc0ImMof.s 			page 23


 605 02ee 1B68     		ldr	r3, [r3]
 606 02f0 9A6C     		ldr	r2, [r3, #72]
 607 02f2 3B6D     		ldr	r3, [r7, #80]
 608 02f4 1A60     		str	r2, [r3]
 609              	.L43:
 649:..\..\..\..\..\..\Software\uCOS-III\Source/os_flag.c ****              }
 650:..\..\..\..\..\..\Software\uCOS-III\Source/os_flag.c **** #endif
 651:..\..\..\..\..\..\Software\uCOS-III\Source/os_flag.c ****              CPU_CRITICAL_EXIT();
 610              		.loc 1 651 0
 611 02f6 FFF7FEFF 		bl	CPU_IntDisMeasStop
 612 02fa BB6B     		ldr	r3, [r7, #56]
 613 02fc 1800     		movs	r0, r3
 614 02fe FFF7FEFF 		bl	CPU_SR_Restore
 652:..\..\..\..\..\..\Software\uCOS-III\Source/os_flag.c **** #if (defined(TRACE_CFG_EN) && (TRACE_CFG_EN == DEF_ENABLED))
 653:..\..\..\..\..\..\Software\uCOS-III\Source/os_flag.c ****              TRACE_OS_FLAG_PEND_FAILED(p_grp);                  /* Record the event.               
 654:..\..\..\..\..\..\Software\uCOS-III\Source/os_flag.c **** #endif
 655:..\..\..\..\..\..\Software\uCOS-III\Source/os_flag.c ****             *p_err = OS_ERR_PEND_ABORT;
 615              		.loc 1 655 0
 616 0302 7B6D     		ldr	r3, [r7, #84]
 617 0304 104A     		ldr	r2, .L54+60
 618 0306 1A80     		strh	r2, [r3]
 656:..\..\..\..\..\..\Software\uCOS-III\Source/os_flag.c ****              break;
 619              		.loc 1 656 0
 620 0308 4CE0     		b	.L42
 621              	.L55:
 622 030a C046     		.align	2
 623              	.L54:
 624 030c 00000000 		.word	OSIntNestingCtr
 625 0310 AE610000 		.word	25006
 626 0314 C35D0000 		.word	24003
 627 0318 08800000 		.word	32776
 628 031c 01800000 		.word	32769
 629 0320 02800000 		.word	32770
 630 0324 04800000 		.word	32772
 631 0328 04810000 		.word	33028
 632 032c FF7EFFFF 		.word	-33025
 633 0330 08810000 		.word	33032
 634 0334 255E0000 		.word	24101
 635 0338 00000000 		.word	OSTCBCurPtr
 636 033c B0610000 		.word	25008
 637 0340 00000000 		.word	OSSchedLockNestingCtr
 638 0344 636D0000 		.word	28003
 639 0348 A9610000 		.word	25001
 640              	.L40:
 657:..\..\..\..\..\..\Software\uCOS-III\Source/os_flag.c **** 
 658:..\..\..\..\..\..\Software\uCOS-III\Source/os_flag.c ****         case OS_STATUS_PEND_TIMEOUT:                            /* Indicate that we didn't get sema
 659:..\..\..\..\..\..\Software\uCOS-III\Source/os_flag.c ****              if (p_ts != DEF_NULL) {
 641              		.loc 1 659 0
 642 034c 3B6D     		ldr	r3, [r7, #80]
 643 034e 002B     		cmp	r3, #0
 644 0350 02D0     		beq	.L44
 660:..\..\..\..\..\..\Software\uCOS-III\Source/os_flag.c ****                 *p_ts = 0u;
 645              		.loc 1 660 0
 646 0352 3B6D     		ldr	r3, [r7, #80]
 647 0354 0022     		movs	r2, #0
 648 0356 1A60     		str	r2, [r3]
 649              	.L44:
ARM GAS  C:\Users\ADMINI~1\AppData\Local\Temp\cc0ImMof.s 			page 24


 661:..\..\..\..\..\..\Software\uCOS-III\Source/os_flag.c ****              }
 662:..\..\..\..\..\..\Software\uCOS-III\Source/os_flag.c ****              CPU_CRITICAL_EXIT();
 650              		.loc 1 662 0
 651 0358 FFF7FEFF 		bl	CPU_IntDisMeasStop
 652 035c BB6B     		ldr	r3, [r7, #56]
 653 035e 1800     		movs	r0, r3
 654 0360 FFF7FEFF 		bl	CPU_SR_Restore
 663:..\..\..\..\..\..\Software\uCOS-III\Source/os_flag.c **** #if (defined(TRACE_CFG_EN) && (TRACE_CFG_EN == DEF_ENABLED))
 664:..\..\..\..\..\..\Software\uCOS-III\Source/os_flag.c ****              TRACE_OS_FLAG_PEND_FAILED(p_grp);                  /* Record the event.               
 665:..\..\..\..\..\..\Software\uCOS-III\Source/os_flag.c **** #endif
 666:..\..\..\..\..\..\Software\uCOS-III\Source/os_flag.c ****             *p_err = OS_ERR_TIMEOUT;
 655              		.loc 1 666 0
 656 0364 7B6D     		ldr	r3, [r7, #84]
 657 0366 2B4A     		ldr	r2, .L56
 658 0368 1A80     		strh	r2, [r3]
 667:..\..\..\..\..\..\Software\uCOS-III\Source/os_flag.c ****              break;
 659              		.loc 1 667 0
 660 036a 1BE0     		b	.L42
 661              	.L39:
 668:..\..\..\..\..\..\Software\uCOS-III\Source/os_flag.c **** 
 669:..\..\..\..\..\..\Software\uCOS-III\Source/os_flag.c ****         case OS_STATUS_PEND_DEL:                                /* Indicate that object pended on h
 670:..\..\..\..\..\..\Software\uCOS-III\Source/os_flag.c **** #if (OS_CFG_TS_EN == DEF_ENABLED)
 671:..\..\..\..\..\..\Software\uCOS-III\Source/os_flag.c ****              if (p_ts != DEF_NULL) {
 662              		.loc 1 671 0
 663 036c 3B6D     		ldr	r3, [r7, #80]
 664 036e 002B     		cmp	r3, #0
 665 0370 04D0     		beq	.L45
 672:..\..\..\..\..\..\Software\uCOS-III\Source/os_flag.c ****                 *p_ts = OSTCBCurPtr->TS;
 666              		.loc 1 672 0
 667 0372 294B     		ldr	r3, .L56+4
 668 0374 1B68     		ldr	r3, [r3]
 669 0376 9A6C     		ldr	r2, [r3, #72]
 670 0378 3B6D     		ldr	r3, [r7, #80]
 671 037a 1A60     		str	r2, [r3]
 672              	.L45:
 673:..\..\..\..\..\..\Software\uCOS-III\Source/os_flag.c ****              }
 674:..\..\..\..\..\..\Software\uCOS-III\Source/os_flag.c **** #endif
 675:..\..\..\..\..\..\Software\uCOS-III\Source/os_flag.c ****              CPU_CRITICAL_EXIT();
 673              		.loc 1 675 0
 674 037c FFF7FEFF 		bl	CPU_IntDisMeasStop
 675 0380 BB6B     		ldr	r3, [r7, #56]
 676 0382 1800     		movs	r0, r3
 677 0384 FFF7FEFF 		bl	CPU_SR_Restore
 676:..\..\..\..\..\..\Software\uCOS-III\Source/os_flag.c **** #if (defined(TRACE_CFG_EN) && (TRACE_CFG_EN == DEF_ENABLED))
 677:..\..\..\..\..\..\Software\uCOS-III\Source/os_flag.c ****              TRACE_OS_FLAG_PEND_FAILED(p_grp);                  /* Record the event.               
 678:..\..\..\..\..\..\Software\uCOS-III\Source/os_flag.c **** #endif
 679:..\..\..\..\..\..\Software\uCOS-III\Source/os_flag.c ****             *p_err = OS_ERR_OBJ_DEL;
 678              		.loc 1 679 0
 679 0388 7B6D     		ldr	r3, [r7, #84]
 680 038a 244A     		ldr	r2, .L56+8
 681 038c 1A80     		strh	r2, [r3]
 680:..\..\..\..\..\..\Software\uCOS-III\Source/os_flag.c ****              break;
 682              		.loc 1 680 0
 683 038e 09E0     		b	.L42
 684              	.L35:
 681:..\..\..\..\..\..\Software\uCOS-III\Source/os_flag.c **** 
 682:..\..\..\..\..\..\Software\uCOS-III\Source/os_flag.c ****         default:
ARM GAS  C:\Users\ADMINI~1\AppData\Local\Temp\cc0ImMof.s 			page 25


 683:..\..\..\..\..\..\Software\uCOS-III\Source/os_flag.c ****              CPU_CRITICAL_EXIT();
 685              		.loc 1 683 0
 686 0390 FFF7FEFF 		bl	CPU_IntDisMeasStop
 687 0394 BB6B     		ldr	r3, [r7, #56]
 688 0396 1800     		movs	r0, r3
 689 0398 FFF7FEFF 		bl	CPU_SR_Restore
 684:..\..\..\..\..\..\Software\uCOS-III\Source/os_flag.c **** #if (defined(TRACE_CFG_EN) && (TRACE_CFG_EN == DEF_ENABLED))
 685:..\..\..\..\..\..\Software\uCOS-III\Source/os_flag.c ****              TRACE_OS_FLAG_PEND_FAILED(p_grp);                  /* Record the event.               
 686:..\..\..\..\..\..\Software\uCOS-III\Source/os_flag.c **** #endif
 687:..\..\..\..\..\..\Software\uCOS-III\Source/os_flag.c ****             *p_err = OS_ERR_STATUS_INVALID;
 690              		.loc 1 687 0
 691 039c 7B6D     		ldr	r3, [r7, #84]
 692 039e 204A     		ldr	r2, .L56+12
 693 03a0 1A80     		strh	r2, [r3]
 688:..\..\..\..\..\..\Software\uCOS-III\Source/os_flag.c ****              break;
 694              		.loc 1 688 0
 695 03a2 C046     		nop
 696              	.L42:
 689:..\..\..\..\..\..\Software\uCOS-III\Source/os_flag.c ****     }
 690:..\..\..\..\..\..\Software\uCOS-III\Source/os_flag.c ****     if (*p_err != OS_ERR_NONE) {
 697              		.loc 1 690 0
 698 03a4 7B6D     		ldr	r3, [r7, #84]
 699 03a6 1B88     		ldrh	r3, [r3]
 700 03a8 002B     		cmp	r3, #0
 701 03aa 01D0     		beq	.L46
 691:..\..\..\..\..\..\Software\uCOS-III\Source/os_flag.c ****         return (0u);
 702              		.loc 1 691 0
 703 03ac 0023     		movs	r3, #0
 704 03ae 2DE0     		b	.L50
 705              	.L46:
 692:..\..\..\..\..\..\Software\uCOS-III\Source/os_flag.c ****     }
 693:..\..\..\..\..\..\Software\uCOS-III\Source/os_flag.c **** 
 694:..\..\..\..\..\..\Software\uCOS-III\Source/os_flag.c ****     flags_rdy = OSTCBCurPtr->FlagsRdy;
 706              		.loc 1 694 0
 707 03b0 194B     		ldr	r3, .L56+4
 708 03b2 1B68     		ldr	r3, [r3]
 709 03b4 8022     		movs	r2, #128
 710 03b6 9B58     		ldr	r3, [r3, r2]
 711 03b8 3B63     		str	r3, [r7, #48]
 695:..\..\..\..\..\..\Software\uCOS-III\Source/os_flag.c ****     if (consume == DEF_TRUE) {                                  /* See if we need to consume the fl
 712              		.loc 1 695 0
 713 03ba 3F23     		movs	r3, #63
 714 03bc FB18     		adds	r3, r7, r3
 715 03be 1B78     		ldrb	r3, [r3]
 716 03c0 012B     		cmp	r3, #1
 717 03c2 19D1     		bne	.L47
 696:..\..\..\..\..\..\Software\uCOS-III\Source/os_flag.c ****         switch (mode) {
 718              		.loc 1 696 0
 719 03c4 3623     		movs	r3, #54
 720 03c6 FB18     		adds	r3, r7, r3
 721 03c8 1B88     		ldrh	r3, [r3]
 722 03ca 042B     		cmp	r3, #4
 723 03cc 01D0     		beq	.L49
 724 03ce 082B     		cmp	r3, #8
 725 03d0 07D1     		bne	.L52
 726              	.L49:
 697:..\..\..\..\..\..\Software\uCOS-III\Source/os_flag.c ****             case OS_OPT_PEND_FLAG_SET_ALL:
ARM GAS  C:\Users\ADMINI~1\AppData\Local\Temp\cc0ImMof.s 			page 26


 698:..\..\..\..\..\..\Software\uCOS-III\Source/os_flag.c ****             case OS_OPT_PEND_FLAG_SET_ANY:                      /* Clear ONLY the flags we got     
 699:..\..\..\..\..\..\Software\uCOS-III\Source/os_flag.c ****                  p_grp->Flags &= ~flags_rdy;
 727              		.loc 1 699 0
 728 03d2 FB68     		ldr	r3, [r7, #12]
 729 03d4 1B6A     		ldr	r3, [r3, #32]
 730 03d6 3A6B     		ldr	r2, [r7, #48]
 731 03d8 D243     		mvns	r2, r2
 732 03da 1A40     		ands	r2, r3
 733 03dc FB68     		ldr	r3, [r7, #12]
 734 03de 1A62     		str	r2, [r3, #32]
 700:..\..\..\..\..\..\Software\uCOS-III\Source/os_flag.c ****                  break;
 735              		.loc 1 700 0
 736 03e0 0AE0     		b	.L47
 737              	.L52:
 701:..\..\..\..\..\..\Software\uCOS-III\Source/os_flag.c **** 
 702:..\..\..\..\..\..\Software\uCOS-III\Source/os_flag.c **** #if (OS_CFG_FLAG_MODE_CLR_EN == DEF_ENABLED)
 703:..\..\..\..\..\..\Software\uCOS-III\Source/os_flag.c ****             case OS_OPT_PEND_FLAG_CLR_ALL:
 704:..\..\..\..\..\..\Software\uCOS-III\Source/os_flag.c ****             case OS_OPT_PEND_FLAG_CLR_ANY:                      /* Set   ONLY the flags we got     
 705:..\..\..\..\..\..\Software\uCOS-III\Source/os_flag.c ****                  p_grp->Flags |=  flags_rdy;
 706:..\..\..\..\..\..\Software\uCOS-III\Source/os_flag.c ****                  break;
 707:..\..\..\..\..\..\Software\uCOS-III\Source/os_flag.c **** #endif
 708:..\..\..\..\..\..\Software\uCOS-III\Source/os_flag.c ****             default:
 709:..\..\..\..\..\..\Software\uCOS-III\Source/os_flag.c ****                  CPU_CRITICAL_EXIT();
 738              		.loc 1 709 0
 739 03e2 FFF7FEFF 		bl	CPU_IntDisMeasStop
 740 03e6 BB6B     		ldr	r3, [r7, #56]
 741 03e8 1800     		movs	r0, r3
 742 03ea FFF7FEFF 		bl	CPU_SR_Restore
 710:..\..\..\..\..\..\Software\uCOS-III\Source/os_flag.c ****                 *p_err = OS_ERR_OPT_INVALID;
 743              		.loc 1 710 0
 744 03ee 7B6D     		ldr	r3, [r7, #84]
 745 03f0 0C4A     		ldr	r2, .L56+16
 746 03f2 1A80     		strh	r2, [r3]
 711:..\..\..\..\..\..\Software\uCOS-III\Source/os_flag.c ****                  return (0u);
 747              		.loc 1 711 0
 748 03f4 0023     		movs	r3, #0
 749 03f6 09E0     		b	.L50
 750              	.L47:
 712:..\..\..\..\..\..\Software\uCOS-III\Source/os_flag.c ****         }
 713:..\..\..\..\..\..\Software\uCOS-III\Source/os_flag.c ****     }
 714:..\..\..\..\..\..\Software\uCOS-III\Source/os_flag.c ****     CPU_CRITICAL_EXIT();
 751              		.loc 1 714 0
 752 03f8 FFF7FEFF 		bl	CPU_IntDisMeasStop
 753 03fc BB6B     		ldr	r3, [r7, #56]
 754 03fe 1800     		movs	r0, r3
 755 0400 FFF7FEFF 		bl	CPU_SR_Restore
 715:..\..\..\..\..\..\Software\uCOS-III\Source/os_flag.c ****    *p_err = OS_ERR_NONE;                                        /* Event(s) must have occurred     
 756              		.loc 1 715 0
 757 0404 7B6D     		ldr	r3, [r7, #84]
 758 0406 0022     		movs	r2, #0
 759 0408 1A80     		strh	r2, [r3]
 716:..\..\..\..\..\..\Software\uCOS-III\Source/os_flag.c ****     return (flags_rdy);
 760              		.loc 1 716 0
 761 040a 3B6B     		ldr	r3, [r7, #48]
 762              	.L50:
 717:..\..\..\..\..\..\Software\uCOS-III\Source/os_flag.c **** }
 763              		.loc 1 717 0 discriminator 1
ARM GAS  C:\Users\ADMINI~1\AppData\Local\Temp\cc0ImMof.s 			page 27


 764 040c 1800     		movs	r0, r3
 765 040e BD46     		mov	sp, r7
 766 0410 11B0     		add	sp, sp, #68
 767              		@ sp needed
 768 0412 90BD     		pop	{r4, r7, pc}
 769              	.L57:
 770              		.align	2
 771              	.L56:
 772 0414 D9720000 		.word	29401
 773 0418 00000000 		.word	OSTCBCurPtr
 774 041c C25D0000 		.word	24002
 775 0420 2E6E0000 		.word	28206
 776 0424 255E0000 		.word	24101
 777              		.cfi_endproc
 778              	.LFE1:
 779              		.size	OSFlagPend, .-OSFlagPend
 780              		.section	.text.OSFlagPendGetFlagsRdy,"ax",%progbits
 781              		.align	2
 782              		.global	OSFlagPendGetFlagsRdy
 783              		.code	16
 784              		.thumb_func
 785              		.type	OSFlagPendGetFlagsRdy, %function
 786              	OSFlagPendGetFlagsRdy:
 787              	.LFB2:
 718:..\..\..\..\..\..\Software\uCOS-III\Source/os_flag.c **** 
 719:..\..\..\..\..\..\Software\uCOS-III\Source/os_flag.c **** 
 720:..\..\..\..\..\..\Software\uCOS-III\Source/os_flag.c **** /*
 721:..\..\..\..\..\..\Software\uCOS-III\Source/os_flag.c **** ***************************************************************************************************
 722:..\..\..\..\..\..\Software\uCOS-III\Source/os_flag.c **** *                                          ABORT WAITING ON AN EVENT FLAG GROUP
 723:..\..\..\..\..\..\Software\uCOS-III\Source/os_flag.c **** *
 724:..\..\..\..\..\..\Software\uCOS-III\Source/os_flag.c **** * Description: This function aborts & readies any tasks currently waiting on an event flag group.  
 725:..\..\..\..\..\..\Software\uCOS-III\Source/os_flag.c **** *              be used to fault-abort the wait on the event flag group, rather than to normally pos
 726:..\..\..\..\..\..\Software\uCOS-III\Source/os_flag.c **** *              group OSFlagPost().
 727:..\..\..\..\..\..\Software\uCOS-III\Source/os_flag.c **** *
 728:..\..\..\..\..\..\Software\uCOS-III\Source/os_flag.c **** * Arguments  : p_grp     is a pointer to the event flag group
 729:..\..\..\..\..\..\Software\uCOS-III\Source/os_flag.c **** *
 730:..\..\..\..\..\..\Software\uCOS-III\Source/os_flag.c **** *              opt       determines the type of ABORT performed:
 731:..\..\..\..\..\..\Software\uCOS-III\Source/os_flag.c **** *
 732:..\..\..\..\..\..\Software\uCOS-III\Source/os_flag.c **** *                            OS_OPT_PEND_ABORT_1          ABORT wait for a single task (HPT) waitin
 733:..\..\..\..\..\..\Software\uCOS-III\Source/os_flag.c **** *                            OS_OPT_PEND_ABORT_ALL        ABORT wait for ALL tasks that are  waitin
 734:..\..\..\..\..\..\Software\uCOS-III\Source/os_flag.c **** *                            OS_OPT_POST_NO_SCHED         Do not call the scheduler
 735:..\..\..\..\..\..\Software\uCOS-III\Source/os_flag.c **** *
 736:..\..\..\..\..\..\Software\uCOS-III\Source/os_flag.c **** *              p_err     is a pointer to a variable that will contain an error code returned by thi
 737:..\..\..\..\..\..\Software\uCOS-III\Source/os_flag.c **** *
 738:..\..\..\..\..\..\Software\uCOS-III\Source/os_flag.c **** *                            OS_ERR_NONE                  At least one task waiting on the event fl
 739:..\..\..\..\..\..\Software\uCOS-III\Source/os_flag.c **** *                                                         readied and informed of the aborted wait;
 740:..\..\..\..\..\..\Software\uCOS-III\Source/os_flag.c **** *                                                         for the number of tasks whose wait on the
 741:..\..\..\..\..\..\Software\uCOS-III\Source/os_flag.c **** *                                                         was aborted
 742:..\..\..\..\..\..\Software\uCOS-III\Source/os_flag.c **** *                            OS_ERR_OBJ_PTR_NULL          If 'p_grp' is a NULL pointer
 743:..\..\..\..\..\..\Software\uCOS-III\Source/os_flag.c **** *                            OS_ERR_OBJ_TYPE              If 'p_grp' is not pointing at an event fl
 744:..\..\..\..\..\..\Software\uCOS-III\Source/os_flag.c **** *                            OS_ERR_OPT_INVALID           If you specified an invalid option
 745:..\..\..\..\..\..\Software\uCOS-III\Source/os_flag.c **** *                            OS_ERR_OS_NOT_RUNNING        If uC/OS-III is not running yet
 746:..\..\..\..\..\..\Software\uCOS-III\Source/os_flag.c **** *                            OS_ERR_PEND_ABORT_ISR        If you called this function from an ISR
 747:..\..\..\..\..\..\Software\uCOS-III\Source/os_flag.c **** *                            OS_ERR_PEND_ABORT_NONE       No task were pending
 748:..\..\..\..\..\..\Software\uCOS-III\Source/os_flag.c **** *
 749:..\..\..\..\..\..\Software\uCOS-III\Source/os_flag.c **** * Returns    : == 0          if no tasks were waiting on the event flag group, or upon error.
 750:..\..\..\..\..\..\Software\uCOS-III\Source/os_flag.c **** *              >  0          if one or more tasks waiting on the event flag group are now readied a
ARM GAS  C:\Users\ADMINI~1\AppData\Local\Temp\cc0ImMof.s 			page 28


 751:..\..\..\..\..\..\Software\uCOS-III\Source/os_flag.c **** *
 752:..\..\..\..\..\..\Software\uCOS-III\Source/os_flag.c **** * Note(s)    : none
 753:..\..\..\..\..\..\Software\uCOS-III\Source/os_flag.c **** ***************************************************************************************************
 754:..\..\..\..\..\..\Software\uCOS-III\Source/os_flag.c **** */
 755:..\..\..\..\..\..\Software\uCOS-III\Source/os_flag.c **** 
 756:..\..\..\..\..\..\Software\uCOS-III\Source/os_flag.c **** #if (OS_CFG_FLAG_PEND_ABORT_EN == DEF_ENABLED)
 757:..\..\..\..\..\..\Software\uCOS-III\Source/os_flag.c **** OS_OBJ_QTY  OSFlagPendAbort (OS_FLAG_GRP  *p_grp,
 758:..\..\..\..\..\..\Software\uCOS-III\Source/os_flag.c ****                              OS_OPT        opt,
 759:..\..\..\..\..\..\Software\uCOS-III\Source/os_flag.c ****                              OS_ERR       *p_err)
 760:..\..\..\..\..\..\Software\uCOS-III\Source/os_flag.c **** {
 761:..\..\..\..\..\..\Software\uCOS-III\Source/os_flag.c ****     OS_PEND_LIST  *p_pend_list;
 762:..\..\..\..\..\..\Software\uCOS-III\Source/os_flag.c ****     OS_TCB        *p_tcb;
 763:..\..\..\..\..\..\Software\uCOS-III\Source/os_flag.c ****     CPU_TS         ts;
 764:..\..\..\..\..\..\Software\uCOS-III\Source/os_flag.c ****     OS_OBJ_QTY     nbr_tasks;
 765:..\..\..\..\..\..\Software\uCOS-III\Source/os_flag.c ****     CPU_SR_ALLOC();
 766:..\..\..\..\..\..\Software\uCOS-III\Source/os_flag.c **** 
 767:..\..\..\..\..\..\Software\uCOS-III\Source/os_flag.c **** 
 768:..\..\..\..\..\..\Software\uCOS-III\Source/os_flag.c **** 
 769:..\..\..\..\..\..\Software\uCOS-III\Source/os_flag.c **** #ifdef OS_SAFETY_CRITICAL
 770:..\..\..\..\..\..\Software\uCOS-III\Source/os_flag.c ****     if (p_err == DEF_NULL) {
 771:..\..\..\..\..\..\Software\uCOS-III\Source/os_flag.c ****         OS_SAFETY_CRITICAL_EXCEPTION();
 772:..\..\..\..\..\..\Software\uCOS-III\Source/os_flag.c ****         return ((OS_OBJ_QTY)0u);
 773:..\..\..\..\..\..\Software\uCOS-III\Source/os_flag.c ****     }
 774:..\..\..\..\..\..\Software\uCOS-III\Source/os_flag.c **** #endif
 775:..\..\..\..\..\..\Software\uCOS-III\Source/os_flag.c **** 
 776:..\..\..\..\..\..\Software\uCOS-III\Source/os_flag.c **** #if (OS_CFG_CALLED_FROM_ISR_CHK_EN == DEF_ENABLED)
 777:..\..\..\..\..\..\Software\uCOS-III\Source/os_flag.c ****     if (OSIntNestingCtr > 0u) {                                 /* Not allowed to Pend Abort from a
 778:..\..\..\..\..\..\Software\uCOS-III\Source/os_flag.c ****        *p_err = OS_ERR_PEND_ABORT_ISR;
 779:..\..\..\..\..\..\Software\uCOS-III\Source/os_flag.c ****         return (0u);
 780:..\..\..\..\..\..\Software\uCOS-III\Source/os_flag.c ****     }
 781:..\..\..\..\..\..\Software\uCOS-III\Source/os_flag.c **** #endif
 782:..\..\..\..\..\..\Software\uCOS-III\Source/os_flag.c **** 
 783:..\..\..\..\..\..\Software\uCOS-III\Source/os_flag.c **** #if (OS_CFG_INVALID_OS_CALLS_CHK_EN == DEF_ENABLED)             /* Is the kernel running?          
 784:..\..\..\..\..\..\Software\uCOS-III\Source/os_flag.c ****     if (OSRunning != OS_STATE_OS_RUNNING) {
 785:..\..\..\..\..\..\Software\uCOS-III\Source/os_flag.c ****        *p_err = OS_ERR_OS_NOT_RUNNING;
 786:..\..\..\..\..\..\Software\uCOS-III\Source/os_flag.c ****         return (0u);
 787:..\..\..\..\..\..\Software\uCOS-III\Source/os_flag.c ****     }
 788:..\..\..\..\..\..\Software\uCOS-III\Source/os_flag.c **** #endif
 789:..\..\..\..\..\..\Software\uCOS-III\Source/os_flag.c **** 
 790:..\..\..\..\..\..\Software\uCOS-III\Source/os_flag.c **** #if (OS_CFG_ARG_CHK_EN == DEF_ENABLED)
 791:..\..\..\..\..\..\Software\uCOS-III\Source/os_flag.c ****     if (p_grp == DEF_NULL) {                                    /* Validate 'p_grp'                
 792:..\..\..\..\..\..\Software\uCOS-III\Source/os_flag.c ****        *p_err  =  OS_ERR_OBJ_PTR_NULL;
 793:..\..\..\..\..\..\Software\uCOS-III\Source/os_flag.c ****         return (0u);
 794:..\..\..\..\..\..\Software\uCOS-III\Source/os_flag.c ****     }
 795:..\..\..\..\..\..\Software\uCOS-III\Source/os_flag.c ****     switch (opt) {                                              /* Validate 'opt'                  
 796:..\..\..\..\..\..\Software\uCOS-III\Source/os_flag.c ****         case OS_OPT_PEND_ABORT_1:
 797:..\..\..\..\..\..\Software\uCOS-III\Source/os_flag.c ****         case OS_OPT_PEND_ABORT_ALL:
 798:..\..\..\..\..\..\Software\uCOS-III\Source/os_flag.c ****         case OS_OPT_PEND_ABORT_1   | OS_OPT_POST_NO_SCHED:
 799:..\..\..\..\..\..\Software\uCOS-III\Source/os_flag.c ****         case OS_OPT_PEND_ABORT_ALL | OS_OPT_POST_NO_SCHED:
 800:..\..\..\..\..\..\Software\uCOS-III\Source/os_flag.c ****              break;
 801:..\..\..\..\..\..\Software\uCOS-III\Source/os_flag.c **** 
 802:..\..\..\..\..\..\Software\uCOS-III\Source/os_flag.c ****         default:
 803:..\..\..\..\..\..\Software\uCOS-III\Source/os_flag.c ****             *p_err = OS_ERR_OPT_INVALID;
 804:..\..\..\..\..\..\Software\uCOS-III\Source/os_flag.c ****              return (0u);
 805:..\..\..\..\..\..\Software\uCOS-III\Source/os_flag.c ****     }
 806:..\..\..\..\..\..\Software\uCOS-III\Source/os_flag.c **** #endif
 807:..\..\..\..\..\..\Software\uCOS-III\Source/os_flag.c **** 
ARM GAS  C:\Users\ADMINI~1\AppData\Local\Temp\cc0ImMof.s 			page 29


 808:..\..\..\..\..\..\Software\uCOS-III\Source/os_flag.c **** #if (OS_CFG_OBJ_TYPE_CHK_EN == DEF_ENABLED)
 809:..\..\..\..\..\..\Software\uCOS-III\Source/os_flag.c ****     if (p_grp->Type != OS_OBJ_TYPE_FLAG) {                      /* Make sure event flag group was c
 810:..\..\..\..\..\..\Software\uCOS-III\Source/os_flag.c ****        *p_err = OS_ERR_OBJ_TYPE;
 811:..\..\..\..\..\..\Software\uCOS-III\Source/os_flag.c ****         return (0u);
 812:..\..\..\..\..\..\Software\uCOS-III\Source/os_flag.c ****     }
 813:..\..\..\..\..\..\Software\uCOS-III\Source/os_flag.c **** #endif
 814:..\..\..\..\..\..\Software\uCOS-III\Source/os_flag.c **** 
 815:..\..\..\..\..\..\Software\uCOS-III\Source/os_flag.c ****     CPU_CRITICAL_ENTER();
 816:..\..\..\..\..\..\Software\uCOS-III\Source/os_flag.c ****     p_pend_list = &p_grp->PendList;
 817:..\..\..\..\..\..\Software\uCOS-III\Source/os_flag.c ****     if (p_pend_list->HeadPtr == DEF_NULL) {                     /* Any task waiting on flag group? 
 818:..\..\..\..\..\..\Software\uCOS-III\Source/os_flag.c ****         CPU_CRITICAL_EXIT();                                    /* No                              
 819:..\..\..\..\..\..\Software\uCOS-III\Source/os_flag.c ****        *p_err = OS_ERR_PEND_ABORT_NONE;
 820:..\..\..\..\..\..\Software\uCOS-III\Source/os_flag.c ****         return (0u);
 821:..\..\..\..\..\..\Software\uCOS-III\Source/os_flag.c ****     }
 822:..\..\..\..\..\..\Software\uCOS-III\Source/os_flag.c **** 
 823:..\..\..\..\..\..\Software\uCOS-III\Source/os_flag.c ****     OS_CRITICAL_ENTER_CPU_EXIT();
 824:..\..\..\..\..\..\Software\uCOS-III\Source/os_flag.c ****     nbr_tasks = 0u;
 825:..\..\..\..\..\..\Software\uCOS-III\Source/os_flag.c **** #if (OS_CFG_TS_EN == DEF_ENABLED)
 826:..\..\..\..\..\..\Software\uCOS-III\Source/os_flag.c ****     ts        = OS_TS_GET();                                    /* Get local time stamp so all task
 827:..\..\..\..\..\..\Software\uCOS-III\Source/os_flag.c **** #else
 828:..\..\..\..\..\..\Software\uCOS-III\Source/os_flag.c ****     ts        = 0u;
 829:..\..\..\..\..\..\Software\uCOS-III\Source/os_flag.c **** #endif
 830:..\..\..\..\..\..\Software\uCOS-III\Source/os_flag.c **** 
 831:..\..\..\..\..\..\Software\uCOS-III\Source/os_flag.c ****     while (p_pend_list->HeadPtr != DEF_NULL) {
 832:..\..\..\..\..\..\Software\uCOS-III\Source/os_flag.c ****         p_tcb = p_pend_list->HeadPtr->TCBPtr;
 833:..\..\..\..\..\..\Software\uCOS-III\Source/os_flag.c ****         OS_PendAbort((OS_PEND_OBJ *)((void *)p_grp),
 834:..\..\..\..\..\..\Software\uCOS-III\Source/os_flag.c ****                      p_tcb,
 835:..\..\..\..\..\..\Software\uCOS-III\Source/os_flag.c ****                      ts);
 836:..\..\..\..\..\..\Software\uCOS-III\Source/os_flag.c ****         nbr_tasks++;
 837:..\..\..\..\..\..\Software\uCOS-III\Source/os_flag.c ****         if (opt != OS_OPT_PEND_ABORT_ALL) {                     /* Pend abort all tasks waiting?   
 838:..\..\..\..\..\..\Software\uCOS-III\Source/os_flag.c ****             break;                                              /* No                              
 839:..\..\..\..\..\..\Software\uCOS-III\Source/os_flag.c ****         }
 840:..\..\..\..\..\..\Software\uCOS-III\Source/os_flag.c ****     }
 841:..\..\..\..\..\..\Software\uCOS-III\Source/os_flag.c ****     OS_CRITICAL_EXIT_NO_SCHED();
 842:..\..\..\..\..\..\Software\uCOS-III\Source/os_flag.c **** 
 843:..\..\..\..\..\..\Software\uCOS-III\Source/os_flag.c ****     if ((opt & OS_OPT_POST_NO_SCHED) == 0u) {
 844:..\..\..\..\..\..\Software\uCOS-III\Source/os_flag.c ****         OSSched();                                              /* Run the scheduler               
 845:..\..\..\..\..\..\Software\uCOS-III\Source/os_flag.c ****     }
 846:..\..\..\..\..\..\Software\uCOS-III\Source/os_flag.c **** 
 847:..\..\..\..\..\..\Software\uCOS-III\Source/os_flag.c ****    *p_err = OS_ERR_NONE;
 848:..\..\..\..\..\..\Software\uCOS-III\Source/os_flag.c ****     return (nbr_tasks);
 849:..\..\..\..\..\..\Software\uCOS-III\Source/os_flag.c **** }
 850:..\..\..\..\..\..\Software\uCOS-III\Source/os_flag.c **** #endif
 851:..\..\..\..\..\..\Software\uCOS-III\Source/os_flag.c **** 
 852:..\..\..\..\..\..\Software\uCOS-III\Source/os_flag.c **** 
 853:..\..\..\..\..\..\Software\uCOS-III\Source/os_flag.c **** /*
 854:..\..\..\..\..\..\Software\uCOS-III\Source/os_flag.c **** ***************************************************************************************************
 855:..\..\..\..\..\..\Software\uCOS-III\Source/os_flag.c **** *                                       GET FLAGS WHO CAUSED TASK TO BECOME READY
 856:..\..\..\..\..\..\Software\uCOS-III\Source/os_flag.c **** *
 857:..\..\..\..\..\..\Software\uCOS-III\Source/os_flag.c **** * Description: This function is called to obtain the flags that caused the task to become ready to 
 858:..\..\..\..\..\..\Software\uCOS-III\Source/os_flag.c **** *              In other words, this function allows you to tell "Who done it!".
 859:..\..\..\..\..\..\Software\uCOS-III\Source/os_flag.c **** *
 860:..\..\..\..\..\..\Software\uCOS-III\Source/os_flag.c **** * Arguments  : p_err     is a pointer to an error code
 861:..\..\..\..\..\..\Software\uCOS-III\Source/os_flag.c **** *
 862:..\..\..\..\..\..\Software\uCOS-III\Source/os_flag.c **** *                            OS_ERR_NONE              If the call was successful
 863:..\..\..\..\..\..\Software\uCOS-III\Source/os_flag.c **** *                            OS_ERR_OS_NOT_RUNNING    If uC/OS-III is not running yet
 864:..\..\..\..\..\..\Software\uCOS-III\Source/os_flag.c **** *                            OS_ERR_PEND_ISR          If called from an ISR
ARM GAS  C:\Users\ADMINI~1\AppData\Local\Temp\cc0ImMof.s 			page 30


 865:..\..\..\..\..\..\Software\uCOS-III\Source/os_flag.c **** *
 866:..\..\..\..\..\..\Software\uCOS-III\Source/os_flag.c **** * Returns    : The flags that caused the task to be ready.
 867:..\..\..\..\..\..\Software\uCOS-III\Source/os_flag.c **** *
 868:..\..\..\..\..\..\Software\uCOS-III\Source/os_flag.c **** * Note(s)    : none
 869:..\..\..\..\..\..\Software\uCOS-III\Source/os_flag.c **** ***************************************************************************************************
 870:..\..\..\..\..\..\Software\uCOS-III\Source/os_flag.c **** */
 871:..\..\..\..\..\..\Software\uCOS-III\Source/os_flag.c **** 
 872:..\..\..\..\..\..\Software\uCOS-III\Source/os_flag.c **** OS_FLAGS  OSFlagPendGetFlagsRdy (OS_ERR  *p_err)
 873:..\..\..\..\..\..\Software\uCOS-III\Source/os_flag.c **** {
 788              		.loc 1 873 0
 789              		.cfi_startproc
 790              		@ args = 0, pretend = 0, frame = 16
 791              		@ frame_needed = 1, uses_anonymous_args = 0
 792 0000 80B5     		push	{r7, lr}
 793              		.cfi_def_cfa_offset 8
 794              		.cfi_offset 7, -8
 795              		.cfi_offset 14, -4
 796 0002 84B0     		sub	sp, sp, #16
 797              		.cfi_def_cfa_offset 24
 798 0004 00AF     		add	r7, sp, #0
 799              		.cfi_def_cfa_register 7
 800 0006 7860     		str	r0, [r7, #4]
 874:..\..\..\..\..\..\Software\uCOS-III\Source/os_flag.c ****     OS_FLAGS   flags;
 875:..\..\..\..\..\..\Software\uCOS-III\Source/os_flag.c ****     CPU_SR_ALLOC();
 801              		.loc 1 875 0
 802 0008 0023     		movs	r3, #0
 803 000a FB60     		str	r3, [r7, #12]
 876:..\..\..\..\..\..\Software\uCOS-III\Source/os_flag.c **** 
 877:..\..\..\..\..\..\Software\uCOS-III\Source/os_flag.c **** 
 878:..\..\..\..\..\..\Software\uCOS-III\Source/os_flag.c **** 
 879:..\..\..\..\..\..\Software\uCOS-III\Source/os_flag.c **** #ifdef OS_SAFETY_CRITICAL
 880:..\..\..\..\..\..\Software\uCOS-III\Source/os_flag.c ****     if (p_err == DEF_NULL) {
 881:..\..\..\..\..\..\Software\uCOS-III\Source/os_flag.c ****         OS_SAFETY_CRITICAL_EXCEPTION();
 882:..\..\..\..\..\..\Software\uCOS-III\Source/os_flag.c ****         return ((OS_FLAGS)0);
 883:..\..\..\..\..\..\Software\uCOS-III\Source/os_flag.c ****     }
 884:..\..\..\..\..\..\Software\uCOS-III\Source/os_flag.c **** #endif
 885:..\..\..\..\..\..\Software\uCOS-III\Source/os_flag.c **** 
 886:..\..\..\..\..\..\Software\uCOS-III\Source/os_flag.c **** #if (OS_CFG_INVALID_OS_CALLS_CHK_EN == DEF_ENABLED)             /* Is the kernel running?          
 887:..\..\..\..\..\..\Software\uCOS-III\Source/os_flag.c ****     if (OSRunning != OS_STATE_OS_RUNNING) {
 888:..\..\..\..\..\..\Software\uCOS-III\Source/os_flag.c ****        *p_err = OS_ERR_OS_NOT_RUNNING;
 889:..\..\..\..\..\..\Software\uCOS-III\Source/os_flag.c ****         return (0u);
 890:..\..\..\..\..\..\Software\uCOS-III\Source/os_flag.c ****     }
 891:..\..\..\..\..\..\Software\uCOS-III\Source/os_flag.c **** #endif
 892:..\..\..\..\..\..\Software\uCOS-III\Source/os_flag.c **** 
 893:..\..\..\..\..\..\Software\uCOS-III\Source/os_flag.c **** #if (OS_CFG_CALLED_FROM_ISR_CHK_EN == DEF_ENABLED)
 894:..\..\..\..\..\..\Software\uCOS-III\Source/os_flag.c ****     if (OSIntNestingCtr > 0u) {                                 /* See if called from ISR ...      
 804              		.loc 1 894 0
 805 000c 104B     		ldr	r3, .L61
 806 000e 1B78     		ldrb	r3, [r3]
 807 0010 002B     		cmp	r3, #0
 808 0012 04D0     		beq	.L59
 895:..\..\..\..\..\..\Software\uCOS-III\Source/os_flag.c ****        *p_err = OS_ERR_PEND_ISR;                                /* ... can't get from an ISR       
 809              		.loc 1 895 0
 810 0014 7B68     		ldr	r3, [r7, #4]
 811 0016 0F4A     		ldr	r2, .L61+4
 812 0018 1A80     		strh	r2, [r3]
 896:..\..\..\..\..\..\Software\uCOS-III\Source/os_flag.c ****         return (0u);
ARM GAS  C:\Users\ADMINI~1\AppData\Local\Temp\cc0ImMof.s 			page 31


 813              		.loc 1 896 0
 814 001a 0023     		movs	r3, #0
 815 001c 14E0     		b	.L60
 816              	.L59:
 897:..\..\..\..\..\..\Software\uCOS-III\Source/os_flag.c ****     }
 898:..\..\..\..\..\..\Software\uCOS-III\Source/os_flag.c **** #endif
 899:..\..\..\..\..\..\Software\uCOS-III\Source/os_flag.c **** 
 900:..\..\..\..\..\..\Software\uCOS-III\Source/os_flag.c ****     CPU_CRITICAL_ENTER();
 817              		.loc 1 900 0
 818 001e FFF7FEFF 		bl	CPU_SR_Save
 819 0022 0300     		movs	r3, r0
 820 0024 FB60     		str	r3, [r7, #12]
 821 0026 FFF7FEFF 		bl	CPU_IntDisMeasStart
 901:..\..\..\..\..\..\Software\uCOS-III\Source/os_flag.c ****     flags = OSTCBCurPtr->FlagsRdy;
 822              		.loc 1 901 0
 823 002a 0B4B     		ldr	r3, .L61+8
 824 002c 1B68     		ldr	r3, [r3]
 825 002e 8022     		movs	r2, #128
 826 0030 9B58     		ldr	r3, [r3, r2]
 827 0032 BB60     		str	r3, [r7, #8]
 902:..\..\..\..\..\..\Software\uCOS-III\Source/os_flag.c ****     CPU_CRITICAL_EXIT();
 828              		.loc 1 902 0
 829 0034 FFF7FEFF 		bl	CPU_IntDisMeasStop
 830 0038 FB68     		ldr	r3, [r7, #12]
 831 003a 1800     		movs	r0, r3
 832 003c FFF7FEFF 		bl	CPU_SR_Restore
 903:..\..\..\..\..\..\Software\uCOS-III\Source/os_flag.c ****    *p_err = OS_ERR_NONE;
 833              		.loc 1 903 0
 834 0040 7B68     		ldr	r3, [r7, #4]
 835 0042 0022     		movs	r2, #0
 836 0044 1A80     		strh	r2, [r3]
 904:..\..\..\..\..\..\Software\uCOS-III\Source/os_flag.c ****     return (flags);
 837              		.loc 1 904 0
 838 0046 BB68     		ldr	r3, [r7, #8]
 839              	.L60:
 905:..\..\..\..\..\..\Software\uCOS-III\Source/os_flag.c **** }
 840              		.loc 1 905 0
 841 0048 1800     		movs	r0, r3
 842 004a BD46     		mov	sp, r7
 843 004c 04B0     		add	sp, sp, #16
 844              		@ sp needed
 845 004e 80BD     		pop	{r7, pc}
 846              	.L62:
 847              		.align	2
 848              	.L61:
 849 0050 00000000 		.word	OSIntNestingCtr
 850 0054 AE610000 		.word	25006
 851 0058 00000000 		.word	OSTCBCurPtr
 852              		.cfi_endproc
 853              	.LFE2:
 854              		.size	OSFlagPendGetFlagsRdy, .-OSFlagPendGetFlagsRdy
 855              		.section	.text.OSFlagPost,"ax",%progbits
 856              		.align	2
 857              		.global	OSFlagPost
 858              		.code	16
 859              		.thumb_func
 860              		.type	OSFlagPost, %function
ARM GAS  C:\Users\ADMINI~1\AppData\Local\Temp\cc0ImMof.s 			page 32


 861              	OSFlagPost:
 862              	.LFB3:
 906:..\..\..\..\..\..\Software\uCOS-III\Source/os_flag.c **** 
 907:..\..\..\..\..\..\Software\uCOS-III\Source/os_flag.c **** 
 908:..\..\..\..\..\..\Software\uCOS-III\Source/os_flag.c **** /*
 909:..\..\..\..\..\..\Software\uCOS-III\Source/os_flag.c **** ***************************************************************************************************
 910:..\..\..\..\..\..\Software\uCOS-III\Source/os_flag.c **** *                                                POST EVENT FLAG BIT(S)
 911:..\..\..\..\..\..\Software\uCOS-III\Source/os_flag.c **** *
 912:..\..\..\..\..\..\Software\uCOS-III\Source/os_flag.c **** * Description: This function is called to set or clear some bits in an event flag group.  The bits 
 913:..\..\..\..\..\..\Software\uCOS-III\Source/os_flag.c **** *              specified by a 'bit mask'.
 914:..\..\..\..\..\..\Software\uCOS-III\Source/os_flag.c **** *
 915:..\..\..\..\..\..\Software\uCOS-III\Source/os_flag.c **** * Arguments  : p_grp         is a pointer to the desired event flag group.
 916:..\..\..\..\..\..\Software\uCOS-III\Source/os_flag.c **** *
 917:..\..\..\..\..\..\Software\uCOS-III\Source/os_flag.c **** *              flags         If 'opt' (see below) is OS_OPT_POST_FLAG_SET, each bit that is set in 
 918:..\..\..\..\..\..\Software\uCOS-III\Source/os_flag.c **** *                            set the corresponding bit in the event flag group.  e.g. to set bits 0
 919:..\..\..\..\..\..\Software\uCOS-III\Source/os_flag.c **** *                            and 5 you would set 'flags' to:
 920:..\..\..\..\..\..\Software\uCOS-III\Source/os_flag.c **** *
 921:..\..\..\..\..\..\Software\uCOS-III\Source/os_flag.c **** *                                0x31     (note, bit 0 is least significant bit)
 922:..\..\..\..\..\..\Software\uCOS-III\Source/os_flag.c **** *
 923:..\..\..\..\..\..\Software\uCOS-III\Source/os_flag.c **** *                            If 'opt' (see below) is OS_OPT_POST_FLAG_CLR, each bit that is set in 
 924:..\..\..\..\..\..\Software\uCOS-III\Source/os_flag.c **** *                            CLEAR the corresponding bit in the event flag group.  e.g. to clear bi
 925:..\..\..\..\..\..\Software\uCOS-III\Source/os_flag.c **** *                            4 and 5 you would specify 'flags' as:
 926:..\..\..\..\..\..\Software\uCOS-III\Source/os_flag.c **** *
 927:..\..\..\..\..\..\Software\uCOS-III\Source/os_flag.c **** *                                0x31     (note, bit 0 is least significant bit)
 928:..\..\..\..\..\..\Software\uCOS-III\Source/os_flag.c **** *
 929:..\..\..\..\..\..\Software\uCOS-III\Source/os_flag.c **** *              opt           indicates whether the flags will be:
 930:..\..\..\..\..\..\Software\uCOS-III\Source/os_flag.c **** *
 931:..\..\..\..\..\..\Software\uCOS-III\Source/os_flag.c **** *                                OS_OPT_POST_FLAG_SET       set
 932:..\..\..\..\..\..\Software\uCOS-III\Source/os_flag.c **** *                                OS_OPT_POST_FLAG_CLR       cleared
 933:..\..\..\..\..\..\Software\uCOS-III\Source/os_flag.c **** *
 934:..\..\..\..\..\..\Software\uCOS-III\Source/os_flag.c **** *                            you can also 'add' OS_OPT_POST_NO_SCHED to prevent the scheduler from 
 935:..\..\..\..\..\..\Software\uCOS-III\Source/os_flag.c **** *
 936:..\..\..\..\..\..\Software\uCOS-III\Source/os_flag.c **** *              p_err         is a pointer to an error code and can be:
 937:..\..\..\..\..\..\Software\uCOS-III\Source/os_flag.c **** *
 938:..\..\..\..\..\..\Software\uCOS-III\Source/os_flag.c **** *                                OS_ERR_NONE                The call was successful
 939:..\..\..\..\..\..\Software\uCOS-III\Source/os_flag.c **** *                                OS_ERR_INT_Q_FULL          If the deferred interrupt post queue is
 940:..\..\..\..\..\..\Software\uCOS-III\Source/os_flag.c **** *                                OS_ERR_OBJ_PTR_NULL        You passed a NULL pointer
 941:..\..\..\..\..\..\Software\uCOS-III\Source/os_flag.c **** *                                OS_ERR_OBJ_TYPE            You are not pointing to an event flag g
 942:..\..\..\..\..\..\Software\uCOS-III\Source/os_flag.c **** *                                OS_ERR_OPT_INVALID         You specified an invalid option
 943:..\..\..\..\..\..\Software\uCOS-III\Source/os_flag.c **** *                                OS_ERR_OS_NOT_RUNNING      If uC/OS-III is not running yet
 944:..\..\..\..\..\..\Software\uCOS-III\Source/os_flag.c **** *
 945:..\..\..\..\..\..\Software\uCOS-III\Source/os_flag.c **** * Returns    : the new value of the event flags bits that are still set.
 946:..\..\..\..\..\..\Software\uCOS-III\Source/os_flag.c **** *
 947:..\..\..\..\..\..\Software\uCOS-III\Source/os_flag.c **** * Note(s)    : 1) The execution time of this function depends on the number of tasks waiting on the
 948:..\..\..\..\..\..\Software\uCOS-III\Source/os_flag.c **** ***************************************************************************************************
 949:..\..\..\..\..\..\Software\uCOS-III\Source/os_flag.c **** */
 950:..\..\..\..\..\..\Software\uCOS-III\Source/os_flag.c **** 
 951:..\..\..\..\..\..\Software\uCOS-III\Source/os_flag.c **** OS_FLAGS  OSFlagPost (OS_FLAG_GRP  *p_grp,
 952:..\..\..\..\..\..\Software\uCOS-III\Source/os_flag.c ****                       OS_FLAGS      flags,
 953:..\..\..\..\..\..\Software\uCOS-III\Source/os_flag.c ****                       OS_OPT        opt,
 954:..\..\..\..\..\..\Software\uCOS-III\Source/os_flag.c ****                       OS_ERR       *p_err)
 955:..\..\..\..\..\..\Software\uCOS-III\Source/os_flag.c **** {
 863              		.loc 1 955 0
 864              		.cfi_startproc
 865              		@ args = 0, pretend = 0, frame = 24
 866              		@ frame_needed = 1, uses_anonymous_args = 0
 867 0000 90B5     		push	{r4, r7, lr}
ARM GAS  C:\Users\ADMINI~1\AppData\Local\Temp\cc0ImMof.s 			page 33


 868              		.cfi_def_cfa_offset 12
 869              		.cfi_offset 4, -12
 870              		.cfi_offset 7, -8
 871              		.cfi_offset 14, -4
 872 0002 89B0     		sub	sp, sp, #36
 873              		.cfi_def_cfa_offset 48
 874 0004 02AF     		add	r7, sp, #8
 875              		.cfi_def_cfa 7, 40
 876 0006 F860     		str	r0, [r7, #12]
 877 0008 B960     		str	r1, [r7, #8]
 878 000a 3B60     		str	r3, [r7]
 879 000c BB1D     		adds	r3, r7, #6
 880 000e 1A80     		strh	r2, [r3]
 956:..\..\..\..\..\..\Software\uCOS-III\Source/os_flag.c ****     OS_FLAGS  flags_cur;
 957:..\..\..\..\..\..\Software\uCOS-III\Source/os_flag.c ****     CPU_TS    ts;
 958:..\..\..\..\..\..\Software\uCOS-III\Source/os_flag.c **** 
 959:..\..\..\..\..\..\Software\uCOS-III\Source/os_flag.c **** 
 960:..\..\..\..\..\..\Software\uCOS-III\Source/os_flag.c **** 
 961:..\..\..\..\..\..\Software\uCOS-III\Source/os_flag.c **** #ifdef OS_SAFETY_CRITICAL
 962:..\..\..\..\..\..\Software\uCOS-III\Source/os_flag.c ****     if (p_err == DEF_NULL) {
 963:..\..\..\..\..\..\Software\uCOS-III\Source/os_flag.c ****         OS_SAFETY_CRITICAL_EXCEPTION();
 964:..\..\..\..\..\..\Software\uCOS-III\Source/os_flag.c ****         return (0u);
 965:..\..\..\..\..\..\Software\uCOS-III\Source/os_flag.c ****     }
 966:..\..\..\..\..\..\Software\uCOS-III\Source/os_flag.c **** #endif
 967:..\..\..\..\..\..\Software\uCOS-III\Source/os_flag.c **** 
 968:..\..\..\..\..\..\Software\uCOS-III\Source/os_flag.c **** #if (OS_CFG_INVALID_OS_CALLS_CHK_EN == DEF_ENABLED)             /* Is the kernel running?          
 969:..\..\..\..\..\..\Software\uCOS-III\Source/os_flag.c ****     if (OSRunning != OS_STATE_OS_RUNNING) {
 970:..\..\..\..\..\..\Software\uCOS-III\Source/os_flag.c ****        *p_err = OS_ERR_OS_NOT_RUNNING;
 971:..\..\..\..\..\..\Software\uCOS-III\Source/os_flag.c ****         return (0u);
 972:..\..\..\..\..\..\Software\uCOS-III\Source/os_flag.c ****     }
 973:..\..\..\..\..\..\Software\uCOS-III\Source/os_flag.c **** #endif
 974:..\..\..\..\..\..\Software\uCOS-III\Source/os_flag.c **** 
 975:..\..\..\..\..\..\Software\uCOS-III\Source/os_flag.c **** #if (OS_CFG_ARG_CHK_EN == DEF_ENABLED)
 976:..\..\..\..\..\..\Software\uCOS-III\Source/os_flag.c ****     if (p_grp == DEF_NULL) {                                    /* Validate 'p_grp'                
 881              		.loc 1 976 0
 882 0010 FB68     		ldr	r3, [r7, #12]
 883 0012 002B     		cmp	r3, #0
 884 0014 04D1     		bne	.L64
 977:..\..\..\..\..\..\Software\uCOS-III\Source/os_flag.c **** #if (defined(TRACE_CFG_EN) && (TRACE_CFG_EN == DEF_ENABLED))
 978:..\..\..\..\..\..\Software\uCOS-III\Source/os_flag.c ****         TRACE_OS_FLAG_POST_FAILED(p_grp);                       /* Record the event.               
 979:..\..\..\..\..\..\Software\uCOS-III\Source/os_flag.c **** #endif
 980:..\..\..\..\..\..\Software\uCOS-III\Source/os_flag.c ****        *p_err  = OS_ERR_OBJ_PTR_NULL;
 885              		.loc 1 980 0
 886 0016 3B68     		ldr	r3, [r7]
 887 0018 144A     		ldr	r2, .L70
 888 001a 1A80     		strh	r2, [r3]
 981:..\..\..\..\..\..\Software\uCOS-III\Source/os_flag.c ****         return (0u);
 889              		.loc 1 981 0
 890 001c 0023     		movs	r3, #0
 891 001e 21E0     		b	.L65
 892              	.L64:
 982:..\..\..\..\..\..\Software\uCOS-III\Source/os_flag.c ****     }
 983:..\..\..\..\..\..\Software\uCOS-III\Source/os_flag.c ****     switch (opt) {                                              /* Validate 'opt'                  
 893              		.loc 1 983 0
 894 0020 BB1D     		adds	r3, r7, #6
 895 0022 1B88     		ldrh	r3, [r3]
 896 0024 002B     		cmp	r3, #0
ARM GAS  C:\Users\ADMINI~1\AppData\Local\Temp\cc0ImMof.s 			page 34


 897 0026 06DB     		blt	.L66
 898 0028 012B     		cmp	r3, #1
 899 002a 09DD     		ble	.L69
 900 002c 104A     		ldr	r2, .L70+4
 901 002e 9446     		mov	ip, r2
 902 0030 6344     		add	r3, r3, ip
 903 0032 012B     		cmp	r3, #1
 904 0034 04D9     		bls	.L69
 905              	.L66:
 984:..\..\..\..\..\..\Software\uCOS-III\Source/os_flag.c ****         case OS_OPT_POST_FLAG_SET:
 985:..\..\..\..\..\..\Software\uCOS-III\Source/os_flag.c ****         case OS_OPT_POST_FLAG_CLR:
 986:..\..\..\..\..\..\Software\uCOS-III\Source/os_flag.c ****         case OS_OPT_POST_FLAG_SET | OS_OPT_POST_NO_SCHED:
 987:..\..\..\..\..\..\Software\uCOS-III\Source/os_flag.c ****         case OS_OPT_POST_FLAG_CLR | OS_OPT_POST_NO_SCHED:
 988:..\..\..\..\..\..\Software\uCOS-III\Source/os_flag.c ****              break;
 989:..\..\..\..\..\..\Software\uCOS-III\Source/os_flag.c **** 
 990:..\..\..\..\..\..\Software\uCOS-III\Source/os_flag.c ****         default:
 991:..\..\..\..\..\..\Software\uCOS-III\Source/os_flag.c **** #if (defined(TRACE_CFG_EN) && (TRACE_CFG_EN == DEF_ENABLED))
 992:..\..\..\..\..\..\Software\uCOS-III\Source/os_flag.c ****              TRACE_OS_FLAG_POST_FAILED(p_grp);                  /* Record the event.               
 993:..\..\..\..\..\..\Software\uCOS-III\Source/os_flag.c **** #endif
 994:..\..\..\..\..\..\Software\uCOS-III\Source/os_flag.c ****             *p_err = OS_ERR_OPT_INVALID;
 906              		.loc 1 994 0
 907 0036 3B68     		ldr	r3, [r7]
 908 0038 0E4A     		ldr	r2, .L70+8
 909 003a 1A80     		strh	r2, [r3]
 995:..\..\..\..\..\..\Software\uCOS-III\Source/os_flag.c ****              return (0u);
 910              		.loc 1 995 0
 911 003c 0023     		movs	r3, #0
 912 003e 11E0     		b	.L65
 913              	.L69:
 988:..\..\..\..\..\..\Software\uCOS-III\Source/os_flag.c **** 
 914              		.loc 1 988 0
 915 0040 C046     		nop
 996:..\..\..\..\..\..\Software\uCOS-III\Source/os_flag.c ****     }
 997:..\..\..\..\..\..\Software\uCOS-III\Source/os_flag.c **** #endif
 998:..\..\..\..\..\..\Software\uCOS-III\Source/os_flag.c **** 
 999:..\..\..\..\..\..\Software\uCOS-III\Source/os_flag.c **** #if (OS_CFG_OBJ_TYPE_CHK_EN == DEF_ENABLED)
1000:..\..\..\..\..\..\Software\uCOS-III\Source/os_flag.c ****     if (p_grp->Type != OS_OBJ_TYPE_FLAG) {                      /* Make sure we are pointing to an 
1001:..\..\..\..\..\..\Software\uCOS-III\Source/os_flag.c **** #if (defined(TRACE_CFG_EN) && (TRACE_CFG_EN == DEF_ENABLED))
1002:..\..\..\..\..\..\Software\uCOS-III\Source/os_flag.c ****         TRACE_OS_FLAG_POST_FAILED(p_grp);                       /* Record the event.               
1003:..\..\..\..\..\..\Software\uCOS-III\Source/os_flag.c **** #endif
1004:..\..\..\..\..\..\Software\uCOS-III\Source/os_flag.c ****        *p_err = OS_ERR_OBJ_TYPE;
1005:..\..\..\..\..\..\Software\uCOS-III\Source/os_flag.c ****         return (0u);
1006:..\..\..\..\..\..\Software\uCOS-III\Source/os_flag.c ****     }
1007:..\..\..\..\..\..\Software\uCOS-III\Source/os_flag.c **** #endif
1008:..\..\..\..\..\..\Software\uCOS-III\Source/os_flag.c **** 
1009:..\..\..\..\..\..\Software\uCOS-III\Source/os_flag.c **** #if (OS_CFG_TS_EN == DEF_ENABLED)
1010:..\..\..\..\..\..\Software\uCOS-III\Source/os_flag.c ****     ts = OS_TS_GET();                                           /* Get timestamp                   
 916              		.loc 1 1010 0
 917 0042 FFF7FEFF 		bl	CPU_TS_TmrRd
 918 0046 0300     		movs	r3, r0
 919 0048 7B61     		str	r3, [r7, #20]
1011:..\..\..\..\..\..\Software\uCOS-III\Source/os_flag.c **** #else
1012:..\..\..\..\..\..\Software\uCOS-III\Source/os_flag.c ****     ts = 0u;
1013:..\..\..\..\..\..\Software\uCOS-III\Source/os_flag.c **** #endif
1014:..\..\..\..\..\..\Software\uCOS-III\Source/os_flag.c **** #if (OS_CFG_ISR_POST_DEFERRED_EN == DEF_ENABLED)
1015:..\..\..\..\..\..\Software\uCOS-III\Source/os_flag.c ****     if (OSIntNestingCtr > 0u) {                                 /* See if called from an ISR       
1016:..\..\..\..\..\..\Software\uCOS-III\Source/os_flag.c ****         OS_IntQPost(OS_OBJ_TYPE_FLAG,                           /* Post to ISR queue               
ARM GAS  C:\Users\ADMINI~1\AppData\Local\Temp\cc0ImMof.s 			page 35


1017:..\..\..\..\..\..\Software\uCOS-III\Source/os_flag.c ****                     (void *)p_grp,
1018:..\..\..\..\..\..\Software\uCOS-III\Source/os_flag.c ****                     DEF_NULL,
1019:..\..\..\..\..\..\Software\uCOS-III\Source/os_flag.c ****                     0u,
1020:..\..\..\..\..\..\Software\uCOS-III\Source/os_flag.c ****                     flags,
1021:..\..\..\..\..\..\Software\uCOS-III\Source/os_flag.c ****                     opt,
1022:..\..\..\..\..\..\Software\uCOS-III\Source/os_flag.c ****                     ts,
1023:..\..\..\..\..\..\Software\uCOS-III\Source/os_flag.c ****                     p_err);
1024:..\..\..\..\..\..\Software\uCOS-III\Source/os_flag.c **** #if (defined(TRACE_CFG_EN) && (TRACE_CFG_EN == DEF_ENABLED))
1025:..\..\..\..\..\..\Software\uCOS-III\Source/os_flag.c ****         TRACE_OS_FLAG_POST(p_grp);                              /* Record the event.               
1026:..\..\..\..\..\..\Software\uCOS-III\Source/os_flag.c **** #endif
1027:..\..\..\..\..\..\Software\uCOS-III\Source/os_flag.c ****         return (0u);
1028:..\..\..\..\..\..\Software\uCOS-III\Source/os_flag.c ****     }
1029:..\..\..\..\..\..\Software\uCOS-III\Source/os_flag.c **** #endif
1030:..\..\..\..\..\..\Software\uCOS-III\Source/os_flag.c **** 
1031:..\..\..\..\..\..\Software\uCOS-III\Source/os_flag.c ****     flags_cur = OS_FlagPost(p_grp,
 920              		.loc 1 1031 0
 921 004a 7C69     		ldr	r4, [r7, #20]
 922 004c BB1D     		adds	r3, r7, #6
 923 004e 1A88     		ldrh	r2, [r3]
 924 0050 B968     		ldr	r1, [r7, #8]
 925 0052 F868     		ldr	r0, [r7, #12]
 926 0054 3B68     		ldr	r3, [r7]
 927 0056 0093     		str	r3, [sp]
 928 0058 2300     		movs	r3, r4
 929 005a FFF7FEFF 		bl	OS_FlagPost
 930 005e 0300     		movs	r3, r0
 931 0060 3B61     		str	r3, [r7, #16]
1032:..\..\..\..\..\..\Software\uCOS-III\Source/os_flag.c ****                             flags,
1033:..\..\..\..\..\..\Software\uCOS-III\Source/os_flag.c ****                             opt,
1034:..\..\..\..\..\..\Software\uCOS-III\Source/os_flag.c ****                             ts,
1035:..\..\..\..\..\..\Software\uCOS-III\Source/os_flag.c ****                             p_err);
1036:..\..\..\..\..\..\Software\uCOS-III\Source/os_flag.c **** 
1037:..\..\..\..\..\..\Software\uCOS-III\Source/os_flag.c **** #if (defined(TRACE_CFG_EN) && (TRACE_CFG_EN == DEF_ENABLED))
1038:..\..\..\..\..\..\Software\uCOS-III\Source/os_flag.c ****     TRACE_OS_FLAG_POST(p_grp);                                  /* Record the event.               
1039:..\..\..\..\..\..\Software\uCOS-III\Source/os_flag.c **** #endif    
1040:..\..\..\..\..\..\Software\uCOS-III\Source/os_flag.c **** 
1041:..\..\..\..\..\..\Software\uCOS-III\Source/os_flag.c ****     return (flags_cur);
 932              		.loc 1 1041 0
 933 0062 3B69     		ldr	r3, [r7, #16]
 934              	.L65:
1042:..\..\..\..\..\..\Software\uCOS-III\Source/os_flag.c **** }
 935              		.loc 1 1042 0
 936 0064 1800     		movs	r0, r3
 937 0066 BD46     		mov	sp, r7
 938 0068 07B0     		add	sp, sp, #28
 939              		@ sp needed
 940 006a 90BD     		pop	{r4, r7, pc}
 941              	.L71:
 942              		.align	2
 943              	.L70:
 944 006c C35D0000 		.word	24003
 945 0070 0080FFFF 		.word	-32768
 946 0074 255E0000 		.word	24101
 947              		.cfi_endproc
 948              	.LFE3:
 949              		.size	OSFlagPost, .-OSFlagPost
 950              		.section	.text.OS_FlagBlock,"ax",%progbits
ARM GAS  C:\Users\ADMINI~1\AppData\Local\Temp\cc0ImMof.s 			page 36


 951              		.align	2
 952              		.global	OS_FlagBlock
 953              		.code	16
 954              		.thumb_func
 955              		.type	OS_FlagBlock, %function
 956              	OS_FlagBlock:
 957              	.LFB4:
1043:..\..\..\..\..\..\Software\uCOS-III\Source/os_flag.c **** 
1044:..\..\..\..\..\..\Software\uCOS-III\Source/os_flag.c **** 
1045:..\..\..\..\..\..\Software\uCOS-III\Source/os_flag.c **** /*
1046:..\..\..\..\..\..\Software\uCOS-III\Source/os_flag.c **** ***************************************************************************************************
1047:..\..\..\..\..\..\Software\uCOS-III\Source/os_flag.c **** *                         SUSPEND TASK UNTIL EVENT FLAG(s) RECEIVED OR TIMEOUT OCCURS
1048:..\..\..\..\..\..\Software\uCOS-III\Source/os_flag.c **** *
1049:..\..\..\..\..\..\Software\uCOS-III\Source/os_flag.c **** * Description: This function is internal to uC/OS-III and is used to put a task to sleep until the 
1050:..\..\..\..\..\..\Software\uCOS-III\Source/os_flag.c **** *              event flag bit(s) are set.
1051:..\..\..\..\..\..\Software\uCOS-III\Source/os_flag.c **** *
1052:..\..\..\..\..\..\Software\uCOS-III\Source/os_flag.c **** * Arguments  : p_pend_data    is a pointer to an object used to link the task being blocked to the 
1053:..\..\..\..\..\..\Software\uCOS-III\Source/os_flag.c **** *              -----------    pending on the desired event flag group.
1054:..\..\..\..\..\..\Software\uCOS-III\Source/os_flag.c **** *
1055:..\..\..\..\..\..\Software\uCOS-III\Source/os_flag.c **** *              p_grp         is a pointer to the desired event flag group.
1056:..\..\..\..\..\..\Software\uCOS-III\Source/os_flag.c **** *              -----
1057:..\..\..\..\..\..\Software\uCOS-III\Source/os_flag.c **** *
1058:..\..\..\..\..\..\Software\uCOS-III\Source/os_flag.c **** *              flags         Is a bit pattern indicating which bit(s) (i.e. flags) you wish to chec
1059:..\..\..\..\..\..\Software\uCOS-III\Source/os_flag.c **** *                            The bits you want are specified by setting the corresponding bits in
1060:..\..\..\..\..\..\Software\uCOS-III\Source/os_flag.c **** *                            'flags'.  e.g. if your application wants to wait for bits 0 and 1 then
1061:..\..\..\..\..\..\Software\uCOS-III\Source/os_flag.c **** *                            'flags' would contain 0x03.
1062:..\..\..\..\..\..\Software\uCOS-III\Source/os_flag.c **** *
1063:..\..\..\..\..\..\Software\uCOS-III\Source/os_flag.c **** *              opt           specifies whether you want ALL bits to be set/cleared or ANY of the bi
1064:..\..\..\..\..\..\Software\uCOS-III\Source/os_flag.c **** *                            to be set/cleared.
1065:..\..\..\..\..\..\Software\uCOS-III\Source/os_flag.c **** *                            You can specify the following argument:
1066:..\..\..\..\..\..\Software\uCOS-III\Source/os_flag.c **** *
1067:..\..\..\..\..\..\Software\uCOS-III\Source/os_flag.c **** *                                OS_OPT_PEND_FLAG_CLR_ALL   You will check ALL bits in 'mask' to be
1068:..\..\..\..\..\..\Software\uCOS-III\Source/os_flag.c **** *                                OS_OPT_PEND_FLAG_CLR_ANY   You will check ANY bit  in 'mask' to be
1069:..\..\..\..\..\..\Software\uCOS-III\Source/os_flag.c **** *                                OS_OPT_PEND_FLAG_SET_ALL   You will check ALL bits in 'mask' to be
1070:..\..\..\..\..\..\Software\uCOS-III\Source/os_flag.c **** *                                OS_OPT_PEND_FLAG_SET_ANY   You will check ANY bit  in 'mask' to be
1071:..\..\..\..\..\..\Software\uCOS-III\Source/os_flag.c **** *
1072:..\..\..\..\..\..\Software\uCOS-III\Source/os_flag.c **** *              timeout       is the desired amount of time that the task will wait for the event fl
1073:..\..\..\..\..\..\Software\uCOS-III\Source/os_flag.c **** *                            bit(s) to be set.
1074:..\..\..\..\..\..\Software\uCOS-III\Source/os_flag.c **** *
1075:..\..\..\..\..\..\Software\uCOS-III\Source/os_flag.c **** * Returns    : none
1076:..\..\..\..\..\..\Software\uCOS-III\Source/os_flag.c **** *
1077:..\..\..\..\..\..\Software\uCOS-III\Source/os_flag.c **** * Note(s)    : This function is INTERNAL to uC/OS-III and your application should not call it.
1078:..\..\..\..\..\..\Software\uCOS-III\Source/os_flag.c **** ***************************************************************************************************
1079:..\..\..\..\..\..\Software\uCOS-III\Source/os_flag.c **** */
1080:..\..\..\..\..\..\Software\uCOS-III\Source/os_flag.c **** 
1081:..\..\..\..\..\..\Software\uCOS-III\Source/os_flag.c **** void  OS_FlagBlock (OS_PEND_DATA  *p_pend_data,
1082:..\..\..\..\..\..\Software\uCOS-III\Source/os_flag.c ****                     OS_FLAG_GRP   *p_grp,
1083:..\..\..\..\..\..\Software\uCOS-III\Source/os_flag.c ****                     OS_FLAGS       flags,
1084:..\..\..\..\..\..\Software\uCOS-III\Source/os_flag.c ****                     OS_OPT         opt,
1085:..\..\..\..\..\..\Software\uCOS-III\Source/os_flag.c ****                     OS_TICK        timeout)
1086:..\..\..\..\..\..\Software\uCOS-III\Source/os_flag.c **** {
 958              		.loc 1 1086 0
 959              		.cfi_startproc
 960              		@ args = 4, pretend = 0, frame = 16
 961              		@ frame_needed = 1, uses_anonymous_args = 0
 962 0000 80B5     		push	{r7, lr}
 963              		.cfi_def_cfa_offset 8
ARM GAS  C:\Users\ADMINI~1\AppData\Local\Temp\cc0ImMof.s 			page 37


 964              		.cfi_offset 7, -8
 965              		.cfi_offset 14, -4
 966 0002 84B0     		sub	sp, sp, #16
 967              		.cfi_def_cfa_offset 24
 968 0004 00AF     		add	r7, sp, #0
 969              		.cfi_def_cfa_register 7
 970 0006 F860     		str	r0, [r7, #12]
 971 0008 B960     		str	r1, [r7, #8]
 972 000a 7A60     		str	r2, [r7, #4]
 973 000c 1A00     		movs	r2, r3
 974 000e BB1C     		adds	r3, r7, #2
 975 0010 1A80     		strh	r2, [r3]
1087:..\..\..\..\..\..\Software\uCOS-III\Source/os_flag.c ****     OSTCBCurPtr->FlagsPend = flags;                             /* Save the flags that we need to w
 976              		.loc 1 1087 0
 977 0012 0C4B     		ldr	r3, .L73
 978 0014 1B68     		ldr	r3, [r3]
 979 0016 7A68     		ldr	r2, [r7, #4]
 980 0018 DA67     		str	r2, [r3, #124]
1088:..\..\..\..\..\..\Software\uCOS-III\Source/os_flag.c ****     OSTCBCurPtr->FlagsOpt  = opt;                               /* Save the type of wait we are doi
 981              		.loc 1 1088 0
 982 001a 0A4B     		ldr	r3, .L73
 983 001c 1B68     		ldr	r3, [r3]
 984 001e BA1C     		adds	r2, r7, #2
 985 0020 8421     		movs	r1, #132
 986 0022 1288     		ldrh	r2, [r2]
 987 0024 5A52     		strh	r2, [r3, r1]
1089:..\..\..\..\..\..\Software\uCOS-III\Source/os_flag.c ****     OSTCBCurPtr->FlagsRdy  = 0u;
 988              		.loc 1 1089 0
 989 0026 074B     		ldr	r3, .L73
 990 0028 1B68     		ldr	r3, [r3]
 991 002a 8022     		movs	r2, #128
 992 002c 0021     		movs	r1, #0
 993 002e 9950     		str	r1, [r3, r2]
1090:..\..\..\..\..\..\Software\uCOS-III\Source/os_flag.c **** 
1091:..\..\..\..\..\..\Software\uCOS-III\Source/os_flag.c ****     OS_Pend(p_pend_data,
 994              		.loc 1 1091 0
 995 0030 BB69     		ldr	r3, [r7, #24]
 996 0032 B968     		ldr	r1, [r7, #8]
 997 0034 F868     		ldr	r0, [r7, #12]
 998 0036 0122     		movs	r2, #1
 999 0038 FFF7FEFF 		bl	OS_Pend
1092:..\..\..\..\..\..\Software\uCOS-III\Source/os_flag.c ****             (OS_PEND_OBJ *)((void *)p_grp),
1093:..\..\..\..\..\..\Software\uCOS-III\Source/os_flag.c ****              OS_TASK_PEND_ON_FLAG,
1094:..\..\..\..\..\..\Software\uCOS-III\Source/os_flag.c ****              timeout);
1095:..\..\..\..\..\..\Software\uCOS-III\Source/os_flag.c **** }
 1000              		.loc 1 1095 0
 1001 003c C046     		nop
 1002 003e BD46     		mov	sp, r7
 1003 0040 04B0     		add	sp, sp, #16
 1004              		@ sp needed
 1005 0042 80BD     		pop	{r7, pc}
 1006              	.L74:
 1007              		.align	2
 1008              	.L73:
 1009 0044 00000000 		.word	OSTCBCurPtr
 1010              		.cfi_endproc
 1011              	.LFE4:
ARM GAS  C:\Users\ADMINI~1\AppData\Local\Temp\cc0ImMof.s 			page 38


 1012              		.size	OS_FlagBlock, .-OS_FlagBlock
 1013              		.section	.rodata
 1014              		.align	2
 1015              	.LC8:
 1016 0000 3F464C41 		.ascii	"?FLAG\000"
 1016      4700
 1017              		.section	.text.OS_FlagClr,"ax",%progbits
 1018              		.align	2
 1019              		.global	OS_FlagClr
 1020              		.code	16
 1021              		.thumb_func
 1022              		.type	OS_FlagClr, %function
 1023              	OS_FlagClr:
 1024              	.LFB5:
1096:..\..\..\..\..\..\Software\uCOS-III\Source/os_flag.c **** 
1097:..\..\..\..\..\..\Software\uCOS-III\Source/os_flag.c **** 
1098:..\..\..\..\..\..\Software\uCOS-III\Source/os_flag.c **** /*
1099:..\..\..\..\..\..\Software\uCOS-III\Source/os_flag.c **** ***************************************************************************************************
1100:..\..\..\..\..\..\Software\uCOS-III\Source/os_flag.c **** *                                      CLEAR THE CONTENTS OF AN EVENT FLAG GROUP
1101:..\..\..\..\..\..\Software\uCOS-III\Source/os_flag.c **** *
1102:..\..\..\..\..\..\Software\uCOS-III\Source/os_flag.c **** * Description: This function is called by OSFlagDel() to clear the contents of an event flag group
1103:..\..\..\..\..\..\Software\uCOS-III\Source/os_flag.c **** *
1104:..\..\..\..\..\..\Software\uCOS-III\Source/os_flag.c **** 
1105:..\..\..\..\..\..\Software\uCOS-III\Source/os_flag.c **** * Argument(s): p_grp     is a pointer to the event flag group to clear
1106:..\..\..\..\..\..\Software\uCOS-III\Source/os_flag.c **** *              -----
1107:..\..\..\..\..\..\Software\uCOS-III\Source/os_flag.c **** *
1108:..\..\..\..\..\..\Software\uCOS-III\Source/os_flag.c **** * Returns    : none
1109:..\..\..\..\..\..\Software\uCOS-III\Source/os_flag.c **** *
1110:..\..\..\..\..\..\Software\uCOS-III\Source/os_flag.c **** * Note(s)    : This function is INTERNAL to uC/OS-III and your application should not call it.
1111:..\..\..\..\..\..\Software\uCOS-III\Source/os_flag.c **** ***************************************************************************************************
1112:..\..\..\..\..\..\Software\uCOS-III\Source/os_flag.c **** */
1113:..\..\..\..\..\..\Software\uCOS-III\Source/os_flag.c **** 
1114:..\..\..\..\..\..\Software\uCOS-III\Source/os_flag.c **** void  OS_FlagClr (OS_FLAG_GRP  *p_grp)
1115:..\..\..\..\..\..\Software\uCOS-III\Source/os_flag.c **** {
 1025              		.loc 1 1115 0
 1026              		.cfi_startproc
 1027              		@ args = 0, pretend = 0, frame = 16
 1028              		@ frame_needed = 1, uses_anonymous_args = 0
 1029 0000 80B5     		push	{r7, lr}
 1030              		.cfi_def_cfa_offset 8
 1031              		.cfi_offset 7, -8
 1032              		.cfi_offset 14, -4
 1033 0002 84B0     		sub	sp, sp, #16
 1034              		.cfi_def_cfa_offset 24
 1035 0004 00AF     		add	r7, sp, #0
 1036              		.cfi_def_cfa_register 7
 1037 0006 7860     		str	r0, [r7, #4]
1116:..\..\..\..\..\..\Software\uCOS-III\Source/os_flag.c ****     OS_PEND_LIST  *p_pend_list;
1117:..\..\..\..\..\..\Software\uCOS-III\Source/os_flag.c **** 
1118:..\..\..\..\..\..\Software\uCOS-III\Source/os_flag.c **** 
1119:..\..\..\..\..\..\Software\uCOS-III\Source/os_flag.c **** #if (OS_OBJ_TYPE_REQ == DEF_ENABLED)
1120:..\..\..\..\..\..\Software\uCOS-III\Source/os_flag.c ****     p_grp->Type             = OS_OBJ_TYPE_NONE;
 1038              		.loc 1 1120 0
 1039 0008 7B68     		ldr	r3, [r7, #4]
 1040 000a 094A     		ldr	r2, .L76
 1041 000c 1A60     		str	r2, [r3]
1121:..\..\..\..\..\..\Software\uCOS-III\Source/os_flag.c **** #endif
ARM GAS  C:\Users\ADMINI~1\AppData\Local\Temp\cc0ImMof.s 			page 39


1122:..\..\..\..\..\..\Software\uCOS-III\Source/os_flag.c **** #if (OS_CFG_DBG_EN == DEF_ENABLED)
1123:..\..\..\..\..\..\Software\uCOS-III\Source/os_flag.c ****     p_grp->NamePtr          = (CPU_CHAR *)((void *)"?FLAG");    /* Unknown name                    
 1042              		.loc 1 1123 0
 1043 000e 7B68     		ldr	r3, [r7, #4]
 1044 0010 084A     		ldr	r2, .L76+4
 1045 0012 5A60     		str	r2, [r3, #4]
1124:..\..\..\..\..\..\Software\uCOS-III\Source/os_flag.c **** #endif
1125:..\..\..\..\..\..\Software\uCOS-III\Source/os_flag.c ****     p_grp->Flags            =  0u;
 1046              		.loc 1 1125 0
 1047 0014 7B68     		ldr	r3, [r7, #4]
 1048 0016 0022     		movs	r2, #0
 1049 0018 1A62     		str	r2, [r3, #32]
1126:..\..\..\..\..\..\Software\uCOS-III\Source/os_flag.c ****     p_pend_list             = &p_grp->PendList;
 1050              		.loc 1 1126 0
 1051 001a 7B68     		ldr	r3, [r7, #4]
 1052 001c 0833     		adds	r3, r3, #8
 1053 001e FB60     		str	r3, [r7, #12]
1127:..\..\..\..\..\..\Software\uCOS-III\Source/os_flag.c ****     OS_PendListInit(p_pend_list);
 1054              		.loc 1 1127 0
 1055 0020 FB68     		ldr	r3, [r7, #12]
 1056 0022 1800     		movs	r0, r3
 1057 0024 FFF7FEFF 		bl	OS_PendListInit
1128:..\..\..\..\..\..\Software\uCOS-III\Source/os_flag.c **** }
 1058              		.loc 1 1128 0
 1059 0028 C046     		nop
 1060 002a BD46     		mov	sp, r7
 1061 002c 04B0     		add	sp, sp, #16
 1062              		@ sp needed
 1063 002e 80BD     		pop	{r7, pc}
 1064              	.L77:
 1065              		.align	2
 1066              	.L76:
 1067 0030 4E4F4E45 		.word	1162760014
 1068 0034 00000000 		.word	.LC8
 1069              		.cfi_endproc
 1070              	.LFE5:
 1071              		.size	OS_FlagClr, .-OS_FlagClr
 1072              		.section	.rodata
 1073 0006 0000     		.align	2
 1074              	.LC10:
 1075 0008 2000     		.ascii	" \000"
 1076              		.section	.text.OS_FlagDbgListAdd,"ax",%progbits
 1077              		.align	2
 1078              		.global	OS_FlagDbgListAdd
 1079              		.code	16
 1080              		.thumb_func
 1081              		.type	OS_FlagDbgListAdd, %function
 1082              	OS_FlagDbgListAdd:
 1083              	.LFB6:
1129:..\..\..\..\..\..\Software\uCOS-III\Source/os_flag.c **** 
1130:..\..\..\..\..\..\Software\uCOS-III\Source/os_flag.c **** 
1131:..\..\..\..\..\..\Software\uCOS-III\Source/os_flag.c **** /*
1132:..\..\..\..\..\..\Software\uCOS-III\Source/os_flag.c **** ***************************************************************************************************
1133:..\..\..\..\..\..\Software\uCOS-III\Source/os_flag.c **** *                                    ADD/REMOVE EVENT FLAG GROUP TO/FROM DEBUG LIST
1134:..\..\..\..\..\..\Software\uCOS-III\Source/os_flag.c **** *
1135:..\..\..\..\..\..\Software\uCOS-III\Source/os_flag.c **** * Description: These functions are called by uC/OS-III to add or remove an event flag group from th
1136:..\..\..\..\..\..\Software\uCOS-III\Source/os_flag.c **** *              list.
ARM GAS  C:\Users\ADMINI~1\AppData\Local\Temp\cc0ImMof.s 			page 40


1137:..\..\..\..\..\..\Software\uCOS-III\Source/os_flag.c **** *
1138:..\..\..\..\..\..\Software\uCOS-III\Source/os_flag.c **** * Arguments  : p_grp     is a pointer to the event flag group to add/remove
1139:..\..\..\..\..\..\Software\uCOS-III\Source/os_flag.c **** *
1140:..\..\..\..\..\..\Software\uCOS-III\Source/os_flag.c **** * Returns    : none
1141:..\..\..\..\..\..\Software\uCOS-III\Source/os_flag.c **** *
1142:..\..\..\..\..\..\Software\uCOS-III\Source/os_flag.c **** * Note(s)    : These functions are INTERNAL to uC/OS-III and your application should not call it.
1143:..\..\..\..\..\..\Software\uCOS-III\Source/os_flag.c **** ***************************************************************************************************
1144:..\..\..\..\..\..\Software\uCOS-III\Source/os_flag.c **** */
1145:..\..\..\..\..\..\Software\uCOS-III\Source/os_flag.c **** 
1146:..\..\..\..\..\..\Software\uCOS-III\Source/os_flag.c **** #if (OS_CFG_DBG_EN == DEF_ENABLED)
1147:..\..\..\..\..\..\Software\uCOS-III\Source/os_flag.c **** void  OS_FlagDbgListAdd (OS_FLAG_GRP  *p_grp)
1148:..\..\..\..\..\..\Software\uCOS-III\Source/os_flag.c **** {
 1084              		.loc 1 1148 0
 1085              		.cfi_startproc
 1086              		@ args = 0, pretend = 0, frame = 8
 1087              		@ frame_needed = 1, uses_anonymous_args = 0
 1088 0000 80B5     		push	{r7, lr}
 1089              		.cfi_def_cfa_offset 8
 1090              		.cfi_offset 7, -8
 1091              		.cfi_offset 14, -4
 1092 0002 82B0     		sub	sp, sp, #8
 1093              		.cfi_def_cfa_offset 16
 1094 0004 00AF     		add	r7, sp, #0
 1095              		.cfi_def_cfa_register 7
 1096 0006 7860     		str	r0, [r7, #4]
1149:..\..\..\..\..\..\Software\uCOS-III\Source/os_flag.c ****     p_grp->DbgNamePtr                = (CPU_CHAR *)((void *)" ");
 1097              		.loc 1 1149 0
 1098 0008 7B68     		ldr	r3, [r7, #4]
 1099 000a 0E4A     		ldr	r2, .L81
 1100 000c DA61     		str	r2, [r3, #28]
1150:..\..\..\..\..\..\Software\uCOS-III\Source/os_flag.c ****     p_grp->DbgPrevPtr                = DEF_NULL;
 1101              		.loc 1 1150 0
 1102 000e 7B68     		ldr	r3, [r7, #4]
 1103 0010 0022     		movs	r2, #0
 1104 0012 5A61     		str	r2, [r3, #20]
1151:..\..\..\..\..\..\Software\uCOS-III\Source/os_flag.c ****     if (OSFlagDbgListPtr == DEF_NULL) {
 1105              		.loc 1 1151 0
 1106 0014 0C4B     		ldr	r3, .L81+4
 1107 0016 1B68     		ldr	r3, [r3]
 1108 0018 002B     		cmp	r3, #0
 1109 001a 03D1     		bne	.L79
1152:..\..\..\..\..\..\Software\uCOS-III\Source/os_flag.c ****         p_grp->DbgNextPtr            = DEF_NULL;
 1110              		.loc 1 1152 0
 1111 001c 7B68     		ldr	r3, [r7, #4]
 1112 001e 0022     		movs	r2, #0
 1113 0020 9A61     		str	r2, [r3, #24]
 1114 0022 07E0     		b	.L80
 1115              	.L79:
1153:..\..\..\..\..\..\Software\uCOS-III\Source/os_flag.c ****     } else {
1154:..\..\..\..\..\..\Software\uCOS-III\Source/os_flag.c ****         p_grp->DbgNextPtr            = OSFlagDbgListPtr;
 1116              		.loc 1 1154 0
 1117 0024 084B     		ldr	r3, .L81+4
 1118 0026 1A68     		ldr	r2, [r3]
 1119 0028 7B68     		ldr	r3, [r7, #4]
 1120 002a 9A61     		str	r2, [r3, #24]
1155:..\..\..\..\..\..\Software\uCOS-III\Source/os_flag.c ****         OSFlagDbgListPtr->DbgPrevPtr = p_grp;
 1121              		.loc 1 1155 0
ARM GAS  C:\Users\ADMINI~1\AppData\Local\Temp\cc0ImMof.s 			page 41


 1122 002c 064B     		ldr	r3, .L81+4
 1123 002e 1B68     		ldr	r3, [r3]
 1124 0030 7A68     		ldr	r2, [r7, #4]
 1125 0032 5A61     		str	r2, [r3, #20]
 1126              	.L80:
1156:..\..\..\..\..\..\Software\uCOS-III\Source/os_flag.c ****     }
1157:..\..\..\..\..\..\Software\uCOS-III\Source/os_flag.c ****     OSFlagDbgListPtr                 = p_grp;
 1127              		.loc 1 1157 0
 1128 0034 044B     		ldr	r3, .L81+4
 1129 0036 7A68     		ldr	r2, [r7, #4]
 1130 0038 1A60     		str	r2, [r3]
1158:..\..\..\..\..\..\Software\uCOS-III\Source/os_flag.c **** }
 1131              		.loc 1 1158 0
 1132 003a C046     		nop
 1133 003c BD46     		mov	sp, r7
 1134 003e 02B0     		add	sp, sp, #8
 1135              		@ sp needed
 1136 0040 80BD     		pop	{r7, pc}
 1137              	.L82:
 1138 0042 C046     		.align	2
 1139              	.L81:
 1140 0044 08000000 		.word	.LC10
 1141 0048 00000000 		.word	OSFlagDbgListPtr
 1142              		.cfi_endproc
 1143              	.LFE6:
 1144              		.size	OS_FlagDbgListAdd, .-OS_FlagDbgListAdd
 1145              		.section	.text.OS_FlagDbgListRemove,"ax",%progbits
 1146              		.align	2
 1147              		.global	OS_FlagDbgListRemove
 1148              		.code	16
 1149              		.thumb_func
 1150              		.type	OS_FlagDbgListRemove, %function
 1151              	OS_FlagDbgListRemove:
 1152              	.LFB7:
1159:..\..\..\..\..\..\Software\uCOS-III\Source/os_flag.c **** 
1160:..\..\..\..\..\..\Software\uCOS-III\Source/os_flag.c **** 
1161:..\..\..\..\..\..\Software\uCOS-III\Source/os_flag.c **** 
1162:..\..\..\..\..\..\Software\uCOS-III\Source/os_flag.c **** void  OS_FlagDbgListRemove (OS_FLAG_GRP  *p_grp)
1163:..\..\..\..\..\..\Software\uCOS-III\Source/os_flag.c **** {
 1153              		.loc 1 1163 0
 1154              		.cfi_startproc
 1155              		@ args = 0, pretend = 0, frame = 16
 1156              		@ frame_needed = 1, uses_anonymous_args = 0
 1157 0000 80B5     		push	{r7, lr}
 1158              		.cfi_def_cfa_offset 8
 1159              		.cfi_offset 7, -8
 1160              		.cfi_offset 14, -4
 1161 0002 84B0     		sub	sp, sp, #16
 1162              		.cfi_def_cfa_offset 24
 1163 0004 00AF     		add	r7, sp, #0
 1164              		.cfi_def_cfa_register 7
 1165 0006 7860     		str	r0, [r7, #4]
1164:..\..\..\..\..\..\Software\uCOS-III\Source/os_flag.c ****     OS_FLAG_GRP  *p_grp_next;
1165:..\..\..\..\..\..\Software\uCOS-III\Source/os_flag.c ****     OS_FLAG_GRP  *p_grp_prev;
1166:..\..\..\..\..\..\Software\uCOS-III\Source/os_flag.c **** 
1167:..\..\..\..\..\..\Software\uCOS-III\Source/os_flag.c **** 
1168:..\..\..\..\..\..\Software\uCOS-III\Source/os_flag.c ****     p_grp_prev = p_grp->DbgPrevPtr;
ARM GAS  C:\Users\ADMINI~1\AppData\Local\Temp\cc0ImMof.s 			page 42


 1166              		.loc 1 1168 0
 1167 0008 7B68     		ldr	r3, [r7, #4]
 1168 000a 5B69     		ldr	r3, [r3, #20]
 1169 000c FB60     		str	r3, [r7, #12]
1169:..\..\..\..\..\..\Software\uCOS-III\Source/os_flag.c ****     p_grp_next = p_grp->DbgNextPtr;
 1170              		.loc 1 1169 0
 1171 000e 7B68     		ldr	r3, [r7, #4]
 1172 0010 9B69     		ldr	r3, [r3, #24]
 1173 0012 BB60     		str	r3, [r7, #8]
1170:..\..\..\..\..\..\Software\uCOS-III\Source/os_flag.c **** 
1171:..\..\..\..\..\..\Software\uCOS-III\Source/os_flag.c ****     if (p_grp_prev == DEF_NULL) {
 1174              		.loc 1 1171 0
 1175 0014 FB68     		ldr	r3, [r7, #12]
 1176 0016 002B     		cmp	r3, #0
 1177 0018 0CD1     		bne	.L84
1172:..\..\..\..\..\..\Software\uCOS-III\Source/os_flag.c ****         OSFlagDbgListPtr = p_grp_next;
 1178              		.loc 1 1172 0
 1179 001a 134B     		ldr	r3, .L89
 1180 001c BA68     		ldr	r2, [r7, #8]
 1181 001e 1A60     		str	r2, [r3]
1173:..\..\..\..\..\..\Software\uCOS-III\Source/os_flag.c ****         if (p_grp_next != DEF_NULL) {
 1182              		.loc 1 1173 0
 1183 0020 BB68     		ldr	r3, [r7, #8]
 1184 0022 002B     		cmp	r3, #0
 1185 0024 02D0     		beq	.L85
1174:..\..\..\..\..\..\Software\uCOS-III\Source/os_flag.c ****             p_grp_next->DbgPrevPtr = DEF_NULL;
 1186              		.loc 1 1174 0
 1187 0026 BB68     		ldr	r3, [r7, #8]
 1188 0028 0022     		movs	r2, #0
 1189 002a 5A61     		str	r2, [r3, #20]
 1190              	.L85:
1175:..\..\..\..\..\..\Software\uCOS-III\Source/os_flag.c ****         }
1176:..\..\..\..\..\..\Software\uCOS-III\Source/os_flag.c ****         p_grp->DbgNextPtr = DEF_NULL;
 1191              		.loc 1 1176 0
 1192 002c 7B68     		ldr	r3, [r7, #4]
 1193 002e 0022     		movs	r2, #0
 1194 0030 9A61     		str	r2, [r3, #24]
1177:..\..\..\..\..\..\Software\uCOS-III\Source/os_flag.c **** 
1178:..\..\..\..\..\..\Software\uCOS-III\Source/os_flag.c ****     } else if (p_grp_next == DEF_NULL) {
1179:..\..\..\..\..\..\Software\uCOS-III\Source/os_flag.c ****         p_grp_prev->DbgNextPtr = DEF_NULL;
1180:..\..\..\..\..\..\Software\uCOS-III\Source/os_flag.c ****         p_grp->DbgPrevPtr      = DEF_NULL;
1181:..\..\..\..\..\..\Software\uCOS-III\Source/os_flag.c **** 
1182:..\..\..\..\..\..\Software\uCOS-III\Source/os_flag.c ****     } else {
1183:..\..\..\..\..\..\Software\uCOS-III\Source/os_flag.c ****         p_grp_prev->DbgNextPtr =  p_grp_next;
1184:..\..\..\..\..\..\Software\uCOS-III\Source/os_flag.c ****         p_grp_next->DbgPrevPtr =  p_grp_prev;
1185:..\..\..\..\..\..\Software\uCOS-III\Source/os_flag.c ****         p_grp->DbgNextPtr      = DEF_NULL;
1186:..\..\..\..\..\..\Software\uCOS-III\Source/os_flag.c ****         p_grp->DbgPrevPtr      = DEF_NULL;
1187:..\..\..\..\..\..\Software\uCOS-III\Source/os_flag.c ****     }
1188:..\..\..\..\..\..\Software\uCOS-III\Source/os_flag.c **** }
 1195              		.loc 1 1188 0
 1196 0032 15E0     		b	.L88
 1197              	.L84:
1178:..\..\..\..\..\..\Software\uCOS-III\Source/os_flag.c ****         p_grp_prev->DbgNextPtr = DEF_NULL;
 1198              		.loc 1 1178 0
 1199 0034 BB68     		ldr	r3, [r7, #8]
 1200 0036 002B     		cmp	r3, #0
 1201 0038 06D1     		bne	.L87
ARM GAS  C:\Users\ADMINI~1\AppData\Local\Temp\cc0ImMof.s 			page 43


1179:..\..\..\..\..\..\Software\uCOS-III\Source/os_flag.c ****         p_grp->DbgPrevPtr      = DEF_NULL;
 1202              		.loc 1 1179 0
 1203 003a FB68     		ldr	r3, [r7, #12]
 1204 003c 0022     		movs	r2, #0
 1205 003e 9A61     		str	r2, [r3, #24]
1180:..\..\..\..\..\..\Software\uCOS-III\Source/os_flag.c **** 
 1206              		.loc 1 1180 0
 1207 0040 7B68     		ldr	r3, [r7, #4]
 1208 0042 0022     		movs	r2, #0
 1209 0044 5A61     		str	r2, [r3, #20]
 1210              		.loc 1 1188 0
 1211 0046 0BE0     		b	.L88
 1212              	.L87:
1183:..\..\..\..\..\..\Software\uCOS-III\Source/os_flag.c ****         p_grp_next->DbgPrevPtr =  p_grp_prev;
 1213              		.loc 1 1183 0
 1214 0048 FB68     		ldr	r3, [r7, #12]
 1215 004a BA68     		ldr	r2, [r7, #8]
 1216 004c 9A61     		str	r2, [r3, #24]
1184:..\..\..\..\..\..\Software\uCOS-III\Source/os_flag.c ****         p_grp->DbgNextPtr      = DEF_NULL;
 1217              		.loc 1 1184 0
 1218 004e BB68     		ldr	r3, [r7, #8]
 1219 0050 FA68     		ldr	r2, [r7, #12]
 1220 0052 5A61     		str	r2, [r3, #20]
1185:..\..\..\..\..\..\Software\uCOS-III\Source/os_flag.c ****         p_grp->DbgPrevPtr      = DEF_NULL;
 1221              		.loc 1 1185 0
 1222 0054 7B68     		ldr	r3, [r7, #4]
 1223 0056 0022     		movs	r2, #0
 1224 0058 9A61     		str	r2, [r3, #24]
1186:..\..\..\..\..\..\Software\uCOS-III\Source/os_flag.c ****     }
 1225              		.loc 1 1186 0
 1226 005a 7B68     		ldr	r3, [r7, #4]
 1227 005c 0022     		movs	r2, #0
 1228 005e 5A61     		str	r2, [r3, #20]
 1229              	.L88:
 1230              		.loc 1 1188 0
 1231 0060 C046     		nop
 1232 0062 BD46     		mov	sp, r7
 1233 0064 04B0     		add	sp, sp, #16
 1234              		@ sp needed
 1235 0066 80BD     		pop	{r7, pc}
 1236              	.L90:
 1237              		.align	2
 1238              	.L89:
 1239 0068 00000000 		.word	OSFlagDbgListPtr
 1240              		.cfi_endproc
 1241              	.LFE7:
 1242              		.size	OS_FlagDbgListRemove, .-OS_FlagDbgListRemove
 1243              		.section	.text.OS_FlagPost,"ax",%progbits
 1244              		.align	2
 1245              		.global	OS_FlagPost
 1246              		.code	16
 1247              		.thumb_func
 1248              		.type	OS_FlagPost, %function
 1249              	OS_FlagPost:
 1250              	.LFB8:
1189:..\..\..\..\..\..\Software\uCOS-III\Source/os_flag.c **** #endif
1190:..\..\..\..\..\..\Software\uCOS-III\Source/os_flag.c **** 
ARM GAS  C:\Users\ADMINI~1\AppData\Local\Temp\cc0ImMof.s 			page 44


1191:..\..\..\..\..\..\Software\uCOS-III\Source/os_flag.c **** 
1192:..\..\..\..\..\..\Software\uCOS-III\Source/os_flag.c **** /*
1193:..\..\..\..\..\..\Software\uCOS-III\Source/os_flag.c **** ***************************************************************************************************
1194:..\..\..\..\..\..\Software\uCOS-III\Source/os_flag.c **** *                                                POST EVENT FLAG BIT(S)
1195:..\..\..\..\..\..\Software\uCOS-III\Source/os_flag.c **** *
1196:..\..\..\..\..\..\Software\uCOS-III\Source/os_flag.c **** * Description: This function is called to set or clear some bits in an event flag group.  The bits 
1197:..\..\..\..\..\..\Software\uCOS-III\Source/os_flag.c **** *              specified by a 'bit mask'.
1198:..\..\..\..\..\..\Software\uCOS-III\Source/os_flag.c **** *
1199:..\..\..\..\..\..\Software\uCOS-III\Source/os_flag.c **** * Arguments  : p_grp         is a pointer to the desired event flag group.
1200:..\..\..\..\..\..\Software\uCOS-III\Source/os_flag.c **** *
1201:..\..\..\..\..\..\Software\uCOS-III\Source/os_flag.c **** *              flags         If 'opt' (see below) is OS_OPT_POST_FLAG_SET, each bit that is set in 
1202:..\..\..\..\..\..\Software\uCOS-III\Source/os_flag.c **** *                            set the corresponding bit in the event flag group.  e.g. to set bits 0
1203:..\..\..\..\..\..\Software\uCOS-III\Source/os_flag.c **** *                            and 5 you would set 'flags' to:
1204:..\..\..\..\..\..\Software\uCOS-III\Source/os_flag.c **** *
1205:..\..\..\..\..\..\Software\uCOS-III\Source/os_flag.c **** *                                0x31     (note, bit 0 is least significant bit)
1206:..\..\..\..\..\..\Software\uCOS-III\Source/os_flag.c **** *
1207:..\..\..\..\..\..\Software\uCOS-III\Source/os_flag.c **** *                            If 'opt' (see below) is OS_OPT_POST_FLAG_CLR, each bit that is set in 
1208:..\..\..\..\..\..\Software\uCOS-III\Source/os_flag.c **** *                            CLEAR the corresponding bit in the event flag group.  e.g. to clear bi
1209:..\..\..\..\..\..\Software\uCOS-III\Source/os_flag.c **** *                            4 and 5 you would specify 'flags' as:
1210:..\..\..\..\..\..\Software\uCOS-III\Source/os_flag.c **** *
1211:..\..\..\..\..\..\Software\uCOS-III\Source/os_flag.c **** *                                0x31     (note, bit 0 is least significant bit)
1212:..\..\..\..\..\..\Software\uCOS-III\Source/os_flag.c **** *
1213:..\..\..\..\..\..\Software\uCOS-III\Source/os_flag.c **** *              opt           indicates whether the flags will be:
1214:..\..\..\..\..\..\Software\uCOS-III\Source/os_flag.c **** *
1215:..\..\..\..\..\..\Software\uCOS-III\Source/os_flag.c **** *                                OS_OPT_POST_FLAG_SET       set
1216:..\..\..\..\..\..\Software\uCOS-III\Source/os_flag.c **** *                                OS_OPT_POST_FLAG_CLR       cleared
1217:..\..\..\..\..\..\Software\uCOS-III\Source/os_flag.c **** *
1218:..\..\..\..\..\..\Software\uCOS-III\Source/os_flag.c **** *                            you can also 'add' OS_OPT_POST_NO_SCHED to prevent the scheduler from 
1219:..\..\..\..\..\..\Software\uCOS-III\Source/os_flag.c **** *
1220:..\..\..\..\..\..\Software\uCOS-III\Source/os_flag.c **** *              ts            is the timestamp of the post
1221:..\..\..\..\..\..\Software\uCOS-III\Source/os_flag.c **** *
1222:..\..\..\..\..\..\Software\uCOS-III\Source/os_flag.c **** *              p_err         is a pointer to an error code and can be:
1223:..\..\..\..\..\..\Software\uCOS-III\Source/os_flag.c **** *
1224:..\..\..\..\..\..\Software\uCOS-III\Source/os_flag.c **** *                                OS_ERR_NONE                The call was successful
1225:..\..\..\..\..\..\Software\uCOS-III\Source/os_flag.c **** *                                OS_ERR_OBJ_PTR_NULL        You passed a NULL pointer
1226:..\..\..\..\..\..\Software\uCOS-III\Source/os_flag.c **** *                                OS_ERR_OBJ_TYPE            You are not pointing to an event flag g
1227:..\..\..\..\..\..\Software\uCOS-III\Source/os_flag.c **** *                                OS_ERR_FLAG_PEND_OPT       You specified an invalid option
1228:..\..\..\..\..\..\Software\uCOS-III\Source/os_flag.c **** *
1229:..\..\..\..\..\..\Software\uCOS-III\Source/os_flag.c **** * Returns    : the new value of the event flags bits that are still set.
1230:..\..\..\..\..\..\Software\uCOS-III\Source/os_flag.c **** *
1231:..\..\..\..\..\..\Software\uCOS-III\Source/os_flag.c **** * Note(s)    : 1) The execution time of this function depends on the number of tasks waiting on the
1232:..\..\..\..\..\..\Software\uCOS-III\Source/os_flag.c **** ***************************************************************************************************
1233:..\..\..\..\..\..\Software\uCOS-III\Source/os_flag.c **** */
1234:..\..\..\..\..\..\Software\uCOS-III\Source/os_flag.c **** 
1235:..\..\..\..\..\..\Software\uCOS-III\Source/os_flag.c **** OS_FLAGS  OS_FlagPost (OS_FLAG_GRP  *p_grp,
1236:..\..\..\..\..\..\Software\uCOS-III\Source/os_flag.c ****                        OS_FLAGS      flags,
1237:..\..\..\..\..\..\Software\uCOS-III\Source/os_flag.c ****                        OS_OPT        opt,
1238:..\..\..\..\..\..\Software\uCOS-III\Source/os_flag.c ****                        CPU_TS        ts,
1239:..\..\..\..\..\..\Software\uCOS-III\Source/os_flag.c ****                        OS_ERR       *p_err)
1240:..\..\..\..\..\..\Software\uCOS-III\Source/os_flag.c **** {
 1251              		.loc 1 1240 0
 1252              		.cfi_startproc
 1253              		@ args = 4, pretend = 0, frame = 48
 1254              		@ frame_needed = 1, uses_anonymous_args = 0
 1255 0000 80B5     		push	{r7, lr}
 1256              		.cfi_def_cfa_offset 8
 1257              		.cfi_offset 7, -8
ARM GAS  C:\Users\ADMINI~1\AppData\Local\Temp\cc0ImMof.s 			page 45


 1258              		.cfi_offset 14, -4
 1259 0002 8CB0     		sub	sp, sp, #48
 1260              		.cfi_def_cfa_offset 56
 1261 0004 00AF     		add	r7, sp, #0
 1262              		.cfi_def_cfa_register 7
 1263 0006 F860     		str	r0, [r7, #12]
 1264 0008 B960     		str	r1, [r7, #8]
 1265 000a 3B60     		str	r3, [r7]
 1266 000c BB1D     		adds	r3, r7, #6
 1267 000e 1A80     		strh	r2, [r3]
1241:..\..\..\..\..\..\Software\uCOS-III\Source/os_flag.c ****     OS_FLAGS        flags_cur;
1242:..\..\..\..\..\..\Software\uCOS-III\Source/os_flag.c ****     OS_FLAGS        flags_rdy;
1243:..\..\..\..\..\..\Software\uCOS-III\Source/os_flag.c ****     OS_OPT          mode;
1244:..\..\..\..\..\..\Software\uCOS-III\Source/os_flag.c ****     OS_PEND_DATA   *p_pend_data;
1245:..\..\..\..\..\..\Software\uCOS-III\Source/os_flag.c ****     OS_PEND_DATA   *p_pend_data_next;
1246:..\..\..\..\..\..\Software\uCOS-III\Source/os_flag.c ****     OS_PEND_LIST   *p_pend_list;
1247:..\..\..\..\..\..\Software\uCOS-III\Source/os_flag.c ****     OS_TCB         *p_tcb;
1248:..\..\..\..\..\..\Software\uCOS-III\Source/os_flag.c ****     CPU_SR_ALLOC();
 1268              		.loc 1 1248 0
 1269 0010 0023     		movs	r3, #0
 1270 0012 7B62     		str	r3, [r7, #36]
1249:..\..\..\..\..\..\Software\uCOS-III\Source/os_flag.c **** 
1250:..\..\..\..\..\..\Software\uCOS-III\Source/os_flag.c **** 
1251:..\..\..\..\..\..\Software\uCOS-III\Source/os_flag.c **** #if (OS_CFG_TS_EN == DEF_DISABLED)
1252:..\..\..\..\..\..\Software\uCOS-III\Source/os_flag.c ****     (void)ts;                                                   /* Prevent compiler warning for not
1253:..\..\..\..\..\..\Software\uCOS-III\Source/os_flag.c **** #endif
1254:..\..\..\..\..\..\Software\uCOS-III\Source/os_flag.c **** 
1255:..\..\..\..\..\..\Software\uCOS-III\Source/os_flag.c ****     CPU_CRITICAL_ENTER();
 1271              		.loc 1 1255 0
 1272 0014 FFF7FEFF 		bl	CPU_SR_Save
 1273 0018 0300     		movs	r3, r0
 1274 001a 7B62     		str	r3, [r7, #36]
 1275 001c FFF7FEFF 		bl	CPU_IntDisMeasStart
1256:..\..\..\..\..\..\Software\uCOS-III\Source/os_flag.c ****     switch (opt) {
 1276              		.loc 1 1256 0
 1277 0020 BB1D     		adds	r3, r7, #6
 1278 0022 1B88     		ldrh	r3, [r3]
 1279 0024 012B     		cmp	r3, #1
 1280 0026 12D0     		beq	.L93
 1281 0028 02DC     		bgt	.L94
 1282 002a 002B     		cmp	r3, #0
 1283 002c 08D0     		beq	.L95
 1284 002e 16E0     		b	.L92
 1285              	.L94:
 1286 0030 8022     		movs	r2, #128
 1287 0032 1202     		lsls	r2, r2, #8
 1288 0034 9342     		cmp	r3, r2
 1289 0036 03D0     		beq	.L95
 1290 0038 574A     		ldr	r2, .L112
 1291 003a 9342     		cmp	r3, r2
 1292 003c 07D0     		beq	.L93
 1293 003e 0EE0     		b	.L92
 1294              	.L95:
1257:..\..\..\..\..\..\Software\uCOS-III\Source/os_flag.c ****         case OS_OPT_POST_FLAG_SET:
1258:..\..\..\..\..\..\Software\uCOS-III\Source/os_flag.c ****         case OS_OPT_POST_FLAG_SET | OS_OPT_POST_NO_SCHED:
1259:..\..\..\..\..\..\Software\uCOS-III\Source/os_flag.c ****              p_grp->Flags |=  flags;                            /* Set   the flags specified in the
 1295              		.loc 1 1259 0
ARM GAS  C:\Users\ADMINI~1\AppData\Local\Temp\cc0ImMof.s 			page 46


 1296 0040 FB68     		ldr	r3, [r7, #12]
 1297 0042 1A6A     		ldr	r2, [r3, #32]
 1298 0044 BB68     		ldr	r3, [r7, #8]
 1299 0046 1A43     		orrs	r2, r3
 1300 0048 FB68     		ldr	r3, [r7, #12]
 1301 004a 1A62     		str	r2, [r3, #32]
1260:..\..\..\..\..\..\Software\uCOS-III\Source/os_flag.c ****              break;
 1302              		.loc 1 1260 0
 1303 004c 12E0     		b	.L96
 1304              	.L93:
1261:..\..\..\..\..\..\Software\uCOS-III\Source/os_flag.c **** 
1262:..\..\..\..\..\..\Software\uCOS-III\Source/os_flag.c ****         case OS_OPT_POST_FLAG_CLR:
1263:..\..\..\..\..\..\Software\uCOS-III\Source/os_flag.c ****         case OS_OPT_POST_FLAG_CLR | OS_OPT_POST_NO_SCHED:
1264:..\..\..\..\..\..\Software\uCOS-III\Source/os_flag.c ****              p_grp->Flags &= ~flags;                            /* Clear the flags specified in the
 1305              		.loc 1 1264 0
 1306 004e FB68     		ldr	r3, [r7, #12]
 1307 0050 1B6A     		ldr	r3, [r3, #32]
 1308 0052 BA68     		ldr	r2, [r7, #8]
 1309 0054 D243     		mvns	r2, r2
 1310 0056 1A40     		ands	r2, r3
 1311 0058 FB68     		ldr	r3, [r7, #12]
 1312 005a 1A62     		str	r2, [r3, #32]
1265:..\..\..\..\..\..\Software\uCOS-III\Source/os_flag.c ****              break;
 1313              		.loc 1 1265 0
 1314 005c 0AE0     		b	.L96
 1315              	.L92:
1266:..\..\..\..\..\..\Software\uCOS-III\Source/os_flag.c **** 
1267:..\..\..\..\..\..\Software\uCOS-III\Source/os_flag.c ****         default:
1268:..\..\..\..\..\..\Software\uCOS-III\Source/os_flag.c ****              CPU_CRITICAL_EXIT();                               /* INVALID option                  
 1316              		.loc 1 1268 0
 1317 005e FFF7FEFF 		bl	CPU_IntDisMeasStop
 1318 0062 7B6A     		ldr	r3, [r7, #36]
 1319 0064 1800     		movs	r0, r3
 1320 0066 FFF7FEFF 		bl	CPU_SR_Restore
1269:..\..\..\..\..\..\Software\uCOS-III\Source/os_flag.c ****             *p_err = OS_ERR_OPT_INVALID;
 1321              		.loc 1 1269 0
 1322 006a BB6B     		ldr	r3, [r7, #56]
 1323 006c 4B4A     		ldr	r2, .L112+4
 1324 006e 1A80     		strh	r2, [r3]
1270:..\..\..\..\..\..\Software\uCOS-III\Source/os_flag.c ****              return (0u);
 1325              		.loc 1 1270 0
 1326 0070 0023     		movs	r3, #0
 1327 0072 8DE0     		b	.L97
 1328              	.L96:
1271:..\..\..\..\..\..\Software\uCOS-III\Source/os_flag.c ****     }
1272:..\..\..\..\..\..\Software\uCOS-III\Source/os_flag.c **** #if (OS_CFG_TS_EN == DEF_ENABLED)
1273:..\..\..\..\..\..\Software\uCOS-III\Source/os_flag.c ****     p_grp->TS   = ts;
 1329              		.loc 1 1273 0
 1330 0074 FB68     		ldr	r3, [r7, #12]
 1331 0076 3A68     		ldr	r2, [r7]
 1332 0078 5A62     		str	r2, [r3, #36]
1274:..\..\..\..\..\..\Software\uCOS-III\Source/os_flag.c **** #endif
1275:..\..\..\..\..\..\Software\uCOS-III\Source/os_flag.c ****     p_pend_list = &p_grp->PendList;
 1333              		.loc 1 1275 0
 1334 007a FB68     		ldr	r3, [r7, #12]
 1335 007c 0833     		adds	r3, r3, #8
 1336 007e 3B62     		str	r3, [r7, #32]
ARM GAS  C:\Users\ADMINI~1\AppData\Local\Temp\cc0ImMof.s 			page 47


1276:..\..\..\..\..\..\Software\uCOS-III\Source/os_flag.c ****     if (p_pend_list->HeadPtr == DEF_NULL) {                     /* Any task waiting on event flag g
 1337              		.loc 1 1276 0
 1338 0080 3B6A     		ldr	r3, [r7, #32]
 1339 0082 1B68     		ldr	r3, [r3]
 1340 0084 002B     		cmp	r3, #0
 1341 0086 0BD1     		bne	.L98
1277:..\..\..\..\..\..\Software\uCOS-III\Source/os_flag.c ****         CPU_CRITICAL_EXIT();                                    /* No                              
 1342              		.loc 1 1277 0
 1343 0088 FFF7FEFF 		bl	CPU_IntDisMeasStop
 1344 008c 7B6A     		ldr	r3, [r7, #36]
 1345 008e 1800     		movs	r0, r3
 1346 0090 FFF7FEFF 		bl	CPU_SR_Restore
1278:..\..\..\..\..\..\Software\uCOS-III\Source/os_flag.c ****        *p_err = OS_ERR_NONE;
 1347              		.loc 1 1278 0
 1348 0094 BB6B     		ldr	r3, [r7, #56]
 1349 0096 0022     		movs	r2, #0
 1350 0098 1A80     		strh	r2, [r3]
1279:..\..\..\..\..\..\Software\uCOS-III\Source/os_flag.c ****         return (p_grp->Flags);
 1351              		.loc 1 1279 0
 1352 009a FB68     		ldr	r3, [r7, #12]
 1353 009c 1B6A     		ldr	r3, [r3, #32]
 1354 009e 77E0     		b	.L97
 1355              	.L98:
1280:..\..\..\..\..\..\Software\uCOS-III\Source/os_flag.c ****     }
1281:..\..\..\..\..\..\Software\uCOS-III\Source/os_flag.c **** 
1282:..\..\..\..\..\..\Software\uCOS-III\Source/os_flag.c ****     OS_CRITICAL_ENTER_CPU_EXIT();
1283:..\..\..\..\..\..\Software\uCOS-III\Source/os_flag.c ****     p_pend_data = p_pend_list->HeadPtr;
 1356              		.loc 1 1283 0
 1357 00a0 3B6A     		ldr	r3, [r7, #32]
 1358 00a2 1B68     		ldr	r3, [r3]
 1359 00a4 FB62     		str	r3, [r7, #44]
1284:..\..\..\..\..\..\Software\uCOS-III\Source/os_flag.c ****     p_tcb       = p_pend_data->TCBPtr;
 1360              		.loc 1 1284 0
 1361 00a6 FB6A     		ldr	r3, [r7, #44]
 1362 00a8 9B68     		ldr	r3, [r3, #8]
 1363 00aa BB62     		str	r3, [r7, #40]
1285:..\..\..\..\..\..\Software\uCOS-III\Source/os_flag.c ****     while (p_tcb != DEF_NULL) {                                 /* Go through all tasks waiting on 
 1364              		.loc 1 1285 0
 1365 00ac 4DE0     		b	.L99
 1366              	.L107:
1286:..\..\..\..\..\..\Software\uCOS-III\Source/os_flag.c ****         p_pend_data_next = p_pend_data->NextPtr;
 1367              		.loc 1 1286 0
 1368 00ae FB6A     		ldr	r3, [r7, #44]
 1369 00b0 5B68     		ldr	r3, [r3, #4]
 1370 00b2 FB61     		str	r3, [r7, #28]
1287:..\..\..\..\..\..\Software\uCOS-III\Source/os_flag.c ****         mode             = p_tcb->FlagsOpt & OS_OPT_PEND_FLAG_MASK;
 1371              		.loc 1 1287 0
 1372 00b4 BB6A     		ldr	r3, [r7, #40]
 1373 00b6 8422     		movs	r2, #132
 1374 00b8 9A5A     		ldrh	r2, [r3, r2]
 1375 00ba 1A23     		movs	r3, #26
 1376 00bc FB18     		adds	r3, r7, r3
 1377 00be 0F21     		movs	r1, #15
 1378 00c0 0A40     		ands	r2, r1
 1379 00c2 1A80     		strh	r2, [r3]
1288:..\..\..\..\..\..\Software\uCOS-III\Source/os_flag.c ****         switch (mode) {
 1380              		.loc 1 1288 0
ARM GAS  C:\Users\ADMINI~1\AppData\Local\Temp\cc0ImMof.s 			page 48


 1381 00c4 1A23     		movs	r3, #26
 1382 00c6 FB18     		adds	r3, r7, r3
 1383 00c8 1B88     		ldrh	r3, [r3]
 1384 00ca 042B     		cmp	r3, #4
 1385 00cc 02D0     		beq	.L101
 1386 00ce 082B     		cmp	r3, #8
 1387 00d0 12D0     		beq	.L102
 1388 00d2 21E0     		b	.L109
 1389              	.L101:
1289:..\..\..\..\..\..\Software\uCOS-III\Source/os_flag.c ****             case OS_OPT_PEND_FLAG_SET_ALL:                      /* See if all req. flags are set fo
1290:..\..\..\..\..\..\Software\uCOS-III\Source/os_flag.c ****                  flags_rdy = (p_grp->Flags & p_tcb->FlagsPend);
 1390              		.loc 1 1290 0
 1391 00d4 FB68     		ldr	r3, [r7, #12]
 1392 00d6 1A6A     		ldr	r2, [r3, #32]
 1393 00d8 BB6A     		ldr	r3, [r7, #40]
 1394 00da DB6F     		ldr	r3, [r3, #124]
 1395 00dc 1340     		ands	r3, r2
 1396 00de 7B61     		str	r3, [r7, #20]
1291:..\..\..\..\..\..\Software\uCOS-III\Source/os_flag.c ****                  if (flags_rdy == p_tcb->FlagsPend) {
 1397              		.loc 1 1291 0
 1398 00e0 BB6A     		ldr	r3, [r7, #40]
 1399 00e2 DA6F     		ldr	r2, [r3, #124]
 1400 00e4 7B69     		ldr	r3, [r7, #20]
 1401 00e6 9A42     		cmp	r2, r3
 1402 00e8 21D1     		bne	.L110
1292:..\..\..\..\..\..\Software\uCOS-III\Source/os_flag.c ****                      OS_FlagTaskRdy(p_tcb,                      /* Make task RTR, event(s) Rx'd    
 1403              		.loc 1 1292 0
 1404 00ea 3A68     		ldr	r2, [r7]
 1405 00ec 7969     		ldr	r1, [r7, #20]
 1406 00ee BB6A     		ldr	r3, [r7, #40]
 1407 00f0 1800     		movs	r0, r3
 1408 00f2 FFF7FEFF 		bl	OS_FlagTaskRdy
1293:..\..\..\..\..\..\Software\uCOS-III\Source/os_flag.c ****                                     flags_rdy,
1294:..\..\..\..\..\..\Software\uCOS-III\Source/os_flag.c ****                                     ts);
1295:..\..\..\..\..\..\Software\uCOS-III\Source/os_flag.c ****                  }
1296:..\..\..\..\..\..\Software\uCOS-III\Source/os_flag.c ****                  break;
 1409              		.loc 1 1296 0
 1410 00f6 1AE0     		b	.L110
 1411              	.L102:
1297:..\..\..\..\..\..\Software\uCOS-III\Source/os_flag.c **** 
1298:..\..\..\..\..\..\Software\uCOS-III\Source/os_flag.c ****             case OS_OPT_PEND_FLAG_SET_ANY:                      /* See if any flag set             
1299:..\..\..\..\..\..\Software\uCOS-III\Source/os_flag.c ****                  flags_rdy = (p_grp->Flags & p_tcb->FlagsPend);
 1412              		.loc 1 1299 0
 1413 00f8 FB68     		ldr	r3, [r7, #12]
 1414 00fa 1A6A     		ldr	r2, [r3, #32]
 1415 00fc BB6A     		ldr	r3, [r7, #40]
 1416 00fe DB6F     		ldr	r3, [r3, #124]
 1417 0100 1340     		ands	r3, r2
 1418 0102 7B61     		str	r3, [r7, #20]
1300:..\..\..\..\..\..\Software\uCOS-III\Source/os_flag.c ****                  if (flags_rdy != 0u) {
 1419              		.loc 1 1300 0
 1420 0104 7B69     		ldr	r3, [r7, #20]
 1421 0106 002B     		cmp	r3, #0
 1422 0108 13D0     		beq	.L111
1301:..\..\..\..\..\..\Software\uCOS-III\Source/os_flag.c ****                      OS_FlagTaskRdy(p_tcb,                      /* Make task RTR, event(s) Rx'd    
 1423              		.loc 1 1301 0
 1424 010a 3A68     		ldr	r2, [r7]
ARM GAS  C:\Users\ADMINI~1\AppData\Local\Temp\cc0ImMof.s 			page 49


 1425 010c 7969     		ldr	r1, [r7, #20]
 1426 010e BB6A     		ldr	r3, [r7, #40]
 1427 0110 1800     		movs	r0, r3
 1428 0112 FFF7FEFF 		bl	OS_FlagTaskRdy
1302:..\..\..\..\..\..\Software\uCOS-III\Source/os_flag.c ****                                     flags_rdy,
1303:..\..\..\..\..\..\Software\uCOS-III\Source/os_flag.c ****                                     ts);
1304:..\..\..\..\..\..\Software\uCOS-III\Source/os_flag.c ****                  }
1305:..\..\..\..\..\..\Software\uCOS-III\Source/os_flag.c ****                  break;
 1429              		.loc 1 1305 0
 1430 0116 0CE0     		b	.L111
 1431              	.L109:
1306:..\..\..\..\..\..\Software\uCOS-III\Source/os_flag.c **** 
1307:..\..\..\..\..\..\Software\uCOS-III\Source/os_flag.c **** #if (OS_CFG_FLAG_MODE_CLR_EN == DEF_ENABLED)
1308:..\..\..\..\..\..\Software\uCOS-III\Source/os_flag.c ****             case OS_OPT_PEND_FLAG_CLR_ALL:                      /* See if all req. flags are set fo
1309:..\..\..\..\..\..\Software\uCOS-III\Source/os_flag.c ****                  flags_rdy = (OS_FLAGS)(~p_grp->Flags & p_tcb->FlagsPend);
1310:..\..\..\..\..\..\Software\uCOS-III\Source/os_flag.c ****                  if (flags_rdy == p_tcb->FlagsPend) {
1311:..\..\..\..\..\..\Software\uCOS-III\Source/os_flag.c ****                      OS_FlagTaskRdy(p_tcb,                      /* Make task RTR, event(s) Rx'd    
1312:..\..\..\..\..\..\Software\uCOS-III\Source/os_flag.c ****                                     flags_rdy,
1313:..\..\..\..\..\..\Software\uCOS-III\Source/os_flag.c ****                                     ts);
1314:..\..\..\..\..\..\Software\uCOS-III\Source/os_flag.c ****                  }
1315:..\..\..\..\..\..\Software\uCOS-III\Source/os_flag.c ****                  break;
1316:..\..\..\..\..\..\Software\uCOS-III\Source/os_flag.c **** 
1317:..\..\..\..\..\..\Software\uCOS-III\Source/os_flag.c ****             case OS_OPT_PEND_FLAG_CLR_ANY:                      /* See if any flag set             
1318:..\..\..\..\..\..\Software\uCOS-III\Source/os_flag.c ****                  flags_rdy = (OS_FLAGS)(~p_grp->Flags & p_tcb->FlagsPend);
1319:..\..\..\..\..\..\Software\uCOS-III\Source/os_flag.c ****                  if (flags_rdy != 0u) {
1320:..\..\..\..\..\..\Software\uCOS-III\Source/os_flag.c ****                      OS_FlagTaskRdy(p_tcb,                      /* Make task RTR, event(s) Rx'd    
1321:..\..\..\..\..\..\Software\uCOS-III\Source/os_flag.c ****                                     flags_rdy,
1322:..\..\..\..\..\..\Software\uCOS-III\Source/os_flag.c ****                                     ts);
1323:..\..\..\..\..\..\Software\uCOS-III\Source/os_flag.c ****                  }
1324:..\..\..\..\..\..\Software\uCOS-III\Source/os_flag.c ****                  break;
1325:..\..\..\..\..\..\Software\uCOS-III\Source/os_flag.c **** #endif
1326:..\..\..\..\..\..\Software\uCOS-III\Source/os_flag.c ****             default:
1327:..\..\..\..\..\..\Software\uCOS-III\Source/os_flag.c ****                  OS_CRITICAL_EXIT();
 1432              		.loc 1 1327 0
 1433 0118 FFF7FEFF 		bl	CPU_IntDisMeasStop
 1434 011c 7B6A     		ldr	r3, [r7, #36]
 1435 011e 1800     		movs	r0, r3
 1436 0120 FFF7FEFF 		bl	CPU_SR_Restore
1328:..\..\..\..\..\..\Software\uCOS-III\Source/os_flag.c ****                 *p_err = OS_ERR_FLAG_PEND_OPT;
 1437              		.loc 1 1328 0
 1438 0124 BB6B     		ldr	r3, [r7, #56]
 1439 0126 1E4A     		ldr	r2, .L112+8
 1440 0128 1A80     		strh	r2, [r3]
1329:..\..\..\..\..\..\Software\uCOS-III\Source/os_flag.c ****                  return (0u);
 1441              		.loc 1 1329 0
 1442 012a 0023     		movs	r3, #0
 1443 012c 30E0     		b	.L97
 1444              	.L110:
1296:..\..\..\..\..\..\Software\uCOS-III\Source/os_flag.c **** 
 1445              		.loc 1 1296 0
 1446 012e C046     		nop
 1447 0130 00E0     		b	.L104
 1448              	.L111:
1305:..\..\..\..\..\..\Software\uCOS-III\Source/os_flag.c **** 
 1449              		.loc 1 1305 0
 1450 0132 C046     		nop
 1451              	.L104:
ARM GAS  C:\Users\ADMINI~1\AppData\Local\Temp\cc0ImMof.s 			page 50


1330:..\..\..\..\..\..\Software\uCOS-III\Source/os_flag.c ****         }
1331:..\..\..\..\..\..\Software\uCOS-III\Source/os_flag.c ****         p_pend_data = p_pend_data_next;                         /* Point to next task waiting for e
 1452              		.loc 1 1331 0
 1453 0134 FB69     		ldr	r3, [r7, #28]
 1454 0136 FB62     		str	r3, [r7, #44]
1332:..\..\..\..\..\..\Software\uCOS-III\Source/os_flag.c ****         if (p_pend_data != DEF_NULL) {
 1455              		.loc 1 1332 0
 1456 0138 FB6A     		ldr	r3, [r7, #44]
 1457 013a 002B     		cmp	r3, #0
 1458 013c 03D0     		beq	.L106
1333:..\..\..\..\..\..\Software\uCOS-III\Source/os_flag.c ****             p_tcb = p_pend_data->TCBPtr;
 1459              		.loc 1 1333 0
 1460 013e FB6A     		ldr	r3, [r7, #44]
 1461 0140 9B68     		ldr	r3, [r3, #8]
 1462 0142 BB62     		str	r3, [r7, #40]
 1463 0144 01E0     		b	.L99
 1464              	.L106:
1334:..\..\..\..\..\..\Software\uCOS-III\Source/os_flag.c ****         } else {
1335:..\..\..\..\..\..\Software\uCOS-III\Source/os_flag.c ****             p_tcb = DEF_NULL;
 1465              		.loc 1 1335 0
 1466 0146 0023     		movs	r3, #0
 1467 0148 BB62     		str	r3, [r7, #40]
 1468              	.L99:
1285:..\..\..\..\..\..\Software\uCOS-III\Source/os_flag.c ****         p_pend_data_next = p_pend_data->NextPtr;
 1469              		.loc 1 1285 0
 1470 014a BB6A     		ldr	r3, [r7, #40]
 1471 014c 002B     		cmp	r3, #0
 1472 014e AED1     		bne	.L107
1336:..\..\..\..\..\..\Software\uCOS-III\Source/os_flag.c ****         }
1337:..\..\..\..\..\..\Software\uCOS-III\Source/os_flag.c ****     }
1338:..\..\..\..\..\..\Software\uCOS-III\Source/os_flag.c ****     OS_CRITICAL_EXIT_NO_SCHED();
 1473              		.loc 1 1338 0
 1474 0150 FFF7FEFF 		bl	CPU_IntDisMeasStop
 1475 0154 7B6A     		ldr	r3, [r7, #36]
 1476 0156 1800     		movs	r0, r3
 1477 0158 FFF7FEFF 		bl	CPU_SR_Restore
1339:..\..\..\..\..\..\Software\uCOS-III\Source/os_flag.c **** 
1340:..\..\..\..\..\..\Software\uCOS-III\Source/os_flag.c ****     if ((opt & OS_OPT_POST_NO_SCHED) == 0u) {
 1478              		.loc 1 1340 0
 1479 015c BB1D     		adds	r3, r7, #6
 1480 015e 0022     		movs	r2, #0
 1481 0160 9B5E     		ldrsh	r3, [r3, r2]
 1482 0162 002B     		cmp	r3, #0
 1483 0164 01DB     		blt	.L108
1341:..\..\..\..\..\..\Software\uCOS-III\Source/os_flag.c ****         OSSched();
 1484              		.loc 1 1341 0
 1485 0166 FFF7FEFF 		bl	OSSched
 1486              	.L108:
1342:..\..\..\..\..\..\Software\uCOS-III\Source/os_flag.c ****     }
1343:..\..\..\..\..\..\Software\uCOS-III\Source/os_flag.c **** 
1344:..\..\..\..\..\..\Software\uCOS-III\Source/os_flag.c ****     CPU_CRITICAL_ENTER();
 1487              		.loc 1 1344 0
 1488 016a FFF7FEFF 		bl	CPU_SR_Save
 1489 016e 0300     		movs	r3, r0
 1490 0170 7B62     		str	r3, [r7, #36]
 1491 0172 FFF7FEFF 		bl	CPU_IntDisMeasStart
1345:..\..\..\..\..\..\Software\uCOS-III\Source/os_flag.c ****     flags_cur = p_grp->Flags;
ARM GAS  C:\Users\ADMINI~1\AppData\Local\Temp\cc0ImMof.s 			page 51


 1492              		.loc 1 1345 0
 1493 0176 FB68     		ldr	r3, [r7, #12]
 1494 0178 1B6A     		ldr	r3, [r3, #32]
 1495 017a 3B61     		str	r3, [r7, #16]
1346:..\..\..\..\..\..\Software\uCOS-III\Source/os_flag.c ****     CPU_CRITICAL_EXIT();
 1496              		.loc 1 1346 0
 1497 017c FFF7FEFF 		bl	CPU_IntDisMeasStop
 1498 0180 7B6A     		ldr	r3, [r7, #36]
 1499 0182 1800     		movs	r0, r3
 1500 0184 FFF7FEFF 		bl	CPU_SR_Restore
1347:..\..\..\..\..\..\Software\uCOS-III\Source/os_flag.c ****    *p_err     = OS_ERR_NONE;
 1501              		.loc 1 1347 0
 1502 0188 BB6B     		ldr	r3, [r7, #56]
 1503 018a 0022     		movs	r2, #0
 1504 018c 1A80     		strh	r2, [r3]
1348:..\..\..\..\..\..\Software\uCOS-III\Source/os_flag.c ****     return (flags_cur);
 1505              		.loc 1 1348 0
 1506 018e 3B69     		ldr	r3, [r7, #16]
 1507              	.L97:
1349:..\..\..\..\..\..\Software\uCOS-III\Source/os_flag.c **** }
 1508              		.loc 1 1349 0
 1509 0190 1800     		movs	r0, r3
 1510 0192 BD46     		mov	sp, r7
 1511 0194 0CB0     		add	sp, sp, #48
 1512              		@ sp needed
 1513 0196 80BD     		pop	{r7, pc}
 1514              	.L113:
 1515              		.align	2
 1516              	.L112:
 1517 0198 01800000 		.word	32769
 1518 019c 255E0000 		.word	24101
 1519 01a0 FF3A0000 		.word	15103
 1520              		.cfi_endproc
 1521              	.LFE8:
 1522              		.size	OS_FlagPost, .-OS_FlagPost
 1523              		.section	.text.OS_FlagTaskRdy,"ax",%progbits
 1524              		.align	2
 1525              		.global	OS_FlagTaskRdy
 1526              		.code	16
 1527              		.thumb_func
 1528              		.type	OS_FlagTaskRdy, %function
 1529              	OS_FlagTaskRdy:
 1530              	.LFB9:
1350:..\..\..\..\..\..\Software\uCOS-III\Source/os_flag.c **** 
1351:..\..\..\..\..\..\Software\uCOS-III\Source/os_flag.c **** 
1352:..\..\..\..\..\..\Software\uCOS-III\Source/os_flag.c **** /*
1353:..\..\..\..\..\..\Software\uCOS-III\Source/os_flag.c **** ***************************************************************************************************
1354:..\..\..\..\..\..\Software\uCOS-III\Source/os_flag.c **** *                                        MAKE TASK READY-TO-RUN, EVENT(s) OCCURRED
1355:..\..\..\..\..\..\Software\uCOS-III\Source/os_flag.c **** *
1356:..\..\..\..\..\..\Software\uCOS-III\Source/os_flag.c **** * Description: This function is internal to uC/OS-III and is used to make a task ready-to-run becau
1357:..\..\..\..\..\..\Software\uCOS-III\Source/os_flag.c **** *              flag bits have been set.
1358:..\..\..\..\..\..\Software\uCOS-III\Source/os_flag.c **** *
1359:..\..\..\..\..\..\Software\uCOS-III\Source/os_flag.c **** * Arguments  : p_tcb         is a pointer to the OS_TCB of the task to remove
1360:..\..\..\..\..\..\Software\uCOS-III\Source/os_flag.c **** *              -----
1361:..\..\..\..\..\..\Software\uCOS-III\Source/os_flag.c **** *
1362:..\..\..\..\..\..\Software\uCOS-III\Source/os_flag.c **** *              flags_rdy     contains the bit pattern of the event flags that cause the task to bec
1363:..\..\..\..\..\..\Software\uCOS-III\Source/os_flag.c **** *
ARM GAS  C:\Users\ADMINI~1\AppData\Local\Temp\cc0ImMof.s 			page 52


1364:..\..\..\..\..\..\Software\uCOS-III\Source/os_flag.c **** *              ts            is a timestamp associated with the post
1365:..\..\..\..\..\..\Software\uCOS-III\Source/os_flag.c **** *
1366:..\..\..\..\..\..\Software\uCOS-III\Source/os_flag.c **** * Returns    : none
1367:..\..\..\..\..\..\Software\uCOS-III\Source/os_flag.c **** *
1368:..\..\..\..\..\..\Software\uCOS-III\Source/os_flag.c **** * Note(s)    : This function is INTERNAL to uC/OS-III and your application should not call it.
1369:..\..\..\..\..\..\Software\uCOS-III\Source/os_flag.c **** ***************************************************************************************************
1370:..\..\..\..\..\..\Software\uCOS-III\Source/os_flag.c **** */
1371:..\..\..\..\..\..\Software\uCOS-III\Source/os_flag.c **** 
1372:..\..\..\..\..\..\Software\uCOS-III\Source/os_flag.c **** void   OS_FlagTaskRdy (OS_TCB    *p_tcb,
1373:..\..\..\..\..\..\Software\uCOS-III\Source/os_flag.c ****                        OS_FLAGS   flags_rdy,
1374:..\..\..\..\..\..\Software\uCOS-III\Source/os_flag.c ****                        CPU_TS     ts)
1375:..\..\..\..\..\..\Software\uCOS-III\Source/os_flag.c **** {
 1531              		.loc 1 1375 0
 1532              		.cfi_startproc
 1533              		@ args = 0, pretend = 0, frame = 16
 1534              		@ frame_needed = 1, uses_anonymous_args = 0
 1535 0000 80B5     		push	{r7, lr}
 1536              		.cfi_def_cfa_offset 8
 1537              		.cfi_offset 7, -8
 1538              		.cfi_offset 14, -4
 1539 0002 84B0     		sub	sp, sp, #16
 1540              		.cfi_def_cfa_offset 24
 1541 0004 00AF     		add	r7, sp, #0
 1542              		.cfi_def_cfa_register 7
 1543 0006 F860     		str	r0, [r7, #12]
 1544 0008 B960     		str	r1, [r7, #8]
 1545 000a 7A60     		str	r2, [r7, #4]
1376:..\..\..\..\..\..\Software\uCOS-III\Source/os_flag.c **** #if (OS_CFG_TS_EN == DEF_DISABLED)
1377:..\..\..\..\..\..\Software\uCOS-III\Source/os_flag.c ****     (void)ts;                                                   /* Prevent compiler warning for not
1378:..\..\..\..\..\..\Software\uCOS-III\Source/os_flag.c **** #endif
1379:..\..\..\..\..\..\Software\uCOS-III\Source/os_flag.c **** 
1380:..\..\..\..\..\..\Software\uCOS-III\Source/os_flag.c ****     p_tcb->FlagsRdy   = flags_rdy;
 1546              		.loc 1 1380 0
 1547 000c FB68     		ldr	r3, [r7, #12]
 1548 000e 8021     		movs	r1, #128
 1549 0010 BA68     		ldr	r2, [r7, #8]
 1550 0012 5A50     		str	r2, [r3, r1]
1381:..\..\..\..\..\..\Software\uCOS-III\Source/os_flag.c ****     p_tcb->PendStatus = OS_STATUS_PEND_OK;                      /* Clear pend status               
 1551              		.loc 1 1381 0
 1552 0014 FB68     		ldr	r3, [r7, #12]
 1553 0016 3522     		movs	r2, #53
 1554 0018 0021     		movs	r1, #0
 1555 001a 9954     		strb	r1, [r3, r2]
1382:..\..\..\..\..\..\Software\uCOS-III\Source/os_flag.c ****     p_tcb->PendOn     = OS_TASK_PEND_ON_NOTHING;                /* Indicate no longer pending      
 1556              		.loc 1 1382 0
 1557 001c FB68     		ldr	r3, [r7, #12]
 1558 001e 3422     		movs	r2, #52
 1559 0020 0021     		movs	r1, #0
 1560 0022 9954     		strb	r1, [r3, r2]
1383:..\..\..\..\..\..\Software\uCOS-III\Source/os_flag.c **** #if (OS_CFG_TS_EN == DEF_ENABLED)
1384:..\..\..\..\..\..\Software\uCOS-III\Source/os_flag.c ****     p_tcb->TS         = ts;
 1561              		.loc 1 1384 0
 1562 0024 FB68     		ldr	r3, [r7, #12]
 1563 0026 7A68     		ldr	r2, [r7, #4]
 1564 0028 9A64     		str	r2, [r3, #72]
1385:..\..\..\..\..\..\Software\uCOS-III\Source/os_flag.c **** #endif
1386:..\..\..\..\..\..\Software\uCOS-III\Source/os_flag.c ****     switch (p_tcb->TaskState) {
ARM GAS  C:\Users\ADMINI~1\AppData\Local\Temp\cc0ImMof.s 			page 53


 1565              		.loc 1 1386 0
 1566 002a FB68     		ldr	r3, [r7, #12]
 1567 002c 3622     		movs	r2, #54
 1568 002e 9B5C     		ldrb	r3, [r3, r2]
 1569 0030 022B     		cmp	r3, #2
 1570 0032 1CDB     		blt	.L121
 1571 0034 032B     		cmp	r3, #3
 1572 0036 03DD     		ble	.L116
 1573 0038 063B     		subs	r3, r3, #6
 1574 003a 012B     		cmp	r3, #1
 1575 003c 17D8     		bhi	.L121
 1576 003e 11E0     		b	.L120
 1577              	.L116:
1387:..\..\..\..\..\..\Software\uCOS-III\Source/os_flag.c ****         case OS_TASK_STATE_PEND:
1388:..\..\..\..\..\..\Software\uCOS-III\Source/os_flag.c ****         case OS_TASK_STATE_PEND_TIMEOUT:
1389:..\..\..\..\..\..\Software\uCOS-III\Source/os_flag.c **** #if (OS_CFG_TASK_TICK_EN == DEF_ENABLED)
1390:..\..\..\..\..\..\Software\uCOS-III\Source/os_flag.c ****              if (p_tcb->TaskState == OS_TASK_STATE_PEND_TIMEOUT) {
 1578              		.loc 1 1390 0
 1579 0040 FB68     		ldr	r3, [r7, #12]
 1580 0042 3622     		movs	r2, #54
 1581 0044 9B5C     		ldrb	r3, [r3, r2]
 1582 0046 032B     		cmp	r3, #3
 1583 0048 03D1     		bne	.L118
1391:..\..\..\..\..\..\Software\uCOS-III\Source/os_flag.c ****                  OS_TickListRemove(p_tcb);                      /* Remove from tick list           
 1584              		.loc 1 1391 0
 1585 004a FB68     		ldr	r3, [r7, #12]
 1586 004c 1800     		movs	r0, r3
 1587 004e FFF7FEFF 		bl	OS_TickListRemove
 1588              	.L118:
1392:..\..\..\..\..\..\Software\uCOS-III\Source/os_flag.c ****              }
1393:..\..\..\..\..\..\Software\uCOS-III\Source/os_flag.c **** #endif
1394:..\..\..\..\..\..\Software\uCOS-III\Source/os_flag.c ****              OS_RdyListInsert(p_tcb);                           /* Insert the task in the ready lis
 1589              		.loc 1 1394 0
 1590 0052 FB68     		ldr	r3, [r7, #12]
 1591 0054 1800     		movs	r0, r3
 1592 0056 FFF7FEFF 		bl	OS_RdyListInsert
1395:..\..\..\..\..\..\Software\uCOS-III\Source/os_flag.c ****              p_tcb->TaskState = OS_TASK_STATE_RDY;
 1593              		.loc 1 1395 0
 1594 005a FB68     		ldr	r3, [r7, #12]
 1595 005c 3622     		movs	r2, #54
 1596 005e 0021     		movs	r1, #0
 1597 0060 9954     		strb	r1, [r3, r2]
1396:..\..\..\..\..\..\Software\uCOS-III\Source/os_flag.c ****              break;
 1598              		.loc 1 1396 0
 1599 0062 05E0     		b	.L119
 1600              	.L120:
1397:..\..\..\..\..\..\Software\uCOS-III\Source/os_flag.c **** 
1398:..\..\..\..\..\..\Software\uCOS-III\Source/os_flag.c ****         case OS_TASK_STATE_PEND_SUSPENDED:
1399:..\..\..\..\..\..\Software\uCOS-III\Source/os_flag.c ****         case OS_TASK_STATE_PEND_TIMEOUT_SUSPENDED:
1400:..\..\..\..\..\..\Software\uCOS-III\Source/os_flag.c ****              p_tcb->TaskState = OS_TASK_STATE_SUSPENDED;
 1601              		.loc 1 1400 0
 1602 0064 FB68     		ldr	r3, [r7, #12]
 1603 0066 3622     		movs	r2, #54
 1604 0068 0421     		movs	r1, #4
 1605 006a 9954     		strb	r1, [r3, r2]
1401:..\..\..\..\..\..\Software\uCOS-III\Source/os_flag.c ****              break;
 1606              		.loc 1 1401 0
ARM GAS  C:\Users\ADMINI~1\AppData\Local\Temp\cc0ImMof.s 			page 54


 1607 006c 00E0     		b	.L119
 1608              	.L121:
1402:..\..\..\..\..\..\Software\uCOS-III\Source/os_flag.c **** 
1403:..\..\..\..\..\..\Software\uCOS-III\Source/os_flag.c ****         case OS_TASK_STATE_RDY:
1404:..\..\..\..\..\..\Software\uCOS-III\Source/os_flag.c ****         case OS_TASK_STATE_DLY:
1405:..\..\..\..\..\..\Software\uCOS-III\Source/os_flag.c ****         case OS_TASK_STATE_DLY_SUSPENDED:
1406:..\..\..\..\..\..\Software\uCOS-III\Source/os_flag.c ****         case OS_TASK_STATE_SUSPENDED:
1407:..\..\..\..\..\..\Software\uCOS-III\Source/os_flag.c ****         default:
1408:..\..\..\..\..\..\Software\uCOS-III\Source/os_flag.c ****              break;
 1609              		.loc 1 1408 0
 1610 006e C046     		nop
 1611              	.L119:
1409:..\..\..\..\..\..\Software\uCOS-III\Source/os_flag.c ****     }
1410:..\..\..\..\..\..\Software\uCOS-III\Source/os_flag.c ****     OS_PendListRemove(p_tcb);
 1612              		.loc 1 1410 0
 1613 0070 FB68     		ldr	r3, [r7, #12]
 1614 0072 1800     		movs	r0, r3
 1615 0074 FFF7FEFF 		bl	OS_PendListRemove
1411:..\..\..\..\..\..\Software\uCOS-III\Source/os_flag.c **** }
 1616              		.loc 1 1411 0
 1617 0078 C046     		nop
 1618 007a BD46     		mov	sp, r7
 1619 007c 04B0     		add	sp, sp, #16
 1620              		@ sp needed
 1621 007e 80BD     		pop	{r7, pc}
 1622              		.cfi_endproc
 1623              	.LFE9:
 1624              		.size	OS_FlagTaskRdy, .-OS_FlagTaskRdy
 1625              		.text
 1626              	.Letext0:
 1627              		.file 2 "..\\..\\..\\..\\..\\..\\Software\\uC-CPU\\ARM-Cortex-M0\\GNU/cpu.h"
 1628              		.file 3 "..\\..\\..\\..\\..\\..\\Software\\uC-CPU/cpu_core.h"
 1629              		.file 4 "..\\..\\..\\..\\..\\..\\Software\\uCOS-III\\Source\\os_type.h"
 1630              		.file 5 "..\\..\\..\\..\\..\\..\\Software\\uCOS-III\\Source\\os.h"