ARM GAS  C:\Users\ADMINI~1\AppData\Local\Temp\cc0ImMof.s 			page 1


   1              		.syntax unified
   2              		.cpu cortex-m0
   3              		.fpu softvfp
   4              		.eabi_attribute 20, 1
   5              		.eabi_attribute 21, 1
   6              		.eabi_attribute 23, 3
   7              		.eabi_attribute 24, 1
   8              		.eabi_attribute 25, 1
   9              		.eabi_attribute 26, 1
  10              		.eabi_attribute 30, 6
  11              		.eabi_attribute 34, 0
  12              		.eabi_attribute 18, 4
  13              		.thumb
  14              		.syntax unified
  15              		.file	"os_flag.c"
  16              		.text
  17              	.Ltext0:
  18              		.cfi_sections	.debug_frame
  19              		.section	.text.OSFlagCreate,"ax",%progbits
  20              		.align	2
  21              		.global	OSFlagCreate
  22              		.code	16
  23              		.thumb_func
  24              		.type	OSFlagCreate, %function
  25              	OSFlagCreate:
  26              	.LFB0:
  27              		.file 1 "..\\..\\..\\..\\..\\..\\Software\\uCOS-III\\Source\\os_flag.c"
   1:..\..\..\..\..\..\Software\uCOS-III\Source/os_flag.c **** /*
   2:..\..\..\..\..\..\Software\uCOS-III\Source/os_flag.c **** ***************************************************************************************************
   3:..\..\..\..\..\..\Software\uCOS-III\Source/os_flag.c **** *                                                      uC/OS-III
   4:..\..\..\..\..\..\Software\uCOS-III\Source/os_flag.c **** *                                                 The Real-Time Kernel
   5:..\..\..\..\..\..\Software\uCOS-III\Source/os_flag.c **** *
   6:..\..\..\..\..\..\Software\uCOS-III\Source/os_flag.c **** *                                  (c) Copyright 2009-2015; Micrium, Inc.; Weston, FL
   7:..\..\..\..\..\..\Software\uCOS-III\Source/os_flag.c **** *                           All rights reserved.  Protected by international copyright laws.
   8:..\..\..\..\..\..\Software\uCOS-III\Source/os_flag.c **** *
   9:..\..\..\..\..\..\Software\uCOS-III\Source/os_flag.c **** *                                                EVENT FLAG MANAGEMENT
  10:..\..\..\..\..\..\Software\uCOS-III\Source/os_flag.c **** *
  11:..\..\..\..\..\..\Software\uCOS-III\Source/os_flag.c **** * File    : OS_FLAG.C
  12:..\..\..\..\..\..\Software\uCOS-III\Source/os_flag.c **** * By      : JJL
  13:..\..\..\..\..\..\Software\uCOS-III\Source/os_flag.c **** * Version : V3.05.01
  14:..\..\..\..\..\..\Software\uCOS-III\Source/os_flag.c **** *
  15:..\..\..\..\..\..\Software\uCOS-III\Source/os_flag.c **** * LICENSING TERMS:
  16:..\..\..\..\..\..\Software\uCOS-III\Source/os_flag.c **** * ---------------
  17:..\..\..\..\..\..\Software\uCOS-III\Source/os_flag.c **** *           uC/OS-III is provided in source form for FREE short-term evaluation, for educational us
  18:..\..\..\..\..\..\Software\uCOS-III\Source/os_flag.c **** *           for peaceful research.  If you plan or intend to use uC/OS-III in a commercial applicat
  19:..\..\..\..\..\..\Software\uCOS-III\Source/os_flag.c **** *           product then, you need to contact Micrium to properly license uC/OS-III for its use in 
  20:..\..\..\..\..\..\Software\uCOS-III\Source/os_flag.c **** *           application/product.   We provide ALL the source code for your convenience and to help 
  21:..\..\..\..\..\..\Software\uCOS-III\Source/os_flag.c **** *           experience uC/OS-III.  The fact that the source is provided does NOT mean that you can 
  22:..\..\..\..\..\..\Software\uCOS-III\Source/os_flag.c **** *           it commercially without paying a licensing fee.
  23:..\..\..\..\..\..\Software\uCOS-III\Source/os_flag.c **** *
  24:..\..\..\..\..\..\Software\uCOS-III\Source/os_flag.c **** *           Knowledge of the source code may NOT be used to develop a similar product.
  25:..\..\..\..\..\..\Software\uCOS-III\Source/os_flag.c **** *
  26:..\..\..\..\..\..\Software\uCOS-III\Source/os_flag.c **** *           Please help us continue to provide the embedded community with the finest software avai
  27:..\..\..\..\..\..\Software\uCOS-III\Source/os_flag.c **** *           Your honesty is greatly appreciated.
  28:..\..\..\..\..\..\Software\uCOS-III\Source/os_flag.c **** *
  29:..\..\..\..\..\..\Software\uCOS-III\Source/os_flag.c **** *           You can find our product's user manual, API reference, release notes and
  30:..\..\..\..\..\..\Software\uCOS-III\Source/os_flag.c **** *           more information at https://doc.micrium.com.
ARM GAS  C:\Users\ADMINI~1\AppData\Local\Temp\cc0ImMof.s 			page 2


  31:..\..\..\..\..\..\Software\uCOS-III\Source/os_flag.c **** *           You can contact us at www.micrium.com.
  32:..\..\..\..\..\..\Software\uCOS-III\Source/os_flag.c **** ***************************************************************************************************
  33:..\..\..\..\..\..\Software\uCOS-III\Source/os_flag.c **** */
  34:..\..\..\..\..\..\Software\uCOS-III\Source/os_flag.c **** 
  35:..\..\..\..\..\..\Software\uCOS-III\Source/os_flag.c **** #define  MICRIUM_SOURCE
  36:..\..\..\..\..\..\Software\uCOS-III\Source/os_flag.c **** #include "os.h"
  37:..\..\..\..\..\..\Software\uCOS-III\Source/os_flag.c **** 
  38:..\..\..\..\..\..\Software\uCOS-III\Source/os_flag.c **** #ifdef VSC_INCLUDE_SOURCE_FILE_NAMES
  39:..\..\..\..\..\..\Software\uCOS-III\Source/os_flag.c **** const  CPU_CHAR  *os_flag__c = "$Id: $";
  40:..\..\..\..\..\..\Software\uCOS-III\Source/os_flag.c **** #endif
  41:..\..\..\..\..\..\Software\uCOS-III\Source/os_flag.c **** 
  42:..\..\..\..\..\..\Software\uCOS-III\Source/os_flag.c **** 
  43:..\..\..\..\..\..\Software\uCOS-III\Source/os_flag.c **** #if (OS_CFG_FLAG_EN == DEF_ENABLED)
  44:..\..\..\..\..\..\Software\uCOS-III\Source/os_flag.c **** 
  45:..\..\..\..\..\..\Software\uCOS-III\Source/os_flag.c **** /*
  46:..\..\..\..\..\..\Software\uCOS-III\Source/os_flag.c **** ***************************************************************************************************
  47:..\..\..\..\..\..\Software\uCOS-III\Source/os_flag.c **** *                                                 CREATE AN EVENT FLAG
  48:..\..\..\..\..\..\Software\uCOS-III\Source/os_flag.c **** *
  49:..\..\..\..\..\..\Software\uCOS-III\Source/os_flag.c **** * Description: This function is called to create an event flag group.
  50:..\..\..\..\..\..\Software\uCOS-III\Source/os_flag.c **** *
  51:..\..\..\..\..\..\Software\uCOS-III\Source/os_flag.c **** * Arguments  : p_grp          is a pointer to the event flag group to create
  52:..\..\..\..\..\..\Software\uCOS-III\Source/os_flag.c **** *
  53:..\..\..\..\..\..\Software\uCOS-III\Source/os_flag.c **** *              p_name         is the name of the event flag group
  54:..\..\..\..\..\..\Software\uCOS-III\Source/os_flag.c **** *
  55:..\..\..\..\..\..\Software\uCOS-III\Source/os_flag.c **** *              flags          contains the initial value to store in the event flag group (typicall
  56:..\..\..\..\..\..\Software\uCOS-III\Source/os_flag.c **** *
  57:..\..\..\..\..\..\Software\uCOS-III\Source/os_flag.c **** *              p_err          is a pointer to an error code which will be returned to your applicat
  58:..\..\..\..\..\..\Software\uCOS-III\Source/os_flag.c **** *
  59:..\..\..\..\..\..\Software\uCOS-III\Source/os_flag.c **** *                                 OS_ERR_NONE                    If the call was successful
  60:..\..\..\..\..\..\Software\uCOS-III\Source/os_flag.c **** *                                 OS_ERR_CREATE_ISR              If you attempted to create an Even
  61:..\..\..\..\..\..\Software\uCOS-III\Source/os_flag.c **** *                                 OS_ERR_ILLEGAL_CREATE_RUN_TIME If you are trying to create the Ev
  62:..\..\..\..\..\..\Software\uCOS-III\Source/os_flag.c **** *                                                                   called OSStart().
  63:..\..\..\..\..\..\Software\uCOS-III\Source/os_flag.c **** *                                 OS_ERR_OBJ_PTR_NULL            If 'p_grp' is a NULL pointer
  64:..\..\..\..\..\..\Software\uCOS-III\Source/os_flag.c **** *
  65:..\..\..\..\..\..\Software\uCOS-III\Source/os_flag.c **** * Returns    : none
  66:..\..\..\..\..\..\Software\uCOS-III\Source/os_flag.c **** ***************************************************************************************************
  67:..\..\..\..\..\..\Software\uCOS-III\Source/os_flag.c **** */
  68:..\..\..\..\..\..\Software\uCOS-III\Source/os_flag.c **** 
  69:..\..\..\..\..\..\Software\uCOS-III\Source/os_flag.c **** void  OSFlagCreate (OS_FLAG_GRP  *p_grp,
  70:..\..\..\..\..\..\Software\uCOS-III\Source/os_flag.c ****                     CPU_CHAR     *p_name,
  71:..\..\..\..\..\..\Software\uCOS-III\Source/os_flag.c ****                     OS_FLAGS      flags,
  72:..\..\..\..\..\..\Software\uCOS-III\Source/os_flag.c ****                     OS_ERR       *p_err)
  73:..\..\..\..\..\..\Software\uCOS-III\Source/os_flag.c **** {
  28              		.loc 1 73 0
  29              		.cfi_startproc
  30              		@ args = 0, pretend = 0, frame = 24
  31              		@ frame_needed = 1, uses_anonymous_args = 0
  32 0000 80B5     		push	{r7, lr}
  33              		.cfi_def_cfa_offset 8
  34              		.cfi_offset 7, -8
  35              		.cfi_offset 14, -4
  36 0002 86B0     		sub	sp, sp, #24
  37              		.cfi_def_cfa_offset 32
  38 0004 00AF     		add	r7, sp, #0
  39              		.cfi_def_cfa_register 7
  40 0006 F860     		str	r0, [r7, #12]
  41 0008 B960     		str	r1, [r7, #8]
ARM GAS  C:\Users\ADMINI~1\AppData\Local\Temp\cc0ImMof.s 			page 3


  42 000a 7A60     		str	r2, [r7, #4]
  43 000c 3B60     		str	r3, [r7]
  74:..\..\..\..\..\..\Software\uCOS-III\Source/os_flag.c ****     CPU_SR_ALLOC();
  44              		.loc 1 74 0
  45 000e 0023     		movs	r3, #0
  46 0010 7B61     		str	r3, [r7, #20]
  75:..\..\..\..\..\..\Software\uCOS-III\Source/os_flag.c **** 
  76:..\..\..\..\..\..\Software\uCOS-III\Source/os_flag.c **** 
  77:..\..\..\..\..\..\Software\uCOS-III\Source/os_flag.c **** 
  78:..\..\..\..\..\..\Software\uCOS-III\Source/os_flag.c **** #ifdef OS_SAFETY_CRITICAL
  79:..\..\..\..\..\..\Software\uCOS-III\Source/os_flag.c ****     if (p_err == DEF_NULL) {
  80:..\..\..\..\..\..\Software\uCOS-III\Source/os_flag.c ****         OS_SAFETY_CRITICAL_EXCEPTION();
  81:..\..\..\..\..\..\Software\uCOS-III\Source/os_flag.c ****         return;
  82:..\..\..\..\..\..\Software\uCOS-III\Source/os_flag.c ****     }
  83:..\..\..\..\..\..\Software\uCOS-III\Source/os_flag.c **** #endif
  84:..\..\..\..\..\..\Software\uCOS-III\Source/os_flag.c **** 
  85:..\..\..\..\..\..\Software\uCOS-III\Source/os_flag.c **** #ifdef OS_SAFETY_CRITICAL_IEC61508
  86:..\..\..\..\..\..\Software\uCOS-III\Source/os_flag.c ****     if (OSSafetyCriticalStartFlag == DEF_TRUE) {
  87:..\..\..\..\..\..\Software\uCOS-III\Source/os_flag.c ****        *p_err = OS_ERR_ILLEGAL_CREATE_RUN_TIME;
  88:..\..\..\..\..\..\Software\uCOS-III\Source/os_flag.c ****         return;
  89:..\..\..\..\..\..\Software\uCOS-III\Source/os_flag.c ****     }
  90:..\..\..\..\..\..\Software\uCOS-III\Source/os_flag.c **** #endif
  91:..\..\..\..\..\..\Software\uCOS-III\Source/os_flag.c **** 
  92:..\..\..\..\..\..\Software\uCOS-III\Source/os_flag.c **** #if (OS_CFG_CALLED_FROM_ISR_CHK_EN == DEF_ENABLED)
  93:..\..\..\..\..\..\Software\uCOS-III\Source/os_flag.c ****     if (OSIntNestingCtr > 0u) {                                 /* See if called from ISR ...      
  47              		.loc 1 93 0
  48 0012 1E4B     		ldr	r3, .L5
  49 0014 1B78     		ldrb	r3, [r3]
  50 0016 002B     		cmp	r3, #0
  51 0018 03D0     		beq	.L2
  94:..\..\..\..\..\..\Software\uCOS-III\Source/os_flag.c ****        *p_err = OS_ERR_CREATE_ISR;                              /* ... can't CREATE from an ISR    
  52              		.loc 1 94 0
  53 001a 3B68     		ldr	r3, [r7]
  54 001c 1C4A     		ldr	r2, .L5+4
  55 001e 1A80     		strh	r2, [r3]
  95:..\..\..\..\..\..\Software\uCOS-III\Source/os_flag.c ****         return;
  56              		.loc 1 95 0
  57 0020 30E0     		b	.L1
  58              	.L2:
  96:..\..\..\..\..\..\Software\uCOS-III\Source/os_flag.c ****     }
  97:..\..\..\..\..\..\Software\uCOS-III\Source/os_flag.c **** #endif
  98:..\..\..\..\..\..\Software\uCOS-III\Source/os_flag.c **** 
  99:..\..\..\..\..\..\Software\uCOS-III\Source/os_flag.c **** #if (OS_CFG_ARG_CHK_EN == DEF_ENABLED)
 100:..\..\..\..\..\..\Software\uCOS-III\Source/os_flag.c ****     if (p_grp == DEF_NULL) {                                    /* Validate 'p_grp'                
  59              		.loc 1 100 0
  60 0022 FB68     		ldr	r3, [r7, #12]
  61 0024 002B     		cmp	r3, #0
  62 0026 03D1     		bne	.L4
 101:..\..\..\..\..\..\Software\uCOS-III\Source/os_flag.c ****        *p_err = OS_ERR_OBJ_PTR_NULL;
  63              		.loc 1 101 0
  64 0028 3B68     		ldr	r3, [r7]
  65 002a 1A4A     		ldr	r2, .L5+8
  66 002c 1A80     		strh	r2, [r3]
 102:..\..\..\..\..\..\Software\uCOS-III\Source/os_flag.c ****         return;
  67              		.loc 1 102 0
  68 002e 29E0     		b	.L1
  69              	.L4:
ARM GAS  C:\Users\ADMINI~1\AppData\Local\Temp\cc0ImMof.s 			page 4


 103:..\..\..\..\..\..\Software\uCOS-III\Source/os_flag.c ****     }
 104:..\..\..\..\..\..\Software\uCOS-III\Source/os_flag.c **** #endif
 105:..\..\..\..\..\..\Software\uCOS-III\Source/os_flag.c **** 
 106:..\..\..\..\..\..\Software\uCOS-III\Source/os_flag.c ****     OS_CRITICAL_ENTER();
  70              		.loc 1 106 0
  71 0030 FFF7FEFF 		bl	CPU_SR_Save
  72 0034 0300     		movs	r3, r0
  73 0036 7B61     		str	r3, [r7, #20]
  74 0038 FFF7FEFF 		bl	CPU_IntDisMeasStart
 107:..\..\..\..\..\..\Software\uCOS-III\Source/os_flag.c **** #if (OS_OBJ_TYPE_REQ == DEF_ENABLED)
 108:..\..\..\..\..\..\Software\uCOS-III\Source/os_flag.c ****     p_grp->Type    = OS_OBJ_TYPE_FLAG;                          /* Set to event flag group type    
  75              		.loc 1 108 0
  76 003c FB68     		ldr	r3, [r7, #12]
  77 003e 164A     		ldr	r2, .L5+12
  78 0040 1A60     		str	r2, [r3]
 109:..\..\..\..\..\..\Software\uCOS-III\Source/os_flag.c **** #endif
 110:..\..\..\..\..\..\Software\uCOS-III\Source/os_flag.c **** #if (OS_CFG_DBG_EN == DEF_ENABLED)
 111:..\..\..\..\..\..\Software\uCOS-III\Source/os_flag.c ****     p_grp->NamePtr = p_name;
  79              		.loc 1 111 0
  80 0042 FB68     		ldr	r3, [r7, #12]
  81 0044 BA68     		ldr	r2, [r7, #8]
  82 0046 5A60     		str	r2, [r3, #4]
 112:..\..\..\..\..\..\Software\uCOS-III\Source/os_flag.c **** #else
 113:..\..\..\..\..\..\Software\uCOS-III\Source/os_flag.c ****     (void)&p_name;
 114:..\..\..\..\..\..\Software\uCOS-III\Source/os_flag.c **** #endif
 115:..\..\..\..\..\..\Software\uCOS-III\Source/os_flag.c ****     p_grp->Flags   = flags;                                     /* Set to desired initial value    
  83              		.loc 1 115 0
  84 0048 FB68     		ldr	r3, [r7, #12]
  85 004a 7A68     		ldr	r2, [r7, #4]
  86 004c 1A62     		str	r2, [r3, #32]
 116:..\..\..\..\..\..\Software\uCOS-III\Source/os_flag.c **** #if (OS_CFG_TS_EN == DEF_ENABLED)
 117:..\..\..\..\..\..\Software\uCOS-III\Source/os_flag.c ****     p_grp->TS      = 0u;
  87              		.loc 1 117 0
  88 004e FB68     		ldr	r3, [r7, #12]
  89 0050 0022     		movs	r2, #0
  90 0052 5A62     		str	r2, [r3, #36]
 118:..\..\..\..\..\..\Software\uCOS-III\Source/os_flag.c **** #endif
 119:..\..\..\..\..\..\Software\uCOS-III\Source/os_flag.c ****     OS_PendListInit(&p_grp->PendList);
  91              		.loc 1 119 0
  92 0054 FB68     		ldr	r3, [r7, #12]
  93 0056 0833     		adds	r3, r3, #8
  94 0058 1800     		movs	r0, r3
  95 005a FFF7FEFF 		bl	OS_PendListInit
 120:..\..\..\..\..\..\Software\uCOS-III\Source/os_flag.c **** 
 121:..\..\..\..\..\..\Software\uCOS-III\Source/os_flag.c **** #if (OS_CFG_DBG_EN == DEF_ENABLED)
 122:..\..\..\..\..\..\Software\uCOS-III\Source/os_flag.c ****     OS_FlagDbgListAdd(p_grp);
  96              		.loc 1 122 0
  97 005e FB68     		ldr	r3, [r7, #12]
  98 0060 1800     		movs	r0, r3
  99 0062 FFF7FEFF 		bl	OS_FlagDbgListAdd
 123:..\..\..\..\..\..\Software\uCOS-III\Source/os_flag.c ****     OSFlagQty++;
 100              		.loc 1 123 0
 101 0066 0D4B     		ldr	r3, .L5+16
 102 0068 1B88     		ldrh	r3, [r3]
 103 006a 0133     		adds	r3, r3, #1
 104 006c 9AB2     		uxth	r2, r3
 105 006e 0B4B     		ldr	r3, .L5+16
ARM GAS  C:\Users\ADMINI~1\AppData\Local\Temp\cc0ImMof.s 			page 5


 106 0070 1A80     		strh	r2, [r3]
 124:..\..\..\..\..\..\Software\uCOS-III\Source/os_flag.c **** #endif
 125:..\..\..\..\..\..\Software\uCOS-III\Source/os_flag.c **** 
 126:..\..\..\..\..\..\Software\uCOS-III\Source/os_flag.c **** #if (defined(TRACE_CFG_EN) && (TRACE_CFG_EN == DEF_ENABLED))
 127:..\..\..\..\..\..\Software\uCOS-III\Source/os_flag.c ****     TRACE_OS_FLAG_CREATE(p_grp, p_name);                        /* Record the event.               
 128:..\..\..\..\..\..\Software\uCOS-III\Source/os_flag.c **** #endif
 129:..\..\..\..\..\..\Software\uCOS-III\Source/os_flag.c ****     
 130:..\..\..\..\..\..\Software\uCOS-III\Source/os_flag.c ****     OS_CRITICAL_EXIT_NO_SCHED();
 107              		.loc 1 130 0
 108 0072 FFF7FEFF 		bl	CPU_IntDisMeasStop
 109 0076 7B69     		ldr	r3, [r7, #20]
 110 0078 1800     		movs	r0, r3
 111 007a FFF7FEFF 		bl	CPU_SR_Restore
 131:..\..\..\..\..\..\Software\uCOS-III\Source/os_flag.c ****    *p_err = OS_ERR_NONE;
 112              		.loc 1 131 0
 113 007e 3B68     		ldr	r3, [r7]
 114 0080 0022     		movs	r2, #0
 115 0082 1A80     		strh	r2, [r3]
 116              	.L1:
 132:..\..\..\..\..\..\Software\uCOS-III\Source/os_flag.c **** }
 117              		.loc 1 132 0
 118 0084 BD46     		mov	sp, r7
 119 0086 06B0     		add	sp, sp, #24
 120              		@ sp needed
 121 0088 80BD     		pop	{r7, pc}
 122              	.L6:
 123 008a C046     		.align	2
 124              	.L5:
 125 008c 00000000 		.word	OSIntNestingCtr
 126 0090 E12E0000 		.word	12001
 127 0094 C35D0000 		.word	24003
 128 0098 464C4147 		.word	1195461702
 129 009c 00000000 		.word	OSFlagQty
 130              		.cfi_endproc
 131              	.LFE0:
 132              		.size	OSFlagCreate, .-OSFlagCreate
 133              		.section	.text.OSFlagPend,"ax",%progbits
 134              		.align	2
 135              		.global	OSFlagPend
 136              		.code	16
 137              		.thumb_func
 138              		.type	OSFlagPend, %function
 139              	OSFlagPend:
 140              	.LFB1:
 133:..\..\..\..\..\..\Software\uCOS-III\Source/os_flag.c **** 
 134:..\..\..\..\..\..\Software\uCOS-III\Source/os_flag.c **** 
 135:..\..\..\..\..\..\Software\uCOS-III\Source/os_flag.c **** /*
 136:..\..\..\..\..\..\Software\uCOS-III\Source/os_flag.c **** ***************************************************************************************************
 137:..\..\..\..\..\..\Software\uCOS-III\Source/os_flag.c **** *                                             DELETE AN EVENT FLAG GROUP
 138:..\..\..\..\..\..\Software\uCOS-III\Source/os_flag.c **** *
 139:..\..\..\..\..\..\Software\uCOS-III\Source/os_flag.c **** * Description: This function deletes an event flag group and readies all tasks pending on the event
 140:..\..\..\..\..\..\Software\uCOS-III\Source/os_flag.c **** *
 141:..\..\..\..\..\..\Software\uCOS-III\Source/os_flag.c **** * Arguments  : p_grp     is a pointer to the desired event flag group.
 142:..\..\..\..\..\..\Software\uCOS-III\Source/os_flag.c **** *
 143:..\..\..\..\..\..\Software\uCOS-III\Source/os_flag.c **** *              opt       determines delete options as follows:
 144:..\..\..\..\..\..\Software\uCOS-III\Source/os_flag.c **** *
 145:..\..\..\..\..\..\Software\uCOS-III\Source/os_flag.c **** *                            OS_OPT_DEL_NO_PEND           Deletes the event flag group ONLY if no t
ARM GAS  C:\Users\ADMINI~1\AppData\Local\Temp\cc0ImMof.s 			page 6


 146:..\..\..\..\..\..\Software\uCOS-III\Source/os_flag.c **** *                            OS_OPT_DEL_ALWAYS            Deletes the event flag group even if task
 147:..\..\..\..\..\..\Software\uCOS-III\Source/os_flag.c **** *                                                         In this case, all the tasks pending will 
 148:..\..\..\..\..\..\Software\uCOS-III\Source/os_flag.c **** *
 149:..\..\..\..\..\..\Software\uCOS-III\Source/os_flag.c **** *              p_err     is a pointer to an error code that can contain one of the following values
 150:..\..\..\..\..\..\Software\uCOS-III\Source/os_flag.c **** *
 151:..\..\..\..\..\..\Software\uCOS-III\Source/os_flag.c **** *                            OS_ERR_NONE                    The call was successful and the event f
 152:..\..\..\..\..\..\Software\uCOS-III\Source/os_flag.c **** *                            OS_ERR_DEL_ISR                 If you attempted to delete the event fl
 153:..\..\..\..\..\..\Software\uCOS-III\Source/os_flag.c **** *                            OS_ERR_ILLEGAL_DEL_RUN_TIME    If you are trying to delete the event f
 154:..\..\..\..\..\..\Software\uCOS-III\Source/os_flag.c **** *                                                             called OSStart()
 155:..\..\..\..\..\..\Software\uCOS-III\Source/os_flag.c **** *                            OS_ERR_OBJ_PTR_NULL            If 'p_grp' is a NULL pointer
 156:..\..\..\..\..\..\Software\uCOS-III\Source/os_flag.c **** *                            OS_ERR_OBJ_TYPE                If you didn't pass a pointer to an even
 157:..\..\..\..\..\..\Software\uCOS-III\Source/os_flag.c **** *                            OS_ERR_OPT_INVALID             An invalid option was specified
 158:..\..\..\..\..\..\Software\uCOS-III\Source/os_flag.c **** *                            OS_ERR_OS_NOT_RUNNING          If uC/OS-III is not running yet
 159:..\..\..\..\..\..\Software\uCOS-III\Source/os_flag.c **** *                            OS_ERR_TASK_WAITING            One or more tasks were waiting on the e
 160:..\..\..\..\..\..\Software\uCOS-III\Source/os_flag.c **** *
 161:..\..\..\..\..\..\Software\uCOS-III\Source/os_flag.c **** * Returns    : == 0          if no tasks were waiting on the event flag group, or upon error.
 162:..\..\..\..\..\..\Software\uCOS-III\Source/os_flag.c **** *              >  0          if one or more tasks waiting on the event flag group are now readied a
 163:..\..\..\..\..\..\Software\uCOS-III\Source/os_flag.c **** *
 164:..\..\..\..\..\..\Software\uCOS-III\Source/os_flag.c **** * Note(s)    : 1) This function must be used with care.  Tasks that would normally expect the prese
 165:..\..\..\..\..\..\Software\uCOS-III\Source/os_flag.c **** *                 group MUST check the return code of OSFlagPost and OSFlagPend().
 166:..\..\..\..\..\..\Software\uCOS-III\Source/os_flag.c **** ***************************************************************************************************
 167:..\..\..\..\..\..\Software\uCOS-III\Source/os_flag.c **** */
 168:..\..\..\..\..\..\Software\uCOS-III\Source/os_flag.c **** 
 169:..\..\..\..\..\..\Software\uCOS-III\Source/os_flag.c **** #if (OS_CFG_FLAG_DEL_EN == DEF_ENABLED)
 170:..\..\..\..\..\..\Software\uCOS-III\Source/os_flag.c **** OS_OBJ_QTY  OSFlagDel (OS_FLAG_GRP  *p_grp,
 171:..\..\..\..\..\..\Software\uCOS-III\Source/os_flag.c ****                        OS_OPT        opt,
 172:..\..\..\..\..\..\Software\uCOS-III\Source/os_flag.c ****                        OS_ERR       *p_err)
 173:..\..\..\..\..\..\Software\uCOS-III\Source/os_flag.c **** {
 174:..\..\..\..\..\..\Software\uCOS-III\Source/os_flag.c ****     OS_OBJ_QTY        nbr_tasks;
 175:..\..\..\..\..\..\Software\uCOS-III\Source/os_flag.c ****     OS_PEND_DATA     *p_pend_data;
 176:..\..\..\..\..\..\Software\uCOS-III\Source/os_flag.c ****     OS_PEND_LIST     *p_pend_list;
 177:..\..\..\..\..\..\Software\uCOS-III\Source/os_flag.c ****     OS_TCB           *p_tcb;
 178:..\..\..\..\..\..\Software\uCOS-III\Source/os_flag.c ****     CPU_TS            ts;
 179:..\..\..\..\..\..\Software\uCOS-III\Source/os_flag.c ****     CPU_SR_ALLOC();
 180:..\..\..\..\..\..\Software\uCOS-III\Source/os_flag.c **** 
 181:..\..\..\..\..\..\Software\uCOS-III\Source/os_flag.c **** 
 182:..\..\..\..\..\..\Software\uCOS-III\Source/os_flag.c **** 
 183:..\..\..\..\..\..\Software\uCOS-III\Source/os_flag.c **** #ifdef OS_SAFETY_CRITICAL
 184:..\..\..\..\..\..\Software\uCOS-III\Source/os_flag.c ****     if (p_err == DEF_NULL) {
 185:..\..\..\..\..\..\Software\uCOS-III\Source/os_flag.c ****         OS_SAFETY_CRITICAL_EXCEPTION();
 186:..\..\..\..\..\..\Software\uCOS-III\Source/os_flag.c ****         return (0u);
 187:..\..\..\..\..\..\Software\uCOS-III\Source/os_flag.c ****     }
 188:..\..\..\..\..\..\Software\uCOS-III\Source/os_flag.c **** #endif
 189:..\..\..\..\..\..\Software\uCOS-III\Source/os_flag.c **** 
 190:..\..\..\..\..\..\Software\uCOS-III\Source/os_flag.c **** #ifdef OS_SAFETY_CRITICAL_IEC61508
 191:..\..\..\..\..\..\Software\uCOS-III\Source/os_flag.c ****     if (OSSafetyCriticalStartFlag == DEF_TRUE) {
 192:..\..\..\..\..\..\Software\uCOS-III\Source/os_flag.c ****        *p_err = OS_ERR_ILLEGAL_DEL_RUN_TIME;
 193:..\..\..\..\..\..\Software\uCOS-III\Source/os_flag.c ****         return (0u);
 194:..\..\..\..\..\..\Software\uCOS-III\Source/os_flag.c ****     }
 195:..\..\..\..\..\..\Software\uCOS-III\Source/os_flag.c **** #endif
 196:..\..\..\..\..\..\Software\uCOS-III\Source/os_flag.c **** 
 197:..\..\..\..\..\..\Software\uCOS-III\Source/os_flag.c **** #if (OS_CFG_CALLED_FROM_ISR_CHK_EN == DEF_ENABLED)
 198:..\..\..\..\..\..\Software\uCOS-III\Source/os_flag.c ****     if (OSIntNestingCtr > 0u) {                                 /* See if called from ISR ...      
 199:..\..\..\..\..\..\Software\uCOS-III\Source/os_flag.c ****        *p_err = OS_ERR_DEL_ISR;                                 /* ... can't DELETE from an ISR    
 200:..\..\..\..\..\..\Software\uCOS-III\Source/os_flag.c ****         return (0u);
 201:..\..\..\..\..\..\Software\uCOS-III\Source/os_flag.c ****     }
 202:..\..\..\..\..\..\Software\uCOS-III\Source/os_flag.c **** #endif
ARM GAS  C:\Users\ADMINI~1\AppData\Local\Temp\cc0ImMof.s 			page 7


 203:..\..\..\..\..\..\Software\uCOS-III\Source/os_flag.c **** 
 204:..\..\..\..\..\..\Software\uCOS-III\Source/os_flag.c **** #if (OS_CFG_INVALID_OS_CALLS_CHK_EN == DEF_ENABLED)             /* Is the kernel running?.         
 205:..\..\..\..\..\..\Software\uCOS-III\Source/os_flag.c ****     if (OSRunning != OS_STATE_OS_RUNNING) {
 206:..\..\..\..\..\..\Software\uCOS-III\Source/os_flag.c ****        *p_err = OS_ERR_OS_NOT_RUNNING;
 207:..\..\..\..\..\..\Software\uCOS-III\Source/os_flag.c ****         return (0u);
 208:..\..\..\..\..\..\Software\uCOS-III\Source/os_flag.c ****     }
 209:..\..\..\..\..\..\Software\uCOS-III\Source/os_flag.c **** #endif
 210:..\..\..\..\..\..\Software\uCOS-III\Source/os_flag.c **** 
 211:..\..\..\..\..\..\Software\uCOS-III\Source/os_flag.c **** #if (OS_CFG_ARG_CHK_EN == DEF_ENABLED)
 212:..\..\..\..\..\..\Software\uCOS-III\Source/os_flag.c ****     if (p_grp == DEF_NULL) {                                    /* Validate 'p_grp'                
 213:..\..\..\..\..\..\Software\uCOS-III\Source/os_flag.c ****        *p_err  = OS_ERR_OBJ_PTR_NULL;
 214:..\..\..\..\..\..\Software\uCOS-III\Source/os_flag.c ****         return (0u);
 215:..\..\..\..\..\..\Software\uCOS-III\Source/os_flag.c ****     }
 216:..\..\..\..\..\..\Software\uCOS-III\Source/os_flag.c **** #endif
 217:..\..\..\..\..\..\Software\uCOS-III\Source/os_flag.c **** 
 218:..\..\..\..\..\..\Software\uCOS-III\Source/os_flag.c **** #if (OS_CFG_OBJ_TYPE_CHK_EN == DEF_ENABLED)
 219:..\..\..\..\..\..\Software\uCOS-III\Source/os_flag.c ****     if (p_grp->Type != OS_OBJ_TYPE_FLAG) {                      /* Validate event group object     
 220:..\..\..\..\..\..\Software\uCOS-III\Source/os_flag.c ****        *p_err = OS_ERR_OBJ_TYPE;
 221:..\..\..\..\..\..\Software\uCOS-III\Source/os_flag.c ****         return (0u);
 222:..\..\..\..\..\..\Software\uCOS-III\Source/os_flag.c ****     }
 223:..\..\..\..\..\..\Software\uCOS-III\Source/os_flag.c **** #endif
 224:..\..\..\..\..\..\Software\uCOS-III\Source/os_flag.c ****     OS_CRITICAL_ENTER();
 225:..\..\..\..\..\..\Software\uCOS-III\Source/os_flag.c ****     p_pend_list = &p_grp->PendList;
 226:..\..\..\..\..\..\Software\uCOS-III\Source/os_flag.c ****     nbr_tasks   = 0u;
 227:..\..\..\..\..\..\Software\uCOS-III\Source/os_flag.c ****     switch (opt) {
 228:..\..\..\..\..\..\Software\uCOS-III\Source/os_flag.c ****         case OS_OPT_DEL_NO_PEND:                                /* Delete group if no task waiting 
 229:..\..\..\..\..\..\Software\uCOS-III\Source/os_flag.c ****              if (p_pend_list->HeadPtr == DEF_NULL) {
 230:..\..\..\..\..\..\Software\uCOS-III\Source/os_flag.c **** #if (OS_CFG_DBG_EN == DEF_ENABLED)
 231:..\..\..\..\..\..\Software\uCOS-III\Source/os_flag.c ****                  OS_FlagDbgListRemove(p_grp);
 232:..\..\..\..\..\..\Software\uCOS-III\Source/os_flag.c ****                  OSFlagQty--;
 233:..\..\..\..\..\..\Software\uCOS-III\Source/os_flag.c **** #endif
 234:..\..\..\..\..\..\Software\uCOS-III\Source/os_flag.c **** #if (defined(TRACE_CFG_EN) && (TRACE_CFG_EN == DEF_ENABLED))
 235:..\..\..\..\..\..\Software\uCOS-III\Source/os_flag.c ****                  TRACE_OS_FLAG_DEL(p_grp);                      /* Record the event.               
 236:..\..\..\..\..\..\Software\uCOS-III\Source/os_flag.c **** #endif
 237:..\..\..\..\..\..\Software\uCOS-III\Source/os_flag.c ****                  OS_FlagClr(p_grp);
 238:..\..\..\..\..\..\Software\uCOS-III\Source/os_flag.c **** 
 239:..\..\..\..\..\..\Software\uCOS-III\Source/os_flag.c ****                  OS_CRITICAL_EXIT();
 240:..\..\..\..\..\..\Software\uCOS-III\Source/os_flag.c **** 
 241:..\..\..\..\..\..\Software\uCOS-III\Source/os_flag.c ****                 *p_err = OS_ERR_NONE;
 242:..\..\..\..\..\..\Software\uCOS-III\Source/os_flag.c ****              } else {
 243:..\..\..\..\..\..\Software\uCOS-III\Source/os_flag.c ****                  OS_CRITICAL_EXIT();
 244:..\..\..\..\..\..\Software\uCOS-III\Source/os_flag.c ****                 *p_err = OS_ERR_TASK_WAITING;
 245:..\..\..\..\..\..\Software\uCOS-III\Source/os_flag.c ****              }
 246:..\..\..\..\..\..\Software\uCOS-III\Source/os_flag.c ****              break;
 247:..\..\..\..\..\..\Software\uCOS-III\Source/os_flag.c **** 
 248:..\..\..\..\..\..\Software\uCOS-III\Source/os_flag.c ****         case OS_OPT_DEL_ALWAYS:                                 /* Always delete the event flag gro
 249:..\..\..\..\..\..\Software\uCOS-III\Source/os_flag.c **** #if (OS_CFG_TS_EN == DEF_ENABLED)
 250:..\..\..\..\..\..\Software\uCOS-III\Source/os_flag.c ****              ts = OS_TS_GET();                                  /* Get local time stamp so all task
 251:..\..\..\..\..\..\Software\uCOS-III\Source/os_flag.c **** #else
 252:..\..\..\..\..\..\Software\uCOS-III\Source/os_flag.c ****              ts = 0u;
 253:..\..\..\..\..\..\Software\uCOS-III\Source/os_flag.c **** #endif
 254:..\..\..\..\..\..\Software\uCOS-III\Source/os_flag.c ****              while (p_pend_list->HeadPtr != DEF_NULL) {         /* Remove all tasks from the pend l
 255:..\..\..\..\..\..\Software\uCOS-III\Source/os_flag.c ****                  p_pend_data = p_pend_list->HeadPtr;
 256:..\..\..\..\..\..\Software\uCOS-III\Source/os_flag.c ****                  p_tcb       = p_pend_data->TCBPtr;
 257:..\..\..\..\..\..\Software\uCOS-III\Source/os_flag.c ****                  OS_PendObjDel((OS_PEND_OBJ *)((void *)p_grp),
 258:..\..\..\..\..\..\Software\uCOS-III\Source/os_flag.c ****                                p_tcb,
 259:..\..\..\..\..\..\Software\uCOS-III\Source/os_flag.c ****                                ts);
ARM GAS  C:\Users\ADMINI~1\AppData\Local\Temp\cc0ImMof.s 			page 8


 260:..\..\..\..\..\..\Software\uCOS-III\Source/os_flag.c ****                  nbr_tasks++;
 261:..\..\..\..\..\..\Software\uCOS-III\Source/os_flag.c ****              }
 262:..\..\..\..\..\..\Software\uCOS-III\Source/os_flag.c **** #if (OS_CFG_DBG_EN == DEF_ENABLED)
 263:..\..\..\..\..\..\Software\uCOS-III\Source/os_flag.c ****              OS_FlagDbgListRemove(p_grp);
 264:..\..\..\..\..\..\Software\uCOS-III\Source/os_flag.c ****              OSFlagQty--;
 265:..\..\..\..\..\..\Software\uCOS-III\Source/os_flag.c **** #endif
 266:..\..\..\..\..\..\Software\uCOS-III\Source/os_flag.c **** #if (defined(TRACE_CFG_EN) && (TRACE_CFG_EN == DEF_ENABLED))
 267:..\..\..\..\..\..\Software\uCOS-III\Source/os_flag.c ****              TRACE_OS_FLAG_DEL(p_grp);                          /* Record the event.               
 268:..\..\..\..\..\..\Software\uCOS-III\Source/os_flag.c **** #endif
 269:..\..\..\..\..\..\Software\uCOS-III\Source/os_flag.c ****              OS_FlagClr(p_grp);
 270:..\..\..\..\..\..\Software\uCOS-III\Source/os_flag.c ****              OS_CRITICAL_EXIT_NO_SCHED();
 271:..\..\..\..\..\..\Software\uCOS-III\Source/os_flag.c **** 
 272:..\..\..\..\..\..\Software\uCOS-III\Source/os_flag.c ****              OSSched();                                         /* Find highest priority task ready
 273:..\..\..\..\..\..\Software\uCOS-III\Source/os_flag.c ****             *p_err = OS_ERR_NONE;
 274:..\..\..\..\..\..\Software\uCOS-III\Source/os_flag.c ****              break;
 275:..\..\..\..\..\..\Software\uCOS-III\Source/os_flag.c **** 
 276:..\..\..\..\..\..\Software\uCOS-III\Source/os_flag.c ****         default:
 277:..\..\..\..\..\..\Software\uCOS-III\Source/os_flag.c ****              OS_CRITICAL_EXIT();
 278:..\..\..\..\..\..\Software\uCOS-III\Source/os_flag.c ****             *p_err = OS_ERR_OPT_INVALID;
 279:..\..\..\..\..\..\Software\uCOS-III\Source/os_flag.c ****              break;
 280:..\..\..\..\..\..\Software\uCOS-III\Source/os_flag.c ****     }
 281:..\..\..\..\..\..\Software\uCOS-III\Source/os_flag.c ****     return (nbr_tasks);
 282:..\..\..\..\..\..\Software\uCOS-III\Source/os_flag.c **** }
 283:..\..\..\..\..\..\Software\uCOS-III\Source/os_flag.c **** #endif
 284:..\..\..\..\..\..\Software\uCOS-III\Source/os_flag.c **** 
 285:..\..\..\..\..\..\Software\uCOS-III\Source/os_flag.c **** /*
 286:..\..\..\..\..\..\Software\uCOS-III\Source/os_flag.c **** ***************************************************************************************************
 287:..\..\..\..\..\..\Software\uCOS-III\Source/os_flag.c **** *                                             WAIT ON AN EVENT FLAG GROUP
 288:..\..\..\..\..\..\Software\uCOS-III\Source/os_flag.c **** *
 289:..\..\..\..\..\..\Software\uCOS-III\Source/os_flag.c **** * Description: This function is called to wait for a combination of bits to be set in an event flag
 290:..\..\..\..\..\..\Software\uCOS-III\Source/os_flag.c **** *              application can wait for ANY bit to be set or ALL bits to be set.
 291:..\..\..\..\..\..\Software\uCOS-III\Source/os_flag.c **** *
 292:..\..\..\..\..\..\Software\uCOS-III\Source/os_flag.c **** * Arguments  : p_grp         is a pointer to the desired event flag group.
 293:..\..\..\..\..\..\Software\uCOS-III\Source/os_flag.c **** *
 294:..\..\..\..\..\..\Software\uCOS-III\Source/os_flag.c **** *              flags         Is a bit pattern indicating which bit(s) (i.e. flags) you wish to wait
 295:..\..\..\..\..\..\Software\uCOS-III\Source/os_flag.c **** *                            The bits you want are specified by setting the corresponding bits in '
 296:..\..\..\..\..\..\Software\uCOS-III\Source/os_flag.c **** *                            e.g. if your application wants to wait for bits 0 and 1 then 'flags' w
 297:..\..\..\..\..\..\Software\uCOS-III\Source/os_flag.c **** *
 298:..\..\..\..\..\..\Software\uCOS-III\Source/os_flag.c **** *              timeout       is an optional timeout (in clock ticks) that your task will wait for t
 299:..\..\..\..\..\..\Software\uCOS-III\Source/os_flag.c **** *                            desired bit combination.  If you specify 0, however, your task will wa
 300:..\..\..\..\..\..\Software\uCOS-III\Source/os_flag.c **** *                            forever at the specified event flag group or, until a message arrives.
 301:..\..\..\..\..\..\Software\uCOS-III\Source/os_flag.c **** *
 302:..\..\..\..\..\..\Software\uCOS-III\Source/os_flag.c **** *              opt           specifies whether you want ALL bits to be set or ANY of the bits to be
 303:..\..\..\..\..\..\Software\uCOS-III\Source/os_flag.c **** *                            You can specify the 'ONE' of the following arguments:
 304:..\..\..\..\..\..\Software\uCOS-III\Source/os_flag.c **** *
 305:..\..\..\..\..\..\Software\uCOS-III\Source/os_flag.c **** *                                OS_OPT_PEND_FLAG_CLR_ALL   You will wait for ALL bits in 'flags' t
 306:..\..\..\..\..\..\Software\uCOS-III\Source/os_flag.c **** *                                OS_OPT_PEND_FLAG_CLR_ANY   You will wait for ANY bit  in 'flags' t
 307:..\..\..\..\..\..\Software\uCOS-III\Source/os_flag.c **** *                                OS_OPT_PEND_FLAG_SET_ALL   You will wait for ALL bits in 'flags' t
 308:..\..\..\..\..\..\Software\uCOS-III\Source/os_flag.c **** *                                OS_OPT_PEND_FLAG_SET_ANY   You will wait for ANY bit  in 'flags' t
 309:..\..\..\..\..\..\Software\uCOS-III\Source/os_flag.c **** *
 310:..\..\..\..\..\..\Software\uCOS-III\Source/os_flag.c **** *                            You can 'ADD' OS_OPT_PEND_FLAG_CONSUME if you want the event flag to b
 311:..\..\..\..\..\..\Software\uCOS-III\Source/os_flag.c **** *                                      the call.  Example, to wait for any flag in a group AND then
 312:..\..\..\..\..\..\Software\uCOS-III\Source/os_flag.c **** *                                      the flags that are present, set 'wait_opt' to:
 313:..\..\..\..\..\..\Software\uCOS-III\Source/os_flag.c **** *
 314:..\..\..\..\..\..\Software\uCOS-III\Source/os_flag.c **** *                                      OS_OPT_PEND_FLAG_SET_ANY + OS_OPT_PEND_FLAG_CONSUME
 315:..\..\..\..\..\..\Software\uCOS-III\Source/os_flag.c **** *
 316:..\..\..\..\..\..\Software\uCOS-III\Source/os_flag.c **** *                            You can also 'ADD' the type of pend with 'ONE' of the two option:
ARM GAS  C:\Users\ADMINI~1\AppData\Local\Temp\cc0ImMof.s 			page 9


 317:..\..\..\..\..\..\Software\uCOS-III\Source/os_flag.c **** *
 318:..\..\..\..\..\..\Software\uCOS-III\Source/os_flag.c **** *                                OS_OPT_PEND_NON_BLOCKING   Task will NOT block if flags are not av
 319:..\..\..\..\..\..\Software\uCOS-III\Source/os_flag.c **** *                                OS_OPT_PEND_BLOCKING       Task will     block if flags are not av
 320:..\..\..\..\..\..\Software\uCOS-III\Source/os_flag.c **** *
 321:..\..\..\..\..\..\Software\uCOS-III\Source/os_flag.c **** *              p_ts          is a pointer to a variable that will receive the timestamp of when the
 322:..\..\..\..\..\..\Software\uCOS-III\Source/os_flag.c **** *                            posted, aborted or the event flag group deleted.  If you pass a NULL p
 323:..\..\..\..\..\..\Software\uCOS-III\Source/os_flag.c **** *                            then you will not get the timestamp.  In other words, passing a NULL p
 324:..\..\..\..\..\..\Software\uCOS-III\Source/os_flag.c **** *                            indicates that you don't need the timestamp.
 325:..\..\..\..\..\..\Software\uCOS-III\Source/os_flag.c **** *
 326:..\..\..\..\..\..\Software\uCOS-III\Source/os_flag.c **** *              p_err         is a pointer to an error code and can be:
 327:..\..\..\..\..\..\Software\uCOS-III\Source/os_flag.c **** *
 328:..\..\..\..\..\..\Software\uCOS-III\Source/os_flag.c **** *                                OS_ERR_NONE                The desired bits have been set within t
 329:..\..\..\..\..\..\Software\uCOS-III\Source/os_flag.c **** *                                OS_ERR_OBJ_DEL             If the event group was deleted
 330:..\..\..\..\..\..\Software\uCOS-III\Source/os_flag.c **** *                                OS_ERR_OBJ_PTR_NULL        If 'p_grp' is a NULL pointer.
 331:..\..\..\..\..\..\Software\uCOS-III\Source/os_flag.c **** *                                OS_ERR_OBJ_TYPE            You are not pointing to an event flag g
 332:..\..\..\..\..\..\Software\uCOS-III\Source/os_flag.c **** *                                OS_ERR_OPT_INVALID         You didn't specify a proper 'opt' argum
 333:..\..\..\..\..\..\Software\uCOS-III\Source/os_flag.c **** *                                OS_ERR_OS_NOT_RUNNING      If uC/OS-III is not running yet
 334:..\..\..\..\..\..\Software\uCOS-III\Source/os_flag.c **** *                                OS_ERR_PEND_ABORT          The wait on the flag was aborted
 335:..\..\..\..\..\..\Software\uCOS-III\Source/os_flag.c **** *                                OS_ERR_PEND_ISR            If you tried to PEND from an ISR
 336:..\..\..\..\..\..\Software\uCOS-III\Source/os_flag.c **** *                                OS_ERR_PEND_WOULD_BLOCK    If you specified non-blocking but the f
 337:..\..\..\..\..\..\Software\uCOS-III\Source/os_flag.c **** *                                                           available
 338:..\..\..\..\..\..\Software\uCOS-III\Source/os_flag.c **** *                                OS_ERR_SCHED_LOCKED        If you called this function when the sc
 339:..\..\..\..\..\..\Software\uCOS-III\Source/os_flag.c **** *                                OS_ERR_STATUS_INVALID      If the pend status has an invalid value
 340:..\..\..\..\..\..\Software\uCOS-III\Source/os_flag.c **** *                                OS_ERR_TIMEOUT             The bit(s) have not been set in the spe
 341:..\..\..\..\..\..\Software\uCOS-III\Source/os_flag.c **** *
 342:..\..\..\..\..\..\Software\uCOS-III\Source/os_flag.c **** * Returns    : The flags in the event flag group that made the task ready or, 0 if a timeout or an 
 343:..\..\..\..\..\..\Software\uCOS-III\Source/os_flag.c **** *              occurred.
 344:..\..\..\..\..\..\Software\uCOS-III\Source/os_flag.c **** *
 345:..\..\..\..\..\..\Software\uCOS-III\Source/os_flag.c **** * Note(s)    : none
 346:..\..\..\..\..\..\Software\uCOS-III\Source/os_flag.c **** ***************************************************************************************************
 347:..\..\..\..\..\..\Software\uCOS-III\Source/os_flag.c **** */
 348:..\..\..\..\..\..\Software\uCOS-III\Source/os_flag.c **** 
 349:..\..\..\..\..\..\Software\uCOS-III\Source/os_flag.c **** OS_FLAGS  OSFlagPend (OS_FLAG_GRP  *p_grp,
 350:..\..\..\..\..\..\Software\uCOS-III\Source/os_flag.c ****                       OS_FLAGS      flags,
 351:..\..\..\..\..\..\Software\uCOS-III\Source/os_flag.c ****                       OS_TICK       timeout,
 352:..\..\..\..\..\..\Software\uCOS-III\Source/os_flag.c ****                       OS_OPT        opt,
 353:..\..\..\..\..\..\Software\uCOS-III\Source/os_flag.c ****                       CPU_TS       *p_ts,
 354:..\..\..\..\..\..\Software\uCOS-III\Source/os_flag.c ****                       OS_ERR       *p_err)
 355:..\..\..\..\..\..\Software\uCOS-III\Source/os_flag.c **** {
 141              		.loc 1 355 0
 142              		.cfi_startproc
 143              		@ args = 8, pretend = 0, frame = 64
 144              		@ frame_needed = 1, uses_anonymous_args = 0
 145 0000 90B5     		push	{r4, r7, lr}
 146              		.cfi_def_cfa_offset 12
 147              		.cfi_offset 4, -12
 148              		.cfi_offset 7, -8
 149              		.cfi_offset 14, -4
 150 0002 93B0     		sub	sp, sp, #76
 151              		.cfi_def_cfa_offset 88
 152 0004 02AF     		add	r7, sp, #8
 153              		.cfi_def_cfa 7, 80
 154 0006 F860     		str	r0, [r7, #12]
 155 0008 B960     		str	r1, [r7, #8]
 156 000a 7A60     		str	r2, [r7, #4]
 157 000c 1A00     		movs	r2, r3
 158 000e BB1C     		adds	r3, r7, #2
ARM GAS  C:\Users\ADMINI~1\AppData\Local\Temp\cc0ImMof.s 			page 10


 159 0010 1A80     		strh	r2, [r3]
 356:..\..\..\..\..\..\Software\uCOS-III\Source/os_flag.c ****     CPU_BOOLEAN   consume;
 357:..\..\..\..\..\..\Software\uCOS-III\Source/os_flag.c ****     OS_FLAGS      flags_rdy;
 358:..\..\..\..\..\..\Software\uCOS-III\Source/os_flag.c ****     OS_OPT        mode;
 359:..\..\..\..\..\..\Software\uCOS-III\Source/os_flag.c ****     OS_PEND_DATA  pend_data;
 360:..\..\..\..\..\..\Software\uCOS-III\Source/os_flag.c ****     CPU_SR_ALLOC();
 160              		.loc 1 360 0
 161 0012 0023     		movs	r3, #0
 162 0014 BB63     		str	r3, [r7, #56]
 361:..\..\..\..\..\..\Software\uCOS-III\Source/os_flag.c **** 
 362:..\..\..\..\..\..\Software\uCOS-III\Source/os_flag.c **** 
 363:..\..\..\..\..\..\Software\uCOS-III\Source/os_flag.c **** #ifdef OS_SAFETY_CRITICAL
 364:..\..\..\..\..\..\Software\uCOS-III\Source/os_flag.c ****     if (p_err == DEF_NULL) {
 365:..\..\..\..\..\..\Software\uCOS-III\Source/os_flag.c ****         OS_SAFETY_CRITICAL_EXCEPTION();
 366:..\..\..\..\..\..\Software\uCOS-III\Source/os_flag.c ****         return (0u);
 367:..\..\..\..\..\..\Software\uCOS-III\Source/os_flag.c ****     }
 368:..\..\..\..\..\..\Software\uCOS-III\Source/os_flag.c **** #endif
 369:..\..\..\..\..\..\Software\uCOS-III\Source/os_flag.c **** 
 370:..\..\..\..\..\..\Software\uCOS-III\Source/os_flag.c **** #if (OS_CFG_CALLED_FROM_ISR_CHK_EN == DEF_ENABLED)
 371:..\..\..\..\..\..\Software\uCOS-III\Source/os_flag.c ****     if (OSIntNestingCtr > 0u) {                                 /* See if called from ISR ...      
 163              		.loc 1 371 0
 164 0016 BD4B     		ldr	r3, .L54
 165 0018 1B78     		ldrb	r3, [r3]
 166 001a 002B     		cmp	r3, #0
 167 001c 04D0     		beq	.L8
 372:..\..\..\..\..\..\Software\uCOS-III\Source/os_flag.c **** #if (defined(TRACE_CFG_EN) && (TRACE_CFG_EN == DEF_ENABLED))
 373:..\..\..\..\..\..\Software\uCOS-III\Source/os_flag.c ****         TRACE_OS_FLAG_PEND_FAILED(p_grp);                       /* Record the event.               
 374:..\..\..\..\..\..\Software\uCOS-III\Source/os_flag.c **** #endif
 375:..\..\..\..\..\..\Software\uCOS-III\Source/os_flag.c ****        *p_err = OS_ERR_PEND_ISR;                                /* ... can't PEND from an ISR      
 168              		.loc 1 375 0
 169 001e 7B6D     		ldr	r3, [r7, #84]
 170 0020 BB4A     		ldr	r2, .L54+4
 171 0022 1A80     		strh	r2, [r3]
 376:..\..\..\..\..\..\Software\uCOS-III\Source/os_flag.c ****         return ((OS_FLAGS)0);
 172              		.loc 1 376 0
 173 0024 0023     		movs	r3, #0
 174 0026 F1E1     		b	.L50
 175              	.L8:
 377:..\..\..\..\..\..\Software\uCOS-III\Source/os_flag.c ****     }
 378:..\..\..\..\..\..\Software\uCOS-III\Source/os_flag.c **** #endif
 379:..\..\..\..\..\..\Software\uCOS-III\Source/os_flag.c **** 
 380:..\..\..\..\..\..\Software\uCOS-III\Source/os_flag.c **** #if (OS_CFG_INVALID_OS_CALLS_CHK_EN == DEF_ENABLED)             /* Is the kernel running?          
 381:..\..\..\..\..\..\Software\uCOS-III\Source/os_flag.c ****     if (OSRunning != OS_STATE_OS_RUNNING) {
 382:..\..\..\..\..\..\Software\uCOS-III\Source/os_flag.c ****        *p_err = OS_ERR_OS_NOT_RUNNING;
 383:..\..\..\..\..\..\Software\uCOS-III\Source/os_flag.c ****         return (0u);
 384:..\..\..\..\..\..\Software\uCOS-III\Source/os_flag.c ****     }
 385:..\..\..\..\..\..\Software\uCOS-III\Source/os_flag.c **** #endif
 386:..\..\..\..\..\..\Software\uCOS-III\Source/os_flag.c **** 
 387:..\..\..\..\..\..\Software\uCOS-III\Source/os_flag.c **** #if (OS_CFG_ARG_CHK_EN == DEF_ENABLED)
 388:..\..\..\..\..\..\Software\uCOS-III\Source/os_flag.c ****     if (p_grp == DEF_NULL) {                                    /* Validate 'p_grp'                
 176              		.loc 1 388 0
 177 0028 FB68     		ldr	r3, [r7, #12]
 178 002a 002B     		cmp	r3, #0
 179 002c 04D1     		bne	.L10
 389:..\..\..\..\..\..\Software\uCOS-III\Source/os_flag.c **** #if (defined(TRACE_CFG_EN) && (TRACE_CFG_EN == DEF_ENABLED))
 390:..\..\..\..\..\..\Software\uCOS-III\Source/os_flag.c ****         TRACE_OS_FLAG_PEND_FAILED(p_grp);                       /* Record the event.               
 391:..\..\..\..\..\..\Software\uCOS-III\Source/os_flag.c **** #endif
ARM GAS  C:\Users\ADMINI~1\AppData\Local\Temp\cc0ImMof.s 			page 11


 392:..\..\..\..\..\..\Software\uCOS-III\Source/os_flag.c ****        *p_err = OS_ERR_OBJ_PTR_NULL;
 180              		.loc 1 392 0
 181 002e 7B6D     		ldr	r3, [r7, #84]
 182 0030 B84A     		ldr	r2, .L54+8
 183 0032 1A80     		strh	r2, [r3]
 393:..\..\..\..\..\..\Software\uCOS-III\Source/os_flag.c ****         return (0u);
 184              		.loc 1 393 0
 185 0034 0023     		movs	r3, #0
 186 0036 E9E1     		b	.L50
 187              	.L10:
 394:..\..\..\..\..\..\Software\uCOS-III\Source/os_flag.c ****     }
 395:..\..\..\..\..\..\Software\uCOS-III\Source/os_flag.c ****     switch (opt) {                                              /* Validate 'opt'                  
 188              		.loc 1 395 0
 189 0038 BB1C     		adds	r3, r7, #2
 190 003a 1B88     		ldrh	r3, [r3]
 191 003c 8422     		movs	r2, #132
 192 003e 5200     		lsls	r2, r2, #1
 193 0040 9342     		cmp	r3, r2
 194 0042 3ED0     		beq	.L53
 195 0044 8422     		movs	r2, #132
 196 0046 5200     		lsls	r2, r2, #1
 197 0048 9342     		cmp	r3, r2
 198 004a 16DC     		bgt	.L13
 199 004c 082B     		cmp	r3, #8
 200 004e 38D0     		beq	.L53
 201 0050 06DC     		bgt	.L14
 202 0052 012B     		cmp	r3, #1
 203 0054 30DB     		blt	.L11
 204 0056 022B     		cmp	r3, #2
 205 0058 33DD     		ble	.L53
 206 005a 042B     		cmp	r3, #4
 207 005c 31D0     		beq	.L53
 208 005e 2BE0     		b	.L11
 209              	.L14:
 210 0060 0222     		movs	r2, #2
 211 0062 FF32     		adds	r2, r2, #255
 212 0064 9342     		cmp	r3, r2
 213 0066 27DB     		blt	.L11
 214 0068 8122     		movs	r2, #129
 215 006a 5200     		lsls	r2, r2, #1
 216 006c 9342     		cmp	r3, r2
 217 006e 28DD     		ble	.L53
 218 0070 8222     		movs	r2, #130
 219 0072 5200     		lsls	r2, r2, #1
 220 0074 9342     		cmp	r3, r2
 221 0076 24D0     		beq	.L53
 222 0078 1EE0     		b	.L11
 223              	.L13:
 224 007a A74A     		ldr	r2, .L54+12
 225 007c 9342     		cmp	r3, r2
 226 007e 20D0     		beq	.L53
 227 0080 A54A     		ldr	r2, .L54+12
 228 0082 9342     		cmp	r3, r2
 229 0084 09DC     		bgt	.L15
 230 0086 A54A     		ldr	r2, .L54+16
 231 0088 9342     		cmp	r3, r2
 232 008a 15DB     		blt	.L11
ARM GAS  C:\Users\ADMINI~1\AppData\Local\Temp\cc0ImMof.s 			page 12


 233 008c A44A     		ldr	r2, .L54+20
 234 008e 9342     		cmp	r3, r2
 235 0090 17DD     		ble	.L53
 236 0092 A44A     		ldr	r2, .L54+24
 237 0094 9342     		cmp	r3, r2
 238 0096 14D0     		beq	.L53
 239 0098 0EE0     		b	.L11
 240              	.L15:
 241 009a A34A     		ldr	r2, .L54+28
 242 009c 9342     		cmp	r3, r2
 243 009e 10D0     		beq	.L53
 244 00a0 A14A     		ldr	r2, .L54+28
 245 00a2 9342     		cmp	r3, r2
 246 00a4 05DC     		bgt	.L16
 247 00a6 A14A     		ldr	r2, .L54+32
 248 00a8 9446     		mov	ip, r2
 249 00aa 6344     		add	r3, r3, ip
 250 00ac 012B     		cmp	r3, #1
 251 00ae 03D8     		bhi	.L11
 396:..\..\..\..\..\..\Software\uCOS-III\Source/os_flag.c ****         case OS_OPT_PEND_FLAG_CLR_ALL:
 397:..\..\..\..\..\..\Software\uCOS-III\Source/os_flag.c ****         case OS_OPT_PEND_FLAG_CLR_ANY:
 398:..\..\..\..\..\..\Software\uCOS-III\Source/os_flag.c ****         case OS_OPT_PEND_FLAG_SET_ALL:
 399:..\..\..\..\..\..\Software\uCOS-III\Source/os_flag.c ****         case OS_OPT_PEND_FLAG_SET_ANY:
 400:..\..\..\..\..\..\Software\uCOS-III\Source/os_flag.c ****         case OS_OPT_PEND_FLAG_CLR_ALL | OS_OPT_PEND_FLAG_CONSUME:
 401:..\..\..\..\..\..\Software\uCOS-III\Source/os_flag.c ****         case OS_OPT_PEND_FLAG_CLR_ANY | OS_OPT_PEND_FLAG_CONSUME:
 402:..\..\..\..\..\..\Software\uCOS-III\Source/os_flag.c ****         case OS_OPT_PEND_FLAG_SET_ALL | OS_OPT_PEND_FLAG_CONSUME:
 403:..\..\..\..\..\..\Software\uCOS-III\Source/os_flag.c ****         case OS_OPT_PEND_FLAG_SET_ANY | OS_OPT_PEND_FLAG_CONSUME:
 404:..\..\..\..\..\..\Software\uCOS-III\Source/os_flag.c ****         case OS_OPT_PEND_FLAG_CLR_ALL | OS_OPT_PEND_NON_BLOCKING:
 405:..\..\..\..\..\..\Software\uCOS-III\Source/os_flag.c ****         case OS_OPT_PEND_FLAG_CLR_ANY | OS_OPT_PEND_NON_BLOCKING:
 406:..\..\..\..\..\..\Software\uCOS-III\Source/os_flag.c ****         case OS_OPT_PEND_FLAG_SET_ALL | OS_OPT_PEND_NON_BLOCKING:
 407:..\..\..\..\..\..\Software\uCOS-III\Source/os_flag.c ****         case OS_OPT_PEND_FLAG_SET_ANY | OS_OPT_PEND_NON_BLOCKING:
 408:..\..\..\..\..\..\Software\uCOS-III\Source/os_flag.c ****         case OS_OPT_PEND_FLAG_CLR_ALL | OS_OPT_PEND_FLAG_CONSUME | OS_OPT_PEND_NON_BLOCKING:
 409:..\..\..\..\..\..\Software\uCOS-III\Source/os_flag.c ****         case OS_OPT_PEND_FLAG_CLR_ANY | OS_OPT_PEND_FLAG_CONSUME | OS_OPT_PEND_NON_BLOCKING:
 410:..\..\..\..\..\..\Software\uCOS-III\Source/os_flag.c ****         case OS_OPT_PEND_FLAG_SET_ALL | OS_OPT_PEND_FLAG_CONSUME | OS_OPT_PEND_NON_BLOCKING:
 411:..\..\..\..\..\..\Software\uCOS-III\Source/os_flag.c ****         case OS_OPT_PEND_FLAG_SET_ANY | OS_OPT_PEND_FLAG_CONSUME | OS_OPT_PEND_NON_BLOCKING:
 412:..\..\..\..\..\..\Software\uCOS-III\Source/os_flag.c ****              break;
 252              		.loc 1 412 0
 253 00b0 07E0     		b	.L53
 254              	.L16:
 395:..\..\..\..\..\..\Software\uCOS-III\Source/os_flag.c ****         case OS_OPT_PEND_FLAG_CLR_ALL:
 255              		.loc 1 395 0
 256 00b2 9F4A     		ldr	r2, .L54+36
 257 00b4 9342     		cmp	r3, r2
 258 00b6 04D0     		beq	.L53
 259              	.L11:
 413:..\..\..\..\..\..\Software\uCOS-III\Source/os_flag.c **** 
 414:..\..\..\..\..\..\Software\uCOS-III\Source/os_flag.c ****         default:
 415:..\..\..\..\..\..\Software\uCOS-III\Source/os_flag.c **** #if (defined(TRACE_CFG_EN) && (TRACE_CFG_EN == DEF_ENABLED))
 416:..\..\..\..\..\..\Software\uCOS-III\Source/os_flag.c ****              TRACE_OS_FLAG_PEND_FAILED(p_grp);                  /* Record the event.               
 417:..\..\..\..\..\..\Software\uCOS-III\Source/os_flag.c **** #endif
 418:..\..\..\..\..\..\Software\uCOS-III\Source/os_flag.c ****             *p_err = OS_ERR_OPT_INVALID;
 260              		.loc 1 418 0
 261 00b8 7B6D     		ldr	r3, [r7, #84]
 262 00ba 9E4A     		ldr	r2, .L54+40
 263 00bc 1A80     		strh	r2, [r3]
 419:..\..\..\..\..\..\Software\uCOS-III\Source/os_flag.c ****              return (0u);
 264              		.loc 1 419 0
ARM GAS  C:\Users\ADMINI~1\AppData\Local\Temp\cc0ImMof.s 			page 13


 265 00be 0023     		movs	r3, #0
 266 00c0 A4E1     		b	.L50
 267              	.L53:
 412:..\..\..\..\..\..\Software\uCOS-III\Source/os_flag.c **** 
 268              		.loc 1 412 0
 269 00c2 C046     		nop
 420:..\..\..\..\..\..\Software\uCOS-III\Source/os_flag.c ****     }
 421:..\..\..\..\..\..\Software\uCOS-III\Source/os_flag.c **** #endif
 422:..\..\..\..\..\..\Software\uCOS-III\Source/os_flag.c **** 
 423:..\..\..\..\..\..\Software\uCOS-III\Source/os_flag.c **** #if (OS_CFG_OBJ_TYPE_CHK_EN == DEF_ENABLED)
 424:..\..\..\..\..\..\Software\uCOS-III\Source/os_flag.c ****     if (p_grp->Type != OS_OBJ_TYPE_FLAG) {                      /* Validate that we are pointing at
 425:..\..\..\..\..\..\Software\uCOS-III\Source/os_flag.c **** #if (defined(TRACE_CFG_EN) && (TRACE_CFG_EN == DEF_ENABLED))
 426:..\..\..\..\..\..\Software\uCOS-III\Source/os_flag.c ****         TRACE_OS_FLAG_PEND_FAILED(p_grp);                       /* Record the event.               
 427:..\..\..\..\..\..\Software\uCOS-III\Source/os_flag.c **** #endif
 428:..\..\..\..\..\..\Software\uCOS-III\Source/os_flag.c ****        *p_err = OS_ERR_OBJ_TYPE;
 429:..\..\..\..\..\..\Software\uCOS-III\Source/os_flag.c ****         return (0u);
 430:..\..\..\..\..\..\Software\uCOS-III\Source/os_flag.c ****     }
 431:..\..\..\..\..\..\Software\uCOS-III\Source/os_flag.c **** #endif
 432:..\..\..\..\..\..\Software\uCOS-III\Source/os_flag.c **** 
 433:..\..\..\..\..\..\Software\uCOS-III\Source/os_flag.c ****     if ((opt & OS_OPT_PEND_FLAG_CONSUME) != 0u) {               /* See if we need to consume the fl
 270              		.loc 1 433 0
 271 00c4 BB1C     		adds	r3, r7, #2
 272 00c6 1A88     		ldrh	r2, [r3]
 273 00c8 8023     		movs	r3, #128
 274 00ca 5B00     		lsls	r3, r3, #1
 275 00cc 1340     		ands	r3, r2
 276 00ce 04D0     		beq	.L18
 434:..\..\..\..\..\..\Software\uCOS-III\Source/os_flag.c ****         consume = DEF_TRUE;
 277              		.loc 1 434 0
 278 00d0 3F23     		movs	r3, #63
 279 00d2 FB18     		adds	r3, r7, r3
 280 00d4 0122     		movs	r2, #1
 281 00d6 1A70     		strb	r2, [r3]
 282 00d8 03E0     		b	.L19
 283              	.L18:
 435:..\..\..\..\..\..\Software\uCOS-III\Source/os_flag.c ****     } else {
 436:..\..\..\..\..\..\Software\uCOS-III\Source/os_flag.c ****         consume = DEF_FALSE;
 284              		.loc 1 436 0
 285 00da 3F23     		movs	r3, #63
 286 00dc FB18     		adds	r3, r7, r3
 287 00de 0022     		movs	r2, #0
 288 00e0 1A70     		strb	r2, [r3]
 289              	.L19:
 437:..\..\..\..\..\..\Software\uCOS-III\Source/os_flag.c ****     }
 438:..\..\..\..\..\..\Software\uCOS-III\Source/os_flag.c **** 
 439:..\..\..\..\..\..\Software\uCOS-III\Source/os_flag.c ****     if (p_ts != DEF_NULL) {
 290              		.loc 1 439 0
 291 00e2 3B6D     		ldr	r3, [r7, #80]
 292 00e4 002B     		cmp	r3, #0
 293 00e6 02D0     		beq	.L20
 440:..\..\..\..\..\..\Software\uCOS-III\Source/os_flag.c ****        *p_ts = 0u;                                              /* Initialize the returned timestam
 294              		.loc 1 440 0
 295 00e8 3B6D     		ldr	r3, [r7, #80]
 296 00ea 0022     		movs	r2, #0
 297 00ec 1A60     		str	r2, [r3]
 298              	.L20:
 441:..\..\..\..\..\..\Software\uCOS-III\Source/os_flag.c ****     }
ARM GAS  C:\Users\ADMINI~1\AppData\Local\Temp\cc0ImMof.s 			page 14


 442:..\..\..\..\..\..\Software\uCOS-III\Source/os_flag.c **** 
 443:..\..\..\..\..\..\Software\uCOS-III\Source/os_flag.c ****     mode = opt & OS_OPT_PEND_FLAG_MASK;
 299              		.loc 1 443 0
 300 00ee 3623     		movs	r3, #54
 301 00f0 FB18     		adds	r3, r7, r3
 302 00f2 BA1C     		adds	r2, r7, #2
 303 00f4 1288     		ldrh	r2, [r2]
 304 00f6 0F21     		movs	r1, #15
 305 00f8 0A40     		ands	r2, r1
 306 00fa 1A80     		strh	r2, [r3]
 444:..\..\..\..\..\..\Software\uCOS-III\Source/os_flag.c ****     CPU_CRITICAL_ENTER();
 307              		.loc 1 444 0
 308 00fc FFF7FEFF 		bl	CPU_SR_Save
 309 0100 0300     		movs	r3, r0
 310 0102 BB63     		str	r3, [r7, #56]
 311 0104 FFF7FEFF 		bl	CPU_IntDisMeasStart
 445:..\..\..\..\..\..\Software\uCOS-III\Source/os_flag.c ****     switch (mode) {
 312              		.loc 1 445 0
 313 0108 3623     		movs	r3, #54
 314 010a FB18     		adds	r3, r7, r3
 315 010c 1B88     		ldrh	r3, [r3]
 316 010e 042B     		cmp	r3, #4
 317 0110 02D0     		beq	.L22
 318 0112 082B     		cmp	r3, #8
 319 0114 5DD0     		beq	.L23
 320 0116 B8E0     		b	.L51
 321              	.L22:
 446:..\..\..\..\..\..\Software\uCOS-III\Source/os_flag.c ****         case OS_OPT_PEND_FLAG_SET_ALL:                          /* See if all required flags are se
 447:..\..\..\..\..\..\Software\uCOS-III\Source/os_flag.c ****              flags_rdy = (p_grp->Flags & flags);                /* Extract only the bits we want   
 322              		.loc 1 447 0
 323 0118 FB68     		ldr	r3, [r7, #12]
 324 011a 1B6A     		ldr	r3, [r3, #32]
 325 011c BA68     		ldr	r2, [r7, #8]
 326 011e 1340     		ands	r3, r2
 327 0120 3B63     		str	r3, [r7, #48]
 448:..\..\..\..\..\..\Software\uCOS-III\Source/os_flag.c ****              if (flags_rdy == flags) {                          /* Must match ALL the bits that we 
 328              		.loc 1 448 0
 329 0122 3A6B     		ldr	r2, [r7, #48]
 330 0124 BB68     		ldr	r3, [r7, #8]
 331 0126 9A42     		cmp	r2, r3
 332 0128 22D1     		bne	.L24
 449:..\..\..\..\..\..\Software\uCOS-III\Source/os_flag.c ****                  if (consume == DEF_TRUE) {                     /* See if we need to consume the fl
 333              		.loc 1 449 0
 334 012a 3F23     		movs	r3, #63
 335 012c FB18     		adds	r3, r7, r3
 336 012e 1B78     		ldrb	r3, [r3]
 337 0130 012B     		cmp	r3, #1
 338 0132 06D1     		bne	.L25
 450:..\..\..\..\..\..\Software\uCOS-III\Source/os_flag.c ****                      p_grp->Flags &= ~flags_rdy;                /* Clear ONLY the flags that we wan
 339              		.loc 1 450 0
 340 0134 FB68     		ldr	r3, [r7, #12]
 341 0136 1B6A     		ldr	r3, [r3, #32]
 342 0138 3A6B     		ldr	r2, [r7, #48]
 343 013a D243     		mvns	r2, r2
 344 013c 1A40     		ands	r2, r3
 345 013e FB68     		ldr	r3, [r7, #12]
 346 0140 1A62     		str	r2, [r3, #32]
ARM GAS  C:\Users\ADMINI~1\AppData\Local\Temp\cc0ImMof.s 			page 15


 347              	.L25:
 451:..\..\..\..\..\..\Software\uCOS-III\Source/os_flag.c ****                  }
 452:..\..\..\..\..\..\Software\uCOS-III\Source/os_flag.c ****                  OSTCBCurPtr->FlagsRdy = flags_rdy;             /* Save flags that were ready      
 348              		.loc 1 452 0
 349 0142 7D4B     		ldr	r3, .L54+44
 350 0144 1B68     		ldr	r3, [r3]
 351 0146 8021     		movs	r1, #128
 352 0148 3A6B     		ldr	r2, [r7, #48]
 353 014a 5A50     		str	r2, [r3, r1]
 453:..\..\..\..\..\..\Software\uCOS-III\Source/os_flag.c **** #if (OS_CFG_TS_EN == DEF_ENABLED)
 454:..\..\..\..\..\..\Software\uCOS-III\Source/os_flag.c ****                  if (p_ts != DEF_NULL) {
 354              		.loc 1 454 0
 355 014c 3B6D     		ldr	r3, [r7, #80]
 356 014e 002B     		cmp	r3, #0
 357 0150 03D0     		beq	.L26
 455:..\..\..\..\..\..\Software\uCOS-III\Source/os_flag.c ****                     *p_ts = p_grp->TS;
 358              		.loc 1 455 0
 359 0152 FB68     		ldr	r3, [r7, #12]
 360 0154 5A6A     		ldr	r2, [r3, #36]
 361 0156 3B6D     		ldr	r3, [r7, #80]
 362 0158 1A60     		str	r2, [r3]
 363              	.L26:
 456:..\..\..\..\..\..\Software\uCOS-III\Source/os_flag.c ****                  }
 457:..\..\..\..\..\..\Software\uCOS-III\Source/os_flag.c **** #endif
 458:..\..\..\..\..\..\Software\uCOS-III\Source/os_flag.c ****                  CPU_CRITICAL_EXIT();                           /* Yes, condition met, return to ca
 364              		.loc 1 458 0
 365 015a FFF7FEFF 		bl	CPU_IntDisMeasStop
 366 015e BB6B     		ldr	r3, [r7, #56]
 367 0160 1800     		movs	r0, r3
 368 0162 FFF7FEFF 		bl	CPU_SR_Restore
 459:..\..\..\..\..\..\Software\uCOS-III\Source/os_flag.c **** #if (defined(TRACE_CFG_EN) && (TRACE_CFG_EN == DEF_ENABLED))
 460:..\..\..\..\..\..\Software\uCOS-III\Source/os_flag.c ****                  TRACE_OS_FLAG_PEND(p_grp);                     /* Record the event.               
 461:..\..\..\..\..\..\Software\uCOS-III\Source/os_flag.c **** #endif
 462:..\..\..\..\..\..\Software\uCOS-III\Source/os_flag.c ****                 *p_err = OS_ERR_NONE;
 369              		.loc 1 462 0
 370 0166 7B6D     		ldr	r3, [r7, #84]
 371 0168 0022     		movs	r2, #0
 372 016a 1A80     		strh	r2, [r3]
 463:..\..\..\..\..\..\Software\uCOS-III\Source/os_flag.c ****                  return (flags_rdy);
 373              		.loc 1 463 0
 374 016c 3B6B     		ldr	r3, [r7, #48]
 375 016e 4DE1     		b	.L50
 376              	.L24:
 464:..\..\..\..\..\..\Software\uCOS-III\Source/os_flag.c ****              } else {                                           /* Block task until events occur or
 465:..\..\..\..\..\..\Software\uCOS-III\Source/os_flag.c ****                  if ((opt & OS_OPT_PEND_NON_BLOCKING) != 0u) {
 377              		.loc 1 465 0
 378 0170 BB1C     		adds	r3, r7, #2
 379 0172 0022     		movs	r2, #0
 380 0174 9B5E     		ldrsh	r3, [r3, r2]
 381 0176 002B     		cmp	r3, #0
 382 0178 0ADA     		bge	.L27
 466:..\..\..\..\..\..\Software\uCOS-III\Source/os_flag.c ****                      CPU_CRITICAL_EXIT();
 383              		.loc 1 466 0
 384 017a FFF7FEFF 		bl	CPU_IntDisMeasStop
 385 017e BB6B     		ldr	r3, [r7, #56]
 386 0180 1800     		movs	r0, r3
 387 0182 FFF7FEFF 		bl	CPU_SR_Restore
ARM GAS  C:\Users\ADMINI~1\AppData\Local\Temp\cc0ImMof.s 			page 16


 467:..\..\..\..\..\..\Software\uCOS-III\Source/os_flag.c **** #if (defined(TRACE_CFG_EN) && (TRACE_CFG_EN == DEF_ENABLED))
 468:..\..\..\..\..\..\Software\uCOS-III\Source/os_flag.c ****                      TRACE_OS_FLAG_PEND_FAILED(p_grp);          /* Record the event.               
 469:..\..\..\..\..\..\Software\uCOS-III\Source/os_flag.c **** #endif
 470:..\..\..\..\..\..\Software\uCOS-III\Source/os_flag.c ****                     *p_err = OS_ERR_PEND_WOULD_BLOCK;           /* Specified non-blocking so task w
 388              		.loc 1 470 0
 389 0186 7B6D     		ldr	r3, [r7, #84]
 390 0188 6C4A     		ldr	r2, .L54+48
 391 018a 1A80     		strh	r2, [r3]
 471:..\..\..\..\..\..\Software\uCOS-III\Source/os_flag.c ****                      return ((OS_FLAGS)0);
 392              		.loc 1 471 0
 393 018c 0023     		movs	r3, #0
 394 018e 3DE1     		b	.L50
 395              	.L27:
 472:..\..\..\..\..\..\Software\uCOS-III\Source/os_flag.c ****                  } else {                                       /* Specified blocking so check is s
 473:..\..\..\..\..\..\Software\uCOS-III\Source/os_flag.c ****                      if (OSSchedLockNestingCtr > 0u) {          /* See if called with scheduler loc
 396              		.loc 1 473 0
 397 0190 6B4B     		ldr	r3, .L54+52
 398 0192 1B78     		ldrb	r3, [r3]
 399 0194 002B     		cmp	r3, #0
 400 0196 0AD0     		beq	.L28
 474:..\..\..\..\..\..\Software\uCOS-III\Source/os_flag.c ****                          CPU_CRITICAL_EXIT();
 401              		.loc 1 474 0
 402 0198 FFF7FEFF 		bl	CPU_IntDisMeasStop
 403 019c BB6B     		ldr	r3, [r7, #56]
 404 019e 1800     		movs	r0, r3
 405 01a0 FFF7FEFF 		bl	CPU_SR_Restore
 475:..\..\..\..\..\..\Software\uCOS-III\Source/os_flag.c **** #if (defined(TRACE_CFG_EN) && (TRACE_CFG_EN == DEF_ENABLED))
 476:..\..\..\..\..\..\Software\uCOS-III\Source/os_flag.c ****                          TRACE_OS_FLAG_PEND_FAILED(p_grp);      /* Record the event.               
 477:..\..\..\..\..\..\Software\uCOS-III\Source/os_flag.c **** #endif
 478:..\..\..\..\..\..\Software\uCOS-III\Source/os_flag.c ****                         *p_err = OS_ERR_SCHED_LOCKED;           /* ... can't PEND when locked      
 406              		.loc 1 478 0
 407 01a4 7B6D     		ldr	r3, [r7, #84]
 408 01a6 674A     		ldr	r2, .L54+56
 409 01a8 1A80     		strh	r2, [r3]
 479:..\..\..\..\..\..\Software\uCOS-III\Source/os_flag.c ****                          return (0u);
 410              		.loc 1 479 0
 411 01aa 0023     		movs	r3, #0
 412 01ac 2EE1     		b	.L50
 413              	.L28:
 480:..\..\..\..\..\..\Software\uCOS-III\Source/os_flag.c ****                      }
 481:..\..\..\..\..\..\Software\uCOS-III\Source/os_flag.c ****                  }
 482:..\..\..\..\..\..\Software\uCOS-III\Source/os_flag.c ****                                                                 /* Lock the scheduler/re-enable int
 483:..\..\..\..\..\..\Software\uCOS-III\Source/os_flag.c ****                  OS_CRITICAL_ENTER_CPU_EXIT();              
 484:..\..\..\..\..\..\Software\uCOS-III\Source/os_flag.c ****                  OS_FlagBlock(&pend_data,
 414              		.loc 1 484 0
 415 01ae BB1C     		adds	r3, r7, #2
 416 01b0 1C88     		ldrh	r4, [r3]
 417 01b2 BA68     		ldr	r2, [r7, #8]
 418 01b4 F968     		ldr	r1, [r7, #12]
 419 01b6 1023     		movs	r3, #16
 420 01b8 F818     		adds	r0, r7, r3
 421 01ba 7B68     		ldr	r3, [r7, #4]
 422 01bc 0093     		str	r3, [sp]
 423 01be 2300     		movs	r3, r4
 424 01c0 FFF7FEFF 		bl	OS_FlagBlock
 485:..\..\..\..\..\..\Software\uCOS-III\Source/os_flag.c ****                               p_grp,
 486:..\..\..\..\..\..\Software\uCOS-III\Source/os_flag.c ****                               flags,
ARM GAS  C:\Users\ADMINI~1\AppData\Local\Temp\cc0ImMof.s 			page 17


 487:..\..\..\..\..\..\Software\uCOS-III\Source/os_flag.c ****                               opt,
 488:..\..\..\..\..\..\Software\uCOS-III\Source/os_flag.c ****                               timeout);
 489:..\..\..\..\..\..\Software\uCOS-III\Source/os_flag.c ****                  OS_CRITICAL_EXIT_NO_SCHED();
 425              		.loc 1 489 0
 426 01c4 FFF7FEFF 		bl	CPU_IntDisMeasStop
 427 01c8 BB6B     		ldr	r3, [r7, #56]
 428 01ca 1800     		movs	r0, r3
 429 01cc FFF7FEFF 		bl	CPU_SR_Restore
 490:..\..\..\..\..\..\Software\uCOS-III\Source/os_flag.c ****              }
 491:..\..\..\..\..\..\Software\uCOS-III\Source/os_flag.c ****              break;
 430              		.loc 1 491 0
 431 01d0 66E0     		b	.L29
 432              	.L23:
 492:..\..\..\..\..\..\Software\uCOS-III\Source/os_flag.c **** 
 493:..\..\..\..\..\..\Software\uCOS-III\Source/os_flag.c ****         case OS_OPT_PEND_FLAG_SET_ANY:
 494:..\..\..\..\..\..\Software\uCOS-III\Source/os_flag.c ****              flags_rdy = (p_grp->Flags & flags);                /* Extract only the bits we want   
 433              		.loc 1 494 0
 434 01d2 FB68     		ldr	r3, [r7, #12]
 435 01d4 1B6A     		ldr	r3, [r3, #32]
 436 01d6 BA68     		ldr	r2, [r7, #8]
 437 01d8 1340     		ands	r3, r2
 438 01da 3B63     		str	r3, [r7, #48]
 495:..\..\..\..\..\..\Software\uCOS-III\Source/os_flag.c ****              if (flags_rdy != 0u) {                             /* See if any flag set             
 439              		.loc 1 495 0
 440 01dc 3B6B     		ldr	r3, [r7, #48]
 441 01de 002B     		cmp	r3, #0
 442 01e0 22D0     		beq	.L30
 496:..\..\..\..\..\..\Software\uCOS-III\Source/os_flag.c ****                  if (consume == DEF_TRUE) {                     /* See if we need to consume the fl
 443              		.loc 1 496 0
 444 01e2 3F23     		movs	r3, #63
 445 01e4 FB18     		adds	r3, r7, r3
 446 01e6 1B78     		ldrb	r3, [r3]
 447 01e8 012B     		cmp	r3, #1
 448 01ea 06D1     		bne	.L31
 497:..\..\..\..\..\..\Software\uCOS-III\Source/os_flag.c ****                      p_grp->Flags &= ~flags_rdy;                /* Clear ONLY the flags that we got
 449              		.loc 1 497 0
 450 01ec FB68     		ldr	r3, [r7, #12]
 451 01ee 1B6A     		ldr	r3, [r3, #32]
 452 01f0 3A6B     		ldr	r2, [r7, #48]
 453 01f2 D243     		mvns	r2, r2
 454 01f4 1A40     		ands	r2, r3
 455 01f6 FB68     		ldr	r3, [r7, #12]
 456 01f8 1A62     		str	r2, [r3, #32]
 457              	.L31:
 498:..\..\..\..\..\..\Software\uCOS-III\Source/os_flag.c ****                  }
 499:..\..\..\..\..\..\Software\uCOS-III\Source/os_flag.c ****                  OSTCBCurPtr->FlagsRdy = flags_rdy;             /* Save flags that were ready      
 458              		.loc 1 499 0
 459 01fa 4F4B     		ldr	r3, .L54+44
 460 01fc 1B68     		ldr	r3, [r3]
 461 01fe 8021     		movs	r1, #128
 462 0200 3A6B     		ldr	r2, [r7, #48]
 463 0202 5A50     		str	r2, [r3, r1]
 500:..\..\..\..\..\..\Software\uCOS-III\Source/os_flag.c **** #if (OS_CFG_TS_EN == DEF_ENABLED)
 501:..\..\..\..\..\..\Software\uCOS-III\Source/os_flag.c ****                  if (p_ts != DEF_NULL) {
 464              		.loc 1 501 0
 465 0204 3B6D     		ldr	r3, [r7, #80]
 466 0206 002B     		cmp	r3, #0
ARM GAS  C:\Users\ADMINI~1\AppData\Local\Temp\cc0ImMof.s 			page 18


 467 0208 03D0     		beq	.L32
 502:..\..\..\..\..\..\Software\uCOS-III\Source/os_flag.c ****                     *p_ts  = p_grp->TS;
 468              		.loc 1 502 0
 469 020a FB68     		ldr	r3, [r7, #12]
 470 020c 5A6A     		ldr	r2, [r3, #36]
 471 020e 3B6D     		ldr	r3, [r7, #80]
 472 0210 1A60     		str	r2, [r3]
 473              	.L32:
 503:..\..\..\..\..\..\Software\uCOS-III\Source/os_flag.c ****                  }
 504:..\..\..\..\..\..\Software\uCOS-III\Source/os_flag.c **** #endif
 505:..\..\..\..\..\..\Software\uCOS-III\Source/os_flag.c ****                  CPU_CRITICAL_EXIT();                           /* Yes, condition met, return to ca
 474              		.loc 1 505 0
 475 0212 FFF7FEFF 		bl	CPU_IntDisMeasStop
 476 0216 BB6B     		ldr	r3, [r7, #56]
 477 0218 1800     		movs	r0, r3
 478 021a FFF7FEFF 		bl	CPU_SR_Restore
 506:..\..\..\..\..\..\Software\uCOS-III\Source/os_flag.c **** #if (defined(TRACE_CFG_EN) && (TRACE_CFG_EN == DEF_ENABLED))
 507:..\..\..\..\..\..\Software\uCOS-III\Source/os_flag.c ****                  TRACE_OS_FLAG_PEND(p_grp);                     /* Record the event.               
 508:..\..\..\..\..\..\Software\uCOS-III\Source/os_flag.c **** #endif
 509:..\..\..\..\..\..\Software\uCOS-III\Source/os_flag.c ****                 *p_err = OS_ERR_NONE;
 479              		.loc 1 509 0
 480 021e 7B6D     		ldr	r3, [r7, #84]
 481 0220 0022     		movs	r2, #0
 482 0222 1A80     		strh	r2, [r3]
 510:..\..\..\..\..\..\Software\uCOS-III\Source/os_flag.c ****                  return (flags_rdy);
 483              		.loc 1 510 0
 484 0224 3B6B     		ldr	r3, [r7, #48]
 485 0226 F1E0     		b	.L50
 486              	.L30:
 511:..\..\..\..\..\..\Software\uCOS-III\Source/os_flag.c ****              } else {                                           /* Block task until events occur or
 512:..\..\..\..\..\..\Software\uCOS-III\Source/os_flag.c ****                  if ((opt & OS_OPT_PEND_NON_BLOCKING) != 0u) {
 487              		.loc 1 512 0
 488 0228 BB1C     		adds	r3, r7, #2
 489 022a 0022     		movs	r2, #0
 490 022c 9B5E     		ldrsh	r3, [r3, r2]
 491 022e 002B     		cmp	r3, #0
 492 0230 0ADA     		bge	.L33
 513:..\..\..\..\..\..\Software\uCOS-III\Source/os_flag.c ****                      CPU_CRITICAL_EXIT();
 493              		.loc 1 513 0
 494 0232 FFF7FEFF 		bl	CPU_IntDisMeasStop
 495 0236 BB6B     		ldr	r3, [r7, #56]
 496 0238 1800     		movs	r0, r3
 497 023a FFF7FEFF 		bl	CPU_SR_Restore
 514:..\..\..\..\..\..\Software\uCOS-III\Source/os_flag.c ****                     *p_err = OS_ERR_PEND_WOULD_BLOCK;           /* Specified non-blocking so task w
 498              		.loc 1 514 0
 499 023e 7B6D     		ldr	r3, [r7, #84]
 500 0240 3E4A     		ldr	r2, .L54+48
 501 0242 1A80     		strh	r2, [r3]
 515:..\..\..\..\..\..\Software\uCOS-III\Source/os_flag.c ****                      return ((OS_FLAGS)0);
 502              		.loc 1 515 0
 503 0244 0023     		movs	r3, #0
 504 0246 E1E0     		b	.L50
 505              	.L33:
 516:..\..\..\..\..\..\Software\uCOS-III\Source/os_flag.c ****                  } else {                                       /* Specified blocking so check is s
 517:..\..\..\..\..\..\Software\uCOS-III\Source/os_flag.c ****                      if (OSSchedLockNestingCtr > 0u) {          /* See if called with scheduler loc
 506              		.loc 1 517 0
 507 0248 3D4B     		ldr	r3, .L54+52
ARM GAS  C:\Users\ADMINI~1\AppData\Local\Temp\cc0ImMof.s 			page 19


 508 024a 1B78     		ldrb	r3, [r3]
 509 024c 002B     		cmp	r3, #0
 510 024e 0AD0     		beq	.L34
 518:..\..\..\..\..\..\Software\uCOS-III\Source/os_flag.c ****                          CPU_CRITICAL_EXIT();
 511              		.loc 1 518 0
 512 0250 FFF7FEFF 		bl	CPU_IntDisMeasStop
 513 0254 BB6B     		ldr	r3, [r7, #56]
 514 0256 1800     		movs	r0, r3
 515 0258 FFF7FEFF 		bl	CPU_SR_Restore
 519:..\..\..\..\..\..\Software\uCOS-III\Source/os_flag.c ****                         *p_err = OS_ERR_SCHED_LOCKED;           /* ... can't PEND when locked      
 516              		.loc 1 519 0
 517 025c 7B6D     		ldr	r3, [r7, #84]
 518 025e 394A     		ldr	r2, .L54+56
 519 0260 1A80     		strh	r2, [r3]
 520:..\..\..\..\..\..\Software\uCOS-III\Source/os_flag.c ****                          return ((OS_FLAGS)0);
 520              		.loc 1 520 0
 521 0262 0023     		movs	r3, #0
 522 0264 D2E0     		b	.L50
 523              	.L34:
 521:..\..\..\..\..\..\Software\uCOS-III\Source/os_flag.c ****                      }
 522:..\..\..\..\..\..\Software\uCOS-III\Source/os_flag.c ****                  }
 523:..\..\..\..\..\..\Software\uCOS-III\Source/os_flag.c ****                                                                 /* Lock the scheduler/re-enable int
 524:..\..\..\..\..\..\Software\uCOS-III\Source/os_flag.c ****                  OS_CRITICAL_ENTER_CPU_EXIT();              
 525:..\..\..\..\..\..\Software\uCOS-III\Source/os_flag.c ****                  OS_FlagBlock(&pend_data,
 524              		.loc 1 525 0
 525 0266 BB1C     		adds	r3, r7, #2
 526 0268 1C88     		ldrh	r4, [r3]
 527 026a BA68     		ldr	r2, [r7, #8]
 528 026c F968     		ldr	r1, [r7, #12]
 529 026e 1023     		movs	r3, #16
 530 0270 F818     		adds	r0, r7, r3
 531 0272 7B68     		ldr	r3, [r7, #4]
 532 0274 0093     		str	r3, [sp]
 533 0276 2300     		movs	r3, r4
 534 0278 FFF7FEFF 		bl	OS_FlagBlock
 526:..\..\..\..\..\..\Software\uCOS-III\Source/os_flag.c ****                               p_grp,
 527:..\..\..\..\..\..\Software\uCOS-III\Source/os_flag.c ****                               flags,
 528:..\..\..\..\..\..\Software\uCOS-III\Source/os_flag.c ****                               opt,
 529:..\..\..\..\..\..\Software\uCOS-III\Source/os_flag.c ****                               timeout);
 530:..\..\..\..\..\..\Software\uCOS-III\Source/os_flag.c ****                  OS_CRITICAL_EXIT_NO_SCHED();
 535              		.loc 1 530 0
 536 027c FFF7FEFF 		bl	CPU_IntDisMeasStop
 537 0280 BB6B     		ldr	r3, [r7, #56]
 538 0282 1800     		movs	r0, r3
 539 0284 FFF7FEFF 		bl	CPU_SR_Restore
 531:..\..\..\..\..\..\Software\uCOS-III\Source/os_flag.c ****              }
 532:..\..\..\..\..\..\Software\uCOS-III\Source/os_flag.c ****              break;
 540              		.loc 1 532 0
 541 0288 0AE0     		b	.L29
 542              	.L51:
 533:..\..\..\..\..\..\Software\uCOS-III\Source/os_flag.c **** 
 534:..\..\..\..\..\..\Software\uCOS-III\Source/os_flag.c **** #if (OS_CFG_FLAG_MODE_CLR_EN == DEF_ENABLED)
 535:..\..\..\..\..\..\Software\uCOS-III\Source/os_flag.c ****         case OS_OPT_PEND_FLAG_CLR_ALL:                          /* See if all required flags are cl
 536:..\..\..\..\..\..\Software\uCOS-III\Source/os_flag.c ****              flags_rdy = (OS_FLAGS)(~p_grp->Flags & flags);     /* Extract only the bits we want   
 537:..\..\..\..\..\..\Software\uCOS-III\Source/os_flag.c ****              if (flags_rdy == flags) {                          /* Must match ALL the bits that we 
 538:..\..\..\..\..\..\Software\uCOS-III\Source/os_flag.c ****                  if (consume == DEF_TRUE) {                     /* See if we need to consume the fl
 539:..\..\..\..\..\..\Software\uCOS-III\Source/os_flag.c ****                      p_grp->Flags |= flags_rdy;                 /* Set ONLY the flags that we wante
ARM GAS  C:\Users\ADMINI~1\AppData\Local\Temp\cc0ImMof.s 			page 20


 540:..\..\..\..\..\..\Software\uCOS-III\Source/os_flag.c ****                  }
 541:..\..\..\..\..\..\Software\uCOS-III\Source/os_flag.c ****                  OSTCBCurPtr->FlagsRdy = flags_rdy;             /* Save flags that were ready      
 542:..\..\..\..\..\..\Software\uCOS-III\Source/os_flag.c **** #if (OS_CFG_TS_EN == DEF_ENABLED)
 543:..\..\..\..\..\..\Software\uCOS-III\Source/os_flag.c ****                  if (p_ts != DEF_NULL) {
 544:..\..\..\..\..\..\Software\uCOS-III\Source/os_flag.c ****                     *p_ts  = p_grp->TS;
 545:..\..\..\..\..\..\Software\uCOS-III\Source/os_flag.c ****                  }
 546:..\..\..\..\..\..\Software\uCOS-III\Source/os_flag.c **** #endif
 547:..\..\..\..\..\..\Software\uCOS-III\Source/os_flag.c ****                  CPU_CRITICAL_EXIT();                           /* Yes, condition met, return to ca
 548:..\..\..\..\..\..\Software\uCOS-III\Source/os_flag.c **** #if (defined(TRACE_CFG_EN) && (TRACE_CFG_EN == DEF_ENABLED))
 549:..\..\..\..\..\..\Software\uCOS-III\Source/os_flag.c ****                  TRACE_OS_FLAG_PEND(p_grp);                     /* Record the event.               
 550:..\..\..\..\..\..\Software\uCOS-III\Source/os_flag.c **** #endif                 
 551:..\..\..\..\..\..\Software\uCOS-III\Source/os_flag.c ****                 *p_err = OS_ERR_NONE;
 552:..\..\..\..\..\..\Software\uCOS-III\Source/os_flag.c ****                  return (flags_rdy);
 553:..\..\..\..\..\..\Software\uCOS-III\Source/os_flag.c ****              } else {                                           /* Block task until events occur or
 554:..\..\..\..\..\..\Software\uCOS-III\Source/os_flag.c ****                  if ((opt & OS_OPT_PEND_NON_BLOCKING) != 0u) {
 555:..\..\..\..\..\..\Software\uCOS-III\Source/os_flag.c ****                      CPU_CRITICAL_EXIT();
 556:..\..\..\..\..\..\Software\uCOS-III\Source/os_flag.c ****                     *p_err = OS_ERR_PEND_WOULD_BLOCK;           /* Specified non-blocking so task w
 557:..\..\..\..\..\..\Software\uCOS-III\Source/os_flag.c ****                      return ((OS_FLAGS)0);
 558:..\..\..\..\..\..\Software\uCOS-III\Source/os_flag.c ****                  } else {                                       /* Specified blocking so check is s
 559:..\..\..\..\..\..\Software\uCOS-III\Source/os_flag.c ****                      if (OSSchedLockNestingCtr > 0u) {          /* See if called with scheduler loc
 560:..\..\..\..\..\..\Software\uCOS-III\Source/os_flag.c ****                          CPU_CRITICAL_EXIT();
 561:..\..\..\..\..\..\Software\uCOS-III\Source/os_flag.c ****                         *p_err = OS_ERR_SCHED_LOCKED;           /* ... can't PEND when locked      
 562:..\..\..\..\..\..\Software\uCOS-III\Source/os_flag.c ****                          return (0);
 563:..\..\..\..\..\..\Software\uCOS-III\Source/os_flag.c ****                      }
 564:..\..\..\..\..\..\Software\uCOS-III\Source/os_flag.c ****                  }
 565:..\..\..\..\..\..\Software\uCOS-III\Source/os_flag.c ****                                                             
 566:..\..\..\..\..\..\Software\uCOS-III\Source/os_flag.c ****                  OS_CRITICAL_ENTER_CPU_EXIT();                  /* Lock the scheduler/re-enable int
 567:..\..\..\..\..\..\Software\uCOS-III\Source/os_flag.c ****                  OS_FlagBlock(&pend_data,
 568:..\..\..\..\..\..\Software\uCOS-III\Source/os_flag.c ****                               p_grp,
 569:..\..\..\..\..\..\Software\uCOS-III\Source/os_flag.c ****                               flags,
 570:..\..\..\..\..\..\Software\uCOS-III\Source/os_flag.c ****                               opt,
 571:..\..\..\..\..\..\Software\uCOS-III\Source/os_flag.c ****                               timeout);
 572:..\..\..\..\..\..\Software\uCOS-III\Source/os_flag.c ****                  OS_CRITICAL_EXIT_NO_SCHED();
 573:..\..\..\..\..\..\Software\uCOS-III\Source/os_flag.c ****              }
 574:..\..\..\..\..\..\Software\uCOS-III\Source/os_flag.c ****              break;
 575:..\..\..\..\..\..\Software\uCOS-III\Source/os_flag.c **** 
 576:..\..\..\..\..\..\Software\uCOS-III\Source/os_flag.c ****         case OS_OPT_PEND_FLAG_CLR_ANY:
 577:..\..\..\..\..\..\Software\uCOS-III\Source/os_flag.c ****              flags_rdy = (~p_grp->Flags & flags);               /* Extract only the bits we want   
 578:..\..\..\..\..\..\Software\uCOS-III\Source/os_flag.c ****              if (flags_rdy != 0u) {                             /* See if any flag cleared         
 579:..\..\..\..\..\..\Software\uCOS-III\Source/os_flag.c ****                  if (consume == DEF_TRUE) {                     /* See if we need to consume the fl
 580:..\..\..\..\..\..\Software\uCOS-III\Source/os_flag.c ****                      p_grp->Flags |= flags_rdy;                 /* Set ONLY the flags that we got  
 581:..\..\..\..\..\..\Software\uCOS-III\Source/os_flag.c ****                  }
 582:..\..\..\..\..\..\Software\uCOS-III\Source/os_flag.c ****                  OSTCBCurPtr->FlagsRdy = flags_rdy;             /* Save flags that were ready      
 583:..\..\..\..\..\..\Software\uCOS-III\Source/os_flag.c **** #if (OS_CFG_TS_EN == DEF_ENABLED)
 584:..\..\..\..\..\..\Software\uCOS-III\Source/os_flag.c ****                  if (p_ts != DEF_NULL) {
 585:..\..\..\..\..\..\Software\uCOS-III\Source/os_flag.c ****                     *p_ts  = p_grp->TS;
 586:..\..\..\..\..\..\Software\uCOS-III\Source/os_flag.c ****                  }
 587:..\..\..\..\..\..\Software\uCOS-III\Source/os_flag.c **** #endif
 588:..\..\..\..\..\..\Software\uCOS-III\Source/os_flag.c ****                  CPU_CRITICAL_EXIT();                           /* Yes, condition met, return to ca
 589:..\..\..\..\..\..\Software\uCOS-III\Source/os_flag.c **** #if (defined(TRACE_CFG_EN) && (TRACE_CFG_EN == DEF_ENABLED))
 590:..\..\..\..\..\..\Software\uCOS-III\Source/os_flag.c ****                  TRACE_OS_FLAG_PEND(p_grp);                     /* Record the event.               
 591:..\..\..\..\..\..\Software\uCOS-III\Source/os_flag.c **** #endif
 592:..\..\..\..\..\..\Software\uCOS-III\Source/os_flag.c ****                 *p_err = OS_ERR_NONE;
 593:..\..\..\..\..\..\Software\uCOS-III\Source/os_flag.c ****                  return (flags_rdy);
 594:..\..\..\..\..\..\Software\uCOS-III\Source/os_flag.c ****              } else {                                           /* Block task until events occur or
 595:..\..\..\..\..\..\Software\uCOS-III\Source/os_flag.c ****                  if ((opt & OS_OPT_PEND_NON_BLOCKING) != 0u) {
 596:..\..\..\..\..\..\Software\uCOS-III\Source/os_flag.c ****                      CPU_CRITICAL_EXIT();
ARM GAS  C:\Users\ADMINI~1\AppData\Local\Temp\cc0ImMof.s 			page 21


 597:..\..\..\..\..\..\Software\uCOS-III\Source/os_flag.c ****                     *p_err = OS_ERR_PEND_WOULD_BLOCK;           /* Specified non-blocking so task w
 598:..\..\..\..\..\..\Software\uCOS-III\Source/os_flag.c ****                      return ((OS_FLAGS)0);
 599:..\..\..\..\..\..\Software\uCOS-III\Source/os_flag.c ****                  } else {                                       /* Specified blocking so check is s
 600:..\..\..\..\..\..\Software\uCOS-III\Source/os_flag.c ****                      if (OSSchedLockNestingCtr > 0u) {          /* See if called with scheduler loc
 601:..\..\..\..\..\..\Software\uCOS-III\Source/os_flag.c ****                          CPU_CRITICAL_EXIT();
 602:..\..\..\..\..\..\Software\uCOS-III\Source/os_flag.c ****                         *p_err = OS_ERR_SCHED_LOCKED;           /* ... can't PEND when locked      
 603:..\..\..\..\..\..\Software\uCOS-III\Source/os_flag.c ****                          return (0u);
 604:..\..\..\..\..\..\Software\uCOS-III\Source/os_flag.c ****                      }
 605:..\..\..\..\..\..\Software\uCOS-III\Source/os_flag.c ****                  }
 606:..\..\..\..\..\..\Software\uCOS-III\Source/os_flag.c ****                                                             
 607:..\..\..\..\..\..\Software\uCOS-III\Source/os_flag.c ****                  OS_CRITICAL_ENTER_CPU_EXIT();                  /* Lock the scheduler/re-enable int
 608:..\..\..\..\..\..\Software\uCOS-III\Source/os_flag.c ****                  OS_FlagBlock(&pend_data,              
 609:..\..\..\..\..\..\Software\uCOS-III\Source/os_flag.c ****                               p_grp,
 610:..\..\..\..\..\..\Software\uCOS-III\Source/os_flag.c ****                               flags,
 611:..\..\..\..\..\..\Software\uCOS-III\Source/os_flag.c ****                               opt,
 612:..\..\..\..\..\..\Software\uCOS-III\Source/os_flag.c ****                               timeout);
 613:..\..\..\..\..\..\Software\uCOS-III\Source/os_flag.c ****                  OS_CRITICAL_EXIT_NO_SCHED();
 614:..\..\..\..\..\..\Software\uCOS-III\Source/os_flag.c ****              }
 615:..\..\..\..\..\..\Software\uCOS-III\Source/os_flag.c ****              break;
 616:..\..\..\..\..\..\Software\uCOS-III\Source/os_flag.c **** #endif
 617:..\..\..\..\..\..\Software\uCOS-III\Source/os_flag.c **** 
 618:..\..\..\..\..\..\Software\uCOS-III\Source/os_flag.c ****         default:
 619:..\..\..\..\..\..\Software\uCOS-III\Source/os_flag.c ****              CPU_CRITICAL_EXIT();
 543              		.loc 1 619 0
 544 028a FFF7FEFF 		bl	CPU_IntDisMeasStop
 545 028e BB6B     		ldr	r3, [r7, #56]
 546 0290 1800     		movs	r0, r3
 547 0292 FFF7FEFF 		bl	CPU_SR_Restore
 620:..\..\..\..\..\..\Software\uCOS-III\Source/os_flag.c **** #if (defined(TRACE_CFG_EN) && (TRACE_CFG_EN == DEF_ENABLED))
 621:..\..\..\..\..\..\Software\uCOS-III\Source/os_flag.c ****              TRACE_OS_FLAG_PEND_FAILED(p_grp);                  /* Record the event.               
 622:..\..\..\..\..\..\Software\uCOS-III\Source/os_flag.c **** #endif
 623:..\..\..\..\..\..\Software\uCOS-III\Source/os_flag.c ****             *p_err = OS_ERR_OPT_INVALID;
 548              		.loc 1 623 0
 549 0296 7B6D     		ldr	r3, [r7, #84]
 550 0298 264A     		ldr	r2, .L54+40
 551 029a 1A80     		strh	r2, [r3]
 624:..\..\..\..\..\..\Software\uCOS-III\Source/os_flag.c ****              return (0u);
 552              		.loc 1 624 0
 553 029c 0023     		movs	r3, #0
 554 029e B5E0     		b	.L50
 555              	.L29:
 625:..\..\..\..\..\..\Software\uCOS-III\Source/os_flag.c ****     }
 626:..\..\..\..\..\..\Software\uCOS-III\Source/os_flag.c **** #if (defined(TRACE_CFG_EN) && (TRACE_CFG_EN == DEF_ENABLED))
 627:..\..\..\..\..\..\Software\uCOS-III\Source/os_flag.c ****     TRACE_OS_FLAG_PEND_BLOCK(p_grp);                            /* Record the event.               
 628:..\..\..\..\..\..\Software\uCOS-III\Source/os_flag.c **** #endif
 629:..\..\..\..\..\..\Software\uCOS-III\Source/os_flag.c ****     OSSched();                                                  /* Find next HPT ready to run      
 556              		.loc 1 629 0
 557 02a0 FFF7FEFF 		bl	OSSched
 630:..\..\..\..\..\..\Software\uCOS-III\Source/os_flag.c **** 
 631:..\..\..\..\..\..\Software\uCOS-III\Source/os_flag.c ****     CPU_CRITICAL_ENTER();
 558              		.loc 1 631 0
 559 02a4 FFF7FEFF 		bl	CPU_SR_Save
 560 02a8 0300     		movs	r3, r0
 561 02aa BB63     		str	r3, [r7, #56]
 562 02ac FFF7FEFF 		bl	CPU_IntDisMeasStart
 632:..\..\..\..\..\..\Software\uCOS-III\Source/os_flag.c ****     switch (OSTCBCurPtr->PendStatus) {
 563              		.loc 1 632 0
ARM GAS  C:\Users\ADMINI~1\AppData\Local\Temp\cc0ImMof.s 			page 22


 564 02b0 214B     		ldr	r3, .L54+44
 565 02b2 1B68     		ldr	r3, [r3]
 566 02b4 3522     		movs	r2, #53
 567 02b6 9B5C     		ldrb	r3, [r3, r2]
 568 02b8 012B     		cmp	r3, #1
 569 02ba 14D0     		beq	.L36
 570 02bc 02DC     		bgt	.L37
 571 02be 002B     		cmp	r3, #0
 572 02c0 05D0     		beq	.L38
 573 02c2 65E0     		b	.L35
 574              	.L37:
 575 02c4 022B     		cmp	r3, #2
 576 02c6 51D0     		beq	.L39
 577 02c8 032B     		cmp	r3, #3
 578 02ca 3FD0     		beq	.L40
 579 02cc 60E0     		b	.L35
 580              	.L38:
 633:..\..\..\..\..\..\Software\uCOS-III\Source/os_flag.c ****         case OS_STATUS_PEND_OK:                                 /* We got the event flags          
 634:..\..\..\..\..\..\Software\uCOS-III\Source/os_flag.c **** #if (OS_CFG_TS_EN == DEF_ENABLED)
 635:..\..\..\..\..\..\Software\uCOS-III\Source/os_flag.c ****              if (p_ts != DEF_NULL) {
 581              		.loc 1 635 0
 582 02ce 3B6D     		ldr	r3, [r7, #80]
 583 02d0 002B     		cmp	r3, #0
 584 02d2 04D0     		beq	.L41
 636:..\..\..\..\..\..\Software\uCOS-III\Source/os_flag.c ****                 *p_ts = OSTCBCurPtr->TS;
 585              		.loc 1 636 0
 586 02d4 184B     		ldr	r3, .L54+44
 587 02d6 1B68     		ldr	r3, [r3]
 588 02d8 9A6C     		ldr	r2, [r3, #72]
 589 02da 3B6D     		ldr	r3, [r7, #80]
 590 02dc 1A60     		str	r2, [r3]
 591              	.L41:
 637:..\..\..\..\..\..\Software\uCOS-III\Source/os_flag.c ****              }
 638:..\..\..\..\..\..\Software\uCOS-III\Source/os_flag.c **** #endif
 639:..\..\..\..\..\..\Software\uCOS-III\Source/os_flag.c **** #if (defined(TRACE_CFG_EN) && (TRACE_CFG_EN == DEF_ENABLED))
 640:..\..\..\..\..\..\Software\uCOS-III\Source/os_flag.c ****              TRACE_OS_FLAG_PEND(p_grp);                         /* Record the event.               
 641:..\..\..\..\..\..\Software\uCOS-III\Source/os_flag.c **** #endif
 642:..\..\..\..\..\..\Software\uCOS-III\Source/os_flag.c ****             *p_err = OS_ERR_NONE;
 592              		.loc 1 642 0
 593 02de 7B6D     		ldr	r3, [r7, #84]
 594 02e0 0022     		movs	r2, #0
 595 02e2 1A80     		strh	r2, [r3]
 643:..\..\..\..\..\..\Software\uCOS-III\Source/os_flag.c ****              break;
 596              		.loc 1 643 0
 597 02e4 5EE0     		b	.L42
 598              	.L36:
 644:..\..\..\..\..\..\Software\uCOS-III\Source/os_flag.c **** 
 645:..\..\..\..\..\..\Software\uCOS-III\Source/os_flag.c ****         case OS_STATUS_PEND_ABORT:                              /* Indicate that we aborted        
 646:..\..\..\..\..\..\Software\uCOS-III\Source/os_flag.c **** #if (OS_CFG_TS_EN == DEF_ENABLED)
 647:..\..\..\..\..\..\Software\uCOS-III\Source/os_flag.c ****              if (p_ts != DEF_NULL) {
 599              		.loc 1 647 0
 600 02e6 3B6D     		ldr	r3, [r7, #80]
 601 02e8 002B     		cmp	r3, #0
 602 02ea 04D0     		beq	.L43
 648:..\..\..\..\..\..\Software\uCOS-III\Source/os_flag.c ****                 *p_ts = OSTCBCurPtr->TS;
 603              		.loc 1 648 0
 604 02ec 124B     		ldr	r3, .L54+44
ARM GAS  C:\Users\ADMINI~1\AppData\Local\Temp\cc0ImMof.s 			page 23


 605 02ee 1B68     		ldr	r3, [r3]
 606 02f0 9A6C     		ldr	r2, [r3, #72]
 607 02f2 3B6D     		ldr	r3, [r7, #80]
 608 02f4 1A60     		str	r2, [r3]
 609              	.L43:
 649:..\..\..\..\..\..\Software\uCOS-III\Source/os_flag.c ****              }
 650:..\..\..\..\..\..\Software\uCOS-III\Source/os_flag.c **** #endif
 651:..\..\..\..\..\..\Software\uCOS-III\Source/os_flag.c ****              CPU_CRITICAL_EXIT();
 610              		.loc 1 651 0
 611 02f6 FFF7FEFF 		bl	CPU_IntDisMeasStop
 612 02fa BB6B     		ldr	r3, [r7, #56]
 613 02fc 1800     		movs	r0, r3
 614 02fe FFF7FEFF 		bl	CPU_SR_Restore
 652:..\..\..\..\..\..\Software\uCOS-III\Source/os_flag.c **** #if (defined(TRACE_CFG_EN) && (TRACE_CFG_EN == DEF_ENABLED))
 653:..\..\..\..\..\..\Software\uCOS-III\Source/os_flag.c ****              TRACE_OS_FLAG_PEND_FAILED(p_grp);                  /* Record the event.               
 654:..\..\..\..\..\..\Software\uCOS-III\Source/os_flag.c **** #endif
 655:..\..\..\..\..\..\Software\uCOS-III\Source/os_flag.c ****             *p_err = OS_ERR_PEND_ABORT;
 615              		.loc 1 655 0
 616 0302 7B6D     		ldr	r3, [r7, #84]
 617 0304 104A     		ldr	r2, .L54+60
 618 0306 1A80     		strh	r2, [r3]
 656:..\..\..\..\..\..\Software\uCOS-III\Source/os_flag.c ****              break;
 619              		.loc 1 656 0
 620 0308 4CE0     		b	.L42
 621              	.L55:
 622 030a C046     		.align	2
 623              	.L54:
 624 030c 00000000 		.word	OSIntNestingCtr
 625 0310 AE610000 		.word	25006
 626 0314 C35D0000 		.word	24003
 627 0318 08800000 		.word	32776
 628 031c 01800000 		.word	32769
 629 0320 02800000 		.word	32770
 630 0324 04800000 		.word	32772
 631 0328 04810000 		.word	33028
 632 032c FF7EFFFF 		.word	-33025
 633 0330 08810000 		.word	33032
 634 0334 255E0000 		.word	24101
 635 0338 00000000 		.word	OSTCBCurPtr
 636 033c B0610000 		.word	25008
 637 0340 00000000 		.word	OSSchedLockNestingCtr
 638 0344 636D0000 		.word	28003
 639 0348 A9610000 		.word	25001
 640              	.L40:
 657:..\..\..\..\..\..\Software\uCOS-III\Source/os_flag.c **** 
 658:..\..\..\..\..\..\Software\uCOS-III\Source/os_flag.c ****         case OS_STATUS_PEND_TIMEOUT:                            /* Indicate that we didn't get sema
 659:..\..\..\..\..\..\Software\uCOS-III\Source/os_flag.c ****              if (p_ts != DEF_NULL) {
 641              		.loc 1 659 0
 642 034c 3B6D     		ldr	r3, [r7, #80]
 643 034e 002B     		cmp	r3, #0
 644 0350 02D0     		beq	.L44
 660:..\..\..\..\..\..\Software\uCOS-III\Source/os_flag.c ****                 *p_ts = 0u;
 645              		.loc 1 660 0
 646 0352 3B6D     		ldr	r3, [r7, #80]
 647 0354 0022     		movs	r2, #0
 648 0356 1A60     		str	r2, [r3]
 649              	.L44:
ARM GAS  C:\Users\ADMINI~1\AppData\Local\Temp\cc0ImMof.s 			page 24


 661:..\..\..\..\..\..\Software\uCOS-III\Source/os_flag.c ****              }
 662:..\..\..\..\..\..\Software\uCOS-III\Source/os_flag.c ****              CPU_CRITICAL_EXIT();
 650              		.loc 1 662 0
 651 0358 FFF7FEFF 		bl	CPU_IntDisMeasStop
 652 035c BB6B     		ldr	r3, [r7, #56]
 653 035e 1800     		movs	r0, r3
 654 0360 FFF7FEFF 		bl	CPU_SR_Restore
 663:..\..\..\..\..\..\Software\uCOS-III\Source/os_flag.c **** #if (defined(TRACE_CFG_EN) && (TRACE_CFG_EN == DEF_ENABLED))
 664:..\..\..\..\..\..\Software\uCOS-III\Source/os_flag.c ****              TRACE_OS_FLAG_PEND_FAILED(p_grp);                  /* Record the event.               
 665:..\..\..\..\..\..\Software\uCOS-III\Source/os_flag.c **** #endif
 666:..\..\..\..\..\..\Software\uCOS-III\Source/os_flag.c ****             *p_err = OS_ERR_TIMEOUT;
 655              		.loc 1 666 0
 656 0364 7B6D     		ldr	r3, [r7, #84]
 657 0366 2B4A     		ldr	r2, .L56
 658 0368 1A80     		strh	r2, [r3]
 667:..\..\..\..\..\..\Software\uCOS-III\Source/os_flag.c ****              break;
 659              		.loc 1 667 0
 660 036a 1BE0     		b	.L42
 661              	.L39:
 668:..\..\..\..\..\..\Software\uCOS-III\Source/os_flag.c **** 
 669:..\..\..\..\..\..\Software\uCOS-III\Source/os_flag.c ****         case OS_STATUS_PEND_DEL:                                /* Indicate that object pended on h
 670:..\..\..\..\..\..\Software\uCOS-III\Source/os_flag.c **** #if (OS_CFG_TS_EN == DEF_ENABLED)
 671:..\..\..\..\..\..\Software\uCOS-III\Source/os_flag.c ****              if (p_ts != DEF_NULL) {
 662              		.loc 1 671 0
 663 036c 3B6D     		ldr	r3, [r7, #80]
 664 036e 002B     		cmp	r3, #0
 665 0370 04D0     		beq	.L45
 672:..\..\..\..\..\..\Software\uCOS-III\Source/os_flag.c ****                 *p_ts = OSTCBCurPtr->TS;
 666              		.loc 1 672 0
 667 0372 294B     		ldr	r3, .L56+4
 668 0374 1B68     		ldr	r3, [r3]
 669 0376 9A6C     		ldr	r2, [r3, #72]
 670 0378 3B6D     		ldr	r3, [r7, #80]
 671 037a 1A60     		str	r2, [r3]
 672              	.L45:
 673:..\..\..\..\..\..\Software\uCOS-III\Source/os_flag.c ****              }
 674:..\..\..\..\..\..\Software\uCOS-III\Source/os_flag.c **** #endif
 675:..\..\..\..\..\..\Software\uCOS-III\Source/os_flag.c ****              CPU_CRITICAL_EXIT();
 673              		.loc 1 675 0
 674 037c FFF7FEFF 		bl	CPU_IntDisMeasStop
 675 0380 BB6B     		ldr	r3, [r7, #56]
 676 0382 1800     		movs	r0, r3
 677 0384 FFF7FEFF 		bl	CPU_SR_Restore
 676:..\..\..\..\..\..\Software\uCOS-III\Source/os_flag.c **** #if (defined(TRACE_CFG_EN) && (TRACE_CFG_EN == DEF_ENABLED))
 677:..\..\..\..\..\..\Software\uCOS-III\Source/os_flag.c ****              TRACE_OS_FLAG_PEND_FAILED(p_grp);                  /* Record the event.               
 678:..\..\..\..\..\..\Software\uCOS-III\Source/os_flag.c **** #endif
 679:..\..\..\..\..\..\Software\uCOS-III\Source/os_flag.c ****             *p_err = OS_ERR_OBJ_DEL;
 678              		.loc 1 679 0
 679 0388 7B6D     		ldr	r3, [r7, #84]
 680 038a 244A     		ldr	r2, .L56+8
 681 038c 1A80     		strh	r2, [r3]
 680:..\..\..\..\..\..\Software\uCOS-III\Source/os_flag.c ****              break;
 682              		.loc 1 680 0
 683 038e 09E0     		b	.L42
 684              	.L35:
 681:..\..\..\..\..\..\Software\uCOS-III\Source/os_flag.c **** 
 682:..\..\..\..\..\..\Software\uCOS-III\Source/os_flag.c ****         default:
ARM GAS  C:\Users\ADMINI~1\AppData\Local\Temp\cc0ImMof.s 			page 25


 683:..\..\..\..\..\..\Software\uCOS-III\Source/os_flag.c ****              CPU_CRITICAL_EXIT();
 685              		.loc 1 683 0
 686 0390 FFF7FEFF 		bl	CPU_IntDisMeasStop
 687 0394 BB6B     		ldr	r3, [r7, #56]
 688 0396 1800     		movs	r0, r3
 689 0398 FFF7FEFF 		bl	CPU_SR_Restore
 684:..\..\..\..\..\..\Software\uCOS-III\Source/os_flag.c **** #if (defined(TRACE_CFG_EN) && (TRACE_CFG_EN == DEF_ENABLED))
 685:..\..\..\..\..\..\Software\uCOS-III\Source/os_flag.c ****              TRACE_OS_FLAG_PEND_FAILED(p_grp);                  /* Record the event.               
 686:..\..\..\..\..\..\Software\uCOS-III\Source/os_flag.c **** #endif
 687:..\..\..\..\..\..\Software\uCOS-III\Source/os_flag.c ****             *p_err = OS_ERR_STATUS_INVALID;
 690              		.loc 1 687 0
 691 039c 7B6D     		ldr	r3, [r7, #84]
 692 039e 204A     		ldr	r2, .L56+12
 693 03a0 1A80     		strh	r2, [r3]
 688:..\..\..\..\..\..\Software\uCOS-III\Source/os_flag.c ****              break;
 694              		.loc 1 688 0
 695 03a2 C046     		nop
 696              	.L42:
 689:..\..\..\..\..\..\Software\uCOS-III\Source/os_flag.c ****     }
 690:..\..\..\..\..\..\Software\uCOS-III\Source/os_flag.c ****     if (*p_err != OS_ERR_NONE) {
 697              		.loc 1 690 0
 698 03a4 7B6D     		ldr	r3, [r7, #84]
 699 03a6 1B88     		ldrh	r3, [r3]
 700 03a8 002B     		cmp	r3, #0
 701 03aa 01D0     		beq	.L46
 691:..\..\..\..\..\..\Software\uCOS-III\Source/os_flag.c ****         return (0u);
 702              		.loc 1 691 0
 703 03ac 0023     		movs	r3, #0
 704 03ae 2DE0     		b	.L50
 705              	.L46:
 692:..\..\..\..\..\..\Software\uCOS-III\Source/os_flag.c ****     }
 693:..\..\..\..\..\..\Software\uCOS-III\Source/os_flag.c **** 
 694:..\..\..\..\..\..\Software\uCOS-III\Source/os_flag.c ****     flags_rdy = OSTCBCurPtr->FlagsRdy;
 706              		.loc 1 694 0
 707 03b0 194B     		ldr	r3, .L56+4
 708 03b2 1B68     		ldr	r3, [r3]
 709 03b4 8022     		movs	r2, #128
 710 03b6 9B58     		ldr	r3, [r3, r2]
 711 03b8 3B63     		str	r3, [r7, #48]
 695:..\..\..\..\..\..\Software\uCOS-III\Source/os_flag.c ****     if (consume == DEF_TRUE) {                                  /* See if we need to consume the fl
 712              		.loc 1 695 0
 713 03ba 3F23     		movs	r3, #63
 714 03bc FB18     		adds	r3, r7, r3
 715 03be 1B78     		ldrb	r3, [r3]
 716 03c0 012B     		cmp	r3, #1
 717 03c2 19D1     		bne	.L47
 696:..\..\..\..\..\..\Software\uCOS-III\Source/os_flag.c ****         switch (mode) {
 718              		.loc 1 696 0
 719 03c4 3623     		movs	r3, #54
 720 03c6 FB18     		adds	r3, r7, r3
 721 03c8 1B88     		ldrh	r3, [r3]
 722 03ca 042B     		cmp	r3, #4
 723 03cc 01D0     		beq	.L49
 724 03ce 082B     		cmp	r3, #8
 725 03d0 07D1     		bne	.L52
 726              	.L49:
 697:..\..\..\..\..\..\Software\uCOS-III\Source/os_flag.c ****             case OS_OPT_PEND_FLAG_SET_ALL:
ARM GAS  C:\Users\ADMINI~1\AppData\Local\Temp\cc0ImMof.s 			page 26


 698:..\..\..\..\..\..\Software\uCOS-III\Source/os_flag.c ****             case OS_OPT_PEND_FLAG_SET_ANY:                      /* Clear ONLY the flags we got     
 699:..\..\..\..\..\..\Software\uCOS-III\Source/os_flag.c ****                  p_grp->Flags &= ~flags_rdy;
 727              		.loc 1 699 0
 728 03d2 FB68     		ldr	r3, [r7, #12]
 729 03d4 1B6A     		ldr	r3, [r3, #32]
 730 03d6 3A6B     		ldr	r2, [r7, #48]
 731 03d8 D243     		mvns	r2, r2
 732 03da 1A40     		ands	r2, r3
 733 03dc FB68     		ldr	r3, [r7, #12]
 734 03de 1A62     		str	r2, [r3, #32]
 700:..\..\..\..\..\..\Software\uCOS-III\Source/os_flag.c ****                  break;
 735              		.loc 1 700 0
 736 03e0 0AE0     		b	.L47
 737              	.L52:
 701:..\..\..\..\..\..\Software\uCOS-III\Source/os_flag.c **** 
 702:..\..\..\..\..\..\Software\uCOS-III\Source/os_flag.c **** #if (OS_CFG_FLAG_MODE_CLR_EN == DEF_ENABLED)
 703:..\..\..\..\..\..\Software\uCOS-III\Source/os_flag.c ****             case OS_OPT_PEND_FLAG_CLR_ALL:
 704:..\..\..\..\..\..\Software\uCOS-III\Source/os_flag.c ****             case OS_OPT_PEND_FLAG_CLR_ANY:                      /* Set   ONLY the flags we got     
 705:..\..\..\..\..\..\Software\uCOS-III\Source/os_flag.c ****                  p_grp->Flags |=  flags_rdy;
 706:..\..\..\..\..\..\Software\uCOS-III\Source/os_flag.c ****                  break;
 707:..\..\..\..\..\..\Software\uCOS-III\Source/os_flag.c **** #endif
 708:..\..\..\..\..\..\Software\uCOS-III\Source/os_flag.c ****             default:
 709:..\..\..\..\..\..\Software\uCOS-III\Source/os_flag.c ****                  CPU_CRITICAL_EXIT();
 738              		.loc 1 709 0
 739 03e2 FFF7FEFF 		bl	CPU_IntDisMeasStop
 740 03e6 BB6B     		ldr	r3, [r7, #56]
 741 03e8 1800     		movs	r0, r3
 742 03ea FFF7FEFF 		bl	CPU_SR_Restore
 710:..\..\..\..\..\..\Software\uCOS-III\Source/os_flag.c ****                 *p_err = OS_ERR_OPT_INVALID;
 743              		.loc 1 710 0
 744 03ee 7B6D     		ldr	r3, [r7, #84]
 745 03f0 0C4A     		ldr	r2, .L56+16
 746 03f2 1A80     		strh	r2, [r3]
 711:..\..\..\..\..\..\Software\uCOS-III\Source/os_flag.c ****                  return (0u);
 747              		.loc 1 711 0
 748 03f4 0023     		movs	r3, #0
 749 03f6 09E0     		b	.L50
 750              	.L47:
 712:..\..\..\..\..\..\Software\uCOS-III\Source/os_flag.c ****         }
 713:..\..\..\..\..\..\Software\uCOS-III\Source/os_flag.c ****     }
 714:..\..\..\..\..\..\Software\uCOS-III\Source/os_flag.c ****     CPU_CRITICAL_EXIT();
 751              		.loc 1 714 0
 752 03f8 FFF7FEFF 		bl	CPU_IntDisMeasStop
 753 03fc BB6B     		ldr	r3, [r7, #56]
 754 03fe 1800     		movs	r0, r3
 755 0400 FFF7FEFF 		bl	CPU_SR_Restore
 715:..\..\..\..\..\..\Software\uCOS-III\Source/os_flag.c ****    *p_err = OS_ERR_NONE;                                        /* Event(s) must have occurred     
 756              		.loc 1 715 0
 757 0404 7B6D     		ldr	r3, [r7, #84]
 758 0406 0022     		movs	r2, #0
 759 0408 1A80     		strh	r2, [r3]
 716:..\..\..\..\..\..\Software\uCOS-III\Source/os_flag.c ****     return (flags_rdy);
 760              		.loc 1 716 0
 761 040a 3B6B     		ldr	r3, [r7, #48]
 762              	.L50:
 717:..\..\..\..\..\..\Software\uCOS-III\Source/os_flag.c **** }
 763              		.loc 1 717 0 discriminator 1
ARM GAS  C:\Users\ADMINI~1\AppData\Local\Temp\cc0ImMof.s 			page 27


 764 040c 1800     		movs	r0, r3
 765 040e BD46     		mov	sp, r7
 766 0410 11B0     		add	sp, sp, #68
 767              		@ sp needed
 768 0412 90BD     		pop	{r4, r7, pc}
 769              	.L57:
 770              		.align	2
 771              	.L56:
 772 0414 D9720000 		.word	29401
 773 0418 00000000 		.word	OSTCBCurPtr
 774 041c C25D0000 		.word	24002
 775 0420 2E6E0000 		.word	28206
 776 0424 255E0000 		.word	24101
 777              		.cfi_endproc
 778              	.LFE1:
 779              		.size	OSFlagPend, .-OSFlagPend
 780              		.section	.text.OSFlagPendGetFlagsRdy,"ax",%progbits
 781              		.align	2
 782              		.global	OSFlagPendGetFlagsRdy
 783              		.code	16
 784              		.thumb_func
 785              		.type	OSFlagPendGetFlagsRdy, %function
 786              	OSFlagPendGetFlagsRdy:
 787              	.LFB2:
 718:..\..\..\..\..\..\Software\uCOS-III\Source/os_flag.c **** 
 719:..\..\..\..\..\..\Software\uCOS-III\Source/os_flag.c **** 
 720:..\..\..\..\..\..\Software\uCOS-III\Source/os_flag.c **** /*
 721:..\..\..\..\..\..\Software\uCOS-III\Source/os_flag.c **** ***************************************************************************************************
 722:..\..\..\..\..\..\Software\uCOS-III\Source/os_flag.c **** *                                          ABORT WAITING ON AN EVENT FLAG GROUP
 723:..\..\..\..\..\..\Software\uCOS-III\Source/os_flag.c **** *
 724:..\..\..\..\..\..\Software\uCOS-III\Source/os_flag.c **** * Description: This function aborts & readies any tasks currently waiting on an event flag group.  
 725:..\..\..\..\..\..\Software\uCOS-III\Source/os_flag.c **** *              be used to fault-abort the wait on the event flag group, rather than to normally pos
 726:..\..\..\..\..\..\Software\uCOS-III\Source/os_flag.c **** *              group OSFlagPost().
 727:..\..\..\..\..\..\Software\uCOS-III\Source/os_flag.c **** *
 728:..\..\..\..\..\..\Software\uCOS-III\Source/os_flag.c **** * Arguments  : p_grp     is a pointer to the event flag group
 729:..\..\..\..\..\..\Software\uCOS-III\Source/os_flag.c **** *
 730:..\..\..\..\..\..\Software\uCOS-III\Source/os_flag.c **** *              opt       determines the type of ABORT performed:
 731:..\..\..\..\..\..\Software\uCOS-III\Source/os_flag.c **** *
 732:..\..\..\..\..\..\Software\uCOS-III\Source/os_flag.c **** *                            OS_OPT_PEND_ABORT_1          ABORT wait for a single task (HPT) waitin
 733:..\..\..\..\..\..\Software\uCOS-III\Source/os_flag.c **** *                            OS_OPT_PEND_ABORT_ALL        ABORT wait for ALL tasks that are  waitin
 734:..\..\..\..\..\..\Software\uCOS-III\Source/os_flag.c **** *                            OS_OPT_POST_NO_SCHED         Do not call the scheduler
 735:..\..\..\..\..\..\Software\uCOS-III\Source/os_flag.c **** *
 736:..\..\..\..\..\..\Software\uCOS-III\Source/os_flag.c **** *              p_err     is a pointer to a variable that will contain an error code returned by thi
 737:..\..\..\..\..\..\Software\uCOS-III\Source/os_flag.c **** *
 738:..\..\..\..\..\..\Software\uCOS-III\Source/os_flag.c **** *                            OS_ERR_NONE                  At least one task waiting on the event fl
 739:..\..\..\..\..\..\Software\uCOS-III\Source/os_flag.c **** *                                                         readied and informed of the aborted wait;
 740:..\..\..\..\..\..\Software\uCOS-III\Source/os_flag.c **** *                                                         for the number of tasks whose wait on the
 741:..\..\..\..\..\..\Software\uCOS-III\Source/os_flag.c **** *                                                         was aborted
 742:..\..\..\..\..\..\Software\uCOS-III\Source/os_flag.c **** *                            OS_ERR_OBJ_PTR_NULL          If 'p_grp' is a NULL pointer
 743:..\..\..\..\..\..\Software\uCOS-III\Source/os_flag.c **** *                            OS_ERR_OBJ_TYPE              If 'p_grp' is not pointing at an event fl
 744:..\..\..\..\..\..\Software\uCOS-III\Source/os_flag.c **** *                            OS_ERR_OPT_INVALID           If you specified an invalid option
 745:..\..\..\..\..\..\Software\uCOS-III\Source/os_flag.c **** *                            OS_ERR_OS_NOT_RUNNING        If uC/OS-III is not running yet
 746:..\..\..\..\..\..\Software\uCOS-III\Source/os_flag.c **** *                            OS_ERR_PEND_ABORT_ISR        If you called this function from an ISR
 747:..\..\..\..\..\..\Software\uCOS-III\Source/os_flag.c **** *                            OS_ERR_PEND_ABORT_NONE       No task were pending
 748:..\..\..\..\..\..\Software\uCOS-III\Source/os_flag.c **** *
 749:..\..\..\..\..\..\Software\uCOS-III\Source/os_flag.c **** * Returns    : == 0          if no tasks were waiting on the event flag group, or upon error.
 750:..\..\..\..\..\..\Software\uCOS-III\Source/os_flag.c **** *              >  0          if one or more tasks waiting on the event flag group are now readied a
ARM GAS  C:\Users\ADMINI~1\AppData\Local\Temp\cc0ImMof.s 			page 28


 751:..\..\..\..\..\..\Software\uCOS-III\Source/os_flag.c **** *
 752:..\..\..\..\..\..\Software\uCOS-III\Source/os_flag.c **** * Note(s)    : none
 753:..\..\..\..\..\..\Software\uCOS-III\Source/os_flag.c **** ***************************************************************************************************
 754:..\..\..\..\..\..\Software\uCOS-III\Source/os_flag.c **** */
 755:..\..\..\..\..\..\Software\uCOS-III\Source/os_flag.c **** 
 756:..\..\..\..\..\..\Software\uCOS-III\Source/os_flag.c **** #if (OS_CFG_FLAG_PEND_ABORT_EN == DEF_ENABLED)
 757:..\..\..\..\..\..\Software\uCOS-III\Source/os_flag.c **** OS_OBJ_QTY  OSFlagPendAbort (OS_FLAG_GRP  *p_grp,
 758:..\..\..\..\..\..\Software\uCOS-III\Source/os_flag.c ****                              OS_OPT        opt,
 759:..\..\..\..\..\..\Software\uCOS-III\Source/os_flag.c ****                              OS_ERR       *p_err)
 760:..\..\..\..\..\..\Software\uCOS-III\Source/os_flag.c **** {
 761:..\..\..\..\..\..\Software\uCOS-III\Source/os_flag.c ****     OS_PEND_LIST  *p_pend_list;
 762:..\..\..\..\..\..\Software\uCOS-III\Source/os_flag.c ****     OS_TCB        *p_tcb;
 763:..\..\..\..\..\..\Software\uCOS-III\Source/os_flag.c ****     CPU_TS         ts;
 764:..\..\..\..\..\..\Software\uCOS-III\Source/os_flag.c ****     OS_OBJ_QTY     nbr_tasks;
 765:..\..\..\..\..\..\Software\uCOS-III\Source/os_flag.c ****     CPU_SR_ALLOC();
 766:..\..\..\..\..\..\Software\uCOS-III\Source/os_flag.c **** 
 767:..\..\..\..\..\..\Software\uCOS-III\Source/os_flag.c **** 
 768:..\..\..\..\..\..\Software\uCOS-III\Source/os_flag.c **** 
 769:..\..\..\..\..\..\Software\uCOS-III\Source/os_flag.c **** #ifdef OS_SAFETY_CRITICAL
 770:..\..\..\..\..\..\Software\uCOS-III\Source/os_flag.c ****     if (p_err == DEF_NULL) {
 771:..\..\..\..\..\..\Software\uCOS-III\Source/os_flag.c ****         OS_SAFETY_CRITICAL_EXCEPTION();
 772:..\..\..\..\..\..\Software\uCOS-III\Source/os_flag.c ****         return ((OS_OBJ_QTY)0u);
 773:..\..\..\..\..\..\Software\uCOS-III\Source/os_flag.c ****     }
 774:..\..\..\..\..\..\Software\uCOS-III\Source/os_flag.c **** #endif
 775:..\..\..\..\..\..\Software\uCOS-III\Source/os_flag.c **** 
 776:..\..\..\..\..\..\Software\uCOS-III\Source/os_flag.c **** #if (OS_CFG_CALLED_FROM_ISR_CHK_EN == DEF_ENABLED)
 777:..\..\..\..\..\..\Software\uCOS-III\Source/os_flag.c ****     if (OSIntNestingCtr > 0u) {                                 /* Not allowed to Pend Abort from a
 778:..\..\..\..\..\..\Software\uCOS-III\Source/os_flag.c ****        *p_err = OS_ERR_PEND_ABORT_ISR;
 779:..\..\..\..\..\..\Software\uCOS-III\Source/os_flag.c ****         return (0u);
 780:..\..\..\..\..\..\Software\uCOS-III\Source/os_flag.c ****     }
 781:..\..\..\..\..\..\Software\uCOS-III\Source/os_flag.c **** #endif
 782:..\..\..\..\..\..\Software\uCOS-III\Source/os_flag.c **** 
 783:..\..\..\..\..\..\Software\uCOS-III\Source/os_flag.c **** #if (OS_CFG_INVALID_OS_CALLS_CHK_EN == DEF_ENABLED)             /* Is the kernel running?          
 784:..\..\..\..\..\..\Software\uCOS-III\Source/os_flag.c ****     if (OSRunning != OS_STATE_OS_RUNNING) {
 785:..\..\..\..\..\..\Software\uCOS-III\Source/os_flag.c ****        *p_err = OS_ERR_OS_NOT_RUNNING;
 786:..\..\..\..\..\..\Software\uCOS-III\Source/os_flag.c ****         return (0u);
 787:..\..\..\..\..\..\Software\uCOS-III\Source/os_flag.c ****     }
 788:..\..\..\..\..\..\Software\uCOS-III\Source/os_flag.c **** #endif
 789:..\..\..\..\..\..\Software\uCOS-III\Source/os_flag.c **** 
 790:..\..\..\..\..\..\Software\uCOS-III\Source/os_flag.c **** #if (OS_CFG_ARG_CHK_EN == DEF_ENABLED)
 791:..\..\..\..\..\..\Software\uCOS-III\Source/os_flag.c ****     if (p_grp == DEF_NULL) {                                    /* Validate 'p_grp'                
 792:..\..\..\..\..\..\Software\uCOS-III\Source/os_flag.c ****        *p_err  =  OS_ERR_OBJ_PTR_NULL;
 793:..\..\..\..\..\..\Software\uCOS-III\Source/os_flag.c ****         return (0u);
 794:..\..\..\..\..\..\Software\uCOS-III\Source/os_flag.c ****     }
 795:..\..\..\..\..\..\Software\uCOS-III\Source/os_flag.c ****     switch (opt) {                                              /* Validate 'opt'                  
 796:..\..\..\..\..\..\Software\uCOS-III\Source/os_flag.c ****         case OS_OPT_PEND_ABORT_1:
 797:..\..\..\..\..\..\Software\uCOS-III\Source/os_flag.c ****         case OS_OPT_PEND_ABORT_ALL:
 798:..\..\..\..\..\..\Software\uCOS-III\Source/os_flag.c ****         case OS_OPT_PEND_ABORT_1   | OS_OPT_POST_NO_SCHED:
 799:..\..\..\..\..\..\Software\uCOS-III\Source/os_flag.c ****         case OS_OPT_PEND_ABORT_ALL | OS_OPT_POST_NO_SCHED:
 800:..\..\..\..\..\..\Software\uCOS-III\Source/os_flag.c ****              break;
 801:..\..\..\..\..\..\Software\uCOS-III\Source/os_flag.c **** 
 802:..\..\..\..\..\..\Software\uCOS-III\Source/os_flag.c ****         default:
 803:..\..\..\..\..\..\Software\uCOS-III\Source/os_flag.c ****             *p_err = OS_ERR_OPT_INVALID;
 804:..\..\..\..\..\..\Software\uCOS-III\Source/os_flag.c ****              return (0u);
 805:..\..\..\..\..\..\Software\uCOS-III\Source/os_flag.c ****     }
 806:..\..\..\..\..\..\Software\uCOS-III\Source/os_flag.c **** #endif
 807:..\..\..\..\..\..\Software\uCOS-III\Source/os_flag.c **** 
ARM GAS  C:\Users\ADMINI~1\AppData\Local\Temp\cc0ImMof.s 			page 29


 808:..\..\..\..\..\..\Software\uCOS-III\Source/os_flag.c **** #if (OS_CFG_OBJ_TYPE_CHK_EN == DEF_ENABLED)
 809:..\..\..\..\..\..\Software\uCOS-III\Source/os_flag.c ****     if (p_grp->Type != OS_OBJ_TYPE_FLAG) {                      /* Make sure event flag group was c
 810:..\..\..\..\..\..\Software\uCOS-III\Source/os_flag.c ****        *p_err = OS_ERR_OBJ_TYPE;
 811:..\..\..\..\..\..\Software\uCOS-III\Source/os_flag.c ****         return (0u);
 812:..\..\..\..\..\..\Software\uCOS-III\Source/os_flag.c ****     }
 813:..\..\..\..\..\..\Software\uCOS-III\Source/os_flag.c **** #endif
 814:..\..\..\..\..\..\Software\uCOS-III\Source/os_flag.c **** 
 815:..\..\..\..\..\..\Software\uCOS-III\Source/os_flag.c ****     CPU_CRITICAL_ENTER();
 816:..\..\..\..\..\..\Software\uCOS-III\Source/os_flag.c ****     p_pend_list = &p_grp->PendList;
 817:..\..\..\..\..\..\Software\uCOS-III\Source/os_flag.c ****     if (p_pend_list->HeadPtr == DEF_NULL) {                     /* Any task waiting on flag group? 
 818:..\..\..\..\..\..\Software\uCOS-III\Source/os_flag.c ****         CPU_CRITICAL_EXIT();                                    /* No                              
 819:..\..\..\..\..\..\Software\uCOS-III\Source/os_flag.c ****        *p_err = OS_ERR_PEND_ABORT_NONE;
 820:..\..\..\..\..\..\Software\uCOS-III\Source/os_flag.c ****         return (0u);
 821:..\..\..\..\..\..\Software\uCOS-III\Source/os_flag.c ****     }
 822:..\..\..\..\..\..\Software\uCOS-III\Source/os_flag.c **** 
 823:..\..\..\..\..\..\Software\uCOS-III\Source/os_flag.c ****     OS_CRITICAL_ENTER_CPU_EXIT();
 824:..\..\..\..\..\..\Software\uCOS-III\Source/os_flag.c ****     nbr_tasks = 0u;
 825:..\..\..\..\..\..\Software\uCOS-III\Source/os_flag.c **** #if (OS_CFG_TS_EN == DEF_ENABLED)
 826:..\..\..\..\..\..\Software\uCOS-III\Source/os_flag.c ****     ts        = OS_TS_GET();                                    /* Get local time stamp so all task
 827:..\..\..\..\..\..\Software\uCOS-III\Source/os_flag.c **** #else
 828:..\..\..\..\..\..\Software\uCOS-III\Source/os_flag.c ****     ts        = 0u;
 829:..\..\..\..\..\..\Software\uCOS-III\Source/os_flag.c **** #endif
 830:..\..\..\..\..\..\Software\uCOS-III\Source/os_flag.c **** 
 831:..\..\..\..\..\..\Software\uCOS-III\Source/os_flag.c ****     while (p_pend_list->HeadPtr != DEF_NULL) {
 832:..\..\..\..\..\..\Software\uCOS-III\Source/os_flag.c ****         p_tcb = p_pend_list->HeadPtr->TCBPtr;
 833:..\..\..\..\..\..\Software\uCOS-III\Source/os_flag.c ****         OS_PendAbort((OS_PEND_OBJ *)((void *)p_grp),
 834:..\..\..\..\..\..\Software\uCOS-III\Source/os_flag.c ****                      p_tcb,
 835:..\..\..\..\..\..\Software\uCOS-III\Source/os_flag.c ****                      ts);
 836:..\..\..\..\..\..\Software\uCOS-III\Source/os_flag.c ****         nbr_tasks++;
 837:..\..\..\..\..\..\Software\uCOS-III\Source/os_flag.c ****         if (opt != OS_OPT_PEND_ABORT_ALL) {                     /* Pend abort all tasks waiting?   
 838:..\..\..\..\..\..\Software\uCOS-III\Source/os_flag.c ****             break;                                              /* No                              
 839:..\..\..\..\..\..\Software\uCOS-III\Source/os_flag.c ****         }
 840:..\..\..\..\..\..\Software\uCOS-III\Source/os_flag.c ****     }
 841:..\..\..\..\..\..\Software\uCOS-III\Source/os_flag.c ****     OS_CRITICAL_EXIT_NO_SCHED();
 842:..\..\..\..\..\..\Software\uCOS-III\Source/os_flag.c **** 
 843:..\..\..\..\..\..\Software\uCOS-III\Source/os_flag.c ****     if ((opt & OS_OPT_POST_NO_SCHED) == 0u) {
 844:..\..\..\..\..\..\Software\uCOS-III\Source/os_flag.c ****         OSSched();                                              /* Run the scheduler               
 845:..\..\..\..\..\..\Software\uCOS-III\Source/os_flag.c ****     }
 846:..\..\..\..\..\..\Software\uCOS-III\Source/os_flag.c **** 
 847:..\..\..\..\..\..\Software\uCOS-III\Source/os_flag.c ****    *p_err = OS_ERR_NONE;
 848:..\..\..\..\..\..\Software\uCOS-III\Source/os_flag.c ****     return (nbr_tasks);
 849:..\..\..\..\..\..\Software\uCOS-III\Source/os_flag.c **** }
 850:..\..\..\..\..\..\Software\uCOS-III\Source/os_flag.c **** #endif
 851:..\..\..\..\..\..\Software\uCOS-III\Source/os_flag.c **** 
 852:..\..\..\..\..\..\Software\uCOS-III\Source/os_flag.c **** 
 853:..\..\..\..\..\..\Software\uCOS-III\Source/os_flag.c **** /*
 854:..\..\..\..\..\..\Software\uCOS-III\Source/os_flag.c **** ***************************************************************************************************
 855:..\..\..\..\..\..\Software\uCOS-III\Source/os_flag.c **** *                                       GET FLAGS WHO CAUSED TASK TO BECOME READY
 856:..\..\..\..\..\..\Software\uCOS-III\Source/os_flag.c **** *
 857:..\..\..\..\..\..\Software\uCOS-III\Source/os_flag.c **** * Description: This function is called to obtain the flags that caused the task to become ready to 
 858:..\..\..\..\..\..\Software\uCOS-III\Source/os_flag.c **** *              In other words, this function allows you to tell "Who done it!".
 859:..\..\..\..\..\..\Software\uCOS-III\Source/os_flag.c **** *
 860:..\..\..\..\..\..\Software\uCOS-III\Source/os_flag.c **** * Arguments  : p_err     is a pointer to an error code
 861:..\..\..\..\..\..\Software\uCOS-III\Source/os_flag.c **** *
 862:..\..\..\..\..\..\Software\uCOS-III\Source/os_flag.c **** *                            OS_ERR_NONE              If the call was successful
 863:..\..\..\..\..\..\Software\uCOS-III\Source/os_flag.c **** *                            OS_ERR_OS_NOT_RUNNING    If uC/OS-III is not running yet
 864:..\..\..\..\..\..\Software\uCOS-III\Source/os_flag.c **** *                            OS_ERR_PEND_ISR          If called from an ISR
ARM GAS  C:\Users\ADMINI~1\AppData\Local\Temp\cc0ImMof.s 			page 30


 865:..\..\..\..\..\..\Software\uCOS-III\Source/os_flag.c **** *
 866:..\..\..\..\..\..\Software\uCOS-III\Source/os_flag.c **** * Returns    : The flags that caused the task to be ready.
 867:..\..\..\..\..\..\Software\uCOS-III\Source/os_flag.c **** *
 868:..\..\..\..\..\..\Software\uCOS-III\Source/os_flag.c **** * Note(s)    : none
 869:..\..\..\..\..\..\Software\uCOS-III\Source/os_flag.c **** ***************************************************************************************************
 870:..\..\..\..\..\..\Software\uCOS-III\Source/os_flag.c **** */
 871:..\..\..\..\..\..\Software\uCOS-III\Source/os_flag.c **** 
 872:..\..\..\..\..\..\Software\uCOS-III\Source/os_flag.c **** OS_FLAGS  OSFlagPendGetFlagsRdy (OS_ERR  *p_err)
 873:..\..\..\..\..\..\Software\uCOS-III\Source/os_flag.c **** {
 788              		.loc 1 873 0
 789              		.cfi_startproc
 790              		@ args = 0, pretend = 0, frame = 16
 791              		@ frame_needed = 1, uses_anonymous_args = 0
 792 0000 80B5     		push	{r7, lr}
 793              		.cfi_def_cfa_offset 8
 794              		.cfi_offset 7, -8
 795              		.cfi_offset 14, -4
 796 0002 84B0     		sub	sp, sp, #16
 797              		.cfi_def_cfa_offset 24
 798 0004 00AF     		add	r7, sp, #0
 799              		.cfi_def_cfa_register 7
 800 0006 7860     		str	r0, [r7, #4]
 874:..\..\..\..\..\..\Software\uCOS-III\Source/os_flag.c ****     OS_FLAGS   flags;
 875:..\..\..\..\..\..\Software\uCOS-III\Source/os_flag.c ****     CPU_SR_ALLOC();
 801              		.loc 1 875 0
 802 0008 0023     		movs	r3, #0
 803 000a FB60     		str	r3, [r7, #12]
 876:..\..\..\..\..\..\Software\uCOS-III\Source/os_flag.c **** 
 877:..\..\..\..\..\..\Software\uCOS-III\Source/os_flag.c **** 
 878:..\..\..\..\..\..\Software\uCOS-III\Source/os_flag.c **** 
 879:..\..\..\..\..\..\Software\uCOS-III\Source/os_flag.c **** #ifdef OS_SAFETY_CRITICAL
 880:..\..\..\..\..\..\Software\uCOS-III\Source/os_flag.c ****     if (p_err == DEF_NULL) {
 881:..\..\..\..\..\..\Software\uCOS-III\Source/os_flag.c ****         OS_SAFETY_CRITICAL_EXCEPTION();
 882:..\..\..\..\..\..\Software\uCOS-III\Source/os_flag.c ****         return ((OS_FLAGS)0);
 883:..\..\..\..\..\..\Software\uCOS-III\Source/os_flag.c ****     }
 884:..\..\..\..\..\..\Software\uCOS-III\Source/os_flag.c **** #endif
 885:..\..\..\..\..\..\Software\uCOS-III\Source/os_flag.c **** 
 886:..\..\..\..\..\..\Software\uCOS-III\Source/os_flag.c **** #if (OS_CFG_INVALID_OS_CALLS_CHK_EN == DEF_ENABLED)             /* Is the kernel running?          
 887:..\..\..\..\..\..\Software\uCOS-III\Source/os_flag.c ****     if (OSRunning != OS_STATE_OS_RUNNING) {
 888:..\..\..\..\..\..\Software\uCOS-III\Source/os_flag.c ****        *p_err = OS_ERR_OS_NOT_RUNNING;
 889:..\..\..\..\..\..\Software\uCOS-III\Source/os_flag.c ****         return (0u);
 890:..\..\..\..\..\..\Software\uCOS-III\Source/os_flag.c ****     }
 891:..\..\..\..\..\..\Software\uCOS-III\Source/os_flag.c **** #endif
 892:..\..\..\..\..\..\Software\uCOS-III\Source/os_flag.c **** 
 893:..\..\..\..\..\..\Software\uCOS-III\Source/os_flag.c **** #if (OS_CFG_CALLED_FROM_ISR_CHK_EN == DEF_ENABLED)
 894:..\..\..\..\..\..\Software\uCOS-III\Source/os_flag.c ****     if (OSIntNestingCtr > 0u) {                                 /* See if called from ISR ...      
 804              		.loc 1 894 0
 805 000c 104B     		ldr	r3, .L61
 806 000e 1B78     		ldrb	r3, [r3]
 807 0010 002B     		cmp	r3, #0
 808 0012 04D0     		beq	.L59
 895:..\..\..\..\..\..\Software\uCOS-III\Source/os_flag.c ****        *p_err = OS_ERR_PEND_ISR;                                /* ... can't get from an ISR       
 809              		.loc 1 895 0
 810 0014 7B68     		ldr	r3, [r7, #4]
 811 0016 0F4A     		ldr	r2, .L61+4
 812 0018 1A80     		strh	r2, [r3]
 896:..\..\..\..\..\..\Software\uCOS-III\Source/os_flag.c ****         return (0u);
ARM GAS  C:\Users\ADMINI~1\AppData\Local\Temp\cc0ImMof.s 			page 31


 813              		.loc 1 896 0
 814 001a 0023     		movs	r3, #0
 815 001c 14E0     		b	.L60
 816              	.L59:
 897:..\..\..\..\..\..\Software\uCOS-III\Source/os_flag.c ****     }
 898:..\..\..\..\..\..\Software\uCOS-III\Source/os_flag.c **** #endif
 899:..\..\..\..\..\..\Software\uCOS-III\Source/os_flag.c **** 
 900:..\..\..\..\..\..\Software\uCOS-III\Source/os_flag.c ****     CPU_CRITICAL_ENTER();
 817              		.loc 1 900 0
 818 001e FFF7FEFF 		bl	CPU_SR_Save
 819 0022 0300     		movs	r3, r0
 820 0024 FB60     		str	r3, [r7, #12]
 821 0026 FFF7FEFF 		bl	CPU_IntDisMeasStart
 901:..\..\..\..\..\..\Software\uCOS-III\Source/os_flag.c ****     flags = OSTCBCurPtr->FlagsRdy;
 822              		.loc 1 901 0
 823 002a 0B4B     		ldr	r3, .L61+8
 824 002c 1B68     		ldr	r3, [r3]
 825 002e 8022     		movs	r2, #128
 826 0030 9B58     		ldr	r3, [r3, r2]
 827 0032 BB60     		str	r3, [r7, #8]
 902:..\..\..\..\..\..\Software\uCOS-III\Source/os_flag.c ****     CPU_CRITICAL_EXIT();
 828              		.loc 1 902 0
 829 0034 FFF7FEFF 		bl	CPU_IntDisMeasStop
 830 0038 FB68     		ldr	r3, [r7, #12]
 831 003a 1800     		movs	r0, r3
 832 003c FFF7FEFF 		bl	CPU_SR_Restore
 903:..\..\..\..\..\..\Software\uCOS-III\Source/os_flag.c ****    *p_err = OS_ERR_NONE;
 833              		.loc 1 903 0
 834 0040 7B68     		ldr	r3, [r7, #4]
 835 0042 0022     		movs	r2, #0
 836 0044 1A80     		strh	r2, [r3]
 904:..\..\..\..\..\..\Software\uCOS-III\Source/os_flag.c ****     return (flags);
 837              		.loc 1 904 0
 838 0046 BB68     		ldr	r3, [r7, #8]
 839              	.L60:
 905:..\..\..\..\..\..\Software\uCOS-III\Source/os_flag.c **** }
 840              		.loc 1 905 0
 841 0048 1800     		movs	r0, r3
 842 004a BD46     		mov	sp, r7
 843 004c 04B0     		add	sp, sp, #16
 844              		@ sp needed
 845 004e 80BD     		pop	{r7, pc}
 846              	.L62:
 847              		.align	2
 848              	.L61:
 849 0050 00000000 		.word	OSIntNestingCtr
 850 0054 AE610000 		.word	25006
 851 0058 00000000 		.word	OSTCBCurPtr
 852              		.cfi_endproc
 853              	.LFE2:
 854              		.size	OSFlagPendGetFlagsRdy, .-OSFlagPendGetFlagsRdy
 855              		.section	.text.OSFlagPost,"ax",%progbits
 856              		.align	2
 857              		.global	OSFlagPost
 858              		.code	16
 859              		.thumb_func
 860              		.type	OSFlagPost, %function
ARM GAS  C:\Users\ADMINI~1\AppData\Local\Temp\cc0ImMof.s 			page 32


 861              	OSFlagPost:
 862              	.LFB3:
 906:..\..\..\..\..\..\Software\uCOS-III\Source/os_flag.c **** 
 907:..\..\..\..\..\..\Software\uCOS-III\Source/os_flag.c **** 
 908:..\..\..\..\..\..\Software\uCOS-III\Source/os_flag.c **** /*
 909:..\..\..\..\..\..\Software\uCOS-III\Source/os_flag.c **** ***************************************************************************************************
 910:..\..\..\..\..\..\Software\uCOS-III\Source/os_flag.c **** *                                                POST EVENT FLAG BIT(S)
 911:..\..\..\..\..\..\Software\uCOS-III\Source/os_flag.c **** *
 912:..\..\..\..\..\..\Software\uCOS-III\Source/os_flag.c **** * Description: This function is called to set or clear some bits in an event flag group.  The bits 
 913:..\..\..\..\..\..\Software\uCOS-III\Source/os_flag.c **** *              specified by a 'bit mask'.
 914:..\..\..\..\..\..\Software\uCOS-III\Source/os_flag.c **** *
 915:..\..\..\..\..\..\Software\uCOS-III\Source/os_flag.c **** * Arguments  : p_grp         is a pointer to the desired event flag group.
 916:..\..\..\..\..\..\Software\uCOS-III\Source/os_flag.c **** *
 917:..\..\..\..\..\..\Software\uCOS-III\Source/os_flag.c **** *              flags         If 'opt' (see below) is OS_OPT_POST_FLAG_SET, each bit that is set in 
 918:..\..\..\..\..\..\Software\uCOS-III\Source/os_flag.c **** *                            set the corresponding bit in the event flag group.  e.g. to set bits 0
 919:..\..\..\..\..\..\Software\uCOS-III\Source/os_flag.c **** *                            and 5 you would set 'flags' to:
 920:..\..\..\..\..\..\Software\uCOS-III\Source/os_flag.c **** *
 921:..\..\..\..\..\..\Software\uCOS-III\Source/os_flag.c **** *                                0x31     (note, bit 0 is least significant bit)
 922:..\..\..\..\..\..\Software\uCOS-III\Source/os_flag.c **** *
 923:..\..\..\..\..\..\Software\uCOS-III\Source/os_flag.c **** *                            If 'opt' (see below) is OS_OPT_POST_FLAG_CLR, each bit that is set in 
 924:..\..\..\..\..\..\Software\uCOS-III\Source/os_flag.c **** *                            CLEAR the corresponding bit in the event flag group.  e.g. to clear bi
 925:..\..\..\..\..\..\Software\uCOS-III\Source/os_flag.c **** *                            4 and 5 you would specify 'flags' as:
 926:..\..\..\..\..\..\Software\uCOS-III\Source/os_flag.c **** *
 927:..\..\..\..\..\..\Software\uCOS-III\Source/os_flag.c **** *                                0x31     (note, bit 0 is least significant bit)
 928:..\..\..\..\..\..\Software\uCOS-III\Source/os_flag.c **** *
 929:..\..\..\..\..\..\Software\uCOS-III\Source/os_flag.c **** *              opt           indicates whether the flags will be:
 930:..\..\..\..\..\..\Software\uCOS-III\Source/os_flag.c **** *
 931:..\..\..\..\..\..\Software\uCOS-III\Source/os_flag.c **** *                                OS_OPT_POST_FLAG_SET       set
 932:..\..\..\..\..\..\Software\uCOS-III\Source/os_flag.c **** *                                OS_OPT_POST_FLAG_CLR       cleared
 933:..\..\..\..\..\..\Software\uCOS-III\Source/os_flag.c **** *
 934:..\..\..\..\..\..\Software\uCOS-III\Source/os_flag.c **** *                            you can also 'add' OS_OPT_POST_NO_SCHED to prevent the scheduler from 
 935:..\..\..\..\..\..\Software\uCOS-III\Source/os_flag.c **** *
 936:..\..\..\..\..\..\Software\uCOS-III\Source/os_flag.c **** *              p_err         is a pointer to an error code and can be:
 937:..\..\..\..\..\..\Software\uCOS-III\Source/os_flag.c **** *
 938:..\..\..\..\..\..\Software\uCOS-III\Source/os_flag.c **** *                                OS_ERR_NONE                The call was successful
 939:..\..\..\..\..\..\Software\uCOS-III\Source/os_flag.c **** *                                OS_ERR_INT_Q_FULL          If the deferred interrupt post queue is
 940:..\..\..\..\..\..\Software\uCOS-III\Source/os_flag.c **** *                                OS_ERR_OBJ_PTR_NULL        You passed a NULL pointer
 941:..\..\..\..\..\..\Software\uCOS-III\Source/os_flag.c **** *                                OS_ERR_OBJ_TYPE            You are not pointing to an event flag g
 942:..\..\..\..\..\..\Software\uCOS-III\Source/os_flag.c **** *                                OS_ERR_OPT_INVALID         You specified an invalid option
 943:..\..\..\..\..\..\Software\uCOS-III\Source/os_flag.c **** *                                OS_ERR_OS_NOT_RUNNING      If uC/OS-III is not running yet
 944:..\..\..\..\..\..\Software\uCOS-III\Source/os_flag.c **** *
 945:..\..\..\..\..\..\Software\uCOS-III\Source/os_flag.c **** * Returns    : the new value of the event flags bits that are still set.
 946:..\..\..\..\..\..\Software\uCOS-III\Source/os_flag.c **** *
 947:..\..\..\..\..\..\Software\uCOS-III\Source/os_flag.c **** * Note(s)    : 1) The execution time of this function depends on the number of tasks waiting on the
 948:..\..\..\..\..\..\Software\uCOS-III\Source/os_flag.c **** ***************************************************************************************************
 949:..\..\..\..\..\..\Software\uCOS-III\Source/os_flag.c **** */
 950:..\..\..\..\..\..\Software\uCOS-III\Source/os_flag.c **** 
 951:..\..\..\..\..\..\Software\uCOS-III\Source/os_flag.c **** OS_FLAGS  OSFlagPost (OS_FLAG_GRP  *p_grp,
 952:..\..\..\..\..\..\Software\uCOS-III\Source/os_flag.c ****                       OS_FLAGS      flags,
 953:..\..\..\..\..\..\Software\uCOS-III\Source/os_flag.c ****                       OS_OPT        opt,
 954:..\..\..\..\..\..\Software\uCOS-III\Source/os_flag.c ****                       OS_ERR       *p_err)
 955:..\..\..\..\..\..\Software\uCOS-III\Source/os_flag.c **** {
 863              		.loc 1 955 0
 864              		.cfi_startproc
 865              		@ args = 0, pretend = 0, frame = 24
 866              		@ frame_needed = 1, uses_anonymous_args = 0
 867 0000 90B5     		push	{r4, r7, lr}
ARM GAS  C:\Users\ADMINI~1\AppData\Local\Temp\cc0ImMof.s 			page 33


 868              		.cfi_def_cfa_offset 12
 869              		.cfi_offset 4, -12
 870              		.cfi_offset 7, -8
 871              		.cfi_offset 14, -4
 872 0002 89B0     		sub	sp, sp, #36
 873              		.cfi_def_cfa_offset 48
 874 0004 02AF     		add	r7, sp, #8
 875              		.cfi_def_cfa 7, 40
 876 0006 F860     		str	r0, [r7, #12]
 877 0008 B960     		str	r1, [r7, #8]
 878 000a 3B60     		str	r3, [r7]
 879 000c BB1D     		adds	r3, r7, #6
 880 000e 1A80     		strh	r2, [r3]
 956:..\..\..\..\..\..\Software\uCOS-III\Source/os_flag.c ****     OS_FLAGS  flags_cur;
 957:..\..\..\..\..\..\Software\uCOS-III\Source/os_flag.c ****     CPU_TS    ts;
 958:..\..\..\..\..\..\Software\uCOS-III\Source/os_flag.c **** 
 959:..\..\..\..\..\..\Software\uCOS-III\Source/os_flag.c **** 
 960:..\..\..\..\..\..\Software\uCOS-III\Source/os_flag.c **** 
 961:..\..\..\..\..\..\Software\uCOS-III\Source/os_flag.c **** #ifdef OS_SAFETY_CRITICAL
 962:..\..\..\..\..\..\Software\uCOS-III\Source/os_flag.c ****     if (p_err == DEF_NULL) {
 963:..\..\..\..\..\..\Software\uCOS-III\Source/os_flag.c ****         OS_SAFETY_CRITICAL_EXCEPTION();
 964:..\..\..\..\..\..\Software\uCOS-III\Source/os_flag.c ****         return (0u);
 965:..\..\..\..\..\..\Software\uCOS-III\Source/os_flag.c ****     }
 966:..\..\..\..\..\..\Software\uCOS-III\Source/os_flag.c **** #endif
 967:..\..\..\..\..\..\Software\uCOS-III\Source/os_flag.c **** 
 968:..\..\..\..\..\..\Software\uCOS-III\Source/os_flag.c **** #if (OS_CFG_INVALID_OS_CALLS_CHK_EN == DEF_ENABLED)             /* Is the kernel running?          
 969:..\..\..\..\..\..\Software\uCOS-III\Source/os_flag.c ****     if (OSRunning != OS_STATE_OS_RUNNING) {
 970:..\..\..\..\..\..\Software\uCOS-III\Source/os_flag.c ****        *p_err = OS_ERR_OS_NOT_RUNNING;
 971:..\..\..\..\..\..\Software\uCOS-III\Source/os_flag.c ****         return (0u);
 972:..\..\..\..\..\..\Software\uCOS-III\Source/os_flag.c ****     }
 973:..\..\..\..\..\..\Software\uCOS-III\Source/os_flag.c **** #endif
 974:..\..\..\..\..\..\Software\uCOS-III\Source/os_flag.c **** 
 975:..\..\..\..\..\..\Software\uCOS-III\Source/os_flag.c **** #if (OS_CFG_ARG_CHK_EN == DEF_ENABLED)
 976:..\..\..\..\..\..\Software\uCOS-III\Source/os_flag.c ****     if (p_grp == DEF_NULL) {                                    /* Validate 'p_grp'                
 881              		.loc 1 976 0
 882 0010 FB68     		ldr	r3, [r7, #12]
 883 0012 002B     		cmp	r3, #0
 884 0014 04D1     		bne	.L64
 977:..\..\..\..\..\..\Software\uCOS-III\Source/os_flag.c **** #if (defined(TRACE_CFG_EN) && (TRACE_CFG_EN == DEF_ENABLED))
 978:..\..\..\..\..\..\Software\uCOS-III\Source/os_flag.c ****         TRACE_OS_FLAG_POST_FAILED(p_grp);                       /* Record the event.               
 979:..\..\..\..\..\..\Software\uCOS-III\Source/os_flag.c **** #endif
 980:..\..\..\..\..\..\Software\uCOS-III\Source/os_flag.c ****        *p_err  = OS_ERR_OBJ_PTR_NULL;
 885              		.loc 1 980 0
 886 0016 3B68     		ldr	r3, [r7]
 887 0018 144A     		ldr	r2, .L70
 888 001a 1A80     		strh	r2, [r3]
 981:..\..\..\..\..\..\Software\uCOS-III\Source/os_flag.c ****         return (0u);
 889              		.loc 1 981 0
 890 001c 0023     		movs	r3, #0
 891 001e 21E0     		b	.L65
 892              	.L64:
 982:..\..\..\..\..\..\Software\uCOS-III\Source/os_flag.c ****     }
 983:..\..\..\..\..\..\Software\uCOS-III\Source/os_flag.c ****     switch (opt) {                                              /* Validate 'opt'                  
 893              		.loc 1 983 0
 894 0020 BB1D     		adds	r3, r7, #6
 895 0022 1B88     		ldrh	r3, [r3]
 896 0024 002B     		cmp	r3, #0
ARM GAS  C:\Users\ADMINI~1\AppData\Local\Temp\cc0ImMof.s 			page 34


 897 0026 06DB     		blt	.L66
 898 0028 012B     		cmp	r3, #1
 899 002a 09DD     		ble	.L69
 900 002c 104A     		ldr	r2, .L70+4
 901 002e 9446     		mov	ip, r2
 902 0030 6344     		add	r3, r3, ip
 903 0032 012B     		cmp	r3, #1
 904 0034 04D9     		bls	.L69
 905              	.L66:
 984:..\..\..\..\..\..\Software\uCOS-III\Source/os_flag.c ****         case OS_OPT_POST_FLAG_SET:
 985:..\..\..\..\..\..\Software\uCOS-III\Source/os_flag.c ****         case OS_OPT_POST_FLAG_CLR:
 986:..\..\..\..\..\..\Software\uCOS-III\Source/os_flag.c ****         case OS_OPT_POST_FLAG_SET | OS_OPT_POST_NO_SCHED:
 987:..\..\..\..\..\..\Software\uCOS-III\Source/os_flag.c ****         case OS_OPT_POST_FLAG_CLR | OS_OPT_POST_NO_SCHED:
 988:..\..\..\..\..\..\Software\uCOS-III\Source/os_flag.c ****              break;
 989:..\..\..\..\..\..\Software\uCOS-III\Source/os_flag.c **** 
 990:..\..\..\..\..\..\Software\uCOS-III\Source/os_flag.c ****         default:
 991:..\..\..\..\..\..\Software\uCOS-III\Source/os_flag.c **** #if (defined(TRACE_CFG_EN) && (TRACE_CFG_EN == DEF_ENABLED))
 992:..\..\..\..\..\..\Software\uCOS-III\Source/os_flag.c ****              TRACE_OS_FLAG_POST_FAILED(p_grp);                  /* Record the event.               
 993:..\..\..\..\..\..\Software\uCOS-III\Source/os_flag.c **** #endif
 994:..\..\..\..\..\..\Software\uCOS-III\Source/os_flag.c ****             *p_err = OS_ERR_OPT_INVALID;
 906              		.loc 1 994 0
 907 0036 3B68     		ldr	r3, [r7]
 908 0038 0E4A     		ldr	r2, .L70+8
 909 003a 1A80     		strh	r2, [r3]
 995:..\..\..\..\..\..\Software\uCOS-III\Source/os_flag.c ****              return (0u);
 910              		.loc 1 995 0
 911 003c 0023     		movs	r3, #0
 912 003e 11E0     		b	.L65
 913              	.L69:
 988:..\..\..\..\..\..\Software\uCOS-III\Source/os_flag.c **** 
 914              		.loc 1 988 0
 915 0040 C046     		nop
 996:..\..\..\..\..\..\Software\uCOS-III\Source/os_flag.c ****     }
 997:..\..\..\..\..\..\Software\uCOS-III\Source/os_flag.c **** #endif
 998:..\..\..\..\..\..\Software\uCOS-III\Source/os_flag.c **** 
 999:..\..\..\..\..\..\Software\uCOS-III\Source/os_flag.c **** #if (OS_CFG_OBJ_TYPE_CHK_EN == DEF_ENABLED)
1000:..\..\..\..\..\..\Software\uCOS-III\Source/os_flag.c ****     if (p_grp->Type != OS_OBJ_TYPE_FLAG) {                      /* Make sure we are pointing to an 
1001:..\..\..\..\..\..\Software\uCOS-III\Source/os_flag.c **** #if (defined(TRACE_CFG_EN) && (TRACE_CFG_EN == DEF_ENABLED))
1002:..\..\..\..\..\..\Software\uCOS-III\Source/os_flag.c ****         TRACE_OS_FLAG_POST_FAILED(p_grp);                       /* Record the event.               
1003:..\..\..\..\..\..\Software\uCOS-III\Source/os_flag.c **** #endif
1004:..\..\..\..\..\..\Software\uCOS-III\Source/os_flag.c ****        *p_err = OS_ERR_OBJ_TYPE;
1005:..\..\..\..\..\..\Software\uCOS-III\Source/os_flag.c ****         return (0u);
1006:..\..\..\..\..\..\Software\uCOS-III\Source/os_flag.c ****     }
1007:..\..\..\..\..\..\Software\uCOS-III\Source/os_flag.c **** #endif
1008:..\..\..\..\..\..\Software\uCOS-III\Source/os_flag.c **** 
1009:..\..\..\..\..\..\Software\uCOS-III\Source/os_flag.c **** #if (OS_CFG_TS_EN == DEF_ENABLED)
1010:..\..\..\..\..\..\Software\uCOS-III\Source/os_flag.c ****     ts = OS_TS_GET();                                           /* Get timestamp                   
 916              		.loc 1 1010 0
 917 0042 FFF7FEFF 		bl	CPU_TS_TmrRd
 918 0046 0300     		movs	r3, r0
 919 0048 7B61     		str	r3, [r7, #20]
1011:..\..\..\..\..\..\Software\uCOS-III\Source/os_flag.c **** #else
1012:..\..\..\..\..\..\Software\uCOS-III\Source/os_flag.c ****     ts = 0u;
1013:..\..\..\..\..\..\Software\uCOS-III\Source/os_flag.c **** #endif
1014:..\..\..\..\..\..\Software\uCOS-III\Source/os_flag.c **** #if (OS_CFG_ISR_POST_DEFERRED_EN == DEF_ENABLED)
1015:..\..\..\..\..\..\Software\uCOS-III\Source/os_flag.c ****     if (OSIntNestingCtr > 0u) {                                 /* See if called from an ISR       
1016:..\..\..\..\..\..\Software\uCOS-III\Source/os_flag.c ****         OS_IntQPost(OS_OBJ_TYPE_FLAG,                           /* Post to ISR queue               
ARM GAS  C:\Users\ADMINI~1\AppData\Local\Temp\cc0ImMof.s 			page 35


1017:..\..\..\..\..\..\Software\uCOS-III\Source/os_flag.c ****                     (void *)p_grp,
1018:..\..\..\..\..\..\Software\uCOS-III\Source/os_flag.c ****                     DEF_NULL,
1019:..\..\..\..\..\..\Software\uCOS-III\Source/os_flag.c ****                     0u,
1020:..\..\..\..\..\..\Software\uCOS-III\Source/os_flag.c ****                     flags,
1021:..\..\..\..\..\..\Software\uCOS-III\Source/os_flag.c ****                     opt,
1022:..\..\..\..\..\..\Software\uCOS-III\Source/os_flag.c ****                     ts,
1023:..\..\..\..\..\..\Software\uCOS-III\Source/os_flag.c ****                     p_err);
1024:..\..\..\..\..\..\Software\uCOS-III\Source/os_flag.c **** #if (defined(TRACE_CFG_EN) && (TRACE_CFG_EN == DEF_ENABLED))
1025:..\..\..\..\..\..\Software\uCOS-III\Source/os_flag.c ****         TRACE_OS_FLAG_POST(p_grp);                              /* Record the event.               
1026:..\..\..\..\..\..\Software\uCOS-III\Source/os_flag.c **** #endif
1027:..\..\..\..\..\..\Software\uCOS-III\Source/os_flag.c ****         return (0u);
1028:..\..\..\..\..\..\Software\uCOS-III\Source/os_flag.c ****     }
1029:..\..\..\..\..\..\Software\uCOS-III\Source/os_flag.c **** #endif
1030:..\..\..\..\..\..\Software\uCOS-III\Source/os_flag.c **** 
1031:..\..\..\..\..\..\Software\uCOS-III\Source/os_flag.c ****     flags_cur = OS_FlagPost(p_grp,
 920              		.loc 1 1031 0
 921 004a 7C69     		ldr	r4, [r7, #20]
 922 004c BB1D     		adds	r3, r7, #6
 923 004e 1A88     		ldrh	r2, [r3]
 924 0050 B968     		ldr	r1, [r7, #8]
 925 0052 F868     		ldr	r0, [r7, #12]
 926 0054 3B68     		ldr	r3, [r7]
 927 0056 0093     		str	r3, [sp]
 928 0058 2300     		movs	r3, r4
 929 005a FFF7FEFF 		bl	OS_FlagPost
 930 005e 0300     		movs	r3, r0
 931 0060 3B61     		str	r3, [r7, #16]
1032:..\..\..\..\..\..\Software\uCOS-III\Source/os_flag.c ****                             flags,
1033:..\..\..\..\..\..\Software\uCOS-III\Source/os_flag.c ****                             opt,
1034:..\..\..\..\..\..\Software\uCOS-III\Source/os_flag.c ****                             ts,
1035:..\..\..\..\..\..\Software\uCOS-III\Source/os_flag.c ****                             p_err);
1036:..\..\..\..\..\..\Software\uCOS-III\Source/os_flag.c **** 
1037:..\..\..\..\..\..\Software\uCOS-III\Source/os_flag.c **** #if (defined(TRACE_CFG_EN) && (TRACE_CFG_EN == DEF_ENABLED))
1038:..\..\..\..\..\..\Software\uCOS-III\Source/os_flag.c ****     TRACE_OS_FLAG_POST(p_grp);                                  /* Record the event.               
1039:..\..\..\..\..\..\Software\uCOS-III\Source/os_flag.c **** #endif    
1040:..\..\..\..\..\..\Software\uCOS-III\Source/os_flag.c **** 
1041:..\..\..\..\..\..\Software\uCOS-III\Source/os_flag.c ****     return (flags_cur);
 932              		.loc 1 1041 0
 933 0062 3B69     		ldr	r3, [r7, #16]
 934              	.L65:
1042:..\..\..\..\..\..\Software\uCOS-III\Source/os_flag.c **** }
 935              		.loc 1 1042 0
 936 0064 1800     		movs	r0, r3
 937 0066 BD46     		mov	sp, r7
 938 0068 07B0     		add	sp, sp, #28
 939              		@ sp needed
 940 006a 90BD     		pop	{r4, r7, pc}
 941              	.L71:
 942              		.align	2
 943              	.L70:
 944 006c C35D0000 		.word	24003
 945 0070 0080FFFF 		.word	-32768
 946 0074 255E0000 		.word	24101
 947              		.cfi_endproc
 948              	.LFE3:
 949              		.size	OSFlagPost, .-OSFlagPost
 950              		.section	.text.OS_FlagBlock,"ax",%progbits
ARM GAS  C:\Users\ADMINI~1\AppData\Local\Temp\cc0ImMof.s 			page 36


 951              		.align	2
 952              		.global	OS_FlagBlock
 953              		.code	16
 954              		.thumb_func
 955              		.type	OS_FlagBlock, %function
 956              	OS_FlagBlock:
 957              	.LFB4:
1043:..\..\..\..\..\..\Software\uCOS-III\Source/os_flag.c **** 
1044:..\..\..\..\..\..\Software\uCOS-III\Source/os_flag.c **** 
1045:..\..\..\..\..\..\Software\uCOS-III\Source/os_flag.c **** /*
1046:..\..\..\..\..\..\Software\uCOS-III\Source/os_flag.c **** ***************************************************************************************************
1047:..\..\..\..\..\..\Software\uCOS-III\Source/os_flag.c **** *                         SUSPEND TASK UNTIL EVENT FLAG(s) RECEIVED OR TIMEOUT OCCURS
1048:..\..\..\..\..\..\Software\uCOS-III\Source/os_flag.c **** *
1049:..\..\..\..\..\..\Software\uCOS-III\Source/os_flag.c **** * Description: This function is internal to uC/OS-III and is used to put a task to sleep until the 
1050:..\..\..\..\..\..\Software\uCOS-III\Source/os_flag.c **** *              event flag bit(s) are set.
1051:..\..\..\..\..\..\Software\uCOS-III\Source/os_flag.c **** *
1052:..\..\..\..\..\..\Software\uCOS-III\Source/os_flag.c **** * Arguments  : p_pend_data    is a pointer to an object used to link the task being blocked to the 
1053:..\..\..\..\..\..\Software\uCOS-III\Source/os_flag.c **** *              -----------    pending on the desired event flag group.
1054:..\..\..\..\..\..\Software\uCOS-III\Source/os_flag.c **** *
1055:..\..\..\..\..\..\Software\uCOS-III\Source/os_flag.c **** *              p_grp         is a pointer to the desired event flag group.
1056:..\..\..\..\..\..\Software\uCOS-III\Source/os_flag.c **** *              -----
1057:..\..\..\..\..\..\Software\uCOS-III\Source/os_flag.c **** *
1058:..\..\..\..\..\..\Software\uCOS-III\Source/os_flag.c **** *              flags         Is a bit pattern indicating which bit(s) (i.e. flags) you wish to chec
1059:..\..\..\..\..\..\Software\uCOS-III\Source/os_flag.c **** *                            The bits you want are specified by setting the corresponding bits in
1060:..\..\..\..\..\..\Software\uCOS-III\Source/os_flag.c **** *                            'flags'.  e.g. if your application wants to wait for bits 0 and 1 then
1061:..\..\..\..\..\..\Software\uCOS-III\Source/os_flag.c **** *                            'flags' would contain 0x03.
1062:..\..\..\..\..\..\Software\uCOS-III\Source/os_flag.c **** *
1063:..\..\..\..\..\..\Software\uCOS-III\Source/os_flag.c **** *              opt           specifies whether you want ALL bits to be set/cleared or ANY of the bi
1064:..\..\..\..\..\..\Software\uCOS-III\Source/os_flag.c **** *                            to be set/cleared.
1065:..\..\..\..\..\..\Software\uCOS-III\Source/os_flag.c **** *                            You can specify the following argument:
1066:..\..\..\..\..\..\Software\uCOS-III\Source/os_flag.c **** *
1067:..\..\..\..\..\..\Software\uCOS-III\Source/os_flag.c **** *                                OS_OPT_PEND_FLAG_CLR_ALL   You will check ALL bits in 'mask' to be
1068:..\..\..\..\..\..\Software\uCOS-III\Source/os_flag.c **** *                                OS_OPT_PEND_FLAG_CLR_ANY   You will check ANY bit  in 'mask' to be
1069:..\..\..\..\..\..\Software\uCOS-III\Source/os_flag.c **** *                                OS_OPT_PEND_FLAG_SET_ALL   You will check ALL bits in 'mask' to be
1070:..\..\..\..\..\..\Software\uCOS-III\Source/os_flag.c **** *                                OS_OPT_PEND_FLAG_SET_ANY   You will check ANY bit  in 'mask' to be
1071:..\..\..\..\..\..\Software\uCOS-III\Source/os_flag.c **** *
1072:..\..\..\..\..\..\Software\uCOS-III\Source/os_flag.c **** *              timeout       is the desired amount of time that the task will wait for the event fl
1073:..\..\..\..\..\..\Software\uCOS-III\Source/os_flag.c **** *                            bit(s) to be set.
1074:..\..\..\..\..\..\Software\uCOS-III\Source/os_flag.c **** *
1075:..\..\..\..\..\..\Software\uCOS-III\Source/os_flag.c **** * Returns    : none
1076:..\..\..\..\..\..\Software\uCOS-III\Source/os_flag.c **** *
1077:..\..\..\..\..\..\Software\uCOS-III\Source/os_flag.c **** * Note(s)    : This function is INTERNAL to uC/OS-III and your application should not call it.
1078:..\..\..\..\..\..\Software\uCOS-III\Source/os_flag.c **** ***************************************************************************************************
1079:..\..\..\..\..\..\Software\uCOS-III\Source/os_flag.c **** */
1080:..\..\..\..\..\..\Software\uCOS-III\Source/os_flag.c **** 
1081:..\..\..\..\..\..\Software\uCOS-III\Source/os_flag.c **** void  OS_FlagBlock (OS_PEND_DATA  *p_pend_data,
1082:..\..\..\..\..\..\Software\uCOS-III\Source/os_flag.c ****                     OS_FLAG_GRP   *p_grp,
1083:..\..\..\..\..\..\Software\uCOS-III\Source/os_flag.c ****                     OS_FLAGS       flags,
1084:..\..\..\..\..\..\Software\uCOS-III\Source/os_flag.c ****                     OS_OPT         opt,
1085:..\..\..\..\..\..\Software\uCOS-III\Source/os_flag.c ****                     OS_TICK        timeout)
1086:..\..\..\..\..\..\Software\uCOS-III\Source/os_flag.c **** {
 958              		.loc 1 1086 0
 959              		.cfi_startproc
 960              		@ args = 4, pretend = 0, frame = 16
 961              		@ frame_needed = 1, uses_anonymous_args = 0
 962 0000 80B5     		push	{r7, lr}
 963              		.cfi_def_cfa_offset 8
ARM GAS  C:\Users\ADMINI~1\AppData\Local\Temp\cc0ImMof.s 			page 37


 964              		.cfi_offset 7, -8
 965              		.cfi_offset 14, -4
 966 0002 84B0     		sub	sp, sp, #16
 967              		.cfi_def_cfa_offset 24
 968 0004 00AF     		add	r7, sp, #0
 969              		.cfi_def_cfa_register 7
 970 0006 F860     		str	r0, [r7, #12]
 971 0008 B960     		str	r1, [r7, #8]
 972 000a 7A60     		str	r2, [r7, #4]
 973 000c 1A00     		movs	r2, r3
 974 000e BB1C     		adds	r3, r7, #2
 975 0010 1A80     		strh	r2, [r3]
1087:..\..\..\..\..\..\Software\uCOS-III\Source/os_flag.c ****     OSTCBCurPtr->FlagsPend = flags;                             /* Save the flags that we need to w
 976              		.loc 1 1087 0
 977 0012 0C4B     		ldr	r3, .L73
 978 0014 1B68     		ldr	r3, [r3]
 979 0016 7A68     		ldr	r2, [r7, #4]
 980 0018 DA67     		str	r2, [r3, #124]
1088:..\..\..\..\..\..\Software\uCOS-III\Source/os_flag.c ****     OSTCBCurPtr->FlagsOpt  = opt;                               /* Save the type of wait we are doi
 981              		.loc 1 1088 0
 982 001a 0A4B     		ldr	r3, .L73
 983 001c 1B68     		ldr	r3, [r3]
 984 001e BA1C     		adds	r2, r7, #2
 985 0020 8421     		movs	r1, #132
 986 0022 1288     		ldrh	r2, [r2]
 987 0024 5A52     		strh	r2, [r3, r1]
1089:..\..\..\..\..\..\Software\uCOS-III\Source/os_flag.c ****     OSTCBCurPtr->FlagsRdy  = 0u;
 988              		.loc 1 1089 0
 989 0026 074B     		ldr	r3, .L73
 990 0028 1B68     		ldr	r3, [r3]
 991 002a 8022     		movs	r2, #128
 992 002c 0021     		movs	r1, #0
 993 002e 9950     		str	r1, [r3, r2]
1090:..\..\..\..\..\..\Software\uCOS-III\Source/os_flag.c **** 
1091:..\..\..\..\..\..\Software\uCOS-III\Source/os_flag.c ****     OS_Pend(p_pend_data,
 994              		.loc 1 1091 0
 995 0030 BB69     		ldr	r3, [r7, #24]
 996 0032 B968     		ldr	r1, [r7, #8]
 997 0034 F868     		ldr	r0, [r7, #12]
 998 0036 0122     		movs	r2, #1
 999 0038 FFF7FEFF 		bl	OS_Pend
1092:..\..\..\..\..\..\Software\uCOS-III\Source/os_flag.c ****             (OS_PEND_OBJ *)((void *)p_grp),
1093:..\..\..\..\..\..\Software\uCOS-III\Source/os_flag.c ****              OS_TASK_PEND_ON_FLAG,
1094:..\..\..\..\..\..\Software\uCOS-III\Source/os_flag.c ****              timeout);
1095:..\..\..\..\..\..\Software\uCOS-III\Source/os_flag.c **** }
 1000              		.loc 1 1095 0
 1001 003c C046     		nop
 1002 003e BD46     		mov	sp, r7
 1003 0040 04B0     		add	sp, sp, #16
 1004              		@ sp needed
 1005 0042 80BD     		pop	{r7, pc}
 1006              	.L74:
 1007              		.align	2
 1008              	.L73:
 1009 0044 00000000 		.word	OSTCBCurPtr
 1010              		.cfi_endproc
 1011              	.LFE4:
ARM GAS  C:\Users\ADMINI~1\AppData\Local\Temp\cc0ImMof.s 			page 38


 1012              		.size	OS_FlagBlock, .-OS_FlagBlock
 1013              		.section	.rodata
 1014              		.align	2
 1015              	.LC8:
 1016 0000 3F464C41 		.ascii	"?FLAG\000"
 1016      4700
 1017              		.section	.text.OS_FlagClr,"ax",%progbits
 1018              		.align	2
 1019              		.global	OS_FlagClr
 1020              		.code	16
 1021              		.thumb_func
 1022              		.type	OS_FlagClr, %function
 1023              	OS_FlagClr:
 1024              	.LFB5:
1096:..\..\..\..\..\..\Software\uCOS-III\Source/os_flag.c **** 
1097:..\..\..\..\..\..\Software\uCOS-III\Source/os_flag.c **** 
1098:..\..\..\..\..\..\Software\uCOS-III\Source/os_flag.c **** /*
1099:..\..\..\..\..\..\Software\uCOS-III\Source/os_flag.c **** ***************************************************************************************************
1100:..\..\..\..\..\..\Software\uCOS-III\Source/os_flag.c **** *                                      CLEAR THE CONTENTS OF AN EVENT FLAG GROUP
1101:..\..\..\..\..\..\Software\uCOS-III\Source/os_flag.c **** *
1102:..\..\..\..\..\..\Software\uCOS-III\Source/os_flag.c **** * Description: This function is called by OSFlagDel() to clear the contents of an event flag group
1103:..\..\..\..\..\..\Software\uCOS-III\Source/os_flag.c **** *
1104:..\..\..\..\..\..\Software\uCOS-III\Source/os_flag.c **** 
1105:..\..\..\..\..\..\Software\uCOS-III\Source/os_flag.c **** * Argument(s): p_grp     is a pointer to the event flag group to clear
1106:..\..\..\..\..\..\Software\uCOS-III\Source/os_flag.c **** *              -----
1107:..\..\..\..\..\..\Software\uCOS-III\Source/os_flag.c **** *
1108:..\..\..\..\..\..\Software\uCOS-III\Source/os_flag.c **** * Returns    : none
1109:..\..\..\..\..\..\Software\uCOS-III\Source/os_flag.c **** *
1110:..\..\..\..\..\..\Software\uCOS-III\Source/os_flag.c **** * Note(s)    : This function is INTERNAL to uC/OS-III and your application should not call it.
1111:..\..\..\..\..\..\Software\uCOS-III\Source/os_flag.c **** ***************************************************************************************************
1112:..\..\..\..\..\..\Software\uCOS-III\Source/os_flag.c **** */
1113:..\..\..\..\..\..\Software\uCOS-III\Source/os_flag.c **** 
1114:..\..\..\..\..\..\Software\uCOS-III\Source/os_flag.c **** void  OS_FlagClr (OS_FLAG_GRP  *p_grp)
1115:..\..\..\..\..\..\Software\uCOS-III\Source/os_flag.c **** {
 1025              		.loc 1 1115 0
 1026              		.cfi_startproc
 1027              		@ args = 0, pretend = 0, frame = 16
 1028              		@ frame_needed = 1, uses_anonymous_args = 0
 1029 0000 80B5     		push	{r7, lr}
 1030              		.cfi_def_cfa_offset 8
 1031              		.cfi_offset 7, -8
 1032              		.cfi_offset 14, -4
 1033 0002 84B0     		sub	sp, sp, #16
 1034              		.cfi_def_cfa_offset 24
 1035 0004 00AF     		add	r7, sp, #0
 1036              		.cfi_def_cfa_register 7
 1037 0006 7860     		str	r0, [r7, #4]
1116:..\..\..\..\..\..\Software\uCOS-III\Source/os_flag.c ****     OS_PEND_LIST  *p_pend_list;
1117:..\..\..\..\..\..\Software\uCOS-III\Source/os_flag.c **** 
1118:..\..\..\..\..\..\Software\uCOS-III\Source/os_flag.c **** 
1119:..\..\..\..\..\..\Software\uCOS-III\Source/os_flag.c **** #if (OS_OBJ_TYPE_REQ == DEF_ENABLED)
1120:..\..\..\..\..\..\Software\uCOS-III\Source/os_flag.c ****     p_grp->Type             = OS_OBJ_TYPE_NONE;
 1038              		.loc 1 1120 0
 1039 0008 7B68     		ldr	r3, [r7, #4]
 1040 000a 094A     		ldr	r2, .L76
 1041 000c 1A60     		str	r2, [r3]
1121:..\..\..\..\..\..\Software\uCOS-III\Source/os_flag.c **** #endif
ARM GAS  C:\Users\ADMINI~1\AppData\Local\Temp\cc0ImMof.s 			page 39


1122:..\..\..\..\..\..\Software\uCOS-III\Source/os_flag.c **** #if (OS_CFG_DBG_EN == DEF_ENABLED)
1123:..\..\..\..\..\..\Software\uCOS-III\Source/os_flag.c ****     p_grp->NamePtr          = (CPU_CHAR *)((void *)"?FLAG");    /* Unknown name                    
 1042              		.loc 1 1123 0
 1043 000e 7B68     		ldr	r3, [r7, #4]
 1044 0010 084A     		ldr	r2, .L76+4
 1045 0012 5A60     		str	r2, [r3, #4]
1124:..\..\..\..\..\..\Software\uCOS-III\Source/os_flag.c **** #endif
1125:..\..\..\..\..\..\Software\uCOS-III\Source/os_flag.c ****     p_grp->Flags            =  0u;
 1046              		.loc 1 1125 0
 1047 0014 7B68     		ldr	r3, [r7, #4]
 1048 0016 0022     		movs	r2, #0
 1049 0018 1A62     		str	r2, [r3, #32]
1126:..\..\..\..\..\..\Software\uCOS-III\Source/os_flag.c ****     p_pend_list             = &p_grp->PendList;
 1050              		.loc 1 1126 0
 1051 001a 7B68     		ldr	r3, [r7, #4]
 1052 001c 0833     		adds	r3, r3, #8
 1053 001e FB60     		str	r3, [r7, #12]
1127:..\..\..\..\..\..\Software\uCOS-III\Source/os_flag.c ****     OS_PendListInit(p_pend_list);
 1054              		.loc 1 1127 0
 1055 0020 FB68     		ldr	r3, [r7, #12]
 1056 0022 1800     		movs	r0, r3
 1057 0024 FFF7FEFF 		bl	OS_PendListInit
1128:..\..\..\..\..\..\Software\uCOS-III\Source/os_flag.c **** }
 1058              		.loc 1 1128 0
 1059 0028 C046     		nop
 1060 002a BD46     		mov	sp, r7
 1061 002c 04B0     		add	sp, sp, #16
 1062              		@ sp needed
 1063 002e 80BD     		pop	{r7, pc}
 1064              	.L77:
 1065              		.align	2
 1066              	.L76:
 1067 0030 4E4F4E45 		.word	1162760014
 1068 0034 00000000 		.word	.LC8
 1069              		.cfi_endproc
 1070              	.LFE5:
 1071              		.size	OS_FlagClr, .-OS_FlagClr
 1072              		.section	.rodata
 1073 0006 0000     		.align	2
 1074              	.LC10:
 1075 0008 2000     		.ascii	" \000"
 1076              		.section	.text.OS_FlagDbgListAdd,"ax",%progbits
 1077              		.align	2
 1078              		.global	OS_FlagDbgListAdd
 1079              		.code	16
 1080              		.thumb_func
 1081              		.type	OS_FlagDbgListAdd, %function
 1082              	OS_FlagDbgListAdd:
 1083              	.LFB6:
1129:..\..\..\..\..\..\Software\uCOS-III\Source/os_flag.c **** 
1130:..\..\..\..\..\..\Software\uCOS-III\Source/os_flag.c **** 
1131:..\..\..\..\..\..\Software\uCOS-III\Source/os_flag.c **** /*
1132:..\..\..\..\..\..\Software\uCOS-III\Source/os_flag.c **** ***************************************************************************************************
1133:..\..\..\..\..\..\Software\uCOS-III\Source/os_flag.c **** *                                    ADD/REMOVE EVENT FLAG GROUP TO/FROM DEBUG LIST
1134:..\..\..\..\..\..\Software\uCOS-III\Source/os_flag.c **** *
1135:..\..\..\..\..\..\Software\uCOS-III\Source/os_flag.c **** * Description: These functions are called by uC/OS-III to add or remove an event flag group from th
1136:..\..\..\..\..\..\Software\uCOS-III\Source/os_flag.c **** *              list.
ARM GAS  C:\Users\ADMINI~1\AppData\Local\Temp\cc0ImMof.s 			page 40


1137:..\..\..\..\..\..\Software\uCOS-III\Source/os_flag.c **** *
1138:..\..\..\..\..\..\Software\uCOS-III\Source/os_flag.c **** * Arguments  : p_grp     is a pointer to the event flag group to add/remove
1139:..\..\..\..\..\..\Software\uCOS-III\Source/os_flag.c **** *
1140:..\..\..\..\..\..\Software\uCOS-III\Source/os_flag.c **** * Returns    : none
1141:..\..\..\..\..\..\Software\uCOS-III\Source/os_flag.c **** *
1142:..\..\..\..\..\..\Software\uCOS-III\Source/os_flag.c **** * Note(s)    : These functions are INTERNAL to uC/OS-III and your application should not call it.
1143:..\..\..\..\..\..\Software\uCOS-III\Source/os_flag.c **** ***************************************************************************************************
1144:..\..\..\..\..\..\Software\uCOS-III\Source/os_flag.c **** */
1145:..\..\..\..\..\..\Software\uCOS-III\Source/os_flag.c **** 
1146:..\..\..\..\..\..\Software\uCOS-III\Source/os_flag.c **** #if (OS_CFG_DBG_EN == DEF_ENABLED)
1147:..\..\..\..\..\..\Software\uCOS-III\Source/os_flag.c **** void  OS_FlagDbgListAdd (OS_FLAG_GRP  *p_grp)
1148:..\..\..\..\..\..\Software\uCOS-III\Source/os_flag.c **** {
 1084              		.loc 1 1148 0
 1085              		.cfi_startproc
 1086              		@ args = 0, pretend = 0, frame = 8
 1087              		@ frame_needed = 1, uses_anonymous_args = 0
 1088 0000 80B5     		push	{r7, lr}
 1089              		.cfi_def_cfa_offset 8
 1090              		.cfi_offset 7, -8
 1091              		.cfi_offset 14, -4
 1092 0002 82B0     		sub	sp, sp, #8
 1093              		.cfi_def_cfa_offset 16
 1094 0004 00AF     		add	r7, sp, #0
 1095              		.cfi_def_cfa_register 7
 1096 0006 7860     		str	r0, [r7, #4]
1149:..\..\..\..\..\..\Software\uCOS-III\Source/os_flag.c ****     p_grp->DbgNamePtr                = (CPU_CHAR *)((void *)" ");
 1097              		.loc 1 1149 0
 1098 0008 7B68     		ldr	r3, [r7, #4]
 1099 000a 0E4A     		ldr	r2, .L81
 1100 000c DA61     		str	r2, [r3, #28]
1150:..\..\..\..\..\..\Software\uCOS-III\Source/os_flag.c ****     p_grp->DbgPrevPtr                = DEF_NULL;
 1101              		.loc 1 1150 0
 1102 000e 7B68     		ldr	r3, [r7, #4]
 1103 0010 0022     		movs	r2, #0
 1104 0012 5A61     		str	r2, [r3, #20]
1151:..\..\..\..\..\..\Software\uCOS-III\Source/os_flag.c ****     if (OSFlagDbgListPtr == DEF_NULL) {
 1105              		.loc 1 1151 0
 1106 0014 0C4B     		ldr	r3, .L81+4
 1107 0016 1B68     		ldr	r3, [r3]
 1108 0018 002B     		cmp	r3, #0
 1109 001a 03D1     		bne	.L79
1152:..\..\..\..\..\..\Software\uCOS-III\Source/os_flag.c ****         p_grp->DbgNextPtr            = DEF_NULL;
 1110              		.loc 1 1152 0
 1111 001c 7B68     		ldr	r3, [r7, #4]
 1112 001e 0022     		movs	r2, #0
 1113 0020 9A61     		str	r2, [r3, #24]
 1114 0022 07E0     		b	.L80
 1115              	.L79:
1153:..\..\..\..\..\..\Software\uCOS-III\Source/os_flag.c ****     } else {
1154:..\..\..\..\..\..\Software\uCOS-III\Source/os_flag.c ****         p_grp->DbgNextPtr            = OSFlagDbgListPtr;
 1116              		.loc 1 1154 0
 1117 0024 084B     		ldr	r3, .L81+4
 1118 0026 1A68     		ldr	r2, [r3]
 1119 0028 7B68     		ldr	r3, [r7, #4]
 1120 002a 9A61     		str	r2, [r3, #24]
1155:..\..\..\..\..\..\Software\uCOS-III\Source/os_flag.c ****         OSFlagDbgListPtr->DbgPrevPtr = p_grp;
 1121              		.loc 1 1155 0
ARM GAS  C:\Users\ADMINI~1\AppData\Local\Temp\cc0ImMof.s 			page 41


 1122 002c 064B     		ldr	r3, .L81+4
 1123 002e 1B68     		ldr	r3, [r3]
 1124 0030 7A68     		ldr	r2, [r7, #4]
 1125 0032 5A61     		str	r2, [r3, #20]
 1126              	.L80:
1156:..\..\..\..\..\..\Software\uCOS-III\Source/os_flag.c ****     }
1157:..\..\..\..\..\..\Software\uCOS-III\Source/os_flag.c ****     OSFlagDbgListPtr                 = p_grp;
 1127              		.loc 1 1157 0
 1128 0034 044B     		ldr	r3, .L81+4
 1129 0036 7A68     		ldr	r2, [r7, #4]
 1130 0038 1A60     		str	r2, [r3]
1158:..\..\..\..\..\..\Software\uCOS-III\Source/os_flag.c **** }
 1131              		.loc 1 1158 0
 1132 003a C046     		nop
 1133 003c BD46     		mov	sp, r7
 1134 003e 02B0     		add	sp, sp, #8
 1135              		@ sp needed
 1136 0040 80BD     		pop	{r7, pc}
 1137              	.L82:
 1138 0042 C046     		.align	2
 1139              	.L81:
 1140 0044 08000000 		.word	.LC10
 1141 0048 00000000 		.word	OSFlagDbgListPtr
 1142              		.cfi_endproc
 1143              	.LFE6:
 1144              		.size	OS_FlagDbgListAdd, .-OS_FlagDbgListAdd
 1145              		.section	.text.OS_FlagDbgListRemove,"ax",%progbits
 1146              		.align	2
 1147              		.global	OS_FlagDbgListRemove
 1148              		.code	16
 1149              		.thumb_func
 1150              		.type	OS_FlagDbgListRemove, %function
 1151              	OS_FlagDbgListRemove:
 1152              	.LFB7:
1159:..\..\..\..\..\..\Software\uCOS-III\Source/os_flag.c **** 
1160:..\..\..\..\..\..\Software\uCOS-III\Source/os_flag.c **** 
1161:..\..\..\..\..\..\Software\uCOS-III\Source/os_flag.c **** 
1162:..\..\..\..\..\..\Software\uCOS-III\Source/os_flag.c **** void  OS_FlagDbgListRemove (OS_FLAG_GRP  *p_grp)
1163:..\..\..\..\..\..\Software\uCOS-III\Source/os_flag.c **** {
 1153              		.loc 1 1163 0
 1154              		.cfi_startproc
 1155              		@ args = 0, pretend = 0, frame = 16
 1156              		@ frame_needed = 1, uses_anonymous_args = 0
 1157 0000 80B5     		push	{r7, lr}
 1158              		.cfi_def_cfa_offset 8
 1159              		.cfi_offset 7, -8
 1160              		.cfi_offset 14, -4
 1161 0002 84B0     		sub	sp, sp, #16
 1162              		.cfi_def_cfa_offset 24
 1163 0004 00AF     		add	r7, sp, #0
 1164              		.cfi_def_cfa_register 7
 1165 0006 7860     		str	r0, [r7, #4]
1164:..\..\..\..\..\..\Software\uCOS-III\Source/os_flag.c ****     OS_FLAG_GRP  *p_grp_next;
1165:..\..\..\..\..\..\Software\uCOS-III\Source/os_flag.c ****     OS_FLAG_GRP  *p_grp_prev;
1166:..\..\..\..\..\..\Software\uCOS-III\Source/os_flag.c **** 
1167:..\..\..\..\..\..\Software\uCOS-III\Source/os_flag.c **** 
1168:..\..\..\..\..\..\Software\uCOS-III\Source/os_flag.c ****     p_grp_prev = p_grp->DbgPrevPtr;
ARM GAS  C:\Users\ADMINI~1\AppData\Local\Temp\cc0ImMof.s 			page 42


 1166              		.loc 1 1168 0
 1167 0008 7B68     		ldr	r3, [r7, #4]
 1168 000a 5B69     		ldr	r3, [r3, #20]
 1169 000c FB60     		str	r3, [r7, #12]
1169:..\..\..\..\..\..\Software\uCOS-III\Source/os_flag.c ****     p_grp_next = p_grp->DbgNextPtr;
 1170              		.loc 1 1169 0
 1171 000e 7B68     		ldr	r3, [r7, #4]
 1172 0010 9B69     		ldr	r3, [r3, #24]
 1173 0012 BB60     		str	r3, [r7, #8]
1170:..\..\..\..\..\..\Software\uCOS-III\Source/os_flag.c **** 
1171:..\..\..\..\..\..\Software\uCOS-III\Source/os_flag.c ****     if (p_grp_prev == DEF_NULL) {
 1174              		.loc 1 1171 0
 1175 0014 FB68     		ldr	r3, [r7, #12]
 1176 0016 002B     		cmp	r3, #0
 1177 0018 0CD1     		bne	.L84
1172:..\..\..\..\..\..\Software\uCOS-III\Source/os_flag.c ****         OSFlagDbgListPtr = p_grp_next;
 1178              		.loc 1 1172 0
 1179 001a 134B     		ldr	r3, .L89
 1180 001c BA68     		ldr	r2, [r7, #8]
 1181 001e 1A60     		str	r2, [r3]
1173:..\..\..\..\..\..\Software\uCOS-III\Source/os_flag.c ****         if (p_grp_next != DEF_NULL) {
 1182              		.loc 1 1173 0
 1183 0020 BB68     		ldr	r3, [r7, #8]
 1184 0022 002B     		cmp	r3, #0
 1185 0024 02D0     		beq	.L85
1174:..\..\..\..\..\..\Software\uCOS-III\Source/os_flag.c ****             p_grp_next->DbgPrevPtr = DEF_NULL;
 1186              		.loc 1 1174 0
 1187 0026 BB68     		ldr	r3, [r7, #8]
 1188 0028 0022     		movs	r2, #0
 1189 002a 5A61     		str	r2, [r3, #20]
 1190              	.L85:
1175:..\..\..\..\..\..\Software\uCOS-III\Source/os_flag.c ****         }
1176:..\..\..\..\..\..\Software\uCOS-III\Source/os_flag.c ****         p_grp->DbgNextPtr = DEF_NULL;
 1191              		.loc 1 1176 0
 1192 002c 7B68     		ldr	r3, [r7, #4]
 1193 002e 0022     		movs	r2, #0
 1194 0030 9A61     		str	r2, [r3, #24]
1177:..\..\..\..\..\..\Software\uCOS-III\Source/os_flag.c **** 
1178:..\..\..\..\..\..\Software\uCOS-III\Source/os_flag.c ****     } else if (p_grp_next == DEF_NULL) {
1179:..\..\..\..\..\..\Software\uCOS-III\Source/os_flag.c ****         p_grp_prev->DbgNextPtr = DEF_NULL;
1180:..\..\..\..\..\..\Software\uCOS-III\Source/os_flag.c ****         p_grp->DbgPrevPtr      = DEF_NULL;
1181:..\..\..\..\..\..\Software\uCOS-III\Source/os_flag.c **** 
1182:..\..\..\..\..\..\Software\uCOS-III\Source/os_flag.c ****     } else {
1183:..\..\..\..\..\..\Software\uCOS-III\Source/os_flag.c ****         p_grp_prev->DbgNextPtr =  p_grp_next;
1184:..\..\..\..\..\..\Software\uCOS-III\Source/os_flag.c ****         p_grp_next->DbgPrevPtr =  p_grp_prev;
1185:..\..\..\..\..\..\Software\uCOS-III\Source/os_flag.c ****         p_grp->DbgNextPtr      = DEF_NULL;
1186:..\..\..\..\..\..\Software\uCOS-III\Source/os_flag.c ****         p_grp->DbgPrevPtr      = DEF_NULL;
1187:..\..\..\..\..\..\Software\uCOS-III\Source/os_flag.c ****     }
1188:..\..\..\..\..\..\Software\uCOS-III\Source/os_flag.c **** }
 1195              		.loc 1 1188 0
 1196 0032 15E0     		b	.L88
 1197              	.L84:
1178:..\..\..\..\..\..\Software\uCOS-III\Source/os_flag.c ****         p_grp_prev->DbgNextPtr = DEF_NULL;
 1198              		.loc 1 1178 0
 1199 0034 BB68     		ldr	r3, [r7, #8]
 1200 0036 002B     		cmp	r3, #0
 1201 0038 06D1     		bne	.L87
ARM GAS  C:\Users\ADMINI~1\AppData\Local\Temp\cc0ImMof.s 			page 43


1179:..\..\..\..\..\..\Software\uCOS-III\Source/os_flag.c ****         p_grp->DbgPrevPtr      = DEF_NULL;
 1202              		.loc 1 1179 0
 1203 003a FB68     		ldr	r3, [r7, #12]
 1204 003c 0022     		movs	r2, #0
 1205 003e 9A61     		str	r2, [r3, #24]
1180:..\..\..\..\..\..\Software\uCOS-III\Source/os_flag.c **** 
 1206              		.loc 1 1180 0
 1207 0040 7B68     		ldr	r3, [r7, #4]
 1208 0042 0022     		movs	r2, #0
 1209 0044 5A61     		str	r2, [r3, #20]
 1210              		.loc 1 1188 0
 1211 0046 0BE0     		b	.L88
 1212              	.L87:
1183:..\..\..\..\..\..\Software\uCOS-III\Source/os_flag.c ****         p_grp_next->DbgPrevPtr =  p_grp_prev;
 1213              		.loc 1 1183 0
 1214 0048 FB68     		ldr	r3, [r7, #12]
 1215 004a BA68     		ldr	r2, [r7, #8]
 1216 004c 9A61     		str	r2, [r3, #24]
1184:..\..\..\..\..\..\Software\uCOS-III\Source/os_flag.c ****         p_grp->DbgNextPtr      = DEF_NULL;
 1217              		.loc 1 1184 0
 1218 004e BB68     		ldr	r3, [r7, #8]
 1219 0050 FA68     		ldr	r2, [r7, #12]
 1220 0052 5A61     		str	r2, [r3, #20]
1185:..\..\..\..\..\..\Software\uCOS-III\Source/os_flag.c ****         p_grp->DbgPrevPtr      = DEF_NULL;
 1221              		.loc 1 1185 0
 1222 0054 7B68     		ldr	r3, [r7, #4]
 1223 0056 0022     		movs	r2, #0
 1224 0058 9A61     		str	r2, [r3, #24]
1186:..\..\..\..\..\..\Software\uCOS-III\Source/os_flag.c ****     }
 1225              		.loc 1 1186 0
 1226 005a 7B68     		ldr	r3, [r7, #4]
 1227 005c 0022     		movs	r2, #0
 1228 005e 5A61     		str	r2, [r3, #20]
 1229              	.L88:
 1230              		.loc 1 1188 0
 1231 0060 C046     		nop
 1232 0062 BD46     		mov	sp, r7
 1233 0064 04B0     		add	sp, sp, #16
 1234              		@ sp needed
 1235 0066 80BD     		pop	{r7, pc}
 1236              	.L90:
 1237              		.align	2
 1238              	.L89:
 1239 0068 00000000 		.word	OSFlagDbgListPtr
 1240              		.cfi_endproc
 1241              	.LFE7:
 1242              		.size	OS_FlagDbgListRemove, .-OS_FlagDbgListRemove
 1243              		.section	.text.OS_FlagPost,"ax",%progbits
 1244              		.align	2
 1245              		.global	OS_FlagPost
 1246              		.code	16
 1247              		.thumb_func
 1248              		.type	OS_FlagPost, %function
 1249              	OS_FlagPost:
 1250              	.LFB8:
1189:..\..\..\..\..\..\Software\uCOS-III\Source/os_flag.c **** #endif
1190:..\..\..\..\..\..\Software\uCOS-III\Source/os_flag.c **** 
ARM GAS  C:\Users\ADMINI~1\AppData\Local\Temp\cc0ImMof.s 			page 44


1191:..\..\..\..\..\..\Software\uCOS-III\Source/os_flag.c **** 
1192:..\..\..\..\..\..\Software\uCOS-III\Source/os_flag.c **** /*
1193:..\..\..\..\..\..\Software\uCOS-III\Source/os_flag.c **** ***************************************************************************************************
1194:..\..\..\..\..\..\Software\uCOS-III\Source/os_flag.c **** *                                                POST EVENT FLAG BIT(S)
1195:..\..\..\..\..\..\Software\uCOS-III\Source/os_flag.c **** *
1196:..\..\..\..\..\..\Software\uCOS-III\Source/os_flag.c **** * Description: This function is called to set or clear some bits in an event flag group.  The bits 
1197:..\..\..\..\..\..\Software\uCOS-III\Source/os_flag.c **** *              specified by a 'bit mask'.
1198:..\..\..\..\..\..\Software\uCOS-III\Source/os_flag.c **** *
1199:..\..\..\..\..\..\Software\uCOS-III\Source/os_flag.c **** * Arguments  : p_grp         is a pointer to the desired event flag group.
1200:..\..\..\..\..\..\Software\uCOS-III\Source/os_flag.c **** *
1201:..\..\..\..\..\..\Software\uCOS-III\Source/os_flag.c **** *              flags         If 'opt' (see below) is OS_OPT_POST_FLAG_SET, each bit that is set in 
1202:..\..\..\..\..\..\Software\uCOS-III\Source/os_flag.c **** *                            set the corresponding bit in the event flag group.  e.g. to set bits 0
1203:..\..\..\..\..\..\Software\uCOS-III\Source/os_flag.c **** *                            and 5 you would set 'flags' to:
1204:..\..\..\..\..\..\Software\uCOS-III\Source/os_flag.c **** *
1205:..\..\..\..\..\..\Software\uCOS-III\Source/os_flag.c **** *                                0x31     (note, bit 0 is least significant bit)
1206:..\..\..\..\..\..\Software\uCOS-III\Source/os_flag.c **** *
1207:..\..\..\..\..\..\Software\uCOS-III\Source/os_flag.c **** *                            If 'opt' (see below) is OS_OPT_POST_FLAG_CLR, each bit that is set in 
1208:..\..\..\..\..\..\Software\uCOS-III\Source/os_flag.c **** *                            CLEAR the corresponding bit in the event flag group.  e.g. to clear bi
1209:..\..\..\..\..\..\Software\uCOS-III\Source/os_flag.c **** *                            4 and 5 you would specify 'flags' as:
1210:..\..\..\..\..\..\Software\uCOS-III\Source/os_flag.c **** *
1211:..\..\..\..\..\..\Software\uCOS-III\Source/os_flag.c **** *                                0x31     (note, bit 0 is least significant bit)
1212:..\..\..\..\..\..\Software\uCOS-III\Source/os_flag.c **** *
1213:..\..\..\..\..\..\Software\uCOS-III\Source/os_flag.c **** *              opt           indicates whether the flags will be:
1214:..\..\..\..\..\..\Software\uCOS-III\Source/os_flag.c **** *
1215:..\..\..\..\..\..\Software\uCOS-III\Source/os_flag.c **** *                                OS_OPT_POST_FLAG_SET       set
1216:..\..\..\..\..\..\Software\uCOS-III\Source/os_flag.c **** *                                OS_OPT_POST_FLAG_CLR       cleared
1217:..\..\..\..\..\..\Software\uCOS-III\Source/os_flag.c **** *
1218:..\..\..\..\..\..\Software\uCOS-III\Source/os_flag.c **** *                            you can also 'add' OS_OPT_POST_NO_SCHED to prevent the scheduler from 
1219:..\..\..\..\..\..\Software\uCOS-III\Source/os_flag.c **** *
1220:..\..\..\..\..\..\Software\uCOS-III\Source/os_flag.c **** *              ts            is the timestamp of the post
1221:..\..\..\..\..\..\Software\uCOS-III\Source/os_flag.c **** *
1222:..\..\..\..\..\..\Software\uCOS-III\Source/os_flag.c **** *              p_err         is a pointer to an error code and can be:
1223:..\..\..\..\..\..\Software\uCOS-III\Source/os_flag.c **** *
1224:..\..\..\..\..\..\Software\uCOS-III\Source/os_flag.c **** *                                OS_ERR_NONE                The call was successful
1225:..\..\..\..\..\..\Software\uCOS-III\Source/os_flag.c **** *                                OS_ERR_OBJ_PTR_NULL        You passed a NULL pointer
1226:..\..\..\..\..\..\Software\uCOS-III\Source/os_flag.c **** *                                OS_ERR_OBJ_TYPE            You are not pointing to an event flag g
1227:..\..\..\..\..\..\Software\uCOS-III\Source/os_flag.c **** *                                OS_ERR_FLAG_PEND_OPT       You specified an invalid option
1228:..\..\..\..\..\..\Software\uCOS-III\Source/os_flag.c **** *
1229:..\..\..\..\..\..\Software\uCOS-III\Source/os_flag.c **** * Returns    : the new value of the event flags bits that are still set.
1230:..\..\..\..\..\..\Software\uCOS-III\Source/os_flag.c **** *
1231:..\..\..\..\..\..\Software\uCOS-III\Source/os_flag.c **** * Note(s)    : 1) The execution time of this function depends on the number of tasks waiting on the
1232:..\..\..\..\..\..\Software\uCOS-III\Source/os_flag.c **** ***************************************************************************************************
1233:..\..\..\..\..\..\Software\uCOS-III\Source/os_flag.c **** */
1234:..\..\..\..\..\..\Software\uCOS-III\Source/os_flag.c **** 
1235:..\..\..\..\..\..\Software\uCOS-III\Source/os_flag.c **** OS_FLAGS  OS_FlagPost (OS_FLAG_GRP  *p_grp,
1236:..\..\..\..\..\..\Software\uCOS-III\Source/os_flag.c ****                        OS_FLAGS      flags,
1237:..\..\..\..\..\..\Software\uCOS-III\Source/os_flag.c ****                        OS_OPT        opt,
1238:..\..\..\..\..\..\Software\uCOS-III\Source/os_flag.c ****                        CPU_TS        ts,
1239:..\..\..\..\..\..\Software\uCOS-III\Source/os_flag.c ****                        OS_ERR       *p_err)
1240:..\..\..\..\..\..\Software\uCOS-III\Source/os_flag.c **** {
 1251              		.loc 1 1240 0
 1252              		.cfi_startproc
 1253              		@ args = 4, pretend = 0, frame = 48
 1254              		@ frame_needed = 1, uses_anonymous_args = 0
 1255 0000 80B5     		push	{r7, lr}
 1256              		.cfi_def_cfa_offset 8
 1257              		.cfi_offset 7, -8
ARM GAS  C:\Users\ADMINI~1\AppData\Local\Temp\cc0ImMof.s 			page 45


 1258              		.cfi_offset 14, -4
 1259 0002 8CB0     		sub	sp, sp, #48
 1260              		.cfi_def_cfa_offset 56
 1261 0004 00AF     		add	r7, sp, #0
 1262              		.cfi_def_cfa_register 7
 1263 0006 F860     		str	r0, [r7, #12]
 1264 0008 B960     		str	r1, [r7, #8]
 1265 000a 3B60     		str	r3, [r7]
 1266 000c BB1D     		adds	r3, r7, #6
 1267 000e 1A80     		strh	r2, [r3]
1241:..\..\..\..\..\..\Software\uCOS-III\Source/os_flag.c ****     OS_FLAGS        flags_cur;
1242:..\..\..\..\..\..\Software\uCOS-III\Source/os_flag.c ****     OS_FLAGS        flags_rdy;
1243:..\..\..\..\..\..\Software\uCOS-III\Source/os_flag.c ****     OS_OPT          mode;
1244:..\..\..\..\..\..\Software\uCOS-III\Source/os_flag.c ****     OS_PEND_DATA   *p_pend_data;
1245:..\..\..\..\..\..\Software\uCOS-III\Source/os_flag.c ****     OS_PEND_DATA   *p_pend_data_next;
1246:..\..\..\..\..\..\Software\uCOS-III\Source/os_flag.c ****     OS_PEND_LIST   *p_pend_list;
1247:..\..\..\..\..\..\Software\uCOS-III\Source/os_flag.c ****     OS_TCB         *p_tcb;
1248:..\..\..\..\..\..\Software\uCOS-III\Source/os_flag.c ****     CPU_SR_ALLOC();
 1268              		.loc 1 1248 0
 1269 0010 0023     		movs	r3, #0
 1270 0012 7B62     		str	r3, [r7, #36]
1249:..\..\..\..\..\..\Software\uCOS-III\Source/os_flag.c **** 
1250:..\..\..\..\..\..\Software\uCOS-III\Source/os_flag.c **** 
1251:..\..\..\..\..\..\Software\uCOS-III\Source/os_flag.c **** #if (OS_CFG_TS_EN == DEF_DISABLED)
1252:..\..\..\..\..\..\Software\uCOS-III\Source/os_flag.c ****     (void)ts;                                                   /* Prevent compiler warning for not
1253:..\..\..\..\..\..\Software\uCOS-III\Source/os_flag.c **** #endif
1254:..\..\..\..\..\..\Software\uCOS-III\Source/os_flag.c **** 
1255:..\..\..\..\..\..\Software\uCOS-III\Source/os_flag.c ****     CPU_CRITICAL_ENTER();
 1271              		.loc 1 1255 0
 1272 0014 FFF7FEFF 		bl	CPU_SR_Save
 1273 0018 0300     		movs	r3, r0
 1274 001a 7B62     		str	r3, [r7, #36]
 1275 001c FFF7FEFF 		bl	CPU_IntDisMeasStart
1256:..\..\..\..\..\..\Software\uCOS-III\Source/os_flag.c ****     switch (opt) {
 1276              		.loc 1 1256 0
 1277 0020 BB1D     		adds	r3, r7, #6
 1278 0022 1B88     		ldrh	r3, [r3]
 1279 0024 012B     		cmp	r3, #1
 1280 0026 12D0     		beq	.L93
 1281 0028 02DC     		bgt	.L94
 1282 002a 002B     		cmp	r3, #0
 1283 002c 08D0     		beq	.L95
 1284 002e 16E0     		b	.L92
 1285              	.L94:
 1286 0030 8022     		movs	r2, #128
 1287 0032 1202     		lsls	r2, r2, #8
 1288 0034 9342     		cmp	r3, r2
 1289 0036 03D0     		beq	.L95
 1290 0038 574A     		ldr	r2, .L112
 1291 003a 9342     		cmp	r3, r2
 1292 003c 07D0     		beq	.L93
 1293 003e 0EE0     		b	.L92
 1294              	.L95:
1257:..\..\..\..\..\..\Software\uCOS-III\Source/os_flag.c ****         case OS_OPT_POST_FLAG_SET:
1258:..\..\..\..\..\..\Software\uCOS-III\Source/os_flag.c ****         case OS_OPT_POST_FLAG_SET | OS_OPT_POST_NO_SCHED:
1259:..\..\..\..\..\..\Software\uCOS-III\Source/os_flag.c ****              p_grp->Flags |=  flags;                            /* Set   the flags specified in the
 1295              		.loc 1 1259 0
ARM GAS  C:\Users\ADMINI~1\AppData\Local\Temp\cc0ImMof.s 			page 46


 1296 0040 FB68     		ldr	r3, [r7, #12]
 1297 0042 1A6A     		ldr	r2, [r3, #32]
 1298 0044 BB68     		ldr	r3, [r7, #8]
 1299 0046 1A43     		orrs	r2, r3
 1300 0048 FB68     		ldr	r3, [r7, #12]
 1301 004a 1A62     		str	r2, [r3, #32]
1260:..\..\..\..\..\..\Software\uCOS-III\Source/os_flag.c ****              break;
 1302              		.loc 1 1260 0
 1303 004c 12E0     		b	.L96
 1304              	.L93:
1261:..\..\..\..\..\..\Software\uCOS-III\Source/os_flag.c **** 
1262:..\..\..\..\..\..\Software\uCOS-III\Source/os_flag.c ****         case OS_OPT_POST_FLAG_CLR:
1263:..\..\..\..\..\..\Software\uCOS-III\Source/os_flag.c ****         case OS_OPT_POST_FLAG_CLR | OS_OPT_POST_NO_SCHED:
1264:..\..\..\..\..\..\Software\uCOS-III\Source/os_flag.c ****              p_grp->Flags &= ~flags;                            /* Clear the flags specified in the
 1305              		.loc 1 1264 0
 1306 004e FB68     		ldr	r3, [r7, #12]
 1307 0050 1B6A     		ldr	r3, [r3, #32]
 1308 0052 BA68     		ldr	r2, [r7, #8]
 1309 0054 D243     		mvns	r2, r2
 1310 0056 1A40     		ands	r2, r3
 1311 0058 FB68     		ldr	r3, [r7, #12]
 1312 005a 1A62     		str	r2, [r3, #32]
1265:..\..\..\..\..\..\Software\uCOS-III\Source/os_flag.c ****              break;
 1313              		.loc 1 1265 0
 1314 005c 0AE0     		b	.L96
 1315              	.L92:
1266:..\..\..\..\..\..\Software\uCOS-III\Source/os_flag.c **** 
1267:..\..\..\..\..\..\Software\uCOS-III\Source/os_flag.c ****         default:
1268:..\..\..\..\..\..\Software\uCOS-III\Source/os_flag.c ****              CPU_CRITICAL_EXIT();                               /* INVALID option                  
 1316              		.loc 1 1268 0
 1317 005e FFF7FEFF 		bl	CPU_IntDisMeasStop
 1318 0062 7B6A     		ldr	r3, [r7, #36]
 1319 0064 1800     		movs	r0, r3
 1320 0066 FFF7FEFF 		bl	CPU_SR_Restore
1269:..\..\..\..\..\..\Software\uCOS-III\Source/os_flag.c ****             *p_err = OS_ERR_OPT_INVALID;
 1321              		.loc 1 1269 0
 1322 006a BB6B     		ldr	r3, [r7, #56]
 1323 006c 4B4A     		ldr	r2, .L112+4
 1324 006e 1A80     		strh	r2, [r3]
1270:..\..\..\..\..\..\Software\uCOS-III\Source/os_flag.c ****              return (0u);
 1325              		.loc 1 1270 0
 1326 0070 0023     		movs	r3, #0
 1327 0072 8DE0     		b	.L97
 1328              	.L96:
1271:..\..\..\..\..\..\Software\uCOS-III\Source/os_flag.c ****     }
1272:..\..\..\..\..\..\Software\uCOS-III\Source/os_flag.c **** #if (OS_CFG_TS_EN == DEF_ENABLED)
1273:..\..\..\..\..\..\Software\uCOS-III\Source/os_flag.c ****     p_grp->TS   = ts;
 1329              		.loc 1 1273 0
 1330 0074 FB68     		ldr	r3, [r7, #12]
 1331 0076 3A68     		ldr	r2, [r7]
 1332 0078 5A62     		str	r2, [r3, #36]
1274:..\..\..\..\..\..\Software\uCOS-III\Source/os_flag.c **** #endif
1275:..\..\..\..\..\..\Software\uCOS-III\Source/os_flag.c ****     p_pend_list = &p_grp->PendList;
 1333              		.loc 1 1275 0
 1334 007a FB68     		ldr	r3, [r7, #12]
 1335 007c 0833     		adds	r3, r3, #8
 1336 007e 3B62     		str	r3, [r7, #32]
ARM GAS  C:\Users\ADMINI~1\AppData\Local\Temp\cc0ImMof.s 			page 47


1276:..\..\..\..\..\..\Software\uCOS-III\Source/os_flag.c ****     if (p_pend_list->HeadPtr == DEF_NULL) {                     /* Any task waiting on event flag g
 1337              		.loc 1 1276 0
 1338 0080 3B6A     		ldr	r3, [r7, #32]
 1339 0082 1B68     		ldr	r3, [r3]
 1340 0084 002B     		cmp	r3, #0
 1341 0086 0BD1     		bne	.L98
1277:..\..\..\..\..\..\Software\uCOS-III\Source/os_flag.c ****         CPU_CRITICAL_EXIT();                                    /* No                              
 1342              		.loc 1 1277 0
 1343 0088 FFF7FEFF 		bl	CPU_IntDisMeasStop
 1344 008c 7B6A     		ldr	r3, [r7, #36]
 1345 008e 1800     		movs	r0, r3
 1346 0090 FFF7FEFF 		bl	CPU_SR_Restore
1278:..\..\..\..\..\..\Software\uCOS-III\Source/os_flag.c ****        *p_err = OS_ERR_NONE;
 1347              		.loc 1 1278 0
 1348 0094 BB6B     		ldr	r3, [r7, #56]
 1349 0096 0022     		movs	r2, #0
 1350 0098 1A80     		strh	r2, [r3]
1279:..\..\..\..\..\..\Software\uCOS-III\Source/os_flag.c ****         return (p_grp->Flags);
 1351              		.loc 1 1279 0
 1352 009a FB68     		ldr	r3, [r7, #12]
 1353 009c 1B6A     		ldr	r3, [r3, #32]
 1354 009e 77E0     		b	.L97
 1355              	.L98:
1280:..\..\..\..\..\..\Software\uCOS-III\Source/os_flag.c ****     }
1281:..\..\..\..\..\..\Software\uCOS-III\Source/os_flag.c **** 
1282:..\..\..\..\..\..\Software\uCOS-III\Source/os_flag.c ****     OS_CRITICAL_ENTER_CPU_EXIT();
1283:..\..\..\..\..\..\Software\uCOS-III\Source/os_flag.c ****     p_pend_data = p_pend_list->HeadPtr;
 1356              		.loc 1 1283 0
 1357 00a0 3B6A     		ldr	r3, [r7, #32]
 1358 00a2 1B68     		ldr	r3, [r3]
 1359 00a4 FB62     		str	r3, [r7, #44]
1284:..\..\..\..\..\..\Software\uCOS-III\Source/os_flag.c ****     p_tcb       = p_pend_data->TCBPtr;
 1360              		.loc 1 1284 0
 1361 00a6 FB6A     		ldr	r3, [r7, #44]
 1362 00a8 9B68     		ldr	r3, [r3, #8]
 1363 00aa BB62     		str	r3, [r7, #40]
1285:..\..\..\..\..\..\Software\uCOS-III\Source/os_flag.c ****     while (p_tcb != DEF_NULL) {                                 /* Go through all tasks waiting on 
 1364              		.loc 1 1285 0
 1365 00ac 4DE0     		b	.L99
 1366              	.L107:
1286:..\..\..\..\..\..\Software\uCOS-III\Source/os_flag.c ****         p_pend_data_next = p_pend_data->NextPtr;
 1367              		.loc 1 1286 0
 1368 00ae FB6A     		ldr	r3, [r7, #44]
 1369 00b0 5B68     		ldr	r3, [r3, #4]
 1370 00b2 FB61     		str	r3, [r7, #28]
1287:..\..\..\..\..\..\Software\uCOS-III\Source/os_flag.c ****         mode             = p_tcb->FlagsOpt & OS_OPT_PEND_FLAG_MASK;
 1371              		.loc 1 1287 0
 1372 00b4 BB6A     		ldr	r3, [r7, #40]
 1373 00b6 8422     		movs	r2, #132
 1374 00b8 9A5A     		ldrh	r2, [r3, r2]
 1375 00ba 1A23     		movs	r3, #26
 1376 00bc FB18     		adds	r3, r7, r3
 1377 00be 0F21     		movs	r1, #15
 1378 00c0 0A40     		ands	r2, r1
 1379 00c2 1A80     		strh	r2, [r3]
1288:..\..\..\..\..\..\Software\uCOS-III\Source/os_flag.c ****         switch (mode) {
 1380              		.loc 1 1288 0
ARM GAS  C:\Users\ADMINI~1\AppData\Local\Temp\cc0ImMof.s 			page 48


 1381 00c4 1A23     		movs	r3, #26
 1382 00c6 FB18     		adds	r3, r7, r3
 1383 00c8 1B88     		ldrh	r3, [r3]
 1384 00ca 042B     		cmp	r3, #4
 1385 00cc 02D0     		beq	.L101
 1386 00ce 082B     		cmp	r3, #8
 1387 00d0 12D0     		beq	.L102
 1388 00d2 21E0     		b	.L109
 1389              	.L101:
1289:..\..\..\..\..\..\Software\uCOS-III\Source/os_flag.c ****             case OS_OPT_PEND_FLAG_SET_ALL:                      /* See if all req. flags are set fo
1290:..\..\..\..\..\..\Software\uCOS-III\Source/os_flag.c ****                  flags_rdy = (p_grp->Flags & p_tcb->FlagsPend);
 1390              		.loc 1 1290 0
 1391 00d4 FB68     		ldr	r3, [r7, #12]
 1392 00d6 1A6A     		ldr	r2, [r3, #32]
 1393 00d8 BB6A     		ldr	r3, [r7, #40]
 1394 00da DB6F     		ldr	r3, [r3, #124]
 1395 00dc 1340     		ands	r3, r2
 1396 00de 7B61     		str	r3, [r7, #20]
1291:..\..\..\..\..\..\Software\uCOS-III\Source/os_flag.c ****                  if (flags_rdy == p_tcb->FlagsPend) {
 1397              		.loc 1 1291 0
 1398 00e0 BB6A     		ldr	r3, [r7, #40]
 1399 00e2 DA6F     		ldr	r2, [r3, #124]
 1400 00e4 7B69     		ldr	r3, [r7, #20]
 1401 00e6 9A42     		cmp	r2, r3
 1402 00e8 21D1     		bne	.L110
1292:..\..\..\..\..\..\Software\uCOS-III\Source/os_flag.c ****                      OS_FlagTaskRdy(p_tcb,                      /* Make task RTR, event(s) Rx'd    
 1403              		.loc 1 1292 0
 1404 00ea 3A68     		ldr	r2, [r7]
 1405 00ec 7969     		ldr	r1, [r7, #20]
 1406 00ee BB6A     		ldr	r3, [r7, #40]
 1407 00f0 1800     		movs	r0, r3
 1408 00f2 FFF7FEFF 		bl	OS_FlagTaskRdy
1293:..\..\..\..\..\..\Software\uCOS-III\Source/os_flag.c ****                                     flags_rdy,
1294:..\..\..\..\..\..\Software\uCOS-III\Source/os_flag.c ****                                     ts);
1295:..\..\..\..\..\..\Software\uCOS-III\Source/os_flag.c ****                  }
1296:..\..\..\..\..\..\Software\uCOS-III\Source/os_flag.c ****                  break;
 1409              		.loc 1 1296 0
 1410 00f6 1AE0     		b	.L110
 1411              	.L102:
1297:..\..\..\..\..\..\Software\uCOS-III\Source/os_flag.c **** 
1298:..\..\..\..\..\..\Software\uCOS-III\Source/os_flag.c ****             case OS_OPT_PEND_FLAG_SET_ANY:                      /* See if any flag set             
1299:..\..\..\..\..\..\Software\uCOS-III\Source/os_flag.c ****                  flags_rdy = (p_grp->Flags & p_tcb->FlagsPend);
 1412              		.loc 1 1299 0
 1413 00f8 FB68     		ldr	r3, [r7, #12]
 1414 00fa 1A6A     		ldr	r2, [r3, #32]
 1415 00fc BB6A     		ldr	r3, [r7, #40]
 1416 00fe DB6F     		ldr	r3, [r3, #124]
 1417 0100 1340     		ands	r3, r2
 1418 0102 7B61     		str	r3, [r7, #20]
1300:..\..\..\..\..\..\Software\uCOS-III\Source/os_flag.c ****                  if (flags_rdy != 0u) {
 1419              		.loc 1 1300 0
 1420 0104 7B69     		ldr	r3, [r7, #20]
 1421 0106 002B     		cmp	r3, #0
 1422 0108 13D0     		beq	.L111
1301:..\..\..\..\..\..\Software\uCOS-III\Source/os_flag.c ****                      OS_FlagTaskRdy(p_tcb,                      /* Make task RTR, event(s) Rx'd    
 1423              		.loc 1 1301 0
 1424 010a 3A68     		ldr	r2, [r7]
ARM GAS  C:\Users\ADMINI~1\AppData\Local\Temp\cc0ImMof.s 			page 49


 1425 010c 7969     		ldr	r1, [r7, #20]
 1426 010e BB6A     		ldr	r3, [r7, #40]
 1427 0110 1800     		movs	r0, r3
 1428 0112 FFF7FEFF 		bl	OS_FlagTaskRdy
1302:..\..\..\..\..\..\Software\uCOS-III\Source/os_flag.c ****                                     flags_rdy,
1303:..\..\..\..\..\..\Software\uCOS-III\Source/os_flag.c ****                                     ts);
1304:..\..\..\..\..\..\Software\uCOS-III\Source/os_flag.c ****                  }
1305:..\..\..\..\..\..\Software\uCOS-III\Source/os_flag.c ****                  break;
 1429              		.loc 1 1305 0
 1430 0116 0CE0     		b	.L111
 1431              	.L109:
1306:..\..\..\..\..\..\Software\uCOS-III\Source/os_flag.c **** 
1307:..\..\..\..\..\..\Software\uCOS-III\Source/os_flag.c **** #if (OS_CFG_FLAG_MODE_CLR_EN == DEF_ENABLED)
1308:..\..\..\..\..\..\Software\uCOS-III\Source/os_flag.c ****             case OS_OPT_PEND_FLAG_CLR_ALL:                      /* See if all req. flags are set fo
1309:..\..\..\..\..\..\Software\uCOS-III\Source/os_flag.c ****                  flags_rdy = (OS_FLAGS)(~p_grp->Flags & p_tcb->FlagsPend);
1310:..\..\..\..\..\..\Software\uCOS-III\Source/os_flag.c ****                  if (flags_rdy == p_tcb->FlagsPend) {
1311:..\..\..\..\..\..\Software\uCOS-III\Source/os_flag.c ****                      OS_FlagTaskRdy(p_tcb,                      /* Make task RTR, event(s) Rx'd    
1312:..\..\..\..\..\..\Software\uCOS-III\Source/os_flag.c ****                                     flags_rdy,
1313:..\..\..\..\..\..\Software\uCOS-III\Source/os_flag.c ****                                     ts);
1314:..\..\..\..\..\..\Software\uCOS-III\Source/os_flag.c ****                  }
1315:..\..\..\..\..\..\Software\uCOS-III\Source/os_flag.c ****                  break;
1316:..\..\..\..\..\..\Software\uCOS-III\Source/os_flag.c **** 
1317:..\..\..\..\..\..\Software\uCOS-III\Source/os_flag.c ****             case OS_OPT_PEND_FLAG_CLR_ANY:                      /* See if any flag set             
1318:..\..\..\..\..\..\Software\uCOS-III\Source/os_flag.c ****                  flags_rdy = (OS_FLAGS)(~p_grp->Flags & p_tcb->FlagsPend);
1319:..\..\..\..\..\..\Software\uCOS-III\Source/os_flag.c ****                  if (flags_rdy != 0u) {
1320:..\..\..\..\..\..\Software\uCOS-III\Source/os_flag.c ****                      OS_FlagTaskRdy(p_tcb,                      /* Make task RTR, event(s) Rx'd    
1321:..\..\..\..\..\..\Software\uCOS-III\Source/os_flag.c ****                                     flags_rdy,
1322:..\..\..\..\..\..\Software\uCOS-III\Source/os_flag.c ****                                     ts);
1323:..\..\..\..\..\..\Software\uCOS-III\Source/os_flag.c ****                  }
1324:..\..\..\..\..\..\Software\uCOS-III\Source/os_flag.c ****                  break;
1325:..\..\..\..\..\..\Software\uCOS-III\Source/os_flag.c **** #endif
1326:..\..\..\..\..\..\Software\uCOS-III\Source/os_flag.c ****             default:
1327:..\..\..\..\..\..\Software\uCOS-III\Source/os_flag.c ****                  OS_CRITICAL_EXIT();
 1432              		.loc 1 1327 0
 1433 0118 FFF7FEFF 		bl	CPU_IntDisMeasStop
 1434 011c 7B6A     		ldr	r3, [r7, #36]
 1435 011e 1800     		movs	r0, r3
 1436 0120 FFF7FEFF 		bl	CPU_SR_Restore
1328:..\..\..\..\..\..\Software\uCOS-III\Source/os_flag.c ****                 *p_err = OS_ERR_FLAG_PEND_OPT;
 1437              		.loc 1 1328 0
 1438 0124 BB6B     		ldr	r3, [r7, #56]
 1439 0126 1E4A     		ldr	r2, .L112+8
 1440 0128 1A80     		strh	r2, [r3]
1329:..\..\..\..\..\..\Software\uCOS-III\Source/os_flag.c ****                  return (0u);
 1441              		.loc 1 1329 0
 1442 012a 0023     		movs	r3, #0
 1443 012c 30E0     		b	.L97
 1444              	.L110:
1296:..\..\..\..\..\..\Software\uCOS-III\Source/os_flag.c **** 
 1445              		.loc 1 1296 0
 1446 012e C046     		nop
 1447 0130 00E0     		b	.L104
 1448              	.L111:
1305:..\..\..\..\..\..\Software\uCOS-III\Source/os_flag.c **** 
 1449              		.loc 1 1305 0
 1450 0132 C046     		nop
 1451              	.L104:
ARM GAS  C:\Users\ADMINI~1\AppData\Local\Temp\cc0ImMof.s 			page 50


1330:..\..\..\..\..\..\Software\uCOS-III\Source/os_flag.c ****         }
1331:..\..\..\..\..\..\Software\uCOS-III\Source/os_flag.c ****         p_pend_data = p_pend_data_next;                         /* Point to next task waiting for e
 1452              		.loc 1 1331 0
 1453 0134 FB69     		ldr	r3, [r7, #28]
 1454 0136 FB62     		str	r3, [r7, #44]
1332:..\..\..\..\..\..\Software\uCOS-III\Source/os_flag.c ****         if (p_pend_data != DEF_NULL) {
 1455              		.loc 1 1332 0
 1456 0138 FB6A     		ldr	r3, [r7, #44]
 1457 013a 002B     		cmp	r3, #0
 1458 013c 03D0     		beq	.L106
1333:..\..\..\..\..\..\Software\uCOS-III\Source/os_flag.c ****             p_tcb = p_pend_data->TCBPtr;
 1459              		.loc 1 1333 0
 1460 013e FB6A     		ldr	r3, [r7, #44]
 1461 0140 9B68     		ldr	r3, [r3, #8]
 1462 0142 BB62     		str	r3, [r7, #40]
 1463 0144 01E0     		b	.L99
 1464              	.L106:
1334:..\..\..\..\..\..\Software\uCOS-III\Source/os_flag.c ****         } else {
1335:..\..\..\..\..\..\Software\uCOS-III\Source/os_flag.c ****             p_tcb = DEF_NULL;
 1465              		.loc 1 1335 0
 1466 0146 0023     		movs	r3, #0
 1467 0148 BB62     		str	r3, [r7, #40]
 1468              	.L99:
1285:..\..\..\..\..\..\Software\uCOS-III\Source/os_flag.c ****         p_pend_data_next = p_pend_data->NextPtr;
 1469              		.loc 1 1285 0
 1470 014a BB6A     		ldr	r3, [r7, #40]
 1471 014c 002B     		cmp	r3, #0
 1472 014e AED1     		bne	.L107
1336:..\..\..\..\..\..\Software\uCOS-III\Source/os_flag.c ****         }
1337:..\..\..\..\..\..\Software\uCOS-III\Source/os_flag.c ****     }
1338:..\..\..\..\..\..\Software\uCOS-III\Source/os_flag.c ****     OS_CRITICAL_EXIT_NO_SCHED();
 1473              		.loc 1 1338 0
 1474 0150 FFF7FEFF 		bl	CPU_IntDisMeasStop
 1475 0154 7B6A     		ldr	r3, [r7, #36]
 1476 0156 1800     		movs	r0, r3
 1477 0158 FFF7FEFF 		bl	CPU_SR_Restore
1339:..\..\..\..\..\..\Software\uCOS-III\Source/os_flag.c **** 
1340:..\..\..\..\..\..\Software\uCOS-III\Source/os_flag.c ****     if ((opt & OS_OPT_POST_NO_SCHED) == 0u) {
 1478              		.loc 1 1340 0
 1479 015c BB1D     		adds	r3, r7, #6
 1480 015e 0022     		movs	r2, #0
 1481 0160 9B5E     		ldrsh	r3, [r3, r2]
 1482 0162 002B     		cmp	r3, #0
 1483 0164 01DB     		blt	.L108
1341:..\..\..\..\..\..\Software\uCOS-III\Source/os_flag.c ****         OSSched();
 1484              		.loc 1 1341 0
 1485 0166 FFF7FEFF 		bl	OSSched
 1486              	.L108:
1342:..\..\..\..\..\..\Software\uCOS-III\Source/os_flag.c ****     }
1343:..\..\..\..\..\..\Software\uCOS-III\Source/os_flag.c **** 
1344:..\..\..\..\..\..\Software\uCOS-III\Source/os_flag.c ****     CPU_CRITICAL_ENTER();
 1487              		.loc 1 1344 0
 1488 016a FFF7FEFF 		bl	CPU_SR_Save
 1489 016e 0300     		movs	r3, r0
 1490 0170 7B62     		str	r3, [r7, #36]
 1491 0172 FFF7FEFF 		bl	CPU_IntDisMeasStart
1345:..\..\..\..\..\..\Software\uCOS-III\Source/os_flag.c ****     flags_cur = p_grp->Flags;
ARM GAS  C:\Users\ADMINI~1\AppData\Local\Temp\cc0ImMof.s 			page 51


 1492              		.loc 1 1345 0
 1493 0176 FB68     		ldr	r3, [r7, #12]
 1494 0178 1B6A     		ldr	r3, [r3, #32]
 1495 017a 3B61     		str	r3, [r7, #16]
1346:..\..\..\..\..\..\Software\uCOS-III\Source/os_flag.c ****     CPU_CRITICAL_EXIT();
 1496              		.loc 1 1346 0
 1497 017c FFF7FEFF 		bl	CPU_IntDisMeasStop
 1498 0180 7B6A     		ldr	r3, [r7, #36]
 1499 0182 1800     		movs	r0, r3
 1500 0184 FFF7FEFF 		bl	CPU_SR_Restore
1347:..\..\..\..\..\..\Software\uCOS-III\Source/os_flag.c ****    *p_err     = OS_ERR_NONE;
 1501              		.loc 1 1347 0
 1502 0188 BB6B     		ldr	r3, [r7, #56]
 1503 018a 0022     		movs	r2, #0
 1504 018c 1A80     		strh	r2, [r3]
1348:..\..\..\..\..\..\Software\uCOS-III\Source/os_flag.c ****     return (flags_cur);
 1505              		.loc 1 1348 0
 1506 018e 3B69     		ldr	r3, [r7, #16]
 1507              	.L97:
1349:..\..\..\..\..\..\Software\uCOS-III\Source/os_flag.c **** }
 1508              		.loc 1 1349 0
 1509 0190 1800     		movs	r0, r3
 1510 0192 BD46     		mov	sp, r7
 1511 0194 0CB0     		add	sp, sp, #48
 1512              		@ sp needed
 1513 0196 80BD     		pop	{r7, pc}
 1514              	.L113:
 1515              		.align	2
 1516              	.L112:
 1517 0198 01800000 		.word	32769
 1518 019c 255E0000 		.word	24101
 1519 01a0 FF3A0000 		.word	15103
 1520              		.cfi_endproc
 1521              	.LFE8:
 1522              		.size	OS_FlagPost, .-OS_FlagPost
 1523              		.section	.text.OS_FlagTaskRdy,"ax",%progbits
 1524              		.align	2
 1525              		.global	OS_FlagTaskRdy
 1526              		.code	16
 1527              		.thumb_func
 1528              		.type	OS_FlagTaskRdy, %function
 1529              	OS_FlagTaskRdy:
 1530              	.LFB9:
1350:..\..\..\..\..\..\Software\uCOS-III\Source/os_flag.c **** 
1351:..\..\..\..\..\..\Software\uCOS-III\Source/os_flag.c **** 
1352:..\..\..\..\..\..\Software\uCOS-III\Source/os_flag.c **** /*
1353:..\..\..\..\..\..\Software\uCOS-III\Source/os_flag.c **** ***************************************************************************************************
1354:..\..\..\..\..\..\Software\uCOS-III\Source/os_flag.c **** *                                        MAKE TASK READY-TO-RUN, EVENT(s) OCCURRED
1355:..\..\..\..\..\..\Software\uCOS-III\Source/os_flag.c **** *
1356:..\..\..\..\..\..\Software\uCOS-III\Source/os_flag.c **** * Description: This function is internal to uC/OS-III and is used to make a task ready-to-run becau
1357:..\..\..\..\..\..\Software\uCOS-III\Source/os_flag.c **** *              flag bits have been set.
1358:..\..\..\..\..\..\Software\uCOS-III\Source/os_flag.c **** *
1359:..\..\..\..\..\..\Software\uCOS-III\Source/os_flag.c **** * Arguments  : p_tcb         is a pointer to the OS_TCB of the task to remove
1360:..\..\..\..\..\..\Software\uCOS-III\Source/os_flag.c **** *              -----
1361:..\..\..\..\..\..\Software\uCOS-III\Source/os_flag.c **** *
1362:..\..\..\..\..\..\Software\uCOS-III\Source/os_flag.c **** *              flags_rdy     contains the bit pattern of the event flags that cause the task to bec
1363:..\..\..\..\..\..\Software\uCOS-III\Source/os_flag.c **** *
ARM GAS  C:\Users\ADMINI~1\AppData\Local\Temp\cc0ImMof.s 			page 52


1364:..\..\..\..\..\..\Software\uCOS-III\Source/os_flag.c **** *              ts            is a timestamp associated with the post
1365:..\..\..\..\..\..\Software\uCOS-III\Source/os_flag.c **** *
1366:..\..\..\..\..\..\Software\uCOS-III\Source/os_flag.c **** * Returns    : none
1367:..\..\..\..\..\..\Software\uCOS-III\Source/os_flag.c **** *
1368:..\..\..\..\..\..\Software\uCOS-III\Source/os_flag.c **** * Note(s)    : This function is INTERNAL to uC/OS-III and your application should not call it.
1369:..\..\..\..\..\..\Software\uCOS-III\Source/os_flag.c **** ***************************************************************************************************
1370:..\..\..\..\..\..\Software\uCOS-III\Source/os_flag.c **** */
1371:..\..\..\..\..\..\Software\uCOS-III\Source/os_flag.c **** 
1372:..\..\..\..\..\..\Software\uCOS-III\Source/os_flag.c **** void   OS_FlagTaskRdy (OS_TCB    *p_tcb,
1373:..\..\..\..\..\..\Software\uCOS-III\Source/os_flag.c ****                        OS_FLAGS   flags_rdy,
1374:..\..\..\..\..\..\Software\uCOS-III\Source/os_flag.c ****                        CPU_TS     ts)
1375:..\..\..\..\..\..\Software\uCOS-III\Source/os_flag.c **** {
 1531              		.loc 1 1375 0
 1532              		.cfi_startproc
 1533              		@ args = 0, pretend = 0, frame = 16
 1534              		@ frame_needed = 1, uses_anonymous_args = 0
 1535 0000 80B5     		push	{r7, lr}
 1536              		.cfi_def_cfa_offset 8
 1537              		.cfi_offset 7, -8
 1538              		.cfi_offset 14, -4
 1539 0002 84B0     		sub	sp, sp, #16
 1540              		.cfi_def_cfa_offset 24
 1541 0004 00AF     		add	r7, sp, #0
 1542              		.cfi_def_cfa_register 7
 1543 0006 F860     		str	r0, [r7, #12]
 1544 0008 B960     		str	r1, [r7, #8]
 1545 000a 7A60     		str	r2, [r7, #4]
1376:..\..\..\..\..\..\Software\uCOS-III\Source/os_flag.c **** #if (OS_CFG_TS_EN == DEF_DISABLED)
1377:..\..\..\..\..\..\Software\uCOS-III\Source/os_flag.c ****     (void)ts;                                                   /* Prevent compiler warning for not
1378:..\..\..\..\..\..\Software\uCOS-III\Source/os_flag.c **** #endif
1379:..\..\..\..\..\..\Software\uCOS-III\Source/os_flag.c **** 
1380:..\..\..\..\..\..\Software\uCOS-III\Source/os_flag.c ****     p_tcb->FlagsRdy   = flags_rdy;
 1546              		.loc 1 1380 0
 1547 000c FB68     		ldr	r3, [r7, #12]
 1548 000e 8021     		movs	r1, #128
 1549 0010 BA68     		ldr	r2, [r7, #8]
 1550 0012 5A50     		str	r2, [r3, r1]
1381:..\..\..\..\..\..\Software\uCOS-III\Source/os_flag.c ****     p_tcb->PendStatus = OS_STATUS_PEND_OK;                      /* Clear pend status               
 1551              		.loc 1 1381 0
 1552 0014 FB68     		ldr	r3, [r7, #12]
 1553 0016 3522     		movs	r2, #53
 1554 0018 0021     		movs	r1, #0
 1555 001a 9954     		strb	r1, [r3, r2]
1382:..\..\..\..\..\..\Software\uCOS-III\Source/os_flag.c ****     p_tcb->PendOn     = OS_TASK_PEND_ON_NOTHING;                /* Indicate no longer pending      
 1556              		.loc 1 1382 0
 1557 001c FB68     		ldr	r3, [r7, #12]
 1558 001e 3422     		movs	r2, #52
 1559 0020 0021     		movs	r1, #0
 1560 0022 9954     		strb	r1, [r3, r2]
1383:..\..\..\..\..\..\Software\uCOS-III\Source/os_flag.c **** #if (OS_CFG_TS_EN == DEF_ENABLED)
1384:..\..\..\..\..\..\Software\uCOS-III\Source/os_flag.c ****     p_tcb->TS         = ts;
 1561              		.loc 1 1384 0
 1562 0024 FB68     		ldr	r3, [r7, #12]
 1563 0026 7A68     		ldr	r2, [r7, #4]
 1564 0028 9A64     		str	r2, [r3, #72]
1385:..\..\..\..\..\..\Software\uCOS-III\Source/os_flag.c **** #endif
1386:..\..\..\..\..\..\Software\uCOS-III\Source/os_flag.c ****     switch (p_tcb->TaskState) {
ARM GAS  C:\Users\ADMINI~1\AppData\Local\Temp\cc0ImMof.s 			page 53


 1565              		.loc 1 1386 0
 1566 002a FB68     		ldr	r3, [r7, #12]
 1567 002c 3622     		movs	r2, #54
 1568 002e 9B5C     		ldrb	r3, [r3, r2]
 1569 0030 022B     		cmp	r3, #2
 1570 0032 1CDB     		blt	.L121
 1571 0034 032B     		cmp	r3, #3
 1572 0036 03DD     		ble	.L116
 1573 0038 063B     		subs	r3, r3, #6
 1574 003a 012B     		cmp	r3, #1
 1575 003c 17D8     		bhi	.L121
 1576 003e 11E0     		b	.L120
 1577              	.L116:
1387:..\..\..\..\..\..\Software\uCOS-III\Source/os_flag.c ****         case OS_TASK_STATE_PEND:
1388:..\..\..\..\..\..\Software\uCOS-III\Source/os_flag.c ****         case OS_TASK_STATE_PEND_TIMEOUT:
1389:..\..\..\..\..\..\Software\uCOS-III\Source/os_flag.c **** #if (OS_CFG_TASK_TICK_EN == DEF_ENABLED)
1390:..\..\..\..\..\..\Software\uCOS-III\Source/os_flag.c ****              if (p_tcb->TaskState == OS_TASK_STATE_PEND_TIMEOUT) {
 1578              		.loc 1 1390 0
 1579 0040 FB68     		ldr	r3, [r7, #12]
 1580 0042 3622     		movs	r2, #54
 1581 0044 9B5C     		ldrb	r3, [r3, r2]
 1582 0046 032B     		cmp	r3, #3
 1583 0048 03D1     		bne	.L118
1391:..\..\..\..\..\..\Software\uCOS-III\Source/os_flag.c ****                  OS_TickListRemove(p_tcb);                      /* Remove from tick list           
 1584              		.loc 1 1391 0
 1585 004a FB68     		ldr	r3, [r7, #12]
 1586 004c 1800     		movs	r0, r3
 1587 004e FFF7FEFF 		bl	OS_TickListRemove
 1588              	.L118:
1392:..\..\..\..\..\..\Software\uCOS-III\Source/os_flag.c ****              }
1393:..\..\..\..\..\..\Software\uCOS-III\Source/os_flag.c **** #endif
1394:..\..\..\..\..\..\Software\uCOS-III\Source/os_flag.c ****              OS_RdyListInsert(p_tcb);                           /* Insert the task in the ready lis
 1589              		.loc 1 1394 0
 1590 0052 FB68     		ldr	r3, [r7, #12]
 1591 0054 1800     		movs	r0, r3
 1592 0056 FFF7FEFF 		bl	OS_RdyListInsert
1395:..\..\..\..\..\..\Software\uCOS-III\Source/os_flag.c ****              p_tcb->TaskState = OS_TASK_STATE_RDY;
 1593              		.loc 1 1395 0
 1594 005a FB68     		ldr	r3, [r7, #12]
 1595 005c 3622     		movs	r2, #54
 1596 005e 0021     		movs	r1, #0
 1597 0060 9954     		strb	r1, [r3, r2]
1396:..\..\..\..\..\..\Software\uCOS-III\Source/os_flag.c ****              break;
 1598              		.loc 1 1396 0
 1599 0062 05E0     		b	.L119
 1600              	.L120:
1397:..\..\..\..\..\..\Software\uCOS-III\Source/os_flag.c **** 
1398:..\..\..\..\..\..\Software\uCOS-III\Source/os_flag.c ****         case OS_TASK_STATE_PEND_SUSPENDED:
1399:..\..\..\..\..\..\Software\uCOS-III\Source/os_flag.c ****         case OS_TASK_STATE_PEND_TIMEOUT_SUSPENDED:
1400:..\..\..\..\..\..\Software\uCOS-III\Source/os_flag.c ****              p_tcb->TaskState = OS_TASK_STATE_SUSPENDED;
 1601              		.loc 1 1400 0
 1602 0064 FB68     		ldr	r3, [r7, #12]
 1603 0066 3622     		movs	r2, #54
 1604 0068 0421     		movs	r1, #4
 1605 006a 9954     		strb	r1, [r3, r2]
1401:..\..\..\..\..\..\Software\uCOS-III\Source/os_flag.c ****              break;
 1606              		.loc 1 1401 0
ARM GAS  C:\Users\ADMINI~1\AppData\Local\Temp\cc0ImMof.s 			page 54


 1607 006c 00E0     		b	.L119
 1608              	.L121:
1402:..\..\..\..\..\..\Software\uCOS-III\Source/os_flag.c **** 
1403:..\..\..\..\..\..\Software\uCOS-III\Source/os_flag.c ****         case OS_TASK_STATE_RDY:
1404:..\..\..\..\..\..\Software\uCOS-III\Source/os_flag.c ****         case OS_TASK_STATE_DLY:
1405:..\..\..\..\..\..\Software\uCOS-III\Source/os_flag.c ****         case OS_TASK_STATE_DLY_SUSPENDED:
1406:..\..\..\..\..\..\Software\uCOS-III\Source/os_flag.c ****         case OS_TASK_STATE_SUSPENDED:
1407:..\..\..\..\..\..\Software\uCOS-III\Source/os_flag.c ****         default:
1408:..\..\..\..\..\..\Software\uCOS-III\Source/os_flag.c ****              break;
 1609              		.loc 1 1408 0
 1610 006e C046     		nop
 1611              	.L119:
1409:..\..\..\..\..\..\Software\uCOS-III\Source/os_flag.c ****     }
1410:..\..\..\..\..\..\Software\uCOS-III\Source/os_flag.c ****     OS_PendListRemove(p_tcb);
 1612              		.loc 1 1410 0
 1613 0070 FB68     		ldr	r3, [r7, #12]
 1614 0072 1800     		movs	r0, r3
 1615 0074 FFF7FEFF 		bl	OS_PendListRemove
1411:..\..\..\..\..\..\Software\uCOS-III\Source/os_flag.c **** }
 1616              		.loc 1 1411 0
 1617 0078 C046     		nop
 1618 007a BD46     		mov	sp, r7
 1619 007c 04B0     		add	sp, sp, #16
 1620              		@ sp needed
 1621 007e 80BD     		pop	{r7, pc}
 1622              		.cfi_endproc
 1623              	.LFE9:
 1624              		.size	OS_FlagTaskRdy, .-OS_FlagTaskRdy
 1625              		.text
 1626              	.Letext0:
 1627              		.file 2 "..\\..\\..\\..\\..\\..\\Software\\uC-CPU\\ARM-Cortex-M0\\GNU/cpu.h"
 1628              		.file 3 "..\\..\\..\\..\\..\\..\\Software\\uC-CPU/cpu_core.h"
 1629              		.file 4 "..\\..\\..\\..\\..\\..\\Software\\uCOS-III\\Source\\os_type.h"
 1630              		.file 5 "..\\..\\..\\..\\..\\..\\Software\\uCOS-III\\Source\\os.h"
 1631              		.section	.debug_info,"",%progbits
 1632              	.Ldebug_info0:
 1633 0000 DF100000 		.4byte	0x10df
 1634 0004 0400     		.2byte	0x4
 1635 0006 00000000 		.4byte	.Ldebug_abbrev0
 1636 000a 04       		.byte	0x4
 1637 000b 01       		.uleb128 0x1
 1638 000c 01030000 		.4byte	.LASF329
 1639 0010 0C       		.byte	0xc
 1640 0011 4A0C0000 		.4byte	.LASF330
 1641 0015 91000000 		.4byte	.LASF331
 1642 0019 00000000 		.4byte	.Ldebug_ranges0+0
 1643 001d 00000000 		.4byte	0
 1644 0021 00000000 		.4byte	.Ldebug_line0
 1645 0025 02       		.uleb128 0x2
 1646 0026 E1070000 		.4byte	.LASF0
 1647 002a 02       		.byte	0x2
 1648 002b 7C       		.byte	0x7c
 1649 002c 30000000 		.4byte	0x30
 1650 0030 03       		.uleb128 0x3
 1651 0031 01       		.byte	0x1
 1652 0032 08       		.byte	0x8
 1653 0033 6E090000 		.4byte	.LASF2
ARM GAS  C:\Users\ADMINI~1\AppData\Local\Temp\cc0ImMof.s 			page 55


 1654 0037 02       		.uleb128 0x2
 1655 0038 D9100000 		.4byte	.LASF1
 1656 003c 02       		.byte	0x2
 1657 003d 7D       		.byte	0x7d
 1658 003e 42000000 		.4byte	0x42
 1659 0042 03       		.uleb128 0x3
 1660 0043 01       		.byte	0x1
 1661 0044 08       		.byte	0x8
 1662 0045 35110000 		.4byte	.LASF3
 1663 0049 02       		.uleb128 0x2
 1664 004a CE060000 		.4byte	.LASF4
 1665 004e 02       		.byte	0x2
 1666 004f 7E       		.byte	0x7e
 1667 0050 42000000 		.4byte	0x42
 1668 0054 03       		.uleb128 0x3
 1669 0055 01       		.byte	0x1
 1670 0056 06       		.byte	0x6
 1671 0057 90120000 		.4byte	.LASF5
 1672 005b 02       		.uleb128 0x2
 1673 005c 260B0000 		.4byte	.LASF6
 1674 0060 02       		.byte	0x2
 1675 0061 80       		.byte	0x80
 1676 0062 66000000 		.4byte	0x66
 1677 0066 03       		.uleb128 0x3
 1678 0067 02       		.byte	0x2
 1679 0068 07       		.byte	0x7
 1680 0069 B6120000 		.4byte	.LASF7
 1681 006d 03       		.uleb128 0x3
 1682 006e 02       		.byte	0x2
 1683 006f 05       		.byte	0x5
 1684 0070 860E0000 		.4byte	.LASF8
 1685 0074 02       		.uleb128 0x2
 1686 0075 18020000 		.4byte	.LASF9
 1687 0079 02       		.byte	0x2
 1688 007a 82       		.byte	0x82
 1689 007b 7F000000 		.4byte	0x7f
 1690 007f 03       		.uleb128 0x3
 1691 0080 04       		.byte	0x4
 1692 0081 07       		.byte	0x7
 1693 0082 14100000 		.4byte	.LASF10
 1694 0086 04       		.uleb128 0x4
 1695 0087 04       		.byte	0x4
 1696 0088 05       		.byte	0x5
 1697 0089 696E7400 		.ascii	"int\000"
 1698 008d 03       		.uleb128 0x3
 1699 008e 08       		.byte	0x8
 1700 008f 07       		.byte	0x7
 1701 0090 21060000 		.4byte	.LASF11
 1702 0094 03       		.uleb128 0x3
 1703 0095 08       		.byte	0x8
 1704 0096 05       		.byte	0x5
 1705 0097 980A0000 		.4byte	.LASF12
 1706 009b 03       		.uleb128 0x3
 1707 009c 04       		.byte	0x4
 1708 009d 04       		.byte	0x4
 1709 009e 81050000 		.4byte	.LASF13
 1710 00a2 03       		.uleb128 0x3
ARM GAS  C:\Users\ADMINI~1\AppData\Local\Temp\cc0ImMof.s 			page 56


 1711 00a3 08       		.byte	0x8
 1712 00a4 04       		.byte	0x4
 1713 00a5 3F130000 		.4byte	.LASF14
 1714 00a9 05       		.uleb128 0x5
 1715 00aa 04       		.byte	0x4
 1716 00ab AF000000 		.4byte	0xaf
 1717 00af 06       		.uleb128 0x6
 1718 00b0 BA000000 		.4byte	0xba
 1719 00b4 07       		.uleb128 0x7
 1720 00b5 BA000000 		.4byte	0xba
 1721 00b9 00       		.byte	0
 1722 00ba 08       		.uleb128 0x8
 1723 00bb 04       		.byte	0x4
 1724 00bc 02       		.uleb128 0x2
 1725 00bd 93100000 		.4byte	.LASF15
 1726 00c1 02       		.byte	0x2
 1727 00c2 BA       		.byte	0xba
 1728 00c3 74000000 		.4byte	0x74
 1729 00c7 02       		.uleb128 0x2
 1730 00c8 AA140000 		.4byte	.LASF16
 1731 00cc 02       		.byte	0x2
 1732 00cd E5       		.byte	0xe5
 1733 00ce 74000000 		.4byte	0x74
 1734 00d2 02       		.uleb128 0x2
 1735 00d3 01080000 		.4byte	.LASF17
 1736 00d7 02       		.byte	0x2
 1737 00d8 E6       		.byte	0xe6
 1738 00d9 BC000000 		.4byte	0xbc
 1739 00dd 09       		.uleb128 0x9
 1740 00de A4090000 		.4byte	.LASF18
 1741 00e2 02       		.byte	0x2
 1742 00e3 3301     		.2byte	0x133
 1743 00e5 74000000 		.4byte	0x74
 1744 00e9 02       		.uleb128 0x2
 1745 00ea E00B0000 		.4byte	.LASF19
 1746 00ee 03       		.byte	0x3
 1747 00ef C3       		.byte	0xc3
 1748 00f0 74000000 		.4byte	0x74
 1749 00f4 02       		.uleb128 0x2
 1750 00f5 910A0000 		.4byte	.LASF20
 1751 00f9 03       		.byte	0x3
 1752 00fa C6       		.byte	0xc6
 1753 00fb E9000000 		.4byte	0xe9
 1754 00ff 02       		.uleb128 0x2
 1755 0100 EE010000 		.4byte	.LASF21
 1756 0104 04       		.byte	0x4
 1757 0105 32       		.byte	0x32
 1758 0106 5B000000 		.4byte	0x5b
 1759 010a 02       		.uleb128 0x2
 1760 010b 22000000 		.4byte	.LASF22
 1761 010f 04       		.byte	0x4
 1762 0110 36       		.byte	0x36
 1763 0111 74000000 		.4byte	0x74
 1764 0115 02       		.uleb128 0x2
 1765 0116 E5100000 		.4byte	.LASF23
 1766 011a 04       		.byte	0x4
 1767 011b 38       		.byte	0x38
ARM GAS  C:\Users\ADMINI~1\AppData\Local\Temp\cc0ImMof.s 			page 57


 1768 011c 74000000 		.4byte	0x74
 1769 0120 02       		.uleb128 0x2
 1770 0121 D3120000 		.4byte	.LASF24
 1771 0125 04       		.byte	0x4
 1772 0126 3A       		.byte	0x3a
 1773 0127 74000000 		.4byte	0x74
 1774 012b 02       		.uleb128 0x2
 1775 012c 0E080000 		.4byte	.LASF25
 1776 0130 04       		.byte	0x4
 1777 0131 41       		.byte	0x41
 1778 0132 5B000000 		.4byte	0x5b
 1779 0136 02       		.uleb128 0x2
 1780 0137 A6070000 		.4byte	.LASF26
 1781 013b 04       		.byte	0x4
 1782 013c 42       		.byte	0x42
 1783 013d 5B000000 		.4byte	0x5b
 1784 0141 02       		.uleb128 0x2
 1785 0142 440F0000 		.4byte	.LASF27
 1786 0146 04       		.byte	0x4
 1787 0147 44       		.byte	0x44
 1788 0148 49000000 		.4byte	0x49
 1789 014c 02       		.uleb128 0x2
 1790 014d 3B050000 		.4byte	.LASF28
 1791 0151 04       		.byte	0x4
 1792 0152 46       		.byte	0x46
 1793 0153 5B000000 		.4byte	0x5b
 1794 0157 02       		.uleb128 0x2
 1795 0158 73090000 		.4byte	.LASF29
 1796 015c 04       		.byte	0x4
 1797 015d 47       		.byte	0x47
 1798 015e 74000000 		.4byte	0x74
 1799 0162 02       		.uleb128 0x2
 1800 0163 89110000 		.4byte	.LASF30
 1801 0167 04       		.byte	0x4
 1802 0168 49       		.byte	0x49
 1803 0169 5B000000 		.4byte	0x5b
 1804 016d 02       		.uleb128 0x2
 1805 016e 79050000 		.4byte	.LASF31
 1806 0172 04       		.byte	0x4
 1807 0173 4D       		.byte	0x4d
 1808 0174 49000000 		.4byte	0x49
 1809 0178 02       		.uleb128 0x2
 1810 0179 36070000 		.4byte	.LASF32
 1811 017d 04       		.byte	0x4
 1812 017e 56       		.byte	0x56
 1813 017f 74000000 		.4byte	0x74
 1814 0183 02       		.uleb128 0x2
 1815 0184 0C0C0000 		.4byte	.LASF33
 1816 0188 04       		.byte	0x4
 1817 0189 5A       		.byte	0x5a
 1818 018a 74000000 		.4byte	0x74
 1819 018e 02       		.uleb128 0x2
 1820 018f 78110000 		.4byte	.LASF34
 1821 0193 04       		.byte	0x4
 1822 0194 5C       		.byte	0x5c
 1823 0195 49000000 		.4byte	0x49
 1824 0199 02       		.uleb128 0x2
ARM GAS  C:\Users\ADMINI~1\AppData\Local\Temp\cc0ImMof.s 			page 58


 1825 019a 5E070000 		.4byte	.LASF35
 1826 019e 04       		.byte	0x4
 1827 019f 5E       		.byte	0x5e
 1828 01a0 49000000 		.4byte	0x49
 1829 01a4 02       		.uleb128 0x2
 1830 01a5 970B0000 		.4byte	.LASF36
 1831 01a9 04       		.byte	0x4
 1832 01aa 60       		.byte	0x60
 1833 01ab 74000000 		.4byte	0x74
 1834 01af 0A       		.uleb128 0xa
 1835 01b0 96010000 		.4byte	.LASF332
 1836 01b4 02       		.byte	0x2
 1837 01b5 66000000 		.4byte	0x66
 1838 01b9 05       		.byte	0x5
 1839 01ba E201     		.2byte	0x1e2
 1840 01bc 51060000 		.4byte	0x651
 1841 01c0 0B       		.uleb128 0xb
 1842 01c1 FC120000 		.4byte	.LASF37
 1843 01c5 00       		.byte	0
 1844 01c6 0C       		.uleb128 0xc
 1845 01c7 5B000000 		.4byte	.LASF38
 1846 01cb 1027     		.2byte	0x2710
 1847 01cd 0C       		.uleb128 0xc
 1848 01ce 21040000 		.4byte	.LASF39
 1849 01d2 1127     		.2byte	0x2711
 1850 01d4 0C       		.uleb128 0xc
 1851 01d5 64000000 		.4byte	.LASF40
 1852 01d9 F82A     		.2byte	0x2af8
 1853 01db 0C       		.uleb128 0xc
 1854 01dc 6D000000 		.4byte	.LASF41
 1855 01e0 E02E     		.2byte	0x2ee0
 1856 01e2 0C       		.uleb128 0xc
 1857 01e3 CC010000 		.4byte	.LASF42
 1858 01e7 E12E     		.2byte	0x2ee1
 1859 01e9 0C       		.uleb128 0xc
 1860 01ea 76000000 		.4byte	.LASF43
 1861 01ee C832     		.2byte	0x32c8
 1862 01f0 0C       		.uleb128 0xc
 1863 01f1 38090000 		.4byte	.LASF44
 1864 01f5 C932     		.2byte	0x32c9
 1865 01f7 0C       		.uleb128 0xc
 1866 01f8 7F000000 		.4byte	.LASF45
 1867 01fc B036     		.2byte	0x36b0
 1868 01fe 0C       		.uleb128 0xc
 1869 01ff 88000000 		.4byte	.LASF46
 1870 0203 983A     		.2byte	0x3a98
 1871 0205 0C       		.uleb128 0xc
 1872 0206 A2120000 		.4byte	.LASF47
 1873 020a 993A     		.2byte	0x3a99
 1874 020c 0C       		.uleb128 0xc
 1875 020d 90080000 		.4byte	.LASF48
 1876 0211 FD3A     		.2byte	0x3afd
 1877 0213 0C       		.uleb128 0xc
 1878 0214 59100000 		.4byte	.LASF49
 1879 0218 FE3A     		.2byte	0x3afe
 1880 021a 0C       		.uleb128 0xc
 1881 021b A60A0000 		.4byte	.LASF50
ARM GAS  C:\Users\ADMINI~1\AppData\Local\Temp\cc0ImMof.s 			page 59


 1882 021f FF3A     		.2byte	0x3aff
 1883 0221 0C       		.uleb128 0xc
 1884 0222 29130000 		.4byte	.LASF51
 1885 0226 003B     		.2byte	0x3b00
 1886 0228 0C       		.uleb128 0xc
 1887 0229 0E110000 		.4byte	.LASF52
 1888 022d 803E     		.2byte	0x3e80
 1889 022f 0C       		.uleb128 0xc
 1890 0230 E3000000 		.4byte	.LASF53
 1891 0234 6842     		.2byte	0x4268
 1892 0236 0C       		.uleb128 0xc
 1893 0237 EC000000 		.4byte	.LASF54
 1894 023b 5046     		.2byte	0x4650
 1895 023d 0C       		.uleb128 0xc
 1896 023e FB040000 		.4byte	.LASF55
 1897 0242 5146     		.2byte	0x4651
 1898 0244 0C       		.uleb128 0xc
 1899 0245 E4030000 		.4byte	.LASF56
 1900 0249 5246     		.2byte	0x4652
 1901 024b 0C       		.uleb128 0xc
 1902 024c D3040000 		.4byte	.LASF57
 1903 0250 5346     		.2byte	0x4653
 1904 0252 0C       		.uleb128 0xc
 1905 0253 BA010000 		.4byte	.LASF58
 1906 0257 5446     		.2byte	0x4654
 1907 0259 0C       		.uleb128 0xc
 1908 025a 17120000 		.4byte	.LASF59
 1909 025e 5546     		.2byte	0x4655
 1910 0260 0C       		.uleb128 0xc
 1911 0261 060D0000 		.4byte	.LASF60
 1912 0265 5646     		.2byte	0x4656
 1913 0267 0C       		.uleb128 0xc
 1914 0268 BC020000 		.4byte	.LASF61
 1915 026c 5746     		.2byte	0x4657
 1916 026e 0C       		.uleb128 0xc
 1917 026f F5000000 		.4byte	.LASF62
 1918 0273 384A     		.2byte	0x4a38
 1919 0275 0C       		.uleb128 0xc
 1920 0276 FE000000 		.4byte	.LASF63
 1921 027a 204E     		.2byte	0x4e20
 1922 027c 0C       		.uleb128 0xc
 1923 027d 07010000 		.4byte	.LASF64
 1924 0281 0852     		.2byte	0x5208
 1925 0283 0C       		.uleb128 0xc
 1926 0284 490E0000 		.4byte	.LASF65
 1927 0288 0952     		.2byte	0x5209
 1928 028a 0C       		.uleb128 0xc
 1929 028b 10010000 		.4byte	.LASF66
 1930 028f F055     		.2byte	0x55f0
 1931 0291 0C       		.uleb128 0xc
 1932 0292 9C110000 		.4byte	.LASF67
 1933 0296 B956     		.2byte	0x56b9
 1934 0298 0C       		.uleb128 0xc
 1935 0299 9F0B0000 		.4byte	.LASF68
 1936 029d BA56     		.2byte	0x56ba
 1937 029f 0C       		.uleb128 0xc
 1938 02a0 290E0000 		.4byte	.LASF69
ARM GAS  C:\Users\ADMINI~1\AppData\Local\Temp\cc0ImMof.s 			page 60


 1939 02a4 BB56     		.2byte	0x56bb
 1940 02a6 0C       		.uleb128 0xc
 1941 02a7 B8080000 		.4byte	.LASF70
 1942 02ab BC56     		.2byte	0x56bc
 1943 02ad 0C       		.uleb128 0xc
 1944 02ae 550B0000 		.4byte	.LASF71
 1945 02b2 BD56     		.2byte	0x56bd
 1946 02b4 0C       		.uleb128 0xc
 1947 02b5 100E0000 		.4byte	.LASF72
 1948 02b9 BE56     		.2byte	0x56be
 1949 02bb 0C       		.uleb128 0xc
 1950 02bc C70B0000 		.4byte	.LASF73
 1951 02c0 BF56     		.2byte	0x56bf
 1952 02c2 0C       		.uleb128 0xc
 1953 02c3 B4050000 		.4byte	.LASF74
 1954 02c7 C056     		.2byte	0x56c0
 1955 02c9 0C       		.uleb128 0xc
 1956 02ca BB130000 		.4byte	.LASF75
 1957 02ce C156     		.2byte	0x56c1
 1958 02d0 0C       		.uleb128 0xc
 1959 02d1 92140000 		.4byte	.LASF76
 1960 02d5 C256     		.2byte	0x56c2
 1961 02d7 0C       		.uleb128 0xc
 1962 02d8 9B0E0000 		.4byte	.LASF77
 1963 02dc 1D57     		.2byte	0x571d
 1964 02de 0C       		.uleb128 0xc
 1965 02df 2B0F0000 		.4byte	.LASF78
 1966 02e3 1E57     		.2byte	0x571e
 1967 02e5 0C       		.uleb128 0xc
 1968 02e6 8F070000 		.4byte	.LASF79
 1969 02ea 8157     		.2byte	0x5781
 1970 02ec 0C       		.uleb128 0xc
 1971 02ed 29100000 		.4byte	.LASF80
 1972 02f1 8257     		.2byte	0x5782
 1973 02f3 0C       		.uleb128 0xc
 1974 02f4 50040000 		.4byte	.LASF81
 1975 02f8 8357     		.2byte	0x5783
 1976 02fa 0C       		.uleb128 0xc
 1977 02fb A9030000 		.4byte	.LASF82
 1978 02ff 8457     		.2byte	0x5784
 1979 0301 0C       		.uleb128 0xc
 1980 0302 19010000 		.4byte	.LASF83
 1981 0306 D859     		.2byte	0x59d8
 1982 0308 0C       		.uleb128 0xc
 1983 0309 52070000 		.4byte	.LASF84
 1984 030d D959     		.2byte	0x59d9
 1985 030f 0C       		.uleb128 0xc
 1986 0310 9C050000 		.4byte	.LASF85
 1987 0314 DA59     		.2byte	0x59da
 1988 0316 0C       		.uleb128 0xc
 1989 0317 22010000 		.4byte	.LASF86
 1990 031b C05D     		.2byte	0x5dc0
 1991 031d 0C       		.uleb128 0xc
 1992 031e 97040000 		.4byte	.LASF87
 1993 0322 C15D     		.2byte	0x5dc1
 1994 0324 0C       		.uleb128 0xc
 1995 0325 770A0000 		.4byte	.LASF88
ARM GAS  C:\Users\ADMINI~1\AppData\Local\Temp\cc0ImMof.s 			page 61


 1996 0329 C25D     		.2byte	0x5dc2
 1997 032b 0C       		.uleb128 0xc
 1998 032c 6D0B0000 		.4byte	.LASF89
 1999 0330 C35D     		.2byte	0x5dc3
 2000 0332 0C       		.uleb128 0xc
 2001 0333 A20F0000 		.4byte	.LASF90
 2002 0337 C45D     		.2byte	0x5dc4
 2003 0339 0C       		.uleb128 0xc
 2004 033a 91090000 		.4byte	.LASF91
 2005 033e 255E     		.2byte	0x5e25
 2006 0340 0C       		.uleb128 0xc
 2007 0341 9F0D0000 		.4byte	.LASF92
 2008 0345 895E     		.2byte	0x5e89
 2009 0347 0C       		.uleb128 0xc
 2010 0348 19080000 		.4byte	.LASF93
 2011 034c 8A5E     		.2byte	0x5e8a
 2012 034e 0C       		.uleb128 0xc
 2013 034f E9080000 		.4byte	.LASF94
 2014 0353 8B5E     		.2byte	0x5e8b
 2015 0355 0C       		.uleb128 0xc
 2016 0356 D8090000 		.4byte	.LASF95
 2017 035a 8C5E     		.2byte	0x5e8c
 2018 035c 0C       		.uleb128 0xc
 2019 035d 2B010000 		.4byte	.LASF96
 2020 0361 A861     		.2byte	0x61a8
 2021 0363 0C       		.uleb128 0xc
 2022 0364 46130000 		.4byte	.LASF97
 2023 0368 A961     		.2byte	0x61a9
 2024 036a 0C       		.uleb128 0xc
 2025 036b 7D100000 		.4byte	.LASF98
 2026 036f AA61     		.2byte	0x61aa
 2027 0371 0C       		.uleb128 0xc
 2028 0372 FD0F0000 		.4byte	.LASF99
 2029 0376 AB61     		.2byte	0x61ab
 2030 0378 0C       		.uleb128 0xc
 2031 0379 0F0B0000 		.4byte	.LASF100
 2032 037d AC61     		.2byte	0x61ac
 2033 037f 0C       		.uleb128 0xc
 2034 0380 85130000 		.4byte	.LASF101
 2035 0384 AD61     		.2byte	0x61ad
 2036 0386 0C       		.uleb128 0xc
 2037 0387 D1110000 		.4byte	.LASF102
 2038 038b AE61     		.2byte	0x61ae
 2039 038d 0C       		.uleb128 0xc
 2040 038e EE020000 		.4byte	.LASF103
 2041 0392 AF61     		.2byte	0x61af
 2042 0394 0C       		.uleb128 0xc
 2043 0395 78020000 		.4byte	.LASF104
 2044 0399 B061     		.2byte	0x61b0
 2045 039b 0C       		.uleb128 0xc
 2046 039c 87050000 		.4byte	.LASF105
 2047 03a0 0D62     		.2byte	0x620d
 2048 03a2 0C       		.uleb128 0xc
 2049 03a3 9C100000 		.4byte	.LASF106
 2050 03a7 0E62     		.2byte	0x620e
 2051 03a9 0C       		.uleb128 0xc
 2052 03aa 77140000 		.4byte	.LASF107
ARM GAS  C:\Users\ADMINI~1\AppData\Local\Temp\cc0ImMof.s 			page 62


 2053 03ae 7162     		.2byte	0x6271
 2054 03b0 0C       		.uleb128 0xc
 2055 03b1 79130000 		.4byte	.LASF108
 2056 03b5 7262     		.2byte	0x6272
 2057 03b7 0C       		.uleb128 0xc
 2058 03b8 07000000 		.4byte	.LASF109
 2059 03bc 7362     		.2byte	0x6273
 2060 03be 0C       		.uleb128 0xc
 2061 03bf 6F0D0000 		.4byte	.LASF110
 2062 03c3 D562     		.2byte	0x62d5
 2063 03c5 0C       		.uleb128 0xc
 2064 03c6 34010000 		.4byte	.LASF111
 2065 03ca 9065     		.2byte	0x6590
 2066 03cc 0C       		.uleb128 0xc
 2067 03cd 09120000 		.4byte	.LASF112
 2068 03d1 9165     		.2byte	0x6591
 2069 03d3 0C       		.uleb128 0xc
 2070 03d4 06070000 		.4byte	.LASF113
 2071 03d8 9265     		.2byte	0x6592
 2072 03da 0C       		.uleb128 0xc
 2073 03db 4D090000 		.4byte	.LASF114
 2074 03df 9365     		.2byte	0x6593
 2075 03e1 0C       		.uleb128 0xc
 2076 03e2 E40A0000 		.4byte	.LASF115
 2077 03e6 9465     		.2byte	0x6594
 2078 03e8 0C       		.uleb128 0xc
 2079 03e9 3D010000 		.4byte	.LASF116
 2080 03ed 7869     		.2byte	0x6978
 2081 03ef 0C       		.uleb128 0xc
 2082 03f0 810B0000 		.4byte	.LASF117
 2083 03f4 7969     		.2byte	0x6979
 2084 03f6 0C       		.uleb128 0xc
 2085 03f7 FB0D0000 		.4byte	.LASF118
 2086 03fb 7A69     		.2byte	0x697a
 2087 03fd 0C       		.uleb128 0xc
 2088 03fe 310B0000 		.4byte	.LASF119
 2089 0402 7B69     		.2byte	0x697b
 2090 0404 0C       		.uleb128 0xc
 2091 0405 46010000 		.4byte	.LASF120
 2092 0409 606D     		.2byte	0x6d60
 2093 040b 0C       		.uleb128 0xc
 2094 040c B8090000 		.4byte	.LASF121
 2095 0410 616D     		.2byte	0x6d61
 2096 0412 0C       		.uleb128 0xc
 2097 0413 22090000 		.4byte	.LASF122
 2098 0417 626D     		.2byte	0x6d62
 2099 0419 0C       		.uleb128 0xc
 2100 041a 15130000 		.4byte	.LASF123
 2101 041e 636D     		.2byte	0x6d63
 2102 0420 0C       		.uleb128 0xc
 2103 0421 61130000 		.4byte	.LASF124
 2104 0425 646D     		.2byte	0x6d64
 2105 0427 0C       		.uleb128 0xc
 2106 0428 BF0E0000 		.4byte	.LASF125
 2107 042c 656D     		.2byte	0x6d65
 2108 042e 0C       		.uleb128 0xc
 2109 042f 0B140000 		.4byte	.LASF126
ARM GAS  C:\Users\ADMINI~1\AppData\Local\Temp\cc0ImMof.s 			page 63


 2110 0433 C56D     		.2byte	0x6dc5
 2111 0435 0C       		.uleb128 0xc
 2112 0436 F5130000 		.4byte	.LASF127
 2113 043a C66D     		.2byte	0x6dc6
 2114 043c 0C       		.uleb128 0xc
 2115 043d D8020000 		.4byte	.LASF128
 2116 0441 296E     		.2byte	0x6e29
 2117 0443 0C       		.uleb128 0xc
 2118 0444 0D0A0000 		.4byte	.LASF129
 2119 0448 2A6E     		.2byte	0x6e2a
 2120 044a 0C       		.uleb128 0xc
 2121 044b 78080000 		.4byte	.LASF130
 2122 044f 2B6E     		.2byte	0x6e2b
 2123 0451 0C       		.uleb128 0xc
 2124 0452 3C100000 		.4byte	.LASF131
 2125 0456 2C6E     		.2byte	0x6e2c
 2126 0458 0C       		.uleb128 0xc
 2127 0459 820D0000 		.4byte	.LASF132
 2128 045d 2D6E     		.2byte	0x6e2d
 2129 045f 0C       		.uleb128 0xc
 2130 0460 B2110000 		.4byte	.LASF133
 2131 0464 2E6E     		.2byte	0x6e2e
 2132 0466 0C       		.uleb128 0xc
 2133 0467 45020000 		.4byte	.LASF134
 2134 046b 2F6E     		.2byte	0x6e2f
 2135 046d 0C       		.uleb128 0xc
 2136 046e F6100000 		.4byte	.LASF135
 2137 0472 306E     		.2byte	0x6e30
 2138 0474 0C       		.uleb128 0xc
 2139 0475 C0100000 		.4byte	.LASF136
 2140 0479 316E     		.2byte	0x6e31
 2141 047b 0C       		.uleb128 0xc
 2142 047c 4F010000 		.4byte	.LASF137
 2143 0480 4871     		.2byte	0x7148
 2144 0482 0C       		.uleb128 0xc
 2145 0483 90020000 		.4byte	.LASF138
 2146 0487 4971     		.2byte	0x7149
 2147 0489 0C       		.uleb128 0xc
 2148 048a EA070000 		.4byte	.LASF139
 2149 048e 4A71     		.2byte	0x714a
 2150 0490 0C       		.uleb128 0xc
 2151 0491 62120000 		.4byte	.LASF140
 2152 0495 4B71     		.2byte	0x714b
 2153 0497 0C       		.uleb128 0xc
 2154 0498 1A140000 		.4byte	.LASF141
 2155 049c 4C71     		.2byte	0x714c
 2156 049e 0C       		.uleb128 0xc
 2157 049f 94060000 		.4byte	.LASF142
 2158 04a3 4D71     		.2byte	0x714d
 2159 04a5 0C       		.uleb128 0xc
 2160 04a6 4F0D0000 		.4byte	.LASF143
 2161 04aa 4E71     		.2byte	0x714e
 2162 04ac 0C       		.uleb128 0xc
 2163 04ad B20C0000 		.4byte	.LASF144
 2164 04b1 4F71     		.2byte	0x714f
 2165 04b3 0C       		.uleb128 0xc
 2166 04b4 AF0B0000 		.4byte	.LASF145
ARM GAS  C:\Users\ADMINI~1\AppData\Local\Temp\cc0ImMof.s 			page 64


 2167 04b8 5071     		.2byte	0x7150
 2168 04ba 0C       		.uleb128 0xc
 2169 04bb C5030000 		.4byte	.LASF146
 2170 04bf 5171     		.2byte	0x7151
 2171 04c1 0C       		.uleb128 0xc
 2172 04c2 8B0C0000 		.4byte	.LASF147
 2173 04c6 5271     		.2byte	0x7152
 2174 04c8 0C       		.uleb128 0xc
 2175 04c9 8F030000 		.4byte	.LASF148
 2176 04cd 5371     		.2byte	0x7153
 2177 04cf 0C       		.uleb128 0xc
 2178 04d0 43110000 		.4byte	.LASF149
 2179 04d4 5471     		.2byte	0x7154
 2180 04d6 0C       		.uleb128 0xc
 2181 04d7 61020000 		.4byte	.LASF150
 2182 04db 5571     		.2byte	0x7155
 2183 04dd 0C       		.uleb128 0xc
 2184 04de 5B050000 		.4byte	.LASF151
 2185 04e2 5671     		.2byte	0x7156
 2186 04e4 0C       		.uleb128 0xc
 2187 04e5 750F0000 		.4byte	.LASF152
 2188 04e9 5771     		.2byte	0x7157
 2189 04eb 0C       		.uleb128 0xc
 2190 04ec 38060000 		.4byte	.LASF153
 2191 04f0 5871     		.2byte	0x7158
 2192 04f2 0C       		.uleb128 0xc
 2193 04f3 610E0000 		.4byte	.LASF154
 2194 04f7 5971     		.2byte	0x7159
 2195 04f9 0C       		.uleb128 0xc
 2196 04fa D3130000 		.4byte	.LASF155
 2197 04fe 5A71     		.2byte	0x715a
 2198 0500 0C       		.uleb128 0xc
 2199 0501 BA040000 		.4byte	.LASF156
 2200 0505 5B71     		.2byte	0x715b
 2201 0507 0C       		.uleb128 0xc
 2202 0508 74060000 		.4byte	.LASF157
 2203 050c 5C71     		.2byte	0x715c
 2204 050e 0C       		.uleb128 0xc
 2205 050f 33040000 		.4byte	.LASF158
 2206 0513 5D71     		.2byte	0x715d
 2207 0515 0C       		.uleb128 0xc
 2208 0516 E30C0000 		.4byte	.LASF159
 2209 051a 5E71     		.2byte	0x715e
 2210 051c 0C       		.uleb128 0xc
 2211 051d 0D040000 		.4byte	.LASF160
 2212 0521 5F71     		.2byte	0x715f
 2213 0523 0C       		.uleb128 0xc
 2214 0524 C80A0000 		.4byte	.LASF161
 2215 0528 6071     		.2byte	0x7160
 2216 052a 0C       		.uleb128 0xc
 2217 052b E0060000 		.4byte	.LASF162
 2218 052f AD71     		.2byte	0x71ad
 2219 0531 0C       		.uleb128 0xc
 2220 0532 0B060000 		.4byte	.LASF163
 2221 0536 C071     		.2byte	0x71c0
 2222 0538 0C       		.uleb128 0xc
 2223 0539 240D0000 		.4byte	.LASF164
ARM GAS  C:\Users\ADMINI~1\AppData\Local\Temp\cc0ImMof.s 			page 65


 2224 053d C171     		.2byte	0x71c1
 2225 053f 0C       		.uleb128 0xc
 2226 0540 E3120000 		.4byte	.LASF165
 2227 0544 C271     		.2byte	0x71c2
 2228 0546 0C       		.uleb128 0xc
 2229 0547 7F090000 		.4byte	.LASF166
 2230 054b C371     		.2byte	0x71c3
 2231 054d 0C       		.uleb128 0xc
 2232 054e 72070000 		.4byte	.LASF167
 2233 0552 C471     		.2byte	0x71c4
 2234 0554 0C       		.uleb128 0xc
 2235 0555 5E140000 		.4byte	.LASF168
 2236 0559 1172     		.2byte	0x7211
 2237 055b 0C       		.uleb128 0xc
 2238 055c 130F0000 		.4byte	.LASF169
 2239 0560 1272     		.2byte	0x7212
 2240 0562 0C       		.uleb128 0xc
 2241 0563 FB010000 		.4byte	.LASF170
 2242 0567 1372     		.2byte	0x7213
 2243 0569 0C       		.uleb128 0xc
 2244 056a 330C0000 		.4byte	.LASF171
 2245 056e 1472     		.2byte	0x7214
 2246 0570 0C       		.uleb128 0xc
 2247 0571 AC100000 		.4byte	.LASF172
 2248 0575 7572     		.2byte	0x7275
 2249 0577 0C       		.uleb128 0xc
 2250 0578 43140000 		.4byte	.LASF173
 2251 057c 7672     		.2byte	0x7276
 2252 057e 0C       		.uleb128 0xc
 2253 057f 2F140000 		.4byte	.LASF174
 2254 0583 7772     		.2byte	0x7277
 2255 0585 0C       		.uleb128 0xc
 2256 0586 B2070000 		.4byte	.LASF175
 2257 058a 7872     		.2byte	0x7278
 2258 058c 0C       		.uleb128 0xc
 2259 058d 3F000000 		.4byte	.LASF176
 2260 0591 7972     		.2byte	0x7279
 2261 0593 0C       		.uleb128 0xc
 2262 0594 30120000 		.4byte	.LASF177
 2263 0598 7A72     		.2byte	0x727a
 2264 059a 0C       		.uleb128 0xc
 2265 059b 15070000 		.4byte	.LASF178
 2266 059f 7B72     		.2byte	0x727b
 2267 05a1 0C       		.uleb128 0xc
 2268 05a2 310A0000 		.4byte	.LASF179
 2269 05a6 7C72     		.2byte	0x727c
 2270 05a8 0C       		.uleb128 0xc
 2271 05a9 E70D0000 		.4byte	.LASF180
 2272 05ad 7D72     		.2byte	0x727d
 2273 05af 0C       		.uleb128 0xc
 2274 05b0 4E080000 		.4byte	.LASF181
 2275 05b4 7E72     		.2byte	0x727e
 2276 05b6 0C       		.uleb128 0xc
 2277 05b7 69110000 		.4byte	.LASF182
 2278 05bb D972     		.2byte	0x72d9
 2279 05bd 0C       		.uleb128 0xc
 2280 05be EC050000 		.4byte	.LASF183
ARM GAS  C:\Users\ADMINI~1\AppData\Local\Temp\cc0ImMof.s 			page 66


 2281 05c2 3D73     		.2byte	0x733d
 2282 05c4 0C       		.uleb128 0xc
 2283 05c5 0A090000 		.4byte	.LASF184
 2284 05c9 3E73     		.2byte	0x733e
 2285 05cb 0C       		.uleb128 0xc
 2286 05cc 24050000 		.4byte	.LASF185
 2287 05d0 3F73     		.2byte	0x733f
 2288 05d2 0C       		.uleb128 0xc
 2289 05d3 7C010000 		.4byte	.LASF186
 2290 05d7 4073     		.2byte	0x7340
 2291 05d9 0C       		.uleb128 0xc
 2292 05da 71040000 		.4byte	.LASF187
 2293 05de 4173     		.2byte	0x7341
 2294 05e0 0C       		.uleb128 0xc
 2295 05e1 54060000 		.4byte	.LASF188
 2296 05e5 4273     		.2byte	0x7342
 2297 05e7 0C       		.uleb128 0xc
 2298 05e8 30000000 		.4byte	.LASF189
 2299 05ec 4373     		.2byte	0x7343
 2300 05ee 0C       		.uleb128 0xc
 2301 05ef D5050000 		.4byte	.LASF190
 2302 05f3 4473     		.2byte	0x7344
 2303 05f5 0C       		.uleb128 0xc
 2304 05f6 CC070000 		.4byte	.LASF191
 2305 05fa 4573     		.2byte	0x7345
 2306 05fc 0C       		.uleb128 0xc
 2307 05fd C60C0000 		.4byte	.LASF192
 2308 0601 4673     		.2byte	0x7346
 2309 0603 0C       		.uleb128 0xc
 2310 0604 B7060000 		.4byte	.LASF193
 2311 0608 4773     		.2byte	0x7347
 2312 060a 0C       		.uleb128 0xc
 2313 060b 170C0000 		.4byte	.LASF194
 2314 060f 4873     		.2byte	0x7348
 2315 0611 0C       		.uleb128 0xc
 2316 0612 17110000 		.4byte	.LASF195
 2317 0616 4973     		.2byte	0x7349
 2318 0618 0C       		.uleb128 0xc
 2319 0619 330D0000 		.4byte	.LASF196
 2320 061d 4A73     		.2byte	0x734a
 2321 061f 0C       		.uleb128 0xc
 2322 0620 58010000 		.4byte	.LASF197
 2323 0624 3075     		.2byte	0x7530
 2324 0626 0C       		.uleb128 0xc
 2325 0627 61010000 		.4byte	.LASF198
 2326 062b 1879     		.2byte	0x7918
 2327 062d 0C       		.uleb128 0xc
 2328 062e 6A010000 		.4byte	.LASF199
 2329 0632 007D     		.2byte	0x7d00
 2330 0634 0C       		.uleb128 0xc
 2331 0635 73010000 		.4byte	.LASF200
 2332 0639 E880     		.2byte	0x80e8
 2333 063b 0C       		.uleb128 0xc
 2334 063c C8110000 		.4byte	.LASF201
 2335 0640 D084     		.2byte	0x84d0
 2336 0642 0C       		.uleb128 0xc
 2337 0643 660A0000 		.4byte	.LASF202
ARM GAS  C:\Users\ADMINI~1\AppData\Local\Temp\cc0ImMof.s 			page 67


 2338 0647 D184     		.2byte	0x84d1
 2339 0649 0C       		.uleb128 0xc
 2340 064a E1110000 		.4byte	.LASF203
 2341 064e B888     		.2byte	0x88b8
 2342 0650 00       		.byte	0
 2343 0651 09       		.uleb128 0x9
 2344 0652 1B000000 		.4byte	.LASF204
 2345 0656 05       		.byte	0x5
 2346 0657 B502     		.2byte	0x2b5
 2347 0659 AF010000 		.4byte	0x1af
 2348 065d 09       		.uleb128 0x9
 2349 065e E9130000 		.4byte	.LASF205
 2350 0662 05       		.byte	0x5
 2351 0663 C002     		.2byte	0x2c0
 2352 0665 69060000 		.4byte	0x669
 2353 0669 0D       		.uleb128 0xd
 2354 066a AE010000 		.4byte	.LASF214
 2355 066e 28       		.byte	0x28
 2356 066f 05       		.byte	0x5
 2357 0670 6703     		.2byte	0x367
 2358 0672 DE060000 		.4byte	0x6de
 2359 0676 0E       		.uleb128 0xe
 2360 0677 610A0000 		.4byte	.LASF206
 2361 067b 05       		.byte	0x5
 2362 067c 6A03     		.2byte	0x36a
 2363 067e 57010000 		.4byte	0x157
 2364 0682 00       		.byte	0
 2365 0683 0E       		.uleb128 0xe
 2366 0684 450A0000 		.4byte	.LASF207
 2367 0688 05       		.byte	0x5
 2368 0689 6D03     		.2byte	0x36d
 2369 068b 5C0C0000 		.4byte	0xc5c
 2370 068f 04       		.byte	0x4
 2371 0690 0E       		.uleb128 0xe
 2372 0691 990F0000 		.4byte	.LASF208
 2373 0695 05       		.byte	0x5
 2374 0696 6F03     		.2byte	0x36f
 2375 0698 A10B0000 		.4byte	0xba1
 2376 069c 08       		.byte	0x8
 2377 069d 0E       		.uleb128 0xe
 2378 069e D9030000 		.4byte	.LASF209
 2379 06a2 05       		.byte	0x5
 2380 06a3 7103     		.2byte	0x371
 2381 06a5 620C0000 		.4byte	0xc62
 2382 06a9 14       		.byte	0x14
 2383 06aa 0E       		.uleb128 0xe
 2384 06ab F1030000 		.4byte	.LASF210
 2385 06af 05       		.byte	0x5
 2386 06b0 7203     		.2byte	0x372
 2387 06b2 620C0000 		.4byte	0xc62
 2388 06b6 18       		.byte	0x18
 2389 06b7 0E       		.uleb128 0xe
 2390 06b8 EA110000 		.4byte	.LASF211
 2391 06bc 05       		.byte	0x5
 2392 06bd 7303     		.2byte	0x373
 2393 06bf 5C0C0000 		.4byte	0xc5c
 2394 06c3 1C       		.byte	0x1c
ARM GAS  C:\Users\ADMINI~1\AppData\Local\Temp\cc0ImMof.s 			page 68


 2395 06c4 0E       		.uleb128 0xe
 2396 06c5 73050000 		.4byte	.LASF212
 2397 06c9 05       		.byte	0x5
 2398 06ca 7603     		.2byte	0x376
 2399 06cc 20010000 		.4byte	0x120
 2400 06d0 20       		.byte	0x20
 2401 06d1 0F       		.uleb128 0xf
 2402 06d2 545300   		.ascii	"TS\000"
 2403 06d5 05       		.byte	0x5
 2404 06d6 7803     		.2byte	0x378
 2405 06d8 F4000000 		.4byte	0xf4
 2406 06dc 24       		.byte	0x24
 2407 06dd 00       		.byte	0
 2408 06de 09       		.uleb128 0x9
 2409 06df FC080000 		.4byte	.LASF213
 2410 06e3 05       		.byte	0x5
 2411 06e4 C402     		.2byte	0x2c4
 2412 06e6 EA060000 		.4byte	0x6ea
 2413 06ea 0D       		.uleb128 0xd
 2414 06eb D9060000 		.4byte	.LASF215
 2415 06ef 10       		.byte	0x10
 2416 06f0 05       		.byte	0x5
 2417 06f1 A303     		.2byte	0x3a3
 2418 06f3 2C070000 		.4byte	0x72c
 2419 06f7 0E       		.uleb128 0xe
 2420 06f8 970D0000 		.4byte	.LASF216
 2421 06fc 05       		.byte	0x5
 2422 06fd A403     		.2byte	0x3a4
 2423 06ff 680C0000 		.4byte	0xc68
 2424 0703 00       		.byte	0
 2425 0704 0E       		.uleb128 0xe
 2426 0705 DC120000 		.4byte	.LASF217
 2427 0709 05       		.byte	0x5
 2428 070a A503     		.2byte	0x3a5
 2429 070c BA000000 		.4byte	0xba
 2430 0710 04       		.byte	0x4
 2431 0711 0E       		.uleb128 0xe
 2432 0712 21100000 		.4byte	.LASF218
 2433 0716 05       		.byte	0x5
 2434 0717 A603     		.2byte	0x3a6
 2435 0719 36010000 		.4byte	0x136
 2436 071d 08       		.byte	0x8
 2437 071e 0E       		.uleb128 0xe
 2438 071f 9C120000 		.4byte	.LASF219
 2439 0723 05       		.byte	0x5
 2440 0724 A803     		.2byte	0x3a8
 2441 0726 F4000000 		.4byte	0xf4
 2442 072a 0C       		.byte	0xc
 2443 072b 00       		.byte	0
 2444 072c 09       		.uleb128 0x9
 2445 072d 580A0000 		.4byte	.LASF220
 2446 0731 05       		.byte	0x5
 2447 0732 C602     		.2byte	0x2c6
 2448 0734 38070000 		.4byte	0x738
 2449 0738 0D       		.uleb128 0xd
 2450 0739 89140000 		.4byte	.LASF221
 2451 073d 10       		.byte	0x10
ARM GAS  C:\Users\ADMINI~1\AppData\Local\Temp\cc0ImMof.s 			page 69


 2452 073e 05       		.byte	0x5
 2453 073f BA03     		.2byte	0x3ba
 2454 0741 87070000 		.4byte	0x787
 2455 0745 0E       		.uleb128 0xe
 2456 0746 DA0F0000 		.4byte	.LASF222
 2457 074a 05       		.byte	0x5
 2458 074b BB03     		.2byte	0x3bb
 2459 074d 680C0000 		.4byte	0xc68
 2460 0751 00       		.byte	0
 2461 0752 0E       		.uleb128 0xe
 2462 0753 F5110000 		.4byte	.LASF223
 2463 0757 05       		.byte	0x5
 2464 0758 BC03     		.2byte	0x3bc
 2465 075a 680C0000 		.4byte	0xc68
 2466 075e 04       		.byte	0x4
 2467 075f 0E       		.uleb128 0xe
 2468 0760 3F080000 		.4byte	.LASF224
 2469 0764 05       		.byte	0x5
 2470 0765 BD03     		.2byte	0x3bd
 2471 0767 2B010000 		.4byte	0x12b
 2472 076b 08       		.byte	0x8
 2473 076c 0E       		.uleb128 0xe
 2474 076d A3010000 		.4byte	.LASF225
 2475 0771 05       		.byte	0x5
 2476 0772 BE03     		.2byte	0x3be
 2477 0774 2B010000 		.4byte	0x12b
 2478 0778 0A       		.byte	0xa
 2479 0779 0E       		.uleb128 0xe
 2480 077a A0130000 		.4byte	.LASF226
 2481 077e 05       		.byte	0x5
 2482 077f C003     		.2byte	0x3c0
 2483 0781 2B010000 		.4byte	0x12b
 2484 0785 0C       		.byte	0xc
 2485 0786 00       		.byte	0
 2486 0787 09       		.uleb128 0x9
 2487 0788 3C020000 		.4byte	.LASF227
 2488 078c 05       		.byte	0x5
 2489 078d C802     		.2byte	0x2c8
 2490 078f 93070000 		.4byte	0x793
 2491 0793 0D       		.uleb128 0xd
 2492 0794 C20D0000 		.4byte	.LASF228
 2493 0798 30       		.byte	0x30
 2494 0799 05       		.byte	0x5
 2495 079a D003     		.2byte	0x3d0
 2496 079c 22080000 		.4byte	0x822
 2497 07a0 0E       		.uleb128 0xe
 2498 07a1 610A0000 		.4byte	.LASF206
 2499 07a5 05       		.byte	0x5
 2500 07a6 D303     		.2byte	0x3d3
 2501 07a8 57010000 		.4byte	0x157
 2502 07ac 00       		.byte	0
 2503 07ad 0E       		.uleb128 0xe
 2504 07ae 450A0000 		.4byte	.LASF207
 2505 07b2 05       		.byte	0x5
 2506 07b3 D603     		.2byte	0x3d6
 2507 07b5 5C0C0000 		.4byte	0xc5c
 2508 07b9 04       		.byte	0x4
ARM GAS  C:\Users\ADMINI~1\AppData\Local\Temp\cc0ImMof.s 			page 70


 2509 07ba 0E       		.uleb128 0xe
 2510 07bb 990F0000 		.4byte	.LASF208
 2511 07bf 05       		.byte	0x5
 2512 07c0 D803     		.2byte	0x3d8
 2513 07c2 A10B0000 		.4byte	0xba1
 2514 07c6 08       		.byte	0x8
 2515 07c7 0E       		.uleb128 0xe
 2516 07c8 D9030000 		.4byte	.LASF209
 2517 07cc 05       		.byte	0x5
 2518 07cd DA03     		.2byte	0x3da
 2519 07cf 6E0C0000 		.4byte	0xc6e
 2520 07d3 14       		.byte	0x14
 2521 07d4 0E       		.uleb128 0xe
 2522 07d5 F1030000 		.4byte	.LASF210
 2523 07d9 05       		.byte	0x5
 2524 07da DB03     		.2byte	0x3db
 2525 07dc 6E0C0000 		.4byte	0xc6e
 2526 07e0 18       		.byte	0x18
 2527 07e1 0E       		.uleb128 0xe
 2528 07e2 EA110000 		.4byte	.LASF211
 2529 07e6 05       		.byte	0x5
 2530 07e7 DC03     		.2byte	0x3dc
 2531 07e9 5C0C0000 		.4byte	0xc5c
 2532 07ed 1C       		.byte	0x1c
 2533 07ee 0E       		.uleb128 0xe
 2534 07ef F60E0000 		.4byte	.LASF229
 2535 07f3 05       		.byte	0x5
 2536 07f4 DF03     		.2byte	0x3df
 2537 07f6 6E0C0000 		.4byte	0xc6e
 2538 07fa 20       		.byte	0x20
 2539 07fb 0E       		.uleb128 0xe
 2540 07fc 46050000 		.4byte	.LASF230
 2541 0800 05       		.byte	0x5
 2542 0801 E003     		.2byte	0x3e0
 2543 0803 4A0C0000 		.4byte	0xc4a
 2544 0807 24       		.byte	0x24
 2545 0808 0E       		.uleb128 0xe
 2546 0809 DE010000 		.4byte	.LASF231
 2547 080d 05       		.byte	0x5
 2548 080e E103     		.2byte	0x3e1
 2549 0810 41010000 		.4byte	0x141
 2550 0814 28       		.byte	0x28
 2551 0815 0F       		.uleb128 0xf
 2552 0816 545300   		.ascii	"TS\000"
 2553 0819 05       		.byte	0x5
 2554 081a E303     		.2byte	0x3e3
 2555 081c F4000000 		.4byte	0xf4
 2556 0820 2C       		.byte	0x2c
 2557 0821 00       		.byte	0
 2558 0822 09       		.uleb128 0x9
 2559 0823 90110000 		.4byte	.LASF232
 2560 0827 05       		.byte	0x5
 2561 0828 D402     		.2byte	0x2d4
 2562 082a A9000000 		.4byte	0xa9
 2563 082e 09       		.uleb128 0x9
 2564 082f EF100000 		.4byte	.LASF233
 2565 0833 05       		.byte	0x5
ARM GAS  C:\Users\ADMINI~1\AppData\Local\Temp\cc0ImMof.s 			page 71


 2566 0834 D902     		.2byte	0x2d9
 2567 0836 3A080000 		.4byte	0x83a
 2568 083a 0D       		.uleb128 0xd
 2569 083b 00000000 		.4byte	.LASF234
 2570 083f C4       		.byte	0xc4
 2571 0840 05       		.byte	0x5
 2572 0841 5004     		.2byte	0x450
 2573 0843 DE0A0000 		.4byte	0xade
 2574 0847 0E       		.uleb128 0xe
 2575 0848 BB0A0000 		.4byte	.LASF235
 2576 084c 05       		.byte	0x5
 2577 084d 5104     		.2byte	0x451
 2578 084f 740C0000 		.4byte	0xc74
 2579 0853 00       		.byte	0
 2580 0854 0E       		.uleb128 0xe
 2581 0855 6D100000 		.4byte	.LASF236
 2582 0859 05       		.byte	0x5
 2583 085a 5304     		.2byte	0x453
 2584 085c BA000000 		.4byte	0xba
 2585 0860 04       		.byte	0x4
 2586 0861 0E       		.uleb128 0xe
 2587 0862 450A0000 		.4byte	.LASF207
 2588 0866 05       		.byte	0x5
 2589 0867 5604     		.2byte	0x456
 2590 0869 5C0C0000 		.4byte	0xc5c
 2591 086d 08       		.byte	0x8
 2592 086e 0E       		.uleb128 0xe
 2593 086f F40B0000 		.4byte	.LASF237
 2594 0873 05       		.byte	0x5
 2595 0874 5A04     		.2byte	0x45a
 2596 0876 740C0000 		.4byte	0xc74
 2597 087a 0C       		.byte	0xc
 2598 087b 0E       		.uleb128 0xe
 2599 087c 970D0000 		.4byte	.LASF216
 2600 0880 05       		.byte	0x5
 2601 0881 5D04     		.2byte	0x45d
 2602 0883 4A0C0000 		.4byte	0xc4a
 2603 0887 10       		.byte	0x10
 2604 0888 0E       		.uleb128 0xe
 2605 0889 66090000 		.4byte	.LASF238
 2606 088d 05       		.byte	0x5
 2607 088e 5E04     		.2byte	0x45e
 2608 0890 4A0C0000 		.4byte	0xc4a
 2609 0894 14       		.byte	0x14
 2610 0895 0E       		.uleb128 0xe
 2611 0896 7F0C0000 		.4byte	.LASF239
 2612 089a 05       		.byte	0x5
 2613 089b 6104     		.2byte	0x461
 2614 089d 4A0C0000 		.4byte	0xc4a
 2615 08a1 18       		.byte	0x18
 2616 08a2 0E       		.uleb128 0xe
 2617 08a3 63080000 		.4byte	.LASF240
 2618 08a7 05       		.byte	0x5
 2619 08a8 6204     		.2byte	0x462
 2620 08aa 4A0C0000 		.4byte	0xc4a
 2621 08ae 1C       		.byte	0x1c
 2622 08af 0E       		.uleb128 0xe
ARM GAS  C:\Users\ADMINI~1\AppData\Local\Temp\cc0ImMof.s 			page 72


 2623 08b0 DB0D0000 		.4byte	.LASF241
 2624 08b4 05       		.byte	0x5
 2625 08b5 6404     		.2byte	0x464
 2626 08b7 7A0C0000 		.4byte	0xc7a
 2627 08bb 20       		.byte	0x20
 2628 08bc 0E       		.uleb128 0xe
 2629 08bd FB060000 		.4byte	.LASF242
 2630 08c1 05       		.byte	0x5
 2631 08c2 6804     		.2byte	0x468
 2632 08c4 740C0000 		.4byte	0xc74
 2633 08c8 24       		.byte	0x24
 2634 08c9 0E       		.uleb128 0xe
 2635 08ca FF090000 		.4byte	.LASF243
 2636 08ce 05       		.byte	0x5
 2637 08cf 7004     		.2byte	0x470
 2638 08d1 22080000 		.4byte	0x822
 2639 08d5 28       		.byte	0x28
 2640 08d6 0E       		.uleb128 0xe
 2641 08d7 FC110000 		.4byte	.LASF244
 2642 08db 05       		.byte	0x5
 2643 08dc 7104     		.2byte	0x471
 2644 08de BA000000 		.4byte	0xba
 2645 08e2 2C       		.byte	0x2c
 2646 08e3 0E       		.uleb128 0xe
 2647 08e4 B20F0000 		.4byte	.LASF245
 2648 08e8 05       		.byte	0x5
 2649 08e9 7404     		.2byte	0x474
 2650 08eb 500C0000 		.4byte	0xc50
 2651 08ef 30       		.byte	0x30
 2652 08f0 0E       		.uleb128 0xe
 2653 08f1 8A040000 		.4byte	.LASF246
 2654 08f5 05       		.byte	0x5
 2655 08f6 7504     		.2byte	0x475
 2656 08f8 8E010000 		.4byte	0x18e
 2657 08fc 34       		.byte	0x34
 2658 08fd 0E       		.uleb128 0xe
 2659 08fe 4D0A0000 		.4byte	.LASF247
 2660 0902 05       		.byte	0x5
 2661 0903 7604     		.2byte	0x476
 2662 0905 99010000 		.4byte	0x199
 2663 0909 35       		.byte	0x35
 2664 090a 0E       		.uleb128 0xe
 2665 090b 68070000 		.4byte	.LASF248
 2666 090f 05       		.byte	0x5
 2667 0910 7804     		.2byte	0x478
 2668 0912 8E010000 		.4byte	0x18e
 2669 0916 36       		.byte	0x36
 2670 0917 0E       		.uleb128 0xe
 2671 0918 3A130000 		.4byte	.LASF249
 2672 091c 05       		.byte	0x5
 2673 091d 7904     		.2byte	0x479
 2674 091f 6D010000 		.4byte	0x16d
 2675 0923 37       		.byte	0x37
 2676 0924 0E       		.uleb128 0xe
 2677 0925 D0080000 		.4byte	.LASF250
 2678 0929 05       		.byte	0x5
 2679 092a 7B04     		.2byte	0x47b
ARM GAS  C:\Users\ADMINI~1\AppData\Local\Temp\cc0ImMof.s 			page 73


 2680 092c 6D010000 		.4byte	0x16d
 2681 0930 38       		.byte	0x38
 2682 0931 0E       		.uleb128 0xe
 2683 0932 AC020000 		.4byte	.LASF251
 2684 0936 05       		.byte	0x5
 2685 0937 7C04     		.2byte	0x47c
 2686 0939 6E0C0000 		.4byte	0xc6e
 2687 093d 3C       		.byte	0x3c
 2688 093e 0E       		.uleb128 0xe
 2689 093f F3060000 		.4byte	.LASF252
 2690 0943 05       		.byte	0x5
 2691 0944 8004     		.2byte	0x480
 2692 0946 D2000000 		.4byte	0xd2
 2693 094a 40       		.byte	0x40
 2694 094b 0F       		.uleb128 0xf
 2695 094c 4F707400 		.ascii	"Opt\000"
 2696 0950 05       		.byte	0x5
 2697 0951 8204     		.2byte	0x482
 2698 0953 62010000 		.4byte	0x162
 2699 0957 44       		.byte	0x44
 2700 0958 0F       		.uleb128 0xf
 2701 0959 545300   		.ascii	"TS\000"
 2702 095c 05       		.byte	0x5
 2703 095d 8804     		.2byte	0x488
 2704 095f F4000000 		.4byte	0xf4
 2705 0963 48       		.byte	0x48
 2706 0964 0E       		.uleb128 0xe
 2707 0965 D30F0000 		.4byte	.LASF253
 2708 0969 05       		.byte	0x5
 2709 096a 8D04     		.2byte	0x48d
 2710 096c 83010000 		.4byte	0x183
 2711 0970 4C       		.byte	0x4c
 2712 0971 0E       		.uleb128 0xe
 2713 0972 E00F0000 		.4byte	.LASF254
 2714 0976 05       		.byte	0x5
 2715 0977 9104     		.2byte	0x491
 2716 0979 A4010000 		.4byte	0x1a4
 2717 097d 50       		.byte	0x50
 2718 097e 0E       		.uleb128 0xe
 2719 097f 33080000 		.4byte	.LASF255
 2720 0983 05       		.byte	0x5
 2721 0984 9204     		.2byte	0x492
 2722 0986 A4010000 		.4byte	0x1a4
 2723 098a 54       		.byte	0x54
 2724 098b 0E       		.uleb128 0xe
 2725 098c DC120000 		.4byte	.LASF217
 2726 0990 05       		.byte	0x5
 2727 0991 9B04     		.2byte	0x49b
 2728 0993 BA000000 		.4byte	0xba
 2729 0997 58       		.byte	0x58
 2730 0998 0E       		.uleb128 0xe
 2731 0999 21100000 		.4byte	.LASF218
 2732 099d 05       		.byte	0x5
 2733 099e 9C04     		.2byte	0x49c
 2734 09a0 36010000 		.4byte	0x136
 2735 09a4 5C       		.byte	0x5c
 2736 09a5 0E       		.uleb128 0xe
ARM GAS  C:\Users\ADMINI~1\AppData\Local\Temp\cc0ImMof.s 			page 74


 2737 09a6 EE090000 		.4byte	.LASF256
 2738 09aa 05       		.byte	0x5
 2739 09ab A004     		.2byte	0x4a0
 2740 09ad 2C070000 		.4byte	0x72c
 2741 09b1 60       		.byte	0x60
 2742 09b2 0E       		.uleb128 0xe
 2743 09b3 B50D0000 		.4byte	.LASF257
 2744 09b7 05       		.byte	0x5
 2745 09b8 A204     		.2byte	0x4a2
 2746 09ba F4000000 		.4byte	0xf4
 2747 09be 70       		.byte	0x70
 2748 09bf 0E       		.uleb128 0xe
 2749 09c0 D9080000 		.4byte	.LASF258
 2750 09c4 05       		.byte	0x5
 2751 09c5 A304     		.2byte	0x4a3
 2752 09c7 F4000000 		.4byte	0xf4
 2753 09cb 74       		.byte	0x74
 2754 09cc 0E       		.uleb128 0xe
 2755 09cd 04140000 		.4byte	.LASF259
 2756 09d1 05       		.byte	0x5
 2757 09d2 A804     		.2byte	0x4a8
 2758 09d4 800C0000 		.4byte	0xc80
 2759 09d8 78       		.byte	0x78
 2760 09d9 0E       		.uleb128 0xe
 2761 09da 1A050000 		.4byte	.LASF260
 2762 09de 05       		.byte	0x5
 2763 09df AC04     		.2byte	0x4ac
 2764 09e1 20010000 		.4byte	0x120
 2765 09e5 7C       		.byte	0x7c
 2766 09e6 0E       		.uleb128 0xe
 2767 09e7 6F080000 		.4byte	.LASF261
 2768 09eb 05       		.byte	0x5
 2769 09ec AD04     		.2byte	0x4ad
 2770 09ee 20010000 		.4byte	0x120
 2771 09f2 80       		.byte	0x80
 2772 09f3 0E       		.uleb128 0xe
 2773 09f4 58020000 		.4byte	.LASF262
 2774 09f8 05       		.byte	0x5
 2775 09f9 AE04     		.2byte	0x4ae
 2776 09fb 62010000 		.4byte	0x162
 2777 09ff 84       		.byte	0x84
 2778 0a00 0E       		.uleb128 0xe
 2779 0a01 E90B0000 		.4byte	.LASF263
 2780 0a05 05       		.byte	0x5
 2781 0a06 B204     		.2byte	0x4b2
 2782 0a08 41010000 		.4byte	0x141
 2783 0a0c 86       		.byte	0x86
 2784 0a0d 0E       		.uleb128 0xe
 2785 0a0e 58130000 		.4byte	.LASF264
 2786 0a12 05       		.byte	0x5
 2787 0a13 B604     		.2byte	0x4b6
 2788 0a15 FF000000 		.4byte	0xff
 2789 0a19 88       		.byte	0x88
 2790 0a1a 0E       		.uleb128 0xe
 2791 0a1b 8D0F0000 		.4byte	.LASF265
 2792 0a1f 05       		.byte	0x5
 2793 0a20 B704     		.2byte	0x4b7
ARM GAS  C:\Users\ADMINI~1\AppData\Local\Temp\cc0ImMof.s 			page 75


 2794 0a22 FF000000 		.4byte	0xff
 2795 0a26 8A       		.byte	0x8a
 2796 0a27 0E       		.uleb128 0xe
 2797 0a28 52050000 		.4byte	.LASF266
 2798 0a2c 05       		.byte	0x5
 2799 0a2d B804     		.2byte	0x4b8
 2800 0a2f 0A010000 		.4byte	0x10a
 2801 0a33 8C       		.byte	0x8c
 2802 0a34 0E       		.uleb128 0xe
 2803 0a35 000C0000 		.4byte	.LASF267
 2804 0a39 05       		.byte	0x5
 2805 0a3a B904     		.2byte	0x4b9
 2806 0a3c F4000000 		.4byte	0xf4
 2807 0a40 90       		.byte	0x90
 2808 0a41 0E       		.uleb128 0xe
 2809 0a42 F20A0000 		.4byte	.LASF268
 2810 0a46 05       		.byte	0x5
 2811 0a47 BA04     		.2byte	0x4ba
 2812 0a49 F4000000 		.4byte	0xf4
 2813 0a4d 94       		.byte	0x94
 2814 0a4e 0E       		.uleb128 0xe
 2815 0a4f 530F0000 		.4byte	.LASF269
 2816 0a53 05       		.byte	0x5
 2817 0a54 BB04     		.2byte	0x4bb
 2818 0a56 15010000 		.4byte	0x115
 2819 0a5a 98       		.byte	0x98
 2820 0a5b 0E       		.uleb128 0xe
 2821 0a5c E60E0000 		.4byte	.LASF270
 2822 0a60 05       		.byte	0x5
 2823 0a61 BC04     		.2byte	0x4bc
 2824 0a63 15010000 		.4byte	0x115
 2825 0a67 9C       		.byte	0x9c
 2826 0a68 0E       		.uleb128 0xe
 2827 0a69 630D0000 		.4byte	.LASF271
 2828 0a6d 05       		.byte	0x5
 2829 0a6e BE04     		.2byte	0x4be
 2830 0a70 F4000000 		.4byte	0xf4
 2831 0a74 A0       		.byte	0xa0
 2832 0a75 0E       		.uleb128 0xe
 2833 0a76 D70E0000 		.4byte	.LASF272
 2834 0a7a 05       		.byte	0x5
 2835 0a7b BF04     		.2byte	0x4bf
 2836 0a7d F4000000 		.4byte	0xf4
 2837 0a81 A4       		.byte	0xa4
 2838 0a82 0E       		.uleb128 0xe
 2839 0a83 4C060000 		.4byte	.LASF273
 2840 0a87 05       		.byte	0x5
 2841 0a88 C304     		.2byte	0x4c3
 2842 0a8a D2000000 		.4byte	0xd2
 2843 0a8e A8       		.byte	0xa8
 2844 0a8f 0E       		.uleb128 0xe
 2845 0a90 2B080000 		.4byte	.LASF274
 2846 0a94 05       		.byte	0x5
 2847 0a95 C404     		.2byte	0x4c4
 2848 0a97 D2000000 		.4byte	0xd2
 2849 0a9b AC       		.byte	0xac
 2850 0a9c 0E       		.uleb128 0xe
ARM GAS  C:\Users\ADMINI~1\AppData\Local\Temp\cc0ImMof.s 			page 76


 2851 0a9d B10E0000 		.4byte	.LASF275
 2852 0aa1 05       		.byte	0x5
 2853 0aa2 C804     		.2byte	0x4c8
 2854 0aa4 F4000000 		.4byte	0xf4
 2855 0aa8 B0       		.byte	0xb0
 2856 0aa9 0E       		.uleb128 0xe
 2857 0aaa FC030000 		.4byte	.LASF276
 2858 0aae 05       		.byte	0x5
 2859 0aaf CB04     		.2byte	0x4cb
 2860 0ab1 F4000000 		.4byte	0xf4
 2861 0ab5 B4       		.byte	0xb4
 2862 0ab6 0E       		.uleb128 0xe
 2863 0ab7 D9030000 		.4byte	.LASF209
 2864 0abb 05       		.byte	0x5
 2865 0abc CF04     		.2byte	0x4cf
 2866 0abe 4A0C0000 		.4byte	0xc4a
 2867 0ac2 B8       		.byte	0xb8
 2868 0ac3 0E       		.uleb128 0xe
 2869 0ac4 F1030000 		.4byte	.LASF210
 2870 0ac8 05       		.byte	0x5
 2871 0ac9 D004     		.2byte	0x4d0
 2872 0acb 4A0C0000 		.4byte	0xc4a
 2873 0acf BC       		.byte	0xbc
 2874 0ad0 0E       		.uleb128 0xe
 2875 0ad1 EA110000 		.4byte	.LASF211
 2876 0ad5 05       		.byte	0x5
 2877 0ad6 D104     		.2byte	0x4d1
 2878 0ad8 5C0C0000 		.4byte	0xc5c
 2879 0adc C0       		.byte	0xc0
 2880 0add 00       		.byte	0
 2881 0ade 09       		.uleb128 0x9
 2882 0adf 060F0000 		.4byte	.LASF277
 2883 0ae3 05       		.byte	0x5
 2884 0ae4 E702     		.2byte	0x2e7
 2885 0ae6 EA0A0000 		.4byte	0xaea
 2886 0aea 0D       		.uleb128 0xd
 2887 0aeb 790E0000 		.4byte	.LASF278
 2888 0aef 08       		.byte	0x8
 2889 0af0 05       		.byte	0x5
 2890 0af1 DF04     		.2byte	0x4df
 2891 0af3 1F0B0000 		.4byte	0xb1f
 2892 0af7 0E       		.uleb128 0xe
 2893 0af8 AA040000 		.4byte	.LASF279
 2894 0afc 05       		.byte	0x5
 2895 0afd E004     		.2byte	0x4e0
 2896 0aff 4A0C0000 		.4byte	0xc4a
 2897 0b03 00       		.byte	0
 2898 0b04 0E       		.uleb128 0xe
 2899 0b05 A3010000 		.4byte	.LASF225
 2900 0b09 05       		.byte	0x5
 2901 0b0a E204     		.2byte	0x4e2
 2902 0b0c 4C010000 		.4byte	0x14c
 2903 0b10 04       		.byte	0x4
 2904 0b11 0E       		.uleb128 0xe
 2905 0b12 AC060000 		.4byte	.LASF280
 2906 0b16 05       		.byte	0x5
 2907 0b17 E304     		.2byte	0x4e3
ARM GAS  C:\Users\ADMINI~1\AppData\Local\Temp\cc0ImMof.s 			page 77


 2908 0b19 4C010000 		.4byte	0x14c
 2909 0b1d 06       		.byte	0x6
 2910 0b1e 00       		.byte	0
 2911 0b1f 09       		.uleb128 0x9
 2912 0b20 67060000 		.4byte	.LASF281
 2913 0b24 05       		.byte	0x5
 2914 0b25 EC02     		.2byte	0x2ec
 2915 0b27 2B0B0000 		.4byte	0xb2b
 2916 0b2b 0D       		.uleb128 0xd
 2917 0b2c 08130000 		.4byte	.LASF282
 2918 0b30 20       		.byte	0x20
 2919 0b31 05       		.byte	0x5
 2920 0b32 2803     		.2byte	0x328
 2921 0b34 A10B0000 		.4byte	0xba1
 2922 0b38 0E       		.uleb128 0xe
 2923 0b39 66090000 		.4byte	.LASF238
 2924 0b3d 05       		.byte	0x5
 2925 0b3e 2903     		.2byte	0x329
 2926 0b40 500C0000 		.4byte	0xc50
 2927 0b44 00       		.byte	0
 2928 0b45 0E       		.uleb128 0xe
 2929 0b46 970D0000 		.4byte	.LASF216
 2930 0b4a 05       		.byte	0x5
 2931 0b4b 2A03     		.2byte	0x32a
 2932 0b4d 500C0000 		.4byte	0xc50
 2933 0b51 04       		.byte	0x4
 2934 0b52 0E       		.uleb128 0xe
 2935 0b53 080B0000 		.4byte	.LASF283
 2936 0b57 05       		.byte	0x5
 2937 0b58 2B03     		.2byte	0x32b
 2938 0b5a 4A0C0000 		.4byte	0xc4a
 2939 0b5e 08       		.byte	0x8
 2940 0b5f 0E       		.uleb128 0xe
 2941 0b60 95130000 		.4byte	.LASF284
 2942 0b64 05       		.byte	0x5
 2943 0b65 2C03     		.2byte	0x32c
 2944 0b67 560C0000 		.4byte	0xc56
 2945 0b6b 0C       		.byte	0xc
 2946 0b6c 0E       		.uleb128 0xe
 2947 0b6d FC0C0000 		.4byte	.LASF285
 2948 0b71 05       		.byte	0x5
 2949 0b72 2D03     		.2byte	0x32d
 2950 0b74 560C0000 		.4byte	0xc56
 2951 0b78 10       		.byte	0x10
 2952 0b79 0E       		.uleb128 0xe
 2953 0b7a E5040000 		.4byte	.LASF286
 2954 0b7e 05       		.byte	0x5
 2955 0b7f 2E03     		.2byte	0x32e
 2956 0b81 BA000000 		.4byte	0xba
 2957 0b85 14       		.byte	0x14
 2958 0b86 0E       		.uleb128 0xe
 2959 0b87 900E0000 		.4byte	.LASF287
 2960 0b8b 05       		.byte	0x5
 2961 0b8c 2F03     		.2byte	0x32f
 2962 0b8e 36010000 		.4byte	0x136
 2963 0b92 18       		.byte	0x18
 2964 0b93 0E       		.uleb128 0xe
ARM GAS  C:\Users\ADMINI~1\AppData\Local\Temp\cc0ImMof.s 			page 78


 2965 0b94 430E0000 		.4byte	.LASF288
 2966 0b98 05       		.byte	0x5
 2967 0b99 3103     		.2byte	0x331
 2968 0b9b F4000000 		.4byte	0xf4
 2969 0b9f 1C       		.byte	0x1c
 2970 0ba0 00       		.byte	0
 2971 0ba1 09       		.uleb128 0x9
 2972 0ba2 72120000 		.4byte	.LASF289
 2973 0ba6 05       		.byte	0x5
 2974 0ba7 ED02     		.2byte	0x2ed
 2975 0ba9 AD0B0000 		.4byte	0xbad
 2976 0bad 0D       		.uleb128 0xd
 2977 0bae AE130000 		.4byte	.LASF290
 2978 0bb2 0C       		.byte	0xc
 2979 0bb3 05       		.byte	0x5
 2980 0bb4 3603     		.2byte	0x336
 2981 0bb6 E20B0000 		.4byte	0xbe2
 2982 0bba 0E       		.uleb128 0xe
 2983 0bbb EB0F0000 		.4byte	.LASF291
 2984 0bbf 05       		.byte	0x5
 2985 0bc0 3703     		.2byte	0x337
 2986 0bc2 500C0000 		.4byte	0xc50
 2987 0bc6 00       		.byte	0
 2988 0bc7 0E       		.uleb128 0xe
 2989 0bc8 B2040000 		.4byte	.LASF292
 2990 0bcc 05       		.byte	0x5
 2991 0bcd 3803     		.2byte	0x338
 2992 0bcf 500C0000 		.4byte	0xc50
 2993 0bd3 04       		.byte	0x4
 2994 0bd4 0E       		.uleb128 0xe
 2995 0bd5 A3010000 		.4byte	.LASF225
 2996 0bd9 05       		.byte	0x5
 2997 0bda 3A03     		.2byte	0x33a
 2998 0bdc 4C010000 		.4byte	0x14c
 2999 0be0 08       		.byte	0x8
 3000 0be1 00       		.byte	0
 3001 0be2 09       		.uleb128 0x9
 3002 0be3 5F0F0000 		.4byte	.LASF293
 3003 0be7 05       		.byte	0x5
 3004 0be8 EE02     		.2byte	0x2ee
 3005 0bea EE0B0000 		.4byte	0xbee
 3006 0bee 0D       		.uleb128 0xd
 3007 0bef EF040000 		.4byte	.LASF294
 3008 0bf3 20       		.byte	0x20
 3009 0bf4 05       		.byte	0x5
 3010 0bf5 4E03     		.2byte	0x34e
 3011 0bf7 4A0C0000 		.4byte	0xc4a
 3012 0bfb 0E       		.uleb128 0xe
 3013 0bfc 610A0000 		.4byte	.LASF206
 3014 0c00 05       		.byte	0x5
 3015 0c01 5003     		.2byte	0x350
 3016 0c03 57010000 		.4byte	0x157
 3017 0c07 00       		.byte	0
 3018 0c08 0E       		.uleb128 0xe
 3019 0c09 450A0000 		.4byte	.LASF207
 3020 0c0d 05       		.byte	0x5
 3021 0c0e 5303     		.2byte	0x353
ARM GAS  C:\Users\ADMINI~1\AppData\Local\Temp\cc0ImMof.s 			page 79


 3022 0c10 5C0C0000 		.4byte	0xc5c
 3023 0c14 04       		.byte	0x4
 3024 0c15 0E       		.uleb128 0xe
 3025 0c16 990F0000 		.4byte	.LASF208
 3026 0c1a 05       		.byte	0x5
 3027 0c1b 5503     		.2byte	0x355
 3028 0c1d A10B0000 		.4byte	0xba1
 3029 0c21 08       		.byte	0x8
 3030 0c22 0E       		.uleb128 0xe
 3031 0c23 D9030000 		.4byte	.LASF209
 3032 0c27 05       		.byte	0x5
 3033 0c28 5703     		.2byte	0x357
 3034 0c2a BA000000 		.4byte	0xba
 3035 0c2e 14       		.byte	0x14
 3036 0c2f 0E       		.uleb128 0xe
 3037 0c30 F1030000 		.4byte	.LASF210
 3038 0c34 05       		.byte	0x5
 3039 0c35 5803     		.2byte	0x358
 3040 0c37 BA000000 		.4byte	0xba
 3041 0c3b 18       		.byte	0x18
 3042 0c3c 0E       		.uleb128 0xe
 3043 0c3d EA110000 		.4byte	.LASF211
 3044 0c41 05       		.byte	0x5
 3045 0c42 5903     		.2byte	0x359
 3046 0c44 5C0C0000 		.4byte	0xc5c
 3047 0c48 1C       		.byte	0x1c
 3048 0c49 00       		.byte	0
 3049 0c4a 05       		.uleb128 0x5
 3050 0c4b 04       		.byte	0x4
 3051 0c4c 2E080000 		.4byte	0x82e
 3052 0c50 05       		.uleb128 0x5
 3053 0c51 04       		.byte	0x4
 3054 0c52 1F0B0000 		.4byte	0xb1f
 3055 0c56 05       		.uleb128 0x5
 3056 0c57 04       		.byte	0x4
 3057 0c58 E20B0000 		.4byte	0xbe2
 3058 0c5c 05       		.uleb128 0x5
 3059 0c5d 04       		.byte	0x4
 3060 0c5e 25000000 		.4byte	0x25
 3061 0c62 05       		.uleb128 0x5
 3062 0c63 04       		.byte	0x4
 3063 0c64 5D060000 		.4byte	0x65d
 3064 0c68 05       		.uleb128 0x5
 3065 0c69 04       		.byte	0x4
 3066 0c6a DE060000 		.4byte	0x6de
 3067 0c6e 05       		.uleb128 0x5
 3068 0c6f 04       		.byte	0x4
 3069 0c70 87070000 		.4byte	0x787
 3070 0c74 05       		.uleb128 0x5
 3071 0c75 04       		.byte	0x4
 3072 0c76 C7000000 		.4byte	0xc7
 3073 0c7a 05       		.uleb128 0x5
 3074 0c7b 04       		.byte	0x4
 3075 0c7c DE0A0000 		.4byte	0xade
 3076 0c80 10       		.uleb128 0x10
 3077 0c81 78010000 		.4byte	0x178
 3078 0c85 900C0000 		.4byte	0xc90
ARM GAS  C:\Users\ADMINI~1\AppData\Local\Temp\cc0ImMof.s 			page 80


 3079 0c89 11       		.uleb128 0x11
 3080 0c8a 900C0000 		.4byte	0xc90
 3081 0c8e 00       		.byte	0
 3082 0c8f 00       		.byte	0
 3083 0c90 03       		.uleb128 0x3
 3084 0c91 04       		.byte	0x4
 3085 0c92 07       		.byte	0x7
 3086 0c93 74100000 		.4byte	.LASF295
 3087 0c97 12       		.uleb128 0x12
 3088 0c98 23020000 		.4byte	.LASF311
 3089 0c9c 01       		.byte	0x1
 3090 0c9d 45       		.byte	0x45
 3091 0c9e 00000000 		.4byte	.LFB0
 3092 0ca2 A0000000 		.4byte	.LFE0-.LFB0
 3093 0ca6 01       		.uleb128 0x1
 3094 0ca7 9C       		.byte	0x9c
 3095 0ca8 F30C0000 		.4byte	0xcf3
 3096 0cac 13       		.uleb128 0x13
 3097 0cad 91040000 		.4byte	.LASF296
 3098 0cb1 01       		.byte	0x1
 3099 0cb2 45       		.byte	0x45
 3100 0cb3 620C0000 		.4byte	0xc62
 3101 0cb7 02       		.uleb128 0x2
 3102 0cb8 91       		.byte	0x91
 3103 0cb9 6C       		.sleb128 -20
 3104 0cba 13       		.uleb128 0x13
 3105 0cbb 03090000 		.4byte	.LASF297
 3106 0cbf 01       		.byte	0x1
 3107 0cc0 46       		.byte	0x46
 3108 0cc1 5C0C0000 		.4byte	0xc5c
 3109 0cc5 02       		.uleb128 0x2
 3110 0cc6 91       		.byte	0x91
 3111 0cc7 68       		.sleb128 -24
 3112 0cc8 13       		.uleb128 0x13
 3113 0cc9 9D010000 		.4byte	.LASF298
 3114 0ccd 01       		.byte	0x1
 3115 0cce 47       		.byte	0x47
 3116 0ccf 20010000 		.4byte	0x120
 3117 0cd3 02       		.uleb128 0x2
 3118 0cd4 91       		.byte	0x91
 3119 0cd5 64       		.sleb128 -28
 3120 0cd6 13       		.uleb128 0x13
 3121 0cd7 47090000 		.4byte	.LASF299
 3122 0cdb 01       		.byte	0x1
 3123 0cdc 48       		.byte	0x48
 3124 0cdd F30C0000 		.4byte	0xcf3
 3125 0ce1 02       		.uleb128 0x2
 3126 0ce2 91       		.byte	0x91
 3127 0ce3 60       		.sleb128 -32
 3128 0ce4 14       		.uleb128 0x14
 3129 0ce5 CE050000 		.4byte	.LASF302
 3130 0ce9 01       		.byte	0x1
 3131 0cea 4A       		.byte	0x4a
 3132 0ceb DD000000 		.4byte	0xdd
 3133 0cef 02       		.uleb128 0x2
 3134 0cf0 91       		.byte	0x91
 3135 0cf1 74       		.sleb128 -12
ARM GAS  C:\Users\ADMINI~1\AppData\Local\Temp\cc0ImMof.s 			page 81


 3136 0cf2 00       		.byte	0
 3137 0cf3 05       		.uleb128 0x5
 3138 0cf4 04       		.byte	0x4
 3139 0cf5 51060000 		.4byte	0x651
 3140 0cf9 15       		.uleb128 0x15
 3141 0cfa 860A0000 		.4byte	.LASF307
 3142 0cfe 01       		.byte	0x1
 3143 0cff 5D01     		.2byte	0x15d
 3144 0d01 20010000 		.4byte	0x120
 3145 0d05 00000000 		.4byte	.LFB1
 3146 0d09 28040000 		.4byte	.LFE1-.LFB1
 3147 0d0d 01       		.uleb128 0x1
 3148 0d0e 9C       		.byte	0x9c
 3149 0d0f BD0D0000 		.4byte	0xdbd
 3150 0d13 16       		.uleb128 0x16
 3151 0d14 91040000 		.4byte	.LASF296
 3152 0d18 01       		.byte	0x1
 3153 0d19 5D01     		.2byte	0x15d
 3154 0d1b 620C0000 		.4byte	0xc62
 3155 0d1f 03       		.uleb128 0x3
 3156 0d20 91       		.byte	0x91
 3157 0d21 BC7F     		.sleb128 -68
 3158 0d23 16       		.uleb128 0x16
 3159 0d24 9D010000 		.4byte	.LASF298
 3160 0d28 01       		.byte	0x1
 3161 0d29 5E01     		.2byte	0x15e
 3162 0d2b 20010000 		.4byte	0x120
 3163 0d2f 03       		.uleb128 0x3
 3164 0d30 91       		.byte	0x91
 3165 0d31 B87F     		.sleb128 -72
 3166 0d33 16       		.uleb128 0x16
 3167 0d34 81110000 		.4byte	.LASF300
 3168 0d38 01       		.byte	0x1
 3169 0d39 5F01     		.2byte	0x15f
 3170 0d3b A4010000 		.4byte	0x1a4
 3171 0d3f 03       		.uleb128 0x3
 3172 0d40 91       		.byte	0x91
 3173 0d41 B47F     		.sleb128 -76
 3174 0d43 17       		.uleb128 0x17
 3175 0d44 6F707400 		.ascii	"opt\000"
 3176 0d48 01       		.byte	0x1
 3177 0d49 6001     		.2byte	0x160
 3178 0d4b 62010000 		.4byte	0x162
 3179 0d4f 03       		.uleb128 0x3
 3180 0d50 91       		.byte	0x91
 3181 0d51 B27F     		.sleb128 -78
 3182 0d53 16       		.uleb128 0x16
 3183 0d54 DE0C0000 		.4byte	.LASF301
 3184 0d58 01       		.byte	0x1
 3185 0d59 6101     		.2byte	0x161
 3186 0d5b BD0D0000 		.4byte	0xdbd
 3187 0d5f 02       		.uleb128 0x2
 3188 0d60 91       		.byte	0x91
 3189 0d61 00       		.sleb128 0
 3190 0d62 16       		.uleb128 0x16
 3191 0d63 47090000 		.4byte	.LASF299
 3192 0d67 01       		.byte	0x1
ARM GAS  C:\Users\ADMINI~1\AppData\Local\Temp\cc0ImMof.s 			page 82


 3193 0d68 6201     		.2byte	0x162
 3194 0d6a F30C0000 		.4byte	0xcf3
 3195 0d6e 02       		.uleb128 0x2
 3196 0d6f 91       		.byte	0x91
 3197 0d70 04       		.sleb128 4
 3198 0d71 18       		.uleb128 0x18
 3199 0d72 4D0B0000 		.4byte	.LASF303
 3200 0d76 01       		.byte	0x1
 3201 0d77 6401     		.2byte	0x164
 3202 0d79 37000000 		.4byte	0x37
 3203 0d7d 02       		.uleb128 0x2
 3204 0d7e 91       		.byte	0x91
 3205 0d7f 6F       		.sleb128 -17
 3206 0d80 18       		.uleb128 0x18
 3207 0d81 F30F0000 		.4byte	.LASF304
 3208 0d85 01       		.byte	0x1
 3209 0d86 6501     		.2byte	0x165
 3210 0d88 20010000 		.4byte	0x120
 3211 0d8c 02       		.uleb128 0x2
 3212 0d8d 91       		.byte	0x91
 3213 0d8e 60       		.sleb128 -32
 3214 0d8f 18       		.uleb128 0x18
 3215 0d90 4B040000 		.4byte	.LASF305
 3216 0d94 01       		.byte	0x1
 3217 0d95 6601     		.2byte	0x166
 3218 0d97 62010000 		.4byte	0x162
 3219 0d9b 02       		.uleb128 0x2
 3220 0d9c 91       		.byte	0x91
 3221 0d9d 66       		.sleb128 -26
 3222 0d9e 18       		.uleb128 0x18
 3223 0d9f FE0A0000 		.4byte	.LASF306
 3224 0da3 01       		.byte	0x1
 3225 0da4 6701     		.2byte	0x167
 3226 0da6 1F0B0000 		.4byte	0xb1f
 3227 0daa 02       		.uleb128 0x2
 3228 0dab 91       		.byte	0x91
 3229 0dac 40       		.sleb128 -64
 3230 0dad 18       		.uleb128 0x18
 3231 0dae CE050000 		.4byte	.LASF302
 3232 0db2 01       		.byte	0x1
 3233 0db3 6801     		.2byte	0x168
 3234 0db5 DD000000 		.4byte	0xdd
 3235 0db9 02       		.uleb128 0x2
 3236 0dba 91       		.byte	0x91
 3237 0dbb 68       		.sleb128 -24
 3238 0dbc 00       		.byte	0
 3239 0dbd 05       		.uleb128 0x5
 3240 0dbe 04       		.byte	0x4
 3241 0dbf F4000000 		.4byte	0xf4
 3242 0dc3 15       		.uleb128 0x15
 3243 0dc4 4C120000 		.4byte	.LASF308
 3244 0dc8 01       		.byte	0x1
 3245 0dc9 6803     		.2byte	0x368
 3246 0dcb 20010000 		.4byte	0x120
 3247 0dcf 00000000 		.4byte	.LFB2
 3248 0dd3 5C000000 		.4byte	.LFE2-.LFB2
 3249 0dd7 01       		.uleb128 0x1
ARM GAS  C:\Users\ADMINI~1\AppData\Local\Temp\cc0ImMof.s 			page 83


 3250 0dd8 9C       		.byte	0x9c
 3251 0dd9 0B0E0000 		.4byte	0xe0b
 3252 0ddd 16       		.uleb128 0x16
 3253 0dde 47090000 		.4byte	.LASF299
 3254 0de2 01       		.byte	0x1
 3255 0de3 6803     		.2byte	0x368
 3256 0de5 F30C0000 		.4byte	0xcf3
 3257 0de9 02       		.uleb128 0x2
 3258 0dea 91       		.byte	0x91
 3259 0deb 6C       		.sleb128 -20
 3260 0dec 18       		.uleb128 0x18
 3261 0ded 9D010000 		.4byte	.LASF298
 3262 0df1 01       		.byte	0x1
 3263 0df2 6A03     		.2byte	0x36a
 3264 0df4 20010000 		.4byte	0x120
 3265 0df8 02       		.uleb128 0x2
 3266 0df9 91       		.byte	0x91
 3267 0dfa 70       		.sleb128 -16
 3268 0dfb 18       		.uleb128 0x18
 3269 0dfc CE050000 		.4byte	.LASF302
 3270 0e00 01       		.byte	0x1
 3271 0e01 6B03     		.2byte	0x36b
 3272 0e03 DD000000 		.4byte	0xdd
 3273 0e07 02       		.uleb128 0x2
 3274 0e08 91       		.byte	0x91
 3275 0e09 74       		.sleb128 -12
 3276 0e0a 00       		.byte	0
 3277 0e0b 15       		.uleb128 0x15
 3278 0e0c 2A110000 		.4byte	.LASF309
 3279 0e10 01       		.byte	0x1
 3280 0e11 B703     		.2byte	0x3b7
 3281 0e13 20010000 		.4byte	0x120
 3282 0e17 00000000 		.4byte	.LFB3
 3283 0e1b 78000000 		.4byte	.LFE3-.LFB3
 3284 0e1f 01       		.uleb128 0x1
 3285 0e20 9C       		.byte	0x9c
 3286 0e21 7F0E0000 		.4byte	0xe7f
 3287 0e25 16       		.uleb128 0x16
 3288 0e26 91040000 		.4byte	.LASF296
 3289 0e2a 01       		.byte	0x1
 3290 0e2b B703     		.2byte	0x3b7
 3291 0e2d 620C0000 		.4byte	0xc62
 3292 0e31 02       		.uleb128 0x2
 3293 0e32 91       		.byte	0x91
 3294 0e33 64       		.sleb128 -28
 3295 0e34 16       		.uleb128 0x16
 3296 0e35 9D010000 		.4byte	.LASF298
 3297 0e39 01       		.byte	0x1
 3298 0e3a B803     		.2byte	0x3b8
 3299 0e3c 20010000 		.4byte	0x120
 3300 0e40 02       		.uleb128 0x2
 3301 0e41 91       		.byte	0x91
 3302 0e42 60       		.sleb128 -32
 3303 0e43 17       		.uleb128 0x17
 3304 0e44 6F707400 		.ascii	"opt\000"
 3305 0e48 01       		.byte	0x1
 3306 0e49 B903     		.2byte	0x3b9
ARM GAS  C:\Users\ADMINI~1\AppData\Local\Temp\cc0ImMof.s 			page 84


 3307 0e4b 62010000 		.4byte	0x162
 3308 0e4f 02       		.uleb128 0x2
 3309 0e50 91       		.byte	0x91
 3310 0e51 5E       		.sleb128 -34
 3311 0e52 16       		.uleb128 0x16
 3312 0e53 47090000 		.4byte	.LASF299
 3313 0e57 01       		.byte	0x1
 3314 0e58 BA03     		.2byte	0x3ba
 3315 0e5a F30C0000 		.4byte	0xcf3
 3316 0e5e 02       		.uleb128 0x2
 3317 0e5f 91       		.byte	0x91
 3318 0e60 58       		.sleb128 -40
 3319 0e61 18       		.uleb128 0x18
 3320 0e62 6B0F0000 		.4byte	.LASF310
 3321 0e66 01       		.byte	0x1
 3322 0e67 BC03     		.2byte	0x3bc
 3323 0e69 20010000 		.4byte	0x120
 3324 0e6d 02       		.uleb128 0x2
 3325 0e6e 91       		.byte	0x91
 3326 0e6f 68       		.sleb128 -24
 3327 0e70 19       		.uleb128 0x19
 3328 0e71 747300   		.ascii	"ts\000"
 3329 0e74 01       		.byte	0x1
 3330 0e75 BD03     		.2byte	0x3bd
 3331 0e77 F4000000 		.4byte	0xf4
 3332 0e7b 02       		.uleb128 0x2
 3333 0e7c 91       		.byte	0x91
 3334 0e7d 6C       		.sleb128 -20
 3335 0e7e 00       		.byte	0
 3336 0e7f 1A       		.uleb128 0x1a
 3337 0e80 AB090000 		.4byte	.LASF312
 3338 0e84 01       		.byte	0x1
 3339 0e85 3904     		.2byte	0x439
 3340 0e87 00000000 		.4byte	.LFB4
 3341 0e8b 48000000 		.4byte	.LFE4-.LFB4
 3342 0e8f 01       		.uleb128 0x1
 3343 0e90 9C       		.byte	0x9c
 3344 0e91 E10E0000 		.4byte	0xee1
 3345 0e95 16       		.uleb128 0x16
 3346 0e96 5A090000 		.4byte	.LASF313
 3347 0e9a 01       		.byte	0x1
 3348 0e9b 3904     		.2byte	0x439
 3349 0e9d 500C0000 		.4byte	0xc50
 3350 0ea1 02       		.uleb128 0x2
 3351 0ea2 91       		.byte	0x91
 3352 0ea3 74       		.sleb128 -12
 3353 0ea4 16       		.uleb128 0x16
 3354 0ea5 91040000 		.4byte	.LASF296
 3355 0ea9 01       		.byte	0x1
 3356 0eaa 3A04     		.2byte	0x43a
 3357 0eac 620C0000 		.4byte	0xc62
 3358 0eb0 02       		.uleb128 0x2
 3359 0eb1 91       		.byte	0x91
 3360 0eb2 70       		.sleb128 -16
 3361 0eb3 16       		.uleb128 0x16
 3362 0eb4 9D010000 		.4byte	.LASF298
 3363 0eb8 01       		.byte	0x1
ARM GAS  C:\Users\ADMINI~1\AppData\Local\Temp\cc0ImMof.s 			page 85


 3364 0eb9 3B04     		.2byte	0x43b
 3365 0ebb 20010000 		.4byte	0x120
 3366 0ebf 02       		.uleb128 0x2
 3367 0ec0 91       		.byte	0x91
 3368 0ec1 6C       		.sleb128 -20
 3369 0ec2 17       		.uleb128 0x17
 3370 0ec3 6F707400 		.ascii	"opt\000"
 3371 0ec7 01       		.byte	0x1
 3372 0ec8 3C04     		.2byte	0x43c
 3373 0eca 62010000 		.4byte	0x162
 3374 0ece 02       		.uleb128 0x2
 3375 0ecf 91       		.byte	0x91
 3376 0ed0 6A       		.sleb128 -22
 3377 0ed1 16       		.uleb128 0x16
 3378 0ed2 81110000 		.4byte	.LASF300
 3379 0ed6 01       		.byte	0x1
 3380 0ed7 3D04     		.2byte	0x43d
 3381 0ed9 A4010000 		.4byte	0x1a4
 3382 0edd 02       		.uleb128 0x2
 3383 0ede 91       		.byte	0x91
 3384 0edf 00       		.sleb128 0
 3385 0ee0 00       		.byte	0
 3386 0ee1 1A       		.uleb128 0x1a
 3387 0ee2 BA030000 		.4byte	.LASF314
 3388 0ee6 01       		.byte	0x1
 3389 0ee7 5A04     		.2byte	0x45a
 3390 0ee9 00000000 		.4byte	.LFB5
 3391 0eed 38000000 		.4byte	.LFE5-.LFB5
 3392 0ef1 01       		.uleb128 0x1
 3393 0ef2 9C       		.byte	0x9c
 3394 0ef3 160F0000 		.4byte	0xf16
 3395 0ef7 16       		.uleb128 0x16
 3396 0ef8 91040000 		.4byte	.LASF296
 3397 0efc 01       		.byte	0x1
 3398 0efd 5A04     		.2byte	0x45a
 3399 0eff 620C0000 		.4byte	0xc62
 3400 0f03 02       		.uleb128 0x2
 3401 0f04 91       		.byte	0x91
 3402 0f05 6C       		.sleb128 -20
 3403 0f06 18       		.uleb128 0x18
 3404 0f07 65040000 		.4byte	.LASF315
 3405 0f0b 01       		.byte	0x1
 3406 0f0c 5C04     		.2byte	0x45c
 3407 0f0e 160F0000 		.4byte	0xf16
 3408 0f12 02       		.uleb128 0x2
 3409 0f13 91       		.byte	0x91
 3410 0f14 74       		.sleb128 -12
 3411 0f15 00       		.byte	0
 3412 0f16 05       		.uleb128 0x5
 3413 0f17 04       		.byte	0x4
 3414 0f18 A10B0000 		.4byte	0xba1
 3415 0f1c 1B       		.uleb128 0x1b
 3416 0f1d C10F0000 		.4byte	.LASF316
 3417 0f21 01       		.byte	0x1
 3418 0f22 7B04     		.2byte	0x47b
 3419 0f24 00000000 		.4byte	.LFB6
 3420 0f28 4C000000 		.4byte	.LFE6-.LFB6
ARM GAS  C:\Users\ADMINI~1\AppData\Local\Temp\cc0ImMof.s 			page 86


 3421 0f2c 01       		.uleb128 0x1
 3422 0f2d 9C       		.byte	0x9c
 3423 0f2e 420F0000 		.4byte	0xf42
 3424 0f32 16       		.uleb128 0x16
 3425 0f33 91040000 		.4byte	.LASF296
 3426 0f37 01       		.byte	0x1
 3427 0f38 7B04     		.2byte	0x47b
 3428 0f3a 620C0000 		.4byte	0xc62
 3429 0f3e 02       		.uleb128 0x2
 3430 0f3f 91       		.byte	0x91
 3431 0f40 74       		.sleb128 -12
 3432 0f41 00       		.byte	0
 3433 0f42 1B       		.uleb128 0x1b
 3434 0f43 3D070000 		.4byte	.LASF317
 3435 0f47 01       		.byte	0x1
 3436 0f48 8A04     		.2byte	0x48a
 3437 0f4a 00000000 		.4byte	.LFB7
 3438 0f4e 6C000000 		.4byte	.LFE7-.LFB7
 3439 0f52 01       		.uleb128 0x1
 3440 0f53 9C       		.byte	0x9c
 3441 0f54 860F0000 		.4byte	0xf86
 3442 0f58 16       		.uleb128 0x16
 3443 0f59 91040000 		.4byte	.LASF296
 3444 0f5d 01       		.byte	0x1
 3445 0f5e 8A04     		.2byte	0x48a
 3446 0f60 620C0000 		.4byte	0xc62
 3447 0f64 02       		.uleb128 0x2
 3448 0f65 91       		.byte	0x91
 3449 0f66 6C       		.sleb128 -20
 3450 0f67 18       		.uleb128 0x18
 3451 0f68 00060000 		.4byte	.LASF318
 3452 0f6c 01       		.byte	0x1
 3453 0f6d 8C04     		.2byte	0x48c
 3454 0f6f 620C0000 		.4byte	0xc62
 3455 0f73 02       		.uleb128 0x2
 3456 0f74 91       		.byte	0x91
 3457 0f75 70       		.sleb128 -16
 3458 0f76 18       		.uleb128 0x18
 3459 0f77 260A0000 		.4byte	.LASF319
 3460 0f7b 01       		.byte	0x1
 3461 0f7c 8D04     		.2byte	0x48d
 3462 0f7e 620C0000 		.4byte	0xc62
 3463 0f82 02       		.uleb128 0x2
 3464 0f83 91       		.byte	0x91
 3465 0f84 74       		.sleb128 -12
 3466 0f85 00       		.byte	0
 3467 0f86 15       		.uleb128 0x15
 3468 0f87 F3090000 		.4byte	.LASF320
 3469 0f8b 01       		.byte	0x1
 3470 0f8c D304     		.2byte	0x4d3
 3471 0f8e 20010000 		.4byte	0x120
 3472 0f92 00000000 		.4byte	.LFB8
 3473 0f96 A4010000 		.4byte	.LFE8-.LFB8
 3474 0f9a 01       		.uleb128 0x1
 3475 0f9b 9C       		.byte	0x9c
 3476 0f9c 63100000 		.4byte	0x1063
 3477 0fa0 16       		.uleb128 0x16
ARM GAS  C:\Users\ADMINI~1\AppData\Local\Temp\cc0ImMof.s 			page 87


 3478 0fa1 91040000 		.4byte	.LASF296
 3479 0fa5 01       		.byte	0x1
 3480 0fa6 D304     		.2byte	0x4d3
 3481 0fa8 620C0000 		.4byte	0xc62
 3482 0fac 02       		.uleb128 0x2
 3483 0fad 91       		.byte	0x91
 3484 0fae 54       		.sleb128 -44
 3485 0faf 16       		.uleb128 0x16
 3486 0fb0 9D010000 		.4byte	.LASF298
 3487 0fb4 01       		.byte	0x1
 3488 0fb5 D404     		.2byte	0x4d4
 3489 0fb7 20010000 		.4byte	0x120
 3490 0fbb 02       		.uleb128 0x2
 3491 0fbc 91       		.byte	0x91
 3492 0fbd 50       		.sleb128 -48
 3493 0fbe 17       		.uleb128 0x17
 3494 0fbf 6F707400 		.ascii	"opt\000"
 3495 0fc3 01       		.byte	0x1
 3496 0fc4 D504     		.2byte	0x4d5
 3497 0fc6 62010000 		.4byte	0x162
 3498 0fca 02       		.uleb128 0x2
 3499 0fcb 91       		.byte	0x91
 3500 0fcc 4E       		.sleb128 -50
 3501 0fcd 17       		.uleb128 0x17
 3502 0fce 747300   		.ascii	"ts\000"
 3503 0fd1 01       		.byte	0x1
 3504 0fd2 D604     		.2byte	0x4d6
 3505 0fd4 F4000000 		.4byte	0xf4
 3506 0fd8 02       		.uleb128 0x2
 3507 0fd9 91       		.byte	0x91
 3508 0fda 48       		.sleb128 -56
 3509 0fdb 16       		.uleb128 0x16
 3510 0fdc 47090000 		.4byte	.LASF299
 3511 0fe0 01       		.byte	0x1
 3512 0fe1 D704     		.2byte	0x4d7
 3513 0fe3 F30C0000 		.4byte	0xcf3
 3514 0fe7 02       		.uleb128 0x2
 3515 0fe8 91       		.byte	0x91
 3516 0fe9 00       		.sleb128 0
 3517 0fea 18       		.uleb128 0x18
 3518 0feb 6B0F0000 		.4byte	.LASF310
 3519 0fef 01       		.byte	0x1
 3520 0ff0 D904     		.2byte	0x4d9
 3521 0ff2 20010000 		.4byte	0x120
 3522 0ff6 02       		.uleb128 0x2
 3523 0ff7 91       		.byte	0x91
 3524 0ff8 58       		.sleb128 -40
 3525 0ff9 18       		.uleb128 0x18
 3526 0ffa F30F0000 		.4byte	.LASF304
 3527 0ffe 01       		.byte	0x1
 3528 0fff DA04     		.2byte	0x4da
 3529 1001 20010000 		.4byte	0x120
 3530 1005 02       		.uleb128 0x2
 3531 1006 91       		.byte	0x91
 3532 1007 5C       		.sleb128 -36
 3533 1008 18       		.uleb128 0x18
 3534 1009 4B040000 		.4byte	.LASF305
ARM GAS  C:\Users\ADMINI~1\AppData\Local\Temp\cc0ImMof.s 			page 88


 3535 100d 01       		.byte	0x1
 3536 100e DB04     		.2byte	0x4db
 3537 1010 62010000 		.4byte	0x162
 3538 1014 02       		.uleb128 0x2
 3539 1015 91       		.byte	0x91
 3540 1016 62       		.sleb128 -30
 3541 1017 18       		.uleb128 0x18
 3542 1018 5A090000 		.4byte	.LASF313
 3543 101c 01       		.byte	0x1
 3544 101d DC04     		.2byte	0x4dc
 3545 101f 500C0000 		.4byte	0xc50
 3546 1023 02       		.uleb128 0x2
 3547 1024 91       		.byte	0x91
 3548 1025 74       		.sleb128 -12
 3549 1026 18       		.uleb128 0x18
 3550 1027 A10C0000 		.4byte	.LASF321
 3551 102b 01       		.byte	0x1
 3552 102c DD04     		.2byte	0x4dd
 3553 102e 500C0000 		.4byte	0xc50
 3554 1032 02       		.uleb128 0x2
 3555 1033 91       		.byte	0x91
 3556 1034 64       		.sleb128 -28
 3557 1035 18       		.uleb128 0x18
 3558 1036 65040000 		.4byte	.LASF315
 3559 103a 01       		.byte	0x1
 3560 103b DE04     		.2byte	0x4de
 3561 103d 160F0000 		.4byte	0xf16
 3562 1041 02       		.uleb128 0x2
 3563 1042 91       		.byte	0x91
 3564 1043 68       		.sleb128 -24
 3565 1044 18       		.uleb128 0x18
 3566 1045 C20A0000 		.4byte	.LASF322
 3567 1049 01       		.byte	0x1
 3568 104a DF04     		.2byte	0x4df
 3569 104c 4A0C0000 		.4byte	0xc4a
 3570 1050 02       		.uleb128 0x2
 3571 1051 91       		.byte	0x91
 3572 1052 70       		.sleb128 -16
 3573 1053 18       		.uleb128 0x18
 3574 1054 CE050000 		.4byte	.LASF302
 3575 1058 01       		.byte	0x1
 3576 1059 E004     		.2byte	0x4e0
 3577 105b DD000000 		.4byte	0xdd
 3578 105f 02       		.uleb128 0x2
 3579 1060 91       		.byte	0x91
 3580 1061 6C       		.sleb128 -20
 3581 1062 00       		.byte	0
 3582 1063 1A       		.uleb128 0x1a
 3583 1064 A9080000 		.4byte	.LASF323
 3584 1068 01       		.byte	0x1
 3585 1069 5C05     		.2byte	0x55c
 3586 106b 00000000 		.4byte	.LFB9
 3587 106f 80000000 		.4byte	.LFE9-.LFB9
 3588 1073 01       		.uleb128 0x1
 3589 1074 9C       		.byte	0x9c
 3590 1075 A6100000 		.4byte	0x10a6
 3591 1079 16       		.uleb128 0x16
ARM GAS  C:\Users\ADMINI~1\AppData\Local\Temp\cc0ImMof.s 			page 89


 3592 107a C20A0000 		.4byte	.LASF322
 3593 107e 01       		.byte	0x1
 3594 107f 5C05     		.2byte	0x55c
 3595 1081 4A0C0000 		.4byte	0xc4a
 3596 1085 02       		.uleb128 0x2
 3597 1086 91       		.byte	0x91
 3598 1087 74       		.sleb128 -12
 3599 1088 16       		.uleb128 0x16
 3600 1089 F30F0000 		.4byte	.LASF304
 3601 108d 01       		.byte	0x1
 3602 108e 5D05     		.2byte	0x55d
 3603 1090 20010000 		.4byte	0x120
 3604 1094 02       		.uleb128 0x2
 3605 1095 91       		.byte	0x91
 3606 1096 70       		.sleb128 -16
 3607 1097 17       		.uleb128 0x17
 3608 1098 747300   		.ascii	"ts\000"
 3609 109b 01       		.byte	0x1
 3610 109c 5E05     		.2byte	0x55e
 3611 109e F4000000 		.4byte	0xf4
 3612 10a2 02       		.uleb128 0x2
 3613 10a3 91       		.byte	0x91
 3614 10a4 6C       		.sleb128 -20
 3615 10a5 00       		.byte	0
 3616 10a6 1C       		.uleb128 0x1c
 3617 10a7 CB0D0000 		.4byte	.LASF324
 3618 10ab 05       		.byte	0x5
 3619 10ac 2405     		.2byte	0x524
 3620 10ae 41010000 		.4byte	0x141
 3621 10b2 1C       		.uleb128 0x1c
 3622 10b3 7F120000 		.4byte	.LASF325
 3623 10b7 05       		.byte	0x5
 3624 10b8 3F05     		.2byte	0x53f
 3625 10ba 620C0000 		.4byte	0xc62
 3626 10be 1C       		.uleb128 0x1c
 3627 10bf C9120000 		.4byte	.LASF326
 3628 10c3 05       		.byte	0x5
 3629 10c4 4005     		.2byte	0x540
 3630 10c6 4C010000 		.4byte	0x14c
 3631 10ca 1C       		.uleb128 0x1c
 3632 10cb 53110000 		.4byte	.LASF327
 3633 10cf 05       		.byte	0x5
 3634 10d0 7905     		.2byte	0x579
 3635 10d2 41010000 		.4byte	0x141
 3636 10d6 1C       		.uleb128 0x1c
 3637 10d7 30020000 		.4byte	.LASF328
 3638 10db 05       		.byte	0x5
 3639 10dc D505     		.2byte	0x5d5
 3640 10de 4A0C0000 		.4byte	0xc4a
 3641 10e2 00       		.byte	0
 3642              		.section	.debug_abbrev,"",%progbits
 3643              	.Ldebug_abbrev0:
 3644 0000 01       		.uleb128 0x1
 3645 0001 11       		.uleb128 0x11
 3646 0002 01       		.byte	0x1
 3647 0003 25       		.uleb128 0x25
 3648 0004 0E       		.uleb128 0xe
ARM GAS  C:\Users\ADMINI~1\AppData\Local\Temp\cc0ImMof.s 			page 90


 3649 0005 13       		.uleb128 0x13
 3650 0006 0B       		.uleb128 0xb
 3651 0007 03       		.uleb128 0x3
 3652 0008 0E       		.uleb128 0xe
 3653 0009 1B       		.uleb128 0x1b
 3654 000a 0E       		.uleb128 0xe
 3655 000b 55       		.uleb128 0x55
 3656 000c 17       		.uleb128 0x17
 3657 000d 11       		.uleb128 0x11
 3658 000e 01       		.uleb128 0x1
 3659 000f 10       		.uleb128 0x10
 3660 0010 17       		.uleb128 0x17
 3661 0011 00       		.byte	0
 3662 0012 00       		.byte	0
 3663 0013 02       		.uleb128 0x2
 3664 0014 16       		.uleb128 0x16
 3665 0015 00       		.byte	0
 3666 0016 03       		.uleb128 0x3
 3667 0017 0E       		.uleb128 0xe
 3668 0018 3A       		.uleb128 0x3a
 3669 0019 0B       		.uleb128 0xb
 3670 001a 3B       		.uleb128 0x3b
 3671 001b 0B       		.uleb128 0xb
 3672 001c 49       		.uleb128 0x49
 3673 001d 13       		.uleb128 0x13
 3674 001e 00       		.byte	0
 3675 001f 00       		.byte	0
 3676 0020 03       		.uleb128 0x3
 3677 0021 24       		.uleb128 0x24
 3678 0022 00       		.byte	0
 3679 0023 0B       		.uleb128 0xb
 3680 0024 0B       		.uleb128 0xb
 3681 0025 3E       		.uleb128 0x3e
 3682 0026 0B       		.uleb128 0xb
 3683 0027 03       		.uleb128 0x3
 3684 0028 0E       		.uleb128 0xe
 3685 0029 00       		.byte	0
 3686 002a 00       		.byte	0
 3687 002b 04       		.uleb128 0x4
 3688 002c 24       		.uleb128 0x24
 3689 002d 00       		.byte	0
 3690 002e 0B       		.uleb128 0xb
 3691 002f 0B       		.uleb128 0xb
 3692 0030 3E       		.uleb128 0x3e
 3693 0031 0B       		.uleb128 0xb
 3694 0032 03       		.uleb128 0x3
 3695 0033 08       		.uleb128 0x8
 3696 0034 00       		.byte	0
 3697 0035 00       		.byte	0
 3698 0036 05       		.uleb128 0x5
 3699 0037 0F       		.uleb128 0xf
 3700 0038 00       		.byte	0
 3701 0039 0B       		.uleb128 0xb
 3702 003a 0B       		.uleb128 0xb
 3703 003b 49       		.uleb128 0x49
 3704 003c 13       		.uleb128 0x13
 3705 003d 00       		.byte	0
ARM GAS  C:\Users\ADMINI~1\AppData\Local\Temp\cc0ImMof.s 			page 91


 3706 003e 00       		.byte	0
 3707 003f 06       		.uleb128 0x6
 3708 0040 15       		.uleb128 0x15
 3709 0041 01       		.byte	0x1
 3710 0042 27       		.uleb128 0x27
 3711 0043 19       		.uleb128 0x19
 3712 0044 01       		.uleb128 0x1
 3713 0045 13       		.uleb128 0x13
 3714 0046 00       		.byte	0
 3715 0047 00       		.byte	0
 3716 0048 07       		.uleb128 0x7
 3717 0049 05       		.uleb128 0x5
 3718 004a 00       		.byte	0
 3719 004b 49       		.uleb128 0x49
 3720 004c 13       		.uleb128 0x13
 3721 004d 00       		.byte	0
 3722 004e 00       		.byte	0
 3723 004f 08       		.uleb128 0x8
 3724 0050 0F       		.uleb128 0xf
 3725 0051 00       		.byte	0
 3726 0052 0B       		.uleb128 0xb
 3727 0053 0B       		.uleb128 0xb
 3728 0054 00       		.byte	0
 3729 0055 00       		.byte	0
 3730 0056 09       		.uleb128 0x9
 3731 0057 16       		.uleb128 0x16
 3732 0058 00       		.byte	0
 3733 0059 03       		.uleb128 0x3
 3734 005a 0E       		.uleb128 0xe
 3735 005b 3A       		.uleb128 0x3a
 3736 005c 0B       		.uleb128 0xb
 3737 005d 3B       		.uleb128 0x3b
 3738 005e 05       		.uleb128 0x5
 3739 005f 49       		.uleb128 0x49
 3740 0060 13       		.uleb128 0x13
 3741 0061 00       		.byte	0
 3742 0062 00       		.byte	0
 3743 0063 0A       		.uleb128 0xa
 3744 0064 04       		.uleb128 0x4
 3745 0065 01       		.byte	0x1
 3746 0066 03       		.uleb128 0x3
 3747 0067 0E       		.uleb128 0xe
 3748 0068 0B       		.uleb128 0xb
 3749 0069 0B       		.uleb128 0xb
 3750 006a 49       		.uleb128 0x49
 3751 006b 13       		.uleb128 0x13
 3752 006c 3A       		.uleb128 0x3a
 3753 006d 0B       		.uleb128 0xb
 3754 006e 3B       		.uleb128 0x3b
 3755 006f 05       		.uleb128 0x5
 3756 0070 01       		.uleb128 0x1
 3757 0071 13       		.uleb128 0x13
 3758 0072 00       		.byte	0
 3759 0073 00       		.byte	0
 3760 0074 0B       		.uleb128 0xb
 3761 0075 28       		.uleb128 0x28
 3762 0076 00       		.byte	0
ARM GAS  C:\Users\ADMINI~1\AppData\Local\Temp\cc0ImMof.s 			page 92


 3763 0077 03       		.uleb128 0x3
 3764 0078 0E       		.uleb128 0xe
 3765 0079 1C       		.uleb128 0x1c
 3766 007a 0B       		.uleb128 0xb
 3767 007b 00       		.byte	0
 3768 007c 00       		.byte	0
 3769 007d 0C       		.uleb128 0xc
 3770 007e 28       		.uleb128 0x28
 3771 007f 00       		.byte	0
 3772 0080 03       		.uleb128 0x3
 3773 0081 0E       		.uleb128 0xe
 3774 0082 1C       		.uleb128 0x1c
 3775 0083 05       		.uleb128 0x5
 3776 0084 00       		.byte	0
 3777 0085 00       		.byte	0
 3778 0086 0D       		.uleb128 0xd
 3779 0087 13       		.uleb128 0x13
 3780 0088 01       		.byte	0x1
 3781 0089 03       		.uleb128 0x3
 3782 008a 0E       		.uleb128 0xe
 3783 008b 0B       		.uleb128 0xb
 3784 008c 0B       		.uleb128 0xb
 3785 008d 3A       		.uleb128 0x3a
 3786 008e 0B       		.uleb128 0xb
 3787 008f 3B       		.uleb128 0x3b
 3788 0090 05       		.uleb128 0x5
 3789 0091 01       		.uleb128 0x1
 3790 0092 13       		.uleb128 0x13
 3791 0093 00       		.byte	0
 3792 0094 00       		.byte	0
 3793 0095 0E       		.uleb128 0xe
 3794 0096 0D       		.uleb128 0xd
 3795 0097 00       		.byte	0
 3796 0098 03       		.uleb128 0x3
 3797 0099 0E       		.uleb128 0xe
 3798 009a 3A       		.uleb128 0x3a
 3799 009b 0B       		.uleb128 0xb
 3800 009c 3B       		.uleb128 0x3b
 3801 009d 05       		.uleb128 0x5
 3802 009e 49       		.uleb128 0x49
 3803 009f 13       		.uleb128 0x13
 3804 00a0 38       		.uleb128 0x38
 3805 00a1 0B       		.uleb128 0xb
 3806 00a2 00       		.byte	0
 3807 00a3 00       		.byte	0
 3808 00a4 0F       		.uleb128 0xf
 3809 00a5 0D       		.uleb128 0xd
 3810 00a6 00       		.byte	0
 3811 00a7 03       		.uleb128 0x3
 3812 00a8 08       		.uleb128 0x8
 3813 00a9 3A       		.uleb128 0x3a
 3814 00aa 0B       		.uleb128 0xb
 3815 00ab 3B       		.uleb128 0x3b
 3816 00ac 05       		.uleb128 0x5
 3817 00ad 49       		.uleb128 0x49
 3818 00ae 13       		.uleb128 0x13
 3819 00af 38       		.uleb128 0x38
ARM GAS  C:\Users\ADMINI~1\AppData\Local\Temp\cc0ImMof.s 			page 93


 3820 00b0 0B       		.uleb128 0xb
 3821 00b1 00       		.byte	0
 3822 00b2 00       		.byte	0
 3823 00b3 10       		.uleb128 0x10
 3824 00b4 01       		.uleb128 0x1
 3825 00b5 01       		.byte	0x1
 3826 00b6 49       		.uleb128 0x49
 3827 00b7 13       		.uleb128 0x13
 3828 00b8 01       		.uleb128 0x1
 3829 00b9 13       		.uleb128 0x13
 3830 00ba 00       		.byte	0
 3831 00bb 00       		.byte	0
 3832 00bc 11       		.uleb128 0x11
 3833 00bd 21       		.uleb128 0x21
 3834 00be 00       		.byte	0
 3835 00bf 49       		.uleb128 0x49
 3836 00c0 13       		.uleb128 0x13
 3837 00c1 2F       		.uleb128 0x2f
 3838 00c2 0B       		.uleb128 0xb
 3839 00c3 00       		.byte	0
 3840 00c4 00       		.byte	0
 3841 00c5 12       		.uleb128 0x12
 3842 00c6 2E       		.uleb128 0x2e
 3843 00c7 01       		.byte	0x1
 3844 00c8 3F       		.uleb128 0x3f
 3845 00c9 19       		.uleb128 0x19
 3846 00ca 03       		.uleb128 0x3
 3847 00cb 0E       		.uleb128 0xe
 3848 00cc 3A       		.uleb128 0x3a
 3849 00cd 0B       		.uleb128 0xb
 3850 00ce 3B       		.uleb128 0x3b
 3851 00cf 0B       		.uleb128 0xb
 3852 00d0 27       		.uleb128 0x27
 3853 00d1 19       		.uleb128 0x19
 3854 00d2 11       		.uleb128 0x11
 3855 00d3 01       		.uleb128 0x1
 3856 00d4 12       		.uleb128 0x12
 3857 00d5 06       		.uleb128 0x6
 3858 00d6 40       		.uleb128 0x40
 3859 00d7 18       		.uleb128 0x18
 3860 00d8 9642     		.uleb128 0x2116
 3861 00da 19       		.uleb128 0x19
 3862 00db 01       		.uleb128 0x1
 3863 00dc 13       		.uleb128 0x13
 3864 00dd 00       		.byte	0
 3865 00de 00       		.byte	0
 3866 00df 13       		.uleb128 0x13
 3867 00e0 05       		.uleb128 0x5
 3868 00e1 00       		.byte	0
 3869 00e2 03       		.uleb128 0x3
 3870 00e3 0E       		.uleb128 0xe
 3871 00e4 3A       		.uleb128 0x3a
 3872 00e5 0B       		.uleb128 0xb
 3873 00e6 3B       		.uleb128 0x3b
 3874 00e7 0B       		.uleb128 0xb
 3875 00e8 49       		.uleb128 0x49
 3876 00e9 13       		.uleb128 0x13
ARM GAS  C:\Users\ADMINI~1\AppData\Local\Temp\cc0ImMof.s 			page 94


 3877 00ea 02       		.uleb128 0x2
 3878 00eb 18       		.uleb128 0x18
 3879 00ec 00       		.byte	0
 3880 00ed 00       		.byte	0
 3881 00ee 14       		.uleb128 0x14
 3882 00ef 34       		.uleb128 0x34
 3883 00f0 00       		.byte	0
 3884 00f1 03       		.uleb128 0x3
 3885 00f2 0E       		.uleb128 0xe
 3886 00f3 3A       		.uleb128 0x3a
 3887 00f4 0B       		.uleb128 0xb
 3888 00f5 3B       		.uleb128 0x3b
 3889 00f6 0B       		.uleb128 0xb
 3890 00f7 49       		.uleb128 0x49
 3891 00f8 13       		.uleb128 0x13
 3892 00f9 02       		.uleb128 0x2
 3893 00fa 18       		.uleb128 0x18
 3894 00fb 00       		.byte	0
 3895 00fc 00       		.byte	0
 3896 00fd 15       		.uleb128 0x15
 3897 00fe 2E       		.uleb128 0x2e
 3898 00ff 01       		.byte	0x1
 3899 0100 3F       		.uleb128 0x3f
 3900 0101 19       		.uleb128 0x19
 3901 0102 03       		.uleb128 0x3
 3902 0103 0E       		.uleb128 0xe
 3903 0104 3A       		.uleb128 0x3a
 3904 0105 0B       		.uleb128 0xb
 3905 0106 3B       		.uleb128 0x3b
 3906 0107 05       		.uleb128 0x5
 3907 0108 27       		.uleb128 0x27
 3908 0109 19       		.uleb128 0x19
 3909 010a 49       		.uleb128 0x49
 3910 010b 13       		.uleb128 0x13
 3911 010c 11       		.uleb128 0x11
 3912 010d 01       		.uleb128 0x1
 3913 010e 12       		.uleb128 0x12
 3914 010f 06       		.uleb128 0x6
 3915 0110 40       		.uleb128 0x40
 3916 0111 18       		.uleb128 0x18
 3917 0112 9642     		.uleb128 0x2116
 3918 0114 19       		.uleb128 0x19
 3919 0115 01       		.uleb128 0x1
 3920 0116 13       		.uleb128 0x13
 3921 0117 00       		.byte	0
 3922 0118 00       		.byte	0
 3923 0119 16       		.uleb128 0x16
 3924 011a 05       		.uleb128 0x5
 3925 011b 00       		.byte	0
 3926 011c 03       		.uleb128 0x3
 3927 011d 0E       		.uleb128 0xe
 3928 011e 3A       		.uleb128 0x3a
 3929 011f 0B       		.uleb128 0xb
 3930 0120 3B       		.uleb128 0x3b
 3931 0121 05       		.uleb128 0x5
 3932 0122 49       		.uleb128 0x49
 3933 0123 13       		.uleb128 0x13
ARM GAS  C:\Users\ADMINI~1\AppData\Local\Temp\cc0ImMof.s 			page 95


 3934 0124 02       		.uleb128 0x2
 3935 0125 18       		.uleb128 0x18
 3936 0126 00       		.byte	0
 3937 0127 00       		.byte	0
 3938 0128 17       		.uleb128 0x17
 3939 0129 05       		.uleb128 0x5
 3940 012a 00       		.byte	0
 3941 012b 03       		.uleb128 0x3
 3942 012c 08       		.uleb128 0x8
 3943 012d 3A       		.uleb128 0x3a
 3944 012e 0B       		.uleb128 0xb
 3945 012f 3B       		.uleb128 0x3b
 3946 0130 05       		.uleb128 0x5
 3947 0131 49       		.uleb128 0x49
 3948 0132 13       		.uleb128 0x13
 3949 0133 02       		.uleb128 0x2
 3950 0134 18       		.uleb128 0x18
 3951 0135 00       		.byte	0
 3952 0136 00       		.byte	0
 3953 0137 18       		.uleb128 0x18
 3954 0138 34       		.uleb128 0x34
 3955 0139 00       		.byte	0
 3956 013a 03       		.uleb128 0x3
 3957 013b 0E       		.uleb128 0xe
 3958 013c 3A       		.uleb128 0x3a
 3959 013d 0B       		.uleb128 0xb
 3960 013e 3B       		.uleb128 0x3b
 3961 013f 05       		.uleb128 0x5
 3962 0140 49       		.uleb128 0x49
 3963 0141 13       		.uleb128 0x13
 3964 0142 02       		.uleb128 0x2
 3965 0143 18       		.uleb128 0x18
 3966 0144 00       		.byte	0
 3967 0145 00       		.byte	0
 3968 0146 19       		.uleb128 0x19
 3969 0147 34       		.uleb128 0x34
 3970 0148 00       		.byte	0
 3971 0149 03       		.uleb128 0x3
 3972 014a 08       		.uleb128 0x8
 3973 014b 3A       		.uleb128 0x3a
 3974 014c 0B       		.uleb128 0xb
 3975 014d 3B       		.uleb128 0x3b
 3976 014e 05       		.uleb128 0x5
 3977 014f 49       		.uleb128 0x49
 3978 0150 13       		.uleb128 0x13
 3979 0151 02       		.uleb128 0x2
 3980 0152 18       		.uleb128 0x18
 3981 0153 00       		.byte	0
 3982 0154 00       		.byte	0
 3983 0155 1A       		.uleb128 0x1a
 3984 0156 2E       		.uleb128 0x2e
 3985 0157 01       		.byte	0x1
 3986 0158 3F       		.uleb128 0x3f
 3987 0159 19       		.uleb128 0x19
 3988 015a 03       		.uleb128 0x3
 3989 015b 0E       		.uleb128 0xe
 3990 015c 3A       		.uleb128 0x3a
ARM GAS  C:\Users\ADMINI~1\AppData\Local\Temp\cc0ImMof.s 			page 96


 3991 015d 0B       		.uleb128 0xb
 3992 015e 3B       		.uleb128 0x3b
 3993 015f 05       		.uleb128 0x5
 3994 0160 27       		.uleb128 0x27
 3995 0161 19       		.uleb128 0x19
 3996 0162 11       		.uleb128 0x11
 3997 0163 01       		.uleb128 0x1
 3998 0164 12       		.uleb128 0x12
 3999 0165 06       		.uleb128 0x6
 4000 0166 40       		.uleb128 0x40
 4001 0167 18       		.uleb128 0x18
 4002 0168 9642     		.uleb128 0x2116
 4003 016a 19       		.uleb128 0x19
 4004 016b 01       		.uleb128 0x1
 4005 016c 13       		.uleb128 0x13
 4006 016d 00       		.byte	0
 4007 016e 00       		.byte	0
 4008 016f 1B       		.uleb128 0x1b
 4009 0170 2E       		.uleb128 0x2e
 4010 0171 01       		.byte	0x1
 4011 0172 3F       		.uleb128 0x3f
 4012 0173 19       		.uleb128 0x19
 4013 0174 03       		.uleb128 0x3
 4014 0175 0E       		.uleb128 0xe
 4015 0176 3A       		.uleb128 0x3a
 4016 0177 0B       		.uleb128 0xb
 4017 0178 3B       		.uleb128 0x3b
 4018 0179 05       		.uleb128 0x5
 4019 017a 27       		.uleb128 0x27
 4020 017b 19       		.uleb128 0x19
 4021 017c 11       		.uleb128 0x11
 4022 017d 01       		.uleb128 0x1
 4023 017e 12       		.uleb128 0x12
 4024 017f 06       		.uleb128 0x6
 4025 0180 40       		.uleb128 0x40
 4026 0181 18       		.uleb128 0x18
 4027 0182 9742     		.uleb128 0x2117
 4028 0184 19       		.uleb128 0x19
 4029 0185 01       		.uleb128 0x1
 4030 0186 13       		.uleb128 0x13
 4031 0187 00       		.byte	0
 4032 0188 00       		.byte	0
 4033 0189 1C       		.uleb128 0x1c
 4034 018a 34       		.uleb128 0x34
 4035 018b 00       		.byte	0
 4036 018c 03       		.uleb128 0x3
 4037 018d 0E       		.uleb128 0xe
 4038 018e 3A       		.uleb128 0x3a
 4039 018f 0B       		.uleb128 0xb
 4040 0190 3B       		.uleb128 0x3b
 4041 0191 05       		.uleb128 0x5
 4042 0192 49       		.uleb128 0x49
 4043 0193 13       		.uleb128 0x13
 4044 0194 3F       		.uleb128 0x3f
 4045 0195 19       		.uleb128 0x19
 4046 0196 3C       		.uleb128 0x3c
 4047 0197 19       		.uleb128 0x19
ARM GAS  C:\Users\ADMINI~1\AppData\Local\Temp\cc0ImMof.s 			page 97


 4048 0198 00       		.byte	0
 4049 0199 00       		.byte	0
 4050 019a 00       		.byte	0
 4051              		.section	.debug_aranges,"",%progbits
 4052 0000 64000000 		.4byte	0x64
 4053 0004 0200     		.2byte	0x2
 4054 0006 00000000 		.4byte	.Ldebug_info0
 4055 000a 04       		.byte	0x4
 4056 000b 00       		.byte	0
 4057 000c 0000     		.2byte	0
 4058 000e 0000     		.2byte	0
 4059 0010 00000000 		.4byte	.LFB0
 4060 0014 A0000000 		.4byte	.LFE0-.LFB0
 4061 0018 00000000 		.4byte	.LFB1
 4062 001c 28040000 		.4byte	.LFE1-.LFB1
 4063 0020 00000000 		.4byte	.LFB2
 4064 0024 5C000000 		.4byte	.LFE2-.LFB2
 4065 0028 00000000 		.4byte	.LFB3
 4066 002c 78000000 		.4byte	.LFE3-.LFB3
 4067 0030 00000000 		.4byte	.LFB4
 4068 0034 48000000 		.4byte	.LFE4-.LFB4
 4069 0038 00000000 		.4byte	.LFB5
 4070 003c 38000000 		.4byte	.LFE5-.LFB5
 4071 0040 00000000 		.4byte	.LFB6
 4072 0044 4C000000 		.4byte	.LFE6-.LFB6
 4073 0048 00000000 		.4byte	.LFB7
 4074 004c 6C000000 		.4byte	.LFE7-.LFB7
 4075 0050 00000000 		.4byte	.LFB8
 4076 0054 A4010000 		.4byte	.LFE8-.LFB8
 4077 0058 00000000 		.4byte	.LFB9
 4078 005c 80000000 		.4byte	.LFE9-.LFB9
 4079 0060 00000000 		.4byte	0
 4080 0064 00000000 		.4byte	0
 4081              		.section	.debug_ranges,"",%progbits
 4082              	.Ldebug_ranges0:
 4083 0000 00000000 		.4byte	.LFB0
 4084 0004 A0000000 		.4byte	.LFE0
 4085 0008 00000000 		.4byte	.LFB1
 4086 000c 28040000 		.4byte	.LFE1
 4087 0010 00000000 		.4byte	.LFB2
 4088 0014 5C000000 		.4byte	.LFE2
 4089 0018 00000000 		.4byte	.LFB3
 4090 001c 78000000 		.4byte	.LFE3
 4091 0020 00000000 		.4byte	.LFB4
 4092 0024 48000000 		.4byte	.LFE4
 4093 0028 00000000 		.4byte	.LFB5
 4094 002c 38000000 		.4byte	.LFE5
 4095 0030 00000000 		.4byte	.LFB6
 4096 0034 4C000000 		.4byte	.LFE6
 4097 0038 00000000 		.4byte	.LFB7
 4098 003c 6C000000 		.4byte	.LFE7
 4099 0040 00000000 		.4byte	.LFB8
 4100 0044 A4010000 		.4byte	.LFE8
 4101 0048 00000000 		.4byte	.LFB9
 4102 004c 80000000 		.4byte	.LFE9
 4103 0050 00000000 		.4byte	0
 4104 0054 00000000 		.4byte	0
ARM GAS  C:\Users\ADMINI~1\AppData\Local\Temp\cc0ImMof.s 			page 98


 4105              		.section	.debug_line,"",%progbits
 4106              	.Ldebug_line0:
 4107 0000 A2020000 		.section	.debug_str,"MS",%progbits,1
 4107      0200CD00 
 4107      00000201 
 4107      FB0E0D00 
 4107      01010101 
 4108              	.LASF234:
 4109 0000 6F735F74 		.ascii	"os_tcb\000"
 4109      636200
 4110              	.LASF109:
 4111 0007 4F535F45 		.ascii	"OS_ERR_PRIO_INVALID\000"
 4111      52525F50 
 4111      52494F5F 
 4111      494E5641 
 4111      4C494400 
 4112              	.LASF204:
 4113 001b 4F535F45 		.ascii	"OS_ERR\000"
 4113      525200
 4114              	.LASF22:
 4115 0022 4F535F43 		.ascii	"OS_CTX_SW_CTR\000"
 4115      54585F53 
 4115      575F4354 
 4115      5200
 4116              	.LASF189:
 4117 0030 4F535F45 		.ascii	"OS_ERR_TMR_ISR\000"
 4117      52525F54 
 4117      4D525F49 
 4117      535200
 4118              	.LASF176:
 4119 003f 4F535F45 		.ascii	"OS_ERR_TIME_INVALID_MINUTES\000"
 4119      52525F54 
 4119      494D455F 
 4119      494E5641 
 4119      4C49445F 
 4120              	.LASF38:
 4121 005b 4F535F45 		.ascii	"OS_ERR_A\000"
 4121      52525F41 
 4121      00
 4122              	.LASF40:
 4123 0064 4F535F45 		.ascii	"OS_ERR_B\000"
 4123      52525F42 
 4123      00
 4124              	.LASF41:
 4125 006d 4F535F45 		.ascii	"OS_ERR_C\000"
 4125      52525F43 
 4125      00
 4126              	.LASF43:
 4127 0076 4F535F45 		.ascii	"OS_ERR_D\000"
 4127      52525F44 
 4127      00
 4128              	.LASF45:
 4129 007f 4F535F45 		.ascii	"OS_ERR_E\000"
 4129      52525F45 
 4129      00
 4130              	.LASF46:
 4131 0088 4F535F45 		.ascii	"OS_ERR_F\000"
ARM GAS  C:\Users\ADMINI~1\AppData\Local\Temp\cc0ImMof.s 			page 99


 4131      52525F46 
 4131      00
 4132              	.LASF331:
 4133 0091 443A5C43 		.ascii	"D:\\CYTEST\\Micrium_CY8CKIT-044_OS3\\Examples\\Cypr"
 4133      59544553 
 4133      545C4D69 
 4133      63726975 
 4133      6D5F4359 
 4134 00c0 6573735C 		.ascii	"ess\\CY8CKIT-044\\OS3\\PSoC\\OS3.cydsn\000"
 4134      43593843 
 4134      4B49542D 
 4134      3034345C 
 4134      4F53335C 
 4135              	.LASF53:
 4136 00e3 4F535F45 		.ascii	"OS_ERR_H\000"
 4136      52525F48 
 4136      00
 4137              	.LASF54:
 4138 00ec 4F535F45 		.ascii	"OS_ERR_I\000"
 4138      52525F49 
 4138      00
 4139              	.LASF62:
 4140 00f5 4F535F45 		.ascii	"OS_ERR_J\000"
 4140      52525F4A 
 4140      00
 4141              	.LASF63:
 4142 00fe 4F535F45 		.ascii	"OS_ERR_K\000"
 4142      52525F4B 
 4142      00
 4143              	.LASF64:
 4144 0107 4F535F45 		.ascii	"OS_ERR_L\000"
 4144      52525F4C 
 4144      00
 4145              	.LASF66:
 4146 0110 4F535F45 		.ascii	"OS_ERR_M\000"
 4146      52525F4D 
 4146      00
 4147              	.LASF83:
 4148 0119 4F535F45 		.ascii	"OS_ERR_N\000"
 4148      52525F4E 
 4148      00
 4149              	.LASF86:
 4150 0122 4F535F45 		.ascii	"OS_ERR_O\000"
 4150      52525F4F 
 4150      00
 4151              	.LASF96:
 4152 012b 4F535F45 		.ascii	"OS_ERR_P\000"
 4152      52525F50 
 4152      00
 4153              	.LASF111:
 4154 0134 4F535F45 		.ascii	"OS_ERR_Q\000"
 4154      52525F51 
 4154      00
 4155              	.LASF116:
 4156 013d 4F535F45 		.ascii	"OS_ERR_R\000"
 4156      52525F52 
 4156      00
ARM GAS  C:\Users\ADMINI~1\AppData\Local\Temp\cc0ImMof.s 			page 100


 4157              	.LASF120:
 4158 0146 4F535F45 		.ascii	"OS_ERR_S\000"
 4158      52525F53 
 4158      00
 4159              	.LASF137:
 4160 014f 4F535F45 		.ascii	"OS_ERR_T\000"
 4160      52525F54 
 4160      00
 4161              	.LASF197:
 4162 0158 4F535F45 		.ascii	"OS_ERR_U\000"
 4162      52525F55 
 4162      00
 4163              	.LASF198:
 4164 0161 4F535F45 		.ascii	"OS_ERR_V\000"
 4164      52525F56 
 4164      00
 4165              	.LASF199:
 4166 016a 4F535F45 		.ascii	"OS_ERR_W\000"
 4166      52525F57 
 4166      00
 4167              	.LASF200:
 4168 0173 4F535F45 		.ascii	"OS_ERR_X\000"
 4168      52525F58 
 4168      00
 4169              	.LASF186:
 4170 017c 4F535F45 		.ascii	"OS_ERR_TMR_INVALID_PERIOD\000"
 4170      52525F54 
 4170      4D525F49 
 4170      4E56414C 
 4170      49445F50 
 4171              	.LASF332:
 4172 0196 6F735F65 		.ascii	"os_err\000"
 4172      727200
 4173              	.LASF298:
 4174 019d 666C6167 		.ascii	"flags\000"
 4174      7300
 4175              	.LASF225:
 4176 01a3 4E627245 		.ascii	"NbrEntries\000"
 4176      6E747269 
 4176      657300
 4177              	.LASF214:
 4178 01ae 6F735F66 		.ascii	"os_flag_grp\000"
 4178      6C61675F 
 4178      67727000 
 4179              	.LASF58:
 4180 01ba 4F535F45 		.ascii	"OS_ERR_INT_Q_SIZE\000"
 4180      52525F49 
 4180      4E545F51 
 4180      5F53495A 
 4180      4500
 4181              	.LASF42:
 4182 01cc 4F535F45 		.ascii	"OS_ERR_CREATE_ISR\000"
 4182      52525F43 
 4182      52454154 
 4182      455F4953 
 4182      5200
 4183              	.LASF231:
ARM GAS  C:\Users\ADMINI~1\AppData\Local\Temp\cc0ImMof.s 			page 101


 4184 01de 4F776E65 		.ascii	"OwnerNestingCtr\000"
 4184      724E6573 
 4184      74696E67 
 4184      43747200 
 4185              	.LASF21:
 4186 01ee 4F535F43 		.ascii	"OS_CPU_USAGE\000"
 4186      50555F55 
 4186      53414745 
 4186      00
 4187              	.LASF170:
 4188 01fb 4F535F45 		.ascii	"OS_ERR_TICK_STK_SIZE_INVALID\000"
 4188      52525F54 
 4188      49434B5F 
 4188      53544B5F 
 4188      53495A45 
 4189              	.LASF9:
 4190 0218 4350555F 		.ascii	"CPU_INT32U\000"
 4190      494E5433 
 4190      325500
 4191              	.LASF311:
 4192 0223 4F53466C 		.ascii	"OSFlagCreate\000"
 4192      61674372 
 4192      65617465 
 4192      00
 4193              	.LASF328:
 4194 0230 4F535443 		.ascii	"OSTCBCurPtr\000"
 4194      42437572 
 4194      50747200 
 4195              	.LASF227:
 4196 023c 4F535F4D 		.ascii	"OS_MUTEX\000"
 4196      55544558 
 4196      00
 4197              	.LASF134:
 4198 0245 4F535F45 		.ascii	"OS_ERR_STK_INVALID\000"
 4198      52525F53 
 4198      544B5F49 
 4198      4E56414C 
 4198      494400
 4199              	.LASF262:
 4200 0258 466C6167 		.ascii	"FlagsOpt\000"
 4200      734F7074 
 4200      00
 4201              	.LASF150:
 4202 0261 4F535F45 		.ascii	"OS_ERR_TASK_RESUME_ISR\000"
 4202      52525F54 
 4202      41534B5F 
 4202      52455355 
 4202      4D455F49 
 4203              	.LASF104:
 4204 0278 4F535F45 		.ascii	"OS_ERR_PEND_WOULD_BLOCK\000"
 4204      52525F50 
 4204      454E445F 
 4204      574F554C 
 4204      445F424C 
 4205              	.LASF138:
 4206 0290 4F535F45 		.ascii	"OS_ERR_TASK_CHANGE_PRIO_ISR\000"
 4206      52525F54 
ARM GAS  C:\Users\ADMINI~1\AppData\Local\Temp\cc0ImMof.s 			page 102


 4206      41534B5F 
 4206      4348414E 
 4206      47455F50 
 4207              	.LASF251:
 4208 02ac 4D757465 		.ascii	"MutexGrpHeadPtr\000"
 4208      78477270 
 4208      48656164 
 4208      50747200 
 4209              	.LASF61:
 4210 02bc 4F535F45 		.ascii	"OS_ERR_ILLEGAL_DEL_RUN_TIME\000"
 4210      52525F49 
 4210      4C4C4547 
 4210      414C5F44 
 4210      454C5F52 
 4211              	.LASF128:
 4212 02d8 4F535F45 		.ascii	"OS_ERR_STAT_RESET_ISR\000"
 4212      52525F53 
 4212      5441545F 
 4212      52455345 
 4212      545F4953 
 4213              	.LASF103:
 4214 02ee 4F535F45 		.ascii	"OS_ERR_PEND_LOCKED\000"
 4214      52525F50 
 4214      454E445F 
 4214      4C4F434B 
 4214      454400
 4215              	.LASF329:
 4216 0301 474E5520 		.ascii	"GNU C11 5.4.1 20160609 (release) [ARM/embedded-5-br"
 4216      43313120 
 4216      352E342E 
 4216      31203230 
 4216      31363036 
 4217 0334 616E6368 		.ascii	"anch revision 237715] -mcpu=cortex-m0 -mthumb -g -O"
 4217      20726576 
 4217      6973696F 
 4217      6E203233 
 4217      37373135 
 4218 0367 30202D66 		.ascii	"0 -ffunction-sections -ffat-lto-objects\000"
 4218      66756E63 
 4218      74696F6E 
 4218      2D736563 
 4218      74696F6E 
 4219              	.LASF148:
 4220 038f 4F535F45 		.ascii	"OS_ERR_TASK_NOT_SUSPENDED\000"
 4220      52525F54 
 4220      41534B5F 
 4220      4E4F545F 
 4220      53555350 
 4221              	.LASF82:
 4222 03a9 4F535F45 		.ascii	"OS_ERR_MUTEX_OVF\000"
 4222      52525F4D 
 4222      55544558 
 4222      5F4F5646 
 4222      00
 4223              	.LASF314:
 4224 03ba 4F535F46 		.ascii	"OS_FlagClr\000"
 4224      6C616743 
ARM GAS  C:\Users\ADMINI~1\AppData\Local\Temp\cc0ImMof.s 			page 103


 4224      6C7200
 4225              	.LASF146:
 4226 03c5 4F535F45 		.ascii	"OS_ERR_TASK_NOT_DLY\000"
 4226      52525F54 
 4226      41534B5F 
 4226      4E4F545F 
 4226      444C5900 
 4227              	.LASF209:
 4228 03d9 44626750 		.ascii	"DbgPrevPtr\000"
 4228      72657650 
 4228      747200
 4229              	.LASF56:
 4230 03e4 4F535F45 		.ascii	"OS_ERR_INT_Q\000"
 4230      52525F49 
 4230      4E545F51 
 4230      00
 4231              	.LASF210:
 4232 03f1 4462674E 		.ascii	"DbgNextPtr\000"
 4232      65787450 
 4232      747200
 4233              	.LASF276:
 4234 03fc 53636865 		.ascii	"SchedLockTimeMax\000"
 4234      644C6F63 
 4234      6B54696D 
 4234      654D6178 
 4234      00
 4235              	.LASF160:
 4236 040d 4F535F45 		.ascii	"OS_ERR_TASK_WAITING\000"
 4236      52525F54 
 4236      41534B5F 
 4236      57414954 
 4236      494E4700 
 4237              	.LASF39:
 4238 0421 4F535F45 		.ascii	"OS_ERR_ACCEPT_ISR\000"
 4238      52525F41 
 4238      43434550 
 4238      545F4953 
 4238      5200
 4239              	.LASF158:
 4240 0433 4F535F45 		.ascii	"OS_ERR_TASK_SUSPEND_ISR\000"
 4240      52525F54 
 4240      41534B5F 
 4240      53555350 
 4240      454E445F 
 4241              	.LASF305:
 4242 044b 6D6F6465 		.ascii	"mode\000"
 4242      00
 4243              	.LASF81:
 4244 0450 4F535F45 		.ascii	"OS_ERR_MUTEX_NESTING\000"
 4244      52525F4D 
 4244      55544558 
 4244      5F4E4553 
 4244      54494E47 
 4245              	.LASF315:
 4246 0465 705F7065 		.ascii	"p_pend_list\000"
 4246      6E645F6C 
 4246      69737400 
ARM GAS  C:\Users\ADMINI~1\AppData\Local\Temp\cc0ImMof.s 			page 104


 4247              	.LASF187:
 4248 0471 4F535F45 		.ascii	"OS_ERR_TMR_INVALID_STATE\000"
 4248      52525F54 
 4248      4D525F49 
 4248      4E56414C 
 4248      49445F53 
 4249              	.LASF246:
 4250 048a 50656E64 		.ascii	"PendOn\000"
 4250      4F6E00
 4251              	.LASF296:
 4252 0491 705F6772 		.ascii	"p_grp\000"
 4252      7000
 4253              	.LASF87:
 4254 0497 4F535F45 		.ascii	"OS_ERR_OBJ_CREATED\000"
 4254      52525F4F 
 4254      424A5F43 
 4254      52454154 
 4254      454400
 4255              	.LASF279:
 4256 04aa 5443425F 		.ascii	"TCB_Ptr\000"
 4256      50747200 
 4257              	.LASF292:
 4258 04b2 5461696C 		.ascii	"TailPtr\000"
 4258      50747200 
 4259              	.LASF156:
 4260 04ba 4F535F45 		.ascii	"OS_ERR_TASK_SUSPEND_IDLE\000"
 4260      52525F54 
 4260      41534B5F 
 4260      53555350 
 4260      454E445F 
 4261              	.LASF57:
 4262 04d3 4F535F45 		.ascii	"OS_ERR_INT_Q_FULL\000"
 4262      52525F49 
 4262      4E545F51 
 4262      5F46554C 
 4262      4C00
 4263              	.LASF286:
 4264 04e5 5264794D 		.ascii	"RdyMsgPtr\000"
 4264      73675074 
 4264      7200
 4265              	.LASF294:
 4266 04ef 6F735F70 		.ascii	"os_pend_obj\000"
 4266      656E645F 
 4266      6F626A00 
 4267              	.LASF55:
 4268 04fb 4F535F45 		.ascii	"OS_ERR_ILLEGAL_CREATE_RUN_TIME\000"
 4268      52525F49 
 4268      4C4C4547 
 4268      414C5F43 
 4268      52454154 
 4269              	.LASF260:
 4270 051a 466C6167 		.ascii	"FlagsPend\000"
 4270      7350656E 
 4270      6400
 4271              	.LASF185:
 4272 0524 4F535F45 		.ascii	"OS_ERR_TMR_INVALID_DLY\000"
 4272      52525F54 
ARM GAS  C:\Users\ADMINI~1\AppData\Local\Temp\cc0ImMof.s 			page 105


 4272      4D525F49 
 4272      4E56414C 
 4272      49445F44 
 4273              	.LASF28:
 4274 053b 4F535F4F 		.ascii	"OS_OBJ_QTY\000"
 4274      424A5F51 
 4274      545900
 4275              	.LASF230:
 4276 0546 4F776E65 		.ascii	"OwnerTCBPtr\000"
 4276      72544342 
 4276      50747200 
 4277              	.LASF266:
 4278 0552 43747853 		.ascii	"CtxSwCtr\000"
 4278      77437472 
 4278      00
 4279              	.LASF151:
 4280 055b 4F535F45 		.ascii	"OS_ERR_TASK_RESUME_PRIO\000"
 4280      52525F54 
 4280      41534B5F 
 4280      52455355 
 4280      4D455F50 
 4281              	.LASF212:
 4282 0573 466C6167 		.ascii	"Flags\000"
 4282      7300
 4283              	.LASF31:
 4284 0579 4F535F50 		.ascii	"OS_PRIO\000"
 4284      52494F00 
 4285              	.LASF13:
 4286 0581 666C6F61 		.ascii	"float\000"
 4286      7400
 4287              	.LASF105:
 4288 0587 4F535F45 		.ascii	"OS_ERR_POST_NULL_PTR\000"
 4288      52525F50 
 4288      4F53545F 
 4288      4E554C4C 
 4288      5F505452 
 4289              	.LASF85:
 4290 059c 4F535F45 		.ascii	"OS_ERR_NO_MORE_ID_AVAIL\000"
 4290      52525F4E 
 4290      4F5F4D4F 
 4290      52455F49 
 4290      445F4156 
 4291              	.LASF74:
 4292 05b4 4F535F45 		.ascii	"OS_ERR_MEM_INVALID_P_DATA\000"
 4292      52525F4D 
 4292      454D5F49 
 4292      4E56414C 
 4292      49445F50 
 4293              	.LASF302:
 4294 05ce 6370755F 		.ascii	"cpu_sr\000"
 4294      737200
 4295              	.LASF190:
 4296 05d5 4F535F45 		.ascii	"OS_ERR_TMR_NO_CALLBACK\000"
 4296      52525F54 
 4296      4D525F4E 
 4296      4F5F4341 
 4296      4C4C4241 
ARM GAS  C:\Users\ADMINI~1\AppData\Local\Temp\cc0ImMof.s 			page 106


 4297              	.LASF183:
 4298 05ec 4F535F45 		.ascii	"OS_ERR_TMR_INACTIVE\000"
 4298      52525F54 
 4298      4D525F49 
 4298      4E414354 
 4298      49564500 
 4299              	.LASF318:
 4300 0600 705F6772 		.ascii	"p_grp_next\000"
 4300      705F6E65 
 4300      787400
 4301              	.LASF163:
 4302 060b 4F535F45 		.ascii	"OS_ERR_TLS_ID_INVALID\000"
 4302      52525F54 
 4302      4C535F49 
 4302      445F494E 
 4302      56414C49 
 4303              	.LASF11:
 4304 0621 6C6F6E67 		.ascii	"long long unsigned int\000"
 4304      206C6F6E 
 4304      6720756E 
 4304      7369676E 
 4304      65642069 
 4305              	.LASF153:
 4306 0638 4F535F45 		.ascii	"OS_ERR_TASK_RUNNING\000"
 4306      52525F54 
 4306      41534B5F 
 4306      52554E4E 
 4306      494E4700 
 4307              	.LASF273:
 4308 064c 53746B55 		.ascii	"StkUsed\000"
 4308      73656400 
 4309              	.LASF188:
 4310 0654 4F535F45 		.ascii	"OS_ERR_TMR_INVALID\000"
 4310      52525F54 
 4310      4D525F49 
 4310      4E56414C 
 4310      494400
 4311              	.LASF281:
 4312 0667 4F535F50 		.ascii	"OS_PEND_DATA\000"
 4312      454E445F 
 4312      44415441 
 4312      00
 4313              	.LASF157:
 4314 0674 4F535F45 		.ascii	"OS_ERR_TASK_SUSPEND_INT_HANDLER\000"
 4314      52525F54 
 4314      41534B5F 
 4314      53555350 
 4314      454E445F 
 4315              	.LASF142:
 4316 0694 4F535F45 		.ascii	"OS_ERR_TASK_DEL_INVALID\000"
 4316      52525F54 
 4316      41534B5F 
 4316      44454C5F 
 4316      494E5641 
 4317              	.LASF280:
 4318 06ac 4E627255 		.ascii	"NbrUpdated\000"
 4318      70646174 
ARM GAS  C:\Users\ADMINI~1\AppData\Local\Temp\cc0ImMof.s 			page 107


 4318      656400
 4319              	.LASF193:
 4320 06b7 4F535F45 		.ascii	"OS_ERR_TMR_STK_INVALID\000"
 4320      52525F54 
 4320      4D525F53 
 4320      544B5F49 
 4320      4E56414C 
 4321              	.LASF4:
 4322 06ce 4350555F 		.ascii	"CPU_INT08U\000"
 4322      494E5430 
 4322      385500
 4323              	.LASF215:
 4324 06d9 6F735F6D 		.ascii	"os_msg\000"
 4324      736700
 4325              	.LASF162:
 4326 06e0 4F535F45 		.ascii	"OS_ERR_TCB_INVALID\000"
 4326      52525F54 
 4326      43425F49 
 4326      4E56414C 
 4326      494400
 4327              	.LASF252:
 4328 06f3 53746B53 		.ascii	"StkSize\000"
 4328      697A6500 
 4329              	.LASF242:
 4330 06fb 53746B42 		.ascii	"StkBasePtr\000"
 4330      61736550 
 4330      747200
 4331              	.LASF113:
 4332 0706 4F535F45 		.ascii	"OS_ERR_Q_EMPTY\000"
 4332      52525F51 
 4332      5F454D50 
 4332      545900
 4333              	.LASF178:
 4334 0715 4F535F45 		.ascii	"OS_ERR_TIME_INVALID_MILLISECONDS\000"
 4334      52525F54 
 4334      494D455F 
 4334      494E5641 
 4334      4C49445F 
 4335              	.LASF32:
 4336 0736 4F535F52 		.ascii	"OS_REG\000"
 4336      454700
 4337              	.LASF317:
 4338 073d 4F535F46 		.ascii	"OS_FlagDbgListRemove\000"
 4338      6C616744 
 4338      62674C69 
 4338      73745265 
 4338      6D6F7665 
 4339              	.LASF84:
 4340 0752 4F535F45 		.ascii	"OS_ERR_NAME\000"
 4340      52525F4E 
 4340      414D4500 
 4341              	.LASF35:
 4342 075e 4F535F53 		.ascii	"OS_STATUS\000"
 4342      54415455 
 4342      5300
 4343              	.LASF248:
 4344 0768 5461736B 		.ascii	"TaskState\000"
ARM GAS  C:\Users\ADMINI~1\AppData\Local\Temp\cc0ImMof.s 			page 108


 4344      53746174 
 4344      6500
 4345              	.LASF167:
 4346 0772 4F535F45 		.ascii	"OS_ERR_TLS_DESTRUCT_ASSIGNED\000"
 4346      52525F54 
 4346      4C535F44 
 4346      45535452 
 4346      5543545F 
 4347              	.LASF79:
 4348 078f 4F535F45 		.ascii	"OS_ERR_MUTEX_NOT_OWNER\000"
 4348      52525F4D 
 4348      55544558 
 4348      5F4E4F54 
 4348      5F4F574E 
 4349              	.LASF26:
 4350 07a6 4F535F4D 		.ascii	"OS_MSG_SIZE\000"
 4350      53475F53 
 4350      495A4500 
 4351              	.LASF175:
 4352 07b2 4F535F45 		.ascii	"OS_ERR_TIME_INVALID_HOURS\000"
 4352      52525F54 
 4352      494D455F 
 4352      494E5641 
 4352      4C49445F 
 4353              	.LASF191:
 4354 07cc 4F535F45 		.ascii	"OS_ERR_TMR_NON_AVAIL\000"
 4354      52525F54 
 4354      4D525F4E 
 4354      4F4E5F41 
 4354      5641494C 
 4355              	.LASF0:
 4356 07e1 4350555F 		.ascii	"CPU_CHAR\000"
 4356      43484152 
 4356      00
 4357              	.LASF139:
 4358 07ea 4F535F45 		.ascii	"OS_ERR_TASK_CREATE_ISR\000"
 4358      52525F54 
 4358      41534B5F 
 4358      43524541 
 4358      54455F49 
 4359              	.LASF17:
 4360 0801 4350555F 		.ascii	"CPU_STK_SIZE\000"
 4360      53544B5F 
 4360      53495A45 
 4360      00
 4361              	.LASF25:
 4362 080e 4F535F4D 		.ascii	"OS_MSG_QTY\000"
 4362      53475F51 
 4362      545900
 4363              	.LASF93:
 4364 0819 4F535F45 		.ascii	"OS_ERR_OS_RUNNING\000"
 4364      52525F4F 
 4364      535F5255 
 4364      4E4E494E 
 4364      4700
 4365              	.LASF274:
 4366 082b 53746B46 		.ascii	"StkFree\000"
ARM GAS  C:\Users\ADMINI~1\AppData\Local\Temp\cc0ImMof.s 			page 109


 4366      72656500 
 4367              	.LASF255:
 4368 0833 5469636B 		.ascii	"TickCtrPrev\000"
 4368      43747250 
 4368      72657600 
 4369              	.LASF224:
 4370 083f 4E627245 		.ascii	"NbrEntriesSize\000"
 4370      6E747269 
 4370      65735369 
 4370      7A6500
 4371              	.LASF181:
 4372 084e 4F535F45 		.ascii	"OS_ERR_TIME_ZERO_DLY\000"
 4372      52525F54 
 4372      494D455F 
 4372      5A45524F 
 4372      5F444C59 
 4373              	.LASF240:
 4374 0863 5469636B 		.ascii	"TickPrevPtr\000"
 4374      50726576 
 4374      50747200 
 4375              	.LASF261:
 4376 086f 466C6167 		.ascii	"FlagsRdy\000"
 4376      73526479 
 4376      00
 4377              	.LASF130:
 4378 0878 4F535F45 		.ascii	"OS_ERR_STAT_STK_INVALID\000"
 4378      52525F53 
 4378      5441545F 
 4378      53544B5F 
 4378      494E5641 
 4379              	.LASF48:
 4380 0890 4F535F45 		.ascii	"OS_ERR_FLAG_GRP_DEPLETED\000"
 4380      52525F46 
 4380      4C41475F 
 4380      4752505F 
 4380      4445504C 
 4381              	.LASF323:
 4382 08a9 4F535F46 		.ascii	"OS_FlagTaskRdy\000"
 4382      6C616754 
 4382      61736B52 
 4382      647900
 4383              	.LASF70:
 4384 08b8 4F535F45 		.ascii	"OS_ERR_MEM_INVALID_BLKS\000"
 4384      52525F4D 
 4384      454D5F49 
 4384      4E56414C 
 4384      49445F42 
 4385              	.LASF250:
 4386 08d0 42617365 		.ascii	"BasePrio\000"
 4386      5072696F 
 4386      00
 4387              	.LASF258:
 4388 08d9 4D736751 		.ascii	"MsgQPendTimeMax\000"
 4388      50656E64 
 4388      54696D65 
 4388      4D617800 
 4389              	.LASF94:
ARM GAS  C:\Users\ADMINI~1\AppData\Local\Temp\cc0ImMof.s 			page 110


 4390 08e9 4F535F45 		.ascii	"OS_ERR_OS_NOT_INIT\000"
 4390      52525F4F 
 4390      535F4E4F 
 4390      545F494E 
 4390      495400
 4391              	.LASF213:
 4392 08fc 4F535F4D 		.ascii	"OS_MSG\000"
 4392      534700
 4393              	.LASF297:
 4394 0903 705F6E61 		.ascii	"p_name\000"
 4394      6D6500
 4395              	.LASF184:
 4396 090a 4F535F45 		.ascii	"OS_ERR_TMR_INVALID_DEST\000"
 4396      52525F54 
 4396      4D525F49 
 4396      4E56414C 
 4396      49445F44 
 4397              	.LASF122:
 4398 0922 4F535F45 		.ascii	"OS_ERR_SCHED_LOCK_ISR\000"
 4398      52525F53 
 4398      43484544 
 4398      5F4C4F43 
 4398      4B5F4953 
 4399              	.LASF44:
 4400 0938 4F535F45 		.ascii	"OS_ERR_DEL_ISR\000"
 4400      52525F44 
 4400      454C5F49 
 4400      535200
 4401              	.LASF299:
 4402 0947 705F6572 		.ascii	"p_err\000"
 4402      7200
 4403              	.LASF114:
 4404 094d 4F535F45 		.ascii	"OS_ERR_Q_MAX\000"
 4404      52525F51 
 4404      5F4D4158 
 4404      00
 4405              	.LASF313:
 4406 095a 705F7065 		.ascii	"p_pend_data\000"
 4406      6E645F64 
 4406      61746100 
 4407              	.LASF238:
 4408 0966 50726576 		.ascii	"PrevPtr\000"
 4408      50747200 
 4409              	.LASF2:
 4410 096e 63686172 		.ascii	"char\000"
 4410      00
 4411              	.LASF29:
 4412 0973 4F535F4F 		.ascii	"OS_OBJ_TYPE\000"
 4412      424A5F54 
 4412      59504500 
 4413              	.LASF166:
 4414 097f 4F535F45 		.ascii	"OS_ERR_TLS_NOT_EN\000"
 4414      52525F54 
 4414      4C535F4E 
 4414      4F545F45 
 4414      4E00
 4415              	.LASF91:
ARM GAS  C:\Users\ADMINI~1\AppData\Local\Temp\cc0ImMof.s 			page 111


 4416 0991 4F535F45 		.ascii	"OS_ERR_OPT_INVALID\000"
 4416      52525F4F 
 4416      50545F49 
 4416      4E56414C 
 4416      494400
 4417              	.LASF18:
 4418 09a4 4350555F 		.ascii	"CPU_SR\000"
 4418      535200
 4419              	.LASF312:
 4420 09ab 4F535F46 		.ascii	"OS_FlagBlock\000"
 4420      6C616742 
 4420      6C6F636B 
 4420      00
 4421              	.LASF121:
 4422 09b8 4F535F45 		.ascii	"OS_ERR_SCHED_INVALID_TIME_SLICE\000"
 4422      52525F53 
 4422      43484544 
 4422      5F494E56 
 4422      414C4944 
 4423              	.LASF95:
 4424 09d8 4F535F45 		.ascii	"OS_ERR_OS_NO_APP_TASK\000"
 4424      52525F4F 
 4424      535F4E4F 
 4424      5F415050 
 4424      5F544153 
 4425              	.LASF256:
 4426 09ee 4D736751 		.ascii	"MsgQ\000"
 4426      00
 4427              	.LASF320:
 4428 09f3 4F535F46 		.ascii	"OS_FlagPost\000"
 4428      6C616750 
 4428      6F737400 
 4429              	.LASF243:
 4430 09ff 5461736B 		.ascii	"TaskEntryAddr\000"
 4430      456E7472 
 4430      79416464 
 4430      7200
 4431              	.LASF129:
 4432 0a0d 4F535F45 		.ascii	"OS_ERR_STAT_PRIO_INVALID\000"
 4432      52525F53 
 4432      5441545F 
 4432      5052494F 
 4432      5F494E56 
 4433              	.LASF319:
 4434 0a26 705F6772 		.ascii	"p_grp_prev\000"
 4434      705F7072 
 4434      657600
 4435              	.LASF179:
 4436 0a31 4F535F45 		.ascii	"OS_ERR_TIME_NOT_DLY\000"
 4436      52525F54 
 4436      494D455F 
 4436      4E4F545F 
 4436      444C5900 
 4437              	.LASF207:
 4438 0a45 4E616D65 		.ascii	"NamePtr\000"
 4438      50747200 
 4439              	.LASF247:
ARM GAS  C:\Users\ADMINI~1\AppData\Local\Temp\cc0ImMof.s 			page 112


 4440 0a4d 50656E64 		.ascii	"PendStatus\000"
 4440      53746174 
 4440      757300
 4441              	.LASF220:
 4442 0a58 4F535F4D 		.ascii	"OS_MSG_Q\000"
 4442      53475F51 
 4442      00
 4443              	.LASF206:
 4444 0a61 54797065 		.ascii	"Type\000"
 4444      00
 4445              	.LASF202:
 4446 0a66 4F535F45 		.ascii	"OS_ERR_YIELD_ISR\000"
 4446      52525F59 
 4446      49454C44 
 4446      5F495352 
 4446      00
 4447              	.LASF88:
 4448 0a77 4F535F45 		.ascii	"OS_ERR_OBJ_DEL\000"
 4448      52525F4F 
 4448      424A5F44 
 4448      454C00
 4449              	.LASF307:
 4450 0a86 4F53466C 		.ascii	"OSFlagPend\000"
 4450      61675065 
 4450      6E6400
 4451              	.LASF20:
 4452 0a91 4350555F 		.ascii	"CPU_TS\000"
 4452      545300
 4453              	.LASF12:
 4454 0a98 6C6F6E67 		.ascii	"long long int\000"
 4454      206C6F6E 
 4454      6720696E 
 4454      7400
 4455              	.LASF50:
 4456 0aa6 4F535F45 		.ascii	"OS_ERR_FLAG_PEND_OPT\000"
 4456      52525F46 
 4456      4C41475F 
 4456      50454E44 
 4456      5F4F5054 
 4457              	.LASF235:
 4458 0abb 53746B50 		.ascii	"StkPtr\000"
 4458      747200
 4459              	.LASF322:
 4460 0ac2 705F7463 		.ascii	"p_tcb\000"
 4460      6200
 4461              	.LASF161:
 4462 0ac8 4F535F45 		.ascii	"OS_ERR_TASK_SUSPEND_CTR_OVF\000"
 4462      52525F54 
 4462      41534B5F 
 4462      53555350 
 4462      454E445F 
 4463              	.LASF115:
 4464 0ae4 4F535F45 		.ascii	"OS_ERR_Q_SIZE\000"
 4464      52525F51 
 4464      5F53495A 
 4464      4500
 4465              	.LASF268:
ARM GAS  C:\Users\ADMINI~1\AppData\Local\Temp\cc0ImMof.s 			page 113


 4466 0af2 4379636C 		.ascii	"CyclesStart\000"
 4466      65735374 
 4466      61727400 
 4467              	.LASF306:
 4468 0afe 70656E64 		.ascii	"pend_data\000"
 4468      5F646174 
 4468      6100
 4469              	.LASF283:
 4470 0b08 54434250 		.ascii	"TCBPtr\000"
 4470      747200
 4471              	.LASF100:
 4472 0b0f 4F535F45 		.ascii	"OS_ERR_PEND_ABORT_SELF\000"
 4472      52525F50 
 4472      454E445F 
 4472      41424F52 
 4472      545F5345 
 4473              	.LASF6:
 4474 0b26 4350555F 		.ascii	"CPU_INT16U\000"
 4474      494E5431 
 4474      365500
 4475              	.LASF119:
 4476 0b31 4F535F45 		.ascii	"OS_ERR_ROUND_ROBIN_DISABLED\000"
 4476      52525F52 
 4476      4F554E44 
 4476      5F524F42 
 4476      494E5F44 
 4477              	.LASF303:
 4478 0b4d 636F6E73 		.ascii	"consume\000"
 4478      756D6500 
 4479              	.LASF71:
 4480 0b55 4F535F45 		.ascii	"OS_ERR_MEM_INVALID_PART\000"
 4480      52525F4D 
 4480      454D5F49 
 4480      4E56414C 
 4480      49445F50 
 4481              	.LASF89:
 4482 0b6d 4F535F45 		.ascii	"OS_ERR_OBJ_PTR_NULL\000"
 4482      52525F4F 
 4482      424A5F50 
 4482      54525F4E 
 4482      554C4C00 
 4483              	.LASF117:
 4484 0b81 4F535F45 		.ascii	"OS_ERR_REG_ID_INVALID\000"
 4484      52525F52 
 4484      45475F49 
 4484      445F494E 
 4484      56414C49 
 4485              	.LASF36:
 4486 0b97 4F535F54 		.ascii	"OS_TICK\000"
 4486      49434B00 
 4487              	.LASF68:
 4488 0b9f 4F535F45 		.ascii	"OS_ERR_MEM_FULL\000"
 4488      52525F4D 
 4488      454D5F46 
 4488      554C4C00 
 4489              	.LASF145:
 4490 0baf 4F535F45 		.ascii	"OS_ERR_TASK_NO_MORE_TCB\000"
ARM GAS  C:\Users\ADMINI~1\AppData\Local\Temp\cc0ImMof.s 			page 114


 4490      52525F54 
 4490      41534B5F 
 4490      4E4F5F4D 
 4490      4F52455F 
 4491              	.LASF73:
 4492 0bc7 4F535F45 		.ascii	"OS_ERR_MEM_INVALID_P_MEM\000"
 4492      52525F4D 
 4492      454D5F49 
 4492      4E56414C 
 4492      49445F50 
 4493              	.LASF19:
 4494 0be0 4350555F 		.ascii	"CPU_TS32\000"
 4494      54533332 
 4494      00
 4495              	.LASF263:
 4496 0be9 53757370 		.ascii	"SuspendCtr\000"
 4496      656E6443 
 4496      747200
 4497              	.LASF237:
 4498 0bf4 53746B4C 		.ascii	"StkLimitPtr\000"
 4498      696D6974 
 4498      50747200 
 4499              	.LASF267:
 4500 0c00 4379636C 		.ascii	"CyclesDelta\000"
 4500      65734465 
 4500      6C746100 
 4501              	.LASF33:
 4502 0c0c 4F535F53 		.ascii	"OS_SEM_CTR\000"
 4502      454D5F43 
 4502      545200
 4503              	.LASF194:
 4504 0c17 4F535F45 		.ascii	"OS_ERR_TMR_STK_SIZE_INVALID\000"
 4504      52525F54 
 4504      4D525F53 
 4504      544B5F53 
 4504      495A455F 
 4505              	.LASF171:
 4506 0c33 4F535F45 		.ascii	"OS_ERR_TICK_WHEEL_SIZE\000"
 4506      52525F54 
 4506      49434B5F 
 4506      57484545 
 4506      4C5F5349 
 4507              	.LASF330:
 4508 0c4a 2E2E5C2E 		.ascii	"..\\..\\..\\..\\..\\..\\Software\\uCOS-III\\Source\\"
 4508      2E5C2E2E 
 4508      5C2E2E5C 
 4508      2E2E5C2E 
 4508      2E5C536F 
 4509 0c75 6F735F66 		.ascii	"os_flag.c\000"
 4509      6C61672E 
 4509      6300
 4510              	.LASF239:
 4511 0c7f 5469636B 		.ascii	"TickNextPtr\000"
 4511      4E657874 
 4511      50747200 
 4512              	.LASF147:
 4513 0c8b 4F535F45 		.ascii	"OS_ERR_TASK_NOT_EXIST\000"
ARM GAS  C:\Users\ADMINI~1\AppData\Local\Temp\cc0ImMof.s 			page 115


 4513      52525F54 
 4513      41534B5F 
 4513      4E4F545F 
 4513      45584953 
 4514              	.LASF321:
 4515 0ca1 705F7065 		.ascii	"p_pend_data_next\000"
 4515      6E645F64 
 4515      6174615F 
 4515      6E657874 
 4515      00
 4516              	.LASF144:
 4517 0cb2 4F535F45 		.ascii	"OS_ERR_TASK_INVALID\000"
 4517      52525F54 
 4517      41534B5F 
 4517      494E5641 
 4517      4C494400 
 4518              	.LASF192:
 4519 0cc6 4F535F45 		.ascii	"OS_ERR_TMR_PRIO_INVALID\000"
 4519      52525F54 
 4519      4D525F50 
 4519      52494F5F 
 4519      494E5641 
 4520              	.LASF301:
 4521 0cde 705F7473 		.ascii	"p_ts\000"
 4521      00
 4522              	.LASF159:
 4523 0ce3 4F535F45 		.ascii	"OS_ERR_TASK_SUSPEND_PRIO\000"
 4523      52525F54 
 4523      41534B5F 
 4523      53555350 
 4523      454E445F 
 4524              	.LASF285:
 4525 0cfc 5264794F 		.ascii	"RdyObjPtr\000"
 4525      626A5074 
 4525      7200
 4526              	.LASF60:
 4527 0d06 4F535F45 		.ascii	"OS_ERR_INT_Q_STK_SIZE_INVALID\000"
 4527      52525F49 
 4527      4E545F51 
 4527      5F53544B 
 4527      5F53495A 
 4528              	.LASF164:
 4529 0d24 4F535F45 		.ascii	"OS_ERR_TLS_ISR\000"
 4529      52525F54 
 4529      4C535F49 
 4529      535200
 4530              	.LASF196:
 4531 0d33 4F535F45 		.ascii	"OS_ERR_TMR_INVALID_CALLBACK\000"
 4531      52525F54 
 4531      4D525F49 
 4531      4E56414C 
 4531      49445F43 
 4532              	.LASF143:
 4533 0d4f 4F535F45 		.ascii	"OS_ERR_TASK_DEL_ISR\000"
 4533      52525F54 
 4533      41534B5F 
 4533      44454C5F 
ARM GAS  C:\Users\ADMINI~1\AppData\Local\Temp\cc0ImMof.s 			page 116


 4533      49535200 
 4534              	.LASF271:
 4535 0d63 53656D50 		.ascii	"SemPendTime\000"
 4535      656E6454 
 4535      696D6500 
 4536              	.LASF110:
 4537 0d6f 4F535F45 		.ascii	"OS_ERR_PTR_INVALID\000"
 4537      52525F50 
 4537      54525F49 
 4537      4E56414C 
 4537      494400
 4538              	.LASF132:
 4539 0d82 4F535F45 		.ascii	"OS_ERR_STATE_INVALID\000"
 4539      52525F53 
 4539      54415445 
 4539      5F494E56 
 4539      414C4944 
 4540              	.LASF216:
 4541 0d97 4E657874 		.ascii	"NextPtr\000"
 4541      50747200 
 4542              	.LASF92:
 4543 0d9f 4F535F45 		.ascii	"OS_ERR_OS_NOT_RUNNING\000"
 4543      52525F4F 
 4543      535F4E4F 
 4543      545F5255 
 4543      4E4E494E 
 4544              	.LASF257:
 4545 0db5 4D736751 		.ascii	"MsgQPendTime\000"
 4545      50656E64 
 4545      54696D65 
 4545      00
 4546              	.LASF228:
 4547 0dc2 6F735F6D 		.ascii	"os_mutex\000"
 4547      75746578 
 4547      00
 4548              	.LASF324:
 4549 0dcb 4F53496E 		.ascii	"OSIntNestingCtr\000"
 4549      744E6573 
 4549      74696E67 
 4549      43747200 
 4550              	.LASF241:
 4551 0ddb 5469636B 		.ascii	"TickListPtr\000"
 4551      4C697374 
 4551      50747200 
 4552              	.LASF180:
 4553 0de7 4F535F45 		.ascii	"OS_ERR_TIME_SET_ISR\000"
 4553      52525F54 
 4553      494D455F 
 4553      5345545F 
 4553      49535200 
 4554              	.LASF118:
 4555 0dfb 4F535F45 		.ascii	"OS_ERR_ROUND_ROBIN_1\000"
 4555      52525F52 
 4555      4F554E44 
 4555      5F524F42 
 4555      494E5F31 
 4556              	.LASF72:
ARM GAS  C:\Users\ADMINI~1\AppData\Local\Temp\cc0ImMof.s 			page 117


 4557 0e10 4F535F45 		.ascii	"OS_ERR_MEM_INVALID_P_BLK\000"
 4557      52525F4D 
 4557      454D5F49 
 4557      4E56414C 
 4557      49445F50 
 4558              	.LASF69:
 4559 0e29 4F535F45 		.ascii	"OS_ERR_MEM_INVALID_P_ADDR\000"
 4559      52525F4D 
 4559      454D5F49 
 4559      4E56414C 
 4559      49445F50 
 4560              	.LASF288:
 4561 0e43 52647954 		.ascii	"RdyTS\000"
 4561      5300
 4562              	.LASF65:
 4563 0e49 4F535F45 		.ascii	"OS_ERR_LOCK_NESTING_OVF\000"
 4563      52525F4C 
 4563      4F434B5F 
 4563      4E455354 
 4563      494E475F 
 4564              	.LASF154:
 4565 0e61 4F535F45 		.ascii	"OS_ERR_TASK_STK_CHK_ISR\000"
 4565      52525F54 
 4565      41534B5F 
 4565      53544B5F 
 4565      43484B5F 
 4566              	.LASF278:
 4567 0e79 6F735F74 		.ascii	"os_tick_list\000"
 4567      69636B5F 
 4567      6C697374 
 4567      00
 4568              	.LASF8:
 4569 0e86 73686F72 		.ascii	"short int\000"
 4569      7420696E 
 4569      7400
 4570              	.LASF287:
 4571 0e90 5264794D 		.ascii	"RdyMsgSize\000"
 4571      73675369 
 4571      7A6500
 4572              	.LASF77:
 4573 0e9b 4F535F45 		.ascii	"OS_ERR_MSG_POOL_EMPTY\000"
 4573      52525F4D 
 4573      53475F50 
 4573      4F4F4C5F 
 4573      454D5054 
 4574              	.LASF275:
 4575 0eb1 496E7444 		.ascii	"IntDisTimeMax\000"
 4575      69735469 
 4575      6D654D61 
 4575      7800
 4576              	.LASF125:
 4577 0ebf 4F535F45 		.ascii	"OS_ERR_SCHED_UNLOCK_ISR\000"
 4577      52525F53 
 4577      43484544 
 4577      5F554E4C 
 4577      4F434B5F 
 4578              	.LASF272:
ARM GAS  C:\Users\ADMINI~1\AppData\Local\Temp\cc0ImMof.s 			page 118


 4579 0ed7 53656D50 		.ascii	"SemPendTimeMax\000"
 4579      656E6454 
 4579      696D654D 
 4579      617800
 4580              	.LASF270:
 4581 0ee6 4379636C 		.ascii	"CyclesTotalPrev\000"
 4581      6573546F 
 4581      74616C50 
 4581      72657600 
 4582              	.LASF229:
 4583 0ef6 4D757465 		.ascii	"MutexGrpNextPtr\000"
 4583      78477270 
 4583      4E657874 
 4583      50747200 
 4584              	.LASF277:
 4585 0f06 4F535F54 		.ascii	"OS_TICK_LIST\000"
 4585      49434B5F 
 4585      4C495354 
 4585      00
 4586              	.LASF169:
 4587 0f13 4F535F45 		.ascii	"OS_ERR_TICK_STK_INVALID\000"
 4587      52525F54 
 4587      49434B5F 
 4587      53544B5F 
 4587      494E5641 
 4588              	.LASF78:
 4589 0f2b 4F535F45 		.ascii	"OS_ERR_MSG_POOL_NULL_PTR\000"
 4589      52525F4D 
 4589      53475F50 
 4589      4F4F4C5F 
 4589      4E554C4C 
 4590              	.LASF27:
 4591 0f44 4F535F4E 		.ascii	"OS_NESTING_CTR\000"
 4591      45535449 
 4591      4E475F43 
 4591      545200
 4592              	.LASF269:
 4593 0f53 4379636C 		.ascii	"CyclesTotal\000"
 4593      6573546F 
 4593      74616C00 
 4594              	.LASF293:
 4595 0f5f 4F535F50 		.ascii	"OS_PEND_OBJ\000"
 4595      454E445F 
 4595      4F424A00 
 4596              	.LASF310:
 4597 0f6b 666C6167 		.ascii	"flags_cur\000"
 4597      735F6375 
 4597      7200
 4598              	.LASF152:
 4599 0f75 4F535F45 		.ascii	"OS_ERR_TASK_RESUME_SELF\000"
 4599      52525F54 
 4599      41534B5F 
 4599      52455355 
 4599      4D455F53 
 4600              	.LASF265:
 4601 0f8d 43505555 		.ascii	"CPUUsageMax\000"
 4601      73616765 
ARM GAS  C:\Users\ADMINI~1\AppData\Local\Temp\cc0ImMof.s 			page 119


 4601      4D617800 
 4602              	.LASF208:
 4603 0f99 50656E64 		.ascii	"PendList\000"
 4603      4C697374 
 4603      00
 4604              	.LASF90:
 4605 0fa2 4F535F45 		.ascii	"OS_ERR_OBJ_TYPE\000"
 4605      52525F4F 
 4605      424A5F54 
 4605      59504500 
 4606              	.LASF245:
 4607 0fb2 50656E64 		.ascii	"PendDataTblPtr\000"
 4607      44617461 
 4607      54626C50 
 4607      747200
 4608              	.LASF316:
 4609 0fc1 4F535F46 		.ascii	"OS_FlagDbgListAdd\000"
 4609      6C616744 
 4609      62674C69 
 4609      73744164 
 4609      6400
 4610              	.LASF253:
 4611 0fd3 53656D43 		.ascii	"SemCtr\000"
 4611      747200
 4612              	.LASF222:
 4613 0fda 496E5074 		.ascii	"InPtr\000"
 4613      7200
 4614              	.LASF254:
 4615 0fe0 5469636B 		.ascii	"TickRemain\000"
 4615      52656D61 
 4615      696E00
 4616              	.LASF291:
 4617 0feb 48656164 		.ascii	"HeadPtr\000"
 4617      50747200 
 4618              	.LASF304:
 4619 0ff3 666C6167 		.ascii	"flags_rdy\000"
 4619      735F7264 
 4619      7900
 4620              	.LASF99:
 4621 0ffd 4F535F45 		.ascii	"OS_ERR_PEND_ABORT_NONE\000"
 4621      52525F50 
 4621      454E445F 
 4621      41424F52 
 4621      545F4E4F 
 4622              	.LASF10:
 4623 1014 756E7369 		.ascii	"unsigned int\000"
 4623      676E6564 
 4623      20696E74 
 4623      00
 4624              	.LASF218:
 4625 1021 4D736753 		.ascii	"MsgSize\000"
 4625      697A6500 
 4626              	.LASF80:
 4627 1029 4F535F45 		.ascii	"OS_ERR_MUTEX_OWNER\000"
 4627      52525F4D 
 4627      55544558 
 4627      5F4F574E 
ARM GAS  C:\Users\ADMINI~1\AppData\Local\Temp\cc0ImMof.s 			page 120


 4627      455200
 4628              	.LASF131:
 4629 103c 4F535F45 		.ascii	"OS_ERR_STAT_STK_SIZE_INVALID\000"
 4629      52525F53 
 4629      5441545F 
 4629      53544B5F 
 4629      53495A45 
 4630              	.LASF49:
 4631 1059 4F535F45 		.ascii	"OS_ERR_FLAG_NOT_RDY\000"
 4631      52525F46 
 4631      4C41475F 
 4631      4E4F545F 
 4631      52445900 
 4632              	.LASF236:
 4633 106d 45787450 		.ascii	"ExtPtr\000"
 4633      747200
 4634              	.LASF295:
 4635 1074 73697A65 		.ascii	"sizetype\000"
 4635      74797065 
 4635      00
 4636              	.LASF98:
 4637 107d 4F535F45 		.ascii	"OS_ERR_PEND_ABORT_ISR\000"
 4637      52525F50 
 4637      454E445F 
 4637      41424F52 
 4637      545F4953 
 4638              	.LASF15:
 4639 1093 4350555F 		.ascii	"CPU_ADDR\000"
 4639      41444452 
 4639      00
 4640              	.LASF106:
 4641 109c 4F535F45 		.ascii	"OS_ERR_POST_ISR\000"
 4641      52525F50 
 4641      4F53545F 
 4641      49535200 
 4642              	.LASF172:
 4643 10ac 4F535F45 		.ascii	"OS_ERR_TIME_DLY_ISR\000"
 4643      52525F54 
 4643      494D455F 
 4643      444C595F 
 4643      49535200 
 4644              	.LASF136:
 4645 10c0 4F535F45 		.ascii	"OS_ERR_STK_LIMIT_INVALID\000"
 4645      52525F53 
 4645      544B5F4C 
 4645      494D4954 
 4645      5F494E56 
 4646              	.LASF1:
 4647 10d9 4350555F 		.ascii	"CPU_BOOLEAN\000"
 4647      424F4F4C 
 4647      45414E00 
 4648              	.LASF23:
 4649 10e5 4F535F43 		.ascii	"OS_CYCLES\000"
 4649      59434C45 
 4649      5300
 4650              	.LASF233:
 4651 10ef 4F535F54 		.ascii	"OS_TCB\000"
ARM GAS  C:\Users\ADMINI~1\AppData\Local\Temp\cc0ImMof.s 			page 121


 4651      434200
 4652              	.LASF135:
 4653 10f6 4F535F45 		.ascii	"OS_ERR_STK_SIZE_INVALID\000"
 4653      52525F53 
 4653      544B5F53 
 4653      495A455F 
 4653      494E5641 
 4654              	.LASF52:
 4655 110e 4F535F45 		.ascii	"OS_ERR_G\000"
 4655      52525F47 
 4655      00
 4656              	.LASF195:
 4657 1117 4F535F45 		.ascii	"OS_ERR_TMR_STOPPED\000"
 4657      52525F54 
 4657      4D525F53 
 4657      544F5050 
 4657      454400
 4658              	.LASF309:
 4659 112a 4F53466C 		.ascii	"OSFlagPost\000"
 4659      6167506F 
 4659      737400
 4660              	.LASF3:
 4661 1135 756E7369 		.ascii	"unsigned char\000"
 4661      676E6564 
 4661      20636861 
 4661      7200
 4662              	.LASF149:
 4663 1143 4F535F45 		.ascii	"OS_ERR_TASK_OPT\000"
 4663      52525F54 
 4663      41534B5F 
 4663      4F505400 
 4664              	.LASF327:
 4665 1153 4F535363 		.ascii	"OSSchedLockNestingCtr\000"
 4665      6865644C 
 4665      6F636B4E 
 4665      65737469 
 4665      6E674374 
 4666              	.LASF182:
 4667 1169 4F535F45 		.ascii	"OS_ERR_TIMEOUT\000"
 4667      52525F54 
 4667      494D454F 
 4667      555400
 4668              	.LASF34:
 4669 1178 4F535F53 		.ascii	"OS_STATE\000"
 4669      54415445 
 4669      00
 4670              	.LASF300:
 4671 1181 74696D65 		.ascii	"timeout\000"
 4671      6F757400 
 4672              	.LASF30:
 4673 1189 4F535F4F 		.ascii	"OS_OPT\000"
 4673      505400
 4674              	.LASF232:
 4675 1190 4F535F54 		.ascii	"OS_TASK_PTR\000"
 4675      41534B5F 
 4675      50545200 
 4676              	.LASF67:
ARM GAS  C:\Users\ADMINI~1\AppData\Local\Temp\cc0ImMof.s 			page 122


 4677 119c 4F535F45 		.ascii	"OS_ERR_MEM_CREATE_ISR\000"
 4677      52525F4D 
 4677      454D5F43 
 4677      52454154 
 4677      455F4953 
 4678              	.LASF133:
 4679 11b2 4F535F45 		.ascii	"OS_ERR_STATUS_INVALID\000"
 4679      52525F53 
 4679      54415455 
 4679      535F494E 
 4679      56414C49 
 4680              	.LASF201:
 4681 11c8 4F535F45 		.ascii	"OS_ERR_Y\000"
 4681      52525F59 
 4681      00
 4682              	.LASF102:
 4683 11d1 4F535F45 		.ascii	"OS_ERR_PEND_ISR\000"
 4683      52525F50 
 4683      454E445F 
 4683      49535200 
 4684              	.LASF203:
 4685 11e1 4F535F45 		.ascii	"OS_ERR_Z\000"
 4685      52525F5A 
 4685      00
 4686              	.LASF211:
 4687 11ea 4462674E 		.ascii	"DbgNamePtr\000"
 4687      616D6550 
 4687      747200
 4688              	.LASF223:
 4689 11f5 4F757450 		.ascii	"OutPtr\000"
 4689      747200
 4690              	.LASF244:
 4691 11fc 5461736B 		.ascii	"TaskEntryArg\000"
 4691      456E7472 
 4691      79417267 
 4691      00
 4692              	.LASF112:
 4693 1209 4F535F45 		.ascii	"OS_ERR_Q_FULL\000"
 4693      52525F51 
 4693      5F46554C 
 4693      4C00
 4694              	.LASF59:
 4695 1217 4F535F45 		.ascii	"OS_ERR_INT_Q_STK_INVALID\000"
 4695      52525F49 
 4695      4E545F51 
 4695      5F53544B 
 4695      5F494E56 
 4696              	.LASF177:
 4697 1230 4F535F45 		.ascii	"OS_ERR_TIME_INVALID_SECONDS\000"
 4697      52525F54 
 4697      494D455F 
 4697      494E5641 
 4697      4C49445F 
 4698              	.LASF308:
 4699 124c 4F53466C 		.ascii	"OSFlagPendGetFlagsRdy\000"
 4699      61675065 
 4699      6E644765 
ARM GAS  C:\Users\ADMINI~1\AppData\Local\Temp\cc0ImMof.s 			page 123


 4699      74466C61 
 4699      67735264 
 4700              	.LASF140:
 4701 1262 4F535F45 		.ascii	"OS_ERR_TASK_DEL\000"
 4701      52525F54 
 4701      41534B5F 
 4701      44454C00 
 4702              	.LASF289:
 4703 1272 4F535F50 		.ascii	"OS_PEND_LIST\000"
 4703      454E445F 
 4703      4C495354 
 4703      00
 4704              	.LASF325:
 4705 127f 4F53466C 		.ascii	"OSFlagDbgListPtr\000"
 4705      61674462 
 4705      674C6973 
 4705      74507472 
 4705      00
 4706              	.LASF5:
 4707 1290 7369676E 		.ascii	"signed char\000"
 4707      65642063 
 4707      68617200 
 4708              	.LASF219:
 4709 129c 4D736754 		.ascii	"MsgTS\000"
 4709      5300
 4710              	.LASF47:
 4711 12a2 4F535F45 		.ascii	"OS_ERR_FATAL_RETURN\000"
 4711      52525F46 
 4711      4154414C 
 4711      5F524554 
 4711      55524E00 
 4712              	.LASF7:
 4713 12b6 73686F72 		.ascii	"short unsigned int\000"
 4713      7420756E 
 4713      7369676E 
 4713      65642069 
 4713      6E7400
 4714              	.LASF326:
 4715 12c9 4F53466C 		.ascii	"OSFlagQty\000"
 4715      61675174 
 4715      7900
 4716              	.LASF24:
 4717 12d3 4F535F46 		.ascii	"OS_FLAGS\000"
 4717      4C414753 
 4717      00
 4718              	.LASF217:
 4719 12dc 4D736750 		.ascii	"MsgPtr\000"
 4719      747200
 4720              	.LASF165:
 4721 12e3 4F535F45 		.ascii	"OS_ERR_TLS_NO_MORE_AVAIL\000"
 4721      52525F54 
 4721      4C535F4E 
 4721      4F5F4D4F 
 4721      52455F41 
 4722              	.LASF37:
 4723 12fc 4F535F45 		.ascii	"OS_ERR_NONE\000"
 4723      52525F4E 
ARM GAS  C:\Users\ADMINI~1\AppData\Local\Temp\cc0ImMof.s 			page 124


 4723      4F4E4500 
 4724              	.LASF282:
 4725 1308 6F735F70 		.ascii	"os_pend_data\000"
 4725      656E645F 
 4725      64617461 
 4725      00
 4726              	.LASF123:
 4727 1315 4F535F45 		.ascii	"OS_ERR_SCHED_LOCKED\000"
 4727      52525F53 
 4727      43484544 
 4727      5F4C4F43 
 4727      4B454400 
 4728              	.LASF51:
 4729 1329 4F535F45 		.ascii	"OS_ERR_FLUSH_ISR\000"
 4729      52525F46 
 4729      4C555348 
 4729      5F495352 
 4729      00
 4730              	.LASF249:
 4731 133a 5072696F 		.ascii	"Prio\000"
 4731      00
 4732              	.LASF14:
 4733 133f 646F7562 		.ascii	"double\000"
 4733      6C6500
 4734              	.LASF97:
 4735 1346 4F535F45 		.ascii	"OS_ERR_PEND_ABORT\000"
 4735      52525F50 
 4735      454E445F 
 4735      41424F52 
 4735      5400
 4736              	.LASF264:
 4737 1358 43505555 		.ascii	"CPUUsage\000"
 4737      73616765 
 4737      00
 4738              	.LASF124:
 4739 1361 4F535F45 		.ascii	"OS_ERR_SCHED_NOT_LOCKED\000"
 4739      52525F53 
 4739      43484544 
 4739      5F4E4F54 
 4739      5F4C4F43 
 4740              	.LASF108:
 4741 1379 4F535F45 		.ascii	"OS_ERR_PRIO\000"
 4741      52525F50 
 4741      52494F00 
 4742              	.LASF101:
 4743 1385 4F535F45 		.ascii	"OS_ERR_PEND_DEL\000"
 4743      52525F50 
 4743      454E445F 
 4743      44454C00 
 4744              	.LASF284:
 4745 1395 50656E64 		.ascii	"PendObjPtr\000"
 4745      4F626A50 
 4745      747200
 4746              	.LASF226:
 4747 13a0 4E627245 		.ascii	"NbrEntriesMax\000"
 4747      6E747269 
 4747      65734D61 
ARM GAS  C:\Users\ADMINI~1\AppData\Local\Temp\cc0ImMof.s 			page 125


 4747      7800
 4748              	.LASF290:
 4749 13ae 6F735F70 		.ascii	"os_pend_list\000"
 4749      656E645F 
 4749      6C697374 
 4749      00
 4750              	.LASF75:
 4751 13bb 4F535F45 		.ascii	"OS_ERR_MEM_INVALID_SIZE\000"
 4751      52525F4D 
 4751      454D5F49 
 4751      4E56414C 
 4751      49445F53 
 4752              	.LASF155:
 4753 13d3 4F535F45 		.ascii	"OS_ERR_TASK_SUSPENDED\000"
 4753      52525F54 
 4753      41534B5F 
 4753      53555350 
 4753      454E4445 
 4754              	.LASF205:
 4755 13e9 4F535F46 		.ascii	"OS_FLAG_GRP\000"
 4755      4C41475F 
 4755      47525000 
 4756              	.LASF127:
 4757 13f5 4F535F45 		.ascii	"OS_ERR_SET_ISR\000"
 4757      52525F53 
 4757      45545F49 
 4757      535200
 4758              	.LASF259:
 4759 1404 52656754 		.ascii	"RegTbl\000"
 4759      626C00
 4760              	.LASF126:
 4761 140b 4F535F45 		.ascii	"OS_ERR_SEM_OVF\000"
 4761      52525F53 
 4761      454D5F4F 
 4761      564600
 4762              	.LASF141:
 4763 141a 4F535F45 		.ascii	"OS_ERR_TASK_DEL_IDLE\000"
 4763      52525F54 
 4763      41534B5F 
 4763      44454C5F 
 4763      49444C45 
 4764              	.LASF174:
 4765 142f 4F535F45 		.ascii	"OS_ERR_TIME_GET_ISR\000"
 4765      52525F54 
 4765      494D455F 
 4765      4745545F 
 4765      49535200 
 4766              	.LASF173:
 4767 1443 4F535F45 		.ascii	"OS_ERR_TIME_DLY_RESUME_ISR\000"
 4767      52525F54 
 4767      494D455F 
 4767      444C595F 
 4767      52455355 
 4768              	.LASF168:
 4769 145e 4F535F45 		.ascii	"OS_ERR_TICK_PRIO_INVALID\000"
 4769      52525F54 
 4769      49434B5F 
ARM GAS  C:\Users\ADMINI~1\AppData\Local\Temp\cc0ImMof.s 			page 126


 4769      5052494F 
 4769      5F494E56 
 4770              	.LASF107:
 4771 1477 4F535F45 		.ascii	"OS_ERR_PRIO_EXIST\000"
 4771      52525F50 
 4771      52494F5F 
 4771      45584953 
 4771      5400
 4772              	.LASF221:
 4773 1489 6F735F6D 		.ascii	"os_msg_q\000"
 4773      73675F71 
 4773      00
 4774              	.LASF76:
 4775 1492 4F535F45 		.ascii	"OS_ERR_MEM_NO_FREE_BLKS\000"
 4775      52525F4D 
 4775      454D5F4E 
 4775      4F5F4652 
 4775      45455F42 
 4776              	.LASF16:
 4777 14aa 4350555F 		.ascii	"CPU_STK\000"
 4777      53544B00 
 4778              		.ident	"GCC: (GNU Tools for ARM Embedded Processors) 5.4.1 20160609 (release) [ARM/embedded-5-bran
