ARM GAS  C:\Users\ADMINI~1\AppData\Local\Temp\ccmmYEnX.s 			page 1


   1              		.syntax unified
   2              		.cpu cortex-m0
   3              		.fpu softvfp
   4              		.eabi_attribute 20, 1
   5              		.eabi_attribute 21, 1
   6              		.eabi_attribute 23, 3
   7              		.eabi_attribute 24, 1
   8              		.eabi_attribute 25, 1
   9              		.eabi_attribute 26, 1
  10              		.eabi_attribute 30, 6
  11              		.eabi_attribute 34, 0
  12              		.eabi_attribute 18, 4
  13              		.thumb
  14              		.syntax unified
  15              		.file	"os_mem.c"
  16              		.text
  17              	.Ltext0:
  18              		.cfi_sections	.debug_frame
  19              		.section	.text.OSMemCreate,"ax",%progbits
  20              		.align	2
  21              		.global	OSMemCreate
  22              		.code	16
  23              		.thumb_func
  24              		.type	OSMemCreate, %function
  25              	OSMemCreate:
  26              	.LFB0:
  27              		.file 1 "..\\..\\..\\..\\..\\..\\Software\\uCOS-III\\Source\\os_mem.c"
   1:..\..\..\..\..\..\Software\uCOS-III\Source/os_mem.c **** /*
   2:..\..\..\..\..\..\Software\uCOS-III\Source/os_mem.c **** ***************************************************************************************************
   3:..\..\..\..\..\..\Software\uCOS-III\Source/os_mem.c **** *                                                      uC/OS-III
   4:..\..\..\..\..\..\Software\uCOS-III\Source/os_mem.c **** *                                                 The Real-Time Kernel
   5:..\..\..\..\..\..\Software\uCOS-III\Source/os_mem.c **** *
   6:..\..\..\..\..\..\Software\uCOS-III\Source/os_mem.c **** *                                  (c) Copyright 2009-2015; Micrium, Inc.; Weston, FL
   7:..\..\..\..\..\..\Software\uCOS-III\Source/os_mem.c **** *                           All rights reserved.  Protected by international copyright laws.
   8:..\..\..\..\..\..\Software\uCOS-III\Source/os_mem.c **** *
   9:..\..\..\..\..\..\Software\uCOS-III\Source/os_mem.c **** *                                             MEMORY PARTITION MANAGEMENT
  10:..\..\..\..\..\..\Software\uCOS-III\Source/os_mem.c **** *
  11:..\..\..\..\..\..\Software\uCOS-III\Source/os_mem.c **** * File    : OS_MEM.C
  12:..\..\..\..\..\..\Software\uCOS-III\Source/os_mem.c **** * By      : JJL
  13:..\..\..\..\..\..\Software\uCOS-III\Source/os_mem.c **** * Version : V3.05.01
  14:..\..\..\..\..\..\Software\uCOS-III\Source/os_mem.c **** *
  15:..\..\..\..\..\..\Software\uCOS-III\Source/os_mem.c **** * LICENSING TERMS:
  16:..\..\..\..\..\..\Software\uCOS-III\Source/os_mem.c **** * ---------------
  17:..\..\..\..\..\..\Software\uCOS-III\Source/os_mem.c **** *           uC/OS-III is provided in source form for FREE short-term evaluation, for educational us
  18:..\..\..\..\..\..\Software\uCOS-III\Source/os_mem.c **** *           for peaceful research.  If you plan or intend to use uC/OS-III in a commercial applicat
  19:..\..\..\..\..\..\Software\uCOS-III\Source/os_mem.c **** *           product then, you need to contact Micrium to properly license uC/OS-III for its use in 
  20:..\..\..\..\..\..\Software\uCOS-III\Source/os_mem.c **** *           application/product.   We provide ALL the source code for your convenience and to help 
  21:..\..\..\..\..\..\Software\uCOS-III\Source/os_mem.c **** *           experience uC/OS-III.  The fact that the source is provided does NOT mean that you can 
  22:..\..\..\..\..\..\Software\uCOS-III\Source/os_mem.c **** *           it commercially without paying a licensing fee.
  23:..\..\..\..\..\..\Software\uCOS-III\Source/os_mem.c **** *
  24:..\..\..\..\..\..\Software\uCOS-III\Source/os_mem.c **** *           Knowledge of the source code may NOT be used to develop a similar product.
  25:..\..\..\..\..\..\Software\uCOS-III\Source/os_mem.c **** *
  26:..\..\..\..\..\..\Software\uCOS-III\Source/os_mem.c **** *           Please help us continue to provide the embedded community with the finest software avai
  27:..\..\..\..\..\..\Software\uCOS-III\Source/os_mem.c **** *           Your honesty is greatly appreciated.
  28:..\..\..\..\..\..\Software\uCOS-III\Source/os_mem.c **** *
  29:..\..\..\..\..\..\Software\uCOS-III\Source/os_mem.c **** *           You can find our product's user manual, API reference, release notes and
  30:..\..\..\..\..\..\Software\uCOS-III\Source/os_mem.c **** *           more information at https://doc.micrium.com.
ARM GAS  C:\Users\ADMINI~1\AppData\Local\Temp\ccmmYEnX.s 			page 2


  31:..\..\..\..\..\..\Software\uCOS-III\Source/os_mem.c **** *           You can contact us at www.micrium.com.
  32:..\..\..\..\..\..\Software\uCOS-III\Source/os_mem.c **** ***************************************************************************************************
  33:..\..\..\..\..\..\Software\uCOS-III\Source/os_mem.c **** */
  34:..\..\..\..\..\..\Software\uCOS-III\Source/os_mem.c **** 
  35:..\..\..\..\..\..\Software\uCOS-III\Source/os_mem.c **** #define   MICRIUM_SOURCE
  36:..\..\..\..\..\..\Software\uCOS-III\Source/os_mem.c **** #include "os.h"
  37:..\..\..\..\..\..\Software\uCOS-III\Source/os_mem.c **** 
  38:..\..\..\..\..\..\Software\uCOS-III\Source/os_mem.c **** #ifdef VSC_INCLUDE_SOURCE_FILE_NAMES
  39:..\..\..\..\..\..\Software\uCOS-III\Source/os_mem.c **** const  CPU_CHAR  *os_mem__c = "$Id: $";
  40:..\..\..\..\..\..\Software\uCOS-III\Source/os_mem.c **** #endif
  41:..\..\..\..\..\..\Software\uCOS-III\Source/os_mem.c **** 
  42:..\..\..\..\..\..\Software\uCOS-III\Source/os_mem.c **** 
  43:..\..\..\..\..\..\Software\uCOS-III\Source/os_mem.c **** #if (OS_CFG_MEM_EN == DEF_ENABLED)
  44:..\..\..\..\..\..\Software\uCOS-III\Source/os_mem.c **** /*
  45:..\..\..\..\..\..\Software\uCOS-III\Source/os_mem.c **** ***************************************************************************************************
  46:..\..\..\..\..\..\Software\uCOS-III\Source/os_mem.c **** *                                               CREATE A MEMORY PARTITION
  47:..\..\..\..\..\..\Software\uCOS-III\Source/os_mem.c **** *
  48:..\..\..\..\..\..\Software\uCOS-III\Source/os_mem.c **** * Description : Create a fixed-sized memory partition that will be managed by uC/OS-III.
  49:..\..\..\..\..\..\Software\uCOS-III\Source/os_mem.c **** *
  50:..\..\..\..\..\..\Software\uCOS-III\Source/os_mem.c **** * Arguments   : p_mem    is a pointer to a memory partition control block which is allocated in use
  51:..\..\..\..\..\..\Software\uCOS-III\Source/os_mem.c **** *
  52:..\..\..\..\..\..\Software\uCOS-III\Source/os_mem.c **** *               p_name   is a pointer to an ASCII string to provide a name to the memory partition.
  53:..\..\..\..\..\..\Software\uCOS-III\Source/os_mem.c **** *
  54:..\..\..\..\..\..\Software\uCOS-III\Source/os_mem.c **** *               p_addr   is the starting address of the memory partition
  55:..\..\..\..\..\..\Software\uCOS-III\Source/os_mem.c **** *
  56:..\..\..\..\..\..\Software\uCOS-III\Source/os_mem.c **** *               n_blks   is the number of memory blocks to create from the partition.
  57:..\..\..\..\..\..\Software\uCOS-III\Source/os_mem.c **** *
  58:..\..\..\..\..\..\Software\uCOS-III\Source/os_mem.c **** *               blk_size is the size (in bytes) of each block in the memory partition.
  59:..\..\..\..\..\..\Software\uCOS-III\Source/os_mem.c **** *
  60:..\..\..\..\..\..\Software\uCOS-III\Source/os_mem.c **** *               p_err    is a pointer to a variable containing an error message which will be set b
  61:..\..\..\..\..\..\Software\uCOS-III\Source/os_mem.c **** *                        either:
  62:..\..\..\..\..\..\Software\uCOS-III\Source/os_mem.c **** *
  63:..\..\..\..\..\..\Software\uCOS-III\Source/os_mem.c **** *                            OS_ERR_NONE                    If the memory partition has been create
  64:..\..\..\..\..\..\Software\uCOS-III\Source/os_mem.c **** *                            OS_ERR_ILLEGAL_CREATE_RUN_TIME If you are trying to create the memory 
  65:..\..\..\..\..\..\Software\uCOS-III\Source/os_mem.c **** *                                                             called OSStart()
  66:..\..\..\..\..\..\Software\uCOS-III\Source/os_mem.c **** *                            OS_ERR_MEM_CREATE_ISR          If you called this function from an ISR
  67:..\..\..\..\..\..\Software\uCOS-III\Source/os_mem.c **** *                            OS_ERR_MEM_INVALID_BLKS        User specified an invalid number of blo
  68:..\..\..\..\..\..\Software\uCOS-III\Source/os_mem.c **** *                            OS_ERR_MEM_INVALID_P_ADDR      If you are specifying an invalid addres
  69:..\..\..\..\..\..\Software\uCOS-III\Source/os_mem.c **** *                                                           storage of the partition or, the block 
  70:..\..\..\..\..\..\Software\uCOS-III\Source/os_mem.c **** *                                                           pointer boundary
  71:..\..\..\..\..\..\Software\uCOS-III\Source/os_mem.c **** *                            OS_ERR_MEM_INVALID_SIZE        User specified an invalid block size
  72:..\..\..\..\..\..\Software\uCOS-III\Source/os_mem.c **** *                                                             - must be greater than the size of a 
  73:..\..\..\..\..\..\Software\uCOS-III\Source/os_mem.c **** *                                                             - must be able to hold an integral nu
  74:..\..\..\..\..\..\Software\uCOS-III\Source/os_mem.c **** * Returns    : none
  75:..\..\..\..\..\..\Software\uCOS-III\Source/os_mem.c **** *
  76:..\..\..\..\..\..\Software\uCOS-III\Source/os_mem.c **** * Note(s)    : none
  77:..\..\..\..\..\..\Software\uCOS-III\Source/os_mem.c **** ***************************************************************************************************
  78:..\..\..\..\..\..\Software\uCOS-III\Source/os_mem.c **** */
  79:..\..\..\..\..\..\Software\uCOS-III\Source/os_mem.c **** 
  80:..\..\..\..\..\..\Software\uCOS-III\Source/os_mem.c **** void  OSMemCreate (OS_MEM       *p_mem,
  81:..\..\..\..\..\..\Software\uCOS-III\Source/os_mem.c ****                    CPU_CHAR     *p_name,
  82:..\..\..\..\..\..\Software\uCOS-III\Source/os_mem.c ****                    void         *p_addr,
  83:..\..\..\..\..\..\Software\uCOS-III\Source/os_mem.c ****                    OS_MEM_QTY    n_blks,
  84:..\..\..\..\..\..\Software\uCOS-III\Source/os_mem.c ****                    OS_MEM_SIZE   blk_size,
  85:..\..\..\..\..\..\Software\uCOS-III\Source/os_mem.c ****                    OS_ERR       *p_err)
  86:..\..\..\..\..\..\Software\uCOS-III\Source/os_mem.c **** {
  28              		.loc 1 86 0
ARM GAS  C:\Users\ADMINI~1\AppData\Local\Temp\ccmmYEnX.s 			page 3


  29              		.cfi_startproc
  30              		@ args = 8, pretend = 0, frame = 40
  31              		@ frame_needed = 1, uses_anonymous_args = 0
  32 0000 80B5     		push	{r7, lr}
  33              		.cfi_def_cfa_offset 8
  34              		.cfi_offset 7, -8
  35              		.cfi_offset 14, -4
  36 0002 8AB0     		sub	sp, sp, #40
  37              		.cfi_def_cfa_offset 48
  38 0004 00AF     		add	r7, sp, #0
  39              		.cfi_def_cfa_register 7
  40 0006 F860     		str	r0, [r7, #12]
  41 0008 B960     		str	r1, [r7, #8]
  42 000a 7A60     		str	r2, [r7, #4]
  43 000c 1A00     		movs	r2, r3
  44 000e BB1C     		adds	r3, r7, #2
  45 0010 1A80     		strh	r2, [r3]
  87:..\..\..\..\..\..\Software\uCOS-III\Source/os_mem.c **** #if (OS_CFG_ARG_CHK_EN == DEF_ENABLED)
  88:..\..\..\..\..\..\Software\uCOS-III\Source/os_mem.c ****     CPU_DATA       align_msk;
  89:..\..\..\..\..\..\Software\uCOS-III\Source/os_mem.c **** #endif
  90:..\..\..\..\..\..\Software\uCOS-III\Source/os_mem.c ****     OS_MEM_QTY     i;
  91:..\..\..\..\..\..\Software\uCOS-III\Source/os_mem.c ****     OS_MEM_QTY     loops;
  92:..\..\..\..\..\..\Software\uCOS-III\Source/os_mem.c ****     CPU_INT08U    *p_blk;
  93:..\..\..\..\..\..\Software\uCOS-III\Source/os_mem.c ****     void         **p_link;
  94:..\..\..\..\..\..\Software\uCOS-III\Source/os_mem.c ****     CPU_SR_ALLOC();
  46              		.loc 1 94 0
  47 0012 0023     		movs	r3, #0
  48 0014 BB61     		str	r3, [r7, #24]
  95:..\..\..\..\..\..\Software\uCOS-III\Source/os_mem.c **** 
  96:..\..\..\..\..\..\Software\uCOS-III\Source/os_mem.c **** 
  97:..\..\..\..\..\..\Software\uCOS-III\Source/os_mem.c **** 
  98:..\..\..\..\..\..\Software\uCOS-III\Source/os_mem.c **** #ifdef OS_SAFETY_CRITICAL
  99:..\..\..\..\..\..\Software\uCOS-III\Source/os_mem.c ****     if (p_err == DEF_NULL) {
 100:..\..\..\..\..\..\Software\uCOS-III\Source/os_mem.c ****         OS_SAFETY_CRITICAL_EXCEPTION();
 101:..\..\..\..\..\..\Software\uCOS-III\Source/os_mem.c ****         return;
 102:..\..\..\..\..\..\Software\uCOS-III\Source/os_mem.c ****     }
 103:..\..\..\..\..\..\Software\uCOS-III\Source/os_mem.c **** #endif
 104:..\..\..\..\..\..\Software\uCOS-III\Source/os_mem.c **** 
 105:..\..\..\..\..\..\Software\uCOS-III\Source/os_mem.c **** #ifdef OS_SAFETY_CRITICAL_IEC61508
 106:..\..\..\..\..\..\Software\uCOS-III\Source/os_mem.c ****     if (OSSafetyCriticalStartFlag == DEF_TRUE) {
 107:..\..\..\..\..\..\Software\uCOS-III\Source/os_mem.c ****        *p_err = OS_ERR_ILLEGAL_CREATE_RUN_TIME;
 108:..\..\..\..\..\..\Software\uCOS-III\Source/os_mem.c ****         return;
 109:..\..\..\..\..\..\Software\uCOS-III\Source/os_mem.c ****     }
 110:..\..\..\..\..\..\Software\uCOS-III\Source/os_mem.c **** #endif
 111:..\..\..\..\..\..\Software\uCOS-III\Source/os_mem.c **** 
 112:..\..\..\..\..\..\Software\uCOS-III\Source/os_mem.c **** #if (OS_CFG_CALLED_FROM_ISR_CHK_EN == DEF_ENABLED)
 113:..\..\..\..\..\..\Software\uCOS-III\Source/os_mem.c ****     if (OSIntNestingCtr > 0u) {                                 /* Not allowed to call from an ISR 
  49              		.loc 1 113 0
  50 0016 4C4B     		ldr	r3, .L11
  51 0018 1B78     		ldrb	r3, [r3]
  52 001a 002B     		cmp	r3, #0
  53 001c 03D0     		beq	.L2
 114:..\..\..\..\..\..\Software\uCOS-III\Source/os_mem.c ****        *p_err = OS_ERR_MEM_CREATE_ISR;
  54              		.loc 1 114 0
  55 001e 7B6B     		ldr	r3, [r7, #52]
  56 0020 4A4A     		ldr	r2, .L11+4
  57 0022 1A80     		strh	r2, [r3]
ARM GAS  C:\Users\ADMINI~1\AppData\Local\Temp\ccmmYEnX.s 			page 4


 115:..\..\..\..\..\..\Software\uCOS-III\Source/os_mem.c ****         return;
  58              		.loc 1 115 0
  59 0024 8CE0     		b	.L1
  60              	.L2:
 116:..\..\..\..\..\..\Software\uCOS-III\Source/os_mem.c ****     }
 117:..\..\..\..\..\..\Software\uCOS-III\Source/os_mem.c **** #endif
 118:..\..\..\..\..\..\Software\uCOS-III\Source/os_mem.c **** 
 119:..\..\..\..\..\..\Software\uCOS-III\Source/os_mem.c **** #if (OS_CFG_ARG_CHK_EN == DEF_ENABLED)
 120:..\..\..\..\..\..\Software\uCOS-III\Source/os_mem.c ****     if (p_addr == DEF_NULL) {                                   /* Must pass a valid address for th
  61              		.loc 1 120 0
  62 0026 7B68     		ldr	r3, [r7, #4]
  63 0028 002B     		cmp	r3, #0
  64 002a 03D1     		bne	.L4
 121:..\..\..\..\..\..\Software\uCOS-III\Source/os_mem.c ****        *p_err   = OS_ERR_MEM_INVALID_P_ADDR;
  65              		.loc 1 121 0
  66 002c 7B6B     		ldr	r3, [r7, #52]
  67 002e 484A     		ldr	r2, .L11+8
  68 0030 1A80     		strh	r2, [r3]
 122:..\..\..\..\..\..\Software\uCOS-III\Source/os_mem.c ****         return;
  69              		.loc 1 122 0
  70 0032 85E0     		b	.L1
  71              	.L4:
 123:..\..\..\..\..\..\Software\uCOS-III\Source/os_mem.c ****     }
 124:..\..\..\..\..\..\Software\uCOS-III\Source/os_mem.c ****     if (n_blks < 2u) {                                          /* Must have at least 2 blocks per 
  72              		.loc 1 124 0
  73 0034 BB1C     		adds	r3, r7, #2
  74 0036 1B88     		ldrh	r3, [r3]
  75 0038 012B     		cmp	r3, #1
  76 003a 03D8     		bhi	.L5
 125:..\..\..\..\..\..\Software\uCOS-III\Source/os_mem.c ****        *p_err = OS_ERR_MEM_INVALID_BLKS;
  77              		.loc 1 125 0
  78 003c 7B6B     		ldr	r3, [r7, #52]
  79 003e 454A     		ldr	r2, .L11+12
  80 0040 1A80     		strh	r2, [r3]
 126:..\..\..\..\..\..\Software\uCOS-III\Source/os_mem.c ****         return;
  81              		.loc 1 126 0
  82 0042 7DE0     		b	.L1
  83              	.L5:
 127:..\..\..\..\..\..\Software\uCOS-III\Source/os_mem.c ****     }
 128:..\..\..\..\..\..\Software\uCOS-III\Source/os_mem.c ****     if (blk_size < sizeof(void *)) {                            /* Must contain space for at least 
  84              		.loc 1 128 0
  85 0044 3023     		movs	r3, #48
  86 0046 FB18     		adds	r3, r7, r3
  87 0048 1B88     		ldrh	r3, [r3]
  88 004a 032B     		cmp	r3, #3
  89 004c 03D8     		bhi	.L6
 129:..\..\..\..\..\..\Software\uCOS-III\Source/os_mem.c ****        *p_err = OS_ERR_MEM_INVALID_SIZE;
  90              		.loc 1 129 0
  91 004e 7B6B     		ldr	r3, [r7, #52]
  92 0050 414A     		ldr	r2, .L11+16
  93 0052 1A80     		strh	r2, [r3]
 130:..\..\..\..\..\..\Software\uCOS-III\Source/os_mem.c ****         return;
  94              		.loc 1 130 0
  95 0054 74E0     		b	.L1
  96              	.L6:
 131:..\..\..\..\..\..\Software\uCOS-III\Source/os_mem.c ****     }
 132:..\..\..\..\..\..\Software\uCOS-III\Source/os_mem.c ****     align_msk = sizeof(void *) - 1u;
ARM GAS  C:\Users\ADMINI~1\AppData\Local\Temp\ccmmYEnX.s 			page 5


  97              		.loc 1 132 0
  98 0056 0323     		movs	r3, #3
  99 0058 7B61     		str	r3, [r7, #20]
 133:..\..\..\..\..\..\Software\uCOS-III\Source/os_mem.c ****     if (align_msk > 0u) {
 100              		.loc 1 133 0
 101 005a 7B69     		ldr	r3, [r7, #20]
 102 005c 002B     		cmp	r3, #0
 103 005e 11D0     		beq	.L7
 134:..\..\..\..\..\..\Software\uCOS-III\Source/os_mem.c ****         if (((CPU_ADDR)p_addr & align_msk) != 0u){              /* Must be pointer size aligned    
 104              		.loc 1 134 0
 105 0060 7B68     		ldr	r3, [r7, #4]
 106 0062 7A69     		ldr	r2, [r7, #20]
 107 0064 1340     		ands	r3, r2
 108 0066 03D0     		beq	.L8
 135:..\..\..\..\..\..\Software\uCOS-III\Source/os_mem.c ****            *p_err = OS_ERR_MEM_INVALID_P_ADDR;
 109              		.loc 1 135 0
 110 0068 7B6B     		ldr	r3, [r7, #52]
 111 006a 394A     		ldr	r2, .L11+8
 112 006c 1A80     		strh	r2, [r3]
 136:..\..\..\..\..\..\Software\uCOS-III\Source/os_mem.c ****             return;
 113              		.loc 1 136 0
 114 006e 67E0     		b	.L1
 115              	.L8:
 137:..\..\..\..\..\..\Software\uCOS-III\Source/os_mem.c ****         }
 138:..\..\..\..\..\..\Software\uCOS-III\Source/os_mem.c ****         if ((blk_size & align_msk) != 0u) {                     /* Block size must be a multiple ad
 116              		.loc 1 138 0
 117 0070 3023     		movs	r3, #48
 118 0072 FB18     		adds	r3, r7, r3
 119 0074 1B88     		ldrh	r3, [r3]
 120 0076 7A69     		ldr	r2, [r7, #20]
 121 0078 1340     		ands	r3, r2
 122 007a 03D0     		beq	.L7
 139:..\..\..\..\..\..\Software\uCOS-III\Source/os_mem.c ****            *p_err = OS_ERR_MEM_INVALID_SIZE;
 123              		.loc 1 139 0
 124 007c 7B6B     		ldr	r3, [r7, #52]
 125 007e 364A     		ldr	r2, .L11+16
 126 0080 1A80     		strh	r2, [r3]
 140:..\..\..\..\..\..\Software\uCOS-III\Source/os_mem.c ****             return;
 127              		.loc 1 140 0
 128 0082 5DE0     		b	.L1
 129              	.L7:
 141:..\..\..\..\..\..\Software\uCOS-III\Source/os_mem.c ****         }
 142:..\..\..\..\..\..\Software\uCOS-III\Source/os_mem.c ****     }
 143:..\..\..\..\..\..\Software\uCOS-III\Source/os_mem.c **** #endif
 144:..\..\..\..\..\..\Software\uCOS-III\Source/os_mem.c **** 
 145:..\..\..\..\..\..\Software\uCOS-III\Source/os_mem.c ****     p_link = (void **)p_addr;                                   /* Create linked list of free memor
 130              		.loc 1 145 0
 131 0084 7B68     		ldr	r3, [r7, #4]
 132 0086 FB61     		str	r3, [r7, #28]
 146:..\..\..\..\..\..\Software\uCOS-III\Source/os_mem.c ****     p_blk  = (CPU_INT08U *)p_addr;
 133              		.loc 1 146 0
 134 0088 7B68     		ldr	r3, [r7, #4]
 135 008a 3B62     		str	r3, [r7, #32]
 147:..\..\..\..\..\..\Software\uCOS-III\Source/os_mem.c ****     loops  = n_blks - 1u;
 136              		.loc 1 147 0
 137 008c 1223     		movs	r3, #18
 138 008e FB18     		adds	r3, r7, r3
ARM GAS  C:\Users\ADMINI~1\AppData\Local\Temp\ccmmYEnX.s 			page 6


 139 0090 BA1C     		adds	r2, r7, #2
 140 0092 1288     		ldrh	r2, [r2]
 141 0094 013A     		subs	r2, r2, #1
 142 0096 1A80     		strh	r2, [r3]
 148:..\..\..\..\..\..\Software\uCOS-III\Source/os_mem.c ****     for (i = 0u; i < loops; i++) {
 143              		.loc 1 148 0
 144 0098 2623     		movs	r3, #38
 145 009a FB18     		adds	r3, r7, r3
 146 009c 0022     		movs	r2, #0
 147 009e 1A80     		strh	r2, [r3]
 148 00a0 11E0     		b	.L9
 149              	.L10:
 149:..\..\..\..\..\..\Software\uCOS-III\Source/os_mem.c ****         p_blk +=  blk_size;
 150              		.loc 1 149 0 discriminator 3
 151 00a2 3023     		movs	r3, #48
 152 00a4 FB18     		adds	r3, r7, r3
 153 00a6 1B88     		ldrh	r3, [r3]
 154 00a8 3A6A     		ldr	r2, [r7, #32]
 155 00aa D318     		adds	r3, r2, r3
 156 00ac 3B62     		str	r3, [r7, #32]
 150:..\..\..\..\..\..\Software\uCOS-III\Source/os_mem.c ****        *p_link = (void  *)p_blk;                                /* Save pointer to NEXT block in CU
 157              		.loc 1 150 0 discriminator 3
 158 00ae FB69     		ldr	r3, [r7, #28]
 159 00b0 3A6A     		ldr	r2, [r7, #32]
 160 00b2 1A60     		str	r2, [r3]
 151:..\..\..\..\..\..\Software\uCOS-III\Source/os_mem.c ****         p_link = (void **)(void *)p_blk;                        /* Position     to NEXT block      
 161              		.loc 1 151 0 discriminator 3
 162 00b4 3B6A     		ldr	r3, [r7, #32]
 163 00b6 FB61     		str	r3, [r7, #28]
 148:..\..\..\..\..\..\Software\uCOS-III\Source/os_mem.c ****         p_blk +=  blk_size;
 164              		.loc 1 148 0 discriminator 3
 165 00b8 2623     		movs	r3, #38
 166 00ba FB18     		adds	r3, r7, r3
 167 00bc 1A88     		ldrh	r2, [r3]
 168 00be 2623     		movs	r3, #38
 169 00c0 FB18     		adds	r3, r7, r3
 170 00c2 0132     		adds	r2, r2, #1
 171 00c4 1A80     		strh	r2, [r3]
 172              	.L9:
 148:..\..\..\..\..\..\Software\uCOS-III\Source/os_mem.c ****         p_blk +=  blk_size;
 173              		.loc 1 148 0 is_stmt 0 discriminator 1
 174 00c6 2623     		movs	r3, #38
 175 00c8 FA18     		adds	r2, r7, r3
 176 00ca 1223     		movs	r3, #18
 177 00cc FB18     		adds	r3, r7, r3
 178 00ce 1288     		ldrh	r2, [r2]
 179 00d0 1B88     		ldrh	r3, [r3]
 180 00d2 9A42     		cmp	r2, r3
 181 00d4 E5D3     		bcc	.L10
 152:..\..\..\..\..\..\Software\uCOS-III\Source/os_mem.c ****     }
 153:..\..\..\..\..\..\Software\uCOS-III\Source/os_mem.c ****    *p_link             = DEF_NULL;                              /* Last memory block points to NULL
 182              		.loc 1 153 0 is_stmt 1
 183 00d6 FB69     		ldr	r3, [r7, #28]
 184 00d8 0022     		movs	r2, #0
 185 00da 1A60     		str	r2, [r3]
 154:..\..\..\..\..\..\Software\uCOS-III\Source/os_mem.c **** 
 155:..\..\..\..\..\..\Software\uCOS-III\Source/os_mem.c ****     OS_CRITICAL_ENTER();
ARM GAS  C:\Users\ADMINI~1\AppData\Local\Temp\ccmmYEnX.s 			page 7


 186              		.loc 1 155 0
 187 00dc FFF7FEFF 		bl	CPU_SR_Save
 188 00e0 0300     		movs	r3, r0
 189 00e2 BB61     		str	r3, [r7, #24]
 190 00e4 FFF7FEFF 		bl	CPU_IntDisMeasStart
 156:..\..\..\..\..\..\Software\uCOS-III\Source/os_mem.c **** #if (OS_OBJ_TYPE_REQ == DEF_ENABLED)
 157:..\..\..\..\..\..\Software\uCOS-III\Source/os_mem.c ****     p_mem->Type        = OS_OBJ_TYPE_MEM;                       /* Set the type of object          
 191              		.loc 1 157 0
 192 00e8 FB68     		ldr	r3, [r7, #12]
 193 00ea 1C4A     		ldr	r2, .L11+20
 194 00ec 1A60     		str	r2, [r3]
 158:..\..\..\..\..\..\Software\uCOS-III\Source/os_mem.c **** #endif
 159:..\..\..\..\..\..\Software\uCOS-III\Source/os_mem.c **** #if (OS_CFG_DBG_EN == DEF_ENABLED)
 160:..\..\..\..\..\..\Software\uCOS-III\Source/os_mem.c ****     p_mem->NamePtr     = p_name;                                /* Save name of memory partition   
 195              		.loc 1 160 0
 196 00ee FB68     		ldr	r3, [r7, #12]
 197 00f0 BA68     		ldr	r2, [r7, #8]
 198 00f2 5A60     		str	r2, [r3, #4]
 161:..\..\..\..\..\..\Software\uCOS-III\Source/os_mem.c **** #else
 162:..\..\..\..\..\..\Software\uCOS-III\Source/os_mem.c ****     (void)&p_name;
 163:..\..\..\..\..\..\Software\uCOS-III\Source/os_mem.c **** #endif
 164:..\..\..\..\..\..\Software\uCOS-III\Source/os_mem.c ****     p_mem->AddrPtr     = p_addr;                                /* Store start address of memory pa
 199              		.loc 1 164 0
 200 00f4 FB68     		ldr	r3, [r7, #12]
 201 00f6 7A68     		ldr	r2, [r7, #4]
 202 00f8 9A60     		str	r2, [r3, #8]
 165:..\..\..\..\..\..\Software\uCOS-III\Source/os_mem.c ****     p_mem->FreeListPtr = p_addr;                                /* Initialize pointer to pool of fr
 203              		.loc 1 165 0
 204 00fa FB68     		ldr	r3, [r7, #12]
 205 00fc 7A68     		ldr	r2, [r7, #4]
 206 00fe DA60     		str	r2, [r3, #12]
 166:..\..\..\..\..\..\Software\uCOS-III\Source/os_mem.c ****     p_mem->NbrFree     = n_blks;                                /* Store number of free blocks in M
 207              		.loc 1 166 0
 208 0100 FB68     		ldr	r3, [r7, #12]
 209 0102 BA1C     		adds	r2, r7, #2
 210 0104 1288     		ldrh	r2, [r2]
 211 0106 9A82     		strh	r2, [r3, #20]
 167:..\..\..\..\..\..\Software\uCOS-III\Source/os_mem.c ****     p_mem->NbrMax      = n_blks;
 212              		.loc 1 167 0
 213 0108 FB68     		ldr	r3, [r7, #12]
 214 010a BA1C     		adds	r2, r7, #2
 215 010c 1288     		ldrh	r2, [r2]
 216 010e 5A82     		strh	r2, [r3, #18]
 168:..\..\..\..\..\..\Software\uCOS-III\Source/os_mem.c ****     p_mem->BlkSize     = blk_size;                              /* Store block size of each memory 
 217              		.loc 1 168 0
 218 0110 FB68     		ldr	r3, [r7, #12]
 219 0112 3022     		movs	r2, #48
 220 0114 BA18     		adds	r2, r7, r2
 221 0116 1288     		ldrh	r2, [r2]
 222 0118 1A82     		strh	r2, [r3, #16]
 169:..\..\..\..\..\..\Software\uCOS-III\Source/os_mem.c **** 
 170:..\..\..\..\..\..\Software\uCOS-III\Source/os_mem.c **** #if (OS_CFG_DBG_EN == DEF_ENABLED)
 171:..\..\..\..\..\..\Software\uCOS-III\Source/os_mem.c ****     OS_MemDbgListAdd(p_mem);
 223              		.loc 1 171 0
 224 011a FB68     		ldr	r3, [r7, #12]
 225 011c 1800     		movs	r0, r3
 226 011e FFF7FEFF 		bl	OS_MemDbgListAdd
ARM GAS  C:\Users\ADMINI~1\AppData\Local\Temp\ccmmYEnX.s 			page 8


 172:..\..\..\..\..\..\Software\uCOS-III\Source/os_mem.c ****     OSMemQty++;
 227              		.loc 1 172 0
 228 0122 0F4B     		ldr	r3, .L11+24
 229 0124 1B88     		ldrh	r3, [r3]
 230 0126 0133     		adds	r3, r3, #1
 231 0128 9AB2     		uxth	r2, r3
 232 012a 0D4B     		ldr	r3, .L11+24
 233 012c 1A80     		strh	r2, [r3]
 173:..\..\..\..\..\..\Software\uCOS-III\Source/os_mem.c **** #endif
 174:..\..\..\..\..\..\Software\uCOS-III\Source/os_mem.c **** 
 175:..\..\..\..\..\..\Software\uCOS-III\Source/os_mem.c **** #if (defined(TRACE_CFG_EN) && (TRACE_CFG_EN == DEF_ENABLED))
 176:..\..\..\..\..\..\Software\uCOS-III\Source/os_mem.c ****     TRACE_OS_MEM_CREATE(p_mem, p_name);                         /* Record the event.               
 177:..\..\..\..\..\..\Software\uCOS-III\Source/os_mem.c **** #endif
 178:..\..\..\..\..\..\Software\uCOS-III\Source/os_mem.c **** 
 179:..\..\..\..\..\..\Software\uCOS-III\Source/os_mem.c ****     OS_CRITICAL_EXIT_NO_SCHED();
 234              		.loc 1 179 0
 235 012e FFF7FEFF 		bl	CPU_IntDisMeasStop
 236 0132 BB69     		ldr	r3, [r7, #24]
 237 0134 1800     		movs	r0, r3
 238 0136 FFF7FEFF 		bl	CPU_SR_Restore
 180:..\..\..\..\..\..\Software\uCOS-III\Source/os_mem.c ****    *p_err = OS_ERR_NONE;
 239              		.loc 1 180 0
 240 013a 7B6B     		ldr	r3, [r7, #52]
 241 013c 0022     		movs	r2, #0
 242 013e 1A80     		strh	r2, [r3]
 243              	.L1:
 181:..\..\..\..\..\..\Software\uCOS-III\Source/os_mem.c **** }
 244              		.loc 1 181 0
 245 0140 BD46     		mov	sp, r7
 246 0142 0AB0     		add	sp, sp, #40
 247              		@ sp needed
 248 0144 80BD     		pop	{r7, pc}
 249              	.L12:
 250 0146 C046     		.align	2
 251              	.L11:
 252 0148 00000000 		.word	OSIntNestingCtr
 253 014c B9560000 		.word	22201
 254 0150 BB560000 		.word	22203
 255 0154 BC560000 		.word	22204
 256 0158 C1560000 		.word	22209
 257 015c 4D454D20 		.word	541934925
 258 0160 00000000 		.word	OSMemQty
 259              		.cfi_endproc
 260              	.LFE0:
 261              		.size	OSMemCreate, .-OSMemCreate
 262              		.section	.text.OSMemGet,"ax",%progbits
 263              		.align	2
 264              		.global	OSMemGet
 265              		.code	16
 266              		.thumb_func
 267              		.type	OSMemGet, %function
 268              	OSMemGet:
 269              	.LFB1:
 182:..\..\..\..\..\..\Software\uCOS-III\Source/os_mem.c **** 
 183:..\..\..\..\..\..\Software\uCOS-III\Source/os_mem.c **** 
 184:..\..\..\..\..\..\Software\uCOS-III\Source/os_mem.c **** /*
 185:..\..\..\..\..\..\Software\uCOS-III\Source/os_mem.c **** ***************************************************************************************************
ARM GAS  C:\Users\ADMINI~1\AppData\Local\Temp\ccmmYEnX.s 			page 9


 186:..\..\..\..\..\..\Software\uCOS-III\Source/os_mem.c **** *                                                  GET A MEMORY BLOCK
 187:..\..\..\..\..\..\Software\uCOS-III\Source/os_mem.c **** *
 188:..\..\..\..\..\..\Software\uCOS-III\Source/os_mem.c **** * Description : Get a memory block from a partition.
 189:..\..\..\..\..\..\Software\uCOS-III\Source/os_mem.c **** *
 190:..\..\..\..\..\..\Software\uCOS-III\Source/os_mem.c **** * Arguments   : p_mem   is a pointer to the memory partition control block
 191:..\..\..\..\..\..\Software\uCOS-III\Source/os_mem.c **** *
 192:..\..\..\..\..\..\Software\uCOS-III\Source/os_mem.c **** *               p_err   is a pointer to a variable containing an error message which will be set by
 193:..\..\..\..\..\..\Software\uCOS-III\Source/os_mem.c **** *                       either:
 194:..\..\..\..\..\..\Software\uCOS-III\Source/os_mem.c **** *
 195:..\..\..\..\..\..\Software\uCOS-III\Source/os_mem.c **** *                           OS_ERR_NONE               If the memory partition has been created corr
 196:..\..\..\..\..\..\Software\uCOS-III\Source/os_mem.c **** *                           OS_ERR_MEM_INVALID_P_MEM  If you passed a NULL pointer for 'p_mem'
 197:..\..\..\..\..\..\Software\uCOS-III\Source/os_mem.c **** *                           OS_ERR_MEM_NO_FREE_BLKS   If there are no more free memory blocks to al
 198:..\..\..\..\..\..\Software\uCOS-III\Source/os_mem.c **** *                           OS_ERR_OBJ_TYPE           If 'p_mem' is not pointing at a memory partit
 199:..\..\..\..\..\..\Software\uCOS-III\Source/os_mem.c **** *
 200:..\..\..\..\..\..\Software\uCOS-III\Source/os_mem.c **** * Returns    : A pointer to a memory block if no error is detected
 201:..\..\..\..\..\..\Software\uCOS-III\Source/os_mem.c **** *              A pointer to NULL if an error is detected
 202:..\..\..\..\..\..\Software\uCOS-III\Source/os_mem.c **** *
 203:..\..\..\..\..\..\Software\uCOS-III\Source/os_mem.c **** * Note(s)    : none
 204:..\..\..\..\..\..\Software\uCOS-III\Source/os_mem.c **** ***************************************************************************************************
 205:..\..\..\..\..\..\Software\uCOS-III\Source/os_mem.c **** */
 206:..\..\..\..\..\..\Software\uCOS-III\Source/os_mem.c **** 
 207:..\..\..\..\..\..\Software\uCOS-III\Source/os_mem.c **** void  *OSMemGet (OS_MEM  *p_mem,
 208:..\..\..\..\..\..\Software\uCOS-III\Source/os_mem.c ****                  OS_ERR  *p_err)
 209:..\..\..\..\..\..\Software\uCOS-III\Source/os_mem.c **** {
 270              		.loc 1 209 0
 271              		.cfi_startproc
 272              		@ args = 0, pretend = 0, frame = 16
 273              		@ frame_needed = 1, uses_anonymous_args = 0
 274 0000 80B5     		push	{r7, lr}
 275              		.cfi_def_cfa_offset 8
 276              		.cfi_offset 7, -8
 277              		.cfi_offset 14, -4
 278 0002 84B0     		sub	sp, sp, #16
 279              		.cfi_def_cfa_offset 24
 280 0004 00AF     		add	r7, sp, #0
 281              		.cfi_def_cfa_register 7
 282 0006 7860     		str	r0, [r7, #4]
 283 0008 3960     		str	r1, [r7]
 210:..\..\..\..\..\..\Software\uCOS-III\Source/os_mem.c ****     void    *p_blk;
 211:..\..\..\..\..\..\Software\uCOS-III\Source/os_mem.c ****     CPU_SR_ALLOC();
 284              		.loc 1 211 0
 285 000a 0023     		movs	r3, #0
 286 000c FB60     		str	r3, [r7, #12]
 212:..\..\..\..\..\..\Software\uCOS-III\Source/os_mem.c **** 
 213:..\..\..\..\..\..\Software\uCOS-III\Source/os_mem.c **** 
 214:..\..\..\..\..\..\Software\uCOS-III\Source/os_mem.c **** 
 215:..\..\..\..\..\..\Software\uCOS-III\Source/os_mem.c **** #ifdef OS_SAFETY_CRITICAL
 216:..\..\..\..\..\..\Software\uCOS-III\Source/os_mem.c ****     if (p_err == DEF_NULL) {
 217:..\..\..\..\..\..\Software\uCOS-III\Source/os_mem.c ****         OS_SAFETY_CRITICAL_EXCEPTION();
 218:..\..\..\..\..\..\Software\uCOS-III\Source/os_mem.c ****         return (DEF_NULL);
 219:..\..\..\..\..\..\Software\uCOS-III\Source/os_mem.c ****     }
 220:..\..\..\..\..\..\Software\uCOS-III\Source/os_mem.c **** #endif
 221:..\..\..\..\..\..\Software\uCOS-III\Source/os_mem.c **** 
 222:..\..\..\..\..\..\Software\uCOS-III\Source/os_mem.c **** #if (OS_CFG_ARG_CHK_EN == DEF_ENABLED)
 223:..\..\..\..\..\..\Software\uCOS-III\Source/os_mem.c ****     if (p_mem == DEF_NULL) {                                    /* Must point to a valid memory par
 287              		.loc 1 223 0
 288 000e 7B68     		ldr	r3, [r7, #4]
ARM GAS  C:\Users\ADMINI~1\AppData\Local\Temp\ccmmYEnX.s 			page 10


 289 0010 002B     		cmp	r3, #0
 290 0012 04D1     		bne	.L14
 224:..\..\..\..\..\..\Software\uCOS-III\Source/os_mem.c **** #if (defined(TRACE_CFG_EN) && (TRACE_CFG_EN == DEF_ENABLED))
 225:..\..\..\..\..\..\Software\uCOS-III\Source/os_mem.c ****         TRACE_OS_MEM_GET_FAILED(p_mem);                         /* Record the event.               
 226:..\..\..\..\..\..\Software\uCOS-III\Source/os_mem.c **** #endif
 227:..\..\..\..\..\..\Software\uCOS-III\Source/os_mem.c ****        *p_err  = OS_ERR_MEM_INVALID_P_MEM;
 291              		.loc 1 227 0
 292 0014 3B68     		ldr	r3, [r7]
 293 0016 1A4A     		ldr	r2, .L17
 294 0018 1A80     		strh	r2, [r3]
 228:..\..\..\..\..\..\Software\uCOS-III\Source/os_mem.c ****         return (DEF_NULL);
 295              		.loc 1 228 0
 296 001a 0023     		movs	r3, #0
 297 001c 2BE0     		b	.L15
 298              	.L14:
 229:..\..\..\..\..\..\Software\uCOS-III\Source/os_mem.c ****     }
 230:..\..\..\..\..\..\Software\uCOS-III\Source/os_mem.c **** #endif
 231:..\..\..\..\..\..\Software\uCOS-III\Source/os_mem.c **** 
 232:..\..\..\..\..\..\Software\uCOS-III\Source/os_mem.c **** #if (OS_CFG_OBJ_TYPE_CHK_EN == DEF_ENABLED)
 233:..\..\..\..\..\..\Software\uCOS-III\Source/os_mem.c ****     if (p_mem->Type != OS_OBJ_TYPE_MEM) {                       /* Make sure the memory block was c
 234:..\..\..\..\..\..\Software\uCOS-III\Source/os_mem.c ****        *p_err = OS_ERR_OBJ_TYPE;
 235:..\..\..\..\..\..\Software\uCOS-III\Source/os_mem.c ****         return (DEF_NULL);
 236:..\..\..\..\..\..\Software\uCOS-III\Source/os_mem.c ****     }
 237:..\..\..\..\..\..\Software\uCOS-III\Source/os_mem.c **** #endif
 238:..\..\..\..\..\..\Software\uCOS-III\Source/os_mem.c **** 
 239:..\..\..\..\..\..\Software\uCOS-III\Source/os_mem.c **** 
 240:..\..\..\..\..\..\Software\uCOS-III\Source/os_mem.c ****     CPU_CRITICAL_ENTER();
 299              		.loc 1 240 0
 300 001e FFF7FEFF 		bl	CPU_SR_Save
 301 0022 0300     		movs	r3, r0
 302 0024 FB60     		str	r3, [r7, #12]
 303 0026 FFF7FEFF 		bl	CPU_IntDisMeasStart
 241:..\..\..\..\..\..\Software\uCOS-III\Source/os_mem.c ****     if (p_mem->NbrFree == 0u) {                                 /* See if there are any free memory
 304              		.loc 1 241 0
 305 002a 7B68     		ldr	r3, [r7, #4]
 306 002c 9B8A     		ldrh	r3, [r3, #20]
 307 002e 002B     		cmp	r3, #0
 308 0030 0AD1     		bne	.L16
 242:..\..\..\..\..\..\Software\uCOS-III\Source/os_mem.c ****         CPU_CRITICAL_EXIT();
 309              		.loc 1 242 0
 310 0032 FFF7FEFF 		bl	CPU_IntDisMeasStop
 311 0036 FB68     		ldr	r3, [r7, #12]
 312 0038 1800     		movs	r0, r3
 313 003a FFF7FEFF 		bl	CPU_SR_Restore
 243:..\..\..\..\..\..\Software\uCOS-III\Source/os_mem.c **** #if (defined(TRACE_CFG_EN) && (TRACE_CFG_EN == DEF_ENABLED))
 244:..\..\..\..\..\..\Software\uCOS-III\Source/os_mem.c ****         TRACE_OS_MEM_GET_FAILED(p_mem);                         /* Record the event.               
 245:..\..\..\..\..\..\Software\uCOS-III\Source/os_mem.c **** #endif
 246:..\..\..\..\..\..\Software\uCOS-III\Source/os_mem.c ****        *p_err = OS_ERR_MEM_NO_FREE_BLKS;                        /* No,  Notify caller of empty memo
 314              		.loc 1 246 0
 315 003e 3B68     		ldr	r3, [r7]
 316 0040 104A     		ldr	r2, .L17+4
 317 0042 1A80     		strh	r2, [r3]
 247:..\..\..\..\..\..\Software\uCOS-III\Source/os_mem.c ****         return (DEF_NULL);                                      /* Return NULL pointer to caller   
 318              		.loc 1 247 0
 319 0044 0023     		movs	r3, #0
 320 0046 16E0     		b	.L15
 321              	.L16:
ARM GAS  C:\Users\ADMINI~1\AppData\Local\Temp\ccmmYEnX.s 			page 11


 248:..\..\..\..\..\..\Software\uCOS-III\Source/os_mem.c ****     }
 249:..\..\..\..\..\..\Software\uCOS-III\Source/os_mem.c ****     p_blk              = p_mem->FreeListPtr;                    /* Yes, point to next free memory b
 322              		.loc 1 249 0
 323 0048 7B68     		ldr	r3, [r7, #4]
 324 004a DB68     		ldr	r3, [r3, #12]
 325 004c BB60     		str	r3, [r7, #8]
 250:..\..\..\..\..\..\Software\uCOS-III\Source/os_mem.c ****     p_mem->FreeListPtr = *(void **)p_blk;                       /* Adjust pointer to new free list 
 326              		.loc 1 250 0
 327 004e BB68     		ldr	r3, [r7, #8]
 328 0050 1A68     		ldr	r2, [r3]
 329 0052 7B68     		ldr	r3, [r7, #4]
 330 0054 DA60     		str	r2, [r3, #12]
 251:..\..\..\..\..\..\Software\uCOS-III\Source/os_mem.c ****     p_mem->NbrFree--;                                           /* One less memory block in this pa
 331              		.loc 1 251 0
 332 0056 7B68     		ldr	r3, [r7, #4]
 333 0058 9B8A     		ldrh	r3, [r3, #20]
 334 005a 013B     		subs	r3, r3, #1
 335 005c 9AB2     		uxth	r2, r3
 336 005e 7B68     		ldr	r3, [r7, #4]
 337 0060 9A82     		strh	r2, [r3, #20]
 252:..\..\..\..\..\..\Software\uCOS-III\Source/os_mem.c ****     CPU_CRITICAL_EXIT();
 338              		.loc 1 252 0
 339 0062 FFF7FEFF 		bl	CPU_IntDisMeasStop
 340 0066 FB68     		ldr	r3, [r7, #12]
 341 0068 1800     		movs	r0, r3
 342 006a FFF7FEFF 		bl	CPU_SR_Restore
 253:..\..\..\..\..\..\Software\uCOS-III\Source/os_mem.c **** #if (defined(TRACE_CFG_EN) && (TRACE_CFG_EN == DEF_ENABLED))
 254:..\..\..\..\..\..\Software\uCOS-III\Source/os_mem.c ****     TRACE_OS_MEM_GET(p_mem);                                    /* Record the event.               
 255:..\..\..\..\..\..\Software\uCOS-III\Source/os_mem.c **** #endif
 256:..\..\..\..\..\..\Software\uCOS-III\Source/os_mem.c ****    *p_err = OS_ERR_NONE;                                        /* No error                        
 343              		.loc 1 256 0
 344 006e 3B68     		ldr	r3, [r7]
 345 0070 0022     		movs	r2, #0
 346 0072 1A80     		strh	r2, [r3]
 257:..\..\..\..\..\..\Software\uCOS-III\Source/os_mem.c ****     return (p_blk);                                             /* Return memory block to caller   
 347              		.loc 1 257 0
 348 0074 BB68     		ldr	r3, [r7, #8]
 349              	.L15:
 258:..\..\..\..\..\..\Software\uCOS-III\Source/os_mem.c **** }
 350              		.loc 1 258 0
 351 0076 1800     		movs	r0, r3
 352 0078 BD46     		mov	sp, r7
 353 007a 04B0     		add	sp, sp, #16
 354              		@ sp needed
 355 007c 80BD     		pop	{r7, pc}
 356              	.L18:
 357 007e C046     		.align	2
 358              	.L17:
 359 0080 BF560000 		.word	22207
 360 0084 C2560000 		.word	22210
 361              		.cfi_endproc
 362              	.LFE1:
 363              		.size	OSMemGet, .-OSMemGet
 364              		.section	.text.OSMemPut,"ax",%progbits
 365              		.align	2
 366              		.global	OSMemPut
 367              		.code	16
ARM GAS  C:\Users\ADMINI~1\AppData\Local\Temp\ccmmYEnX.s 			page 12


 368              		.thumb_func
 369              		.type	OSMemPut, %function
 370              	OSMemPut:
 371              	.LFB2:
 259:..\..\..\..\..\..\Software\uCOS-III\Source/os_mem.c **** 
 260:..\..\..\..\..\..\Software\uCOS-III\Source/os_mem.c **** 
 261:..\..\..\..\..\..\Software\uCOS-III\Source/os_mem.c **** /*
 262:..\..\..\..\..\..\Software\uCOS-III\Source/os_mem.c **** ***************************************************************************************************
 263:..\..\..\..\..\..\Software\uCOS-III\Source/os_mem.c **** *                                                 RELEASE A MEMORY BLOCK
 264:..\..\..\..\..\..\Software\uCOS-III\Source/os_mem.c **** *
 265:..\..\..\..\..\..\Software\uCOS-III\Source/os_mem.c **** * Description : Returns a memory block to a partition.
 266:..\..\..\..\..\..\Software\uCOS-III\Source/os_mem.c **** *
 267:..\..\..\..\..\..\Software\uCOS-III\Source/os_mem.c **** * Arguments   : p_mem    is a pointer to the memory partition control block
 268:..\..\..\..\..\..\Software\uCOS-III\Source/os_mem.c **** *
 269:..\..\..\..\..\..\Software\uCOS-III\Source/os_mem.c **** *               p_blk    is a pointer to the memory block being released.
 270:..\..\..\..\..\..\Software\uCOS-III\Source/os_mem.c **** *
 271:..\..\..\..\..\..\Software\uCOS-III\Source/os_mem.c **** *               p_err    is a pointer to a variable that will contain an error code returned by thi
 272:..\..\..\..\..\..\Software\uCOS-III\Source/os_mem.c **** *
 273:..\..\..\..\..\..\Software\uCOS-III\Source/os_mem.c **** *                            OS_ERR_NONE               If the memory block was inserted into the pa
 274:..\..\..\..\..\..\Software\uCOS-III\Source/os_mem.c **** *                            OS_ERR_MEM_FULL           If you are returning a memory block to an al
 275:..\..\..\..\..\..\Software\uCOS-III\Source/os_mem.c **** *                                                      partition (You freed more blocks than you al
 276:..\..\..\..\..\..\Software\uCOS-III\Source/os_mem.c **** *                            OS_ERR_MEM_INVALID_P_BLK  If you passed a NULL pointer for the block t
 277:..\..\..\..\..\..\Software\uCOS-III\Source/os_mem.c **** *                            OS_ERR_MEM_INVALID_P_MEM  If you passed a NULL pointer for 'p_mem'
 278:..\..\..\..\..\..\Software\uCOS-III\Source/os_mem.c **** *                            OS_ERR_OBJ_TYPE           If 'p_mem' is not pointing at a memory parti
 279:..\..\..\..\..\..\Software\uCOS-III\Source/os_mem.c **** *
 280:..\..\..\..\..\..\Software\uCOS-III\Source/os_mem.c **** * Returns    : none
 281:..\..\..\..\..\..\Software\uCOS-III\Source/os_mem.c **** *
 282:..\..\..\..\..\..\Software\uCOS-III\Source/os_mem.c **** * Note(s)    : none
 283:..\..\..\..\..\..\Software\uCOS-III\Source/os_mem.c **** ***************************************************************************************************
 284:..\..\..\..\..\..\Software\uCOS-III\Source/os_mem.c **** */
 285:..\..\..\..\..\..\Software\uCOS-III\Source/os_mem.c **** 
 286:..\..\..\..\..\..\Software\uCOS-III\Source/os_mem.c **** void  OSMemPut (OS_MEM  *p_mem,
 287:..\..\..\..\..\..\Software\uCOS-III\Source/os_mem.c ****                 void    *p_blk,
 288:..\..\..\..\..\..\Software\uCOS-III\Source/os_mem.c ****                 OS_ERR  *p_err)
 289:..\..\..\..\..\..\Software\uCOS-III\Source/os_mem.c **** {
 372              		.loc 1 289 0
 373              		.cfi_startproc
 374              		@ args = 0, pretend = 0, frame = 24
 375              		@ frame_needed = 1, uses_anonymous_args = 0
 376 0000 80B5     		push	{r7, lr}
 377              		.cfi_def_cfa_offset 8
 378              		.cfi_offset 7, -8
 379              		.cfi_offset 14, -4
 380 0002 86B0     		sub	sp, sp, #24
 381              		.cfi_def_cfa_offset 32
 382 0004 00AF     		add	r7, sp, #0
 383              		.cfi_def_cfa_register 7
 384 0006 F860     		str	r0, [r7, #12]
 385 0008 B960     		str	r1, [r7, #8]
 386 000a 7A60     		str	r2, [r7, #4]
 290:..\..\..\..\..\..\Software\uCOS-III\Source/os_mem.c ****     CPU_SR_ALLOC();
 387              		.loc 1 290 0
 388 000c 0023     		movs	r3, #0
 389 000e 7B61     		str	r3, [r7, #20]
 291:..\..\..\..\..\..\Software\uCOS-III\Source/os_mem.c **** 
 292:..\..\..\..\..\..\Software\uCOS-III\Source/os_mem.c **** 
 293:..\..\..\..\..\..\Software\uCOS-III\Source/os_mem.c **** 
ARM GAS  C:\Users\ADMINI~1\AppData\Local\Temp\ccmmYEnX.s 			page 13


 294:..\..\..\..\..\..\Software\uCOS-III\Source/os_mem.c **** #ifdef OS_SAFETY_CRITICAL
 295:..\..\..\..\..\..\Software\uCOS-III\Source/os_mem.c ****     if (p_err == DEF_NULL) {
 296:..\..\..\..\..\..\Software\uCOS-III\Source/os_mem.c ****         OS_SAFETY_CRITICAL_EXCEPTION();
 297:..\..\..\..\..\..\Software\uCOS-III\Source/os_mem.c ****         return;
 298:..\..\..\..\..\..\Software\uCOS-III\Source/os_mem.c ****     }
 299:..\..\..\..\..\..\Software\uCOS-III\Source/os_mem.c **** #endif
 300:..\..\..\..\..\..\Software\uCOS-III\Source/os_mem.c **** 
 301:..\..\..\..\..\..\Software\uCOS-III\Source/os_mem.c **** #if (OS_CFG_ARG_CHK_EN == DEF_ENABLED)
 302:..\..\..\..\..\..\Software\uCOS-III\Source/os_mem.c ****     if (p_mem == DEF_NULL) {                                    /* Must point to a valid memory par
 390              		.loc 1 302 0
 391 0010 FB68     		ldr	r3, [r7, #12]
 392 0012 002B     		cmp	r3, #0
 393 0014 03D1     		bne	.L20
 303:..\..\..\..\..\..\Software\uCOS-III\Source/os_mem.c **** #if (defined(TRACE_CFG_EN) && (TRACE_CFG_EN == DEF_ENABLED))
 304:..\..\..\..\..\..\Software\uCOS-III\Source/os_mem.c ****         TRACE_OS_MEM_PUT_FAILED(p_mem);                         /* Record the event.               
 305:..\..\..\..\..\..\Software\uCOS-III\Source/os_mem.c **** #endif
 306:..\..\..\..\..\..\Software\uCOS-III\Source/os_mem.c ****        *p_err  = OS_ERR_MEM_INVALID_P_MEM;
 394              		.loc 1 306 0
 395 0016 7B68     		ldr	r3, [r7, #4]
 396 0018 1C4A     		ldr	r2, .L24
 397 001a 1A80     		strh	r2, [r3]
 307:..\..\..\..\..\..\Software\uCOS-III\Source/os_mem.c ****         return;
 398              		.loc 1 307 0
 399 001c 32E0     		b	.L19
 400              	.L20:
 308:..\..\..\..\..\..\Software\uCOS-III\Source/os_mem.c ****     }
 309:..\..\..\..\..\..\Software\uCOS-III\Source/os_mem.c ****     if (p_blk == DEF_NULL) {                                    /* Must release a valid block      
 401              		.loc 1 309 0
 402 001e BB68     		ldr	r3, [r7, #8]
 403 0020 002B     		cmp	r3, #0
 404 0022 03D1     		bne	.L22
 310:..\..\..\..\..\..\Software\uCOS-III\Source/os_mem.c **** #if (defined(TRACE_CFG_EN) && (TRACE_CFG_EN == DEF_ENABLED))
 311:..\..\..\..\..\..\Software\uCOS-III\Source/os_mem.c ****         TRACE_OS_MEM_PUT_FAILED(p_mem);                         /* Record the event.               
 312:..\..\..\..\..\..\Software\uCOS-III\Source/os_mem.c **** #endif
 313:..\..\..\..\..\..\Software\uCOS-III\Source/os_mem.c ****        *p_err  = OS_ERR_MEM_INVALID_P_BLK;
 405              		.loc 1 313 0
 406 0024 7B68     		ldr	r3, [r7, #4]
 407 0026 1A4A     		ldr	r2, .L24+4
 408 0028 1A80     		strh	r2, [r3]
 314:..\..\..\..\..\..\Software\uCOS-III\Source/os_mem.c ****         return;
 409              		.loc 1 314 0
 410 002a 2BE0     		b	.L19
 411              	.L22:
 315:..\..\..\..\..\..\Software\uCOS-III\Source/os_mem.c ****     }
 316:..\..\..\..\..\..\Software\uCOS-III\Source/os_mem.c **** #endif
 317:..\..\..\..\..\..\Software\uCOS-III\Source/os_mem.c **** 
 318:..\..\..\..\..\..\Software\uCOS-III\Source/os_mem.c **** #if (OS_CFG_OBJ_TYPE_CHK_EN == DEF_ENABLED)
 319:..\..\..\..\..\..\Software\uCOS-III\Source/os_mem.c ****     if (p_mem->Type != OS_OBJ_TYPE_MEM) {                       /* Make sure the memory block was c
 320:..\..\..\..\..\..\Software\uCOS-III\Source/os_mem.c ****        *p_err = OS_ERR_OBJ_TYPE;
 321:..\..\..\..\..\..\Software\uCOS-III\Source/os_mem.c ****         return;
 322:..\..\..\..\..\..\Software\uCOS-III\Source/os_mem.c ****     }
 323:..\..\..\..\..\..\Software\uCOS-III\Source/os_mem.c **** #endif
 324:..\..\..\..\..\..\Software\uCOS-III\Source/os_mem.c **** 
 325:..\..\..\..\..\..\Software\uCOS-III\Source/os_mem.c **** 
 326:..\..\..\..\..\..\Software\uCOS-III\Source/os_mem.c ****     CPU_CRITICAL_ENTER();
 412              		.loc 1 326 0
 413 002c FFF7FEFF 		bl	CPU_SR_Save
ARM GAS  C:\Users\ADMINI~1\AppData\Local\Temp\ccmmYEnX.s 			page 14


 414 0030 0300     		movs	r3, r0
 415 0032 7B61     		str	r3, [r7, #20]
 416 0034 FFF7FEFF 		bl	CPU_IntDisMeasStart
 327:..\..\..\..\..\..\Software\uCOS-III\Source/os_mem.c ****     if (p_mem->NbrFree >= p_mem->NbrMax) {                      /* Make sure all blocks not already
 417              		.loc 1 327 0
 418 0038 FB68     		ldr	r3, [r7, #12]
 419 003a 9A8A     		ldrh	r2, [r3, #20]
 420 003c FB68     		ldr	r3, [r7, #12]
 421 003e 5B8A     		ldrh	r3, [r3, #18]
 422 0040 9A42     		cmp	r2, r3
 423 0042 09D3     		bcc	.L23
 328:..\..\..\..\..\..\Software\uCOS-III\Source/os_mem.c ****         CPU_CRITICAL_EXIT();
 424              		.loc 1 328 0
 425 0044 FFF7FEFF 		bl	CPU_IntDisMeasStop
 426 0048 7B69     		ldr	r3, [r7, #20]
 427 004a 1800     		movs	r0, r3
 428 004c FFF7FEFF 		bl	CPU_SR_Restore
 329:..\..\..\..\..\..\Software\uCOS-III\Source/os_mem.c **** #if (defined(TRACE_CFG_EN) && (TRACE_CFG_EN == DEF_ENABLED))
 330:..\..\..\..\..\..\Software\uCOS-III\Source/os_mem.c ****         TRACE_OS_MEM_PUT_FAILED(p_mem);                         /* Record the event.               
 331:..\..\..\..\..\..\Software\uCOS-III\Source/os_mem.c **** #endif
 332:..\..\..\..\..\..\Software\uCOS-III\Source/os_mem.c ****        *p_err = OS_ERR_MEM_FULL;
 429              		.loc 1 332 0
 430 0050 7B68     		ldr	r3, [r7, #4]
 431 0052 104A     		ldr	r2, .L24+8
 432 0054 1A80     		strh	r2, [r3]
 333:..\..\..\..\..\..\Software\uCOS-III\Source/os_mem.c ****         return;
 433              		.loc 1 333 0
 434 0056 15E0     		b	.L19
 435              	.L23:
 334:..\..\..\..\..\..\Software\uCOS-III\Source/os_mem.c ****     }
 335:..\..\..\..\..\..\Software\uCOS-III\Source/os_mem.c ****     *(void **)p_blk    = p_mem->FreeListPtr;                    /* Insert released block into free 
 436              		.loc 1 335 0
 437 0058 FB68     		ldr	r3, [r7, #12]
 438 005a DA68     		ldr	r2, [r3, #12]
 439 005c BB68     		ldr	r3, [r7, #8]
 440 005e 1A60     		str	r2, [r3]
 336:..\..\..\..\..\..\Software\uCOS-III\Source/os_mem.c ****     p_mem->FreeListPtr = p_blk;
 441              		.loc 1 336 0
 442 0060 FB68     		ldr	r3, [r7, #12]
 443 0062 BA68     		ldr	r2, [r7, #8]
 444 0064 DA60     		str	r2, [r3, #12]
 337:..\..\..\..\..\..\Software\uCOS-III\Source/os_mem.c ****     p_mem->NbrFree++;                                           /* One more memory block in this pa
 445              		.loc 1 337 0
 446 0066 FB68     		ldr	r3, [r7, #12]
 447 0068 9B8A     		ldrh	r3, [r3, #20]
 448 006a 0133     		adds	r3, r3, #1
 449 006c 9AB2     		uxth	r2, r3
 450 006e FB68     		ldr	r3, [r7, #12]
 451 0070 9A82     		strh	r2, [r3, #20]
 338:..\..\..\..\..\..\Software\uCOS-III\Source/os_mem.c ****     CPU_CRITICAL_EXIT();
 452              		.loc 1 338 0
 453 0072 FFF7FEFF 		bl	CPU_IntDisMeasStop
 454 0076 7B69     		ldr	r3, [r7, #20]
 455 0078 1800     		movs	r0, r3
 456 007a FFF7FEFF 		bl	CPU_SR_Restore
 339:..\..\..\..\..\..\Software\uCOS-III\Source/os_mem.c **** #if (defined(TRACE_CFG_EN) && (TRACE_CFG_EN == DEF_ENABLED))
 340:..\..\..\..\..\..\Software\uCOS-III\Source/os_mem.c ****     TRACE_OS_MEM_PUT(p_mem);                                    /* Record the event.               
ARM GAS  C:\Users\ADMINI~1\AppData\Local\Temp\ccmmYEnX.s 			page 15


 341:..\..\..\..\..\..\Software\uCOS-III\Source/os_mem.c **** #endif
 342:..\..\..\..\..\..\Software\uCOS-III\Source/os_mem.c ****    *p_err              = OS_ERR_NONE;                           /* Notify caller that memory block 
 457              		.loc 1 342 0
 458 007e 7B68     		ldr	r3, [r7, #4]
 459 0080 0022     		movs	r2, #0
 460 0082 1A80     		strh	r2, [r3]
 461              	.L19:
 343:..\..\..\..\..\..\Software\uCOS-III\Source/os_mem.c **** }
 462              		.loc 1 343 0
 463 0084 BD46     		mov	sp, r7
 464 0086 06B0     		add	sp, sp, #24
 465              		@ sp needed
 466 0088 80BD     		pop	{r7, pc}
 467              	.L25:
 468 008a C046     		.align	2
 469              	.L24:
 470 008c BF560000 		.word	22207
 471 0090 BE560000 		.word	22206
 472 0094 BA560000 		.word	22202
 473              		.cfi_endproc
 474              	.LFE2:
 475              		.size	OSMemPut, .-OSMemPut
 476              		.section	.text.OS_MemDbgListAdd,"ax",%progbits
 477              		.align	2
 478              		.global	OS_MemDbgListAdd
 479              		.code	16
 480              		.thumb_func
 481              		.type	OS_MemDbgListAdd, %function
 482              	OS_MemDbgListAdd:
 483              	.LFB3:
 344:..\..\..\..\..\..\Software\uCOS-III\Source/os_mem.c **** 
 345:..\..\..\..\..\..\Software\uCOS-III\Source/os_mem.c **** 
 346:..\..\..\..\..\..\Software\uCOS-III\Source/os_mem.c **** /*
 347:..\..\..\..\..\..\Software\uCOS-III\Source/os_mem.c **** ***************************************************************************************************
 348:..\..\..\..\..\..\Software\uCOS-III\Source/os_mem.c **** *                                           ADD MEMORY PARTITION TO DEBUG LIST
 349:..\..\..\..\..\..\Software\uCOS-III\Source/os_mem.c **** *
 350:..\..\..\..\..\..\Software\uCOS-III\Source/os_mem.c **** * Description : This function is called by OSMemCreate() to add the memory partition to the debug t
 351:..\..\..\..\..\..\Software\uCOS-III\Source/os_mem.c **** *
 352:..\..\..\..\..\..\Software\uCOS-III\Source/os_mem.c **** * Arguments   : p_mem    Is a pointer to the memory partition
 353:..\..\..\..\..\..\Software\uCOS-III\Source/os_mem.c **** *
 354:..\..\..\..\..\..\Software\uCOS-III\Source/os_mem.c **** * Returns     : none
 355:..\..\..\..\..\..\Software\uCOS-III\Source/os_mem.c **** *
 356:..\..\..\..\..\..\Software\uCOS-III\Source/os_mem.c **** * Note(s)    : This function is INTERNAL to uC/OS-III and your application should not call it.
 357:..\..\..\..\..\..\Software\uCOS-III\Source/os_mem.c **** ***************************************************************************************************
 358:..\..\..\..\..\..\Software\uCOS-III\Source/os_mem.c **** */
 359:..\..\..\..\..\..\Software\uCOS-III\Source/os_mem.c **** 
 360:..\..\..\..\..\..\Software\uCOS-III\Source/os_mem.c **** #if (OS_CFG_DBG_EN == DEF_ENABLED)
 361:..\..\..\..\..\..\Software\uCOS-III\Source/os_mem.c **** void  OS_MemDbgListAdd (OS_MEM  *p_mem)
 362:..\..\..\..\..\..\Software\uCOS-III\Source/os_mem.c **** {
 484              		.loc 1 362 0
 485              		.cfi_startproc
 486              		@ args = 0, pretend = 0, frame = 8
 487              		@ frame_needed = 1, uses_anonymous_args = 0
 488 0000 80B5     		push	{r7, lr}
 489              		.cfi_def_cfa_offset 8
 490              		.cfi_offset 7, -8
 491              		.cfi_offset 14, -4
ARM GAS  C:\Users\ADMINI~1\AppData\Local\Temp\ccmmYEnX.s 			page 16


 492 0002 82B0     		sub	sp, sp, #8
 493              		.cfi_def_cfa_offset 16
 494 0004 00AF     		add	r7, sp, #0
 495              		.cfi_def_cfa_register 7
 496 0006 7860     		str	r0, [r7, #4]
 363:..\..\..\..\..\..\Software\uCOS-III\Source/os_mem.c ****     p_mem->DbgPrevPtr               = DEF_NULL;
 497              		.loc 1 363 0
 498 0008 7B68     		ldr	r3, [r7, #4]
 499 000a 0022     		movs	r2, #0
 500 000c 9A61     		str	r2, [r3, #24]
 364:..\..\..\..\..\..\Software\uCOS-III\Source/os_mem.c ****     if (OSMemDbgListPtr == DEF_NULL) {
 501              		.loc 1 364 0
 502 000e 0B4B     		ldr	r3, .L29
 503 0010 1B68     		ldr	r3, [r3]
 504 0012 002B     		cmp	r3, #0
 505 0014 03D1     		bne	.L27
 365:..\..\..\..\..\..\Software\uCOS-III\Source/os_mem.c ****         p_mem->DbgNextPtr           = DEF_NULL;
 506              		.loc 1 365 0
 507 0016 7B68     		ldr	r3, [r7, #4]
 508 0018 0022     		movs	r2, #0
 509 001a DA61     		str	r2, [r3, #28]
 510 001c 07E0     		b	.L28
 511              	.L27:
 366:..\..\..\..\..\..\Software\uCOS-III\Source/os_mem.c ****     } else {
 367:..\..\..\..\..\..\Software\uCOS-III\Source/os_mem.c ****         p_mem->DbgNextPtr           =  OSMemDbgListPtr;
 512              		.loc 1 367 0
 513 001e 074B     		ldr	r3, .L29
 514 0020 1A68     		ldr	r2, [r3]
 515 0022 7B68     		ldr	r3, [r7, #4]
 516 0024 DA61     		str	r2, [r3, #28]
 368:..\..\..\..\..\..\Software\uCOS-III\Source/os_mem.c ****         OSMemDbgListPtr->DbgPrevPtr =  p_mem;
 517              		.loc 1 368 0
 518 0026 054B     		ldr	r3, .L29
 519 0028 1B68     		ldr	r3, [r3]
 520 002a 7A68     		ldr	r2, [r7, #4]
 521 002c 9A61     		str	r2, [r3, #24]
 522              	.L28:
 369:..\..\..\..\..\..\Software\uCOS-III\Source/os_mem.c ****     }
 370:..\..\..\..\..\..\Software\uCOS-III\Source/os_mem.c ****     OSMemDbgListPtr                 =  p_mem;
 523              		.loc 1 370 0
 524 002e 034B     		ldr	r3, .L29
 525 0030 7A68     		ldr	r2, [r7, #4]
 526 0032 1A60     		str	r2, [r3]
 371:..\..\..\..\..\..\Software\uCOS-III\Source/os_mem.c **** }
 527              		.loc 1 371 0
 528 0034 C046     		nop
 529 0036 BD46     		mov	sp, r7
 530 0038 02B0     		add	sp, sp, #8
 531              		@ sp needed
 532 003a 80BD     		pop	{r7, pc}
 533              	.L30:
 534              		.align	2
 535              	.L29:
 536 003c 00000000 		.word	OSMemDbgListPtr
 537              		.cfi_endproc
 538              	.LFE3:
 539              		.size	OS_MemDbgListAdd, .-OS_MemDbgListAdd
ARM GAS  C:\Users\ADMINI~1\AppData\Local\Temp\ccmmYEnX.s 			page 17


 540              		.section	.text.OS_MemInit,"ax",%progbits
 541              		.align	2
 542              		.global	OS_MemInit
 543              		.code	16
 544              		.thumb_func
 545              		.type	OS_MemInit, %function
 546              	OS_MemInit:
 547              	.LFB4:
 372:..\..\..\..\..\..\Software\uCOS-III\Source/os_mem.c **** #endif
 373:..\..\..\..\..\..\Software\uCOS-III\Source/os_mem.c **** 
 374:..\..\..\..\..\..\Software\uCOS-III\Source/os_mem.c **** 
 375:..\..\..\..\..\..\Software\uCOS-III\Source/os_mem.c **** /*
 376:..\..\..\..\..\..\Software\uCOS-III\Source/os_mem.c **** ***************************************************************************************************
 377:..\..\..\..\..\..\Software\uCOS-III\Source/os_mem.c **** *                                           INITIALIZE MEMORY PARTITION MANAGER
 378:..\..\..\..\..\..\Software\uCOS-III\Source/os_mem.c **** *
 379:..\..\..\..\..\..\Software\uCOS-III\Source/os_mem.c **** * Description : This function is called by uC/OS-III to initialize the memory partition manager.  Y
 380:..\..\..\..\..\..\Software\uCOS-III\Source/os_mem.c **** *               application MUST NOT call this function.
 381:..\..\..\..\..\..\Software\uCOS-III\Source/os_mem.c **** *
 382:..\..\..\..\..\..\Software\uCOS-III\Source/os_mem.c **** * Arguments   : none
 383:..\..\..\..\..\..\Software\uCOS-III\Source/os_mem.c **** *
 384:..\..\..\..\..\..\Software\uCOS-III\Source/os_mem.c **** * Returns     : none
 385:..\..\..\..\..\..\Software\uCOS-III\Source/os_mem.c **** *
 386:..\..\..\..\..\..\Software\uCOS-III\Source/os_mem.c **** * Note(s)    : This function is INTERNAL to uC/OS-III and your application should not call it.
 387:..\..\..\..\..\..\Software\uCOS-III\Source/os_mem.c **** ***************************************************************************************************
 388:..\..\..\..\..\..\Software\uCOS-III\Source/os_mem.c **** */
 389:..\..\..\..\..\..\Software\uCOS-III\Source/os_mem.c **** 
 390:..\..\..\..\..\..\Software\uCOS-III\Source/os_mem.c **** void  OS_MemInit (OS_ERR  *p_err)
 391:..\..\..\..\..\..\Software\uCOS-III\Source/os_mem.c **** {
 548              		.loc 1 391 0
 549              		.cfi_startproc
 550              		@ args = 0, pretend = 0, frame = 8
 551              		@ frame_needed = 1, uses_anonymous_args = 0
 552 0000 80B5     		push	{r7, lr}
 553              		.cfi_def_cfa_offset 8
 554              		.cfi_offset 7, -8
 555              		.cfi_offset 14, -4
 556 0002 82B0     		sub	sp, sp, #8
 557              		.cfi_def_cfa_offset 16
 558 0004 00AF     		add	r7, sp, #0
 559              		.cfi_def_cfa_register 7
 560 0006 7860     		str	r0, [r7, #4]
 392:..\..\..\..\..\..\Software\uCOS-III\Source/os_mem.c **** #if (OS_CFG_DBG_EN == DEF_ENABLED)
 393:..\..\..\..\..\..\Software\uCOS-III\Source/os_mem.c ****     OSMemDbgListPtr = DEF_NULL;
 561              		.loc 1 393 0
 562 0008 064B     		ldr	r3, .L32
 563 000a 0022     		movs	r2, #0
 564 000c 1A60     		str	r2, [r3]
 394:..\..\..\..\..\..\Software\uCOS-III\Source/os_mem.c ****     OSMemQty        = 0u;
 565              		.loc 1 394 0
 566 000e 064B     		ldr	r3, .L32+4
 567 0010 0022     		movs	r2, #0
 568 0012 1A80     		strh	r2, [r3]
 395:..\..\..\..\..\..\Software\uCOS-III\Source/os_mem.c **** #endif
 396:..\..\..\..\..\..\Software\uCOS-III\Source/os_mem.c ****    *p_err           = OS_ERR_NONE;
 569              		.loc 1 396 0
 570 0014 7B68     		ldr	r3, [r7, #4]
 571 0016 0022     		movs	r2, #0
ARM GAS  C:\Users\ADMINI~1\AppData\Local\Temp\ccmmYEnX.s 			page 18


 572 0018 1A80     		strh	r2, [r3]
 397:..\..\..\..\..\..\Software\uCOS-III\Source/os_mem.c **** }
 573              		.loc 1 397 0
 574 001a C046     		nop
 575 001c BD46     		mov	sp, r7
 576 001e 02B0     		add	sp, sp, #8
 577              		@ sp needed
 578 0020 80BD     		pop	{r7, pc}
 579              	.L33:
 580 0022 C046     		.align	2
 581              	.L32:
 582 0024 00000000 		.word	OSMemDbgListPtr
 583 0028 00000000 		.word	OSMemQty
 584              		.cfi_endproc
 585              	.LFE4:
 586              		.size	OS_MemInit, .-OS_MemInit
 587              		.text
 588              	.Letext0:
 589              		.file 2 "..\\..\\..\\..\\..\\..\\Software\\uC-CPU\\ARM-Cortex-M0\\GNU/cpu.h"
 590              		.file 3 "..\\..\\..\\..\\..\\..\\Software\\uCOS-III\\Source\\os_type.h"
 591              		.file 4 "..\\..\\..\\..\\..\\..\\Software\\uCOS-III\\Source\\os.h"