ARM GAS  C:\Users\ADMINI~1\AppData\Local\Temp\ccvQPEdN.s 			page 1


   1              		.syntax unified
   2              		.cpu cortex-m0
   3              		.fpu softvfp
   4              		.eabi_attribute 20, 1
   5              		.eabi_attribute 21, 1
   6              		.eabi_attribute 23, 3
   7              		.eabi_attribute 24, 1
   8              		.eabi_attribute 25, 1
   9              		.eabi_attribute 26, 1
  10              		.eabi_attribute 30, 6
  11              		.eabi_attribute 34, 0
  12              		.eabi_attribute 18, 4
  13              		.thumb
  14              		.syntax unified
  15              		.file	"os_mutex.c"
  16              		.text
  17              	.Ltext0:
  18              		.cfi_sections	.debug_frame
  19              		.section	.text.OSMutexCreate,"ax",%progbits
  20              		.align	2
  21              		.global	OSMutexCreate
  22              		.code	16
  23              		.thumb_func
  24              		.type	OSMutexCreate, %function
  25              	OSMutexCreate:
  26              	.LFB0:
  27              		.file 1 "..\\..\\..\\..\\..\\..\\Software\\uCOS-III\\Source\\os_mutex.c"
   1:..\..\..\..\..\..\Software\uCOS-III\Source/os_mutex.c **** /*
   2:..\..\..\..\..\..\Software\uCOS-III\Source/os_mutex.c **** ***************************************************************************************************
   3:..\..\..\..\..\..\Software\uCOS-III\Source/os_mutex.c **** *                                                      uC/OS-III
   4:..\..\..\..\..\..\Software\uCOS-III\Source/os_mutex.c **** *                                                 The Real-Time Kernel
   5:..\..\..\..\..\..\Software\uCOS-III\Source/os_mutex.c **** *
   6:..\..\..\..\..\..\Software\uCOS-III\Source/os_mutex.c **** *                                  (c) Copyright 2009-2015; Micrium, Inc.; Weston, FL
   7:..\..\..\..\..\..\Software\uCOS-III\Source/os_mutex.c **** *                           All rights reserved.  Protected by international copyright laws.
   8:..\..\..\..\..\..\Software\uCOS-III\Source/os_mutex.c **** *
   9:..\..\..\..\..\..\Software\uCOS-III\Source/os_mutex.c **** *                                                   MUTEX MANAGEMENT
  10:..\..\..\..\..\..\Software\uCOS-III\Source/os_mutex.c **** *
  11:..\..\..\..\..\..\Software\uCOS-III\Source/os_mutex.c **** * File    : OS_MUTEX.C
  12:..\..\..\..\..\..\Software\uCOS-III\Source/os_mutex.c **** * By      : JJL
  13:..\..\..\..\..\..\Software\uCOS-III\Source/os_mutex.c **** * Version : V3.05.01
  14:..\..\..\..\..\..\Software\uCOS-III\Source/os_mutex.c **** *
  15:..\..\..\..\..\..\Software\uCOS-III\Source/os_mutex.c **** * LICENSING TERMS:
  16:..\..\..\..\..\..\Software\uCOS-III\Source/os_mutex.c **** * ---------------
  17:..\..\..\..\..\..\Software\uCOS-III\Source/os_mutex.c **** *           uC/OS-III is provided in source form for FREE short-term evaluation, for educational us
  18:..\..\..\..\..\..\Software\uCOS-III\Source/os_mutex.c **** *           for peaceful research.  If you plan or intend to use uC/OS-III in a commercial applicat
  19:..\..\..\..\..\..\Software\uCOS-III\Source/os_mutex.c **** *           product then, you need to contact Micrium to properly license uC/OS-III for its use in 
  20:..\..\..\..\..\..\Software\uCOS-III\Source/os_mutex.c **** *           application/product.   We provide ALL the source code for your convenience and to help 
  21:..\..\..\..\..\..\Software\uCOS-III\Source/os_mutex.c **** *           experience uC/OS-III.  The fact that the source is provided does NOT mean that you can 
  22:..\..\..\..\..\..\Software\uCOS-III\Source/os_mutex.c **** *           it commercially without paying a licensing fee.
  23:..\..\..\..\..\..\Software\uCOS-III\Source/os_mutex.c **** *
  24:..\..\..\..\..\..\Software\uCOS-III\Source/os_mutex.c **** *           Knowledge of the source code may NOT be used to develop a similar product.
  25:..\..\..\..\..\..\Software\uCOS-III\Source/os_mutex.c **** *
  26:..\..\..\..\..\..\Software\uCOS-III\Source/os_mutex.c **** *           Please help us continue to provide the embedded community with the finest software avai
  27:..\..\..\..\..\..\Software\uCOS-III\Source/os_mutex.c **** *           Your honesty is greatly appreciated.
  28:..\..\..\..\..\..\Software\uCOS-III\Source/os_mutex.c **** *
  29:..\..\..\..\..\..\Software\uCOS-III\Source/os_mutex.c **** *           You can find our product's user manual, API reference, release notes and
  30:..\..\..\..\..\..\Software\uCOS-III\Source/os_mutex.c **** *           more information at https://doc.micrium.com.
ARM GAS  C:\Users\ADMINI~1\AppData\Local\Temp\ccvQPEdN.s 			page 2


  31:..\..\..\..\..\..\Software\uCOS-III\Source/os_mutex.c **** *           You can contact us at www.micrium.com.
  32:..\..\..\..\..\..\Software\uCOS-III\Source/os_mutex.c **** ***************************************************************************************************
  33:..\..\..\..\..\..\Software\uCOS-III\Source/os_mutex.c **** */
  34:..\..\..\..\..\..\Software\uCOS-III\Source/os_mutex.c **** 
  35:..\..\..\..\..\..\Software\uCOS-III\Source/os_mutex.c **** #define  MICRIUM_SOURCE
  36:..\..\..\..\..\..\Software\uCOS-III\Source/os_mutex.c **** #include "os.h"
  37:..\..\..\..\..\..\Software\uCOS-III\Source/os_mutex.c **** 
  38:..\..\..\..\..\..\Software\uCOS-III\Source/os_mutex.c **** #ifdef VSC_INCLUDE_SOURCE_FILE_NAMES
  39:..\..\..\..\..\..\Software\uCOS-III\Source/os_mutex.c **** const  CPU_CHAR  *os_mutex__c = "$Id: $";
  40:..\..\..\..\..\..\Software\uCOS-III\Source/os_mutex.c **** #endif
  41:..\..\..\..\..\..\Software\uCOS-III\Source/os_mutex.c **** 
  42:..\..\..\..\..\..\Software\uCOS-III\Source/os_mutex.c **** 
  43:..\..\..\..\..\..\Software\uCOS-III\Source/os_mutex.c **** #if (OS_CFG_MUTEX_EN == DEF_ENABLED)
  44:..\..\..\..\..\..\Software\uCOS-III\Source/os_mutex.c **** /*
  45:..\..\..\..\..\..\Software\uCOS-III\Source/os_mutex.c **** ***************************************************************************************************
  46:..\..\..\..\..\..\Software\uCOS-III\Source/os_mutex.c **** *                                                   CREATE A MUTEX
  47:..\..\..\..\..\..\Software\uCOS-III\Source/os_mutex.c **** *
  48:..\..\..\..\..\..\Software\uCOS-III\Source/os_mutex.c **** * Description: This function creates a mutex.
  49:..\..\..\..\..\..\Software\uCOS-III\Source/os_mutex.c **** *
  50:..\..\..\..\..\..\Software\uCOS-III\Source/os_mutex.c **** * Arguments  : p_mutex       is a pointer to the mutex to initialize.  Your application is responsi
  51:..\..\..\..\..\..\Software\uCOS-III\Source/os_mutex.c **** *                            storage for the mutex.
  52:..\..\..\..\..\..\Software\uCOS-III\Source/os_mutex.c **** *
  53:..\..\..\..\..\..\Software\uCOS-III\Source/os_mutex.c **** *              p_name        is a pointer to the name you would like to give the mutex.
  54:..\..\..\..\..\..\Software\uCOS-III\Source/os_mutex.c **** *
  55:..\..\..\..\..\..\Software\uCOS-III\Source/os_mutex.c **** *              p_err         is a pointer to a variable that will contain an error code returned by
  56:..\..\..\..\..\..\Software\uCOS-III\Source/os_mutex.c **** *
  57:..\..\..\..\..\..\Software\uCOS-III\Source/os_mutex.c **** *                                OS_ERR_NONE                    If the call was successful
  58:..\..\..\..\..\..\Software\uCOS-III\Source/os_mutex.c **** *                                OS_ERR_CREATE_ISR              If you called this function from an
  59:..\..\..\..\..\..\Software\uCOS-III\Source/os_mutex.c **** *                                OS_ERR_ILLEGAL_CREATE_RUN_TIME If you are trying to create the mut
  60:..\..\..\..\..\..\Software\uCOS-III\Source/os_mutex.c **** *                                                                 OSStart()
  61:..\..\..\..\..\..\Software\uCOS-III\Source/os_mutex.c **** *                                OS_ERR_OBJ_PTR_NULL            If 'p_mutex' is a NULL pointer
  62:..\..\..\..\..\..\Software\uCOS-III\Source/os_mutex.c **** *
  63:..\..\..\..\..\..\Software\uCOS-III\Source/os_mutex.c **** * Returns    : none
  64:..\..\..\..\..\..\Software\uCOS-III\Source/os_mutex.c **** *
  65:..\..\..\..\..\..\Software\uCOS-III\Source/os_mutex.c **** * Note(s)    : none
  66:..\..\..\..\..\..\Software\uCOS-III\Source/os_mutex.c **** ***************************************************************************************************
  67:..\..\..\..\..\..\Software\uCOS-III\Source/os_mutex.c **** */
  68:..\..\..\..\..\..\Software\uCOS-III\Source/os_mutex.c **** 
  69:..\..\..\..\..\..\Software\uCOS-III\Source/os_mutex.c **** void  OSMutexCreate (OS_MUTEX  *p_mutex,
  70:..\..\..\..\..\..\Software\uCOS-III\Source/os_mutex.c ****                      CPU_CHAR  *p_name,
  71:..\..\..\..\..\..\Software\uCOS-III\Source/os_mutex.c ****                      OS_ERR    *p_err)
  72:..\..\..\..\..\..\Software\uCOS-III\Source/os_mutex.c **** {
  28              		.loc 1 72 0
  29              		.cfi_startproc
  30              		@ args = 0, pretend = 0, frame = 24
  31              		@ frame_needed = 1, uses_anonymous_args = 0
  32 0000 80B5     		push	{r7, lr}
  33              		.cfi_def_cfa_offset 8
  34              		.cfi_offset 7, -8
  35              		.cfi_offset 14, -4
  36 0002 86B0     		sub	sp, sp, #24
  37              		.cfi_def_cfa_offset 32
  38 0004 00AF     		add	r7, sp, #0
  39              		.cfi_def_cfa_register 7
  40 0006 F860     		str	r0, [r7, #12]
  41 0008 B960     		str	r1, [r7, #8]
  42 000a 7A60     		str	r2, [r7, #4]
ARM GAS  C:\Users\ADMINI~1\AppData\Local\Temp\ccvQPEdN.s 			page 3


  73:..\..\..\..\..\..\Software\uCOS-III\Source/os_mutex.c ****     CPU_SR_ALLOC();
  43              		.loc 1 73 0
  44 000c 0023     		movs	r3, #0
  45 000e 7B61     		str	r3, [r7, #20]
  74:..\..\..\..\..\..\Software\uCOS-III\Source/os_mutex.c **** 
  75:..\..\..\..\..\..\Software\uCOS-III\Source/os_mutex.c **** 
  76:..\..\..\..\..\..\Software\uCOS-III\Source/os_mutex.c **** 
  77:..\..\..\..\..\..\Software\uCOS-III\Source/os_mutex.c **** #ifdef OS_SAFETY_CRITICAL
  78:..\..\..\..\..\..\Software\uCOS-III\Source/os_mutex.c ****     if (p_err == DEF_NULL) {
  79:..\..\..\..\..\..\Software\uCOS-III\Source/os_mutex.c ****         OS_SAFETY_CRITICAL_EXCEPTION();
  80:..\..\..\..\..\..\Software\uCOS-III\Source/os_mutex.c ****         return;
  81:..\..\..\..\..\..\Software\uCOS-III\Source/os_mutex.c ****     }
  82:..\..\..\..\..\..\Software\uCOS-III\Source/os_mutex.c **** #endif
  83:..\..\..\..\..\..\Software\uCOS-III\Source/os_mutex.c **** 
  84:..\..\..\..\..\..\Software\uCOS-III\Source/os_mutex.c **** #ifdef OS_SAFETY_CRITICAL_IEC61508
  85:..\..\..\..\..\..\Software\uCOS-III\Source/os_mutex.c ****     if (OSSafetyCriticalStartFlag == DEF_TRUE) {
  86:..\..\..\..\..\..\Software\uCOS-III\Source/os_mutex.c ****        *p_err = OS_ERR_ILLEGAL_CREATE_RUN_TIME;
  87:..\..\..\..\..\..\Software\uCOS-III\Source/os_mutex.c ****         return;
  88:..\..\..\..\..\..\Software\uCOS-III\Source/os_mutex.c ****     }
  89:..\..\..\..\..\..\Software\uCOS-III\Source/os_mutex.c **** #endif
  90:..\..\..\..\..\..\Software\uCOS-III\Source/os_mutex.c **** 
  91:..\..\..\..\..\..\Software\uCOS-III\Source/os_mutex.c **** #if (OS_CFG_CALLED_FROM_ISR_CHK_EN == DEF_ENABLED)
  92:..\..\..\..\..\..\Software\uCOS-III\Source/os_mutex.c ****     if (OSIntNestingCtr > 0u) {                                 /* Not allowed to be called from an
  46              		.loc 1 92 0
  47 0010 214B     		ldr	r3, .L5
  48 0012 1B78     		ldrb	r3, [r3]
  49 0014 002B     		cmp	r3, #0
  50 0016 03D0     		beq	.L2
  93:..\..\..\..\..\..\Software\uCOS-III\Source/os_mutex.c ****        *p_err = OS_ERR_CREATE_ISR;
  51              		.loc 1 93 0
  52 0018 7B68     		ldr	r3, [r7, #4]
  53 001a 204A     		ldr	r2, .L5+4
  54 001c 1A80     		strh	r2, [r3]
  94:..\..\..\..\..\..\Software\uCOS-III\Source/os_mutex.c ****         return;
  55              		.loc 1 94 0
  56 001e 37E0     		b	.L1
  57              	.L2:
  95:..\..\..\..\..\..\Software\uCOS-III\Source/os_mutex.c ****     }
  96:..\..\..\..\..\..\Software\uCOS-III\Source/os_mutex.c **** #endif
  97:..\..\..\..\..\..\Software\uCOS-III\Source/os_mutex.c **** 
  98:..\..\..\..\..\..\Software\uCOS-III\Source/os_mutex.c **** #if (OS_CFG_ARG_CHK_EN == DEF_ENABLED)
  99:..\..\..\..\..\..\Software\uCOS-III\Source/os_mutex.c ****     if (p_mutex == DEF_NULL) {                                  /* Validate 'p_mutex'              
  58              		.loc 1 99 0
  59 0020 FB68     		ldr	r3, [r7, #12]
  60 0022 002B     		cmp	r3, #0
  61 0024 03D1     		bne	.L4
 100:..\..\..\..\..\..\Software\uCOS-III\Source/os_mutex.c ****        *p_err = OS_ERR_OBJ_PTR_NULL;
  62              		.loc 1 100 0
  63 0026 7B68     		ldr	r3, [r7, #4]
  64 0028 1D4A     		ldr	r2, .L5+8
  65 002a 1A80     		strh	r2, [r3]
 101:..\..\..\..\..\..\Software\uCOS-III\Source/os_mutex.c ****         return;
  66              		.loc 1 101 0
  67 002c 30E0     		b	.L1
  68              	.L4:
 102:..\..\..\..\..\..\Software\uCOS-III\Source/os_mutex.c ****     }
 103:..\..\..\..\..\..\Software\uCOS-III\Source/os_mutex.c **** #endif
ARM GAS  C:\Users\ADMINI~1\AppData\Local\Temp\ccvQPEdN.s 			page 4


 104:..\..\..\..\..\..\Software\uCOS-III\Source/os_mutex.c **** 
 105:..\..\..\..\..\..\Software\uCOS-III\Source/os_mutex.c ****     OS_CRITICAL_ENTER();
  69              		.loc 1 105 0
  70 002e FFF7FEFF 		bl	CPU_SR_Save
  71 0032 0300     		movs	r3, r0
  72 0034 7B61     		str	r3, [r7, #20]
  73 0036 FFF7FEFF 		bl	CPU_IntDisMeasStart
 106:..\..\..\..\..\..\Software\uCOS-III\Source/os_mutex.c **** #if (OS_OBJ_TYPE_REQ == DEF_ENABLED)
 107:..\..\..\..\..\..\Software\uCOS-III\Source/os_mutex.c ****     p_mutex->Type              =  OS_OBJ_TYPE_MUTEX;            /* Mark the data structure as a mut
  74              		.loc 1 107 0
  75 003a FB68     		ldr	r3, [r7, #12]
  76 003c 194A     		ldr	r2, .L5+12
  77 003e 1A60     		str	r2, [r3]
 108:..\..\..\..\..\..\Software\uCOS-III\Source/os_mutex.c **** #endif
 109:..\..\..\..\..\..\Software\uCOS-III\Source/os_mutex.c **** #if (OS_CFG_DBG_EN == DEF_ENABLED)
 110:..\..\..\..\..\..\Software\uCOS-III\Source/os_mutex.c ****     p_mutex->NamePtr           =  p_name;
  78              		.loc 1 110 0
  79 0040 FB68     		ldr	r3, [r7, #12]
  80 0042 BA68     		ldr	r2, [r7, #8]
  81 0044 5A60     		str	r2, [r3, #4]
 111:..\..\..\..\..\..\Software\uCOS-III\Source/os_mutex.c **** #else
 112:..\..\..\..\..\..\Software\uCOS-III\Source/os_mutex.c ****     (void)&p_name;
 113:..\..\..\..\..\..\Software\uCOS-III\Source/os_mutex.c **** #endif
 114:..\..\..\..\..\..\Software\uCOS-III\Source/os_mutex.c ****     p_mutex->MutexGrpNextPtr   = DEF_NULL;
  82              		.loc 1 114 0
  83 0046 FB68     		ldr	r3, [r7, #12]
  84 0048 0022     		movs	r2, #0
  85 004a 1A62     		str	r2, [r3, #32]
 115:..\..\..\..\..\..\Software\uCOS-III\Source/os_mutex.c ****     p_mutex->OwnerTCBPtr       = DEF_NULL;
  86              		.loc 1 115 0
  87 004c FB68     		ldr	r3, [r7, #12]
  88 004e 0022     		movs	r2, #0
  89 0050 5A62     		str	r2, [r3, #36]
 116:..\..\..\..\..\..\Software\uCOS-III\Source/os_mutex.c ****     p_mutex->OwnerNestingCtr   = 0u;                            /* Mutex is available              
  90              		.loc 1 116 0
  91 0052 FB68     		ldr	r3, [r7, #12]
  92 0054 2822     		movs	r2, #40
  93 0056 0021     		movs	r1, #0
  94 0058 9954     		strb	r1, [r3, r2]
 117:..\..\..\..\..\..\Software\uCOS-III\Source/os_mutex.c **** #if (OS_CFG_TS_EN == DEF_ENABLED)
 118:..\..\..\..\..\..\Software\uCOS-III\Source/os_mutex.c ****     p_mutex->TS                = 0u;
  95              		.loc 1 118 0
  96 005a FB68     		ldr	r3, [r7, #12]
  97 005c 0022     		movs	r2, #0
  98 005e DA62     		str	r2, [r3, #44]
 119:..\..\..\..\..\..\Software\uCOS-III\Source/os_mutex.c **** #endif
 120:..\..\..\..\..\..\Software\uCOS-III\Source/os_mutex.c ****     OS_PendListInit(&p_mutex->PendList);                        /* Initialize the waiting list     
  99              		.loc 1 120 0
 100 0060 FB68     		ldr	r3, [r7, #12]
 101 0062 0833     		adds	r3, r3, #8
 102 0064 1800     		movs	r0, r3
 103 0066 FFF7FEFF 		bl	OS_PendListInit
 121:..\..\..\..\..\..\Software\uCOS-III\Source/os_mutex.c **** 
 122:..\..\..\..\..\..\Software\uCOS-III\Source/os_mutex.c **** #if (OS_CFG_DBG_EN == DEF_ENABLED)
 123:..\..\..\..\..\..\Software\uCOS-III\Source/os_mutex.c ****     OS_MutexDbgListAdd(p_mutex);
 104              		.loc 1 123 0
 105 006a FB68     		ldr	r3, [r7, #12]
ARM GAS  C:\Users\ADMINI~1\AppData\Local\Temp\ccvQPEdN.s 			page 5


 106 006c 1800     		movs	r0, r3
 107 006e FFF7FEFF 		bl	OS_MutexDbgListAdd
 124:..\..\..\..\..\..\Software\uCOS-III\Source/os_mutex.c ****     OSMutexQty++;
 108              		.loc 1 124 0
 109 0072 0D4B     		ldr	r3, .L5+16
 110 0074 1B88     		ldrh	r3, [r3]
 111 0076 0133     		adds	r3, r3, #1
 112 0078 9AB2     		uxth	r2, r3
 113 007a 0B4B     		ldr	r3, .L5+16
 114 007c 1A80     		strh	r2, [r3]
 125:..\..\..\..\..\..\Software\uCOS-III\Source/os_mutex.c **** #endif
 126:..\..\..\..\..\..\Software\uCOS-III\Source/os_mutex.c **** 
 127:..\..\..\..\..\..\Software\uCOS-III\Source/os_mutex.c **** #if (defined(TRACE_CFG_EN) && (TRACE_CFG_EN == DEF_ENABLED))
 128:..\..\..\..\..\..\Software\uCOS-III\Source/os_mutex.c ****     TRACE_OS_MUTEX_CREATE(p_mutex, p_name);                     /* Record the event.               
 129:..\..\..\..\..\..\Software\uCOS-III\Source/os_mutex.c **** #endif
 130:..\..\..\..\..\..\Software\uCOS-III\Source/os_mutex.c **** 
 131:..\..\..\..\..\..\Software\uCOS-III\Source/os_mutex.c ****     OS_CRITICAL_EXIT_NO_SCHED();
 115              		.loc 1 131 0
 116 007e FFF7FEFF 		bl	CPU_IntDisMeasStop
 117 0082 7B69     		ldr	r3, [r7, #20]
 118 0084 1800     		movs	r0, r3
 119 0086 FFF7FEFF 		bl	CPU_SR_Restore
 132:..\..\..\..\..\..\Software\uCOS-III\Source/os_mutex.c ****    *p_err = OS_ERR_NONE;
 120              		.loc 1 132 0
 121 008a 7B68     		ldr	r3, [r7, #4]
 122 008c 0022     		movs	r2, #0
 123 008e 1A80     		strh	r2, [r3]
 124              	.L1:
 133:..\..\..\..\..\..\Software\uCOS-III\Source/os_mutex.c **** }
 125              		.loc 1 133 0
 126 0090 BD46     		mov	sp, r7
 127 0092 06B0     		add	sp, sp, #24
 128              		@ sp needed
 129 0094 80BD     		pop	{r7, pc}
 130              	.L6:
 131 0096 C046     		.align	2
 132              	.L5:
 133 0098 00000000 		.word	OSIntNestingCtr
 134 009c E12E0000 		.word	12001
 135 00a0 C35D0000 		.word	24003
 136 00a4 4D555458 		.word	1481921869
 137 00a8 00000000 		.word	OSMutexQty
 138              		.cfi_endproc
 139              	.LFE0:
 140              		.size	OSMutexCreate, .-OSMutexCreate
 141              		.section	.text.OSMutexPend,"ax",%progbits
 142              		.align	2
 143              		.global	OSMutexPend
 144              		.code	16
 145              		.thumb_func
 146              		.type	OSMutexPend, %function
 147              	OSMutexPend:
 148              	.LFB1:
 134:..\..\..\..\..\..\Software\uCOS-III\Source/os_mutex.c **** 
 135:..\..\..\..\..\..\Software\uCOS-III\Source/os_mutex.c **** 
 136:..\..\..\..\..\..\Software\uCOS-III\Source/os_mutex.c **** /*
 137:..\..\..\..\..\..\Software\uCOS-III\Source/os_mutex.c **** ***************************************************************************************************
ARM GAS  C:\Users\ADMINI~1\AppData\Local\Temp\ccvQPEdN.s 			page 6


 138:..\..\..\..\..\..\Software\uCOS-III\Source/os_mutex.c **** *                                                   DELETE A MUTEX
 139:..\..\..\..\..\..\Software\uCOS-III\Source/os_mutex.c **** *
 140:..\..\..\..\..\..\Software\uCOS-III\Source/os_mutex.c **** * Description: This function deletes a mutex and readies all tasks pending on the mutex.
 141:..\..\..\..\..\..\Software\uCOS-III\Source/os_mutex.c **** *
 142:..\..\..\..\..\..\Software\uCOS-III\Source/os_mutex.c **** * Arguments  : p_mutex       is a pointer to the mutex to delete
 143:..\..\..\..\..\..\Software\uCOS-III\Source/os_mutex.c **** *
 144:..\..\..\..\..\..\Software\uCOS-III\Source/os_mutex.c **** *              opt           determines delete options as follows:
 145:..\..\..\..\..\..\Software\uCOS-III\Source/os_mutex.c **** *
 146:..\..\..\..\..\..\Software\uCOS-III\Source/os_mutex.c **** *                                OS_OPT_DEL_NO_PEND          Delete mutex ONLY if no task pending
 147:..\..\..\..\..\..\Software\uCOS-III\Source/os_mutex.c **** *                                OS_OPT_DEL_ALWAYS           Deletes the mutex even if tasks are wa
 148:..\..\..\..\..\..\Software\uCOS-III\Source/os_mutex.c **** *                                                            In this case, all the tasks pending wi
 149:..\..\..\..\..\..\Software\uCOS-III\Source/os_mutex.c **** *
 150:..\..\..\..\..\..\Software\uCOS-III\Source/os_mutex.c **** *              p_err         is a pointer to a variable that will contain an error code returned by
 151:..\..\..\..\..\..\Software\uCOS-III\Source/os_mutex.c **** *
 152:..\..\..\..\..\..\Software\uCOS-III\Source/os_mutex.c **** *                                OS_ERR_NONE                    The call was successful and the mut
 153:..\..\..\..\..\..\Software\uCOS-III\Source/os_mutex.c **** *                                OS_ERR_DEL_ISR                 If you attempted to delete the mute
 154:..\..\..\..\..\..\Software\uCOS-III\Source/os_mutex.c **** *                                OS_ERR_ILLEGAL_DEL_RUN_TIME    If you are trying to delete the mut
 155:..\..\..\..\..\..\Software\uCOS-III\Source/os_mutex.c **** *                                                                 OSStart()
 156:..\..\..\..\..\..\Software\uCOS-III\Source/os_mutex.c **** *                                OS_ERR_OBJ_PTR_NULL            If 'p_mutex' is a NULL pointer
 157:..\..\..\..\..\..\Software\uCOS-III\Source/os_mutex.c **** *                                OS_ERR_OBJ_TYPE                If 'p_mutex' is not pointing to a m
 158:..\..\..\..\..\..\Software\uCOS-III\Source/os_mutex.c **** *                                OS_ERR_OPT_INVALID             An invalid option was specified
 159:..\..\..\..\..\..\Software\uCOS-III\Source/os_mutex.c **** *                                OS_ERR_OS_NOT_RUNNING          If uC/OS-III is not running yet
 160:..\..\..\..\..\..\Software\uCOS-III\Source/os_mutex.c **** *                                OS_ERR_TASK_WAITING            One or more tasks were waiting on t
 161:..\..\..\..\..\..\Software\uCOS-III\Source/os_mutex.c **** *
 162:..\..\..\..\..\..\Software\uCOS-III\Source/os_mutex.c **** * Returns    : == 0          if no tasks were waiting on the mutex, or upon error.
 163:..\..\..\..\..\..\Software\uCOS-III\Source/os_mutex.c **** *              >  0          if one or more tasks waiting on the mutex are now readied and informed
 164:..\..\..\..\..\..\Software\uCOS-III\Source/os_mutex.c **** *
 165:..\..\..\..\..\..\Software\uCOS-III\Source/os_mutex.c **** * Note(s)    : 1) This function must be used with care.  Tasks that would normally expect the prese
 166:..\..\..\..\..\..\Software\uCOS-III\Source/os_mutex.c **** *                 check the return code of OSMutexPend().
 167:..\..\..\..\..\..\Software\uCOS-III\Source/os_mutex.c **** *
 168:..\..\..\..\..\..\Software\uCOS-III\Source/os_mutex.c **** *              2) Because ALL tasks pending on the mutex will be readied, you MUST be careful in ap
 169:..\..\..\..\..\..\Software\uCOS-III\Source/os_mutex.c **** *                 mutex is used for mutual exclusion because the resource(s) will no longer be guar
 170:..\..\..\..\..\..\Software\uCOS-III\Source/os_mutex.c **** ***************************************************************************************************
 171:..\..\..\..\..\..\Software\uCOS-III\Source/os_mutex.c **** */
 172:..\..\..\..\..\..\Software\uCOS-III\Source/os_mutex.c **** 
 173:..\..\..\..\..\..\Software\uCOS-III\Source/os_mutex.c **** #if (OS_CFG_MUTEX_DEL_EN == DEF_ENABLED)
 174:..\..\..\..\..\..\Software\uCOS-III\Source/os_mutex.c **** OS_OBJ_QTY  OSMutexDel (OS_MUTEX  *p_mutex,
 175:..\..\..\..\..\..\Software\uCOS-III\Source/os_mutex.c ****                         OS_OPT     opt,
 176:..\..\..\..\..\..\Software\uCOS-III\Source/os_mutex.c ****                         OS_ERR    *p_err)
 177:..\..\..\..\..\..\Software\uCOS-III\Source/os_mutex.c **** {
 178:..\..\..\..\..\..\Software\uCOS-III\Source/os_mutex.c ****     OS_OBJ_QTY     nbr_tasks;
 179:..\..\..\..\..\..\Software\uCOS-III\Source/os_mutex.c ****     OS_PEND_DATA  *p_pend_data;
 180:..\..\..\..\..\..\Software\uCOS-III\Source/os_mutex.c ****     OS_PEND_LIST  *p_pend_list;
 181:..\..\..\..\..\..\Software\uCOS-III\Source/os_mutex.c ****     OS_TCB        *p_tcb;
 182:..\..\..\..\..\..\Software\uCOS-III\Source/os_mutex.c ****     OS_TCB        *p_tcb_owner;
 183:..\..\..\..\..\..\Software\uCOS-III\Source/os_mutex.c ****     CPU_TS         ts;
 184:..\..\..\..\..\..\Software\uCOS-III\Source/os_mutex.c **** #if (OS_CFG_MUTEX_EN == DEF_ENABLED)
 185:..\..\..\..\..\..\Software\uCOS-III\Source/os_mutex.c ****     OS_PRIO        prio_new;
 186:..\..\..\..\..\..\Software\uCOS-III\Source/os_mutex.c **** #endif
 187:..\..\..\..\..\..\Software\uCOS-III\Source/os_mutex.c ****     CPU_SR_ALLOC();
 188:..\..\..\..\..\..\Software\uCOS-III\Source/os_mutex.c **** 
 189:..\..\..\..\..\..\Software\uCOS-III\Source/os_mutex.c **** 
 190:..\..\..\..\..\..\Software\uCOS-III\Source/os_mutex.c **** #ifdef OS_SAFETY_CRITICAL
 191:..\..\..\..\..\..\Software\uCOS-III\Source/os_mutex.c ****     if (p_err == DEF_NULL) {
 192:..\..\..\..\..\..\Software\uCOS-III\Source/os_mutex.c ****         OS_SAFETY_CRITICAL_EXCEPTION();
 193:..\..\..\..\..\..\Software\uCOS-III\Source/os_mutex.c ****         return (0u);
 194:..\..\..\..\..\..\Software\uCOS-III\Source/os_mutex.c ****     }
ARM GAS  C:\Users\ADMINI~1\AppData\Local\Temp\ccvQPEdN.s 			page 7


 195:..\..\..\..\..\..\Software\uCOS-III\Source/os_mutex.c **** #endif
 196:..\..\..\..\..\..\Software\uCOS-III\Source/os_mutex.c **** 
 197:..\..\..\..\..\..\Software\uCOS-III\Source/os_mutex.c **** #ifdef OS_SAFETY_CRITICAL_IEC61508
 198:..\..\..\..\..\..\Software\uCOS-III\Source/os_mutex.c ****     if (OSSafetyCriticalStartFlag == DEF_TRUE) {
 199:..\..\..\..\..\..\Software\uCOS-III\Source/os_mutex.c ****        *p_err = OS_ERR_ILLEGAL_DEL_RUN_TIME;
 200:..\..\..\..\..\..\Software\uCOS-III\Source/os_mutex.c ****         return (0u);
 201:..\..\..\..\..\..\Software\uCOS-III\Source/os_mutex.c ****     }
 202:..\..\..\..\..\..\Software\uCOS-III\Source/os_mutex.c **** #endif
 203:..\..\..\..\..\..\Software\uCOS-III\Source/os_mutex.c **** 
 204:..\..\..\..\..\..\Software\uCOS-III\Source/os_mutex.c **** #if (OS_CFG_CALLED_FROM_ISR_CHK_EN == DEF_ENABLED)
 205:..\..\..\..\..\..\Software\uCOS-III\Source/os_mutex.c ****     if (OSIntNestingCtr > 0u) {                                /* Not allowed to delete a mutex fro
 206:..\..\..\..\..\..\Software\uCOS-III\Source/os_mutex.c ****        *p_err = OS_ERR_DEL_ISR;
 207:..\..\..\..\..\..\Software\uCOS-III\Source/os_mutex.c ****         return (0u);
 208:..\..\..\..\..\..\Software\uCOS-III\Source/os_mutex.c ****     }
 209:..\..\..\..\..\..\Software\uCOS-III\Source/os_mutex.c **** #endif
 210:..\..\..\..\..\..\Software\uCOS-III\Source/os_mutex.c **** 
 211:..\..\..\..\..\..\Software\uCOS-III\Source/os_mutex.c **** #if (OS_CFG_INVALID_OS_CALLS_CHK_EN == DEF_ENABLED)             /* Is the kernel running?          
 212:..\..\..\..\..\..\Software\uCOS-III\Source/os_mutex.c ****     if (OSRunning != OS_STATE_OS_RUNNING) {
 213:..\..\..\..\..\..\Software\uCOS-III\Source/os_mutex.c ****        *p_err = OS_ERR_OS_NOT_RUNNING;
 214:..\..\..\..\..\..\Software\uCOS-III\Source/os_mutex.c ****         return (0u);
 215:..\..\..\..\..\..\Software\uCOS-III\Source/os_mutex.c ****     }
 216:..\..\..\..\..\..\Software\uCOS-III\Source/os_mutex.c **** #endif
 217:..\..\..\..\..\..\Software\uCOS-III\Source/os_mutex.c **** 
 218:..\..\..\..\..\..\Software\uCOS-III\Source/os_mutex.c **** #if (OS_CFG_ARG_CHK_EN == DEF_ENABLED)
 219:..\..\..\..\..\..\Software\uCOS-III\Source/os_mutex.c ****     if (p_mutex == DEF_NULL) {                                  /* Validate 'p_mutex'              
 220:..\..\..\..\..\..\Software\uCOS-III\Source/os_mutex.c ****        *p_err = OS_ERR_OBJ_PTR_NULL;
 221:..\..\..\..\..\..\Software\uCOS-III\Source/os_mutex.c ****         return (0u);
 222:..\..\..\..\..\..\Software\uCOS-III\Source/os_mutex.c ****     }
 223:..\..\..\..\..\..\Software\uCOS-III\Source/os_mutex.c **** #endif
 224:..\..\..\..\..\..\Software\uCOS-III\Source/os_mutex.c **** 
 225:..\..\..\..\..\..\Software\uCOS-III\Source/os_mutex.c **** #if (OS_CFG_OBJ_TYPE_CHK_EN == DEF_ENABLED)
 226:..\..\..\..\..\..\Software\uCOS-III\Source/os_mutex.c ****     if (p_mutex->Type != OS_OBJ_TYPE_MUTEX) {                   /* Make sure mutex was created     
 227:..\..\..\..\..\..\Software\uCOS-III\Source/os_mutex.c ****        *p_err = OS_ERR_OBJ_TYPE;
 228:..\..\..\..\..\..\Software\uCOS-III\Source/os_mutex.c ****         return (0u);
 229:..\..\..\..\..\..\Software\uCOS-III\Source/os_mutex.c ****     }
 230:..\..\..\..\..\..\Software\uCOS-III\Source/os_mutex.c **** #endif
 231:..\..\..\..\..\..\Software\uCOS-III\Source/os_mutex.c **** 
 232:..\..\..\..\..\..\Software\uCOS-III\Source/os_mutex.c ****     OS_CRITICAL_ENTER();
 233:..\..\..\..\..\..\Software\uCOS-III\Source/os_mutex.c ****     p_pend_list = &p_mutex->PendList;
 234:..\..\..\..\..\..\Software\uCOS-III\Source/os_mutex.c ****     nbr_tasks   = 0u;
 235:..\..\..\..\..\..\Software\uCOS-III\Source/os_mutex.c ****     switch (opt) {
 236:..\..\..\..\..\..\Software\uCOS-III\Source/os_mutex.c ****         case OS_OPT_DEL_NO_PEND:                                /* Delete mutex only if no task wai
 237:..\..\..\..\..\..\Software\uCOS-III\Source/os_mutex.c ****              if (p_pend_list->HeadPtr == DEF_NULL) {
 238:..\..\..\..\..\..\Software\uCOS-III\Source/os_mutex.c **** #if (OS_CFG_DBG_EN == DEF_ENABLED)
 239:..\..\..\..\..\..\Software\uCOS-III\Source/os_mutex.c ****                  OS_MutexDbgListRemove(p_mutex);
 240:..\..\..\..\..\..\Software\uCOS-III\Source/os_mutex.c ****                  OSMutexQty--;
 241:..\..\..\..\..\..\Software\uCOS-III\Source/os_mutex.c **** #endif
 242:..\..\..\..\..\..\Software\uCOS-III\Source/os_mutex.c **** #if (defined(TRACE_CFG_EN) && (TRACE_CFG_EN == DEF_ENABLED))
 243:..\..\..\..\..\..\Software\uCOS-III\Source/os_mutex.c ****                  TRACE_OS_MUTEX_DEL(p_mutex);                   /* Record the event.               
 244:..\..\..\..\..\..\Software\uCOS-III\Source/os_mutex.c **** #endif
 245:..\..\..\..\..\..\Software\uCOS-III\Source/os_mutex.c ****                  if (p_mutex->OwnerTCBPtr != DEF_NULL) {        /* Does the mutex belong to a task?
 246:..\..\..\..\..\..\Software\uCOS-III\Source/os_mutex.c ****                      OS_MutexGrpRemove(p_mutex->OwnerTCBPtr, p_mutex); /* yes, remove it from the t
 247:..\..\..\..\..\..\Software\uCOS-III\Source/os_mutex.c ****                  }
 248:..\..\..\..\..\..\Software\uCOS-III\Source/os_mutex.c ****                  OS_MutexClr(p_mutex);
 249:..\..\..\..\..\..\Software\uCOS-III\Source/os_mutex.c ****                  OS_CRITICAL_EXIT();
 250:..\..\..\..\..\..\Software\uCOS-III\Source/os_mutex.c ****                 *p_err = OS_ERR_NONE;
 251:..\..\..\..\..\..\Software\uCOS-III\Source/os_mutex.c ****              } else {
ARM GAS  C:\Users\ADMINI~1\AppData\Local\Temp\ccvQPEdN.s 			page 8


 252:..\..\..\..\..\..\Software\uCOS-III\Source/os_mutex.c ****                  OS_CRITICAL_EXIT();
 253:..\..\..\..\..\..\Software\uCOS-III\Source/os_mutex.c ****                 *p_err = OS_ERR_TASK_WAITING;
 254:..\..\..\..\..\..\Software\uCOS-III\Source/os_mutex.c ****              }
 255:..\..\..\..\..\..\Software\uCOS-III\Source/os_mutex.c ****              break;
 256:..\..\..\..\..\..\Software\uCOS-III\Source/os_mutex.c **** 
 257:..\..\..\..\..\..\Software\uCOS-III\Source/os_mutex.c ****         case OS_OPT_DEL_ALWAYS:                                 /* Always delete the mutex         
 258:..\..\..\..\..\..\Software\uCOS-III\Source/os_mutex.c **** #if (OS_CFG_TS_EN == DEF_ENABLED)
 259:..\..\..\..\..\..\Software\uCOS-III\Source/os_mutex.c ****              ts = OS_TS_GET();                                  /* Get timestamp                   
 260:..\..\..\..\..\..\Software\uCOS-III\Source/os_mutex.c **** #else
 261:..\..\..\..\..\..\Software\uCOS-III\Source/os_mutex.c ****              ts = 0u;
 262:..\..\..\..\..\..\Software\uCOS-III\Source/os_mutex.c **** #endif
 263:..\..\..\..\..\..\Software\uCOS-III\Source/os_mutex.c ****              while (p_pend_list->HeadPtr != DEF_NULL) {         /* Remove all tasks from the pend l
 264:..\..\..\..\..\..\Software\uCOS-III\Source/os_mutex.c ****                  p_pend_data = p_pend_list->HeadPtr;
 265:..\..\..\..\..\..\Software\uCOS-III\Source/os_mutex.c ****                  p_tcb       = p_pend_data->TCBPtr;
 266:..\..\..\..\..\..\Software\uCOS-III\Source/os_mutex.c ****                  OS_PendObjDel((OS_PEND_OBJ *)((void *)p_mutex),
 267:..\..\..\..\..\..\Software\uCOS-III\Source/os_mutex.c ****                                p_tcb,
 268:..\..\..\..\..\..\Software\uCOS-III\Source/os_mutex.c ****                                ts);
 269:..\..\..\..\..\..\Software\uCOS-III\Source/os_mutex.c ****                  nbr_tasks++;
 270:..\..\..\..\..\..\Software\uCOS-III\Source/os_mutex.c ****              }
 271:..\..\..\..\..\..\Software\uCOS-III\Source/os_mutex.c **** #if (OS_CFG_DBG_EN == DEF_ENABLED)
 272:..\..\..\..\..\..\Software\uCOS-III\Source/os_mutex.c ****              OS_MutexDbgListRemove(p_mutex);
 273:..\..\..\..\..\..\Software\uCOS-III\Source/os_mutex.c ****              OSMutexQty--;
 274:..\..\..\..\..\..\Software\uCOS-III\Source/os_mutex.c **** #endif
 275:..\..\..\..\..\..\Software\uCOS-III\Source/os_mutex.c **** #if (defined(TRACE_CFG_EN) && (TRACE_CFG_EN == DEF_ENABLED))
 276:..\..\..\..\..\..\Software\uCOS-III\Source/os_mutex.c ****              TRACE_OS_MUTEX_DEL(p_mutex);                       /* Record the event.               
 277:..\..\..\..\..\..\Software\uCOS-III\Source/os_mutex.c **** #endif
 278:..\..\..\..\..\..\Software\uCOS-III\Source/os_mutex.c **** 
 279:..\..\..\..\..\..\Software\uCOS-III\Source/os_mutex.c ****              p_tcb_owner = p_mutex->OwnerTCBPtr;
 280:..\..\..\..\..\..\Software\uCOS-III\Source/os_mutex.c ****              if (p_tcb_owner != DEF_NULL) {                     /* Does the mutex belong to a task?
 281:..\..\..\..\..\..\Software\uCOS-III\Source/os_mutex.c ****                  OS_MutexGrpRemove(p_tcb_owner, p_mutex);       /* yes, remove it from the task gro
 282:..\..\..\..\..\..\Software\uCOS-III\Source/os_mutex.c ****              }
 283:..\..\..\..\..\..\Software\uCOS-III\Source/os_mutex.c **** 
 284:..\..\..\..\..\..\Software\uCOS-III\Source/os_mutex.c **** 
 285:..\..\..\..\..\..\Software\uCOS-III\Source/os_mutex.c ****              if (p_tcb_owner != DEF_NULL) {                     /* Did we had to change the prio of
 286:..\..\..\..\..\..\Software\uCOS-III\Source/os_mutex.c ****                  if (p_tcb_owner->Prio != p_tcb_owner->BasePrio) {
 287:..\..\..\..\..\..\Software\uCOS-III\Source/os_mutex.c ****                      prio_new = OS_MutexGrpPrioFindHighest(p_tcb_owner);
 288:..\..\..\..\..\..\Software\uCOS-III\Source/os_mutex.c ****                      prio_new = prio_new > p_tcb_owner->BasePrio ? p_tcb_owner->BasePrio : prio_new
 289:..\..\..\..\..\..\Software\uCOS-III\Source/os_mutex.c ****                      OS_TaskChangePrio(p_tcb_owner, prio_new);
 290:..\..\..\..\..\..\Software\uCOS-III\Source/os_mutex.c **** #if (defined(TRACE_CFG_EN) && (TRACE_CFG_EN == DEF_ENABLED))
 291:..\..\..\..\..\..\Software\uCOS-III\Source/os_mutex.c ****                      TRACE_OS_MUTEX_TASK_PRIO_DISINHERIT(p_tcb_owner, p_tcb_owner->Prio)
 292:..\..\..\..\..\..\Software\uCOS-III\Source/os_mutex.c **** #endif
 293:..\..\..\..\..\..\Software\uCOS-III\Source/os_mutex.c ****                  }
 294:..\..\..\..\..\..\Software\uCOS-III\Source/os_mutex.c ****              }
 295:..\..\..\..\..\..\Software\uCOS-III\Source/os_mutex.c **** 
 296:..\..\..\..\..\..\Software\uCOS-III\Source/os_mutex.c ****              OS_MutexClr(p_mutex);
 297:..\..\..\..\..\..\Software\uCOS-III\Source/os_mutex.c ****              OS_CRITICAL_EXIT_NO_SCHED();
 298:..\..\..\..\..\..\Software\uCOS-III\Source/os_mutex.c ****              OSSched();                                         /* Find highest priority task ready
 299:..\..\..\..\..\..\Software\uCOS-III\Source/os_mutex.c ****             *p_err = OS_ERR_NONE;
 300:..\..\..\..\..\..\Software\uCOS-III\Source/os_mutex.c ****              break;
 301:..\..\..\..\..\..\Software\uCOS-III\Source/os_mutex.c **** 
 302:..\..\..\..\..\..\Software\uCOS-III\Source/os_mutex.c ****         default:
 303:..\..\..\..\..\..\Software\uCOS-III\Source/os_mutex.c ****              OS_CRITICAL_EXIT();
 304:..\..\..\..\..\..\Software\uCOS-III\Source/os_mutex.c ****             *p_err = OS_ERR_OPT_INVALID;
 305:..\..\..\..\..\..\Software\uCOS-III\Source/os_mutex.c ****              break;
 306:..\..\..\..\..\..\Software\uCOS-III\Source/os_mutex.c ****     }
 307:..\..\..\..\..\..\Software\uCOS-III\Source/os_mutex.c ****     return (nbr_tasks);
 308:..\..\..\..\..\..\Software\uCOS-III\Source/os_mutex.c **** }
ARM GAS  C:\Users\ADMINI~1\AppData\Local\Temp\ccvQPEdN.s 			page 9


 309:..\..\..\..\..\..\Software\uCOS-III\Source/os_mutex.c **** #endif
 310:..\..\..\..\..\..\Software\uCOS-III\Source/os_mutex.c **** 
 311:..\..\..\..\..\..\Software\uCOS-III\Source/os_mutex.c **** 
 312:..\..\..\..\..\..\Software\uCOS-III\Source/os_mutex.c **** /*
 313:..\..\..\..\..\..\Software\uCOS-III\Source/os_mutex.c **** ***************************************************************************************************
 314:..\..\..\..\..\..\Software\uCOS-III\Source/os_mutex.c **** *                                                    PEND ON MUTEX
 315:..\..\..\..\..\..\Software\uCOS-III\Source/os_mutex.c **** *
 316:..\..\..\..\..\..\Software\uCOS-III\Source/os_mutex.c **** * Description: This function waits for a mutex.
 317:..\..\..\..\..\..\Software\uCOS-III\Source/os_mutex.c **** *
 318:..\..\..\..\..\..\Software\uCOS-III\Source/os_mutex.c **** * Arguments  : p_mutex       is a pointer to the mutex
 319:..\..\..\..\..\..\Software\uCOS-III\Source/os_mutex.c **** *
 320:..\..\..\..\..\..\Software\uCOS-III\Source/os_mutex.c **** *              timeout       is an optional timeout period (in clock ticks).  If non-zero, your tas
 321:..\..\..\..\..\..\Software\uCOS-III\Source/os_mutex.c **** *                            resource up to the amount of time (in 'ticks') specified by this argum
 322:..\..\..\..\..\..\Software\uCOS-III\Source/os_mutex.c **** *                            0, however, your task will wait forever at the specified mutex or, unt
 323:..\..\..\..\..\..\Software\uCOS-III\Source/os_mutex.c **** *                            becomes available.
 324:..\..\..\..\..\..\Software\uCOS-III\Source/os_mutex.c **** *
 325:..\..\..\..\..\..\Software\uCOS-III\Source/os_mutex.c **** *              opt           determines whether the user wants to block if the mutex is not availab
 326:..\..\..\..\..\..\Software\uCOS-III\Source/os_mutex.c **** *
 327:..\..\..\..\..\..\Software\uCOS-III\Source/os_mutex.c **** *                                OS_OPT_PEND_BLOCKING
 328:..\..\..\..\..\..\Software\uCOS-III\Source/os_mutex.c **** *                                OS_OPT_PEND_NON_BLOCKING
 329:..\..\..\..\..\..\Software\uCOS-III\Source/os_mutex.c **** *
 330:..\..\..\..\..\..\Software\uCOS-III\Source/os_mutex.c **** *              p_ts          is a pointer to a variable that will receive the timestamp of when the
 331:..\..\..\..\..\..\Software\uCOS-III\Source/os_mutex.c **** *                            pend aborted or the mutex deleted.  If you pass a NULL pointer (i.e. (
 332:..\..\..\..\..\..\Software\uCOS-III\Source/os_mutex.c **** *                            will not get the timestamp.  In other words, passing a NULL pointer is
 333:..\..\..\..\..\..\Software\uCOS-III\Source/os_mutex.c **** *                            that you don't need the timestamp.
 334:..\..\..\..\..\..\Software\uCOS-III\Source/os_mutex.c **** *
 335:..\..\..\..\..\..\Software\uCOS-III\Source/os_mutex.c **** *              p_err         is a pointer to a variable that will contain an error code returned by
 336:..\..\..\..\..\..\Software\uCOS-III\Source/os_mutex.c **** *
 337:..\..\..\..\..\..\Software\uCOS-III\Source/os_mutex.c **** *                                OS_ERR_NONE               The call was successful and your task ow
 338:..\..\..\..\..\..\Software\uCOS-III\Source/os_mutex.c **** *                                OS_ERR_MUTEX_OWNER        If calling task already owns the mutex
 339:..\..\..\..\..\..\Software\uCOS-III\Source/os_mutex.c **** *                                OS_ERR_MUTEX_OVF          Mutex nesting counter overflowed
 340:..\..\..\..\..\..\Software\uCOS-III\Source/os_mutex.c **** *                                OS_ERR_OBJ_DEL            If 'p_mutex' was deleted
 341:..\..\..\..\..\..\Software\uCOS-III\Source/os_mutex.c **** *                                OS_ERR_OBJ_PTR_NULL       If 'p_mutex' is a NULL pointer
 342:..\..\..\..\..\..\Software\uCOS-III\Source/os_mutex.c **** *                                OS_ERR_OBJ_TYPE           If 'p_mutex' is not pointing at a mutex
 343:..\..\..\..\..\..\Software\uCOS-III\Source/os_mutex.c **** *                                OS_ERR_OPT_INVALID        If you didn't specify a valid option
 344:..\..\..\..\..\..\Software\uCOS-III\Source/os_mutex.c **** *                                OS_ERR_OS_NOT_RUNNING     If uC/OS-III is not running yet
 345:..\..\..\..\..\..\Software\uCOS-III\Source/os_mutex.c **** *                                OS_ERR_PEND_ABORT         If the pend was aborted by another task
 346:..\..\..\..\..\..\Software\uCOS-III\Source/os_mutex.c **** *                                OS_ERR_PEND_ISR           If you called this function from an ISR 
 347:..\..\..\..\..\..\Software\uCOS-III\Source/os_mutex.c **** *                                                          would lead to a suspension
 348:..\..\..\..\..\..\Software\uCOS-III\Source/os_mutex.c **** *                                OS_ERR_PEND_WOULD_BLOCK   If you specified non-blocking but the mu
 349:..\..\..\..\..\..\Software\uCOS-III\Source/os_mutex.c **** *                                                          available
 350:..\..\..\..\..\..\Software\uCOS-III\Source/os_mutex.c **** *                                OS_ERR_SCHED_LOCKED       If you called this function when the sch
 351:..\..\..\..\..\..\Software\uCOS-III\Source/os_mutex.c **** *                                OS_ERR_STATUS_INVALID     If the pend status has an invalid value
 352:..\..\..\..\..\..\Software\uCOS-III\Source/os_mutex.c **** *                                OS_ERR_TIMEOUT            The mutex was not received within the sp
 353:..\..\..\..\..\..\Software\uCOS-III\Source/os_mutex.c **** *
 354:..\..\..\..\..\..\Software\uCOS-III\Source/os_mutex.c **** * Returns    : none
 355:..\..\..\..\..\..\Software\uCOS-III\Source/os_mutex.c **** *
 356:..\..\..\..\..\..\Software\uCOS-III\Source/os_mutex.c **** * Note(s)    : none
 357:..\..\..\..\..\..\Software\uCOS-III\Source/os_mutex.c **** ***************************************************************************************************
 358:..\..\..\..\..\..\Software\uCOS-III\Source/os_mutex.c **** */
 359:..\..\..\..\..\..\Software\uCOS-III\Source/os_mutex.c **** 
 360:..\..\..\..\..\..\Software\uCOS-III\Source/os_mutex.c **** void  OSMutexPend (OS_MUTEX  *p_mutex,
 361:..\..\..\..\..\..\Software\uCOS-III\Source/os_mutex.c ****                    OS_TICK    timeout,
 362:..\..\..\..\..\..\Software\uCOS-III\Source/os_mutex.c ****                    OS_OPT     opt,
 363:..\..\..\..\..\..\Software\uCOS-III\Source/os_mutex.c ****                    CPU_TS    *p_ts,
 364:..\..\..\..\..\..\Software\uCOS-III\Source/os_mutex.c ****                    OS_ERR    *p_err)
 365:..\..\..\..\..\..\Software\uCOS-III\Source/os_mutex.c **** {
ARM GAS  C:\Users\ADMINI~1\AppData\Local\Temp\ccvQPEdN.s 			page 10


 149              		.loc 1 365 0
 150              		.cfi_startproc
 151              		@ args = 4, pretend = 0, frame = 56
 152              		@ frame_needed = 1, uses_anonymous_args = 0
 153 0000 80B5     		push	{r7, lr}
 154              		.cfi_def_cfa_offset 8
 155              		.cfi_offset 7, -8
 156              		.cfi_offset 14, -4
 157 0002 8EB0     		sub	sp, sp, #56
 158              		.cfi_def_cfa_offset 64
 159 0004 00AF     		add	r7, sp, #0
 160              		.cfi_def_cfa_register 7
 161 0006 F860     		str	r0, [r7, #12]
 162 0008 B960     		str	r1, [r7, #8]
 163 000a 3B60     		str	r3, [r7]
 164 000c BB1D     		adds	r3, r7, #6
 165 000e 1A80     		strh	r2, [r3]
 366:..\..\..\..\..\..\Software\uCOS-III\Source/os_mutex.c ****     OS_PEND_DATA  pend_data;
 367:..\..\..\..\..\..\Software\uCOS-III\Source/os_mutex.c ****     OS_TCB       *p_tcb;
 368:..\..\..\..\..\..\Software\uCOS-III\Source/os_mutex.c ****     CPU_SR_ALLOC();
 166              		.loc 1 368 0
 167 0010 0023     		movs	r3, #0
 168 0012 7B63     		str	r3, [r7, #52]
 369:..\..\..\..\..\..\Software\uCOS-III\Source/os_mutex.c **** 
 370:..\..\..\..\..\..\Software\uCOS-III\Source/os_mutex.c **** 
 371:..\..\..\..\..\..\Software\uCOS-III\Source/os_mutex.c **** #if (OS_CFG_TS_EN == DEF_DISABLED)
 372:..\..\..\..\..\..\Software\uCOS-III\Source/os_mutex.c ****     (void)&p_ts;                                                /* Prevent compiler warning for not
 373:..\..\..\..\..\..\Software\uCOS-III\Source/os_mutex.c **** #endif
 374:..\..\..\..\..\..\Software\uCOS-III\Source/os_mutex.c **** 
 375:..\..\..\..\..\..\Software\uCOS-III\Source/os_mutex.c **** #ifdef OS_SAFETY_CRITICAL
 376:..\..\..\..\..\..\Software\uCOS-III\Source/os_mutex.c ****     if (p_err == DEF_NULL) {
 377:..\..\..\..\..\..\Software\uCOS-III\Source/os_mutex.c ****         OS_SAFETY_CRITICAL_EXCEPTION();
 378:..\..\..\..\..\..\Software\uCOS-III\Source/os_mutex.c ****         return;
 379:..\..\..\..\..\..\Software\uCOS-III\Source/os_mutex.c ****     }
 380:..\..\..\..\..\..\Software\uCOS-III\Source/os_mutex.c **** #endif
 381:..\..\..\..\..\..\Software\uCOS-III\Source/os_mutex.c **** 
 382:..\..\..\..\..\..\Software\uCOS-III\Source/os_mutex.c **** #if (OS_CFG_CALLED_FROM_ISR_CHK_EN == DEF_ENABLED)
 383:..\..\..\..\..\..\Software\uCOS-III\Source/os_mutex.c ****     if (OSIntNestingCtr > 0u) {                                 /* Not allowed to call from an ISR 
 169              		.loc 1 383 0
 170 0014 884B     		ldr	r3, .L37
 171 0016 1B78     		ldrb	r3, [r3]
 172 0018 002B     		cmp	r3, #0
 173 001a 03D0     		beq	.L8
 384:..\..\..\..\..\..\Software\uCOS-III\Source/os_mutex.c **** #if (defined(TRACE_CFG_EN) && (TRACE_CFG_EN == DEF_ENABLED))
 385:..\..\..\..\..\..\Software\uCOS-III\Source/os_mutex.c ****         TRACE_OS_MUTEX_PEND_FAILED(p_mutex);                    /* Record the event.               
 386:..\..\..\..\..\..\Software\uCOS-III\Source/os_mutex.c **** #endif
 387:..\..\..\..\..\..\Software\uCOS-III\Source/os_mutex.c ****        *p_err = OS_ERR_PEND_ISR;
 174              		.loc 1 387 0
 175 001c 3B6C     		ldr	r3, [r7, #64]
 176 001e 874A     		ldr	r2, .L37+4
 177 0020 1A80     		strh	r2, [r3]
 388:..\..\..\..\..\..\Software\uCOS-III\Source/os_mutex.c ****         return;
 178              		.loc 1 388 0
 179 0022 06E1     		b	.L7
 180              	.L8:
 389:..\..\..\..\..\..\Software\uCOS-III\Source/os_mutex.c ****     }
 390:..\..\..\..\..\..\Software\uCOS-III\Source/os_mutex.c **** #endif
ARM GAS  C:\Users\ADMINI~1\AppData\Local\Temp\ccvQPEdN.s 			page 11


 391:..\..\..\..\..\..\Software\uCOS-III\Source/os_mutex.c **** 
 392:..\..\..\..\..\..\Software\uCOS-III\Source/os_mutex.c **** #if (OS_CFG_INVALID_OS_CALLS_CHK_EN == DEF_ENABLED)             /* Is the kernel running?          
 393:..\..\..\..\..\..\Software\uCOS-III\Source/os_mutex.c ****     if (OSRunning != OS_STATE_OS_RUNNING) {
 394:..\..\..\..\..\..\Software\uCOS-III\Source/os_mutex.c ****        *p_err = OS_ERR_OS_NOT_RUNNING;
 395:..\..\..\..\..\..\Software\uCOS-III\Source/os_mutex.c ****         return;
 396:..\..\..\..\..\..\Software\uCOS-III\Source/os_mutex.c ****     }
 397:..\..\..\..\..\..\Software\uCOS-III\Source/os_mutex.c **** #endif
 398:..\..\..\..\..\..\Software\uCOS-III\Source/os_mutex.c **** 
 399:..\..\..\..\..\..\Software\uCOS-III\Source/os_mutex.c **** #if (OS_CFG_ARG_CHK_EN == DEF_ENABLED)
 400:..\..\..\..\..\..\Software\uCOS-III\Source/os_mutex.c ****     if (p_mutex == DEF_NULL) {                                  /* Validate arguments              
 181              		.loc 1 400 0
 182 0024 FB68     		ldr	r3, [r7, #12]
 183 0026 002B     		cmp	r3, #0
 184 0028 03D1     		bne	.L10
 401:..\..\..\..\..\..\Software\uCOS-III\Source/os_mutex.c **** #if (defined(TRACE_CFG_EN) && (TRACE_CFG_EN == DEF_ENABLED))
 402:..\..\..\..\..\..\Software\uCOS-III\Source/os_mutex.c ****         TRACE_OS_MUTEX_PEND_FAILED(p_mutex);                    /* Record the event.               
 403:..\..\..\..\..\..\Software\uCOS-III\Source/os_mutex.c **** #endif
 404:..\..\..\..\..\..\Software\uCOS-III\Source/os_mutex.c ****        *p_err = OS_ERR_OBJ_PTR_NULL;
 185              		.loc 1 404 0
 186 002a 3B6C     		ldr	r3, [r7, #64]
 187 002c 844A     		ldr	r2, .L37+8
 188 002e 1A80     		strh	r2, [r3]
 405:..\..\..\..\..\..\Software\uCOS-III\Source/os_mutex.c ****         return;
 189              		.loc 1 405 0
 190 0030 FFE0     		b	.L7
 191              	.L10:
 406:..\..\..\..\..\..\Software\uCOS-III\Source/os_mutex.c ****     }
 407:..\..\..\..\..\..\Software\uCOS-III\Source/os_mutex.c ****     switch (opt) {                                              /* Validate 'opt'                  
 192              		.loc 1 407 0
 193 0032 BB1D     		adds	r3, r7, #6
 194 0034 1B88     		ldrh	r3, [r3]
 195 0036 002B     		cmp	r3, #0
 196 0038 07D0     		beq	.L36
 197 003a 8022     		movs	r2, #128
 198 003c 1202     		lsls	r2, r2, #8
 199 003e 9342     		cmp	r3, r2
 200 0040 03D0     		beq	.L36
 408:..\..\..\..\..\..\Software\uCOS-III\Source/os_mutex.c ****         case OS_OPT_PEND_BLOCKING:
 409:..\..\..\..\..\..\Software\uCOS-III\Source/os_mutex.c ****         case OS_OPT_PEND_NON_BLOCKING:
 410:..\..\..\..\..\..\Software\uCOS-III\Source/os_mutex.c ****              break;
 411:..\..\..\..\..\..\Software\uCOS-III\Source/os_mutex.c **** 
 412:..\..\..\..\..\..\Software\uCOS-III\Source/os_mutex.c ****         default:
 413:..\..\..\..\..\..\Software\uCOS-III\Source/os_mutex.c **** #if (defined(TRACE_CFG_EN) && (TRACE_CFG_EN == DEF_ENABLED))
 414:..\..\..\..\..\..\Software\uCOS-III\Source/os_mutex.c ****              TRACE_OS_MUTEX_PEND_FAILED(p_mutex);               /* Record the event.               
 415:..\..\..\..\..\..\Software\uCOS-III\Source/os_mutex.c **** #endif
 416:..\..\..\..\..\..\Software\uCOS-III\Source/os_mutex.c ****             *p_err = OS_ERR_OPT_INVALID;
 201              		.loc 1 416 0
 202 0042 3B6C     		ldr	r3, [r7, #64]
 203 0044 7F4A     		ldr	r2, .L37+12
 204 0046 1A80     		strh	r2, [r3]
 417:..\..\..\..\..\..\Software\uCOS-III\Source/os_mutex.c ****              return;
 205              		.loc 1 417 0
 206 0048 F3E0     		b	.L7
 207              	.L36:
 410:..\..\..\..\..\..\Software\uCOS-III\Source/os_mutex.c **** 
 208              		.loc 1 410 0
 209 004a C046     		nop
ARM GAS  C:\Users\ADMINI~1\AppData\Local\Temp\ccvQPEdN.s 			page 12


 418:..\..\..\..\..\..\Software\uCOS-III\Source/os_mutex.c ****     }
 419:..\..\..\..\..\..\Software\uCOS-III\Source/os_mutex.c **** #endif
 420:..\..\..\..\..\..\Software\uCOS-III\Source/os_mutex.c **** 
 421:..\..\..\..\..\..\Software\uCOS-III\Source/os_mutex.c **** #if (OS_CFG_OBJ_TYPE_CHK_EN == DEF_ENABLED)
 422:..\..\..\..\..\..\Software\uCOS-III\Source/os_mutex.c ****     if (p_mutex->Type != OS_OBJ_TYPE_MUTEX) {                   /* Make sure mutex was created     
 423:..\..\..\..\..\..\Software\uCOS-III\Source/os_mutex.c **** #if (defined(TRACE_CFG_EN) && (TRACE_CFG_EN == DEF_ENABLED))
 424:..\..\..\..\..\..\Software\uCOS-III\Source/os_mutex.c ****         TRACE_OS_MUTEX_PEND_FAILED(p_mutex);                    /* Record the event.               
 425:..\..\..\..\..\..\Software\uCOS-III\Source/os_mutex.c **** #endif
 426:..\..\..\..\..\..\Software\uCOS-III\Source/os_mutex.c ****        *p_err = OS_ERR_OBJ_TYPE;
 427:..\..\..\..\..\..\Software\uCOS-III\Source/os_mutex.c ****         return;
 428:..\..\..\..\..\..\Software\uCOS-III\Source/os_mutex.c ****     }
 429:..\..\..\..\..\..\Software\uCOS-III\Source/os_mutex.c **** #endif
 430:..\..\..\..\..\..\Software\uCOS-III\Source/os_mutex.c **** 
 431:..\..\..\..\..\..\Software\uCOS-III\Source/os_mutex.c ****     CPU_CRITICAL_ENTER();
 210              		.loc 1 431 0
 211 004c FFF7FEFF 		bl	CPU_SR_Save
 212 0050 0300     		movs	r3, r0
 213 0052 7B63     		str	r3, [r7, #52]
 214 0054 FFF7FEFF 		bl	CPU_IntDisMeasStart
 432:..\..\..\..\..\..\Software\uCOS-III\Source/os_mutex.c ****     if (p_mutex->OwnerNestingCtr == 0u) {                       /* Resource available?             
 215              		.loc 1 432 0
 216 0058 FB68     		ldr	r3, [r7, #12]
 217 005a 2822     		movs	r2, #40
 218 005c 9B5C     		ldrb	r3, [r3, r2]
 219 005e 002B     		cmp	r3, #0
 220 0060 1FD1     		bne	.L14
 433:..\..\..\..\..\..\Software\uCOS-III\Source/os_mutex.c ****         p_mutex->OwnerTCBPtr     = OSTCBCurPtr;                 /* Yes, caller may proceed         
 221              		.loc 1 433 0
 222 0062 794B     		ldr	r3, .L37+16
 223 0064 1A68     		ldr	r2, [r3]
 224 0066 FB68     		ldr	r3, [r7, #12]
 225 0068 5A62     		str	r2, [r3, #36]
 434:..\..\..\..\..\..\Software\uCOS-III\Source/os_mutex.c ****         p_mutex->OwnerNestingCtr = 1u;
 226              		.loc 1 434 0
 227 006a FB68     		ldr	r3, [r7, #12]
 228 006c 2822     		movs	r2, #40
 229 006e 0121     		movs	r1, #1
 230 0070 9954     		strb	r1, [r3, r2]
 435:..\..\..\..\..\..\Software\uCOS-III\Source/os_mutex.c **** #if (OS_CFG_TS_EN == DEF_ENABLED)
 436:..\..\..\..\..\..\Software\uCOS-III\Source/os_mutex.c ****         if (p_ts != DEF_NULL) {
 231              		.loc 1 436 0
 232 0072 3B68     		ldr	r3, [r7]
 233 0074 002B     		cmp	r3, #0
 234 0076 03D0     		beq	.L15
 437:..\..\..\..\..\..\Software\uCOS-III\Source/os_mutex.c ****            *p_ts = p_mutex->TS;
 235              		.loc 1 437 0
 236 0078 FB68     		ldr	r3, [r7, #12]
 237 007a DA6A     		ldr	r2, [r3, #44]
 238 007c 3B68     		ldr	r3, [r7]
 239 007e 1A60     		str	r2, [r3]
 240              	.L15:
 438:..\..\..\..\..\..\Software\uCOS-III\Source/os_mutex.c ****         }
 439:..\..\..\..\..\..\Software\uCOS-III\Source/os_mutex.c **** #endif
 440:..\..\..\..\..\..\Software\uCOS-III\Source/os_mutex.c ****         OS_MutexGrpAdd(OSTCBCurPtr, p_mutex);                   /* Add mutex to owner's group      
 241              		.loc 1 440 0
 242 0080 714B     		ldr	r3, .L37+16
 243 0082 1B68     		ldr	r3, [r3]
ARM GAS  C:\Users\ADMINI~1\AppData\Local\Temp\ccvQPEdN.s 			page 13


 244 0084 FA68     		ldr	r2, [r7, #12]
 245 0086 1100     		movs	r1, r2
 246 0088 1800     		movs	r0, r3
 247 008a FFF7FEFF 		bl	OS_MutexGrpAdd
 441:..\..\..\..\..\..\Software\uCOS-III\Source/os_mutex.c ****         CPU_CRITICAL_EXIT();
 248              		.loc 1 441 0
 249 008e FFF7FEFF 		bl	CPU_IntDisMeasStop
 250 0092 7B6B     		ldr	r3, [r7, #52]
 251 0094 1800     		movs	r0, r3
 252 0096 FFF7FEFF 		bl	CPU_SR_Restore
 442:..\..\..\..\..\..\Software\uCOS-III\Source/os_mutex.c **** #if (defined(TRACE_CFG_EN) && (TRACE_CFG_EN == DEF_ENABLED))
 443:..\..\..\..\..\..\Software\uCOS-III\Source/os_mutex.c ****         TRACE_OS_MUTEX_PEND(p_mutex);                           /* Record the event.               
 444:..\..\..\..\..\..\Software\uCOS-III\Source/os_mutex.c **** #endif
 445:..\..\..\..\..\..\Software\uCOS-III\Source/os_mutex.c ****        *p_err = OS_ERR_NONE;
 253              		.loc 1 445 0
 254 009a 3B6C     		ldr	r3, [r7, #64]
 255 009c 0022     		movs	r2, #0
 256 009e 1A80     		strh	r2, [r3]
 446:..\..\..\..\..\..\Software\uCOS-III\Source/os_mutex.c ****         return;
 257              		.loc 1 446 0
 258 00a0 C7E0     		b	.L7
 259              	.L14:
 447:..\..\..\..\..\..\Software\uCOS-III\Source/os_mutex.c ****     }
 448:..\..\..\..\..\..\Software\uCOS-III\Source/os_mutex.c **** 
 449:..\..\..\..\..\..\Software\uCOS-III\Source/os_mutex.c ****     if (OSTCBCurPtr == p_mutex->OwnerTCBPtr) {                  /* See if current task is already t
 260              		.loc 1 449 0
 261 00a2 FB68     		ldr	r3, [r7, #12]
 262 00a4 5A6A     		ldr	r2, [r3, #36]
 263 00a6 684B     		ldr	r3, .L37+16
 264 00a8 1B68     		ldr	r3, [r3]
 265 00aa 9A42     		cmp	r2, r3
 266 00ac 27D1     		bne	.L16
 450:..\..\..\..\..\..\Software\uCOS-III\Source/os_mutex.c ****         if (p_mutex->OwnerNestingCtr == (OS_NESTING_CTR)-1) {
 267              		.loc 1 450 0
 268 00ae FB68     		ldr	r3, [r7, #12]
 269 00b0 2822     		movs	r2, #40
 270 00b2 9B5C     		ldrb	r3, [r3, r2]
 271 00b4 FF2B     		cmp	r3, #255
 272 00b6 09D1     		bne	.L17
 451:..\..\..\..\..\..\Software\uCOS-III\Source/os_mutex.c ****             CPU_CRITICAL_EXIT();
 273              		.loc 1 451 0
 274 00b8 FFF7FEFF 		bl	CPU_IntDisMeasStop
 275 00bc 7B6B     		ldr	r3, [r7, #52]
 276 00be 1800     		movs	r0, r3
 277 00c0 FFF7FEFF 		bl	CPU_SR_Restore
 452:..\..\..\..\..\..\Software\uCOS-III\Source/os_mutex.c **** #if (defined(TRACE_CFG_EN) && (TRACE_CFG_EN == DEF_ENABLED))
 453:..\..\..\..\..\..\Software\uCOS-III\Source/os_mutex.c ****             TRACE_OS_MUTEX_PEND_FAILED(p_mutex);                /* Record the event.               
 454:..\..\..\..\..\..\Software\uCOS-III\Source/os_mutex.c **** #endif
 455:..\..\..\..\..\..\Software\uCOS-III\Source/os_mutex.c ****            *p_err = OS_ERR_MUTEX_OVF;
 278              		.loc 1 455 0
 279 00c4 3B6C     		ldr	r3, [r7, #64]
 280 00c6 614A     		ldr	r2, .L37+20
 281 00c8 1A80     		strh	r2, [r3]
 456:..\..\..\..\..\..\Software\uCOS-III\Source/os_mutex.c ****             return;
 282              		.loc 1 456 0
 283 00ca B2E0     		b	.L7
 284              	.L17:
ARM GAS  C:\Users\ADMINI~1\AppData\Local\Temp\ccvQPEdN.s 			page 14


 457:..\..\..\..\..\..\Software\uCOS-III\Source/os_mutex.c ****         }
 458:..\..\..\..\..\..\Software\uCOS-III\Source/os_mutex.c ****         p_mutex->OwnerNestingCtr++;
 285              		.loc 1 458 0
 286 00cc FB68     		ldr	r3, [r7, #12]
 287 00ce 2822     		movs	r2, #40
 288 00d0 9B5C     		ldrb	r3, [r3, r2]
 289 00d2 0133     		adds	r3, r3, #1
 290 00d4 D9B2     		uxtb	r1, r3
 291 00d6 FB68     		ldr	r3, [r7, #12]
 292 00d8 2822     		movs	r2, #40
 293 00da 9954     		strb	r1, [r3, r2]
 459:..\..\..\..\..\..\Software\uCOS-III\Source/os_mutex.c **** #if (OS_CFG_TS_EN == DEF_ENABLED)
 460:..\..\..\..\..\..\Software\uCOS-III\Source/os_mutex.c ****         if (p_ts != DEF_NULL) {
 294              		.loc 1 460 0
 295 00dc 3B68     		ldr	r3, [r7]
 296 00de 002B     		cmp	r3, #0
 297 00e0 03D0     		beq	.L18
 461:..\..\..\..\..\..\Software\uCOS-III\Source/os_mutex.c ****            *p_ts = p_mutex->TS;
 298              		.loc 1 461 0
 299 00e2 FB68     		ldr	r3, [r7, #12]
 300 00e4 DA6A     		ldr	r2, [r3, #44]
 301 00e6 3B68     		ldr	r3, [r7]
 302 00e8 1A60     		str	r2, [r3]
 303              	.L18:
 462:..\..\..\..\..\..\Software\uCOS-III\Source/os_mutex.c ****         }
 463:..\..\..\..\..\..\Software\uCOS-III\Source/os_mutex.c **** #endif
 464:..\..\..\..\..\..\Software\uCOS-III\Source/os_mutex.c ****         CPU_CRITICAL_EXIT();
 304              		.loc 1 464 0
 305 00ea FFF7FEFF 		bl	CPU_IntDisMeasStop
 306 00ee 7B6B     		ldr	r3, [r7, #52]
 307 00f0 1800     		movs	r0, r3
 308 00f2 FFF7FEFF 		bl	CPU_SR_Restore
 465:..\..\..\..\..\..\Software\uCOS-III\Source/os_mutex.c **** #if (defined(TRACE_CFG_EN) && (TRACE_CFG_EN == DEF_ENABLED))
 466:..\..\..\..\..\..\Software\uCOS-III\Source/os_mutex.c ****         TRACE_OS_MUTEX_PEND_FAILED(p_mutex);                    /* Record the event.               
 467:..\..\..\..\..\..\Software\uCOS-III\Source/os_mutex.c **** #endif
 468:..\..\..\..\..\..\Software\uCOS-III\Source/os_mutex.c ****        *p_err = OS_ERR_MUTEX_OWNER;                             /* Indicate that current task alrea
 309              		.loc 1 468 0
 310 00f6 3B6C     		ldr	r3, [r7, #64]
 311 00f8 554A     		ldr	r2, .L37+24
 312 00fa 1A80     		strh	r2, [r3]
 469:..\..\..\..\..\..\Software\uCOS-III\Source/os_mutex.c ****         return;
 313              		.loc 1 469 0
 314 00fc 99E0     		b	.L7
 315              	.L16:
 470:..\..\..\..\..\..\Software\uCOS-III\Source/os_mutex.c ****     }
 471:..\..\..\..\..\..\Software\uCOS-III\Source/os_mutex.c **** 
 472:..\..\..\..\..\..\Software\uCOS-III\Source/os_mutex.c ****     if ((opt & OS_OPT_PEND_NON_BLOCKING) != 0u) {               /* Caller wants to block if not ava
 316              		.loc 1 472 0
 317 00fe BB1D     		adds	r3, r7, #6
 318 0100 0022     		movs	r2, #0
 319 0102 9B5E     		ldrsh	r3, [r3, r2]
 320 0104 002B     		cmp	r3, #0
 321 0106 0FDA     		bge	.L19
 473:..\..\..\..\..\..\Software\uCOS-III\Source/os_mutex.c ****         CPU_CRITICAL_EXIT();
 322              		.loc 1 473 0
 323 0108 FFF7FEFF 		bl	CPU_IntDisMeasStop
 324 010c 7B6B     		ldr	r3, [r7, #52]
ARM GAS  C:\Users\ADMINI~1\AppData\Local\Temp\ccvQPEdN.s 			page 15


 325 010e 1800     		movs	r0, r3
 326 0110 FFF7FEFF 		bl	CPU_SR_Restore
 474:..\..\..\..\..\..\Software\uCOS-III\Source/os_mutex.c **** #if (OS_CFG_TS_EN == DEF_ENABLED)
 475:..\..\..\..\..\..\Software\uCOS-III\Source/os_mutex.c ****         if (p_ts != DEF_NULL) {
 327              		.loc 1 475 0
 328 0114 3B68     		ldr	r3, [r7]
 329 0116 002B     		cmp	r3, #0
 330 0118 02D0     		beq	.L20
 476:..\..\..\..\..\..\Software\uCOS-III\Source/os_mutex.c ****            *p_ts = 0u;
 331              		.loc 1 476 0
 332 011a 3B68     		ldr	r3, [r7]
 333 011c 0022     		movs	r2, #0
 334 011e 1A60     		str	r2, [r3]
 335              	.L20:
 477:..\..\..\..\..\..\Software\uCOS-III\Source/os_mutex.c ****         }
 478:..\..\..\..\..\..\Software\uCOS-III\Source/os_mutex.c **** #endif
 479:..\..\..\..\..\..\Software\uCOS-III\Source/os_mutex.c **** #if (defined(TRACE_CFG_EN) && (TRACE_CFG_EN == DEF_ENABLED))
 480:..\..\..\..\..\..\Software\uCOS-III\Source/os_mutex.c ****         TRACE_OS_MUTEX_PEND_FAILED(p_mutex);                    /* Record the event.               
 481:..\..\..\..\..\..\Software\uCOS-III\Source/os_mutex.c **** #endif
 482:..\..\..\..\..\..\Software\uCOS-III\Source/os_mutex.c ****        *p_err = OS_ERR_PEND_WOULD_BLOCK;                        /* No                              
 336              		.loc 1 482 0
 337 0120 3B6C     		ldr	r3, [r7, #64]
 338 0122 4C4A     		ldr	r2, .L37+28
 339 0124 1A80     		strh	r2, [r3]
 483:..\..\..\..\..\..\Software\uCOS-III\Source/os_mutex.c ****         return;
 340              		.loc 1 483 0
 341 0126 84E0     		b	.L7
 342              	.L19:
 484:..\..\..\..\..\..\Software\uCOS-III\Source/os_mutex.c ****     } else {
 485:..\..\..\..\..\..\Software\uCOS-III\Source/os_mutex.c ****         if (OSSchedLockNestingCtr > 0u) {                       /* Can't pend when the scheduler is
 343              		.loc 1 485 0
 344 0128 4B4B     		ldr	r3, .L37+32
 345 012a 1B78     		ldrb	r3, [r3]
 346 012c 002B     		cmp	r3, #0
 347 012e 0FD0     		beq	.L21
 486:..\..\..\..\..\..\Software\uCOS-III\Source/os_mutex.c ****             CPU_CRITICAL_EXIT();
 348              		.loc 1 486 0
 349 0130 FFF7FEFF 		bl	CPU_IntDisMeasStop
 350 0134 7B6B     		ldr	r3, [r7, #52]
 351 0136 1800     		movs	r0, r3
 352 0138 FFF7FEFF 		bl	CPU_SR_Restore
 487:..\..\..\..\..\..\Software\uCOS-III\Source/os_mutex.c **** #if (OS_CFG_TS_EN == DEF_ENABLED)
 488:..\..\..\..\..\..\Software\uCOS-III\Source/os_mutex.c ****             if (p_ts != DEF_NULL) {
 353              		.loc 1 488 0
 354 013c 3B68     		ldr	r3, [r7]
 355 013e 002B     		cmp	r3, #0
 356 0140 02D0     		beq	.L22
 489:..\..\..\..\..\..\Software\uCOS-III\Source/os_mutex.c ****                *p_ts = 0u;
 357              		.loc 1 489 0
 358 0142 3B68     		ldr	r3, [r7]
 359 0144 0022     		movs	r2, #0
 360 0146 1A60     		str	r2, [r3]
 361              	.L22:
 490:..\..\..\..\..\..\Software\uCOS-III\Source/os_mutex.c ****             }
 491:..\..\..\..\..\..\Software\uCOS-III\Source/os_mutex.c **** #endif
 492:..\..\..\..\..\..\Software\uCOS-III\Source/os_mutex.c **** #if (defined(TRACE_CFG_EN) && (TRACE_CFG_EN == DEF_ENABLED))
 493:..\..\..\..\..\..\Software\uCOS-III\Source/os_mutex.c ****             TRACE_OS_MUTEX_PEND_FAILED(p_mutex);                /* Record the event.               
ARM GAS  C:\Users\ADMINI~1\AppData\Local\Temp\ccvQPEdN.s 			page 16


 494:..\..\..\..\..\..\Software\uCOS-III\Source/os_mutex.c **** #endif
 495:..\..\..\..\..\..\Software\uCOS-III\Source/os_mutex.c ****            *p_err = OS_ERR_SCHED_LOCKED;
 362              		.loc 1 495 0
 363 0148 3B6C     		ldr	r3, [r7, #64]
 364 014a 444A     		ldr	r2, .L37+36
 365 014c 1A80     		strh	r2, [r3]
 496:..\..\..\..\..\..\Software\uCOS-III\Source/os_mutex.c ****             return;
 366              		.loc 1 496 0
 367 014e 70E0     		b	.L7
 368              	.L21:
 497:..\..\..\..\..\..\Software\uCOS-III\Source/os_mutex.c ****         }
 498:..\..\..\..\..\..\Software\uCOS-III\Source/os_mutex.c ****     }
 499:..\..\..\..\..\..\Software\uCOS-III\Source/os_mutex.c ****                                                                 /* Lock the scheduler/re-enable int
 500:..\..\..\..\..\..\Software\uCOS-III\Source/os_mutex.c ****     OS_CRITICAL_ENTER_CPU_EXIT();
 501:..\..\..\..\..\..\Software\uCOS-III\Source/os_mutex.c ****     p_tcb = p_mutex->OwnerTCBPtr;                               /* Point to the TCB of the Mutex ow
 369              		.loc 1 501 0
 370 0150 FB68     		ldr	r3, [r7, #12]
 371 0152 5B6A     		ldr	r3, [r3, #36]
 372 0154 3B63     		str	r3, [r7, #48]
 502:..\..\..\..\..\..\Software\uCOS-III\Source/os_mutex.c ****     if (p_tcb->Prio > OSTCBCurPtr->Prio) {                      /* See if mutex owner has a lower p
 373              		.loc 1 502 0
 374 0156 3B6B     		ldr	r3, [r7, #48]
 375 0158 3722     		movs	r2, #55
 376 015a 9A5C     		ldrb	r2, [r3, r2]
 377 015c 3A4B     		ldr	r3, .L37+16
 378 015e 1B68     		ldr	r3, [r3]
 379 0160 3721     		movs	r1, #55
 380 0162 5B5C     		ldrb	r3, [r3, r1]
 381 0164 9A42     		cmp	r2, r3
 382 0166 08D9     		bls	.L23
 503:..\..\..\..\..\..\Software\uCOS-III\Source/os_mutex.c ****         OS_TaskChangePrio(p_tcb, OSTCBCurPtr->Prio);
 383              		.loc 1 503 0
 384 0168 374B     		ldr	r3, .L37+16
 385 016a 1B68     		ldr	r3, [r3]
 386 016c 3722     		movs	r2, #55
 387 016e 9A5C     		ldrb	r2, [r3, r2]
 388 0170 3B6B     		ldr	r3, [r7, #48]
 389 0172 1100     		movs	r1, r2
 390 0174 1800     		movs	r0, r3
 391 0176 FFF7FEFF 		bl	OS_TaskChangePrio
 392              	.L23:
 504:..\..\..\..\..\..\Software\uCOS-III\Source/os_mutex.c **** #if (defined(TRACE_CFG_EN) && (TRACE_CFG_EN == DEF_ENABLED))
 505:..\..\..\..\..\..\Software\uCOS-III\Source/os_mutex.c ****                  TRACE_OS_MUTEX_TASK_PRIO_INHERIT(p_tcb, p_tcb->Prio);
 506:..\..\..\..\..\..\Software\uCOS-III\Source/os_mutex.c **** #endif
 507:..\..\..\..\..\..\Software\uCOS-III\Source/os_mutex.c ****     }
 508:..\..\..\..\..\..\Software\uCOS-III\Source/os_mutex.c **** 
 509:..\..\..\..\..\..\Software\uCOS-III\Source/os_mutex.c ****     OS_Pend(&pend_data,                                         /* Block task pending on Mutex     
 393              		.loc 1 509 0
 394 017a BB68     		ldr	r3, [r7, #8]
 395 017c F968     		ldr	r1, [r7, #12]
 396 017e 1022     		movs	r2, #16
 397 0180 B818     		adds	r0, r7, r2
 398 0182 0422     		movs	r2, #4
 399 0184 FFF7FEFF 		bl	OS_Pend
 510:..\..\..\..\..\..\Software\uCOS-III\Source/os_mutex.c ****             (OS_PEND_OBJ *)((void *)p_mutex),
 511:..\..\..\..\..\..\Software\uCOS-III\Source/os_mutex.c ****              OS_TASK_PEND_ON_MUTEX,
 512:..\..\..\..\..\..\Software\uCOS-III\Source/os_mutex.c ****              timeout);
ARM GAS  C:\Users\ADMINI~1\AppData\Local\Temp\ccvQPEdN.s 			page 17


 513:..\..\..\..\..\..\Software\uCOS-III\Source/os_mutex.c **** 
 514:..\..\..\..\..\..\Software\uCOS-III\Source/os_mutex.c ****     OS_CRITICAL_EXIT_NO_SCHED();
 400              		.loc 1 514 0
 401 0188 FFF7FEFF 		bl	CPU_IntDisMeasStop
 402 018c 7B6B     		ldr	r3, [r7, #52]
 403 018e 1800     		movs	r0, r3
 404 0190 FFF7FEFF 		bl	CPU_SR_Restore
 515:..\..\..\..\..\..\Software\uCOS-III\Source/os_mutex.c **** #if (defined(TRACE_CFG_EN) && (TRACE_CFG_EN == DEF_ENABLED))
 516:..\..\..\..\..\..\Software\uCOS-III\Source/os_mutex.c ****     TRACE_OS_MUTEX_PEND_BLOCK(p_mutex);                         /* Record the event.               
 517:..\..\..\..\..\..\Software\uCOS-III\Source/os_mutex.c **** #endif
 518:..\..\..\..\..\..\Software\uCOS-III\Source/os_mutex.c ****     OSSched();                                                  /* Find the next highest priority t
 405              		.loc 1 518 0
 406 0194 FFF7FEFF 		bl	OSSched
 519:..\..\..\..\..\..\Software\uCOS-III\Source/os_mutex.c **** 
 520:..\..\..\..\..\..\Software\uCOS-III\Source/os_mutex.c ****     CPU_CRITICAL_ENTER();
 407              		.loc 1 520 0
 408 0198 FFF7FEFF 		bl	CPU_SR_Save
 409 019c 0300     		movs	r3, r0
 410 019e 7B63     		str	r3, [r7, #52]
 411 01a0 FFF7FEFF 		bl	CPU_IntDisMeasStart
 521:..\..\..\..\..\..\Software\uCOS-III\Source/os_mutex.c ****     switch (OSTCBCurPtr->PendStatus) {
 412              		.loc 1 521 0
 413 01a4 284B     		ldr	r3, .L37+16
 414 01a6 1B68     		ldr	r3, [r3]
 415 01a8 3522     		movs	r2, #53
 416 01aa 9B5C     		ldrb	r3, [r3, r2]
 417 01ac 012B     		cmp	r3, #1
 418 01ae 14D0     		beq	.L25
 419 01b0 02DC     		bgt	.L26
 420 01b2 002B     		cmp	r3, #0
 421 01b4 05D0     		beq	.L27
 422 01b6 32E0     		b	.L24
 423              	.L26:
 424 01b8 022B     		cmp	r3, #2
 425 01ba 24D0     		beq	.L28
 426 01bc 032B     		cmp	r3, #3
 427 01be 18D0     		beq	.L29
 428 01c0 2DE0     		b	.L24
 429              	.L27:
 522:..\..\..\..\..\..\Software\uCOS-III\Source/os_mutex.c ****         case OS_STATUS_PEND_OK:                                 /* We got the mutex                
 523:..\..\..\..\..\..\Software\uCOS-III\Source/os_mutex.c **** #if (OS_CFG_TS_EN == DEF_ENABLED)
 524:..\..\..\..\..\..\Software\uCOS-III\Source/os_mutex.c ****              if (p_ts != DEF_NULL) {
 430              		.loc 1 524 0
 431 01c2 3B68     		ldr	r3, [r7]
 432 01c4 002B     		cmp	r3, #0
 433 01c6 04D0     		beq	.L30
 525:..\..\..\..\..\..\Software\uCOS-III\Source/os_mutex.c ****                 *p_ts = OSTCBCurPtr->TS;
 434              		.loc 1 525 0
 435 01c8 1F4B     		ldr	r3, .L37+16
 436 01ca 1B68     		ldr	r3, [r3]
 437 01cc 9A6C     		ldr	r2, [r3, #72]
 438 01ce 3B68     		ldr	r3, [r7]
 439 01d0 1A60     		str	r2, [r3]
 440              	.L30:
 526:..\..\..\..\..\..\Software\uCOS-III\Source/os_mutex.c ****              }
 527:..\..\..\..\..\..\Software\uCOS-III\Source/os_mutex.c **** #endif
 528:..\..\..\..\..\..\Software\uCOS-III\Source/os_mutex.c **** #if (defined(TRACE_CFG_EN) && (TRACE_CFG_EN == DEF_ENABLED))
ARM GAS  C:\Users\ADMINI~1\AppData\Local\Temp\ccvQPEdN.s 			page 18


 529:..\..\..\..\..\..\Software\uCOS-III\Source/os_mutex.c ****              TRACE_OS_MUTEX_PEND(p_mutex);                      /* Record the event.               
 530:..\..\..\..\..\..\Software\uCOS-III\Source/os_mutex.c **** #endif
 531:..\..\..\..\..\..\Software\uCOS-III\Source/os_mutex.c ****             *p_err = OS_ERR_NONE;
 441              		.loc 1 531 0
 442 01d2 3B6C     		ldr	r3, [r7, #64]
 443 01d4 0022     		movs	r2, #0
 444 01d6 1A80     		strh	r2, [r3]
 532:..\..\..\..\..\..\Software\uCOS-III\Source/os_mutex.c ****              break;
 445              		.loc 1 532 0
 446 01d8 25E0     		b	.L31
 447              	.L25:
 533:..\..\..\..\..\..\Software\uCOS-III\Source/os_mutex.c **** 
 534:..\..\..\..\..\..\Software\uCOS-III\Source/os_mutex.c ****         case OS_STATUS_PEND_ABORT:                              /* Indicate that we aborted        
 535:..\..\..\..\..\..\Software\uCOS-III\Source/os_mutex.c **** #if (OS_CFG_TS_EN == DEF_ENABLED)
 536:..\..\..\..\..\..\Software\uCOS-III\Source/os_mutex.c ****              if (p_ts != DEF_NULL) {
 448              		.loc 1 536 0
 449 01da 3B68     		ldr	r3, [r7]
 450 01dc 002B     		cmp	r3, #0
 451 01de 04D0     		beq	.L32
 537:..\..\..\..\..\..\Software\uCOS-III\Source/os_mutex.c ****                 *p_ts = OSTCBCurPtr->TS;
 452              		.loc 1 537 0
 453 01e0 194B     		ldr	r3, .L37+16
 454 01e2 1B68     		ldr	r3, [r3]
 455 01e4 9A6C     		ldr	r2, [r3, #72]
 456 01e6 3B68     		ldr	r3, [r7]
 457 01e8 1A60     		str	r2, [r3]
 458              	.L32:
 538:..\..\..\..\..\..\Software\uCOS-III\Source/os_mutex.c ****              }
 539:..\..\..\..\..\..\Software\uCOS-III\Source/os_mutex.c **** #endif
 540:..\..\..\..\..\..\Software\uCOS-III\Source/os_mutex.c **** #if (defined(TRACE_CFG_EN) && (TRACE_CFG_EN == DEF_ENABLED))
 541:..\..\..\..\..\..\Software\uCOS-III\Source/os_mutex.c ****              TRACE_OS_MUTEX_PEND_FAILED(p_mutex);               /* Record the event.               
 542:..\..\..\..\..\..\Software\uCOS-III\Source/os_mutex.c **** #endif
 543:..\..\..\..\..\..\Software\uCOS-III\Source/os_mutex.c ****             *p_err = OS_ERR_PEND_ABORT;
 459              		.loc 1 543 0
 460 01ea 3B6C     		ldr	r3, [r7, #64]
 461 01ec 1C4A     		ldr	r2, .L37+40
 462 01ee 1A80     		strh	r2, [r3]
 544:..\..\..\..\..\..\Software\uCOS-III\Source/os_mutex.c ****              break;
 463              		.loc 1 544 0
 464 01f0 19E0     		b	.L31
 465              	.L29:
 545:..\..\..\..\..\..\Software\uCOS-III\Source/os_mutex.c **** 
 546:..\..\..\..\..\..\Software\uCOS-III\Source/os_mutex.c ****         case OS_STATUS_PEND_TIMEOUT:                            /* Indicate that we didn't get mute
 547:..\..\..\..\..\..\Software\uCOS-III\Source/os_mutex.c **** #if (OS_CFG_TS_EN == DEF_ENABLED)
 548:..\..\..\..\..\..\Software\uCOS-III\Source/os_mutex.c ****              if (p_ts != DEF_NULL) {
 466              		.loc 1 548 0
 467 01f2 3B68     		ldr	r3, [r7]
 468 01f4 002B     		cmp	r3, #0
 469 01f6 02D0     		beq	.L33
 549:..\..\..\..\..\..\Software\uCOS-III\Source/os_mutex.c ****                 *p_ts = 0u;
 470              		.loc 1 549 0
 471 01f8 3B68     		ldr	r3, [r7]
 472 01fa 0022     		movs	r2, #0
 473 01fc 1A60     		str	r2, [r3]
 474              	.L33:
 550:..\..\..\..\..\..\Software\uCOS-III\Source/os_mutex.c ****              }
 551:..\..\..\..\..\..\Software\uCOS-III\Source/os_mutex.c **** #endif
ARM GAS  C:\Users\ADMINI~1\AppData\Local\Temp\ccvQPEdN.s 			page 19


 552:..\..\..\..\..\..\Software\uCOS-III\Source/os_mutex.c **** #if (defined(TRACE_CFG_EN) && (TRACE_CFG_EN == DEF_ENABLED))
 553:..\..\..\..\..\..\Software\uCOS-III\Source/os_mutex.c ****              TRACE_OS_MUTEX_PEND_FAILED(p_mutex);               /* Record the event.               
 554:..\..\..\..\..\..\Software\uCOS-III\Source/os_mutex.c **** #endif
 555:..\..\..\..\..\..\Software\uCOS-III\Source/os_mutex.c ****             *p_err = OS_ERR_TIMEOUT;
 475              		.loc 1 555 0
 476 01fe 3B6C     		ldr	r3, [r7, #64]
 477 0200 184A     		ldr	r2, .L37+44
 478 0202 1A80     		strh	r2, [r3]
 556:..\..\..\..\..\..\Software\uCOS-III\Source/os_mutex.c ****              break;
 479              		.loc 1 556 0
 480 0204 0FE0     		b	.L31
 481              	.L28:
 557:..\..\..\..\..\..\Software\uCOS-III\Source/os_mutex.c **** 
 558:..\..\..\..\..\..\Software\uCOS-III\Source/os_mutex.c ****         case OS_STATUS_PEND_DEL:                                /* Indicate that object pended on h
 559:..\..\..\..\..\..\Software\uCOS-III\Source/os_mutex.c **** #if (OS_CFG_TS_EN == DEF_ENABLED)
 560:..\..\..\..\..\..\Software\uCOS-III\Source/os_mutex.c ****              if (p_ts != DEF_NULL) {
 482              		.loc 1 560 0
 483 0206 3B68     		ldr	r3, [r7]
 484 0208 002B     		cmp	r3, #0
 485 020a 04D0     		beq	.L34
 561:..\..\..\..\..\..\Software\uCOS-III\Source/os_mutex.c ****                 *p_ts = OSTCBCurPtr->TS;
 486              		.loc 1 561 0
 487 020c 0E4B     		ldr	r3, .L37+16
 488 020e 1B68     		ldr	r3, [r3]
 489 0210 9A6C     		ldr	r2, [r3, #72]
 490 0212 3B68     		ldr	r3, [r7]
 491 0214 1A60     		str	r2, [r3]
 492              	.L34:
 562:..\..\..\..\..\..\Software\uCOS-III\Source/os_mutex.c ****              }
 563:..\..\..\..\..\..\Software\uCOS-III\Source/os_mutex.c **** #endif
 564:..\..\..\..\..\..\Software\uCOS-III\Source/os_mutex.c **** #if (defined(TRACE_CFG_EN) && (TRACE_CFG_EN == DEF_ENABLED))
 565:..\..\..\..\..\..\Software\uCOS-III\Source/os_mutex.c ****              TRACE_OS_MUTEX_PEND_FAILED(p_mutex);               /* Record the event.               
 566:..\..\..\..\..\..\Software\uCOS-III\Source/os_mutex.c **** #endif
 567:..\..\..\..\..\..\Software\uCOS-III\Source/os_mutex.c ****             *p_err = OS_ERR_OBJ_DEL;
 493              		.loc 1 567 0
 494 0216 3B6C     		ldr	r3, [r7, #64]
 495 0218 134A     		ldr	r2, .L37+48
 496 021a 1A80     		strh	r2, [r3]
 568:..\..\..\..\..\..\Software\uCOS-III\Source/os_mutex.c ****              break;
 497              		.loc 1 568 0
 498 021c 03E0     		b	.L31
 499              	.L24:
 569:..\..\..\..\..\..\Software\uCOS-III\Source/os_mutex.c **** 
 570:..\..\..\..\..\..\Software\uCOS-III\Source/os_mutex.c ****         default:
 571:..\..\..\..\..\..\Software\uCOS-III\Source/os_mutex.c **** #if (defined(TRACE_CFG_EN) && (TRACE_CFG_EN == DEF_ENABLED))
 572:..\..\..\..\..\..\Software\uCOS-III\Source/os_mutex.c ****              TRACE_OS_MUTEX_PEND_FAILED(p_mutex);               /* Record the event.               
 573:..\..\..\..\..\..\Software\uCOS-III\Source/os_mutex.c **** #endif
 574:..\..\..\..\..\..\Software\uCOS-III\Source/os_mutex.c ****             *p_err = OS_ERR_STATUS_INVALID;
 500              		.loc 1 574 0
 501 021e 3B6C     		ldr	r3, [r7, #64]
 502 0220 124A     		ldr	r2, .L37+52
 503 0222 1A80     		strh	r2, [r3]
 575:..\..\..\..\..\..\Software\uCOS-III\Source/os_mutex.c ****              break;
 504              		.loc 1 575 0
 505 0224 C046     		nop
 506              	.L31:
 576:..\..\..\..\..\..\Software\uCOS-III\Source/os_mutex.c ****     }
ARM GAS  C:\Users\ADMINI~1\AppData\Local\Temp\ccvQPEdN.s 			page 20


 577:..\..\..\..\..\..\Software\uCOS-III\Source/os_mutex.c ****     CPU_CRITICAL_EXIT();
 507              		.loc 1 577 0
 508 0226 FFF7FEFF 		bl	CPU_IntDisMeasStop
 509 022a 7B6B     		ldr	r3, [r7, #52]
 510 022c 1800     		movs	r0, r3
 511 022e FFF7FEFF 		bl	CPU_SR_Restore
 512              	.L7:
 578:..\..\..\..\..\..\Software\uCOS-III\Source/os_mutex.c **** }
 513              		.loc 1 578 0
 514 0232 BD46     		mov	sp, r7
 515 0234 0EB0     		add	sp, sp, #56
 516              		@ sp needed
 517 0236 80BD     		pop	{r7, pc}
 518              	.L38:
 519              		.align	2
 520              	.L37:
 521 0238 00000000 		.word	OSIntNestingCtr
 522 023c AE610000 		.word	25006
 523 0240 C35D0000 		.word	24003
 524 0244 255E0000 		.word	24101
 525 0248 00000000 		.word	OSTCBCurPtr
 526 024c 84570000 		.word	22404
 527 0250 82570000 		.word	22402
 528 0254 B0610000 		.word	25008
 529 0258 00000000 		.word	OSSchedLockNestingCtr
 530 025c 636D0000 		.word	28003
 531 0260 A9610000 		.word	25001
 532 0264 D9720000 		.word	29401
 533 0268 C25D0000 		.word	24002
 534 026c 2E6E0000 		.word	28206
 535              		.cfi_endproc
 536              	.LFE1:
 537              		.size	OSMutexPend, .-OSMutexPend
 538              		.section	.text.OSMutexPost,"ax",%progbits
 539              		.align	2
 540              		.global	OSMutexPost
 541              		.code	16
 542              		.thumb_func
 543              		.type	OSMutexPost, %function
 544              	OSMutexPost:
 545              	.LFB2:
 579:..\..\..\..\..\..\Software\uCOS-III\Source/os_mutex.c **** 
 580:..\..\..\..\..\..\Software\uCOS-III\Source/os_mutex.c **** 
 581:..\..\..\..\..\..\Software\uCOS-III\Source/os_mutex.c **** /*
 582:..\..\..\..\..\..\Software\uCOS-III\Source/os_mutex.c **** ***************************************************************************************************
 583:..\..\..\..\..\..\Software\uCOS-III\Source/os_mutex.c **** *                                               ABORT WAITING ON A MUTEX
 584:..\..\..\..\..\..\Software\uCOS-III\Source/os_mutex.c **** *
 585:..\..\..\..\..\..\Software\uCOS-III\Source/os_mutex.c **** * Description: This function aborts & readies any tasks currently waiting on a mutex.  This functio
 586:..\..\..\..\..\..\Software\uCOS-III\Source/os_mutex.c **** *              to fault-abort the wait on the mutex, rather than to normally signal the mutex via O
 587:..\..\..\..\..\..\Software\uCOS-III\Source/os_mutex.c **** *
 588:..\..\..\..\..\..\Software\uCOS-III\Source/os_mutex.c **** * Arguments  : p_mutex       is a pointer to the mutex
 589:..\..\..\..\..\..\Software\uCOS-III\Source/os_mutex.c **** *
 590:..\..\..\..\..\..\Software\uCOS-III\Source/os_mutex.c **** *              opt           determines the type of ABORT performed:
 591:..\..\..\..\..\..\Software\uCOS-III\Source/os_mutex.c **** *
 592:..\..\..\..\..\..\Software\uCOS-III\Source/os_mutex.c **** *                                OS_OPT_PEND_ABORT_1          ABORT wait for a single task (HPT) wa
 593:..\..\..\..\..\..\Software\uCOS-III\Source/os_mutex.c **** *                                OS_OPT_PEND_ABORT_ALL        ABORT wait for ALL tasks that are  wa
 594:..\..\..\..\..\..\Software\uCOS-III\Source/os_mutex.c **** *                                OS_OPT_POST_NO_SCHED         Do not call the scheduler
ARM GAS  C:\Users\ADMINI~1\AppData\Local\Temp\ccvQPEdN.s 			page 21


 595:..\..\..\..\..\..\Software\uCOS-III\Source/os_mutex.c **** *
 596:..\..\..\..\..\..\Software\uCOS-III\Source/os_mutex.c **** *              p_err         is a pointer to a variable that will contain an error code returned by
 597:..\..\..\..\..\..\Software\uCOS-III\Source/os_mutex.c **** *
 598:..\..\..\..\..\..\Software\uCOS-III\Source/os_mutex.c **** *                                OS_ERR_NONE               At least one task waiting on the mutex w
 599:..\..\..\..\..\..\Software\uCOS-III\Source/os_mutex.c **** *                                                          informed of the aborted wait; check retu
 600:..\..\..\..\..\..\Software\uCOS-III\Source/os_mutex.c **** *                                                          number of tasks whose wait on the mutex 
 601:..\..\..\..\..\..\Software\uCOS-III\Source/os_mutex.c **** *                                OS_ERR_OBJ_PTR_NULL       If 'p_mutex' is a NULL pointer
 602:..\..\..\..\..\..\Software\uCOS-III\Source/os_mutex.c **** *                                OS_ERR_OBJ_TYPE           If 'p_mutex' is not pointing at a mutex
 603:..\..\..\..\..\..\Software\uCOS-III\Source/os_mutex.c **** *                                OS_ERR_OPT_INVALID        If you specified an invalid option
 604:..\..\..\..\..\..\Software\uCOS-III\Source/os_mutex.c **** *                                OS_ERR_OS_NOT_RUNNING     If uC/OS-III is not running yet
 605:..\..\..\..\..\..\Software\uCOS-III\Source/os_mutex.c **** *                                OS_ERR_PEND_ABORT_ISR     If you attempted to call this function f
 606:..\..\..\..\..\..\Software\uCOS-III\Source/os_mutex.c **** *                                OS_ERR_PEND_ABORT_NONE    No task were pending
 607:..\..\..\..\..\..\Software\uCOS-III\Source/os_mutex.c **** *
 608:..\..\..\..\..\..\Software\uCOS-III\Source/os_mutex.c **** * Returns    : == 0          if no tasks were waiting on the mutex, or upon error.
 609:..\..\..\..\..\..\Software\uCOS-III\Source/os_mutex.c **** *              >  0          if one or more tasks waiting on the mutex are now readied and informed
 610:..\..\..\..\..\..\Software\uCOS-III\Source/os_mutex.c **** *
 611:..\..\..\..\..\..\Software\uCOS-III\Source/os_mutex.c **** * Note(s)    : none
 612:..\..\..\..\..\..\Software\uCOS-III\Source/os_mutex.c **** ***************************************************************************************************
 613:..\..\..\..\..\..\Software\uCOS-III\Source/os_mutex.c **** */
 614:..\..\..\..\..\..\Software\uCOS-III\Source/os_mutex.c **** 
 615:..\..\..\..\..\..\Software\uCOS-III\Source/os_mutex.c **** #if (OS_CFG_MUTEX_PEND_ABORT_EN == DEF_ENABLED)
 616:..\..\..\..\..\..\Software\uCOS-III\Source/os_mutex.c **** OS_OBJ_QTY  OSMutexPendAbort (OS_MUTEX  *p_mutex,
 617:..\..\..\..\..\..\Software\uCOS-III\Source/os_mutex.c ****                               OS_OPT     opt,
 618:..\..\..\..\..\..\Software\uCOS-III\Source/os_mutex.c ****                               OS_ERR    *p_err)
 619:..\..\..\..\..\..\Software\uCOS-III\Source/os_mutex.c **** {
 620:..\..\..\..\..\..\Software\uCOS-III\Source/os_mutex.c ****     OS_PEND_LIST  *p_pend_list;
 621:..\..\..\..\..\..\Software\uCOS-III\Source/os_mutex.c ****     OS_TCB        *p_tcb;
 622:..\..\..\..\..\..\Software\uCOS-III\Source/os_mutex.c ****     OS_TCB        *p_tcb_owner;
 623:..\..\..\..\..\..\Software\uCOS-III\Source/os_mutex.c ****     CPU_TS         ts;
 624:..\..\..\..\..\..\Software\uCOS-III\Source/os_mutex.c ****     OS_OBJ_QTY     nbr_tasks;
 625:..\..\..\..\..\..\Software\uCOS-III\Source/os_mutex.c ****     OS_PRIO        prio_new;
 626:..\..\..\..\..\..\Software\uCOS-III\Source/os_mutex.c ****     CPU_SR_ALLOC();
 627:..\..\..\..\..\..\Software\uCOS-III\Source/os_mutex.c **** 
 628:..\..\..\..\..\..\Software\uCOS-III\Source/os_mutex.c **** 
 629:..\..\..\..\..\..\Software\uCOS-III\Source/os_mutex.c **** 
 630:..\..\..\..\..\..\Software\uCOS-III\Source/os_mutex.c **** #ifdef OS_SAFETY_CRITICAL
 631:..\..\..\..\..\..\Software\uCOS-III\Source/os_mutex.c ****     if (p_err == DEF_NULL) {
 632:..\..\..\..\..\..\Software\uCOS-III\Source/os_mutex.c ****         OS_SAFETY_CRITICAL_EXCEPTION();
 633:..\..\..\..\..\..\Software\uCOS-III\Source/os_mutex.c ****         return ((OS_OBJ_QTY)0u);
 634:..\..\..\..\..\..\Software\uCOS-III\Source/os_mutex.c ****     }
 635:..\..\..\..\..\..\Software\uCOS-III\Source/os_mutex.c **** #endif
 636:..\..\..\..\..\..\Software\uCOS-III\Source/os_mutex.c **** 
 637:..\..\..\..\..\..\Software\uCOS-III\Source/os_mutex.c **** #if (OS_CFG_CALLED_FROM_ISR_CHK_EN == DEF_ENABLED)
 638:..\..\..\..\..\..\Software\uCOS-III\Source/os_mutex.c ****     if (OSIntNestingCtr > 0u) {                                 /* Not allowed to Pend Abort from a
 639:..\..\..\..\..\..\Software\uCOS-III\Source/os_mutex.c ****        *p_err =  OS_ERR_PEND_ABORT_ISR;
 640:..\..\..\..\..\..\Software\uCOS-III\Source/os_mutex.c ****         return (0u);
 641:..\..\..\..\..\..\Software\uCOS-III\Source/os_mutex.c ****     }
 642:..\..\..\..\..\..\Software\uCOS-III\Source/os_mutex.c **** #endif
 643:..\..\..\..\..\..\Software\uCOS-III\Source/os_mutex.c **** 
 644:..\..\..\..\..\..\Software\uCOS-III\Source/os_mutex.c **** #if (OS_CFG_INVALID_OS_CALLS_CHK_EN == DEF_ENABLED)             /* Is the kernel running?          
 645:..\..\..\..\..\..\Software\uCOS-III\Source/os_mutex.c ****     if (OSRunning != OS_STATE_OS_RUNNING) {
 646:..\..\..\..\..\..\Software\uCOS-III\Source/os_mutex.c ****        *p_err = OS_ERR_OS_NOT_RUNNING;
 647:..\..\..\..\..\..\Software\uCOS-III\Source/os_mutex.c ****         return (0u);
 648:..\..\..\..\..\..\Software\uCOS-III\Source/os_mutex.c ****     }
 649:..\..\..\..\..\..\Software\uCOS-III\Source/os_mutex.c **** #endif
 650:..\..\..\..\..\..\Software\uCOS-III\Source/os_mutex.c **** 
 651:..\..\..\..\..\..\Software\uCOS-III\Source/os_mutex.c **** #if (OS_CFG_ARG_CHK_EN == DEF_ENABLED)
ARM GAS  C:\Users\ADMINI~1\AppData\Local\Temp\ccvQPEdN.s 			page 22


 652:..\..\..\..\..\..\Software\uCOS-III\Source/os_mutex.c ****     if (p_mutex == DEF_NULL) {                                  /* Validate 'p_mutex'              
 653:..\..\..\..\..\..\Software\uCOS-III\Source/os_mutex.c ****        *p_err =  OS_ERR_OBJ_PTR_NULL;
 654:..\..\..\..\..\..\Software\uCOS-III\Source/os_mutex.c ****         return (0u);
 655:..\..\..\..\..\..\Software\uCOS-III\Source/os_mutex.c ****     }
 656:..\..\..\..\..\..\Software\uCOS-III\Source/os_mutex.c ****     switch (opt) {                                              /* Validate 'opt'                  
 657:..\..\..\..\..\..\Software\uCOS-III\Source/os_mutex.c ****         case OS_OPT_PEND_ABORT_1:
 658:..\..\..\..\..\..\Software\uCOS-III\Source/os_mutex.c ****         case OS_OPT_PEND_ABORT_ALL:
 659:..\..\..\..\..\..\Software\uCOS-III\Source/os_mutex.c ****         case OS_OPT_PEND_ABORT_1   | OS_OPT_POST_NO_SCHED:
 660:..\..\..\..\..\..\Software\uCOS-III\Source/os_mutex.c ****         case OS_OPT_PEND_ABORT_ALL | OS_OPT_POST_NO_SCHED:
 661:..\..\..\..\..\..\Software\uCOS-III\Source/os_mutex.c ****              break;
 662:..\..\..\..\..\..\Software\uCOS-III\Source/os_mutex.c **** 
 663:..\..\..\..\..\..\Software\uCOS-III\Source/os_mutex.c ****         default:
 664:..\..\..\..\..\..\Software\uCOS-III\Source/os_mutex.c ****             *p_err =  OS_ERR_OPT_INVALID;
 665:..\..\..\..\..\..\Software\uCOS-III\Source/os_mutex.c ****              return (0u);
 666:..\..\..\..\..\..\Software\uCOS-III\Source/os_mutex.c ****     }
 667:..\..\..\..\..\..\Software\uCOS-III\Source/os_mutex.c **** #endif
 668:..\..\..\..\..\..\Software\uCOS-III\Source/os_mutex.c **** 
 669:..\..\..\..\..\..\Software\uCOS-III\Source/os_mutex.c **** #if (OS_CFG_OBJ_TYPE_CHK_EN == DEF_ENABLED)
 670:..\..\..\..\..\..\Software\uCOS-III\Source/os_mutex.c ****     if (p_mutex->Type != OS_OBJ_TYPE_MUTEX) {                   /* Make sure mutex was created     
 671:..\..\..\..\..\..\Software\uCOS-III\Source/os_mutex.c ****        *p_err =  OS_ERR_OBJ_TYPE;
 672:..\..\..\..\..\..\Software\uCOS-III\Source/os_mutex.c ****         return (0u);
 673:..\..\..\..\..\..\Software\uCOS-III\Source/os_mutex.c ****     }
 674:..\..\..\..\..\..\Software\uCOS-III\Source/os_mutex.c **** #endif
 675:..\..\..\..\..\..\Software\uCOS-III\Source/os_mutex.c **** 
 676:..\..\..\..\..\..\Software\uCOS-III\Source/os_mutex.c ****     CPU_CRITICAL_ENTER();
 677:..\..\..\..\..\..\Software\uCOS-III\Source/os_mutex.c ****     p_pend_list = &p_mutex->PendList;
 678:..\..\..\..\..\..\Software\uCOS-III\Source/os_mutex.c ****     if (p_pend_list->HeadPtr == DEF_NULL) {                     /* Any task waiting on mutex?      
 679:..\..\..\..\..\..\Software\uCOS-III\Source/os_mutex.c ****         CPU_CRITICAL_EXIT();                                    /* No                              
 680:..\..\..\..\..\..\Software\uCOS-III\Source/os_mutex.c ****        *p_err =  OS_ERR_PEND_ABORT_NONE;
 681:..\..\..\..\..\..\Software\uCOS-III\Source/os_mutex.c ****         return (0u);
 682:..\..\..\..\..\..\Software\uCOS-III\Source/os_mutex.c ****     }
 683:..\..\..\..\..\..\Software\uCOS-III\Source/os_mutex.c **** 
 684:..\..\..\..\..\..\Software\uCOS-III\Source/os_mutex.c ****     OS_CRITICAL_ENTER_CPU_EXIT();
 685:..\..\..\..\..\..\Software\uCOS-III\Source/os_mutex.c ****     nbr_tasks = 0u;
 686:..\..\..\..\..\..\Software\uCOS-III\Source/os_mutex.c **** #if (OS_CFG_TS_EN == DEF_ENABLED)
 687:..\..\..\..\..\..\Software\uCOS-III\Source/os_mutex.c ****     ts        = OS_TS_GET();                                    /* Get local time stamp so all task
 688:..\..\..\..\..\..\Software\uCOS-III\Source/os_mutex.c **** #else
 689:..\..\..\..\..\..\Software\uCOS-III\Source/os_mutex.c ****     ts        = 0u;
 690:..\..\..\..\..\..\Software\uCOS-III\Source/os_mutex.c **** #endif
 691:..\..\..\..\..\..\Software\uCOS-III\Source/os_mutex.c ****     while (p_pend_list->HeadPtr != DEF_NULL) {
 692:..\..\..\..\..\..\Software\uCOS-III\Source/os_mutex.c ****         p_tcb = p_pend_list->HeadPtr->TCBPtr;
 693:..\..\..\..\..\..\Software\uCOS-III\Source/os_mutex.c **** 
 694:..\..\..\..\..\..\Software\uCOS-III\Source/os_mutex.c ****         OS_PendAbort((OS_PEND_OBJ *)((void *)p_mutex),
 695:..\..\..\..\..\..\Software\uCOS-III\Source/os_mutex.c ****                      p_tcb,
 696:..\..\..\..\..\..\Software\uCOS-III\Source/os_mutex.c ****                      ts);
 697:..\..\..\..\..\..\Software\uCOS-III\Source/os_mutex.c **** 
 698:..\..\..\..\..\..\Software\uCOS-III\Source/os_mutex.c ****         p_tcb_owner = p_mutex->OwnerTCBPtr;
 699:..\..\..\..\..\..\Software\uCOS-III\Source/os_mutex.c ****         prio_new    = p_tcb_owner->Prio;
 700:..\..\..\..\..\..\Software\uCOS-III\Source/os_mutex.c ****         if ((p_tcb_owner->Prio != p_tcb_owner->BasePrio) &&
 701:..\..\..\..\..\..\Software\uCOS-III\Source/os_mutex.c ****             (p_tcb_owner->Prio == p_tcb->Prio)) {               /* Has the owner inherited a priori
 702:..\..\..\..\..\..\Software\uCOS-III\Source/os_mutex.c ****             prio_new = OS_MutexGrpPrioFindHighest(p_tcb_owner);
 703:..\..\..\..\..\..\Software\uCOS-III\Source/os_mutex.c ****             prio_new = prio_new > p_tcb_owner->BasePrio ? p_tcb_owner->BasePrio : prio_new;
 704:..\..\..\..\..\..\Software\uCOS-III\Source/os_mutex.c ****         }
 705:..\..\..\..\..\..\Software\uCOS-III\Source/os_mutex.c **** 
 706:..\..\..\..\..\..\Software\uCOS-III\Source/os_mutex.c ****         if(prio_new != p_tcb_owner->Prio) {
 707:..\..\..\..\..\..\Software\uCOS-III\Source/os_mutex.c ****             OS_TaskChangePrio(p_tcb_owner, prio_new);
 708:..\..\..\..\..\..\Software\uCOS-III\Source/os_mutex.c **** #if (defined(TRACE_CFG_EN) && (TRACE_CFG_EN == DEF_ENABLED))
ARM GAS  C:\Users\ADMINI~1\AppData\Local\Temp\ccvQPEdN.s 			page 23


 709:..\..\..\..\..\..\Software\uCOS-III\Source/os_mutex.c ****                           TRACE_OS_MUTEX_TASK_PRIO_DISINHERIT(p_tcb_owner, p_tcb_owner->Prio);
 710:..\..\..\..\..\..\Software\uCOS-III\Source/os_mutex.c **** #endif
 711:..\..\..\..\..\..\Software\uCOS-III\Source/os_mutex.c ****         }
 712:..\..\..\..\..\..\Software\uCOS-III\Source/os_mutex.c **** 
 713:..\..\..\..\..\..\Software\uCOS-III\Source/os_mutex.c ****         nbr_tasks++;
 714:..\..\..\..\..\..\Software\uCOS-III\Source/os_mutex.c ****         if (opt != OS_OPT_PEND_ABORT_ALL) {                     /* Pend abort all tasks waiting?   
 715:..\..\..\..\..\..\Software\uCOS-III\Source/os_mutex.c ****             break;                                              /* No                              
 716:..\..\..\..\..\..\Software\uCOS-III\Source/os_mutex.c ****         }
 717:..\..\..\..\..\..\Software\uCOS-III\Source/os_mutex.c ****     }
 718:..\..\..\..\..\..\Software\uCOS-III\Source/os_mutex.c ****     OS_CRITICAL_EXIT_NO_SCHED();
 719:..\..\..\..\..\..\Software\uCOS-III\Source/os_mutex.c **** 
 720:..\..\..\..\..\..\Software\uCOS-III\Source/os_mutex.c ****     if ((opt & OS_OPT_POST_NO_SCHED) == 0u) {
 721:..\..\..\..\..\..\Software\uCOS-III\Source/os_mutex.c ****         OSSched();                                              /* Run the scheduler               
 722:..\..\..\..\..\..\Software\uCOS-III\Source/os_mutex.c ****     }
 723:..\..\..\..\..\..\Software\uCOS-III\Source/os_mutex.c **** 
 724:..\..\..\..\..\..\Software\uCOS-III\Source/os_mutex.c ****    *p_err = OS_ERR_NONE;
 725:..\..\..\..\..\..\Software\uCOS-III\Source/os_mutex.c ****     return (nbr_tasks);
 726:..\..\..\..\..\..\Software\uCOS-III\Source/os_mutex.c **** }
 727:..\..\..\..\..\..\Software\uCOS-III\Source/os_mutex.c **** #endif
 728:..\..\..\..\..\..\Software\uCOS-III\Source/os_mutex.c **** 
 729:..\..\..\..\..\..\Software\uCOS-III\Source/os_mutex.c **** 
 730:..\..\..\..\..\..\Software\uCOS-III\Source/os_mutex.c **** /*
 731:..\..\..\..\..\..\Software\uCOS-III\Source/os_mutex.c **** ***************************************************************************************************
 732:..\..\..\..\..\..\Software\uCOS-III\Source/os_mutex.c **** *                                                   POST TO A MUTEX
 733:..\..\..\..\..\..\Software\uCOS-III\Source/os_mutex.c **** *
 734:..\..\..\..\..\..\Software\uCOS-III\Source/os_mutex.c **** * Description: This function signals a mutex.
 735:..\..\..\..\..\..\Software\uCOS-III\Source/os_mutex.c **** *
 736:..\..\..\..\..\..\Software\uCOS-III\Source/os_mutex.c **** * Arguments  : p_mutex       is a pointer to the mutex
 737:..\..\..\..\..\..\Software\uCOS-III\Source/os_mutex.c **** *
 738:..\..\..\..\..\..\Software\uCOS-III\Source/os_mutex.c **** *              opt           is an option you can specify to alter the behavior of the post.  The c
 739:..\..\..\..\..\..\Software\uCOS-III\Source/os_mutex.c **** *
 740:..\..\..\..\..\..\Software\uCOS-III\Source/os_mutex.c **** *                                OS_OPT_POST_NONE        No special option selected
 741:..\..\..\..\..\..\Software\uCOS-III\Source/os_mutex.c **** *                                OS_OPT_POST_NO_SCHED    If you don't want the scheduler to be call
 742:..\..\..\..\..\..\Software\uCOS-III\Source/os_mutex.c **** *
 743:..\..\..\..\..\..\Software\uCOS-III\Source/os_mutex.c **** *              p_err         is a pointer to a variable that will contain an error code returned by
 744:..\..\..\..\..\..\Software\uCOS-III\Source/os_mutex.c **** *
 745:..\..\..\..\..\..\Software\uCOS-III\Source/os_mutex.c **** *                                OS_ERR_NONE               The call was successful and the mutex wa
 746:..\..\..\..\..\..\Software\uCOS-III\Source/os_mutex.c **** *                                OS_ERR_MUTEX_NESTING      Mutex owner nested its use of the mutex
 747:..\..\..\..\..\..\Software\uCOS-III\Source/os_mutex.c **** *                                OS_ERR_MUTEX_NOT_OWNER    If the task posting is not the Mutex own
 748:..\..\..\..\..\..\Software\uCOS-III\Source/os_mutex.c **** *                                OS_ERR_OBJ_PTR_NULL       If 'p_mutex' is a NULL pointer
 749:..\..\..\..\..\..\Software\uCOS-III\Source/os_mutex.c **** *                                OS_ERR_OBJ_TYPE           If 'p_mutex' is not pointing at a mutex
 750:..\..\..\..\..\..\Software\uCOS-III\Source/os_mutex.c **** *                                OS_ERR_OPT_INVALID        If you specified an invalid option
 751:..\..\..\..\..\..\Software\uCOS-III\Source/os_mutex.c **** *                                OS_ERR_OS_NOT_RUNNING     If uC/OS-III is not running yet
 752:..\..\..\..\..\..\Software\uCOS-III\Source/os_mutex.c **** *                                OS_ERR_POST_ISR           If you attempted to post from an ISR
 753:..\..\..\..\..\..\Software\uCOS-III\Source/os_mutex.c **** *
 754:..\..\..\..\..\..\Software\uCOS-III\Source/os_mutex.c **** * Returns    : none
 755:..\..\..\..\..\..\Software\uCOS-III\Source/os_mutex.c **** *
 756:..\..\..\..\..\..\Software\uCOS-III\Source/os_mutex.c **** * Note(s)    : none
 757:..\..\..\..\..\..\Software\uCOS-III\Source/os_mutex.c **** ***************************************************************************************************
 758:..\..\..\..\..\..\Software\uCOS-III\Source/os_mutex.c **** */
 759:..\..\..\..\..\..\Software\uCOS-III\Source/os_mutex.c **** 
 760:..\..\..\..\..\..\Software\uCOS-III\Source/os_mutex.c **** void  OSMutexPost (OS_MUTEX  *p_mutex,
 761:..\..\..\..\..\..\Software\uCOS-III\Source/os_mutex.c ****                    OS_OPT     opt,
 762:..\..\..\..\..\..\Software\uCOS-III\Source/os_mutex.c ****                    OS_ERR    *p_err)
 763:..\..\..\..\..\..\Software\uCOS-III\Source/os_mutex.c **** {
 546              		.loc 1 763 0
 547              		.cfi_startproc
ARM GAS  C:\Users\ADMINI~1\AppData\Local\Temp\ccvQPEdN.s 			page 24


 548              		@ args = 0, pretend = 0, frame = 40
 549              		@ frame_needed = 1, uses_anonymous_args = 0
 550 0000 90B5     		push	{r4, r7, lr}
 551              		.cfi_def_cfa_offset 12
 552              		.cfi_offset 4, -12
 553              		.cfi_offset 7, -8
 554              		.cfi_offset 14, -4
 555 0002 8DB0     		sub	sp, sp, #52
 556              		.cfi_def_cfa_offset 64
 557 0004 02AF     		add	r7, sp, #8
 558              		.cfi_def_cfa 7, 56
 559 0006 F860     		str	r0, [r7, #12]
 560 0008 7A60     		str	r2, [r7, #4]
 561 000a 0A23     		movs	r3, #10
 562 000c FB18     		adds	r3, r7, r3
 563 000e 0A1C     		adds	r2, r1, #0
 564 0010 1A80     		strh	r2, [r3]
 764:..\..\..\..\..\..\Software\uCOS-III\Source/os_mutex.c ****     OS_PEND_LIST  *p_pend_list;
 765:..\..\..\..\..\..\Software\uCOS-III\Source/os_mutex.c ****     OS_TCB        *p_tcb;
 766:..\..\..\..\..\..\Software\uCOS-III\Source/os_mutex.c ****     CPU_TS         ts;
 767:..\..\..\..\..\..\Software\uCOS-III\Source/os_mutex.c ****     OS_PRIO        prio_new;
 768:..\..\..\..\..\..\Software\uCOS-III\Source/os_mutex.c ****     CPU_SR_ALLOC();
 565              		.loc 1 768 0
 566 0012 0023     		movs	r3, #0
 567 0014 7B62     		str	r3, [r7, #36]
 769:..\..\..\..\..\..\Software\uCOS-III\Source/os_mutex.c **** 
 770:..\..\..\..\..\..\Software\uCOS-III\Source/os_mutex.c **** 
 771:..\..\..\..\..\..\Software\uCOS-III\Source/os_mutex.c **** #ifdef OS_SAFETY_CRITICAL
 772:..\..\..\..\..\..\Software\uCOS-III\Source/os_mutex.c ****     if (p_err == DEF_NULL) {
 773:..\..\..\..\..\..\Software\uCOS-III\Source/os_mutex.c ****         OS_SAFETY_CRITICAL_EXCEPTION();
 774:..\..\..\..\..\..\Software\uCOS-III\Source/os_mutex.c ****         return;
 775:..\..\..\..\..\..\Software\uCOS-III\Source/os_mutex.c ****     }
 776:..\..\..\..\..\..\Software\uCOS-III\Source/os_mutex.c **** #endif
 777:..\..\..\..\..\..\Software\uCOS-III\Source/os_mutex.c **** 
 778:..\..\..\..\..\..\Software\uCOS-III\Source/os_mutex.c **** #if (OS_CFG_CALLED_FROM_ISR_CHK_EN == DEF_ENABLED)
 779:..\..\..\..\..\..\Software\uCOS-III\Source/os_mutex.c ****     if (OSIntNestingCtr > 0u) {                                 /* Not allowed to call from an ISR 
 568              		.loc 1 779 0
 569 0016 724B     		ldr	r3, .L53
 570 0018 1B78     		ldrb	r3, [r3]
 571 001a 002B     		cmp	r3, #0
 572 001c 03D0     		beq	.L40
 780:..\..\..\..\..\..\Software\uCOS-III\Source/os_mutex.c **** #if (defined(TRACE_CFG_EN) && (TRACE_CFG_EN == DEF_ENABLED))
 781:..\..\..\..\..\..\Software\uCOS-III\Source/os_mutex.c ****         TRACE_OS_MUTEX_POST_FAILED(p_mutex);                    /* Record the event.               
 782:..\..\..\..\..\..\Software\uCOS-III\Source/os_mutex.c **** #endif
 783:..\..\..\..\..\..\Software\uCOS-III\Source/os_mutex.c ****        *p_err = OS_ERR_POST_ISR;
 573              		.loc 1 783 0
 574 001e 7B68     		ldr	r3, [r7, #4]
 575 0020 704A     		ldr	r2, .L53+4
 576 0022 1A80     		strh	r2, [r3]
 784:..\..\..\..\..\..\Software\uCOS-III\Source/os_mutex.c ****         return;
 577              		.loc 1 784 0
 578 0024 D9E0     		b	.L39
 579              	.L40:
 785:..\..\..\..\..\..\Software\uCOS-III\Source/os_mutex.c ****     }
 786:..\..\..\..\..\..\Software\uCOS-III\Source/os_mutex.c **** #endif
 787:..\..\..\..\..\..\Software\uCOS-III\Source/os_mutex.c **** 
 788:..\..\..\..\..\..\Software\uCOS-III\Source/os_mutex.c **** #if (OS_CFG_INVALID_OS_CALLS_CHK_EN == DEF_ENABLED)             /* Is the kernel running?          
ARM GAS  C:\Users\ADMINI~1\AppData\Local\Temp\ccvQPEdN.s 			page 25


 789:..\..\..\..\..\..\Software\uCOS-III\Source/os_mutex.c ****     if (OSRunning != OS_STATE_OS_RUNNING) {
 790:..\..\..\..\..\..\Software\uCOS-III\Source/os_mutex.c ****        *p_err = OS_ERR_OS_NOT_RUNNING;
 791:..\..\..\..\..\..\Software\uCOS-III\Source/os_mutex.c ****         return;
 792:..\..\..\..\..\..\Software\uCOS-III\Source/os_mutex.c ****     }
 793:..\..\..\..\..\..\Software\uCOS-III\Source/os_mutex.c **** #endif
 794:..\..\..\..\..\..\Software\uCOS-III\Source/os_mutex.c **** 
 795:..\..\..\..\..\..\Software\uCOS-III\Source/os_mutex.c **** #if (OS_CFG_ARG_CHK_EN == DEF_ENABLED)
 796:..\..\..\..\..\..\Software\uCOS-III\Source/os_mutex.c ****     if (p_mutex == DEF_NULL) {                                  /* Validate 'p_mutex'              
 580              		.loc 1 796 0
 581 0026 FB68     		ldr	r3, [r7, #12]
 582 0028 002B     		cmp	r3, #0
 583 002a 03D1     		bne	.L42
 797:..\..\..\..\..\..\Software\uCOS-III\Source/os_mutex.c **** #if (defined(TRACE_CFG_EN) && (TRACE_CFG_EN == DEF_ENABLED))
 798:..\..\..\..\..\..\Software\uCOS-III\Source/os_mutex.c ****         TRACE_OS_MUTEX_POST_FAILED(p_mutex);                    /* Record the event.               
 799:..\..\..\..\..\..\Software\uCOS-III\Source/os_mutex.c **** #endif
 800:..\..\..\..\..\..\Software\uCOS-III\Source/os_mutex.c ****        *p_err = OS_ERR_OBJ_PTR_NULL;
 584              		.loc 1 800 0
 585 002c 7B68     		ldr	r3, [r7, #4]
 586 002e 6E4A     		ldr	r2, .L53+8
 587 0030 1A80     		strh	r2, [r3]
 801:..\..\..\..\..\..\Software\uCOS-III\Source/os_mutex.c ****         return;
 588              		.loc 1 801 0
 589 0032 D2E0     		b	.L39
 590              	.L42:
 802:..\..\..\..\..\..\Software\uCOS-III\Source/os_mutex.c ****     }
 803:..\..\..\..\..\..\Software\uCOS-III\Source/os_mutex.c ****     switch (opt) {                                              /* Validate 'opt'                  
 591              		.loc 1 803 0
 592 0034 0A23     		movs	r3, #10
 593 0036 FB18     		adds	r3, r7, r3
 594 0038 1B88     		ldrh	r3, [r3]
 595 003a 002B     		cmp	r3, #0
 596 003c 07D0     		beq	.L52
 597 003e 8022     		movs	r2, #128
 598 0040 1202     		lsls	r2, r2, #8
 599 0042 9342     		cmp	r3, r2
 600 0044 03D0     		beq	.L52
 804:..\..\..\..\..\..\Software\uCOS-III\Source/os_mutex.c ****         case OS_OPT_POST_NONE:
 805:..\..\..\..\..\..\Software\uCOS-III\Source/os_mutex.c ****         case OS_OPT_POST_NO_SCHED:
 806:..\..\..\..\..\..\Software\uCOS-III\Source/os_mutex.c ****              break;
 807:..\..\..\..\..\..\Software\uCOS-III\Source/os_mutex.c **** 
 808:..\..\..\..\..\..\Software\uCOS-III\Source/os_mutex.c ****         default:
 809:..\..\..\..\..\..\Software\uCOS-III\Source/os_mutex.c **** #if (defined(TRACE_CFG_EN) && (TRACE_CFG_EN == DEF_ENABLED))
 810:..\..\..\..\..\..\Software\uCOS-III\Source/os_mutex.c ****              TRACE_OS_MUTEX_POST_FAILED(p_mutex);               /* Record the event.               
 811:..\..\..\..\..\..\Software\uCOS-III\Source/os_mutex.c **** #endif
 812:..\..\..\..\..\..\Software\uCOS-III\Source/os_mutex.c ****             *p_err =  OS_ERR_OPT_INVALID;
 601              		.loc 1 812 0
 602 0046 7B68     		ldr	r3, [r7, #4]
 603 0048 684A     		ldr	r2, .L53+12
 604 004a 1A80     		strh	r2, [r3]
 813:..\..\..\..\..\..\Software\uCOS-III\Source/os_mutex.c ****              return;
 605              		.loc 1 813 0
 606 004c C5E0     		b	.L39
 607              	.L52:
 806:..\..\..\..\..\..\Software\uCOS-III\Source/os_mutex.c **** 
 608              		.loc 1 806 0
 609 004e C046     		nop
 814:..\..\..\..\..\..\Software\uCOS-III\Source/os_mutex.c ****     }
ARM GAS  C:\Users\ADMINI~1\AppData\Local\Temp\ccvQPEdN.s 			page 26


 815:..\..\..\..\..\..\Software\uCOS-III\Source/os_mutex.c **** #endif
 816:..\..\..\..\..\..\Software\uCOS-III\Source/os_mutex.c **** 
 817:..\..\..\..\..\..\Software\uCOS-III\Source/os_mutex.c **** #if (OS_CFG_OBJ_TYPE_CHK_EN == DEF_ENABLED)
 818:..\..\..\..\..\..\Software\uCOS-III\Source/os_mutex.c ****     if (p_mutex->Type != OS_OBJ_TYPE_MUTEX) {                   /* Make sure mutex was created     
 819:..\..\..\..\..\..\Software\uCOS-III\Source/os_mutex.c **** #if (defined(TRACE_CFG_EN) && (TRACE_CFG_EN == DEF_ENABLED))
 820:..\..\..\..\..\..\Software\uCOS-III\Source/os_mutex.c ****         TRACE_OS_MUTEX_POST_FAILED(p_mutex);                    /* Record the event.               
 821:..\..\..\..\..\..\Software\uCOS-III\Source/os_mutex.c **** #endif
 822:..\..\..\..\..\..\Software\uCOS-III\Source/os_mutex.c ****        *p_err = OS_ERR_OBJ_TYPE;
 823:..\..\..\..\..\..\Software\uCOS-III\Source/os_mutex.c ****         return;
 824:..\..\..\..\..\..\Software\uCOS-III\Source/os_mutex.c ****     }
 825:..\..\..\..\..\..\Software\uCOS-III\Source/os_mutex.c **** #endif
 826:..\..\..\..\..\..\Software\uCOS-III\Source/os_mutex.c **** 
 827:..\..\..\..\..\..\Software\uCOS-III\Source/os_mutex.c ****     CPU_CRITICAL_ENTER();
 610              		.loc 1 827 0
 611 0050 FFF7FEFF 		bl	CPU_SR_Save
 612 0054 0300     		movs	r3, r0
 613 0056 7B62     		str	r3, [r7, #36]
 614 0058 FFF7FEFF 		bl	CPU_IntDisMeasStart
 828:..\..\..\..\..\..\Software\uCOS-III\Source/os_mutex.c ****     if (OSTCBCurPtr != p_mutex->OwnerTCBPtr) {                  /* Make sure the mutex owner is rel
 615              		.loc 1 828 0
 616 005c FB68     		ldr	r3, [r7, #12]
 617 005e 5A6A     		ldr	r2, [r3, #36]
 618 0060 634B     		ldr	r3, .L53+16
 619 0062 1B68     		ldr	r3, [r3]
 620 0064 9A42     		cmp	r2, r3
 621 0066 09D0     		beq	.L46
 829:..\..\..\..\..\..\Software\uCOS-III\Source/os_mutex.c ****         CPU_CRITICAL_EXIT();
 622              		.loc 1 829 0
 623 0068 FFF7FEFF 		bl	CPU_IntDisMeasStop
 624 006c 7B6A     		ldr	r3, [r7, #36]
 625 006e 1800     		movs	r0, r3
 626 0070 FFF7FEFF 		bl	CPU_SR_Restore
 830:..\..\..\..\..\..\Software\uCOS-III\Source/os_mutex.c **** #if (defined(TRACE_CFG_EN) && (TRACE_CFG_EN == DEF_ENABLED))
 831:..\..\..\..\..\..\Software\uCOS-III\Source/os_mutex.c ****         TRACE_OS_MUTEX_POST_FAILED(p_mutex);                    /* Record the event.               
 832:..\..\..\..\..\..\Software\uCOS-III\Source/os_mutex.c **** #endif
 833:..\..\..\..\..\..\Software\uCOS-III\Source/os_mutex.c ****        *p_err = OS_ERR_MUTEX_NOT_OWNER;
 627              		.loc 1 833 0
 628 0074 7B68     		ldr	r3, [r7, #4]
 629 0076 5F4A     		ldr	r2, .L53+20
 630 0078 1A80     		strh	r2, [r3]
 834:..\..\..\..\..\..\Software\uCOS-III\Source/os_mutex.c ****         return;
 631              		.loc 1 834 0
 632 007a AEE0     		b	.L39
 633              	.L46:
 835:..\..\..\..\..\..\Software\uCOS-III\Source/os_mutex.c ****     }
 836:..\..\..\..\..\..\Software\uCOS-III\Source/os_mutex.c **** 
 837:..\..\..\..\..\..\Software\uCOS-III\Source/os_mutex.c **** #if (defined(TRACE_CFG_EN) && (TRACE_CFG_EN == DEF_ENABLED))
 838:..\..\..\..\..\..\Software\uCOS-III\Source/os_mutex.c ****     TRACE_OS_MUTEX_POST(p_mutex);                               /* Record the event.               
 839:..\..\..\..\..\..\Software\uCOS-III\Source/os_mutex.c **** #endif
 840:..\..\..\..\..\..\Software\uCOS-III\Source/os_mutex.c **** 
 841:..\..\..\..\..\..\Software\uCOS-III\Source/os_mutex.c ****     OS_CRITICAL_ENTER_CPU_EXIT();
 842:..\..\..\..\..\..\Software\uCOS-III\Source/os_mutex.c **** #if (OS_CFG_TS_EN == DEF_ENABLED)
 843:..\..\..\..\..\..\Software\uCOS-III\Source/os_mutex.c ****     ts          = OS_TS_GET();                                  /* Get timestamp                   
 634              		.loc 1 843 0
 635 007c FFF7FEFF 		bl	CPU_TS_TmrRd
 636 0080 0300     		movs	r3, r0
 637 0082 3B62     		str	r3, [r7, #32]
ARM GAS  C:\Users\ADMINI~1\AppData\Local\Temp\ccvQPEdN.s 			page 27


 844:..\..\..\..\..\..\Software\uCOS-III\Source/os_mutex.c ****     p_mutex->TS = ts;
 638              		.loc 1 844 0
 639 0084 FB68     		ldr	r3, [r7, #12]
 640 0086 3A6A     		ldr	r2, [r7, #32]
 641 0088 DA62     		str	r2, [r3, #44]
 845:..\..\..\..\..\..\Software\uCOS-III\Source/os_mutex.c **** #else
 846:..\..\..\..\..\..\Software\uCOS-III\Source/os_mutex.c ****     ts          = 0u;
 847:..\..\..\..\..\..\Software\uCOS-III\Source/os_mutex.c **** #endif
 848:..\..\..\..\..\..\Software\uCOS-III\Source/os_mutex.c ****     p_mutex->OwnerNestingCtr--;                                 /* Decrement owner's nesting counte
 642              		.loc 1 848 0
 643 008a FB68     		ldr	r3, [r7, #12]
 644 008c 2822     		movs	r2, #40
 645 008e 9B5C     		ldrb	r3, [r3, r2]
 646 0090 013B     		subs	r3, r3, #1
 647 0092 D9B2     		uxtb	r1, r3
 648 0094 FB68     		ldr	r3, [r7, #12]
 649 0096 2822     		movs	r2, #40
 650 0098 9954     		strb	r1, [r3, r2]
 849:..\..\..\..\..\..\Software\uCOS-III\Source/os_mutex.c ****     if (p_mutex->OwnerNestingCtr > 0u) {                        /* Are we done with all nestings?  
 651              		.loc 1 849 0
 652 009a FB68     		ldr	r3, [r7, #12]
 653 009c 2822     		movs	r2, #40
 654 009e 9B5C     		ldrb	r3, [r3, r2]
 655 00a0 002B     		cmp	r3, #0
 656 00a2 09D0     		beq	.L47
 850:..\..\..\..\..\..\Software\uCOS-III\Source/os_mutex.c ****         OS_CRITICAL_EXIT();                                     /* No                              
 657              		.loc 1 850 0
 658 00a4 FFF7FEFF 		bl	CPU_IntDisMeasStop
 659 00a8 7B6A     		ldr	r3, [r7, #36]
 660 00aa 1800     		movs	r0, r3
 661 00ac FFF7FEFF 		bl	CPU_SR_Restore
 851:..\..\..\..\..\..\Software\uCOS-III\Source/os_mutex.c ****        *p_err = OS_ERR_MUTEX_NESTING;
 662              		.loc 1 851 0
 663 00b0 7B68     		ldr	r3, [r7, #4]
 664 00b2 514A     		ldr	r2, .L53+24
 665 00b4 1A80     		strh	r2, [r3]
 852:..\..\..\..\..\..\Software\uCOS-III\Source/os_mutex.c ****         return;
 666              		.loc 1 852 0
 667 00b6 90E0     		b	.L39
 668              	.L47:
 853:..\..\..\..\..\..\Software\uCOS-III\Source/os_mutex.c ****     }
 854:..\..\..\..\..\..\Software\uCOS-III\Source/os_mutex.c **** 
 855:..\..\..\..\..\..\Software\uCOS-III\Source/os_mutex.c ****     OS_MutexGrpRemove(OSTCBCurPtr, p_mutex);                    /* Remove mutex from owner's group 
 669              		.loc 1 855 0
 670 00b8 4D4B     		ldr	r3, .L53+16
 671 00ba 1B68     		ldr	r3, [r3]
 672 00bc FA68     		ldr	r2, [r7, #12]
 673 00be 1100     		movs	r1, r2
 674 00c0 1800     		movs	r0, r3
 675 00c2 FFF7FEFF 		bl	OS_MutexGrpRemove
 856:..\..\..\..\..\..\Software\uCOS-III\Source/os_mutex.c **** 
 857:..\..\..\..\..\..\Software\uCOS-III\Source/os_mutex.c ****     p_pend_list = &p_mutex->PendList;
 676              		.loc 1 857 0
 677 00c6 FB68     		ldr	r3, [r7, #12]
 678 00c8 0833     		adds	r3, r3, #8
 679 00ca FB61     		str	r3, [r7, #28]
 858:..\..\..\..\..\..\Software\uCOS-III\Source/os_mutex.c ****     if (p_pend_list->HeadPtr == DEF_NULL) {                      /* Any task waiting on mutex?     
ARM GAS  C:\Users\ADMINI~1\AppData\Local\Temp\ccvQPEdN.s 			page 28


 680              		.loc 1 858 0
 681 00cc FB69     		ldr	r3, [r7, #28]
 682 00ce 1B68     		ldr	r3, [r3]
 683 00d0 002B     		cmp	r3, #0
 684 00d2 10D1     		bne	.L48
 859:..\..\..\..\..\..\Software\uCOS-III\Source/os_mutex.c ****         p_mutex->OwnerTCBPtr     = DEF_NULL;                    /* No                              
 685              		.loc 1 859 0
 686 00d4 FB68     		ldr	r3, [r7, #12]
 687 00d6 0022     		movs	r2, #0
 688 00d8 5A62     		str	r2, [r3, #36]
 860:..\..\..\..\..\..\Software\uCOS-III\Source/os_mutex.c ****         p_mutex->OwnerNestingCtr = 0u;
 689              		.loc 1 860 0
 690 00da FB68     		ldr	r3, [r7, #12]
 691 00dc 2822     		movs	r2, #40
 692 00de 0021     		movs	r1, #0
 693 00e0 9954     		strb	r1, [r3, r2]
 861:..\..\..\..\..\..\Software\uCOS-III\Source/os_mutex.c ****         OS_CRITICAL_EXIT();
 694              		.loc 1 861 0
 695 00e2 FFF7FEFF 		bl	CPU_IntDisMeasStop
 696 00e6 7B6A     		ldr	r3, [r7, #36]
 697 00e8 1800     		movs	r0, r3
 698 00ea FFF7FEFF 		bl	CPU_SR_Restore
 862:..\..\..\..\..\..\Software\uCOS-III\Source/os_mutex.c ****        *p_err = OS_ERR_NONE;
 699              		.loc 1 862 0
 700 00ee 7B68     		ldr	r3, [r7, #4]
 701 00f0 0022     		movs	r2, #0
 702 00f2 1A80     		strh	r2, [r3]
 863:..\..\..\..\..\..\Software\uCOS-III\Source/os_mutex.c ****         return;
 703              		.loc 1 863 0
 704 00f4 71E0     		b	.L39
 705              	.L48:
 864:..\..\..\..\..\..\Software\uCOS-III\Source/os_mutex.c ****     }
 865:..\..\..\..\..\..\Software\uCOS-III\Source/os_mutex.c ****                                                                 /* Yes                             
 866:..\..\..\..\..\..\Software\uCOS-III\Source/os_mutex.c ****     if (OSTCBCurPtr->Prio != OSTCBCurPtr->BasePrio) {           /* Has owner inherited a priority? 
 706              		.loc 1 866 0
 707 00f6 3E4B     		ldr	r3, .L53+16
 708 00f8 1B68     		ldr	r3, [r3]
 709 00fa 3722     		movs	r2, #55
 710 00fc 9A5C     		ldrb	r2, [r3, r2]
 711 00fe 3C4B     		ldr	r3, .L53+16
 712 0100 1B68     		ldr	r3, [r3]
 713 0102 3821     		movs	r1, #56
 714 0104 5B5C     		ldrb	r3, [r3, r1]
 715 0106 9A42     		cmp	r2, r3
 716 0108 3DD0     		beq	.L49
 867:..\..\..\..\..\..\Software\uCOS-III\Source/os_mutex.c ****         prio_new = OS_MutexGrpPrioFindHighest(OSTCBCurPtr);     /* Yes, find highest priority pendi
 717              		.loc 1 867 0
 718 010a 394B     		ldr	r3, .L53+16
 719 010c 1B68     		ldr	r3, [r3]
 720 010e 1B22     		movs	r2, #27
 721 0110 BC18     		adds	r4, r7, r2
 722 0112 1800     		movs	r0, r3
 723 0114 FFF7FEFF 		bl	OS_MutexGrpPrioFindHighest
 724 0118 0300     		movs	r3, r0
 725 011a 2370     		strb	r3, [r4]
 868:..\..\..\..\..\..\Software\uCOS-III\Source/os_mutex.c ****         prio_new = prio_new > OSTCBCurPtr->BasePrio ? OSTCBCurPtr->BasePrio : prio_new;
 726              		.loc 1 868 0
ARM GAS  C:\Users\ADMINI~1\AppData\Local\Temp\ccvQPEdN.s 			page 29


 727 011c 344B     		ldr	r3, .L53+16
 728 011e 1B68     		ldr	r3, [r3]
 729 0120 3822     		movs	r2, #56
 730 0122 995C     		ldrb	r1, [r3, r2]
 731 0124 1B23     		movs	r3, #27
 732 0126 FA18     		adds	r2, r7, r3
 733 0128 1B23     		movs	r3, #27
 734 012a FB18     		adds	r3, r7, r3
 735 012c 1C78     		ldrb	r4, [r3]
 736 012e 0B1C     		adds	r3, r1, #0
 737 0130 D8B2     		uxtb	r0, r3
 738 0132 E1B2     		uxtb	r1, r4
 739 0134 8842     		cmp	r0, r1
 740 0136 00D9     		bls	.L50
 741 0138 231C     		adds	r3, r4, #0
 742              	.L50:
 743 013a 1370     		strb	r3, [r2]
 869:..\..\..\..\..\..\Software\uCOS-III\Source/os_mutex.c ****         if (prio_new > OSTCBCurPtr->Prio) {
 744              		.loc 1 869 0
 745 013c 2C4B     		ldr	r3, .L53+16
 746 013e 1B68     		ldr	r3, [r3]
 747 0140 3722     		movs	r2, #55
 748 0142 9B5C     		ldrb	r3, [r3, r2]
 749 0144 1B22     		movs	r2, #27
 750 0146 BA18     		adds	r2, r7, r2
 751 0148 1278     		ldrb	r2, [r2]
 752 014a 9A42     		cmp	r2, r3
 753 014c 1BD9     		bls	.L49
 870:..\..\..\..\..\..\Software\uCOS-III\Source/os_mutex.c ****             OS_RdyListRemove(OSTCBCurPtr);
 754              		.loc 1 870 0
 755 014e 284B     		ldr	r3, .L53+16
 756 0150 1B68     		ldr	r3, [r3]
 757 0152 1800     		movs	r0, r3
 758 0154 FFF7FEFF 		bl	OS_RdyListRemove
 871:..\..\..\..\..\..\Software\uCOS-III\Source/os_mutex.c ****             OSTCBCurPtr->Prio = prio_new;                       /* Lower owner's priority back to i
 759              		.loc 1 871 0
 760 0158 254B     		ldr	r3, .L53+16
 761 015a 1B68     		ldr	r3, [r3]
 762 015c 1B22     		movs	r2, #27
 763 015e BA18     		adds	r2, r7, r2
 764 0160 3721     		movs	r1, #55
 765 0162 1278     		ldrb	r2, [r2]
 766 0164 5A54     		strb	r2, [r3, r1]
 872:..\..\..\..\..\..\Software\uCOS-III\Source/os_mutex.c **** #if (defined(TRACE_CFG_EN) && (TRACE_CFG_EN == DEF_ENABLED))
 873:..\..\..\..\..\..\Software\uCOS-III\Source/os_mutex.c ****             TRACE_OS_MUTEX_TASK_PRIO_DISINHERIT(OSTCBCurPtr, prio_new);
 874:..\..\..\..\..\..\Software\uCOS-III\Source/os_mutex.c **** #endif
 875:..\..\..\..\..\..\Software\uCOS-III\Source/os_mutex.c ****             OS_PrioInsert(prio_new);
 767              		.loc 1 875 0
 768 0166 1B23     		movs	r3, #27
 769 0168 FB18     		adds	r3, r7, r3
 770 016a 1B78     		ldrb	r3, [r3]
 771 016c 1800     		movs	r0, r3
 772 016e FFF7FEFF 		bl	OS_PrioInsert
 876:..\..\..\..\..\..\Software\uCOS-III\Source/os_mutex.c ****             OS_RdyListInsertTail(OSTCBCurPtr);                  /* Insert owner in ready list at ne
 773              		.loc 1 876 0
 774 0172 1F4B     		ldr	r3, .L53+16
 775 0174 1B68     		ldr	r3, [r3]
ARM GAS  C:\Users\ADMINI~1\AppData\Local\Temp\ccvQPEdN.s 			page 30


 776 0176 1800     		movs	r0, r3
 777 0178 FFF7FEFF 		bl	OS_RdyListInsertTail
 877:..\..\..\..\..\..\Software\uCOS-III\Source/os_mutex.c ****             OSPrioCur         = prio_new;
 778              		.loc 1 877 0
 779 017c 1F4B     		ldr	r3, .L53+28
 780 017e 1B22     		movs	r2, #27
 781 0180 BA18     		adds	r2, r7, r2
 782 0182 1278     		ldrb	r2, [r2]
 783 0184 1A70     		strb	r2, [r3]
 784              	.L49:
 878:..\..\..\..\..\..\Software\uCOS-III\Source/os_mutex.c ****         }
 879:..\..\..\..\..\..\Software\uCOS-III\Source/os_mutex.c ****     }
 880:..\..\..\..\..\..\Software\uCOS-III\Source/os_mutex.c ****                                                                 /* Get TCB from head of pend list  
 881:..\..\..\..\..\..\Software\uCOS-III\Source/os_mutex.c ****     p_tcb                      = p_pend_list->HeadPtr->TCBPtr;
 785              		.loc 1 881 0
 786 0186 FB69     		ldr	r3, [r7, #28]
 787 0188 1B68     		ldr	r3, [r3]
 788 018a 9B68     		ldr	r3, [r3, #8]
 789 018c 7B61     		str	r3, [r7, #20]
 882:..\..\..\..\..\..\Software\uCOS-III\Source/os_mutex.c ****     p_mutex->OwnerTCBPtr       = p_tcb;                         /* Give mutex to new owner         
 790              		.loc 1 882 0
 791 018e FB68     		ldr	r3, [r7, #12]
 792 0190 7A69     		ldr	r2, [r7, #20]
 793 0192 5A62     		str	r2, [r3, #36]
 883:..\..\..\..\..\..\Software\uCOS-III\Source/os_mutex.c ****     p_mutex->OwnerNestingCtr   = 1u;
 794              		.loc 1 883 0
 795 0194 FB68     		ldr	r3, [r7, #12]
 796 0196 2822     		movs	r2, #40
 797 0198 0121     		movs	r1, #1
 798 019a 9954     		strb	r1, [r3, r2]
 884:..\..\..\..\..\..\Software\uCOS-III\Source/os_mutex.c ****     OS_MutexGrpAdd(p_tcb, p_mutex);
 799              		.loc 1 884 0
 800 019c FA68     		ldr	r2, [r7, #12]
 801 019e 7B69     		ldr	r3, [r7, #20]
 802 01a0 1100     		movs	r1, r2
 803 01a2 1800     		movs	r0, r3
 804 01a4 FFF7FEFF 		bl	OS_MutexGrpAdd
 885:..\..\..\..\..\..\Software\uCOS-III\Source/os_mutex.c ****                                                                 /* Post to mutex                   
 886:..\..\..\..\..\..\Software\uCOS-III\Source/os_mutex.c ****     OS_Post((OS_PEND_OBJ *)((void *)p_mutex),
 805              		.loc 1 886 0
 806 01a8 7969     		ldr	r1, [r7, #20]
 807 01aa F868     		ldr	r0, [r7, #12]
 808 01ac 3B6A     		ldr	r3, [r7, #32]
 809 01ae 0093     		str	r3, [sp]
 810 01b0 0023     		movs	r3, #0
 811 01b2 0022     		movs	r2, #0
 812 01b4 FFF7FEFF 		bl	OS_Post
 887:..\..\..\..\..\..\Software\uCOS-III\Source/os_mutex.c ****             p_tcb,
 888:..\..\..\..\..\..\Software\uCOS-III\Source/os_mutex.c ****             DEF_NULL,
 889:..\..\..\..\..\..\Software\uCOS-III\Source/os_mutex.c ****             0u,
 890:..\..\..\..\..\..\Software\uCOS-III\Source/os_mutex.c ****             ts);
 891:..\..\..\..\..\..\Software\uCOS-III\Source/os_mutex.c **** 
 892:..\..\..\..\..\..\Software\uCOS-III\Source/os_mutex.c ****     OS_CRITICAL_EXIT_NO_SCHED();
 813              		.loc 1 892 0
 814 01b8 FFF7FEFF 		bl	CPU_IntDisMeasStop
 815 01bc 7B6A     		ldr	r3, [r7, #36]
 816 01be 1800     		movs	r0, r3
ARM GAS  C:\Users\ADMINI~1\AppData\Local\Temp\ccvQPEdN.s 			page 31


 817 01c0 FFF7FEFF 		bl	CPU_SR_Restore
 893:..\..\..\..\..\..\Software\uCOS-III\Source/os_mutex.c **** 
 894:..\..\..\..\..\..\Software\uCOS-III\Source/os_mutex.c ****     if ((opt & OS_OPT_POST_NO_SCHED) == 0u) {
 818              		.loc 1 894 0
 819 01c4 0A23     		movs	r3, #10
 820 01c6 FB18     		adds	r3, r7, r3
 821 01c8 0022     		movs	r2, #0
 822 01ca 9B5E     		ldrsh	r3, [r3, r2]
 823 01cc 002B     		cmp	r3, #0
 824 01ce 01DB     		blt	.L51
 895:..\..\..\..\..\..\Software\uCOS-III\Source/os_mutex.c ****         OSSched();                                              /* Run the scheduler               
 825              		.loc 1 895 0
 826 01d0 FFF7FEFF 		bl	OSSched
 827              	.L51:
 896:..\..\..\..\..\..\Software\uCOS-III\Source/os_mutex.c ****     }
 897:..\..\..\..\..\..\Software\uCOS-III\Source/os_mutex.c **** 
 898:..\..\..\..\..\..\Software\uCOS-III\Source/os_mutex.c ****    *p_err = OS_ERR_NONE;
 828              		.loc 1 898 0
 829 01d4 7B68     		ldr	r3, [r7, #4]
 830 01d6 0022     		movs	r2, #0
 831 01d8 1A80     		strh	r2, [r3]
 832              	.L39:
 899:..\..\..\..\..\..\Software\uCOS-III\Source/os_mutex.c **** }
 833              		.loc 1 899 0
 834 01da BD46     		mov	sp, r7
 835 01dc 0BB0     		add	sp, sp, #44
 836              		@ sp needed
 837 01de 90BD     		pop	{r4, r7, pc}
 838              	.L54:
 839              		.align	2
 840              	.L53:
 841 01e0 00000000 		.word	OSIntNestingCtr
 842 01e4 0E620000 		.word	25102
 843 01e8 C35D0000 		.word	24003
 844 01ec 255E0000 		.word	24101
 845 01f0 00000000 		.word	OSTCBCurPtr
 846 01f4 81570000 		.word	22401
 847 01f8 83570000 		.word	22403
 848 01fc 00000000 		.word	OSPrioCur
 849              		.cfi_endproc
 850              	.LFE2:
 851              		.size	OSMutexPost, .-OSMutexPost
 852              		.section	.rodata
 853              		.align	2
 854              	.LC8:
 855 0000 3F4D5554 		.ascii	"?MUTEX\000"
 855      455800
 856              		.section	.text.OS_MutexClr,"ax",%progbits
 857              		.align	2
 858              		.global	OS_MutexClr
 859              		.code	16
 860              		.thumb_func
 861              		.type	OS_MutexClr, %function
 862              	OS_MutexClr:
 863              	.LFB3:
 900:..\..\..\..\..\..\Software\uCOS-III\Source/os_mutex.c **** 
 901:..\..\..\..\..\..\Software\uCOS-III\Source/os_mutex.c **** 
ARM GAS  C:\Users\ADMINI~1\AppData\Local\Temp\ccvQPEdN.s 			page 32


 902:..\..\..\..\..\..\Software\uCOS-III\Source/os_mutex.c **** /*
 903:..\..\..\..\..\..\Software\uCOS-III\Source/os_mutex.c **** ***************************************************************************************************
 904:..\..\..\..\..\..\Software\uCOS-III\Source/os_mutex.c **** *                                            CLEAR THE CONTENTS OF A MUTEX
 905:..\..\..\..\..\..\Software\uCOS-III\Source/os_mutex.c **** *
 906:..\..\..\..\..\..\Software\uCOS-III\Source/os_mutex.c **** * Description: This function is called by OSMutexDel() to clear the contents of a mutex
 907:..\..\..\..\..\..\Software\uCOS-III\Source/os_mutex.c **** *
 908:..\..\..\..\..\..\Software\uCOS-III\Source/os_mutex.c **** 
 909:..\..\..\..\..\..\Software\uCOS-III\Source/os_mutex.c **** * Argument(s): p_mutex      is a pointer to the mutex to clear
 910:..\..\..\..\..\..\Software\uCOS-III\Source/os_mutex.c **** *              -------
 911:..\..\..\..\..\..\Software\uCOS-III\Source/os_mutex.c **** *
 912:..\..\..\..\..\..\Software\uCOS-III\Source/os_mutex.c **** * Returns    : none
 913:..\..\..\..\..\..\Software\uCOS-III\Source/os_mutex.c **** *
 914:..\..\..\..\..\..\Software\uCOS-III\Source/os_mutex.c **** * Note(s)    : This function is INTERNAL to uC/OS-III and your application should not call it.
 915:..\..\..\..\..\..\Software\uCOS-III\Source/os_mutex.c **** ***************************************************************************************************
 916:..\..\..\..\..\..\Software\uCOS-III\Source/os_mutex.c **** */
 917:..\..\..\..\..\..\Software\uCOS-III\Source/os_mutex.c **** 
 918:..\..\..\..\..\..\Software\uCOS-III\Source/os_mutex.c **** void  OS_MutexClr (OS_MUTEX  *p_mutex)
 919:..\..\..\..\..\..\Software\uCOS-III\Source/os_mutex.c **** {
 864              		.loc 1 919 0
 865              		.cfi_startproc
 866              		@ args = 0, pretend = 0, frame = 8
 867              		@ frame_needed = 1, uses_anonymous_args = 0
 868 0000 80B5     		push	{r7, lr}
 869              		.cfi_def_cfa_offset 8
 870              		.cfi_offset 7, -8
 871              		.cfi_offset 14, -4
 872 0002 82B0     		sub	sp, sp, #8
 873              		.cfi_def_cfa_offset 16
 874 0004 00AF     		add	r7, sp, #0
 875              		.cfi_def_cfa_register 7
 876 0006 7860     		str	r0, [r7, #4]
 920:..\..\..\..\..\..\Software\uCOS-III\Source/os_mutex.c **** #if (OS_OBJ_TYPE_REQ == DEF_ENABLED)
 921:..\..\..\..\..\..\Software\uCOS-III\Source/os_mutex.c ****     p_mutex->Type              =  OS_OBJ_TYPE_NONE;             /* Mark the data structure as a NON
 877              		.loc 1 921 0
 878 0008 7B68     		ldr	r3, [r7, #4]
 879 000a 0D4A     		ldr	r2, .L56
 880 000c 1A60     		str	r2, [r3]
 922:..\..\..\..\..\..\Software\uCOS-III\Source/os_mutex.c **** #endif
 923:..\..\..\..\..\..\Software\uCOS-III\Source/os_mutex.c **** #if (OS_CFG_DBG_EN == DEF_ENABLED)
 924:..\..\..\..\..\..\Software\uCOS-III\Source/os_mutex.c ****     p_mutex->NamePtr           = (CPU_CHAR *)((void *)"?MUTEX");
 881              		.loc 1 924 0
 882 000e 7B68     		ldr	r3, [r7, #4]
 883 0010 0C4A     		ldr	r2, .L56+4
 884 0012 5A60     		str	r2, [r3, #4]
 925:..\..\..\..\..\..\Software\uCOS-III\Source/os_mutex.c **** #endif
 926:..\..\..\..\..\..\Software\uCOS-III\Source/os_mutex.c ****     p_mutex->MutexGrpNextPtr   = DEF_NULL;
 885              		.loc 1 926 0
 886 0014 7B68     		ldr	r3, [r7, #4]
 887 0016 0022     		movs	r2, #0
 888 0018 1A62     		str	r2, [r3, #32]
 927:..\..\..\..\..\..\Software\uCOS-III\Source/os_mutex.c ****     p_mutex->OwnerTCBPtr       = DEF_NULL;
 889              		.loc 1 927 0
 890 001a 7B68     		ldr	r3, [r7, #4]
 891 001c 0022     		movs	r2, #0
 892 001e 5A62     		str	r2, [r3, #36]
 928:..\..\..\..\..\..\Software\uCOS-III\Source/os_mutex.c ****     p_mutex->OwnerNestingCtr   = 0u;
 893              		.loc 1 928 0
ARM GAS  C:\Users\ADMINI~1\AppData\Local\Temp\ccvQPEdN.s 			page 33


 894 0020 7B68     		ldr	r3, [r7, #4]
 895 0022 2822     		movs	r2, #40
 896 0024 0021     		movs	r1, #0
 897 0026 9954     		strb	r1, [r3, r2]
 929:..\..\..\..\..\..\Software\uCOS-III\Source/os_mutex.c **** #if (OS_CFG_TS_EN == DEF_ENABLED)
 930:..\..\..\..\..\..\Software\uCOS-III\Source/os_mutex.c ****     p_mutex->TS                = 0u;
 898              		.loc 1 930 0
 899 0028 7B68     		ldr	r3, [r7, #4]
 900 002a 0022     		movs	r2, #0
 901 002c DA62     		str	r2, [r3, #44]
 931:..\..\..\..\..\..\Software\uCOS-III\Source/os_mutex.c **** #endif
 932:..\..\..\..\..\..\Software\uCOS-III\Source/os_mutex.c ****     OS_PendListInit(&p_mutex->PendList);                        /* Initialize the waiting list     
 902              		.loc 1 932 0
 903 002e 7B68     		ldr	r3, [r7, #4]
 904 0030 0833     		adds	r3, r3, #8
 905 0032 1800     		movs	r0, r3
 906 0034 FFF7FEFF 		bl	OS_PendListInit
 933:..\..\..\..\..\..\Software\uCOS-III\Source/os_mutex.c **** }
 907              		.loc 1 933 0
 908 0038 C046     		nop
 909 003a BD46     		mov	sp, r7
 910 003c 02B0     		add	sp, sp, #8
 911              		@ sp needed
 912 003e 80BD     		pop	{r7, pc}
 913              	.L57:
 914              		.align	2
 915              	.L56:
 916 0040 4E4F4E45 		.word	1162760014
 917 0044 00000000 		.word	.LC8
 918              		.cfi_endproc
 919              	.LFE3:
 920              		.size	OS_MutexClr, .-OS_MutexClr
 921              		.section	.rodata
 922 0007 00       		.align	2
 923              	.LC10:
 924 0008 2000     		.ascii	" \000"
 925              		.section	.text.OS_MutexDbgListAdd,"ax",%progbits
 926              		.align	2
 927              		.global	OS_MutexDbgListAdd
 928              		.code	16
 929              		.thumb_func
 930              		.type	OS_MutexDbgListAdd, %function
 931              	OS_MutexDbgListAdd:
 932              	.LFB4:
 934:..\..\..\..\..\..\Software\uCOS-III\Source/os_mutex.c **** 
 935:..\..\..\..\..\..\Software\uCOS-III\Source/os_mutex.c **** 
 936:..\..\..\..\..\..\Software\uCOS-III\Source/os_mutex.c **** /*
 937:..\..\..\..\..\..\Software\uCOS-III\Source/os_mutex.c **** ***************************************************************************************************
 938:..\..\..\..\..\..\Software\uCOS-III\Source/os_mutex.c **** *                                          ADD/REMOVE MUTEX TO/FROM DEBUG LIST
 939:..\..\..\..\..\..\Software\uCOS-III\Source/os_mutex.c **** *
 940:..\..\..\..\..\..\Software\uCOS-III\Source/os_mutex.c **** * Description: These functions are called by uC/OS-III to add or remove a mutex to/from the debug l
 941:..\..\..\..\..\..\Software\uCOS-III\Source/os_mutex.c **** *
 942:..\..\..\..\..\..\Software\uCOS-III\Source/os_mutex.c **** * Arguments  : p_mutex     is a pointer to the mutex to add/remove
 943:..\..\..\..\..\..\Software\uCOS-III\Source/os_mutex.c **** *
 944:..\..\..\..\..\..\Software\uCOS-III\Source/os_mutex.c **** * Returns    : none
 945:..\..\..\..\..\..\Software\uCOS-III\Source/os_mutex.c **** *
 946:..\..\..\..\..\..\Software\uCOS-III\Source/os_mutex.c **** * Note(s)    : These functions are INTERNAL to uC/OS-III and your application should not call it.
ARM GAS  C:\Users\ADMINI~1\AppData\Local\Temp\ccvQPEdN.s 			page 34


 947:..\..\..\..\..\..\Software\uCOS-III\Source/os_mutex.c **** ***************************************************************************************************
 948:..\..\..\..\..\..\Software\uCOS-III\Source/os_mutex.c **** */
 949:..\..\..\..\..\..\Software\uCOS-III\Source/os_mutex.c **** 
 950:..\..\..\..\..\..\Software\uCOS-III\Source/os_mutex.c **** 
 951:..\..\..\..\..\..\Software\uCOS-III\Source/os_mutex.c **** #if (OS_CFG_DBG_EN == DEF_ENABLED)
 952:..\..\..\..\..\..\Software\uCOS-III\Source/os_mutex.c **** void  OS_MutexDbgListAdd (OS_MUTEX  *p_mutex)
 953:..\..\..\..\..\..\Software\uCOS-III\Source/os_mutex.c **** {
 933              		.loc 1 953 0
 934              		.cfi_startproc
 935              		@ args = 0, pretend = 0, frame = 8
 936              		@ frame_needed = 1, uses_anonymous_args = 0
 937 0000 80B5     		push	{r7, lr}
 938              		.cfi_def_cfa_offset 8
 939              		.cfi_offset 7, -8
 940              		.cfi_offset 14, -4
 941 0002 82B0     		sub	sp, sp, #8
 942              		.cfi_def_cfa_offset 16
 943 0004 00AF     		add	r7, sp, #0
 944              		.cfi_def_cfa_register 7
 945 0006 7860     		str	r0, [r7, #4]
 954:..\..\..\..\..\..\Software\uCOS-III\Source/os_mutex.c ****     p_mutex->DbgNamePtr               = (CPU_CHAR *)((void *)" ");
 946              		.loc 1 954 0
 947 0008 7B68     		ldr	r3, [r7, #4]
 948 000a 0E4A     		ldr	r2, .L61
 949 000c DA61     		str	r2, [r3, #28]
 955:..\..\..\..\..\..\Software\uCOS-III\Source/os_mutex.c ****     p_mutex->DbgPrevPtr               = DEF_NULL;
 950              		.loc 1 955 0
 951 000e 7B68     		ldr	r3, [r7, #4]
 952 0010 0022     		movs	r2, #0
 953 0012 5A61     		str	r2, [r3, #20]
 956:..\..\..\..\..\..\Software\uCOS-III\Source/os_mutex.c ****     if (OSMutexDbgListPtr == DEF_NULL) {
 954              		.loc 1 956 0
 955 0014 0C4B     		ldr	r3, .L61+4
 956 0016 1B68     		ldr	r3, [r3]
 957 0018 002B     		cmp	r3, #0
 958 001a 03D1     		bne	.L59
 957:..\..\..\..\..\..\Software\uCOS-III\Source/os_mutex.c ****         p_mutex->DbgNextPtr           = DEF_NULL;
 959              		.loc 1 957 0
 960 001c 7B68     		ldr	r3, [r7, #4]
 961 001e 0022     		movs	r2, #0
 962 0020 9A61     		str	r2, [r3, #24]
 963 0022 07E0     		b	.L60
 964              	.L59:
 958:..\..\..\..\..\..\Software\uCOS-III\Source/os_mutex.c ****     } else {
 959:..\..\..\..\..\..\Software\uCOS-III\Source/os_mutex.c ****         p_mutex->DbgNextPtr           =  OSMutexDbgListPtr;
 965              		.loc 1 959 0
 966 0024 084B     		ldr	r3, .L61+4
 967 0026 1A68     		ldr	r2, [r3]
 968 0028 7B68     		ldr	r3, [r7, #4]
 969 002a 9A61     		str	r2, [r3, #24]
 960:..\..\..\..\..\..\Software\uCOS-III\Source/os_mutex.c ****         OSMutexDbgListPtr->DbgPrevPtr =  p_mutex;
 970              		.loc 1 960 0
 971 002c 064B     		ldr	r3, .L61+4
 972 002e 1B68     		ldr	r3, [r3]
 973 0030 7A68     		ldr	r2, [r7, #4]
 974 0032 5A61     		str	r2, [r3, #20]
 975              	.L60:
ARM GAS  C:\Users\ADMINI~1\AppData\Local\Temp\ccvQPEdN.s 			page 35


 961:..\..\..\..\..\..\Software\uCOS-III\Source/os_mutex.c ****     }
 962:..\..\..\..\..\..\Software\uCOS-III\Source/os_mutex.c ****     OSMutexDbgListPtr                 =  p_mutex;
 976              		.loc 1 962 0
 977 0034 044B     		ldr	r3, .L61+4
 978 0036 7A68     		ldr	r2, [r7, #4]
 979 0038 1A60     		str	r2, [r3]
 963:..\..\..\..\..\..\Software\uCOS-III\Source/os_mutex.c **** }
 980              		.loc 1 963 0
 981 003a C046     		nop
 982 003c BD46     		mov	sp, r7
 983 003e 02B0     		add	sp, sp, #8
 984              		@ sp needed
 985 0040 80BD     		pop	{r7, pc}
 986              	.L62:
 987 0042 C046     		.align	2
 988              	.L61:
 989 0044 08000000 		.word	.LC10
 990 0048 00000000 		.word	OSMutexDbgListPtr
 991              		.cfi_endproc
 992              	.LFE4:
 993              		.size	OS_MutexDbgListAdd, .-OS_MutexDbgListAdd
 994              		.section	.text.OS_MutexDbgListRemove,"ax",%progbits
 995              		.align	2
 996              		.global	OS_MutexDbgListRemove
 997              		.code	16
 998              		.thumb_func
 999              		.type	OS_MutexDbgListRemove, %function
 1000              	OS_MutexDbgListRemove:
 1001              	.LFB5:
 964:..\..\..\..\..\..\Software\uCOS-III\Source/os_mutex.c **** 
 965:..\..\..\..\..\..\Software\uCOS-III\Source/os_mutex.c **** 
 966:..\..\..\..\..\..\Software\uCOS-III\Source/os_mutex.c **** 
 967:..\..\..\..\..\..\Software\uCOS-III\Source/os_mutex.c **** void  OS_MutexDbgListRemove (OS_MUTEX  *p_mutex)
 968:..\..\..\..\..\..\Software\uCOS-III\Source/os_mutex.c **** {
 1002              		.loc 1 968 0
 1003              		.cfi_startproc
 1004              		@ args = 0, pretend = 0, frame = 16
 1005              		@ frame_needed = 1, uses_anonymous_args = 0
 1006 0000 80B5     		push	{r7, lr}
 1007              		.cfi_def_cfa_offset 8
 1008              		.cfi_offset 7, -8
 1009              		.cfi_offset 14, -4
 1010 0002 84B0     		sub	sp, sp, #16
 1011              		.cfi_def_cfa_offset 24
 1012 0004 00AF     		add	r7, sp, #0
 1013              		.cfi_def_cfa_register 7
 1014 0006 7860     		str	r0, [r7, #4]
 969:..\..\..\..\..\..\Software\uCOS-III\Source/os_mutex.c ****     OS_MUTEX  *p_mutex_next;
 970:..\..\..\..\..\..\Software\uCOS-III\Source/os_mutex.c ****     OS_MUTEX  *p_mutex_prev;
 971:..\..\..\..\..\..\Software\uCOS-III\Source/os_mutex.c **** 
 972:..\..\..\..\..\..\Software\uCOS-III\Source/os_mutex.c **** 
 973:..\..\..\..\..\..\Software\uCOS-III\Source/os_mutex.c ****     p_mutex_prev = p_mutex->DbgPrevPtr;
 1015              		.loc 1 973 0
 1016 0008 7B68     		ldr	r3, [r7, #4]
 1017 000a 5B69     		ldr	r3, [r3, #20]
 1018 000c FB60     		str	r3, [r7, #12]
 974:..\..\..\..\..\..\Software\uCOS-III\Source/os_mutex.c ****     p_mutex_next = p_mutex->DbgNextPtr;
ARM GAS  C:\Users\ADMINI~1\AppData\Local\Temp\ccvQPEdN.s 			page 36


 1019              		.loc 1 974 0
 1020 000e 7B68     		ldr	r3, [r7, #4]
 1021 0010 9B69     		ldr	r3, [r3, #24]
 1022 0012 BB60     		str	r3, [r7, #8]
 975:..\..\..\..\..\..\Software\uCOS-III\Source/os_mutex.c **** 
 976:..\..\..\..\..\..\Software\uCOS-III\Source/os_mutex.c ****     if (p_mutex_prev == DEF_NULL) {
 1023              		.loc 1 976 0
 1024 0014 FB68     		ldr	r3, [r7, #12]
 1025 0016 002B     		cmp	r3, #0
 1026 0018 0CD1     		bne	.L64
 977:..\..\..\..\..\..\Software\uCOS-III\Source/os_mutex.c ****         OSMutexDbgListPtr = p_mutex_next;
 1027              		.loc 1 977 0
 1028 001a 134B     		ldr	r3, .L69
 1029 001c BA68     		ldr	r2, [r7, #8]
 1030 001e 1A60     		str	r2, [r3]
 978:..\..\..\..\..\..\Software\uCOS-III\Source/os_mutex.c ****         if (p_mutex_next != DEF_NULL) {
 1031              		.loc 1 978 0
 1032 0020 BB68     		ldr	r3, [r7, #8]
 1033 0022 002B     		cmp	r3, #0
 1034 0024 02D0     		beq	.L65
 979:..\..\..\..\..\..\Software\uCOS-III\Source/os_mutex.c ****             p_mutex_next->DbgPrevPtr = DEF_NULL;
 1035              		.loc 1 979 0
 1036 0026 BB68     		ldr	r3, [r7, #8]
 1037 0028 0022     		movs	r2, #0
 1038 002a 5A61     		str	r2, [r3, #20]
 1039              	.L65:
 980:..\..\..\..\..\..\Software\uCOS-III\Source/os_mutex.c ****         }
 981:..\..\..\..\..\..\Software\uCOS-III\Source/os_mutex.c ****         p_mutex->DbgNextPtr = DEF_NULL;
 1040              		.loc 1 981 0
 1041 002c 7B68     		ldr	r3, [r7, #4]
 1042 002e 0022     		movs	r2, #0
 1043 0030 9A61     		str	r2, [r3, #24]
 982:..\..\..\..\..\..\Software\uCOS-III\Source/os_mutex.c **** 
 983:..\..\..\..\..\..\Software\uCOS-III\Source/os_mutex.c ****     } else if (p_mutex_next == DEF_NULL) {
 984:..\..\..\..\..\..\Software\uCOS-III\Source/os_mutex.c ****         p_mutex_prev->DbgNextPtr = DEF_NULL;
 985:..\..\..\..\..\..\Software\uCOS-III\Source/os_mutex.c ****         p_mutex->DbgPrevPtr      = DEF_NULL;
 986:..\..\..\..\..\..\Software\uCOS-III\Source/os_mutex.c **** 
 987:..\..\..\..\..\..\Software\uCOS-III\Source/os_mutex.c ****     } else {
 988:..\..\..\..\..\..\Software\uCOS-III\Source/os_mutex.c ****         p_mutex_prev->DbgNextPtr =  p_mutex_next;
 989:..\..\..\..\..\..\Software\uCOS-III\Source/os_mutex.c ****         p_mutex_next->DbgPrevPtr =  p_mutex_prev;
 990:..\..\..\..\..\..\Software\uCOS-III\Source/os_mutex.c ****         p_mutex->DbgNextPtr      = DEF_NULL;
 991:..\..\..\..\..\..\Software\uCOS-III\Source/os_mutex.c ****         p_mutex->DbgPrevPtr      = DEF_NULL;
 992:..\..\..\..\..\..\Software\uCOS-III\Source/os_mutex.c ****     }
 993:..\..\..\..\..\..\Software\uCOS-III\Source/os_mutex.c **** }
 1044              		.loc 1 993 0
 1045 0032 15E0     		b	.L68
 1046              	.L64:
 983:..\..\..\..\..\..\Software\uCOS-III\Source/os_mutex.c ****         p_mutex_prev->DbgNextPtr = DEF_NULL;
 1047              		.loc 1 983 0
 1048 0034 BB68     		ldr	r3, [r7, #8]
 1049 0036 002B     		cmp	r3, #0
 1050 0038 06D1     		bne	.L67
 984:..\..\..\..\..\..\Software\uCOS-III\Source/os_mutex.c ****         p_mutex->DbgPrevPtr      = DEF_NULL;
 1051              		.loc 1 984 0
 1052 003a FB68     		ldr	r3, [r7, #12]
 1053 003c 0022     		movs	r2, #0
 1054 003e 9A61     		str	r2, [r3, #24]
ARM GAS  C:\Users\ADMINI~1\AppData\Local\Temp\ccvQPEdN.s 			page 37


 985:..\..\..\..\..\..\Software\uCOS-III\Source/os_mutex.c **** 
 1055              		.loc 1 985 0
 1056 0040 7B68     		ldr	r3, [r7, #4]
 1057 0042 0022     		movs	r2, #0
 1058 0044 5A61     		str	r2, [r3, #20]
 1059              		.loc 1 993 0
 1060 0046 0BE0     		b	.L68
 1061              	.L67:
 988:..\..\..\..\..\..\Software\uCOS-III\Source/os_mutex.c ****         p_mutex_next->DbgPrevPtr =  p_mutex_prev;
 1062              		.loc 1 988 0
 1063 0048 FB68     		ldr	r3, [r7, #12]
 1064 004a BA68     		ldr	r2, [r7, #8]
 1065 004c 9A61     		str	r2, [r3, #24]
 989:..\..\..\..\..\..\Software\uCOS-III\Source/os_mutex.c ****         p_mutex->DbgNextPtr      = DEF_NULL;
 1066              		.loc 1 989 0
 1067 004e BB68     		ldr	r3, [r7, #8]
 1068 0050 FA68     		ldr	r2, [r7, #12]
 1069 0052 5A61     		str	r2, [r3, #20]
 990:..\..\..\..\..\..\Software\uCOS-III\Source/os_mutex.c ****         p_mutex->DbgPrevPtr      = DEF_NULL;
 1070              		.loc 1 990 0
 1071 0054 7B68     		ldr	r3, [r7, #4]
 1072 0056 0022     		movs	r2, #0
 1073 0058 9A61     		str	r2, [r3, #24]
 991:..\..\..\..\..\..\Software\uCOS-III\Source/os_mutex.c ****     }
 1074              		.loc 1 991 0
 1075 005a 7B68     		ldr	r3, [r7, #4]
 1076 005c 0022     		movs	r2, #0
 1077 005e 5A61     		str	r2, [r3, #20]
 1078              	.L68:
 1079              		.loc 1 993 0
 1080 0060 C046     		nop
 1081 0062 BD46     		mov	sp, r7
 1082 0064 04B0     		add	sp, sp, #16
 1083              		@ sp needed
 1084 0066 80BD     		pop	{r7, pc}
 1085              	.L70:
 1086              		.align	2
 1087              	.L69:
 1088 0068 00000000 		.word	OSMutexDbgListPtr
 1089              		.cfi_endproc
 1090              	.LFE5:
 1091              		.size	OS_MutexDbgListRemove, .-OS_MutexDbgListRemove
 1092              		.section	.text.OS_MutexGrpAdd,"ax",%progbits
 1093              		.align	2
 1094              		.global	OS_MutexGrpAdd
 1095              		.code	16
 1096              		.thumb_func
 1097              		.type	OS_MutexGrpAdd, %function
 1098              	OS_MutexGrpAdd:
 1099              	.LFB6:
 994:..\..\..\..\..\..\Software\uCOS-III\Source/os_mutex.c **** #endif
 995:..\..\..\..\..\..\Software\uCOS-III\Source/os_mutex.c **** 
 996:..\..\..\..\..\..\Software\uCOS-III\Source/os_mutex.c **** 
 997:..\..\..\..\..\..\Software\uCOS-III\Source/os_mutex.c **** /*
 998:..\..\..\..\..\..\Software\uCOS-III\Source/os_mutex.c **** ***************************************************************************************************
 999:..\..\..\..\..\..\Software\uCOS-III\Source/os_mutex.c **** *                                               MUTEX GROUP ADD
1000:..\..\..\..\..\..\Software\uCOS-III\Source/os_mutex.c **** *
ARM GAS  C:\Users\ADMINI~1\AppData\Local\Temp\ccvQPEdN.s 			page 38


1001:..\..\..\..\..\..\Software\uCOS-III\Source/os_mutex.c **** * Description: This function is called by the kernel to add a mutex to a task's mutex group.
1002:..\..\..\..\..\..\Software\uCOS-III\Source/os_mutex.c **** *
1003:..\..\..\..\..\..\Software\uCOS-III\Source/os_mutex.c **** 
1004:..\..\..\..\..\..\Software\uCOS-III\Source/os_mutex.c **** * Argument(s): p_tcb        is a pointer to the tcb of the task to give the mutex to.
1005:..\..\..\..\..\..\Software\uCOS-III\Source/os_mutex.c **** *
1006:..\..\..\..\..\..\Software\uCOS-III\Source/os_mutex.c **** *              p_mutex      is a point to the mutex to add to the group.
1007:..\..\..\..\..\..\Software\uCOS-III\Source/os_mutex.c **** *
1008:..\..\..\..\..\..\Software\uCOS-III\Source/os_mutex.c **** *
1009:..\..\..\..\..\..\Software\uCOS-III\Source/os_mutex.c **** * Returns    : none
1010:..\..\..\..\..\..\Software\uCOS-III\Source/os_mutex.c **** *
1011:..\..\..\..\..\..\Software\uCOS-III\Source/os_mutex.c **** * Note(s)    : 1) This function is INTERNAL to uC/OS-III and your application MUST NOT call it.
1012:..\..\..\..\..\..\Software\uCOS-III\Source/os_mutex.c **** ***************************************************************************************************
1013:..\..\..\..\..\..\Software\uCOS-III\Source/os_mutex.c **** */
1014:..\..\..\..\..\..\Software\uCOS-III\Source/os_mutex.c **** 
1015:..\..\..\..\..\..\Software\uCOS-III\Source/os_mutex.c **** void  OS_MutexGrpAdd (OS_TCB  *p_tcb, OS_MUTEX  *p_mutex)
1016:..\..\..\..\..\..\Software\uCOS-III\Source/os_mutex.c **** {
 1100              		.loc 1 1016 0
 1101              		.cfi_startproc
 1102              		@ args = 0, pretend = 0, frame = 8
 1103              		@ frame_needed = 1, uses_anonymous_args = 0
 1104 0000 80B5     		push	{r7, lr}
 1105              		.cfi_def_cfa_offset 8
 1106              		.cfi_offset 7, -8
 1107              		.cfi_offset 14, -4
 1108 0002 82B0     		sub	sp, sp, #8
 1109              		.cfi_def_cfa_offset 16
 1110 0004 00AF     		add	r7, sp, #0
 1111              		.cfi_def_cfa_register 7
 1112 0006 7860     		str	r0, [r7, #4]
 1113 0008 3960     		str	r1, [r7]
1017:..\..\..\..\..\..\Software\uCOS-III\Source/os_mutex.c ****     p_mutex->MutexGrpNextPtr = p_tcb->MutexGrpHeadPtr;      /* The mutex grp is not sorted add to h
 1114              		.loc 1 1017 0
 1115 000a 7B68     		ldr	r3, [r7, #4]
 1116 000c DA6B     		ldr	r2, [r3, #60]
 1117 000e 3B68     		ldr	r3, [r7]
 1118 0010 1A62     		str	r2, [r3, #32]
1018:..\..\..\..\..\..\Software\uCOS-III\Source/os_mutex.c ****     p_tcb->MutexGrpHeadPtr   = p_mutex;
 1119              		.loc 1 1018 0
 1120 0012 7B68     		ldr	r3, [r7, #4]
 1121 0014 3A68     		ldr	r2, [r7]
 1122 0016 DA63     		str	r2, [r3, #60]
1019:..\..\..\..\..\..\Software\uCOS-III\Source/os_mutex.c **** }
 1123              		.loc 1 1019 0
 1124 0018 C046     		nop
 1125 001a BD46     		mov	sp, r7
 1126 001c 02B0     		add	sp, sp, #8
 1127              		@ sp needed
 1128 001e 80BD     		pop	{r7, pc}
 1129              		.cfi_endproc
 1130              	.LFE6:
 1131              		.size	OS_MutexGrpAdd, .-OS_MutexGrpAdd
 1132              		.section	.text.OS_MutexGrpRemove,"ax",%progbits
 1133              		.align	2
 1134              		.global	OS_MutexGrpRemove
 1135              		.code	16
 1136              		.thumb_func
 1137              		.type	OS_MutexGrpRemove, %function
ARM GAS  C:\Users\ADMINI~1\AppData\Local\Temp\ccvQPEdN.s 			page 39


 1138              	OS_MutexGrpRemove:
 1139              	.LFB7:
1020:..\..\..\..\..\..\Software\uCOS-III\Source/os_mutex.c **** 
1021:..\..\..\..\..\..\Software\uCOS-III\Source/os_mutex.c **** 
1022:..\..\..\..\..\..\Software\uCOS-III\Source/os_mutex.c **** /*
1023:..\..\..\..\..\..\Software\uCOS-III\Source/os_mutex.c **** ***************************************************************************************************
1024:..\..\..\..\..\..\Software\uCOS-III\Source/os_mutex.c **** *                                              MUTEX GROUP REMOVE
1025:..\..\..\..\..\..\Software\uCOS-III\Source/os_mutex.c **** *
1026:..\..\..\..\..\..\Software\uCOS-III\Source/os_mutex.c **** * Description: This function is called by the kernel to remove a mutex to a task's mutex group.
1027:..\..\..\..\..\..\Software\uCOS-III\Source/os_mutex.c **** *
1028:..\..\..\..\..\..\Software\uCOS-III\Source/os_mutex.c **** 
1029:..\..\..\..\..\..\Software\uCOS-III\Source/os_mutex.c **** * Argument(s): p_tcb        is a pointer to the tcb of the task to remove the mutex from.
1030:..\..\..\..\..\..\Software\uCOS-III\Source/os_mutex.c **** *
1031:..\..\..\..\..\..\Software\uCOS-III\Source/os_mutex.c **** *              p_mutex      is a point to the mutex to remove from the group.
1032:..\..\..\..\..\..\Software\uCOS-III\Source/os_mutex.c **** *
1033:..\..\..\..\..\..\Software\uCOS-III\Source/os_mutex.c **** *
1034:..\..\..\..\..\..\Software\uCOS-III\Source/os_mutex.c **** * Returns    : none
1035:..\..\..\..\..\..\Software\uCOS-III\Source/os_mutex.c **** *
1036:..\..\..\..\..\..\Software\uCOS-III\Source/os_mutex.c **** * Note(s)    : 1) This function is INTERNAL to uC/OS-III and your application MUST NOT call it.
1037:..\..\..\..\..\..\Software\uCOS-III\Source/os_mutex.c **** ***************************************************************************************************
1038:..\..\..\..\..\..\Software\uCOS-III\Source/os_mutex.c **** */
1039:..\..\..\..\..\..\Software\uCOS-III\Source/os_mutex.c **** 
1040:..\..\..\..\..\..\Software\uCOS-III\Source/os_mutex.c **** void  OS_MutexGrpRemove (OS_TCB  *p_tcb, OS_MUTEX  *p_mutex)
1041:..\..\..\..\..\..\Software\uCOS-III\Source/os_mutex.c **** {
 1140              		.loc 1 1041 0
 1141              		.cfi_startproc
 1142              		@ args = 0, pretend = 0, frame = 16
 1143              		@ frame_needed = 1, uses_anonymous_args = 0
 1144 0000 80B5     		push	{r7, lr}
 1145              		.cfi_def_cfa_offset 8
 1146              		.cfi_offset 7, -8
 1147              		.cfi_offset 14, -4
 1148 0002 84B0     		sub	sp, sp, #16
 1149              		.cfi_def_cfa_offset 24
 1150 0004 00AF     		add	r7, sp, #0
 1151              		.cfi_def_cfa_register 7
 1152 0006 7860     		str	r0, [r7, #4]
 1153 0008 3960     		str	r1, [r7]
1042:..\..\..\..\..\..\Software\uCOS-III\Source/os_mutex.c ****     OS_MUTEX  **pp_mutex;
1043:..\..\..\..\..\..\Software\uCOS-III\Source/os_mutex.c **** 
1044:..\..\..\..\..\..\Software\uCOS-III\Source/os_mutex.c ****     pp_mutex = &p_tcb->MutexGrpHeadPtr;
 1154              		.loc 1 1044 0
 1155 000a 7B68     		ldr	r3, [r7, #4]
 1156 000c 3C33     		adds	r3, r3, #60
 1157 000e FB60     		str	r3, [r7, #12]
1045:..\..\..\..\..\..\Software\uCOS-III\Source/os_mutex.c **** 
1046:..\..\..\..\..\..\Software\uCOS-III\Source/os_mutex.c ****     while(*pp_mutex != p_mutex) {
 1158              		.loc 1 1046 0
 1159 0010 03E0     		b	.L73
 1160              	.L74:
1047:..\..\..\..\..\..\Software\uCOS-III\Source/os_mutex.c ****         pp_mutex = &(*pp_mutex)->MutexGrpNextPtr;
 1161              		.loc 1 1047 0
 1162 0012 FB68     		ldr	r3, [r7, #12]
 1163 0014 1B68     		ldr	r3, [r3]
 1164 0016 2033     		adds	r3, r3, #32
 1165 0018 FB60     		str	r3, [r7, #12]
 1166              	.L73:
ARM GAS  C:\Users\ADMINI~1\AppData\Local\Temp\ccvQPEdN.s 			page 40


1046:..\..\..\..\..\..\Software\uCOS-III\Source/os_mutex.c ****         pp_mutex = &(*pp_mutex)->MutexGrpNextPtr;
 1167              		.loc 1 1046 0
 1168 001a FB68     		ldr	r3, [r7, #12]
 1169 001c 1A68     		ldr	r2, [r3]
 1170 001e 3B68     		ldr	r3, [r7]
 1171 0020 9A42     		cmp	r2, r3
 1172 0022 F6D1     		bne	.L74
1048:..\..\..\..\..\..\Software\uCOS-III\Source/os_mutex.c ****     }
1049:..\..\..\..\..\..\Software\uCOS-III\Source/os_mutex.c **** 
1050:..\..\..\..\..\..\Software\uCOS-III\Source/os_mutex.c ****     *pp_mutex = (*pp_mutex)->MutexGrpNextPtr;
 1173              		.loc 1 1050 0
 1174 0024 FB68     		ldr	r3, [r7, #12]
 1175 0026 1B68     		ldr	r3, [r3]
 1176 0028 1A6A     		ldr	r2, [r3, #32]
 1177 002a FB68     		ldr	r3, [r7, #12]
 1178 002c 1A60     		str	r2, [r3]
1051:..\..\..\..\..\..\Software\uCOS-III\Source/os_mutex.c **** }
 1179              		.loc 1 1051 0
 1180 002e C046     		nop
 1181 0030 BD46     		mov	sp, r7
 1182 0032 04B0     		add	sp, sp, #16
 1183              		@ sp needed
 1184 0034 80BD     		pop	{r7, pc}
 1185              		.cfi_endproc
 1186              	.LFE7:
 1187              		.size	OS_MutexGrpRemove, .-OS_MutexGrpRemove
 1188 0036 C046     		.section	.text.OS_MutexGrpPrioFindHighest,"ax",%progbits
 1189              		.align	2
 1190              		.global	OS_MutexGrpPrioFindHighest
 1191              		.code	16
 1192              		.thumb_func
 1193              		.type	OS_MutexGrpPrioFindHighest, %function
 1194              	OS_MutexGrpPrioFindHighest:
 1195              	.LFB8:
1052:..\..\..\..\..\..\Software\uCOS-III\Source/os_mutex.c **** 
1053:..\..\..\..\..\..\Software\uCOS-III\Source/os_mutex.c **** 
1054:..\..\..\..\..\..\Software\uCOS-III\Source/os_mutex.c **** /*
1055:..\..\..\..\..\..\Software\uCOS-III\Source/os_mutex.c **** ***************************************************************************************************
1056:..\..\..\..\..\..\Software\uCOS-III\Source/os_mutex.c **** *                                              MUTEX FIND HIGHEST PENDING
1057:..\..\..\..\..\..\Software\uCOS-III\Source/os_mutex.c **** *
1058:..\..\..\..\..\..\Software\uCOS-III\Source/os_mutex.c **** * Description: This function is called by the kernel to find the highest task pending on any mutex 
1059:..\..\..\..\..\..\Software\uCOS-III\Source/os_mutex.c **** *
1060:..\..\..\..\..\..\Software\uCOS-III\Source/os_mutex.c **** 
1061:..\..\..\..\..\..\Software\uCOS-III\Source/os_mutex.c **** * Argument(s): p_tcb        is a pointer to the tcb of the task to process.
1062:..\..\..\..\..\..\Software\uCOS-III\Source/os_mutex.c **** *
1063:..\..\..\..\..\..\Software\uCOS-III\Source/os_mutex.c **** *
1064:..\..\..\..\..\..\Software\uCOS-III\Source/os_mutex.c **** * Returns    : Highest priority pending or OS_CFG_PRIO_MAX - 1u if none found.
1065:..\..\..\..\..\..\Software\uCOS-III\Source/os_mutex.c **** *
1066:..\..\..\..\..\..\Software\uCOS-III\Source/os_mutex.c **** * Note(s)    : 1) This function is INTERNAL to uC/OS-III and your application MUST NOT call it.
1067:..\..\..\..\..\..\Software\uCOS-III\Source/os_mutex.c **** ***************************************************************************************************
1068:..\..\..\..\..\..\Software\uCOS-III\Source/os_mutex.c **** */
1069:..\..\..\..\..\..\Software\uCOS-III\Source/os_mutex.c **** 
1070:..\..\..\..\..\..\Software\uCOS-III\Source/os_mutex.c **** OS_PRIO  OS_MutexGrpPrioFindHighest (OS_TCB  *p_tcb)
1071:..\..\..\..\..\..\Software\uCOS-III\Source/os_mutex.c **** {
 1196              		.loc 1 1071 0
 1197              		.cfi_startproc
 1198              		@ args = 0, pretend = 0, frame = 24
ARM GAS  C:\Users\ADMINI~1\AppData\Local\Temp\ccvQPEdN.s 			page 41


 1199              		@ frame_needed = 1, uses_anonymous_args = 0
 1200 0000 80B5     		push	{r7, lr}
 1201              		.cfi_def_cfa_offset 8
 1202              		.cfi_offset 7, -8
 1203              		.cfi_offset 14, -4
 1204 0002 86B0     		sub	sp, sp, #24
 1205              		.cfi_def_cfa_offset 32
 1206 0004 00AF     		add	r7, sp, #0
 1207              		.cfi_def_cfa_register 7
 1208 0006 7860     		str	r0, [r7, #4]
1072:..\..\..\..\..\..\Software\uCOS-III\Source/os_mutex.c ****     OS_MUTEX     **pp_mutex;
1073:..\..\..\..\..\..\Software\uCOS-III\Source/os_mutex.c ****     OS_PRIO        highest_prio;
1074:..\..\..\..\..\..\Software\uCOS-III\Source/os_mutex.c ****     OS_PRIO        prio;
1075:..\..\..\..\..\..\Software\uCOS-III\Source/os_mutex.c ****     OS_PEND_DATA  *p_head;
1076:..\..\..\..\..\..\Software\uCOS-III\Source/os_mutex.c **** 
1077:..\..\..\..\..\..\Software\uCOS-III\Source/os_mutex.c **** 
1078:..\..\..\..\..\..\Software\uCOS-III\Source/os_mutex.c ****     highest_prio = OS_CFG_PRIO_MAX - 1u;
 1209              		.loc 1 1078 0
 1210 0008 1323     		movs	r3, #19
 1211 000a FB18     		adds	r3, r7, r3
 1212 000c 1F22     		movs	r2, #31
 1213 000e 1A70     		strb	r2, [r3]
1079:..\..\..\..\..\..\Software\uCOS-III\Source/os_mutex.c ****     pp_mutex = &p_tcb->MutexGrpHeadPtr;
 1214              		.loc 1 1079 0
 1215 0010 7B68     		ldr	r3, [r7, #4]
 1216 0012 3C33     		adds	r3, r3, #60
 1217 0014 7B61     		str	r3, [r7, #20]
1080:..\..\..\..\..\..\Software\uCOS-III\Source/os_mutex.c **** 
1081:..\..\..\..\..\..\Software\uCOS-III\Source/os_mutex.c ****     while(*pp_mutex != DEF_NULL) {
 1218              		.loc 1 1081 0
 1219 0016 1FE0     		b	.L76
 1220              	.L78:
1082:..\..\..\..\..\..\Software\uCOS-III\Source/os_mutex.c ****         p_head = (*pp_mutex)->PendList.HeadPtr;
 1221              		.loc 1 1082 0
 1222 0018 7B69     		ldr	r3, [r7, #20]
 1223 001a 1B68     		ldr	r3, [r3]
 1224 001c 9B68     		ldr	r3, [r3, #8]
 1225 001e FB60     		str	r3, [r7, #12]
1083:..\..\..\..\..\..\Software\uCOS-III\Source/os_mutex.c ****         if (p_head!= DEF_NULL) {
 1226              		.loc 1 1083 0
 1227 0020 FB68     		ldr	r3, [r7, #12]
 1228 0022 002B     		cmp	r3, #0
 1229 0024 14D0     		beq	.L77
1084:..\..\..\..\..\..\Software\uCOS-III\Source/os_mutex.c ****             prio = p_head->TCBPtr->Prio;
 1230              		.loc 1 1084 0
 1231 0026 FB68     		ldr	r3, [r7, #12]
 1232 0028 9A68     		ldr	r2, [r3, #8]
 1233 002a 0B23     		movs	r3, #11
 1234 002c FB18     		adds	r3, r7, r3
 1235 002e 3721     		movs	r1, #55
 1236 0030 525C     		ldrb	r2, [r2, r1]
 1237 0032 1A70     		strb	r2, [r3]
1085:..\..\..\..\..\..\Software\uCOS-III\Source/os_mutex.c ****             if(prio < highest_prio) {
 1238              		.loc 1 1085 0
 1239 0034 0B23     		movs	r3, #11
 1240 0036 FA18     		adds	r2, r7, r3
 1241 0038 1323     		movs	r3, #19
ARM GAS  C:\Users\ADMINI~1\AppData\Local\Temp\ccvQPEdN.s 			page 42


 1242 003a FB18     		adds	r3, r7, r3
 1243 003c 1278     		ldrb	r2, [r2]
 1244 003e 1B78     		ldrb	r3, [r3]
 1245 0040 9A42     		cmp	r2, r3
 1246 0042 05D2     		bcs	.L77
1086:..\..\..\..\..\..\Software\uCOS-III\Source/os_mutex.c ****                 highest_prio = prio;
 1247              		.loc 1 1086 0
 1248 0044 1323     		movs	r3, #19
 1249 0046 FB18     		adds	r3, r7, r3
 1250 0048 0B22     		movs	r2, #11
 1251 004a BA18     		adds	r2, r7, r2
 1252 004c 1278     		ldrb	r2, [r2]
 1253 004e 1A70     		strb	r2, [r3]
 1254              	.L77:
1087:..\..\..\..\..\..\Software\uCOS-III\Source/os_mutex.c ****             }
1088:..\..\..\..\..\..\Software\uCOS-III\Source/os_mutex.c ****         }
1089:..\..\..\..\..\..\Software\uCOS-III\Source/os_mutex.c ****         pp_mutex = &(*pp_mutex)->MutexGrpNextPtr;
 1255              		.loc 1 1089 0
 1256 0050 7B69     		ldr	r3, [r7, #20]
 1257 0052 1B68     		ldr	r3, [r3]
 1258 0054 2033     		adds	r3, r3, #32
 1259 0056 7B61     		str	r3, [r7, #20]
 1260              	.L76:
1081:..\..\..\..\..\..\Software\uCOS-III\Source/os_mutex.c ****         p_head = (*pp_mutex)->PendList.HeadPtr;
 1261              		.loc 1 1081 0
 1262 0058 7B69     		ldr	r3, [r7, #20]
 1263 005a 1B68     		ldr	r3, [r3]
 1264 005c 002B     		cmp	r3, #0
 1265 005e DBD1     		bne	.L78
1090:..\..\..\..\..\..\Software\uCOS-III\Source/os_mutex.c ****     }
1091:..\..\..\..\..\..\Software\uCOS-III\Source/os_mutex.c **** 
1092:..\..\..\..\..\..\Software\uCOS-III\Source/os_mutex.c ****     return (highest_prio);
 1266              		.loc 1 1092 0
 1267 0060 1323     		movs	r3, #19
 1268 0062 FB18     		adds	r3, r7, r3
 1269 0064 1B78     		ldrb	r3, [r3]
1093:..\..\..\..\..\..\Software\uCOS-III\Source/os_mutex.c **** }
 1270              		.loc 1 1093 0
 1271 0066 1800     		movs	r0, r3
 1272 0068 BD46     		mov	sp, r7
 1273 006a 06B0     		add	sp, sp, #24
 1274              		@ sp needed
 1275 006c 80BD     		pop	{r7, pc}
 1276              		.cfi_endproc
 1277              	.LFE8:
 1278              		.size	OS_MutexGrpPrioFindHighest, .-OS_MutexGrpPrioFindHighest
 1279 006e C046     		.section	.text.OS_MutexGrpPostAll,"ax",%progbits
 1280              		.align	2
 1281              		.global	OS_MutexGrpPostAll
 1282              		.code	16
 1283              		.thumb_func
 1284              		.type	OS_MutexGrpPostAll, %function
 1285              	OS_MutexGrpPostAll:
 1286              	.LFB9:
1094:..\..\..\..\..\..\Software\uCOS-III\Source/os_mutex.c **** 
1095:..\..\..\..\..\..\Software\uCOS-III\Source/os_mutex.c **** 
1096:..\..\..\..\..\..\Software\uCOS-III\Source/os_mutex.c **** /*
ARM GAS  C:\Users\ADMINI~1\AppData\Local\Temp\ccvQPEdN.s 			page 43


1097:..\..\..\..\..\..\Software\uCOS-III\Source/os_mutex.c **** ***************************************************************************************************
1098:..\..\..\..\..\..\Software\uCOS-III\Source/os_mutex.c **** *                                               MUTEX GROUP POST ALL
1099:..\..\..\..\..\..\Software\uCOS-III\Source/os_mutex.c **** *
1100:..\..\..\..\..\..\Software\uCOS-III\Source/os_mutex.c **** * Description: This function is called by the kernel to post (release) all the mutex from a group. 
1101:..\..\..\..\..\..\Software\uCOS-III\Source/os_mutex.c **** *              a task.
1102:..\..\..\..\..\..\Software\uCOS-III\Source/os_mutex.c **** *
1103:..\..\..\..\..\..\Software\uCOS-III\Source/os_mutex.c **** 
1104:..\..\..\..\..\..\Software\uCOS-III\Source/os_mutex.c **** * Argument(s): p_tcb        is a pointer to the tcb of the task to process.
1105:..\..\..\..\..\..\Software\uCOS-III\Source/os_mutex.c **** *
1106:..\..\..\..\..\..\Software\uCOS-III\Source/os_mutex.c **** *
1107:..\..\..\..\..\..\Software\uCOS-III\Source/os_mutex.c **** * Returns    : none.
1108:..\..\..\..\..\..\Software\uCOS-III\Source/os_mutex.c **** *
1109:..\..\..\..\..\..\Software\uCOS-III\Source/os_mutex.c **** * Note(s)    : 1) This function is INTERNAL to uC/OS-III and your application MUST NOT call it.
1110:..\..\..\..\..\..\Software\uCOS-III\Source/os_mutex.c **** ***************************************************************************************************
1111:..\..\..\..\..\..\Software\uCOS-III\Source/os_mutex.c **** */
1112:..\..\..\..\..\..\Software\uCOS-III\Source/os_mutex.c **** 
1113:..\..\..\..\..\..\Software\uCOS-III\Source/os_mutex.c **** void  OS_MutexGrpPostAll (OS_TCB  *p_tcb)
1114:..\..\..\..\..\..\Software\uCOS-III\Source/os_mutex.c **** {
 1287              		.loc 1 1114 0
 1288              		.cfi_startproc
 1289              		@ args = 0, pretend = 0, frame = 32
 1290              		@ frame_needed = 1, uses_anonymous_args = 0
 1291 0000 80B5     		push	{r7, lr}
 1292              		.cfi_def_cfa_offset 8
 1293              		.cfi_offset 7, -8
 1294              		.cfi_offset 14, -4
 1295 0002 8AB0     		sub	sp, sp, #40
 1296              		.cfi_def_cfa_offset 48
 1297 0004 02AF     		add	r7, sp, #8
 1298              		.cfi_def_cfa 7, 40
 1299 0006 7860     		str	r0, [r7, #4]
1115:..\..\..\..\..\..\Software\uCOS-III\Source/os_mutex.c ****     OS_MUTEX      *p_mutex;
1116:..\..\..\..\..\..\Software\uCOS-III\Source/os_mutex.c ****     OS_MUTEX      *p_mutex_next;
1117:..\..\..\..\..\..\Software\uCOS-III\Source/os_mutex.c ****     CPU_TS         ts;
1118:..\..\..\..\..\..\Software\uCOS-III\Source/os_mutex.c ****     OS_PEND_LIST  *p_pend_list;
1119:..\..\..\..\..\..\Software\uCOS-III\Source/os_mutex.c ****     OS_TCB        *p_tcb_new;
1120:..\..\..\..\..\..\Software\uCOS-III\Source/os_mutex.c **** 
1121:..\..\..\..\..\..\Software\uCOS-III\Source/os_mutex.c **** 
1122:..\..\..\..\..\..\Software\uCOS-III\Source/os_mutex.c ****     p_mutex = p_tcb->MutexGrpHeadPtr;
 1300              		.loc 1 1122 0
 1301 0008 7B68     		ldr	r3, [r7, #4]
 1302 000a DB6B     		ldr	r3, [r3, #60]
 1303 000c FB61     		str	r3, [r7, #28]
1123:..\..\..\..\..\..\Software\uCOS-III\Source/os_mutex.c **** 
1124:..\..\..\..\..\..\Software\uCOS-III\Source/os_mutex.c ****     while(p_mutex != DEF_NULL) {
 1304              		.loc 1 1124 0
 1305 000e 39E0     		b	.L81
 1306              	.L84:
1125:..\..\..\..\..\..\Software\uCOS-III\Source/os_mutex.c **** 
1126:..\..\..\..\..\..\Software\uCOS-III\Source/os_mutex.c **** #if (defined(TRACE_CFG_EN) && (TRACE_CFG_EN == DEF_ENABLED))
1127:..\..\..\..\..\..\Software\uCOS-III\Source/os_mutex.c ****     TRACE_OS_MUTEX_POST(p_mutex);                               /* Record the event.               
1128:..\..\..\..\..\..\Software\uCOS-III\Source/os_mutex.c **** #endif
1129:..\..\..\..\..\..\Software\uCOS-III\Source/os_mutex.c **** 
1130:..\..\..\..\..\..\Software\uCOS-III\Source/os_mutex.c ****         p_mutex_next = p_mutex->MutexGrpNextPtr;
 1307              		.loc 1 1130 0
 1308 0010 FB69     		ldr	r3, [r7, #28]
 1309 0012 1B6A     		ldr	r3, [r3, #32]
ARM GAS  C:\Users\ADMINI~1\AppData\Local\Temp\ccvQPEdN.s 			page 44


 1310 0014 BB61     		str	r3, [r7, #24]
1131:..\..\..\..\..\..\Software\uCOS-III\Source/os_mutex.c **** #if (OS_CFG_TS_EN == DEF_ENABLED)
1132:..\..\..\..\..\..\Software\uCOS-III\Source/os_mutex.c ****         ts           = OS_TS_GET();                             /* Get timestamp                   
 1311              		.loc 1 1132 0
 1312 0016 FFF7FEFF 		bl	CPU_TS_TmrRd
 1313 001a 0300     		movs	r3, r0
 1314 001c 7B61     		str	r3, [r7, #20]
1133:..\..\..\..\..\..\Software\uCOS-III\Source/os_mutex.c ****         p_mutex->TS  = ts;
 1315              		.loc 1 1133 0
 1316 001e FB69     		ldr	r3, [r7, #28]
 1317 0020 7A69     		ldr	r2, [r7, #20]
 1318 0022 DA62     		str	r2, [r3, #44]
1134:..\..\..\..\..\..\Software\uCOS-III\Source/os_mutex.c **** #else
1135:..\..\..\..\..\..\Software\uCOS-III\Source/os_mutex.c ****         ts           = 0u;
1136:..\..\..\..\..\..\Software\uCOS-III\Source/os_mutex.c **** #endif
1137:..\..\..\..\..\..\Software\uCOS-III\Source/os_mutex.c ****         OS_MutexGrpRemove(p_tcb,  p_mutex);                     /* Remove mutex from owner's group 
 1319              		.loc 1 1137 0
 1320 0024 FA69     		ldr	r2, [r7, #28]
 1321 0026 7B68     		ldr	r3, [r7, #4]
 1322 0028 1100     		movs	r1, r2
 1323 002a 1800     		movs	r0, r3
 1324 002c FFF7FEFF 		bl	OS_MutexGrpRemove
1138:..\..\..\..\..\..\Software\uCOS-III\Source/os_mutex.c **** 
1139:..\..\..\..\..\..\Software\uCOS-III\Source/os_mutex.c ****         p_pend_list = &p_mutex->PendList;
 1325              		.loc 1 1139 0
 1326 0030 FB69     		ldr	r3, [r7, #28]
 1327 0032 0833     		adds	r3, r3, #8
 1328 0034 3B61     		str	r3, [r7, #16]
1140:..\..\..\..\..\..\Software\uCOS-III\Source/os_mutex.c ****         if (p_pend_list->HeadPtr == DEF_NULL) {                 /* Any task waiting on mutex?      
 1329              		.loc 1 1140 0
 1330 0036 3B69     		ldr	r3, [r7, #16]
 1331 0038 1B68     		ldr	r3, [r3]
 1332 003a 002B     		cmp	r3, #0
 1333 003c 07D1     		bne	.L82
1141:..\..\..\..\..\..\Software\uCOS-III\Source/os_mutex.c ****             p_mutex->OwnerNestingCtr = 0u;                      /* Decrement owner's nesting counte
 1334              		.loc 1 1141 0
 1335 003e FB69     		ldr	r3, [r7, #28]
 1336 0040 2822     		movs	r2, #40
 1337 0042 0021     		movs	r1, #0
 1338 0044 9954     		strb	r1, [r3, r2]
1142:..\..\..\..\..\..\Software\uCOS-III\Source/os_mutex.c ****             p_mutex->OwnerTCBPtr     = DEF_NULL;                /* No                              
 1339              		.loc 1 1142 0
 1340 0046 FB69     		ldr	r3, [r7, #28]
 1341 0048 0022     		movs	r2, #0
 1342 004a 5A62     		str	r2, [r3, #36]
 1343 004c 18E0     		b	.L83
 1344              	.L82:
1143:..\..\..\..\..\..\Software\uCOS-III\Source/os_mutex.c ****         } else {
1144:..\..\..\..\..\..\Software\uCOS-III\Source/os_mutex.c ****                                                                 /* Get TCB from head of pend list  
1145:..\..\..\..\..\..\Software\uCOS-III\Source/os_mutex.c ****             p_tcb_new = p_pend_list->HeadPtr->TCBPtr;
 1345              		.loc 1 1145 0
 1346 004e 3B69     		ldr	r3, [r7, #16]
 1347 0050 1B68     		ldr	r3, [r3]
 1348 0052 9B68     		ldr	r3, [r3, #8]
 1349 0054 FB60     		str	r3, [r7, #12]
1146:..\..\..\..\..\..\Software\uCOS-III\Source/os_mutex.c ****             p_mutex->OwnerTCBPtr     = p_tcb;                   /* Give mutex to new owner         
 1350              		.loc 1 1146 0
ARM GAS  C:\Users\ADMINI~1\AppData\Local\Temp\ccvQPEdN.s 			page 45


 1351 0056 FB69     		ldr	r3, [r7, #28]
 1352 0058 7A68     		ldr	r2, [r7, #4]
 1353 005a 5A62     		str	r2, [r3, #36]
1147:..\..\..\..\..\..\Software\uCOS-III\Source/os_mutex.c ****             p_mutex->OwnerNestingCtr = 1u;
 1354              		.loc 1 1147 0
 1355 005c FB69     		ldr	r3, [r7, #28]
 1356 005e 2822     		movs	r2, #40
 1357 0060 0121     		movs	r1, #1
 1358 0062 9954     		strb	r1, [r3, r2]
1148:..\..\..\..\..\..\Software\uCOS-III\Source/os_mutex.c ****             OS_MutexGrpAdd(p_tcb_new, p_mutex);
 1359              		.loc 1 1148 0
 1360 0064 FA69     		ldr	r2, [r7, #28]
 1361 0066 FB68     		ldr	r3, [r7, #12]
 1362 0068 1100     		movs	r1, r2
 1363 006a 1800     		movs	r0, r3
 1364 006c FFF7FEFF 		bl	OS_MutexGrpAdd
1149:..\..\..\..\..\..\Software\uCOS-III\Source/os_mutex.c ****                                                                 /* Post to mutex                   
1150:..\..\..\..\..\..\Software\uCOS-III\Source/os_mutex.c ****             OS_Post((OS_PEND_OBJ *)((void *)p_mutex),
 1365              		.loc 1 1150 0
 1366 0070 F968     		ldr	r1, [r7, #12]
 1367 0072 F869     		ldr	r0, [r7, #28]
 1368 0074 7B69     		ldr	r3, [r7, #20]
 1369 0076 0093     		str	r3, [sp]
 1370 0078 0023     		movs	r3, #0
 1371 007a 0022     		movs	r2, #0
 1372 007c FFF7FEFF 		bl	OS_Post
 1373              	.L83:
1151:..\..\..\..\..\..\Software\uCOS-III\Source/os_mutex.c ****                                             p_tcb_new,
1152:..\..\..\..\..\..\Software\uCOS-III\Source/os_mutex.c ****                                             DEF_NULL,
1153:..\..\..\..\..\..\Software\uCOS-III\Source/os_mutex.c ****                                             0u,
1154:..\..\..\..\..\..\Software\uCOS-III\Source/os_mutex.c ****                                             ts);
1155:..\..\..\..\..\..\Software\uCOS-III\Source/os_mutex.c ****         }
1156:..\..\..\..\..\..\Software\uCOS-III\Source/os_mutex.c **** 
1157:..\..\..\..\..\..\Software\uCOS-III\Source/os_mutex.c ****         p_mutex = p_mutex_next;
 1374              		.loc 1 1157 0
 1375 0080 BB69     		ldr	r3, [r7, #24]
 1376 0082 FB61     		str	r3, [r7, #28]
 1377              	.L81:
1124:..\..\..\..\..\..\Software\uCOS-III\Source/os_mutex.c **** 
 1378              		.loc 1 1124 0
 1379 0084 FB69     		ldr	r3, [r7, #28]
 1380 0086 002B     		cmp	r3, #0
 1381 0088 C2D1     		bne	.L84
1158:..\..\..\..\..\..\Software\uCOS-III\Source/os_mutex.c ****     }
1159:..\..\..\..\..\..\Software\uCOS-III\Source/os_mutex.c **** 
1160:..\..\..\..\..\..\Software\uCOS-III\Source/os_mutex.c **** }
 1382              		.loc 1 1160 0
 1383 008a C046     		nop
 1384 008c BD46     		mov	sp, r7
 1385 008e 08B0     		add	sp, sp, #32
 1386              		@ sp needed
 1387 0090 80BD     		pop	{r7, pc}
 1388              		.cfi_endproc
 1389              	.LFE9:
 1390              		.size	OS_MutexGrpPostAll, .-OS_MutexGrpPostAll
 1391 0092 C046     		.text
 1392              	.Letext0:
ARM GAS  C:\Users\ADMINI~1\AppData\Local\Temp\ccvQPEdN.s 			page 46


 1393              		.file 2 "..\\..\\..\\..\\..\\..\\Software\\uC-CPU\\ARM-Cortex-M0\\GNU/cpu.h"
 1394              		.file 3 "..\\..\\..\\..\\..\\..\\Software\\uC-CPU/cpu_core.h"
 1395              		.file 4 "..\\..\\..\\..\\..\\..\\Software\\uCOS-III\\Source\\os_type.h"
 1396              		.file 5 "..\\..\\..\\..\\..\\..\\Software\\uCOS-III\\Source\\os.h"
 1397              		.section	.debug_info,"",%progbits
 1398              	.Ldebug_info0:
 1399 0000 AC0F0000 		.4byte	0xfac
 1400 0004 0400     		.2byte	0x4
 1401 0006 00000000 		.4byte	.Ldebug_abbrev0
 1402 000a 04       		.byte	0x4
 1403 000b 01       		.uleb128 0x1
 1404 000c 13030000 		.4byte	.LASF324
 1405 0010 0C       		.byte	0xc
 1406 0011 7B110000 		.4byte	.LASF325
 1407 0015 B0000000 		.4byte	.LASF326
 1408 0019 00000000 		.4byte	.Ldebug_ranges0+0
 1409 001d 00000000 		.4byte	0
 1410 0021 00000000 		.4byte	.Ldebug_line0
 1411 0025 02       		.uleb128 0x2
 1412 0026 F9070000 		.4byte	.LASF2
 1413 002a 02       		.byte	0x2
 1414 002b 7C       		.byte	0x7c
 1415 002c 30000000 		.4byte	0x30
 1416 0030 03       		.uleb128 0x3
 1417 0031 01       		.byte	0x1
 1418 0032 08       		.byte	0x8
 1419 0033 7B090000 		.4byte	.LASF0
 1420 0037 03       		.uleb128 0x3
 1421 0038 01       		.byte	0x1
 1422 0039 08       		.byte	0x8
 1423 003a EF100000 		.4byte	.LASF1
 1424 003e 02       		.uleb128 0x2
 1425 003f D2060000 		.4byte	.LASF3
 1426 0043 02       		.byte	0x2
 1427 0044 7E       		.byte	0x7e
 1428 0045 37000000 		.4byte	0x37
 1429 0049 03       		.uleb128 0x3
 1430 004a 01       		.byte	0x1
 1431 004b 06       		.byte	0x6
 1432 004c 65120000 		.4byte	.LASF4
 1433 0050 02       		.uleb128 0x2
 1434 0051 380B0000 		.4byte	.LASF5
 1435 0055 02       		.byte	0x2
 1436 0056 80       		.byte	0x80
 1437 0057 5B000000 		.4byte	0x5b
 1438 005b 03       		.uleb128 0x3
 1439 005c 02       		.byte	0x2
 1440 005d 07       		.byte	0x7
 1441 005e 8B120000 		.4byte	.LASF6
 1442 0062 03       		.uleb128 0x3
 1443 0063 02       		.byte	0x2
 1444 0064 05       		.byte	0x5
 1445 0065 650E0000 		.4byte	.LASF7
 1446 0069 02       		.uleb128 0x2
 1447 006a 25020000 		.4byte	.LASF8
 1448 006e 02       		.byte	0x2
 1449 006f 82       		.byte	0x82
ARM GAS  C:\Users\ADMINI~1\AppData\Local\Temp\ccvQPEdN.s 			page 47


 1450 0070 74000000 		.4byte	0x74
 1451 0074 03       		.uleb128 0x3
 1452 0075 04       		.byte	0x4
 1453 0076 07       		.byte	0x7
 1454 0077 E50F0000 		.4byte	.LASF9
 1455 007b 04       		.uleb128 0x4
 1456 007c 04       		.byte	0x4
 1457 007d 05       		.byte	0x5
 1458 007e 696E7400 		.ascii	"int\000"
 1459 0082 03       		.uleb128 0x3
 1460 0083 08       		.byte	0x8
 1461 0084 07       		.byte	0x7
 1462 0085 17060000 		.4byte	.LASF10
 1463 0089 03       		.uleb128 0x3
 1464 008a 08       		.byte	0x8
 1465 008b 05       		.byte	0x5
 1466 008c 910A0000 		.4byte	.LASF11
 1467 0090 03       		.uleb128 0x3
 1468 0091 04       		.byte	0x4
 1469 0092 04       		.byte	0x4
 1470 0093 82050000 		.4byte	.LASF12
 1471 0097 03       		.uleb128 0x3
 1472 0098 08       		.byte	0x8
 1473 0099 04       		.byte	0x4
 1474 009a 23130000 		.4byte	.LASF13
 1475 009e 05       		.uleb128 0x5
 1476 009f 04       		.byte	0x4
 1477 00a0 A4000000 		.4byte	0xa4
 1478 00a4 06       		.uleb128 0x6
 1479 00a5 AF000000 		.4byte	0xaf
 1480 00a9 07       		.uleb128 0x7
 1481 00aa AF000000 		.4byte	0xaf
 1482 00ae 00       		.byte	0
 1483 00af 08       		.uleb128 0x8
 1484 00b0 04       		.byte	0x4
 1485 00b1 02       		.uleb128 0x2
 1486 00b2 64100000 		.4byte	.LASF14
 1487 00b6 02       		.byte	0x2
 1488 00b7 BA       		.byte	0xba
 1489 00b8 69000000 		.4byte	0x69
 1490 00bc 02       		.uleb128 0x2
 1491 00bd 8F140000 		.4byte	.LASF15
 1492 00c1 02       		.byte	0x2
 1493 00c2 E5       		.byte	0xe5
 1494 00c3 69000000 		.4byte	0x69
 1495 00c7 02       		.uleb128 0x2
 1496 00c8 19080000 		.4byte	.LASF16
 1497 00cc 02       		.byte	0x2
 1498 00cd E6       		.byte	0xe6
 1499 00ce B1000000 		.4byte	0xb1
 1500 00d2 09       		.uleb128 0x9
 1501 00d3 B1090000 		.4byte	.LASF17
 1502 00d7 02       		.byte	0x2
 1503 00d8 3301     		.2byte	0x133
 1504 00da 69000000 		.4byte	0x69
 1505 00de 02       		.uleb128 0x2
 1506 00df EA0B0000 		.4byte	.LASF18
ARM GAS  C:\Users\ADMINI~1\AppData\Local\Temp\ccvQPEdN.s 			page 48


 1507 00e3 03       		.byte	0x3
 1508 00e4 C3       		.byte	0xc3
 1509 00e5 69000000 		.4byte	0x69
 1510 00e9 02       		.uleb128 0x2
 1511 00ea 8A0A0000 		.4byte	.LASF19
 1512 00ee 03       		.byte	0x3
 1513 00ef C6       		.byte	0xc6
 1514 00f0 DE000000 		.4byte	0xde
 1515 00f4 02       		.uleb128 0x2
 1516 00f5 FB010000 		.4byte	.LASF20
 1517 00f9 04       		.byte	0x4
 1518 00fa 32       		.byte	0x32
 1519 00fb 50000000 		.4byte	0x50
 1520 00ff 02       		.uleb128 0x2
 1521 0100 2F000000 		.4byte	.LASF21
 1522 0104 04       		.byte	0x4
 1523 0105 36       		.byte	0x36
 1524 0106 69000000 		.4byte	0x69
 1525 010a 02       		.uleb128 0x2
 1526 010b AA100000 		.4byte	.LASF22
 1527 010f 04       		.byte	0x4
 1528 0110 38       		.byte	0x38
 1529 0111 69000000 		.4byte	0x69
 1530 0115 02       		.uleb128 0x2
 1531 0116 9E120000 		.4byte	.LASF23
 1532 011a 04       		.byte	0x4
 1533 011b 3A       		.byte	0x3a
 1534 011c 69000000 		.4byte	0x69
 1535 0120 02       		.uleb128 0x2
 1536 0121 26080000 		.4byte	.LASF24
 1537 0125 04       		.byte	0x4
 1538 0126 41       		.byte	0x41
 1539 0127 50000000 		.4byte	0x50
 1540 012b 02       		.uleb128 0x2
 1541 012c BE070000 		.4byte	.LASF25
 1542 0130 04       		.byte	0x4
 1543 0131 42       		.byte	0x42
 1544 0132 50000000 		.4byte	0x50
 1545 0136 02       		.uleb128 0x2
 1546 0137 2B0F0000 		.4byte	.LASF26
 1547 013b 04       		.byte	0x4
 1548 013c 44       		.byte	0x44
 1549 013d 3E000000 		.4byte	0x3e
 1550 0141 02       		.uleb128 0x2
 1551 0142 42050000 		.4byte	.LASF27
 1552 0146 04       		.byte	0x4
 1553 0147 46       		.byte	0x46
 1554 0148 50000000 		.4byte	0x50
 1555 014c 02       		.uleb128 0x2
 1556 014d 80090000 		.4byte	.LASF28
 1557 0151 04       		.byte	0x4
 1558 0152 47       		.byte	0x47
 1559 0153 69000000 		.4byte	0x69
 1560 0157 02       		.uleb128 0x2
 1561 0158 52110000 		.4byte	.LASF29
 1562 015c 04       		.byte	0x4
 1563 015d 49       		.byte	0x49
ARM GAS  C:\Users\ADMINI~1\AppData\Local\Temp\ccvQPEdN.s 			page 49


 1564 015e 50000000 		.4byte	0x50
 1565 0162 02       		.uleb128 0x2
 1566 0163 7A050000 		.4byte	.LASF30
 1567 0167 04       		.byte	0x4
 1568 0168 4D       		.byte	0x4d
 1569 0169 3E000000 		.4byte	0x3e
 1570 016d 02       		.uleb128 0x2
 1571 016e 44070000 		.4byte	.LASF31
 1572 0172 04       		.byte	0x4
 1573 0173 56       		.byte	0x56
 1574 0174 69000000 		.4byte	0x69
 1575 0178 02       		.uleb128 0x2
 1576 0179 160C0000 		.4byte	.LASF32
 1577 017d 04       		.byte	0x4
 1578 017e 5A       		.byte	0x5a
 1579 017f 69000000 		.4byte	0x69
 1580 0183 02       		.uleb128 0x2
 1581 0184 41110000 		.4byte	.LASF33
 1582 0188 04       		.byte	0x4
 1583 0189 5C       		.byte	0x5c
 1584 018a 3E000000 		.4byte	0x3e
 1585 018e 02       		.uleb128 0x2
 1586 018f 6C070000 		.4byte	.LASF34
 1587 0193 04       		.byte	0x4
 1588 0194 5E       		.byte	0x5e
 1589 0195 3E000000 		.4byte	0x3e
 1590 0199 02       		.uleb128 0x2
 1591 019a A10B0000 		.4byte	.LASF35
 1592 019e 04       		.byte	0x4
 1593 019f 60       		.byte	0x60
 1594 01a0 69000000 		.4byte	0x69
 1595 01a4 0A       		.uleb128 0xa
 1596 01a5 B5010000 		.4byte	.LASF327
 1597 01a9 02       		.byte	0x2
 1598 01aa 5B000000 		.4byte	0x5b
 1599 01ae 05       		.byte	0x5
 1600 01af E201     		.2byte	0x1e2
 1601 01b1 46060000 		.4byte	0x646
 1602 01b5 0B       		.uleb128 0xb
 1603 01b6 E0120000 		.4byte	.LASF36
 1604 01ba 00       		.byte	0
 1605 01bb 0C       		.uleb128 0xc
 1606 01bc 7A000000 		.4byte	.LASF37
 1607 01c0 1027     		.2byte	0x2710
 1608 01c2 0C       		.uleb128 0xc
 1609 01c3 28040000 		.4byte	.LASF38
 1610 01c7 1127     		.2byte	0x2711
 1611 01c9 0C       		.uleb128 0xc
 1612 01ca 83000000 		.4byte	.LASF39
 1613 01ce F82A     		.2byte	0x2af8
 1614 01d0 0C       		.uleb128 0xc
 1615 01d1 8C000000 		.4byte	.LASF40
 1616 01d5 E02E     		.2byte	0x2ee0
 1617 01d7 0C       		.uleb128 0xc
 1618 01d8 D9010000 		.4byte	.LASF41
 1619 01dc E12E     		.2byte	0x2ee1
 1620 01de 0C       		.uleb128 0xc
ARM GAS  C:\Users\ADMINI~1\AppData\Local\Temp\ccvQPEdN.s 			page 50


 1621 01df 95000000 		.4byte	.LASF42
 1622 01e3 C832     		.2byte	0x32c8
 1623 01e5 0C       		.uleb128 0xc
 1624 01e6 41090000 		.4byte	.LASF43
 1625 01ea C932     		.2byte	0x32c9
 1626 01ec 0C       		.uleb128 0xc
 1627 01ed 9E000000 		.4byte	.LASF44
 1628 01f1 B036     		.2byte	0x36b0
 1629 01f3 0C       		.uleb128 0xc
 1630 01f4 A7000000 		.4byte	.LASF45
 1631 01f8 983A     		.2byte	0x3a98
 1632 01fa 0C       		.uleb128 0xc
 1633 01fb 77120000 		.4byte	.LASF46
 1634 01ff 993A     		.2byte	0x3a99
 1635 0201 0C       		.uleb128 0xc
 1636 0202 A8080000 		.4byte	.LASF47
 1637 0206 FD3A     		.2byte	0x3afd
 1638 0208 0C       		.uleb128 0xc
 1639 0209 2A100000 		.4byte	.LASF48
 1640 020d FE3A     		.2byte	0x3afe
 1641 020f 0C       		.uleb128 0xc
 1642 0210 9F0A0000 		.4byte	.LASF49
 1643 0214 FF3A     		.2byte	0x3aff
 1644 0216 0C       		.uleb128 0xc
 1645 0217 0D130000 		.4byte	.LASF50
 1646 021b 003B     		.2byte	0x3b00
 1647 021d 0C       		.uleb128 0xc
 1648 021e D3100000 		.4byte	.LASF51
 1649 0222 803E     		.2byte	0x3e80
 1650 0224 0C       		.uleb128 0xc
 1651 0225 02010000 		.4byte	.LASF52
 1652 0229 6842     		.2byte	0x4268
 1653 022b 0C       		.uleb128 0xc
 1654 022c 0B010000 		.4byte	.LASF53
 1655 0230 5046     		.2byte	0x4650
 1656 0232 0C       		.uleb128 0xc
 1657 0233 02050000 		.4byte	.LASF54
 1658 0237 5146     		.2byte	0x4651
 1659 0239 0C       		.uleb128 0xc
 1660 023a EB030000 		.4byte	.LASF55
 1661 023e 5246     		.2byte	0x4652
 1662 0240 0C       		.uleb128 0xc
 1663 0241 DA040000 		.4byte	.LASF56
 1664 0245 5346     		.2byte	0x4653
 1665 0247 0C       		.uleb128 0xc
 1666 0248 C7010000 		.4byte	.LASF57
 1667 024c 5446     		.2byte	0x4654
 1668 024e 0C       		.uleb128 0xc
 1669 024f 13120000 		.4byte	.LASF58
 1670 0253 5546     		.2byte	0x4655
 1671 0255 0C       		.uleb128 0xc
 1672 0256 CA0C0000 		.4byte	.LASF59
 1673 025a 5646     		.2byte	0x4656
 1674 025c 0C       		.uleb128 0xc
 1675 025d BC020000 		.4byte	.LASF60
 1676 0261 5746     		.2byte	0x4657
 1677 0263 0C       		.uleb128 0xc
ARM GAS  C:\Users\ADMINI~1\AppData\Local\Temp\ccvQPEdN.s 			page 51


 1678 0264 14010000 		.4byte	.LASF61
 1679 0268 384A     		.2byte	0x4a38
 1680 026a 0C       		.uleb128 0xc
 1681 026b 1D010000 		.4byte	.LASF62
 1682 026f 204E     		.2byte	0x4e20
 1683 0271 0C       		.uleb128 0xc
 1684 0272 26010000 		.4byte	.LASF63
 1685 0276 0852     		.2byte	0x5208
 1686 0278 0C       		.uleb128 0xc
 1687 0279 280E0000 		.4byte	.LASF64
 1688 027d 0952     		.2byte	0x5209
 1689 027f 0C       		.uleb128 0xc
 1690 0280 2F010000 		.4byte	.LASF65
 1691 0284 F055     		.2byte	0x55f0
 1692 0286 0C       		.uleb128 0xc
 1693 0287 65110000 		.4byte	.LASF66
 1694 028b B956     		.2byte	0x56b9
 1695 028d 0C       		.uleb128 0xc
 1696 028e A90B0000 		.4byte	.LASF67
 1697 0292 BA56     		.2byte	0x56ba
 1698 0294 0C       		.uleb128 0xc
 1699 0295 080E0000 		.4byte	.LASF68
 1700 0299 BB56     		.2byte	0x56bb
 1701 029b 0C       		.uleb128 0xc
 1702 029c C1080000 		.4byte	.LASF69
 1703 02a0 BC56     		.2byte	0x56bc
 1704 02a2 0C       		.uleb128 0xc
 1705 02a3 5F0B0000 		.4byte	.LASF70
 1706 02a7 BD56     		.2byte	0x56bd
 1707 02a9 0C       		.uleb128 0xc
 1708 02aa EF0D0000 		.4byte	.LASF71
 1709 02ae BE56     		.2byte	0x56be
 1710 02b0 0C       		.uleb128 0xc
 1711 02b1 D10B0000 		.4byte	.LASF72
 1712 02b5 BF56     		.2byte	0x56bf
 1713 02b7 0C       		.uleb128 0xc
 1714 02b8 B5050000 		.4byte	.LASF73
 1715 02bc C056     		.2byte	0x56c0
 1716 02be 0C       		.uleb128 0xc
 1717 02bf AC130000 		.4byte	.LASF74
 1718 02c3 C156     		.2byte	0x56c1
 1719 02c5 0C       		.uleb128 0xc
 1720 02c6 77140000 		.4byte	.LASF75
 1721 02ca C256     		.2byte	0x56c2
 1722 02cc 0C       		.uleb128 0xc
 1723 02cd 7A0E0000 		.4byte	.LASF76
 1724 02d1 1D57     		.2byte	0x571d
 1725 02d3 0C       		.uleb128 0xc
 1726 02d4 120F0000 		.4byte	.LASF77
 1727 02d8 1E57     		.2byte	0x571e
 1728 02da 0C       		.uleb128 0xc
 1729 02db 9D070000 		.4byte	.LASF78
 1730 02df 8157     		.2byte	0x5781
 1731 02e1 0C       		.uleb128 0xc
 1732 02e2 FA0F0000 		.4byte	.LASF79
 1733 02e6 8257     		.2byte	0x5782
 1734 02e8 0C       		.uleb128 0xc
ARM GAS  C:\Users\ADMINI~1\AppData\Local\Temp\ccvQPEdN.s 			page 52


 1735 02e9 52040000 		.4byte	.LASF80
 1736 02ed 8357     		.2byte	0x5783
 1737 02ef 0C       		.uleb128 0xc
 1738 02f0 BB030000 		.4byte	.LASF81
 1739 02f4 8457     		.2byte	0x5784
 1740 02f6 0C       		.uleb128 0xc
 1741 02f7 38010000 		.4byte	.LASF82
 1742 02fb D859     		.2byte	0x59d8
 1743 02fd 0C       		.uleb128 0xc
 1744 02fe 4B070000 		.4byte	.LASF83
 1745 0302 D959     		.2byte	0x59d9
 1746 0304 0C       		.uleb128 0xc
 1747 0305 9D050000 		.4byte	.LASF84
 1748 0309 DA59     		.2byte	0x59da
 1749 030b 0C       		.uleb128 0xc
 1750 030c 41010000 		.4byte	.LASF85
 1751 0310 C05D     		.2byte	0x5dc0
 1752 0312 0C       		.uleb128 0xc
 1753 0313 93040000 		.4byte	.LASF86
 1754 0317 C15D     		.2byte	0x5dc1
 1755 0319 0C       		.uleb128 0xc
 1756 031a 7B0A0000 		.4byte	.LASF87
 1757 031e C25D     		.2byte	0x5dc2
 1758 0320 0C       		.uleb128 0xc
 1759 0321 770B0000 		.4byte	.LASF88
 1760 0325 C35D     		.2byte	0x5dc3
 1761 0327 0C       		.uleb128 0xc
 1762 0328 7F0F0000 		.4byte	.LASF89
 1763 032c C45D     		.2byte	0x5dc4
 1764 032e 0C       		.uleb128 0xc
 1765 032f 9E090000 		.4byte	.LASF90
 1766 0333 255E     		.2byte	0x5e25
 1767 0335 0C       		.uleb128 0xc
 1768 0336 680D0000 		.4byte	.LASF91
 1769 033a 895E     		.2byte	0x5e89
 1770 033c 0C       		.uleb128 0xc
 1771 033d 31080000 		.4byte	.LASF92
 1772 0341 8A5E     		.2byte	0x5e8a
 1773 0343 0C       		.uleb128 0xc
 1774 0344 F2080000 		.4byte	.LASF93
 1775 0348 8B5E     		.2byte	0x5e8b
 1776 034a 0C       		.uleb128 0xc
 1777 034b F3090000 		.4byte	.LASF94
 1778 034f 8C5E     		.2byte	0x5e8c
 1779 0351 0C       		.uleb128 0xc
 1780 0352 4A010000 		.4byte	.LASF95
 1781 0356 A861     		.2byte	0x61a8
 1782 0358 0C       		.uleb128 0xc
 1783 0359 2A130000 		.4byte	.LASF96
 1784 035d A961     		.2byte	0x61a9
 1785 035f 0C       		.uleb128 0xc
 1786 0360 4E100000 		.4byte	.LASF97
 1787 0364 AA61     		.2byte	0x61aa
 1788 0366 0C       		.uleb128 0xc
 1789 0367 CE0F0000 		.4byte	.LASF98
 1790 036b AB61     		.2byte	0x61ab
 1791 036d 0C       		.uleb128 0xc
ARM GAS  C:\Users\ADMINI~1\AppData\Local\Temp\ccvQPEdN.s 			page 53


 1792 036e 210B0000 		.4byte	.LASF99
 1793 0372 AC61     		.2byte	0x61ac
 1794 0374 0C       		.uleb128 0xc
 1795 0375 76130000 		.4byte	.LASF100
 1796 0379 AD61     		.2byte	0x61ad
 1797 037b 0C       		.uleb128 0xc
 1798 037c BA110000 		.4byte	.LASF101
 1799 0380 AE61     		.2byte	0x61ae
 1800 0382 0C       		.uleb128 0xc
 1801 0383 00030000 		.4byte	.LASF102
 1802 0387 AF61     		.2byte	0x61af
 1803 0389 0C       		.uleb128 0xc
 1804 038a 78020000 		.4byte	.LASF103
 1805 038e B061     		.2byte	0x61b0
 1806 0390 0C       		.uleb128 0xc
 1807 0391 88050000 		.4byte	.LASF104
 1808 0395 0D62     		.2byte	0x620d
 1809 0397 0C       		.uleb128 0xc
 1810 0398 6D100000 		.4byte	.LASF105
 1811 039c 0E62     		.2byte	0x620e
 1812 039e 0C       		.uleb128 0xc
 1813 039f 5C140000 		.4byte	.LASF106
 1814 03a3 7162     		.2byte	0x6271
 1815 03a5 0C       		.uleb128 0xc
 1816 03a6 6A130000 		.4byte	.LASF107
 1817 03aa 7262     		.2byte	0x6272
 1818 03ac 0C       		.uleb128 0xc
 1819 03ad 07000000 		.4byte	.LASF108
 1820 03b1 7362     		.2byte	0x6273
 1821 03b3 0C       		.uleb128 0xc
 1822 03b4 380D0000 		.4byte	.LASF109
 1823 03b8 D562     		.2byte	0x62d5
 1824 03ba 0C       		.uleb128 0xc
 1825 03bb 53010000 		.4byte	.LASF110
 1826 03bf 9065     		.2byte	0x6590
 1827 03c1 0C       		.uleb128 0xc
 1828 03c2 F2110000 		.4byte	.LASF111
 1829 03c6 9165     		.2byte	0x6591
 1830 03c8 0C       		.uleb128 0xc
 1831 03c9 0A070000 		.4byte	.LASF112
 1832 03cd 9265     		.2byte	0x6592
 1833 03cf 0C       		.uleb128 0xc
 1834 03d0 66090000 		.4byte	.LASF113
 1835 03d4 9365     		.2byte	0x6593
 1836 03d6 0C       		.uleb128 0xc
 1837 03d7 E90A0000 		.4byte	.LASF114
 1838 03db 9465     		.2byte	0x6594
 1839 03dd 0C       		.uleb128 0xc
 1840 03de 5C010000 		.4byte	.LASF115
 1841 03e2 7869     		.2byte	0x6978
 1842 03e4 0C       		.uleb128 0xc
 1843 03e5 8B0B0000 		.4byte	.LASF116
 1844 03e9 7969     		.2byte	0x6979
 1845 03eb 0C       		.uleb128 0xc
 1846 03ec DA0D0000 		.4byte	.LASF117
 1847 03f0 7A69     		.2byte	0x697a
 1848 03f2 0C       		.uleb128 0xc
ARM GAS  C:\Users\ADMINI~1\AppData\Local\Temp\ccvQPEdN.s 			page 54


 1849 03f3 430B0000 		.4byte	.LASF118
 1850 03f7 7B69     		.2byte	0x697b
 1851 03f9 0C       		.uleb128 0xc
 1852 03fa 65010000 		.4byte	.LASF119
 1853 03fe 606D     		.2byte	0x6d60
 1854 0400 0C       		.uleb128 0xc
 1855 0401 D3090000 		.4byte	.LASF120
 1856 0405 616D     		.2byte	0x6d61
 1857 0407 0C       		.uleb128 0xc
 1858 0408 2B090000 		.4byte	.LASF121
 1859 040c 626D     		.2byte	0x6d62
 1860 040e 0C       		.uleb128 0xc
 1861 040f F9120000 		.4byte	.LASF122
 1862 0413 636D     		.2byte	0x6d63
 1863 0415 0C       		.uleb128 0xc
 1864 0416 52130000 		.4byte	.LASF123
 1865 041a 646D     		.2byte	0x6d64
 1866 041c 0C       		.uleb128 0xc
 1867 041d 9E0E0000 		.4byte	.LASF124
 1868 0421 656D     		.2byte	0x6d65
 1869 0423 0C       		.uleb128 0xc
 1870 0424 F0130000 		.4byte	.LASF125
 1871 0428 C56D     		.2byte	0x6dc5
 1872 042a 0C       		.uleb128 0xc
 1873 042b DA130000 		.4byte	.LASF126
 1874 042f C66D     		.2byte	0x6dc6
 1875 0431 0C       		.uleb128 0xc
 1876 0432 D8020000 		.4byte	.LASF127
 1877 0436 296E     		.2byte	0x6e29
 1878 0438 0C       		.uleb128 0xc
 1879 0439 1C0A0000 		.4byte	.LASF128
 1880 043d 2A6E     		.2byte	0x6e2a
 1881 043f 0C       		.uleb128 0xc
 1882 0440 90080000 		.4byte	.LASF129
 1883 0444 2B6E     		.2byte	0x6e2b
 1884 0446 0C       		.uleb128 0xc
 1885 0447 0D100000 		.4byte	.LASF130
 1886 044b 2C6E     		.2byte	0x6e2c
 1887 044d 0C       		.uleb128 0xc
 1888 044e 4B0D0000 		.4byte	.LASF131
 1889 0452 2D6E     		.2byte	0x6e2d
 1890 0454 0C       		.uleb128 0xc
 1891 0455 50090000 		.4byte	.LASF132
 1892 0459 2E6E     		.2byte	0x6e2e
 1893 045b 0C       		.uleb128 0xc
 1894 045c 45020000 		.4byte	.LASF133
 1895 0460 2F6E     		.2byte	0x6e2f
 1896 0462 0C       		.uleb128 0xc
 1897 0463 BB100000 		.4byte	.LASF134
 1898 0467 306E     		.2byte	0x6e30
 1899 0469 0C       		.uleb128 0xc
 1900 046a 91100000 		.4byte	.LASF135
 1901 046e 316E     		.2byte	0x6e31
 1902 0470 0C       		.uleb128 0xc
 1903 0471 6E010000 		.4byte	.LASF136
 1904 0475 4871     		.2byte	0x7148
 1905 0477 0C       		.uleb128 0xc
ARM GAS  C:\Users\ADMINI~1\AppData\Local\Temp\ccvQPEdN.s 			page 55


 1906 0478 90020000 		.4byte	.LASF137
 1907 047c 4971     		.2byte	0x7149
 1908 047e 0C       		.uleb128 0xc
 1909 047f 02080000 		.4byte	.LASF138
 1910 0483 4A71     		.2byte	0x714a
 1911 0485 0C       		.uleb128 0xc
 1912 0486 48120000 		.4byte	.LASF139
 1913 048a 4B71     		.2byte	0x714b
 1914 048c 0C       		.uleb128 0xc
 1915 048d FF130000 		.4byte	.LASF140
 1916 0491 4C71     		.2byte	0x714c
 1917 0493 0C       		.uleb128 0xc
 1918 0494 8A060000 		.4byte	.LASF141
 1919 0498 4D71     		.2byte	0x714d
 1920 049a 0C       		.uleb128 0xc
 1921 049b 130D0000 		.4byte	.LASF142
 1922 049f 4E71     		.2byte	0x714e
 1923 04a1 0C       		.uleb128 0xc
 1924 04a2 760C0000 		.4byte	.LASF143
 1925 04a6 4F71     		.2byte	0x714f
 1926 04a8 0C       		.uleb128 0xc
 1927 04a9 B90B0000 		.4byte	.LASF144
 1928 04ad 5071     		.2byte	0x7150
 1929 04af 0C       		.uleb128 0xc
 1930 04b0 CC030000 		.4byte	.LASF145
 1931 04b4 5171     		.2byte	0x7151
 1932 04b6 0C       		.uleb128 0xc
 1933 04b7 600C0000 		.4byte	.LASF146
 1934 04bb 5271     		.2byte	0x7152
 1935 04bd 0C       		.uleb128 0xc
 1936 04be A1030000 		.4byte	.LASF147
 1937 04c2 5371     		.2byte	0x7153
 1938 04c4 0C       		.uleb128 0xc
 1939 04c5 FD100000 		.4byte	.LASF148
 1940 04c9 5471     		.2byte	0x7154
 1941 04cb 0C       		.uleb128 0xc
 1942 04cc 61020000 		.4byte	.LASF149
 1943 04d0 5571     		.2byte	0x7155
 1944 04d2 0C       		.uleb128 0xc
 1945 04d3 62050000 		.4byte	.LASF150
 1946 04d7 5671     		.2byte	0x7156
 1947 04d9 0C       		.uleb128 0xc
 1948 04da 520F0000 		.4byte	.LASF151
 1949 04de 5771     		.2byte	0x7157
 1950 04e0 0C       		.uleb128 0xc
 1951 04e1 2E060000 		.4byte	.LASF152
 1952 04e5 5871     		.2byte	0x7158
 1953 04e7 0C       		.uleb128 0xc
 1954 04e8 400E0000 		.4byte	.LASF153
 1955 04ec 5971     		.2byte	0x7159
 1956 04ee 0C       		.uleb128 0xc
 1957 04ef C4130000 		.4byte	.LASF154
 1958 04f3 5A71     		.2byte	0x715a
 1959 04f5 0C       		.uleb128 0xc
 1960 04f6 C1040000 		.4byte	.LASF155
 1961 04fa 5B71     		.2byte	0x715b
 1962 04fc 0C       		.uleb128 0xc
ARM GAS  C:\Users\ADMINI~1\AppData\Local\Temp\ccvQPEdN.s 			page 56


 1963 04fd 6A060000 		.4byte	.LASF156
 1964 0501 5C71     		.2byte	0x715c
 1965 0503 0C       		.uleb128 0xc
 1966 0504 3A040000 		.4byte	.LASF157
 1967 0508 5D71     		.2byte	0x715d
 1968 050a 0C       		.uleb128 0xc
 1969 050b A70C0000 		.4byte	.LASF158
 1970 050f 5E71     		.2byte	0x715e
 1971 0511 0C       		.uleb128 0xc
 1972 0512 14040000 		.4byte	.LASF159
 1973 0516 5F71     		.2byte	0x715f
 1974 0518 0C       		.uleb128 0xc
 1975 0519 CD0A0000 		.4byte	.LASF160
 1976 051d 6071     		.2byte	0x7160
 1977 051f 0C       		.uleb128 0xc
 1978 0520 E4060000 		.4byte	.LASF161
 1979 0524 AD71     		.2byte	0x71ad
 1980 0526 0C       		.uleb128 0xc
 1981 0527 01060000 		.4byte	.LASF162
 1982 052b C071     		.2byte	0x71c0
 1983 052d 0C       		.uleb128 0xc
 1984 052e E80C0000 		.4byte	.LASF163
 1985 0532 C171     		.2byte	0x71c1
 1986 0534 0C       		.uleb128 0xc
 1987 0535 B4120000 		.4byte	.LASF164
 1988 0539 C271     		.2byte	0x71c2
 1989 053b 0C       		.uleb128 0xc
 1990 053c 8C090000 		.4byte	.LASF165
 1991 0540 C371     		.2byte	0x71c3
 1992 0542 0C       		.uleb128 0xc
 1993 0543 80070000 		.4byte	.LASF166
 1994 0547 C471     		.2byte	0x71c4
 1995 0549 0C       		.uleb128 0xc
 1996 054a 43140000 		.4byte	.LASF167
 1997 054e 1172     		.2byte	0x7211
 1998 0550 0C       		.uleb128 0xc
 1999 0551 FA0E0000 		.4byte	.LASF168
 2000 0555 1272     		.2byte	0x7212
 2001 0557 0C       		.uleb128 0xc
 2002 0558 08020000 		.4byte	.LASF169
 2003 055c 1372     		.2byte	0x7213
 2004 055e 0C       		.uleb128 0xc
 2005 055f 3D0C0000 		.4byte	.LASF170
 2006 0563 1472     		.2byte	0x7214
 2007 0565 0C       		.uleb128 0xc
 2008 0566 7D100000 		.4byte	.LASF171
 2009 056a 7572     		.2byte	0x7275
 2010 056c 0C       		.uleb128 0xc
 2011 056d 28140000 		.4byte	.LASF172
 2012 0571 7672     		.2byte	0x7276
 2013 0573 0C       		.uleb128 0xc
 2014 0574 14140000 		.4byte	.LASF173
 2015 0578 7772     		.2byte	0x7277
 2016 057a 0C       		.uleb128 0xc
 2017 057b CA070000 		.4byte	.LASF174
 2018 057f 7872     		.2byte	0x7278
 2019 0581 0C       		.uleb128 0xc
ARM GAS  C:\Users\ADMINI~1\AppData\Local\Temp\ccvQPEdN.s 			page 57


 2020 0582 5E000000 		.4byte	.LASF175
 2021 0586 7972     		.2byte	0x7279
 2022 0588 0C       		.uleb128 0xc
 2023 0589 2C120000 		.4byte	.LASF176
 2024 058d 7A72     		.2byte	0x727a
 2025 058f 0C       		.uleb128 0xc
 2026 0590 19070000 		.4byte	.LASF177
 2027 0594 7B72     		.2byte	0x727b
 2028 0596 0C       		.uleb128 0xc
 2029 0597 350A0000 		.4byte	.LASF178
 2030 059b 7C72     		.2byte	0x727c
 2031 059d 0C       		.uleb128 0xc
 2032 059e C60D0000 		.4byte	.LASF179
 2033 05a2 7D72     		.2byte	0x727d
 2034 05a4 0C       		.uleb128 0xc
 2035 05a5 66080000 		.4byte	.LASF180
 2036 05a9 7E72     		.2byte	0x727e
 2037 05ab 0C       		.uleb128 0xc
 2038 05ac 23110000 		.4byte	.LASF181
 2039 05b0 D972     		.2byte	0x72d9
 2040 05b2 0C       		.uleb128 0xc
 2041 05b3 ED050000 		.4byte	.LASF182
 2042 05b7 3D73     		.2byte	0x733d
 2043 05b9 0C       		.uleb128 0xc
 2044 05ba 13090000 		.4byte	.LASF183
 2045 05be 3E73     		.2byte	0x733e
 2046 05c0 0C       		.uleb128 0xc
 2047 05c1 2B050000 		.4byte	.LASF184
 2048 05c5 3F73     		.2byte	0x733f
 2049 05c7 0C       		.uleb128 0xc
 2050 05c8 9B010000 		.4byte	.LASF185
 2051 05cc 4073     		.2byte	0x7340
 2052 05ce 0C       		.uleb128 0xc
 2053 05cf 73040000 		.4byte	.LASF186
 2054 05d3 4173     		.2byte	0x7341
 2055 05d5 0C       		.uleb128 0xc
 2056 05d6 4A060000 		.4byte	.LASF187
 2057 05da 4273     		.2byte	0x7342
 2058 05dc 0C       		.uleb128 0xc
 2059 05dd 4F000000 		.4byte	.LASF188
 2060 05e1 4373     		.2byte	0x7343
 2061 05e3 0C       		.uleb128 0xc
 2062 05e4 D6050000 		.4byte	.LASF189
 2063 05e8 4473     		.2byte	0x7344
 2064 05ea 0C       		.uleb128 0xc
 2065 05eb E4070000 		.4byte	.LASF190
 2066 05ef 4573     		.2byte	0x7345
 2067 05f1 0C       		.uleb128 0xc
 2068 05f2 8A0C0000 		.4byte	.LASF191
 2069 05f6 4673     		.2byte	0x7346
 2070 05f8 0C       		.uleb128 0xc
 2071 05f9 BB060000 		.4byte	.LASF192
 2072 05fd 4773     		.2byte	0x7347
 2073 05ff 0C       		.uleb128 0xc
 2074 0600 210C0000 		.4byte	.LASF193
 2075 0604 4873     		.2byte	0x7348
 2076 0606 0C       		.uleb128 0xc
ARM GAS  C:\Users\ADMINI~1\AppData\Local\Temp\ccvQPEdN.s 			page 58


 2077 0607 DC100000 		.4byte	.LASF194
 2078 060b 4973     		.2byte	0x7349
 2079 060d 0C       		.uleb128 0xc
 2080 060e F70C0000 		.4byte	.LASF195
 2081 0612 4A73     		.2byte	0x734a
 2082 0614 0C       		.uleb128 0xc
 2083 0615 77010000 		.4byte	.LASF196
 2084 0619 3075     		.2byte	0x7530
 2085 061b 0C       		.uleb128 0xc
 2086 061c 80010000 		.4byte	.LASF197
 2087 0620 1879     		.2byte	0x7918
 2088 0622 0C       		.uleb128 0xc
 2089 0623 89010000 		.4byte	.LASF198
 2090 0627 007D     		.2byte	0x7d00
 2091 0629 0C       		.uleb128 0xc
 2092 062a 92010000 		.4byte	.LASF199
 2093 062e E880     		.2byte	0x80e8
 2094 0630 0C       		.uleb128 0xc
 2095 0631 B1110000 		.4byte	.LASF200
 2096 0635 D084     		.2byte	0x84d0
 2097 0637 0C       		.uleb128 0xc
 2098 0638 6A0A0000 		.4byte	.LASF201
 2099 063c D184     		.2byte	0x84d1
 2100 063e 0C       		.uleb128 0xc
 2101 063f CA110000 		.4byte	.LASF202
 2102 0643 B888     		.2byte	0x88b8
 2103 0645 00       		.byte	0
 2104 0646 09       		.uleb128 0x9
 2105 0647 1B000000 		.4byte	.LASF203
 2106 064b 05       		.byte	0x5
 2107 064c B502     		.2byte	0x2b5
 2108 064e A4010000 		.4byte	0x1a4
 2109 0652 09       		.uleb128 0x9
 2110 0653 05090000 		.4byte	.LASF204
 2111 0657 05       		.byte	0x5
 2112 0658 C402     		.2byte	0x2c4
 2113 065a 5E060000 		.4byte	0x65e
 2114 065e 0D       		.uleb128 0xd
 2115 065f DD060000 		.4byte	.LASF210
 2116 0663 10       		.byte	0x10
 2117 0664 05       		.byte	0x5
 2118 0665 A303     		.2byte	0x3a3
 2119 0667 A0060000 		.4byte	0x6a0
 2120 066b 0E       		.uleb128 0xe
 2121 066c 600D0000 		.4byte	.LASF205
 2122 0670 05       		.byte	0x5
 2123 0671 A403     		.2byte	0x3a4
 2124 0673 D60B0000 		.4byte	0xbd6
 2125 0677 00       		.byte	0
 2126 0678 0E       		.uleb128 0xe
 2127 0679 AD120000 		.4byte	.LASF206
 2128 067d 05       		.byte	0x5
 2129 067e A503     		.2byte	0x3a5
 2130 0680 AF000000 		.4byte	0xaf
 2131 0684 04       		.byte	0x4
 2132 0685 0E       		.uleb128 0xe
 2133 0686 F20F0000 		.4byte	.LASF207
ARM GAS  C:\Users\ADMINI~1\AppData\Local\Temp\ccvQPEdN.s 			page 59


 2134 068a 05       		.byte	0x5
 2135 068b A603     		.2byte	0x3a6
 2136 068d 2B010000 		.4byte	0x12b
 2137 0691 08       		.byte	0x8
 2138 0692 0E       		.uleb128 0xe
 2139 0693 71120000 		.4byte	.LASF208
 2140 0697 05       		.byte	0x5
 2141 0698 A803     		.2byte	0x3a8
 2142 069a E9000000 		.4byte	0xe9
 2143 069e 0C       		.byte	0xc
 2144 069f 00       		.byte	0
 2145 06a0 09       		.uleb128 0x9
 2146 06a1 5C0A0000 		.4byte	.LASF209
 2147 06a5 05       		.byte	0x5
 2148 06a6 C602     		.2byte	0x2c6
 2149 06a8 AC060000 		.4byte	0x6ac
 2150 06ac 0D       		.uleb128 0xd
 2151 06ad 6E140000 		.4byte	.LASF211
 2152 06b1 10       		.byte	0x10
 2153 06b2 05       		.byte	0x5
 2154 06b3 BA03     		.2byte	0x3ba
 2155 06b5 FB060000 		.4byte	0x6fb
 2156 06b9 0E       		.uleb128 0xe
 2157 06ba AC0F0000 		.4byte	.LASF212
 2158 06be 05       		.byte	0x5
 2159 06bf BB03     		.2byte	0x3bb
 2160 06c1 D60B0000 		.4byte	0xbd6
 2161 06c5 00       		.byte	0
 2162 06c6 0E       		.uleb128 0xe
 2163 06c7 DE110000 		.4byte	.LASF213
 2164 06cb 05       		.byte	0x5
 2165 06cc BC03     		.2byte	0x3bc
 2166 06ce D60B0000 		.4byte	0xbd6
 2167 06d2 04       		.byte	0x4
 2168 06d3 0E       		.uleb128 0xe
 2169 06d4 57080000 		.4byte	.LASF214
 2170 06d8 05       		.byte	0x5
 2171 06d9 BD03     		.2byte	0x3bd
 2172 06db 20010000 		.4byte	0x120
 2173 06df 08       		.byte	0x8
 2174 06e0 0E       		.uleb128 0xe
 2175 06e1 BC010000 		.4byte	.LASF215
 2176 06e5 05       		.byte	0x5
 2177 06e6 BE03     		.2byte	0x3be
 2178 06e8 20010000 		.4byte	0x120
 2179 06ec 0A       		.byte	0xa
 2180 06ed 0E       		.uleb128 0xe
 2181 06ee 91130000 		.4byte	.LASF216
 2182 06f2 05       		.byte	0x5
 2183 06f3 C003     		.2byte	0x3c0
 2184 06f5 20010000 		.4byte	0x120
 2185 06f9 0C       		.byte	0xc
 2186 06fa 00       		.byte	0
 2187 06fb 09       		.uleb128 0x9
 2188 06fc 3C020000 		.4byte	.LASF217
 2189 0700 05       		.byte	0x5
 2190 0701 C802     		.2byte	0x2c8
ARM GAS  C:\Users\ADMINI~1\AppData\Local\Temp\ccvQPEdN.s 			page 60


 2191 0703 07070000 		.4byte	0x707
 2192 0707 0D       		.uleb128 0xd
 2193 0708 8B0D0000 		.4byte	.LASF218
 2194 070c 30       		.byte	0x30
 2195 070d 05       		.byte	0x5
 2196 070e D003     		.2byte	0x3d0
 2197 0710 96070000 		.4byte	0x796
 2198 0714 0E       		.uleb128 0xe
 2199 0715 650A0000 		.4byte	.LASF219
 2200 0719 05       		.byte	0x5
 2201 071a D303     		.2byte	0x3d3
 2202 071c 4C010000 		.4byte	0x14c
 2203 0720 00       		.byte	0
 2204 0721 0E       		.uleb128 0xe
 2205 0722 490A0000 		.4byte	.LASF220
 2206 0726 05       		.byte	0x5
 2207 0727 D603     		.2byte	0x3d6
 2208 0729 D00B0000 		.4byte	0xbd0
 2209 072d 04       		.byte	0x4
 2210 072e 0E       		.uleb128 0xe
 2211 072f 760F0000 		.4byte	.LASF221
 2212 0733 05       		.byte	0x5
 2213 0734 D803     		.2byte	0x3d8
 2214 0736 150B0000 		.4byte	0xb15
 2215 073a 08       		.byte	0x8
 2216 073b 0E       		.uleb128 0xe
 2217 073c E0030000 		.4byte	.LASF222
 2218 0740 05       		.byte	0x5
 2219 0741 DA03     		.2byte	0x3da
 2220 0743 DC0B0000 		.4byte	0xbdc
 2221 0747 14       		.byte	0x14
 2222 0748 0E       		.uleb128 0xe
 2223 0749 F8030000 		.4byte	.LASF223
 2224 074d 05       		.byte	0x5
 2225 074e DB03     		.2byte	0x3db
 2226 0750 DC0B0000 		.4byte	0xbdc
 2227 0754 18       		.byte	0x18
 2228 0755 0E       		.uleb128 0xe
 2229 0756 D3110000 		.4byte	.LASF224
 2230 075a 05       		.byte	0x5
 2231 075b DC03     		.2byte	0x3dc
 2232 075d D00B0000 		.4byte	0xbd0
 2233 0761 1C       		.byte	0x1c
 2234 0762 0E       		.uleb128 0xe
 2235 0763 DD0E0000 		.4byte	.LASF225
 2236 0767 05       		.byte	0x5
 2237 0768 DF03     		.2byte	0x3df
 2238 076a DC0B0000 		.4byte	0xbdc
 2239 076e 20       		.byte	0x20
 2240 076f 0E       		.uleb128 0xe
 2241 0770 4D050000 		.4byte	.LASF226
 2242 0774 05       		.byte	0x5
 2243 0775 E003     		.2byte	0x3e0
 2244 0777 BE0B0000 		.4byte	0xbbe
 2245 077b 24       		.byte	0x24
 2246 077c 0E       		.uleb128 0xe
 2247 077d EB010000 		.4byte	.LASF227
ARM GAS  C:\Users\ADMINI~1\AppData\Local\Temp\ccvQPEdN.s 			page 61


 2248 0781 05       		.byte	0x5
 2249 0782 E103     		.2byte	0x3e1
 2250 0784 36010000 		.4byte	0x136
 2251 0788 28       		.byte	0x28
 2252 0789 0F       		.uleb128 0xf
 2253 078a 545300   		.ascii	"TS\000"
 2254 078d 05       		.byte	0x5
 2255 078e E303     		.2byte	0x3e3
 2256 0790 E9000000 		.4byte	0xe9
 2257 0794 2C       		.byte	0x2c
 2258 0795 00       		.byte	0
 2259 0796 09       		.uleb128 0x9
 2260 0797 59110000 		.4byte	.LASF228
 2261 079b 05       		.byte	0x5
 2262 079c D402     		.2byte	0x2d4
 2263 079e 9E000000 		.4byte	0x9e
 2264 07a2 09       		.uleb128 0x9
 2265 07a3 B4100000 		.4byte	.LASF229
 2266 07a7 05       		.byte	0x5
 2267 07a8 D902     		.2byte	0x2d9
 2268 07aa AE070000 		.4byte	0x7ae
 2269 07ae 0D       		.uleb128 0xd
 2270 07af 00000000 		.4byte	.LASF230
 2271 07b3 C4       		.byte	0xc4
 2272 07b4 05       		.byte	0x5
 2273 07b5 5004     		.2byte	0x450
 2274 07b7 520A0000 		.4byte	0xa52
 2275 07bb 0E       		.uleb128 0xe
 2276 07bc B40A0000 		.4byte	.LASF231
 2277 07c0 05       		.byte	0x5
 2278 07c1 5104     		.2byte	0x451
 2279 07c3 E20B0000 		.4byte	0xbe2
 2280 07c7 00       		.byte	0
 2281 07c8 0E       		.uleb128 0xe
 2282 07c9 3E100000 		.4byte	.LASF232
 2283 07cd 05       		.byte	0x5
 2284 07ce 5304     		.2byte	0x453
 2285 07d0 AF000000 		.4byte	0xaf
 2286 07d4 04       		.byte	0x4
 2287 07d5 0E       		.uleb128 0xe
 2288 07d6 490A0000 		.4byte	.LASF220
 2289 07da 05       		.byte	0x5
 2290 07db 5604     		.2byte	0x456
 2291 07dd D00B0000 		.4byte	0xbd0
 2292 07e1 08       		.byte	0x8
 2293 07e2 0E       		.uleb128 0xe
 2294 07e3 FE0B0000 		.4byte	.LASF233
 2295 07e7 05       		.byte	0x5
 2296 07e8 5A04     		.2byte	0x45a
 2297 07ea E20B0000 		.4byte	0xbe2
 2298 07ee 0C       		.byte	0xc
 2299 07ef 0E       		.uleb128 0xe
 2300 07f0 600D0000 		.4byte	.LASF205
 2301 07f4 05       		.byte	0x5
 2302 07f5 5D04     		.2byte	0x45d
 2303 07f7 BE0B0000 		.4byte	0xbbe
 2304 07fb 10       		.byte	0x10
ARM GAS  C:\Users\ADMINI~1\AppData\Local\Temp\ccvQPEdN.s 			page 62


 2305 07fc 0E       		.uleb128 0xe
 2306 07fd 73090000 		.4byte	.LASF234
 2307 0801 05       		.byte	0x5
 2308 0802 5E04     		.2byte	0x45e
 2309 0804 BE0B0000 		.4byte	0xbbe
 2310 0808 14       		.byte	0x14
 2311 0809 0E       		.uleb128 0xe
 2312 080a 540C0000 		.4byte	.LASF235
 2313 080e 05       		.byte	0x5
 2314 080f 6104     		.2byte	0x461
 2315 0811 BE0B0000 		.4byte	0xbbe
 2316 0815 18       		.byte	0x18
 2317 0816 0E       		.uleb128 0xe
 2318 0817 7B080000 		.4byte	.LASF236
 2319 081b 05       		.byte	0x5
 2320 081c 6204     		.2byte	0x462
 2321 081e BE0B0000 		.4byte	0xbbe
 2322 0822 1C       		.byte	0x1c
 2323 0823 0E       		.uleb128 0xe
 2324 0824 BA0D0000 		.4byte	.LASF237
 2325 0828 05       		.byte	0x5
 2326 0829 6404     		.2byte	0x464
 2327 082b E80B0000 		.4byte	0xbe8
 2328 082f 20       		.byte	0x20
 2329 0830 0E       		.uleb128 0xe
 2330 0831 FF060000 		.4byte	.LASF238
 2331 0835 05       		.byte	0x5
 2332 0836 6804     		.2byte	0x468
 2333 0838 E20B0000 		.4byte	0xbe2
 2334 083c 24       		.byte	0x24
 2335 083d 0E       		.uleb128 0xe
 2336 083e 0E0A0000 		.4byte	.LASF239
 2337 0842 05       		.byte	0x5
 2338 0843 7004     		.2byte	0x470
 2339 0845 96070000 		.4byte	0x796
 2340 0849 28       		.byte	0x28
 2341 084a 0E       		.uleb128 0xe
 2342 084b E5110000 		.4byte	.LASF240
 2343 084f 05       		.byte	0x5
 2344 0850 7104     		.2byte	0x471
 2345 0852 AF000000 		.4byte	0xaf
 2346 0856 2C       		.byte	0x2c
 2347 0857 0E       		.uleb128 0xe
 2348 0858 8F0F0000 		.4byte	.LASF241
 2349 085c 05       		.byte	0x5
 2350 085d 7404     		.2byte	0x474
 2351 085f C40B0000 		.4byte	0xbc4
 2352 0863 30       		.byte	0x30
 2353 0864 0E       		.uleb128 0xe
 2354 0865 8C040000 		.4byte	.LASF242
 2355 0869 05       		.byte	0x5
 2356 086a 7504     		.2byte	0x475
 2357 086c 83010000 		.4byte	0x183
 2358 0870 34       		.byte	0x34
 2359 0871 0E       		.uleb128 0xe
 2360 0872 510A0000 		.4byte	.LASF243
 2361 0876 05       		.byte	0x5
ARM GAS  C:\Users\ADMINI~1\AppData\Local\Temp\ccvQPEdN.s 			page 63


 2362 0877 7604     		.2byte	0x476
 2363 0879 8E010000 		.4byte	0x18e
 2364 087d 35       		.byte	0x35
 2365 087e 0E       		.uleb128 0xe
 2366 087f 76070000 		.4byte	.LASF244
 2367 0883 05       		.byte	0x5
 2368 0884 7804     		.2byte	0x478
 2369 0886 83010000 		.4byte	0x183
 2370 088a 36       		.byte	0x36
 2371 088b 0E       		.uleb128 0xe
 2372 088c 1E130000 		.4byte	.LASF245
 2373 0890 05       		.byte	0x5
 2374 0891 7904     		.2byte	0x479
 2375 0893 62010000 		.4byte	0x162
 2376 0897 37       		.byte	0x37
 2377 0898 0E       		.uleb128 0xe
 2378 0899 D9080000 		.4byte	.LASF246
 2379 089d 05       		.byte	0x5
 2380 089e 7B04     		.2byte	0x47b
 2381 08a0 62010000 		.4byte	0x162
 2382 08a4 38       		.byte	0x38
 2383 08a5 0E       		.uleb128 0xe
 2384 08a6 AC020000 		.4byte	.LASF247
 2385 08aa 05       		.byte	0x5
 2386 08ab 7C04     		.2byte	0x47c
 2387 08ad DC0B0000 		.4byte	0xbdc
 2388 08b1 3C       		.byte	0x3c
 2389 08b2 0E       		.uleb128 0xe
 2390 08b3 F7060000 		.4byte	.LASF248
 2391 08b7 05       		.byte	0x5
 2392 08b8 8004     		.2byte	0x480
 2393 08ba C7000000 		.4byte	0xc7
 2394 08be 40       		.byte	0x40
 2395 08bf 0F       		.uleb128 0xf
 2396 08c0 4F707400 		.ascii	"Opt\000"
 2397 08c4 05       		.byte	0x5
 2398 08c5 8204     		.2byte	0x482
 2399 08c7 57010000 		.4byte	0x157
 2400 08cb 44       		.byte	0x44
 2401 08cc 0F       		.uleb128 0xf
 2402 08cd 545300   		.ascii	"TS\000"
 2403 08d0 05       		.byte	0x5
 2404 08d1 8804     		.2byte	0x488
 2405 08d3 E9000000 		.4byte	0xe9
 2406 08d7 48       		.byte	0x48
 2407 08d8 0E       		.uleb128 0xe
 2408 08d9 9E0F0000 		.4byte	.LASF249
 2409 08dd 05       		.byte	0x5
 2410 08de 8D04     		.2byte	0x48d
 2411 08e0 78010000 		.4byte	0x178
 2412 08e4 4C       		.byte	0x4c
 2413 08e5 0E       		.uleb128 0xe
 2414 08e6 BB0F0000 		.4byte	.LASF250
 2415 08ea 05       		.byte	0x5
 2416 08eb 9104     		.2byte	0x491
 2417 08ed 99010000 		.4byte	0x199
 2418 08f1 50       		.byte	0x50
ARM GAS  C:\Users\ADMINI~1\AppData\Local\Temp\ccvQPEdN.s 			page 64


 2419 08f2 0E       		.uleb128 0xe
 2420 08f3 4B080000 		.4byte	.LASF251
 2421 08f7 05       		.byte	0x5
 2422 08f8 9204     		.2byte	0x492
 2423 08fa 99010000 		.4byte	0x199
 2424 08fe 54       		.byte	0x54
 2425 08ff 0E       		.uleb128 0xe
 2426 0900 AD120000 		.4byte	.LASF206
 2427 0904 05       		.byte	0x5
 2428 0905 9B04     		.2byte	0x49b
 2429 0907 AF000000 		.4byte	0xaf
 2430 090b 58       		.byte	0x58
 2431 090c 0E       		.uleb128 0xe
 2432 090d F20F0000 		.4byte	.LASF207
 2433 0911 05       		.byte	0x5
 2434 0912 9C04     		.2byte	0x49c
 2435 0914 2B010000 		.4byte	0x12b
 2436 0918 5C       		.byte	0x5c
 2437 0919 0E       		.uleb128 0xe
 2438 091a 090A0000 		.4byte	.LASF252
 2439 091e 05       		.byte	0x5
 2440 091f A004     		.2byte	0x4a0
 2441 0921 A0060000 		.4byte	0x6a0
 2442 0925 60       		.byte	0x60
 2443 0926 0E       		.uleb128 0xe
 2444 0927 7E0D0000 		.4byte	.LASF253
 2445 092b 05       		.byte	0x5
 2446 092c A204     		.2byte	0x4a2
 2447 092e E9000000 		.4byte	0xe9
 2448 0932 70       		.byte	0x70
 2449 0933 0E       		.uleb128 0xe
 2450 0934 E2080000 		.4byte	.LASF254
 2451 0938 05       		.byte	0x5
 2452 0939 A304     		.2byte	0x4a3
 2453 093b E9000000 		.4byte	0xe9
 2454 093f 74       		.byte	0x74
 2455 0940 0E       		.uleb128 0xe
 2456 0941 E9130000 		.4byte	.LASF255
 2457 0945 05       		.byte	0x5
 2458 0946 A804     		.2byte	0x4a8
 2459 0948 EE0B0000 		.4byte	0xbee
 2460 094c 78       		.byte	0x78
 2461 094d 0E       		.uleb128 0xe
 2462 094e 21050000 		.4byte	.LASF256
 2463 0952 05       		.byte	0x5
 2464 0953 AC04     		.2byte	0x4ac
 2465 0955 15010000 		.4byte	0x115
 2466 0959 7C       		.byte	0x7c
 2467 095a 0E       		.uleb128 0xe
 2468 095b 87080000 		.4byte	.LASF257
 2469 095f 05       		.byte	0x5
 2470 0960 AD04     		.2byte	0x4ad
 2471 0962 15010000 		.4byte	0x115
 2472 0966 80       		.byte	0x80
 2473 0967 0E       		.uleb128 0xe
 2474 0968 58020000 		.4byte	.LASF258
 2475 096c 05       		.byte	0x5
ARM GAS  C:\Users\ADMINI~1\AppData\Local\Temp\ccvQPEdN.s 			page 65


 2476 096d AE04     		.2byte	0x4ae
 2477 096f 57010000 		.4byte	0x157
 2478 0973 84       		.byte	0x84
 2479 0974 0E       		.uleb128 0xe
 2480 0975 F30B0000 		.4byte	.LASF259
 2481 0979 05       		.byte	0x5
 2482 097a B204     		.2byte	0x4b2
 2483 097c 36010000 		.4byte	0x136
 2484 0980 86       		.byte	0x86
 2485 0981 0E       		.uleb128 0xe
 2486 0982 49130000 		.4byte	.LASF260
 2487 0986 05       		.byte	0x5
 2488 0987 B604     		.2byte	0x4b6
 2489 0989 F4000000 		.4byte	0xf4
 2490 098d 88       		.byte	0x88
 2491 098e 0E       		.uleb128 0xe
 2492 098f 6A0F0000 		.4byte	.LASF261
 2493 0993 05       		.byte	0x5
 2494 0994 B704     		.2byte	0x4b7
 2495 0996 F4000000 		.4byte	0xf4
 2496 099a 8A       		.byte	0x8a
 2497 099b 0E       		.uleb128 0xe
 2498 099c 59050000 		.4byte	.LASF262
 2499 09a0 05       		.byte	0x5
 2500 09a1 B804     		.2byte	0x4b8
 2501 09a3 FF000000 		.4byte	0xff
 2502 09a7 8C       		.byte	0x8c
 2503 09a8 0E       		.uleb128 0xe
 2504 09a9 0A0C0000 		.4byte	.LASF263
 2505 09ad 05       		.byte	0x5
 2506 09ae B904     		.2byte	0x4b9
 2507 09b0 E9000000 		.4byte	0xe9
 2508 09b4 90       		.byte	0x90
 2509 09b5 0E       		.uleb128 0xe
 2510 09b6 F70A0000 		.4byte	.LASF264
 2511 09ba 05       		.byte	0x5
 2512 09bb BA04     		.2byte	0x4ba
 2513 09bd E9000000 		.4byte	0xe9
 2514 09c1 94       		.byte	0x94
 2515 09c2 0E       		.uleb128 0xe
 2516 09c3 3A0F0000 		.4byte	.LASF265
 2517 09c7 05       		.byte	0x5
 2518 09c8 BB04     		.2byte	0x4bb
 2519 09ca 0A010000 		.4byte	0x10a
 2520 09ce 98       		.byte	0x98
 2521 09cf 0E       		.uleb128 0xe
 2522 09d0 CD0E0000 		.4byte	.LASF266
 2523 09d4 05       		.byte	0x5
 2524 09d5 BC04     		.2byte	0x4bc
 2525 09d7 0A010000 		.4byte	0x10a
 2526 09db 9C       		.byte	0x9c
 2527 09dc 0E       		.uleb128 0xe
 2528 09dd 2C0D0000 		.4byte	.LASF267
 2529 09e1 05       		.byte	0x5
 2530 09e2 BE04     		.2byte	0x4be
 2531 09e4 E9000000 		.4byte	0xe9
 2532 09e8 A0       		.byte	0xa0
ARM GAS  C:\Users\ADMINI~1\AppData\Local\Temp\ccvQPEdN.s 			page 66


 2533 09e9 0E       		.uleb128 0xe
 2534 09ea B60E0000 		.4byte	.LASF268
 2535 09ee 05       		.byte	0x5
 2536 09ef BF04     		.2byte	0x4bf
 2537 09f1 E9000000 		.4byte	0xe9
 2538 09f5 A4       		.byte	0xa4
 2539 09f6 0E       		.uleb128 0xe
 2540 09f7 42060000 		.4byte	.LASF269
 2541 09fb 05       		.byte	0x5
 2542 09fc C304     		.2byte	0x4c3
 2543 09fe C7000000 		.4byte	0xc7
 2544 0a02 A8       		.byte	0xa8
 2545 0a03 0E       		.uleb128 0xe
 2546 0a04 43080000 		.4byte	.LASF270
 2547 0a08 05       		.byte	0x5
 2548 0a09 C404     		.2byte	0x4c4
 2549 0a0b C7000000 		.4byte	0xc7
 2550 0a0f AC       		.byte	0xac
 2551 0a10 0E       		.uleb128 0xe
 2552 0a11 900E0000 		.4byte	.LASF271
 2553 0a15 05       		.byte	0x5
 2554 0a16 C804     		.2byte	0x4c8
 2555 0a18 E9000000 		.4byte	0xe9
 2556 0a1c B0       		.byte	0xb0
 2557 0a1d 0E       		.uleb128 0xe
 2558 0a1e 03040000 		.4byte	.LASF272
 2559 0a22 05       		.byte	0x5
 2560 0a23 CB04     		.2byte	0x4cb
 2561 0a25 E9000000 		.4byte	0xe9
 2562 0a29 B4       		.byte	0xb4
 2563 0a2a 0E       		.uleb128 0xe
 2564 0a2b E0030000 		.4byte	.LASF222
 2565 0a2f 05       		.byte	0x5
 2566 0a30 CF04     		.2byte	0x4cf
 2567 0a32 BE0B0000 		.4byte	0xbbe
 2568 0a36 B8       		.byte	0xb8
 2569 0a37 0E       		.uleb128 0xe
 2570 0a38 F8030000 		.4byte	.LASF223
 2571 0a3c 05       		.byte	0x5
 2572 0a3d D004     		.2byte	0x4d0
 2573 0a3f BE0B0000 		.4byte	0xbbe
 2574 0a43 BC       		.byte	0xbc
 2575 0a44 0E       		.uleb128 0xe
 2576 0a45 D3110000 		.4byte	.LASF224
 2577 0a49 05       		.byte	0x5
 2578 0a4a D104     		.2byte	0x4d1
 2579 0a4c D00B0000 		.4byte	0xbd0
 2580 0a50 C0       		.byte	0xc0
 2581 0a51 00       		.byte	0
 2582 0a52 09       		.uleb128 0x9
 2583 0a53 ED0E0000 		.4byte	.LASF273
 2584 0a57 05       		.byte	0x5
 2585 0a58 E702     		.2byte	0x2e7
 2586 0a5a 5E0A0000 		.4byte	0xa5e
 2587 0a5e 0D       		.uleb128 0xd
 2588 0a5f 580E0000 		.4byte	.LASF274
 2589 0a63 08       		.byte	0x8
ARM GAS  C:\Users\ADMINI~1\AppData\Local\Temp\ccvQPEdN.s 			page 67


 2590 0a64 05       		.byte	0x5
 2591 0a65 DF04     		.2byte	0x4df
 2592 0a67 930A0000 		.4byte	0xa93
 2593 0a6b 0E       		.uleb128 0xe
 2594 0a6c B1040000 		.4byte	.LASF275
 2595 0a70 05       		.byte	0x5
 2596 0a71 E004     		.2byte	0x4e0
 2597 0a73 BE0B0000 		.4byte	0xbbe
 2598 0a77 00       		.byte	0
 2599 0a78 0E       		.uleb128 0xe
 2600 0a79 BC010000 		.4byte	.LASF215
 2601 0a7d 05       		.byte	0x5
 2602 0a7e E204     		.2byte	0x4e2
 2603 0a80 41010000 		.4byte	0x141
 2604 0a84 04       		.byte	0x4
 2605 0a85 0E       		.uleb128 0xe
 2606 0a86 B0060000 		.4byte	.LASF276
 2607 0a8a 05       		.byte	0x5
 2608 0a8b E304     		.2byte	0x4e3
 2609 0a8d 41010000 		.4byte	0x141
 2610 0a91 06       		.byte	0x6
 2611 0a92 00       		.byte	0
 2612 0a93 09       		.uleb128 0x9
 2613 0a94 5D060000 		.4byte	.LASF277
 2614 0a98 05       		.byte	0x5
 2615 0a99 EC02     		.2byte	0x2ec
 2616 0a9b 9F0A0000 		.4byte	0xa9f
 2617 0a9f 0D       		.uleb128 0xd
 2618 0aa0 EC120000 		.4byte	.LASF278
 2619 0aa4 20       		.byte	0x20
 2620 0aa5 05       		.byte	0x5
 2621 0aa6 2803     		.2byte	0x328
 2622 0aa8 150B0000 		.4byte	0xb15
 2623 0aac 0E       		.uleb128 0xe
 2624 0aad 73090000 		.4byte	.LASF234
 2625 0ab1 05       		.byte	0x5
 2626 0ab2 2903     		.2byte	0x329
 2627 0ab4 C40B0000 		.4byte	0xbc4
 2628 0ab8 00       		.byte	0
 2629 0ab9 0E       		.uleb128 0xe
 2630 0aba 600D0000 		.4byte	.LASF205
 2631 0abe 05       		.byte	0x5
 2632 0abf 2A03     		.2byte	0x32a
 2633 0ac1 C40B0000 		.4byte	0xbc4
 2634 0ac5 04       		.byte	0x4
 2635 0ac6 0E       		.uleb128 0xe
 2636 0ac7 1A0B0000 		.4byte	.LASF279
 2637 0acb 05       		.byte	0x5
 2638 0acc 2B03     		.2byte	0x32b
 2639 0ace BE0B0000 		.4byte	0xbbe
 2640 0ad2 08       		.byte	0x8
 2641 0ad3 0E       		.uleb128 0xe
 2642 0ad4 86130000 		.4byte	.LASF280
 2643 0ad8 05       		.byte	0x5
 2644 0ad9 2C03     		.2byte	0x32c
 2645 0adb CA0B0000 		.4byte	0xbca
 2646 0adf 0C       		.byte	0xc
ARM GAS  C:\Users\ADMINI~1\AppData\Local\Temp\ccvQPEdN.s 			page 68


 2647 0ae0 0E       		.uleb128 0xe
 2648 0ae1 C00C0000 		.4byte	.LASF281
 2649 0ae5 05       		.byte	0x5
 2650 0ae6 2D03     		.2byte	0x32d
 2651 0ae8 CA0B0000 		.4byte	0xbca
 2652 0aec 10       		.byte	0x10
 2653 0aed 0E       		.uleb128 0xe
 2654 0aee EC040000 		.4byte	.LASF282
 2655 0af2 05       		.byte	0x5
 2656 0af3 2E03     		.2byte	0x32e
 2657 0af5 AF000000 		.4byte	0xaf
 2658 0af9 14       		.byte	0x14
 2659 0afa 0E       		.uleb128 0xe
 2660 0afb 6F0E0000 		.4byte	.LASF283
 2661 0aff 05       		.byte	0x5
 2662 0b00 2F03     		.2byte	0x32f
 2663 0b02 2B010000 		.4byte	0x12b
 2664 0b06 18       		.byte	0x18
 2665 0b07 0E       		.uleb128 0xe
 2666 0b08 220E0000 		.4byte	.LASF284
 2667 0b0c 05       		.byte	0x5
 2668 0b0d 3103     		.2byte	0x331
 2669 0b0f E9000000 		.4byte	0xe9
 2670 0b13 1C       		.byte	0x1c
 2671 0b14 00       		.byte	0
 2672 0b15 09       		.uleb128 0x9
 2673 0b16 58120000 		.4byte	.LASF285
 2674 0b1a 05       		.byte	0x5
 2675 0b1b ED02     		.2byte	0x2ed
 2676 0b1d 210B0000 		.4byte	0xb21
 2677 0b21 0D       		.uleb128 0xd
 2678 0b22 9F130000 		.4byte	.LASF286
 2679 0b26 0C       		.byte	0xc
 2680 0b27 05       		.byte	0x5
 2681 0b28 3603     		.2byte	0x336
 2682 0b2a 560B0000 		.4byte	0xb56
 2683 0b2e 0E       		.uleb128 0xe
 2684 0b2f C60F0000 		.4byte	.LASF287
 2685 0b33 05       		.byte	0x5
 2686 0b34 3703     		.2byte	0x337
 2687 0b36 C40B0000 		.4byte	0xbc4
 2688 0b3a 00       		.byte	0
 2689 0b3b 0E       		.uleb128 0xe
 2690 0b3c B9040000 		.4byte	.LASF288
 2691 0b40 05       		.byte	0x5
 2692 0b41 3803     		.2byte	0x338
 2693 0b43 C40B0000 		.4byte	0xbc4
 2694 0b47 04       		.byte	0x4
 2695 0b48 0E       		.uleb128 0xe
 2696 0b49 BC010000 		.4byte	.LASF215
 2697 0b4d 05       		.byte	0x5
 2698 0b4e 3A03     		.2byte	0x33a
 2699 0b50 41010000 		.4byte	0x141
 2700 0b54 08       		.byte	0x8
 2701 0b55 00       		.byte	0
 2702 0b56 09       		.uleb128 0x9
 2703 0b57 460F0000 		.4byte	.LASF289
ARM GAS  C:\Users\ADMINI~1\AppData\Local\Temp\ccvQPEdN.s 			page 69


 2704 0b5b 05       		.byte	0x5
 2705 0b5c EE02     		.2byte	0x2ee
 2706 0b5e 620B0000 		.4byte	0xb62
 2707 0b62 0D       		.uleb128 0xd
 2708 0b63 F6040000 		.4byte	.LASF290
 2709 0b67 20       		.byte	0x20
 2710 0b68 05       		.byte	0x5
 2711 0b69 4E03     		.2byte	0x34e
 2712 0b6b BE0B0000 		.4byte	0xbbe
 2713 0b6f 0E       		.uleb128 0xe
 2714 0b70 650A0000 		.4byte	.LASF219
 2715 0b74 05       		.byte	0x5
 2716 0b75 5003     		.2byte	0x350
 2717 0b77 4C010000 		.4byte	0x14c
 2718 0b7b 00       		.byte	0
 2719 0b7c 0E       		.uleb128 0xe
 2720 0b7d 490A0000 		.4byte	.LASF220
 2721 0b81 05       		.byte	0x5
 2722 0b82 5303     		.2byte	0x353
 2723 0b84 D00B0000 		.4byte	0xbd0
 2724 0b88 04       		.byte	0x4
 2725 0b89 0E       		.uleb128 0xe
 2726 0b8a 760F0000 		.4byte	.LASF221
 2727 0b8e 05       		.byte	0x5
 2728 0b8f 5503     		.2byte	0x355
 2729 0b91 150B0000 		.4byte	0xb15
 2730 0b95 08       		.byte	0x8
 2731 0b96 0E       		.uleb128 0xe
 2732 0b97 E0030000 		.4byte	.LASF222
 2733 0b9b 05       		.byte	0x5
 2734 0b9c 5703     		.2byte	0x357
 2735 0b9e AF000000 		.4byte	0xaf
 2736 0ba2 14       		.byte	0x14
 2737 0ba3 0E       		.uleb128 0xe
 2738 0ba4 F8030000 		.4byte	.LASF223
 2739 0ba8 05       		.byte	0x5
 2740 0ba9 5803     		.2byte	0x358
 2741 0bab AF000000 		.4byte	0xaf
 2742 0baf 18       		.byte	0x18
 2743 0bb0 0E       		.uleb128 0xe
 2744 0bb1 D3110000 		.4byte	.LASF224
 2745 0bb5 05       		.byte	0x5
 2746 0bb6 5903     		.2byte	0x359
 2747 0bb8 D00B0000 		.4byte	0xbd0
 2748 0bbc 1C       		.byte	0x1c
 2749 0bbd 00       		.byte	0
 2750 0bbe 05       		.uleb128 0x5
 2751 0bbf 04       		.byte	0x4
 2752 0bc0 A2070000 		.4byte	0x7a2
 2753 0bc4 05       		.uleb128 0x5
 2754 0bc5 04       		.byte	0x4
 2755 0bc6 930A0000 		.4byte	0xa93
 2756 0bca 05       		.uleb128 0x5
 2757 0bcb 04       		.byte	0x4
 2758 0bcc 560B0000 		.4byte	0xb56
 2759 0bd0 05       		.uleb128 0x5
 2760 0bd1 04       		.byte	0x4
ARM GAS  C:\Users\ADMINI~1\AppData\Local\Temp\ccvQPEdN.s 			page 70


 2761 0bd2 25000000 		.4byte	0x25
 2762 0bd6 05       		.uleb128 0x5
 2763 0bd7 04       		.byte	0x4
 2764 0bd8 52060000 		.4byte	0x652
 2765 0bdc 05       		.uleb128 0x5
 2766 0bdd 04       		.byte	0x4
 2767 0bde FB060000 		.4byte	0x6fb
 2768 0be2 05       		.uleb128 0x5
 2769 0be3 04       		.byte	0x4
 2770 0be4 BC000000 		.4byte	0xbc
 2771 0be8 05       		.uleb128 0x5
 2772 0be9 04       		.byte	0x4
 2773 0bea 520A0000 		.4byte	0xa52
 2774 0bee 10       		.uleb128 0x10
 2775 0bef 6D010000 		.4byte	0x16d
 2776 0bf3 FE0B0000 		.4byte	0xbfe
 2777 0bf7 11       		.uleb128 0x11
 2778 0bf8 FE0B0000 		.4byte	0xbfe
 2779 0bfc 00       		.byte	0
 2780 0bfd 00       		.byte	0
 2781 0bfe 03       		.uleb128 0x3
 2782 0bff 04       		.byte	0x4
 2783 0c00 07       		.byte	0x7
 2784 0c01 45100000 		.4byte	.LASF291
 2785 0c05 12       		.uleb128 0x12
 2786 0c06 A2060000 		.4byte	.LASF295
 2787 0c0a 01       		.byte	0x1
 2788 0c0b 45       		.byte	0x45
 2789 0c0c 00000000 		.4byte	.LFB0
 2790 0c10 AC000000 		.4byte	.LFE0-.LFB0
 2791 0c14 01       		.uleb128 0x1
 2792 0c15 9C       		.byte	0x9c
 2793 0c16 530C0000 		.4byte	0xc53
 2794 0c1a 13       		.uleb128 0x13
 2795 0c1b C50E0000 		.4byte	.LASF292
 2796 0c1f 01       		.byte	0x1
 2797 0c20 45       		.byte	0x45
 2798 0c21 DC0B0000 		.4byte	0xbdc
 2799 0c25 02       		.uleb128 0x2
 2800 0c26 91       		.byte	0x91
 2801 0c27 6C       		.sleb128 -20
 2802 0c28 13       		.uleb128 0x13
 2803 0c29 0C090000 		.4byte	.LASF293
 2804 0c2d 01       		.byte	0x1
 2805 0c2e 46       		.byte	0x46
 2806 0c2f D00B0000 		.4byte	0xbd0
 2807 0c33 02       		.uleb128 0x2
 2808 0c34 91       		.byte	0x91
 2809 0c35 68       		.sleb128 -24
 2810 0c36 13       		.uleb128 0x13
 2811 0c37 A7120000 		.4byte	.LASF294
 2812 0c3b 01       		.byte	0x1
 2813 0c3c 47       		.byte	0x47
 2814 0c3d 530C0000 		.4byte	0xc53
 2815 0c41 02       		.uleb128 0x2
 2816 0c42 91       		.byte	0x91
 2817 0c43 64       		.sleb128 -28
ARM GAS  C:\Users\ADMINI~1\AppData\Local\Temp\ccvQPEdN.s 			page 71


 2818 0c44 14       		.uleb128 0x14
 2819 0c45 CF050000 		.4byte	.LASF299
 2820 0c49 01       		.byte	0x1
 2821 0c4a 49       		.byte	0x49
 2822 0c4b D2000000 		.4byte	0xd2
 2823 0c4f 02       		.uleb128 0x2
 2824 0c50 91       		.byte	0x91
 2825 0c51 74       		.sleb128 -12
 2826 0c52 00       		.byte	0
 2827 0c53 05       		.uleb128 0x5
 2828 0c54 04       		.byte	0x4
 2829 0c55 46060000 		.4byte	0x646
 2830 0c59 15       		.uleb128 0x15
 2831 0c5a 97140000 		.4byte	.LASF296
 2832 0c5e 01       		.byte	0x1
 2833 0c5f 6801     		.2byte	0x168
 2834 0c61 00000000 		.4byte	.LFB1
 2835 0c65 70020000 		.4byte	.LFE1-.LFB1
 2836 0c69 01       		.uleb128 0x1
 2837 0c6a 9C       		.byte	0x9c
 2838 0c6b E80C0000 		.4byte	0xce8
 2839 0c6f 16       		.uleb128 0x16
 2840 0c70 C50E0000 		.4byte	.LASF292
 2841 0c74 01       		.byte	0x1
 2842 0c75 6801     		.2byte	0x168
 2843 0c77 DC0B0000 		.4byte	0xbdc
 2844 0c7b 02       		.uleb128 0x2
 2845 0c7c 91       		.byte	0x91
 2846 0c7d 4C       		.sleb128 -52
 2847 0c7e 16       		.uleb128 0x16
 2848 0c7f 4A110000 		.4byte	.LASF297
 2849 0c83 01       		.byte	0x1
 2850 0c84 6901     		.2byte	0x169
 2851 0c86 99010000 		.4byte	0x199
 2852 0c8a 02       		.uleb128 0x2
 2853 0c8b 91       		.byte	0x91
 2854 0c8c 48       		.sleb128 -56
 2855 0c8d 17       		.uleb128 0x17
 2856 0c8e 6F707400 		.ascii	"opt\000"
 2857 0c92 01       		.byte	0x1
 2858 0c93 6A01     		.2byte	0x16a
 2859 0c95 57010000 		.4byte	0x157
 2860 0c99 02       		.uleb128 0x2
 2861 0c9a 91       		.byte	0x91
 2862 0c9b 46       		.sleb128 -58
 2863 0c9c 16       		.uleb128 0x16
 2864 0c9d A20C0000 		.4byte	.LASF298
 2865 0ca1 01       		.byte	0x1
 2866 0ca2 6B01     		.2byte	0x16b
 2867 0ca4 E80C0000 		.4byte	0xce8
 2868 0ca8 02       		.uleb128 0x2
 2869 0ca9 91       		.byte	0x91
 2870 0caa 40       		.sleb128 -64
 2871 0cab 16       		.uleb128 0x16
 2872 0cac A7120000 		.4byte	.LASF294
 2873 0cb0 01       		.byte	0x1
 2874 0cb1 6C01     		.2byte	0x16c
ARM GAS  C:\Users\ADMINI~1\AppData\Local\Temp\ccvQPEdN.s 			page 72


 2875 0cb3 530C0000 		.4byte	0xc53
 2876 0cb7 02       		.uleb128 0x2
 2877 0cb8 91       		.byte	0x91
 2878 0cb9 00       		.sleb128 0
 2879 0cba 18       		.uleb128 0x18
 2880 0cbb 100B0000 		.4byte	.LASF300
 2881 0cbf 01       		.byte	0x1
 2882 0cc0 6E01     		.2byte	0x16e
 2883 0cc2 930A0000 		.4byte	0xa93
 2884 0cc6 02       		.uleb128 0x2
 2885 0cc7 91       		.byte	0x91
 2886 0cc8 50       		.sleb128 -48
 2887 0cc9 18       		.uleb128 0x18
 2888 0cca C70A0000 		.4byte	.LASF301
 2889 0cce 01       		.byte	0x1
 2890 0ccf 6F01     		.2byte	0x16f
 2891 0cd1 BE0B0000 		.4byte	0xbbe
 2892 0cd5 02       		.uleb128 0x2
 2893 0cd6 91       		.byte	0x91
 2894 0cd7 70       		.sleb128 -16
 2895 0cd8 18       		.uleb128 0x18
 2896 0cd9 CF050000 		.4byte	.LASF299
 2897 0cdd 01       		.byte	0x1
 2898 0cde 7001     		.2byte	0x170
 2899 0ce0 D2000000 		.4byte	0xd2
 2900 0ce4 02       		.uleb128 0x2
 2901 0ce5 91       		.byte	0x91
 2902 0ce6 74       		.sleb128 -12
 2903 0ce7 00       		.byte	0
 2904 0ce8 05       		.uleb128 0x5
 2905 0ce9 04       		.byte	0x4
 2906 0cea E9000000 		.4byte	0xe9
 2907 0cee 15       		.uleb128 0x15
 2908 0cef 57070000 		.4byte	.LASF302
 2909 0cf3 01       		.byte	0x1
 2910 0cf4 F802     		.2byte	0x2f8
 2911 0cf6 00000000 		.4byte	.LFB2
 2912 0cfa 00020000 		.4byte	.LFE2-.LFB2
 2913 0cfe 01       		.uleb128 0x1
 2914 0cff 9C       		.byte	0x9c
 2915 0d00 7C0D0000 		.4byte	0xd7c
 2916 0d04 16       		.uleb128 0x16
 2917 0d05 C50E0000 		.4byte	.LASF292
 2918 0d09 01       		.byte	0x1
 2919 0d0a F802     		.2byte	0x2f8
 2920 0d0c DC0B0000 		.4byte	0xbdc
 2921 0d10 02       		.uleb128 0x2
 2922 0d11 91       		.byte	0x91
 2923 0d12 54       		.sleb128 -44
 2924 0d13 17       		.uleb128 0x17
 2925 0d14 6F707400 		.ascii	"opt\000"
 2926 0d18 01       		.byte	0x1
 2927 0d19 F902     		.2byte	0x2f9
 2928 0d1b 57010000 		.4byte	0x157
 2929 0d1f 02       		.uleb128 0x2
 2930 0d20 91       		.byte	0x91
 2931 0d21 52       		.sleb128 -46
ARM GAS  C:\Users\ADMINI~1\AppData\Local\Temp\ccvQPEdN.s 			page 73


 2932 0d22 16       		.uleb128 0x16
 2933 0d23 A7120000 		.4byte	.LASF294
 2934 0d27 01       		.byte	0x1
 2935 0d28 FA02     		.2byte	0x2fa
 2936 0d2a 530C0000 		.4byte	0xc53
 2937 0d2e 02       		.uleb128 0x2
 2938 0d2f 91       		.byte	0x91
 2939 0d30 4C       		.sleb128 -52
 2940 0d31 18       		.uleb128 0x18
 2941 0d32 67040000 		.4byte	.LASF303
 2942 0d36 01       		.byte	0x1
 2943 0d37 FC02     		.2byte	0x2fc
 2944 0d39 7C0D0000 		.4byte	0xd7c
 2945 0d3d 02       		.uleb128 0x2
 2946 0d3e 91       		.byte	0x91
 2947 0d3f 64       		.sleb128 -28
 2948 0d40 18       		.uleb128 0x18
 2949 0d41 C70A0000 		.4byte	.LASF301
 2950 0d45 01       		.byte	0x1
 2951 0d46 FD02     		.2byte	0x2fd
 2952 0d48 BE0B0000 		.4byte	0xbbe
 2953 0d4c 02       		.uleb128 0x2
 2954 0d4d 91       		.byte	0x91
 2955 0d4e 5C       		.sleb128 -36
 2956 0d4f 19       		.uleb128 0x19
 2957 0d50 747300   		.ascii	"ts\000"
 2958 0d53 01       		.byte	0x1
 2959 0d54 FE02     		.2byte	0x2fe
 2960 0d56 E9000000 		.4byte	0xe9
 2961 0d5a 02       		.uleb128 0x2
 2962 0d5b 91       		.byte	0x91
 2963 0d5c 68       		.sleb128 -24
 2964 0d5d 18       		.uleb128 0x18
 2965 0d5e B20F0000 		.4byte	.LASF304
 2966 0d62 01       		.byte	0x1
 2967 0d63 FF02     		.2byte	0x2ff
 2968 0d65 62010000 		.4byte	0x162
 2969 0d69 02       		.uleb128 0x2
 2970 0d6a 91       		.byte	0x91
 2971 0d6b 63       		.sleb128 -29
 2972 0d6c 18       		.uleb128 0x18
 2973 0d6d CF050000 		.4byte	.LASF299
 2974 0d71 01       		.byte	0x1
 2975 0d72 0003     		.2byte	0x300
 2976 0d74 D2000000 		.4byte	0xd2
 2977 0d78 02       		.uleb128 0x2
 2978 0d79 91       		.byte	0x91
 2979 0d7a 6C       		.sleb128 -20
 2980 0d7b 00       		.byte	0
 2981 0d7c 05       		.uleb128 0x5
 2982 0d7d 04       		.byte	0x4
 2983 0d7e 150B0000 		.4byte	0xb15
 2984 0d82 15       		.uleb128 0x15
 2985 0d83 BB0A0000 		.4byte	.LASF305
 2986 0d87 01       		.byte	0x1
 2987 0d88 9603     		.2byte	0x396
 2988 0d8a 00000000 		.4byte	.LFB3
ARM GAS  C:\Users\ADMINI~1\AppData\Local\Temp\ccvQPEdN.s 			page 74


 2989 0d8e 48000000 		.4byte	.LFE3-.LFB3
 2990 0d92 01       		.uleb128 0x1
 2991 0d93 9C       		.byte	0x9c
 2992 0d94 A80D0000 		.4byte	0xda8
 2993 0d98 16       		.uleb128 0x16
 2994 0d99 C50E0000 		.4byte	.LASF292
 2995 0d9d 01       		.byte	0x1
 2996 0d9e 9603     		.2byte	0x396
 2997 0da0 DC0B0000 		.4byte	0xbdc
 2998 0da4 02       		.uleb128 0x2
 2999 0da5 91       		.byte	0x91
 3000 0da6 74       		.sleb128 -12
 3001 0da7 00       		.byte	0
 3002 0da8 1A       		.uleb128 0x1a
 3003 0da9 CD120000 		.4byte	.LASF306
 3004 0dad 01       		.byte	0x1
 3005 0dae B803     		.2byte	0x3b8
 3006 0db0 00000000 		.4byte	.LFB4
 3007 0db4 4C000000 		.4byte	.LFE4-.LFB4
 3008 0db8 01       		.uleb128 0x1
 3009 0db9 9C       		.byte	0x9c
 3010 0dba CE0D0000 		.4byte	0xdce
 3011 0dbe 16       		.uleb128 0x16
 3012 0dbf C50E0000 		.4byte	.LASF292
 3013 0dc3 01       		.byte	0x1
 3014 0dc4 B803     		.2byte	0x3b8
 3015 0dc6 DC0B0000 		.4byte	0xbdc
 3016 0dca 02       		.uleb128 0x2
 3017 0dcb 91       		.byte	0x91
 3018 0dcc 74       		.sleb128 -12
 3019 0dcd 00       		.byte	0
 3020 0dce 1A       		.uleb128 0x1a
 3021 0dcf 940D0000 		.4byte	.LASF307
 3022 0dd3 01       		.byte	0x1
 3023 0dd4 C703     		.2byte	0x3c7
 3024 0dd6 00000000 		.4byte	.LFB5
 3025 0dda 6C000000 		.4byte	.LFE5-.LFB5
 3026 0dde 01       		.uleb128 0x1
 3027 0ddf 9C       		.byte	0x9c
 3028 0de0 120E0000 		.4byte	0xe12
 3029 0de4 16       		.uleb128 0x16
 3030 0de5 C50E0000 		.4byte	.LASF292
 3031 0de9 01       		.byte	0x1
 3032 0dea C703     		.2byte	0x3c7
 3033 0dec DC0B0000 		.4byte	0xbdc
 3034 0df0 02       		.uleb128 0x2
 3035 0df1 91       		.byte	0x91
 3036 0df2 6C       		.sleb128 -20
 3037 0df3 18       		.uleb128 0x18
 3038 0df4 3C130000 		.4byte	.LASF308
 3039 0df8 01       		.byte	0x1
 3040 0df9 C903     		.2byte	0x3c9
 3041 0dfb DC0B0000 		.4byte	0xbdc
 3042 0dff 02       		.uleb128 0x2
 3043 0e00 91       		.byte	0x91
 3044 0e01 70       		.sleb128 -16
 3045 0e02 18       		.uleb128 0x18
ARM GAS  C:\Users\ADMINI~1\AppData\Local\Temp\ccvQPEdN.s 			page 75


 3046 0e03 22000000 		.4byte	.LASF309
 3047 0e07 01       		.byte	0x1
 3048 0e08 CA03     		.2byte	0x3ca
 3049 0e0a DC0B0000 		.4byte	0xbdc
 3050 0e0e 02       		.uleb128 0x2
 3051 0e0f 91       		.byte	0x91
 3052 0e10 74       		.sleb128 -12
 3053 0e11 00       		.byte	0
 3054 0e12 1A       		.uleb128 0x1a
 3055 0e13 32110000 		.4byte	.LASF310
 3056 0e17 01       		.byte	0x1
 3057 0e18 F703     		.2byte	0x3f7
 3058 0e1a 00000000 		.4byte	.LFB6
 3059 0e1e 20000000 		.4byte	.LFE6-.LFB6
 3060 0e22 01       		.uleb128 0x1
 3061 0e23 9C       		.byte	0x9c
 3062 0e24 470E0000 		.4byte	0xe47
 3063 0e28 16       		.uleb128 0x16
 3064 0e29 C70A0000 		.4byte	.LASF301
 3065 0e2d 01       		.byte	0x1
 3066 0e2e F703     		.2byte	0x3f7
 3067 0e30 BE0B0000 		.4byte	0xbbe
 3068 0e34 02       		.uleb128 0x2
 3069 0e35 91       		.byte	0x91
 3070 0e36 74       		.sleb128 -12
 3071 0e37 16       		.uleb128 0x16
 3072 0e38 C50E0000 		.4byte	.LASF292
 3073 0e3c 01       		.byte	0x1
 3074 0e3d F703     		.2byte	0x3f7
 3075 0e3f DC0B0000 		.4byte	0xbdc
 3076 0e43 02       		.uleb128 0x2
 3077 0e44 91       		.byte	0x91
 3078 0e45 70       		.sleb128 -16
 3079 0e46 00       		.byte	0
 3080 0e47 1A       		.uleb128 0x1a
 3081 0e48 3D000000 		.4byte	.LASF311
 3082 0e4c 01       		.byte	0x1
 3083 0e4d 1004     		.2byte	0x410
 3084 0e4f 00000000 		.4byte	.LFB7
 3085 0e53 36000000 		.4byte	.LFE7-.LFB7
 3086 0e57 01       		.uleb128 0x1
 3087 0e58 9C       		.byte	0x9c
 3088 0e59 8B0E0000 		.4byte	0xe8b
 3089 0e5d 16       		.uleb128 0x16
 3090 0e5e C70A0000 		.4byte	.LASF301
 3091 0e62 01       		.byte	0x1
 3092 0e63 1004     		.2byte	0x410
 3093 0e65 BE0B0000 		.4byte	0xbbe
 3094 0e69 02       		.uleb128 0x2
 3095 0e6a 91       		.byte	0x91
 3096 0e6b 6C       		.sleb128 -20
 3097 0e6c 16       		.uleb128 0x16
 3098 0e6d C50E0000 		.4byte	.LASF292
 3099 0e71 01       		.byte	0x1
 3100 0e72 1004     		.2byte	0x410
 3101 0e74 DC0B0000 		.4byte	0xbdc
 3102 0e78 02       		.uleb128 0x2
ARM GAS  C:\Users\ADMINI~1\AppData\Local\Temp\ccvQPEdN.s 			page 76


 3103 0e79 91       		.byte	0x91
 3104 0e7a 68       		.sleb128 -24
 3105 0e7b 18       		.uleb128 0x18
 3106 0e7c 63070000 		.4byte	.LASF312
 3107 0e80 01       		.byte	0x1
 3108 0e81 1204     		.2byte	0x412
 3109 0e83 8B0E0000 		.4byte	0xe8b
 3110 0e87 02       		.uleb128 0x2
 3111 0e88 91       		.byte	0x91
 3112 0e89 74       		.sleb128 -12
 3113 0e8a 00       		.byte	0
 3114 0e8b 05       		.uleb128 0x5
 3115 0e8c 04       		.byte	0x4
 3116 0e8d DC0B0000 		.4byte	0xbdc
 3117 0e91 1B       		.uleb128 0x1b
 3118 0e92 B8090000 		.4byte	.LASF328
 3119 0e96 01       		.byte	0x1
 3120 0e97 2E04     		.2byte	0x42e
 3121 0e99 62010000 		.4byte	0x162
 3122 0e9d 00000000 		.4byte	.LFB8
 3123 0ea1 6E000000 		.4byte	.LFE8-.LFB8
 3124 0ea5 01       		.uleb128 0x1
 3125 0ea6 9C       		.byte	0x9c
 3126 0ea7 F70E0000 		.4byte	0xef7
 3127 0eab 16       		.uleb128 0x16
 3128 0eac C70A0000 		.4byte	.LASF301
 3129 0eb0 01       		.byte	0x1
 3130 0eb1 2E04     		.2byte	0x42e
 3131 0eb3 BE0B0000 		.4byte	0xbbe
 3132 0eb7 02       		.uleb128 0x2
 3133 0eb8 91       		.byte	0x91
 3134 0eb9 64       		.sleb128 -28
 3135 0eba 18       		.uleb128 0x18
 3136 0ebb 63070000 		.4byte	.LASF312
 3137 0ebf 01       		.byte	0x1
 3138 0ec0 3004     		.2byte	0x430
 3139 0ec2 8B0E0000 		.4byte	0xe8b
 3140 0ec6 02       		.uleb128 0x2
 3141 0ec7 91       		.byte	0x91
 3142 0ec8 74       		.sleb128 -12
 3143 0ec9 18       		.uleb128 0x18
 3144 0eca 030B0000 		.4byte	.LASF313
 3145 0ece 01       		.byte	0x1
 3146 0ecf 3104     		.2byte	0x431
 3147 0ed1 62010000 		.4byte	0x162
 3148 0ed5 02       		.uleb128 0x2
 3149 0ed6 91       		.byte	0x91
 3150 0ed7 73       		.sleb128 -13
 3151 0ed8 18       		.uleb128 0x18
 3152 0ed9 270D0000 		.4byte	.LASF314
 3153 0edd 01       		.byte	0x1
 3154 0ede 3204     		.2byte	0x432
 3155 0ee0 62010000 		.4byte	0x162
 3156 0ee4 02       		.uleb128 0x2
 3157 0ee5 91       		.byte	0x91
 3158 0ee6 6B       		.sleb128 -21
 3159 0ee7 18       		.uleb128 0x18
ARM GAS  C:\Users\ADMINI~1\AppData\Local\Temp\ccvQPEdN.s 			page 77


 3160 0ee8 A50F0000 		.4byte	.LASF315
 3161 0eec 01       		.byte	0x1
 3162 0eed 3304     		.2byte	0x433
 3163 0eef C40B0000 		.4byte	0xbc4
 3164 0ef3 02       		.uleb128 0x2
 3165 0ef4 91       		.byte	0x91
 3166 0ef5 6C       		.sleb128 -20
 3167 0ef6 00       		.byte	0
 3168 0ef7 15       		.uleb128 0x15
 3169 0ef8 00120000 		.4byte	.LASF316
 3170 0efc 01       		.byte	0x1
 3171 0efd 5904     		.2byte	0x459
 3172 0eff 00000000 		.4byte	.LFB9
 3173 0f03 92000000 		.4byte	.LFE9-.LFB9
 3174 0f07 01       		.uleb128 0x1
 3175 0f08 9C       		.byte	0x9c
 3176 0f09 670F0000 		.4byte	0xf67
 3177 0f0d 16       		.uleb128 0x16
 3178 0f0e C70A0000 		.4byte	.LASF301
 3179 0f12 01       		.byte	0x1
 3180 0f13 5904     		.2byte	0x459
 3181 0f15 BE0B0000 		.4byte	0xbbe
 3182 0f19 02       		.uleb128 0x2
 3183 0f1a 91       		.byte	0x91
 3184 0f1b 5C       		.sleb128 -36
 3185 0f1c 18       		.uleb128 0x18
 3186 0f1d C50E0000 		.4byte	.LASF292
 3187 0f21 01       		.byte	0x1
 3188 0f22 5B04     		.2byte	0x45b
 3189 0f24 DC0B0000 		.4byte	0xbdc
 3190 0f28 02       		.uleb128 0x2
 3191 0f29 91       		.byte	0x91
 3192 0f2a 74       		.sleb128 -12
 3193 0f2b 18       		.uleb128 0x18
 3194 0f2c 3C130000 		.4byte	.LASF308
 3195 0f30 01       		.byte	0x1
 3196 0f31 5C04     		.2byte	0x45c
 3197 0f33 DC0B0000 		.4byte	0xbdc
 3198 0f37 02       		.uleb128 0x2
 3199 0f38 91       		.byte	0x91
 3200 0f39 70       		.sleb128 -16
 3201 0f3a 19       		.uleb128 0x19
 3202 0f3b 747300   		.ascii	"ts\000"
 3203 0f3e 01       		.byte	0x1
 3204 0f3f 5D04     		.2byte	0x45d
 3205 0f41 E9000000 		.4byte	0xe9
 3206 0f45 02       		.uleb128 0x2
 3207 0f46 91       		.byte	0x91
 3208 0f47 6C       		.sleb128 -20
 3209 0f48 18       		.uleb128 0x18
 3210 0f49 67040000 		.4byte	.LASF303
 3211 0f4d 01       		.byte	0x1
 3212 0f4e 5E04     		.2byte	0x45e
 3213 0f50 7C0D0000 		.4byte	0xd7c
 3214 0f54 02       		.uleb128 0x2
 3215 0f55 91       		.byte	0x91
 3216 0f56 68       		.sleb128 -24
ARM GAS  C:\Users\ADMINI~1\AppData\Local\Temp\ccvQPEdN.s 			page 78


 3217 0f57 18       		.uleb128 0x18
 3218 0f58 B4070000 		.4byte	.LASF317
 3219 0f5c 01       		.byte	0x1
 3220 0f5d 5F04     		.2byte	0x45f
 3221 0f5f BE0B0000 		.4byte	0xbbe
 3222 0f63 02       		.uleb128 0x2
 3223 0f64 91       		.byte	0x91
 3224 0f65 64       		.sleb128 -28
 3225 0f66 00       		.byte	0
 3226 0f67 1C       		.uleb128 0x1c
 3227 0f68 AA0D0000 		.4byte	.LASF318
 3228 0f6c 05       		.byte	0x5
 3229 0f6d 2405     		.2byte	0x524
 3230 0f6f 36010000 		.4byte	0x136
 3231 0f73 1C       		.uleb128 0x1c
 3232 0f74 EE020000 		.4byte	.LASF319
 3233 0f78 05       		.byte	0x5
 3234 0f79 5405     		.2byte	0x554
 3235 0f7b DC0B0000 		.4byte	0xbdc
 3236 0f7f 1C       		.uleb128 0x1c
 3237 0f80 A6040000 		.4byte	.LASF320
 3238 0f84 05       		.byte	0x5
 3239 0f85 5505     		.2byte	0x555
 3240 0f87 41010000 		.4byte	0x141
 3241 0f8b 1C       		.uleb128 0x1c
 3242 0f8c 3A070000 		.4byte	.LASF321
 3243 0f90 05       		.byte	0x5
 3244 0f91 5A05     		.2byte	0x55a
 3245 0f93 62010000 		.4byte	0x162
 3246 0f97 1C       		.uleb128 0x1c
 3247 0f98 0D110000 		.4byte	.LASF322
 3248 0f9c 05       		.byte	0x5
 3249 0f9d 7905     		.2byte	0x579
 3250 0f9f 36010000 		.4byte	0x136
 3251 0fa3 1C       		.uleb128 0x1c
 3252 0fa4 30020000 		.4byte	.LASF323
 3253 0fa8 05       		.byte	0x5
 3254 0fa9 D505     		.2byte	0x5d5
 3255 0fab BE0B0000 		.4byte	0xbbe
 3256 0faf 00       		.byte	0
 3257              		.section	.debug_abbrev,"",%progbits
 3258              	.Ldebug_abbrev0:
 3259 0000 01       		.uleb128 0x1
 3260 0001 11       		.uleb128 0x11
 3261 0002 01       		.byte	0x1
 3262 0003 25       		.uleb128 0x25
 3263 0004 0E       		.uleb128 0xe
 3264 0005 13       		.uleb128 0x13
 3265 0006 0B       		.uleb128 0xb
 3266 0007 03       		.uleb128 0x3
 3267 0008 0E       		.uleb128 0xe
 3268 0009 1B       		.uleb128 0x1b
 3269 000a 0E       		.uleb128 0xe
 3270 000b 55       		.uleb128 0x55
 3271 000c 17       		.uleb128 0x17
 3272 000d 11       		.uleb128 0x11
 3273 000e 01       		.uleb128 0x1
ARM GAS  C:\Users\ADMINI~1\AppData\Local\Temp\ccvQPEdN.s 			page 79


 3274 000f 10       		.uleb128 0x10
 3275 0010 17       		.uleb128 0x17
 3276 0011 00       		.byte	0
 3277 0012 00       		.byte	0
 3278 0013 02       		.uleb128 0x2
 3279 0014 16       		.uleb128 0x16
 3280 0015 00       		.byte	0
 3281 0016 03       		.uleb128 0x3
 3282 0017 0E       		.uleb128 0xe
 3283 0018 3A       		.uleb128 0x3a
 3284 0019 0B       		.uleb128 0xb
 3285 001a 3B       		.uleb128 0x3b
 3286 001b 0B       		.uleb128 0xb
 3287 001c 49       		.uleb128 0x49
 3288 001d 13       		.uleb128 0x13
 3289 001e 00       		.byte	0
 3290 001f 00       		.byte	0
 3291 0020 03       		.uleb128 0x3
 3292 0021 24       		.uleb128 0x24
 3293 0022 00       		.byte	0
 3294 0023 0B       		.uleb128 0xb
 3295 0024 0B       		.uleb128 0xb
 3296 0025 3E       		.uleb128 0x3e
 3297 0026 0B       		.uleb128 0xb
 3298 0027 03       		.uleb128 0x3
 3299 0028 0E       		.uleb128 0xe
 3300 0029 00       		.byte	0
 3301 002a 00       		.byte	0
 3302 002b 04       		.uleb128 0x4
 3303 002c 24       		.uleb128 0x24
 3304 002d 00       		.byte	0
 3305 002e 0B       		.uleb128 0xb
 3306 002f 0B       		.uleb128 0xb
 3307 0030 3E       		.uleb128 0x3e
 3308 0031 0B       		.uleb128 0xb
 3309 0032 03       		.uleb128 0x3
 3310 0033 08       		.uleb128 0x8
 3311 0034 00       		.byte	0
 3312 0035 00       		.byte	0
 3313 0036 05       		.uleb128 0x5
 3314 0037 0F       		.uleb128 0xf
 3315 0038 00       		.byte	0
 3316 0039 0B       		.uleb128 0xb
 3317 003a 0B       		.uleb128 0xb
 3318 003b 49       		.uleb128 0x49
 3319 003c 13       		.uleb128 0x13
 3320 003d 00       		.byte	0
 3321 003e 00       		.byte	0
 3322 003f 06       		.uleb128 0x6
 3323 0040 15       		.uleb128 0x15
 3324 0041 01       		.byte	0x1
 3325 0042 27       		.uleb128 0x27
 3326 0043 19       		.uleb128 0x19
 3327 0044 01       		.uleb128 0x1
 3328 0045 13       		.uleb128 0x13
 3329 0046 00       		.byte	0
 3330 0047 00       		.byte	0
ARM GAS  C:\Users\ADMINI~1\AppData\Local\Temp\ccvQPEdN.s 			page 80


 3331 0048 07       		.uleb128 0x7
 3332 0049 05       		.uleb128 0x5
 3333 004a 00       		.byte	0
 3334 004b 49       		.uleb128 0x49
 3335 004c 13       		.uleb128 0x13
 3336 004d 00       		.byte	0
 3337 004e 00       		.byte	0
 3338 004f 08       		.uleb128 0x8
 3339 0050 0F       		.uleb128 0xf
 3340 0051 00       		.byte	0
 3341 0052 0B       		.uleb128 0xb
 3342 0053 0B       		.uleb128 0xb
 3343 0054 00       		.byte	0
 3344 0055 00       		.byte	0
 3345 0056 09       		.uleb128 0x9
 3346 0057 16       		.uleb128 0x16
 3347 0058 00       		.byte	0
 3348 0059 03       		.uleb128 0x3
 3349 005a 0E       		.uleb128 0xe
 3350 005b 3A       		.uleb128 0x3a
 3351 005c 0B       		.uleb128 0xb
 3352 005d 3B       		.uleb128 0x3b
 3353 005e 05       		.uleb128 0x5
 3354 005f 49       		.uleb128 0x49
 3355 0060 13       		.uleb128 0x13
 3356 0061 00       		.byte	0
 3357 0062 00       		.byte	0
 3358 0063 0A       		.uleb128 0xa
 3359 0064 04       		.uleb128 0x4
 3360 0065 01       		.byte	0x1
 3361 0066 03       		.uleb128 0x3
 3362 0067 0E       		.uleb128 0xe
 3363 0068 0B       		.uleb128 0xb
 3364 0069 0B       		.uleb128 0xb
 3365 006a 49       		.uleb128 0x49
 3366 006b 13       		.uleb128 0x13
 3367 006c 3A       		.uleb128 0x3a
 3368 006d 0B       		.uleb128 0xb
 3369 006e 3B       		.uleb128 0x3b
 3370 006f 05       		.uleb128 0x5
 3371 0070 01       		.uleb128 0x1
 3372 0071 13       		.uleb128 0x13
 3373 0072 00       		.byte	0
 3374 0073 00       		.byte	0
 3375 0074 0B       		.uleb128 0xb
 3376 0075 28       		.uleb128 0x28
 3377 0076 00       		.byte	0
 3378 0077 03       		.uleb128 0x3
 3379 0078 0E       		.uleb128 0xe
 3380 0079 1C       		.uleb128 0x1c
 3381 007a 0B       		.uleb128 0xb
 3382 007b 00       		.byte	0
 3383 007c 00       		.byte	0
 3384 007d 0C       		.uleb128 0xc
 3385 007e 28       		.uleb128 0x28
 3386 007f 00       		.byte	0
 3387 0080 03       		.uleb128 0x3
ARM GAS  C:\Users\ADMINI~1\AppData\Local\Temp\ccvQPEdN.s 			page 81


 3388 0081 0E       		.uleb128 0xe
 3389 0082 1C       		.uleb128 0x1c
 3390 0083 05       		.uleb128 0x5
 3391 0084 00       		.byte	0
 3392 0085 00       		.byte	0
 3393 0086 0D       		.uleb128 0xd
 3394 0087 13       		.uleb128 0x13
 3395 0088 01       		.byte	0x1
 3396 0089 03       		.uleb128 0x3
 3397 008a 0E       		.uleb128 0xe
 3398 008b 0B       		.uleb128 0xb
 3399 008c 0B       		.uleb128 0xb
 3400 008d 3A       		.uleb128 0x3a
 3401 008e 0B       		.uleb128 0xb
 3402 008f 3B       		.uleb128 0x3b
 3403 0090 05       		.uleb128 0x5
 3404 0091 01       		.uleb128 0x1
 3405 0092 13       		.uleb128 0x13
 3406 0093 00       		.byte	0
 3407 0094 00       		.byte	0
 3408 0095 0E       		.uleb128 0xe
 3409 0096 0D       		.uleb128 0xd
 3410 0097 00       		.byte	0
 3411 0098 03       		.uleb128 0x3
 3412 0099 0E       		.uleb128 0xe
 3413 009a 3A       		.uleb128 0x3a
 3414 009b 0B       		.uleb128 0xb
 3415 009c 3B       		.uleb128 0x3b
 3416 009d 05       		.uleb128 0x5
 3417 009e 49       		.uleb128 0x49
 3418 009f 13       		.uleb128 0x13
 3419 00a0 38       		.uleb128 0x38
 3420 00a1 0B       		.uleb128 0xb
 3421 00a2 00       		.byte	0
 3422 00a3 00       		.byte	0
 3423 00a4 0F       		.uleb128 0xf
 3424 00a5 0D       		.uleb128 0xd
 3425 00a6 00       		.byte	0
 3426 00a7 03       		.uleb128 0x3
 3427 00a8 08       		.uleb128 0x8
 3428 00a9 3A       		.uleb128 0x3a
 3429 00aa 0B       		.uleb128 0xb
 3430 00ab 3B       		.uleb128 0x3b
 3431 00ac 05       		.uleb128 0x5
 3432 00ad 49       		.uleb128 0x49
 3433 00ae 13       		.uleb128 0x13
 3434 00af 38       		.uleb128 0x38
 3435 00b0 0B       		.uleb128 0xb
 3436 00b1 00       		.byte	0
 3437 00b2 00       		.byte	0
 3438 00b3 10       		.uleb128 0x10
 3439 00b4 01       		.uleb128 0x1
 3440 00b5 01       		.byte	0x1
 3441 00b6 49       		.uleb128 0x49
 3442 00b7 13       		.uleb128 0x13
 3443 00b8 01       		.uleb128 0x1
 3444 00b9 13       		.uleb128 0x13
ARM GAS  C:\Users\ADMINI~1\AppData\Local\Temp\ccvQPEdN.s 			page 82


 3445 00ba 00       		.byte	0
 3446 00bb 00       		.byte	0
 3447 00bc 11       		.uleb128 0x11
 3448 00bd 21       		.uleb128 0x21
 3449 00be 00       		.byte	0
 3450 00bf 49       		.uleb128 0x49
 3451 00c0 13       		.uleb128 0x13
 3452 00c1 2F       		.uleb128 0x2f
 3453 00c2 0B       		.uleb128 0xb
 3454 00c3 00       		.byte	0
 3455 00c4 00       		.byte	0
 3456 00c5 12       		.uleb128 0x12
 3457 00c6 2E       		.uleb128 0x2e
 3458 00c7 01       		.byte	0x1
 3459 00c8 3F       		.uleb128 0x3f
 3460 00c9 19       		.uleb128 0x19
 3461 00ca 03       		.uleb128 0x3
 3462 00cb 0E       		.uleb128 0xe
 3463 00cc 3A       		.uleb128 0x3a
 3464 00cd 0B       		.uleb128 0xb
 3465 00ce 3B       		.uleb128 0x3b
 3466 00cf 0B       		.uleb128 0xb
 3467 00d0 27       		.uleb128 0x27
 3468 00d1 19       		.uleb128 0x19
 3469 00d2 11       		.uleb128 0x11
 3470 00d3 01       		.uleb128 0x1
 3471 00d4 12       		.uleb128 0x12
 3472 00d5 06       		.uleb128 0x6
 3473 00d6 40       		.uleb128 0x40
 3474 00d7 18       		.uleb128 0x18
 3475 00d8 9642     		.uleb128 0x2116
 3476 00da 19       		.uleb128 0x19
 3477 00db 01       		.uleb128 0x1
 3478 00dc 13       		.uleb128 0x13
 3479 00dd 00       		.byte	0
 3480 00de 00       		.byte	0
 3481 00df 13       		.uleb128 0x13
 3482 00e0 05       		.uleb128 0x5
 3483 00e1 00       		.byte	0
 3484 00e2 03       		.uleb128 0x3
 3485 00e3 0E       		.uleb128 0xe
 3486 00e4 3A       		.uleb128 0x3a
 3487 00e5 0B       		.uleb128 0xb
 3488 00e6 3B       		.uleb128 0x3b
 3489 00e7 0B       		.uleb128 0xb
 3490 00e8 49       		.uleb128 0x49
 3491 00e9 13       		.uleb128 0x13
 3492 00ea 02       		.uleb128 0x2
 3493 00eb 18       		.uleb128 0x18
 3494 00ec 00       		.byte	0
 3495 00ed 00       		.byte	0
 3496 00ee 14       		.uleb128 0x14
 3497 00ef 34       		.uleb128 0x34
 3498 00f0 00       		.byte	0
 3499 00f1 03       		.uleb128 0x3
 3500 00f2 0E       		.uleb128 0xe
 3501 00f3 3A       		.uleb128 0x3a
ARM GAS  C:\Users\ADMINI~1\AppData\Local\Temp\ccvQPEdN.s 			page 83


 3502 00f4 0B       		.uleb128 0xb
 3503 00f5 3B       		.uleb128 0x3b
 3504 00f6 0B       		.uleb128 0xb
 3505 00f7 49       		.uleb128 0x49
 3506 00f8 13       		.uleb128 0x13
 3507 00f9 02       		.uleb128 0x2
 3508 00fa 18       		.uleb128 0x18
 3509 00fb 00       		.byte	0
 3510 00fc 00       		.byte	0
 3511 00fd 15       		.uleb128 0x15
 3512 00fe 2E       		.uleb128 0x2e
 3513 00ff 01       		.byte	0x1
 3514 0100 3F       		.uleb128 0x3f
 3515 0101 19       		.uleb128 0x19
 3516 0102 03       		.uleb128 0x3
 3517 0103 0E       		.uleb128 0xe
 3518 0104 3A       		.uleb128 0x3a
 3519 0105 0B       		.uleb128 0xb
 3520 0106 3B       		.uleb128 0x3b
 3521 0107 05       		.uleb128 0x5
 3522 0108 27       		.uleb128 0x27
 3523 0109 19       		.uleb128 0x19
 3524 010a 11       		.uleb128 0x11
 3525 010b 01       		.uleb128 0x1
 3526 010c 12       		.uleb128 0x12
 3527 010d 06       		.uleb128 0x6
 3528 010e 40       		.uleb128 0x40
 3529 010f 18       		.uleb128 0x18
 3530 0110 9642     		.uleb128 0x2116
 3531 0112 19       		.uleb128 0x19
 3532 0113 01       		.uleb128 0x1
 3533 0114 13       		.uleb128 0x13
 3534 0115 00       		.byte	0
 3535 0116 00       		.byte	0
 3536 0117 16       		.uleb128 0x16
 3537 0118 05       		.uleb128 0x5
 3538 0119 00       		.byte	0
 3539 011a 03       		.uleb128 0x3
 3540 011b 0E       		.uleb128 0xe
 3541 011c 3A       		.uleb128 0x3a
 3542 011d 0B       		.uleb128 0xb
 3543 011e 3B       		.uleb128 0x3b
 3544 011f 05       		.uleb128 0x5
 3545 0120 49       		.uleb128 0x49
 3546 0121 13       		.uleb128 0x13
 3547 0122 02       		.uleb128 0x2
 3548 0123 18       		.uleb128 0x18
 3549 0124 00       		.byte	0
 3550 0125 00       		.byte	0
 3551 0126 17       		.uleb128 0x17
 3552 0127 05       		.uleb128 0x5
 3553 0128 00       		.byte	0
 3554 0129 03       		.uleb128 0x3
 3555 012a 08       		.uleb128 0x8
 3556 012b 3A       		.uleb128 0x3a
 3557 012c 0B       		.uleb128 0xb
 3558 012d 3B       		.uleb128 0x3b
ARM GAS  C:\Users\ADMINI~1\AppData\Local\Temp\ccvQPEdN.s 			page 84


 3559 012e 05       		.uleb128 0x5
 3560 012f 49       		.uleb128 0x49
 3561 0130 13       		.uleb128 0x13
 3562 0131 02       		.uleb128 0x2
 3563 0132 18       		.uleb128 0x18
 3564 0133 00       		.byte	0
 3565 0134 00       		.byte	0
 3566 0135 18       		.uleb128 0x18
 3567 0136 34       		.uleb128 0x34
 3568 0137 00       		.byte	0
 3569 0138 03       		.uleb128 0x3
 3570 0139 0E       		.uleb128 0xe
 3571 013a 3A       		.uleb128 0x3a
 3572 013b 0B       		.uleb128 0xb
 3573 013c 3B       		.uleb128 0x3b
 3574 013d 05       		.uleb128 0x5
 3575 013e 49       		.uleb128 0x49
 3576 013f 13       		.uleb128 0x13
 3577 0140 02       		.uleb128 0x2
 3578 0141 18       		.uleb128 0x18
 3579 0142 00       		.byte	0
 3580 0143 00       		.byte	0
 3581 0144 19       		.uleb128 0x19
 3582 0145 34       		.uleb128 0x34
 3583 0146 00       		.byte	0
 3584 0147 03       		.uleb128 0x3
 3585 0148 08       		.uleb128 0x8
 3586 0149 3A       		.uleb128 0x3a
 3587 014a 0B       		.uleb128 0xb
 3588 014b 3B       		.uleb128 0x3b
 3589 014c 05       		.uleb128 0x5
 3590 014d 49       		.uleb128 0x49
 3591 014e 13       		.uleb128 0x13
 3592 014f 02       		.uleb128 0x2
 3593 0150 18       		.uleb128 0x18
 3594 0151 00       		.byte	0
 3595 0152 00       		.byte	0
 3596 0153 1A       		.uleb128 0x1a
 3597 0154 2E       		.uleb128 0x2e
 3598 0155 01       		.byte	0x1
 3599 0156 3F       		.uleb128 0x3f
 3600 0157 19       		.uleb128 0x19
 3601 0158 03       		.uleb128 0x3
 3602 0159 0E       		.uleb128 0xe
 3603 015a 3A       		.uleb128 0x3a
 3604 015b 0B       		.uleb128 0xb
 3605 015c 3B       		.uleb128 0x3b
 3606 015d 05       		.uleb128 0x5
 3607 015e 27       		.uleb128 0x27
 3608 015f 19       		.uleb128 0x19
 3609 0160 11       		.uleb128 0x11
 3610 0161 01       		.uleb128 0x1
 3611 0162 12       		.uleb128 0x12
 3612 0163 06       		.uleb128 0x6
 3613 0164 40       		.uleb128 0x40
 3614 0165 18       		.uleb128 0x18
 3615 0166 9742     		.uleb128 0x2117
ARM GAS  C:\Users\ADMINI~1\AppData\Local\Temp\ccvQPEdN.s 			page 85


 3616 0168 19       		.uleb128 0x19
 3617 0169 01       		.uleb128 0x1
 3618 016a 13       		.uleb128 0x13
 3619 016b 00       		.byte	0
 3620 016c 00       		.byte	0
 3621 016d 1B       		.uleb128 0x1b
 3622 016e 2E       		.uleb128 0x2e
 3623 016f 01       		.byte	0x1
 3624 0170 3F       		.uleb128 0x3f
 3625 0171 19       		.uleb128 0x19
 3626 0172 03       		.uleb128 0x3
 3627 0173 0E       		.uleb128 0xe
 3628 0174 3A       		.uleb128 0x3a
 3629 0175 0B       		.uleb128 0xb
 3630 0176 3B       		.uleb128 0x3b
 3631 0177 05       		.uleb128 0x5
 3632 0178 27       		.uleb128 0x27
 3633 0179 19       		.uleb128 0x19
 3634 017a 49       		.uleb128 0x49
 3635 017b 13       		.uleb128 0x13
 3636 017c 11       		.uleb128 0x11
 3637 017d 01       		.uleb128 0x1
 3638 017e 12       		.uleb128 0x12
 3639 017f 06       		.uleb128 0x6
 3640 0180 40       		.uleb128 0x40
 3641 0181 18       		.uleb128 0x18
 3642 0182 9742     		.uleb128 0x2117
 3643 0184 19       		.uleb128 0x19
 3644 0185 01       		.uleb128 0x1
 3645 0186 13       		.uleb128 0x13
 3646 0187 00       		.byte	0
 3647 0188 00       		.byte	0
 3648 0189 1C       		.uleb128 0x1c
 3649 018a 34       		.uleb128 0x34
 3650 018b 00       		.byte	0
 3651 018c 03       		.uleb128 0x3
 3652 018d 0E       		.uleb128 0xe
 3653 018e 3A       		.uleb128 0x3a
 3654 018f 0B       		.uleb128 0xb
 3655 0190 3B       		.uleb128 0x3b
 3656 0191 05       		.uleb128 0x5
 3657 0192 49       		.uleb128 0x49
 3658 0193 13       		.uleb128 0x13
 3659 0194 3F       		.uleb128 0x3f
 3660 0195 19       		.uleb128 0x19
 3661 0196 3C       		.uleb128 0x3c
 3662 0197 19       		.uleb128 0x19
 3663 0198 00       		.byte	0
 3664 0199 00       		.byte	0
 3665 019a 00       		.byte	0
 3666              		.section	.debug_aranges,"",%progbits
 3667 0000 64000000 		.4byte	0x64
 3668 0004 0200     		.2byte	0x2
 3669 0006 00000000 		.4byte	.Ldebug_info0
 3670 000a 04       		.byte	0x4
 3671 000b 00       		.byte	0
 3672 000c 0000     		.2byte	0
ARM GAS  C:\Users\ADMINI~1\AppData\Local\Temp\ccvQPEdN.s 			page 86


 3673 000e 0000     		.2byte	0
 3674 0010 00000000 		.4byte	.LFB0
 3675 0014 AC000000 		.4byte	.LFE0-.LFB0
 3676 0018 00000000 		.4byte	.LFB1
 3677 001c 70020000 		.4byte	.LFE1-.LFB1
 3678 0020 00000000 		.4byte	.LFB2
 3679 0024 00020000 		.4byte	.LFE2-.LFB2
 3680 0028 00000000 		.4byte	.LFB3
 3681 002c 48000000 		.4byte	.LFE3-.LFB3
 3682 0030 00000000 		.4byte	.LFB4
 3683 0034 4C000000 		.4byte	.LFE4-.LFB4
 3684 0038 00000000 		.4byte	.LFB5
 3685 003c 6C000000 		.4byte	.LFE5-.LFB5
 3686 0040 00000000 		.4byte	.LFB6
 3687 0044 20000000 		.4byte	.LFE6-.LFB6
 3688 0048 00000000 		.4byte	.LFB7
 3689 004c 36000000 		.4byte	.LFE7-.LFB7
 3690 0050 00000000 		.4byte	.LFB8
 3691 0054 6E000000 		.4byte	.LFE8-.LFB8
 3692 0058 00000000 		.4byte	.LFB9
 3693 005c 92000000 		.4byte	.LFE9-.LFB9
 3694 0060 00000000 		.4byte	0
 3695 0064 00000000 		.4byte	0
 3696              		.section	.debug_ranges,"",%progbits
 3697              	.Ldebug_ranges0:
 3698 0000 00000000 		.4byte	.LFB0
 3699 0004 AC000000 		.4byte	.LFE0
 3700 0008 00000000 		.4byte	.LFB1
 3701 000c 70020000 		.4byte	.LFE1
 3702 0010 00000000 		.4byte	.LFB2
 3703 0014 00020000 		.4byte	.LFE2
 3704 0018 00000000 		.4byte	.LFB3
 3705 001c 48000000 		.4byte	.LFE3
 3706 0020 00000000 		.4byte	.LFB4
 3707 0024 4C000000 		.4byte	.LFE4
 3708 0028 00000000 		.4byte	.LFB5
 3709 002c 6C000000 		.4byte	.LFE5
 3710 0030 00000000 		.4byte	.LFB6
 3711 0034 20000000 		.4byte	.LFE6
 3712 0038 00000000 		.4byte	.LFB7
 3713 003c 36000000 		.4byte	.LFE7
 3714 0040 00000000 		.4byte	.LFB8
 3715 0044 6E000000 		.4byte	.LFE8
 3716 0048 00000000 		.4byte	.LFB9
 3717 004c 92000000 		.4byte	.LFE9
 3718 0050 00000000 		.4byte	0
 3719 0054 00000000 		.4byte	0
 3720              		.section	.debug_line,"",%progbits
 3721              	.Ldebug_line0:
 3722 0000 6E020000 		.section	.debug_str,"MS",%progbits,1
 3722      0200CE00 
 3722      00000201 
 3722      FB0E0D00 
 3722      01010101 
 3723              	.LASF230:
 3724 0000 6F735F74 		.ascii	"os_tcb\000"
 3724      636200
ARM GAS  C:\Users\ADMINI~1\AppData\Local\Temp\ccvQPEdN.s 			page 87


 3725              	.LASF108:
 3726 0007 4F535F45 		.ascii	"OS_ERR_PRIO_INVALID\000"
 3726      52525F50 
 3726      52494F5F 
 3726      494E5641 
 3726      4C494400 
 3727              	.LASF203:
 3728 001b 4F535F45 		.ascii	"OS_ERR\000"
 3728      525200
 3729              	.LASF309:
 3730 0022 705F6D75 		.ascii	"p_mutex_prev\000"
 3730      7465785F 
 3730      70726576 
 3730      00
 3731              	.LASF21:
 3732 002f 4F535F43 		.ascii	"OS_CTX_SW_CTR\000"
 3732      54585F53 
 3732      575F4354 
 3732      5200
 3733              	.LASF311:
 3734 003d 4F535F4D 		.ascii	"OS_MutexGrpRemove\000"
 3734      75746578 
 3734      47727052 
 3734      656D6F76 
 3734      6500
 3735              	.LASF188:
 3736 004f 4F535F45 		.ascii	"OS_ERR_TMR_ISR\000"
 3736      52525F54 
 3736      4D525F49 
 3736      535200
 3737              	.LASF175:
 3738 005e 4F535F45 		.ascii	"OS_ERR_TIME_INVALID_MINUTES\000"
 3738      52525F54 
 3738      494D455F 
 3738      494E5641 
 3738      4C49445F 
 3739              	.LASF37:
 3740 007a 4F535F45 		.ascii	"OS_ERR_A\000"
 3740      52525F41 
 3740      00
 3741              	.LASF39:
 3742 0083 4F535F45 		.ascii	"OS_ERR_B\000"
 3742      52525F42 
 3742      00
 3743              	.LASF40:
 3744 008c 4F535F45 		.ascii	"OS_ERR_C\000"
 3744      52525F43 
 3744      00
 3745              	.LASF42:
 3746 0095 4F535F45 		.ascii	"OS_ERR_D\000"
 3746      52525F44 
 3746      00
 3747              	.LASF44:
 3748 009e 4F535F45 		.ascii	"OS_ERR_E\000"
 3748      52525F45 
 3748      00
 3749              	.LASF45:
ARM GAS  C:\Users\ADMINI~1\AppData\Local\Temp\ccvQPEdN.s 			page 88


 3750 00a7 4F535F45 		.ascii	"OS_ERR_F\000"
 3750      52525F46 
 3750      00
 3751              	.LASF326:
 3752 00b0 443A5C43 		.ascii	"D:\\CYTEST\\Micrium_CY8CKIT-044_OS3\\Examples\\Cypr"
 3752      59544553 
 3752      545C4D69 
 3752      63726975 
 3752      6D5F4359 
 3753 00df 6573735C 		.ascii	"ess\\CY8CKIT-044\\OS3\\PSoC\\OS3.cydsn\000"
 3753      43593843 
 3753      4B49542D 
 3753      3034345C 
 3753      4F53335C 
 3754              	.LASF52:
 3755 0102 4F535F45 		.ascii	"OS_ERR_H\000"
 3755      52525F48 
 3755      00
 3756              	.LASF53:
 3757 010b 4F535F45 		.ascii	"OS_ERR_I\000"
 3757      52525F49 
 3757      00
 3758              	.LASF61:
 3759 0114 4F535F45 		.ascii	"OS_ERR_J\000"
 3759      52525F4A 
 3759      00
 3760              	.LASF62:
 3761 011d 4F535F45 		.ascii	"OS_ERR_K\000"
 3761      52525F4B 
 3761      00
 3762              	.LASF63:
 3763 0126 4F535F45 		.ascii	"OS_ERR_L\000"
 3763      52525F4C 
 3763      00
 3764              	.LASF65:
 3765 012f 4F535F45 		.ascii	"OS_ERR_M\000"
 3765      52525F4D 
 3765      00
 3766              	.LASF82:
 3767 0138 4F535F45 		.ascii	"OS_ERR_N\000"
 3767      52525F4E 
 3767      00
 3768              	.LASF85:
 3769 0141 4F535F45 		.ascii	"OS_ERR_O\000"
 3769      52525F4F 
 3769      00
 3770              	.LASF95:
 3771 014a 4F535F45 		.ascii	"OS_ERR_P\000"
 3771      52525F50 
 3771      00
 3772              	.LASF110:
 3773 0153 4F535F45 		.ascii	"OS_ERR_Q\000"
 3773      52525F51 
 3773      00
 3774              	.LASF115:
 3775 015c 4F535F45 		.ascii	"OS_ERR_R\000"
 3775      52525F52 
ARM GAS  C:\Users\ADMINI~1\AppData\Local\Temp\ccvQPEdN.s 			page 89


 3775      00
 3776              	.LASF119:
 3777 0165 4F535F45 		.ascii	"OS_ERR_S\000"
 3777      52525F53 
 3777      00
 3778              	.LASF136:
 3779 016e 4F535F45 		.ascii	"OS_ERR_T\000"
 3779      52525F54 
 3779      00
 3780              	.LASF196:
 3781 0177 4F535F45 		.ascii	"OS_ERR_U\000"
 3781      52525F55 
 3781      00
 3782              	.LASF197:
 3783 0180 4F535F45 		.ascii	"OS_ERR_V\000"
 3783      52525F56 
 3783      00
 3784              	.LASF198:
 3785 0189 4F535F45 		.ascii	"OS_ERR_W\000"
 3785      52525F57 
 3785      00
 3786              	.LASF199:
 3787 0192 4F535F45 		.ascii	"OS_ERR_X\000"
 3787      52525F58 
 3787      00
 3788              	.LASF185:
 3789 019b 4F535F45 		.ascii	"OS_ERR_TMR_INVALID_PERIOD\000"
 3789      52525F54 
 3789      4D525F49 
 3789      4E56414C 
 3789      49445F50 
 3790              	.LASF327:
 3791 01b5 6F735F65 		.ascii	"os_err\000"
 3791      727200
 3792              	.LASF215:
 3793 01bc 4E627245 		.ascii	"NbrEntries\000"
 3793      6E747269 
 3793      657300
 3794              	.LASF57:
 3795 01c7 4F535F45 		.ascii	"OS_ERR_INT_Q_SIZE\000"
 3795      52525F49 
 3795      4E545F51 
 3795      5F53495A 
 3795      4500
 3796              	.LASF41:
 3797 01d9 4F535F45 		.ascii	"OS_ERR_CREATE_ISR\000"
 3797      52525F43 
 3797      52454154 
 3797      455F4953 
 3797      5200
 3798              	.LASF227:
 3799 01eb 4F776E65 		.ascii	"OwnerNestingCtr\000"
 3799      724E6573 
 3799      74696E67 
 3799      43747200 
 3800              	.LASF20:
 3801 01fb 4F535F43 		.ascii	"OS_CPU_USAGE\000"
ARM GAS  C:\Users\ADMINI~1\AppData\Local\Temp\ccvQPEdN.s 			page 90


 3801      50555F55 
 3801      53414745 
 3801      00
 3802              	.LASF169:
 3803 0208 4F535F45 		.ascii	"OS_ERR_TICK_STK_SIZE_INVALID\000"
 3803      52525F54 
 3803      49434B5F 
 3803      53544B5F 
 3803      53495A45 
 3804              	.LASF8:
 3805 0225 4350555F 		.ascii	"CPU_INT32U\000"
 3805      494E5433 
 3805      325500
 3806              	.LASF323:
 3807 0230 4F535443 		.ascii	"OSTCBCurPtr\000"
 3807      42437572 
 3807      50747200 
 3808              	.LASF217:
 3809 023c 4F535F4D 		.ascii	"OS_MUTEX\000"
 3809      55544558 
 3809      00
 3810              	.LASF133:
 3811 0245 4F535F45 		.ascii	"OS_ERR_STK_INVALID\000"
 3811      52525F53 
 3811      544B5F49 
 3811      4E56414C 
 3811      494400
 3812              	.LASF258:
 3813 0258 466C6167 		.ascii	"FlagsOpt\000"
 3813      734F7074 
 3813      00
 3814              	.LASF149:
 3815 0261 4F535F45 		.ascii	"OS_ERR_TASK_RESUME_ISR\000"
 3815      52525F54 
 3815      41534B5F 
 3815      52455355 
 3815      4D455F49 
 3816              	.LASF103:
 3817 0278 4F535F45 		.ascii	"OS_ERR_PEND_WOULD_BLOCK\000"
 3817      52525F50 
 3817      454E445F 
 3817      574F554C 
 3817      445F424C 
 3818              	.LASF137:
 3819 0290 4F535F45 		.ascii	"OS_ERR_TASK_CHANGE_PRIO_ISR\000"
 3819      52525F54 
 3819      41534B5F 
 3819      4348414E 
 3819      47455F50 
 3820              	.LASF247:
 3821 02ac 4D757465 		.ascii	"MutexGrpHeadPtr\000"
 3821      78477270 
 3821      48656164 
 3821      50747200 
 3822              	.LASF60:
 3823 02bc 4F535F45 		.ascii	"OS_ERR_ILLEGAL_DEL_RUN_TIME\000"
 3823      52525F49 
ARM GAS  C:\Users\ADMINI~1\AppData\Local\Temp\ccvQPEdN.s 			page 91


 3823      4C4C4547 
 3823      414C5F44 
 3823      454C5F52 
 3824              	.LASF127:
 3825 02d8 4F535F45 		.ascii	"OS_ERR_STAT_RESET_ISR\000"
 3825      52525F53 
 3825      5441545F 
 3825      52455345 
 3825      545F4953 
 3826              	.LASF319:
 3827 02ee 4F534D75 		.ascii	"OSMutexDbgListPtr\000"
 3827      74657844 
 3827      62674C69 
 3827      73745074 
 3827      7200
 3828              	.LASF102:
 3829 0300 4F535F45 		.ascii	"OS_ERR_PEND_LOCKED\000"
 3829      52525F50 
 3829      454E445F 
 3829      4C4F434B 
 3829      454400
 3830              	.LASF324:
 3831 0313 474E5520 		.ascii	"GNU C11 5.4.1 20160609 (release) [ARM/embedded-5-br"
 3831      43313120 
 3831      352E342E 
 3831      31203230 
 3831      31363036 
 3832 0346 616E6368 		.ascii	"anch revision 237715] -mcpu=cortex-m0 -mthumb -g -O"
 3832      20726576 
 3832      6973696F 
 3832      6E203233 
 3832      37373135 
 3833 0379 30202D66 		.ascii	"0 -ffunction-sections -ffat-lto-objects\000"
 3833      66756E63 
 3833      74696F6E 
 3833      2D736563 
 3833      74696F6E 
 3834              	.LASF147:
 3835 03a1 4F535F45 		.ascii	"OS_ERR_TASK_NOT_SUSPENDED\000"
 3835      52525F54 
 3835      41534B5F 
 3835      4E4F545F 
 3835      53555350 
 3836              	.LASF81:
 3837 03bb 4F535F45 		.ascii	"OS_ERR_MUTEX_OVF\000"
 3837      52525F4D 
 3837      55544558 
 3837      5F4F5646 
 3837      00
 3838              	.LASF145:
 3839 03cc 4F535F45 		.ascii	"OS_ERR_TASK_NOT_DLY\000"
 3839      52525F54 
 3839      41534B5F 
 3839      4E4F545F 
 3839      444C5900 
 3840              	.LASF222:
 3841 03e0 44626750 		.ascii	"DbgPrevPtr\000"
ARM GAS  C:\Users\ADMINI~1\AppData\Local\Temp\ccvQPEdN.s 			page 92


 3841      72657650 
 3841      747200
 3842              	.LASF55:
 3843 03eb 4F535F45 		.ascii	"OS_ERR_INT_Q\000"
 3843      52525F49 
 3843      4E545F51 
 3843      00
 3844              	.LASF223:
 3845 03f8 4462674E 		.ascii	"DbgNextPtr\000"
 3845      65787450 
 3845      747200
 3846              	.LASF272:
 3847 0403 53636865 		.ascii	"SchedLockTimeMax\000"
 3847      644C6F63 
 3847      6B54696D 
 3847      654D6178 
 3847      00
 3848              	.LASF159:
 3849 0414 4F535F45 		.ascii	"OS_ERR_TASK_WAITING\000"
 3849      52525F54 
 3849      41534B5F 
 3849      57414954 
 3849      494E4700 
 3850              	.LASF38:
 3851 0428 4F535F45 		.ascii	"OS_ERR_ACCEPT_ISR\000"
 3851      52525F41 
 3851      43434550 
 3851      545F4953 
 3851      5200
 3852              	.LASF157:
 3853 043a 4F535F45 		.ascii	"OS_ERR_TASK_SUSPEND_ISR\000"
 3853      52525F54 
 3853      41534B5F 
 3853      53555350 
 3853      454E445F 
 3854              	.LASF80:
 3855 0452 4F535F45 		.ascii	"OS_ERR_MUTEX_NESTING\000"
 3855      52525F4D 
 3855      55544558 
 3855      5F4E4553 
 3855      54494E47 
 3856              	.LASF303:
 3857 0467 705F7065 		.ascii	"p_pend_list\000"
 3857      6E645F6C 
 3857      69737400 
 3858              	.LASF186:
 3859 0473 4F535F45 		.ascii	"OS_ERR_TMR_INVALID_STATE\000"
 3859      52525F54 
 3859      4D525F49 
 3859      4E56414C 
 3859      49445F53 
 3860              	.LASF242:
 3861 048c 50656E64 		.ascii	"PendOn\000"
 3861      4F6E00
 3862              	.LASF86:
 3863 0493 4F535F45 		.ascii	"OS_ERR_OBJ_CREATED\000"
 3863      52525F4F 
ARM GAS  C:\Users\ADMINI~1\AppData\Local\Temp\ccvQPEdN.s 			page 93


 3863      424A5F43 
 3863      52454154 
 3863      454400
 3864              	.LASF320:
 3865 04a6 4F534D75 		.ascii	"OSMutexQty\000"
 3865      74657851 
 3865      747900
 3866              	.LASF275:
 3867 04b1 5443425F 		.ascii	"TCB_Ptr\000"
 3867      50747200 
 3868              	.LASF288:
 3869 04b9 5461696C 		.ascii	"TailPtr\000"
 3869      50747200 
 3870              	.LASF155:
 3871 04c1 4F535F45 		.ascii	"OS_ERR_TASK_SUSPEND_IDLE\000"
 3871      52525F54 
 3871      41534B5F 
 3871      53555350 
 3871      454E445F 
 3872              	.LASF56:
 3873 04da 4F535F45 		.ascii	"OS_ERR_INT_Q_FULL\000"
 3873      52525F49 
 3873      4E545F51 
 3873      5F46554C 
 3873      4C00
 3874              	.LASF282:
 3875 04ec 5264794D 		.ascii	"RdyMsgPtr\000"
 3875      73675074 
 3875      7200
 3876              	.LASF290:
 3877 04f6 6F735F70 		.ascii	"os_pend_obj\000"
 3877      656E645F 
 3877      6F626A00 
 3878              	.LASF54:
 3879 0502 4F535F45 		.ascii	"OS_ERR_ILLEGAL_CREATE_RUN_TIME\000"
 3879      52525F49 
 3879      4C4C4547 
 3879      414C5F43 
 3879      52454154 
 3880              	.LASF256:
 3881 0521 466C6167 		.ascii	"FlagsPend\000"
 3881      7350656E 
 3881      6400
 3882              	.LASF184:
 3883 052b 4F535F45 		.ascii	"OS_ERR_TMR_INVALID_DLY\000"
 3883      52525F54 
 3883      4D525F49 
 3883      4E56414C 
 3883      49445F44 
 3884              	.LASF27:
 3885 0542 4F535F4F 		.ascii	"OS_OBJ_QTY\000"
 3885      424A5F51 
 3885      545900
 3886              	.LASF226:
 3887 054d 4F776E65 		.ascii	"OwnerTCBPtr\000"
 3887      72544342 
 3887      50747200 
ARM GAS  C:\Users\ADMINI~1\AppData\Local\Temp\ccvQPEdN.s 			page 94


 3888              	.LASF262:
 3889 0559 43747853 		.ascii	"CtxSwCtr\000"
 3889      77437472 
 3889      00
 3890              	.LASF150:
 3891 0562 4F535F45 		.ascii	"OS_ERR_TASK_RESUME_PRIO\000"
 3891      52525F54 
 3891      41534B5F 
 3891      52455355 
 3891      4D455F50 
 3892              	.LASF30:
 3893 057a 4F535F50 		.ascii	"OS_PRIO\000"
 3893      52494F00 
 3894              	.LASF12:
 3895 0582 666C6F61 		.ascii	"float\000"
 3895      7400
 3896              	.LASF104:
 3897 0588 4F535F45 		.ascii	"OS_ERR_POST_NULL_PTR\000"
 3897      52525F50 
 3897      4F53545F 
 3897      4E554C4C 
 3897      5F505452 
 3898              	.LASF84:
 3899 059d 4F535F45 		.ascii	"OS_ERR_NO_MORE_ID_AVAIL\000"
 3899      52525F4E 
 3899      4F5F4D4F 
 3899      52455F49 
 3899      445F4156 
 3900              	.LASF73:
 3901 05b5 4F535F45 		.ascii	"OS_ERR_MEM_INVALID_P_DATA\000"
 3901      52525F4D 
 3901      454D5F49 
 3901      4E56414C 
 3901      49445F50 
 3902              	.LASF299:
 3903 05cf 6370755F 		.ascii	"cpu_sr\000"
 3903      737200
 3904              	.LASF189:
 3905 05d6 4F535F45 		.ascii	"OS_ERR_TMR_NO_CALLBACK\000"
 3905      52525F54 
 3905      4D525F4E 
 3905      4F5F4341 
 3905      4C4C4241 
 3906              	.LASF182:
 3907 05ed 4F535F45 		.ascii	"OS_ERR_TMR_INACTIVE\000"
 3907      52525F54 
 3907      4D525F49 
 3907      4E414354 
 3907      49564500 
 3908              	.LASF162:
 3909 0601 4F535F45 		.ascii	"OS_ERR_TLS_ID_INVALID\000"
 3909      52525F54 
 3909      4C535F49 
 3909      445F494E 
 3909      56414C49 
 3910              	.LASF10:
 3911 0617 6C6F6E67 		.ascii	"long long unsigned int\000"
ARM GAS  C:\Users\ADMINI~1\AppData\Local\Temp\ccvQPEdN.s 			page 95


 3911      206C6F6E 
 3911      6720756E 
 3911      7369676E 
 3911      65642069 
 3912              	.LASF152:
 3913 062e 4F535F45 		.ascii	"OS_ERR_TASK_RUNNING\000"
 3913      52525F54 
 3913      41534B5F 
 3913      52554E4E 
 3913      494E4700 
 3914              	.LASF269:
 3915 0642 53746B55 		.ascii	"StkUsed\000"
 3915      73656400 
 3916              	.LASF187:
 3917 064a 4F535F45 		.ascii	"OS_ERR_TMR_INVALID\000"
 3917      52525F54 
 3917      4D525F49 
 3917      4E56414C 
 3917      494400
 3918              	.LASF277:
 3919 065d 4F535F50 		.ascii	"OS_PEND_DATA\000"
 3919      454E445F 
 3919      44415441 
 3919      00
 3920              	.LASF156:
 3921 066a 4F535F45 		.ascii	"OS_ERR_TASK_SUSPEND_INT_HANDLER\000"
 3921      52525F54 
 3921      41534B5F 
 3921      53555350 
 3921      454E445F 
 3922              	.LASF141:
 3923 068a 4F535F45 		.ascii	"OS_ERR_TASK_DEL_INVALID\000"
 3923      52525F54 
 3923      41534B5F 
 3923      44454C5F 
 3923      494E5641 
 3924              	.LASF295:
 3925 06a2 4F534D75 		.ascii	"OSMutexCreate\000"
 3925      74657843 
 3925      72656174 
 3925      6500
 3926              	.LASF276:
 3927 06b0 4E627255 		.ascii	"NbrUpdated\000"
 3927      70646174 
 3927      656400
 3928              	.LASF192:
 3929 06bb 4F535F45 		.ascii	"OS_ERR_TMR_STK_INVALID\000"
 3929      52525F54 
 3929      4D525F53 
 3929      544B5F49 
 3929      4E56414C 
 3930              	.LASF3:
 3931 06d2 4350555F 		.ascii	"CPU_INT08U\000"
 3931      494E5430 
 3931      385500
 3932              	.LASF210:
 3933 06dd 6F735F6D 		.ascii	"os_msg\000"
ARM GAS  C:\Users\ADMINI~1\AppData\Local\Temp\ccvQPEdN.s 			page 96


 3933      736700
 3934              	.LASF161:
 3935 06e4 4F535F45 		.ascii	"OS_ERR_TCB_INVALID\000"
 3935      52525F54 
 3935      43425F49 
 3935      4E56414C 
 3935      494400
 3936              	.LASF248:
 3937 06f7 53746B53 		.ascii	"StkSize\000"
 3937      697A6500 
 3938              	.LASF238:
 3939 06ff 53746B42 		.ascii	"StkBasePtr\000"
 3939      61736550 
 3939      747200
 3940              	.LASF112:
 3941 070a 4F535F45 		.ascii	"OS_ERR_Q_EMPTY\000"
 3941      52525F51 
 3941      5F454D50 
 3941      545900
 3942              	.LASF177:
 3943 0719 4F535F45 		.ascii	"OS_ERR_TIME_INVALID_MILLISECONDS\000"
 3943      52525F54 
 3943      494D455F 
 3943      494E5641 
 3943      4C49445F 
 3944              	.LASF321:
 3945 073a 4F535072 		.ascii	"OSPrioCur\000"
 3945      696F4375 
 3945      7200
 3946              	.LASF31:
 3947 0744 4F535F52 		.ascii	"OS_REG\000"
 3947      454700
 3948              	.LASF83:
 3949 074b 4F535F45 		.ascii	"OS_ERR_NAME\000"
 3949      52525F4E 
 3949      414D4500 
 3950              	.LASF302:
 3951 0757 4F534D75 		.ascii	"OSMutexPost\000"
 3951      74657850 
 3951      6F737400 
 3952              	.LASF312:
 3953 0763 70705F6D 		.ascii	"pp_mutex\000"
 3953      75746578 
 3953      00
 3954              	.LASF34:
 3955 076c 4F535F53 		.ascii	"OS_STATUS\000"
 3955      54415455 
 3955      5300
 3956              	.LASF244:
 3957 0776 5461736B 		.ascii	"TaskState\000"
 3957      53746174 
 3957      6500
 3958              	.LASF166:
 3959 0780 4F535F45 		.ascii	"OS_ERR_TLS_DESTRUCT_ASSIGNED\000"
 3959      52525F54 
 3959      4C535F44 
 3959      45535452 
ARM GAS  C:\Users\ADMINI~1\AppData\Local\Temp\ccvQPEdN.s 			page 97


 3959      5543545F 
 3960              	.LASF78:
 3961 079d 4F535F45 		.ascii	"OS_ERR_MUTEX_NOT_OWNER\000"
 3961      52525F4D 
 3961      55544558 
 3961      5F4E4F54 
 3961      5F4F574E 
 3962              	.LASF317:
 3963 07b4 705F7463 		.ascii	"p_tcb_new\000"
 3963      625F6E65 
 3963      7700
 3964              	.LASF25:
 3965 07be 4F535F4D 		.ascii	"OS_MSG_SIZE\000"
 3965      53475F53 
 3965      495A4500 
 3966              	.LASF174:
 3967 07ca 4F535F45 		.ascii	"OS_ERR_TIME_INVALID_HOURS\000"
 3967      52525F54 
 3967      494D455F 
 3967      494E5641 
 3967      4C49445F 
 3968              	.LASF190:
 3969 07e4 4F535F45 		.ascii	"OS_ERR_TMR_NON_AVAIL\000"
 3969      52525F54 
 3969      4D525F4E 
 3969      4F4E5F41 
 3969      5641494C 
 3970              	.LASF2:
 3971 07f9 4350555F 		.ascii	"CPU_CHAR\000"
 3971      43484152 
 3971      00
 3972              	.LASF138:
 3973 0802 4F535F45 		.ascii	"OS_ERR_TASK_CREATE_ISR\000"
 3973      52525F54 
 3973      41534B5F 
 3973      43524541 
 3973      54455F49 
 3974              	.LASF16:
 3975 0819 4350555F 		.ascii	"CPU_STK_SIZE\000"
 3975      53544B5F 
 3975      53495A45 
 3975      00
 3976              	.LASF24:
 3977 0826 4F535F4D 		.ascii	"OS_MSG_QTY\000"
 3977      53475F51 
 3977      545900
 3978              	.LASF92:
 3979 0831 4F535F45 		.ascii	"OS_ERR_OS_RUNNING\000"
 3979      52525F4F 
 3979      535F5255 
 3979      4E4E494E 
 3979      4700
 3980              	.LASF270:
 3981 0843 53746B46 		.ascii	"StkFree\000"
 3981      72656500 
 3982              	.LASF251:
 3983 084b 5469636B 		.ascii	"TickCtrPrev\000"
ARM GAS  C:\Users\ADMINI~1\AppData\Local\Temp\ccvQPEdN.s 			page 98


 3983      43747250 
 3983      72657600 
 3984              	.LASF214:
 3985 0857 4E627245 		.ascii	"NbrEntriesSize\000"
 3985      6E747269 
 3985      65735369 
 3985      7A6500
 3986              	.LASF180:
 3987 0866 4F535F45 		.ascii	"OS_ERR_TIME_ZERO_DLY\000"
 3987      52525F54 
 3987      494D455F 
 3987      5A45524F 
 3987      5F444C59 
 3988              	.LASF236:
 3989 087b 5469636B 		.ascii	"TickPrevPtr\000"
 3989      50726576 
 3989      50747200 
 3990              	.LASF257:
 3991 0887 466C6167 		.ascii	"FlagsRdy\000"
 3991      73526479 
 3991      00
 3992              	.LASF129:
 3993 0890 4F535F45 		.ascii	"OS_ERR_STAT_STK_INVALID\000"
 3993      52525F53 
 3993      5441545F 
 3993      53544B5F 
 3993      494E5641 
 3994              	.LASF47:
 3995 08a8 4F535F45 		.ascii	"OS_ERR_FLAG_GRP_DEPLETED\000"
 3995      52525F46 
 3995      4C41475F 
 3995      4752505F 
 3995      4445504C 
 3996              	.LASF69:
 3997 08c1 4F535F45 		.ascii	"OS_ERR_MEM_INVALID_BLKS\000"
 3997      52525F4D 
 3997      454D5F49 
 3997      4E56414C 
 3997      49445F42 
 3998              	.LASF246:
 3999 08d9 42617365 		.ascii	"BasePrio\000"
 3999      5072696F 
 3999      00
 4000              	.LASF254:
 4001 08e2 4D736751 		.ascii	"MsgQPendTimeMax\000"
 4001      50656E64 
 4001      54696D65 
 4001      4D617800 
 4002              	.LASF93:
 4003 08f2 4F535F45 		.ascii	"OS_ERR_OS_NOT_INIT\000"
 4003      52525F4F 
 4003      535F4E4F 
 4003      545F494E 
 4003      495400
 4004              	.LASF204:
 4005 0905 4F535F4D 		.ascii	"OS_MSG\000"
 4005      534700
ARM GAS  C:\Users\ADMINI~1\AppData\Local\Temp\ccvQPEdN.s 			page 99


 4006              	.LASF293:
 4007 090c 705F6E61 		.ascii	"p_name\000"
 4007      6D6500
 4008              	.LASF183:
 4009 0913 4F535F45 		.ascii	"OS_ERR_TMR_INVALID_DEST\000"
 4009      52525F54 
 4009      4D525F49 
 4009      4E56414C 
 4009      49445F44 
 4010              	.LASF121:
 4011 092b 4F535F45 		.ascii	"OS_ERR_SCHED_LOCK_ISR\000"
 4011      52525F53 
 4011      43484544 
 4011      5F4C4F43 
 4011      4B5F4953 
 4012              	.LASF43:
 4013 0941 4F535F45 		.ascii	"OS_ERR_DEL_ISR\000"
 4013      52525F44 
 4013      454C5F49 
 4013      535200
 4014              	.LASF132:
 4015 0950 4F535F45 		.ascii	"OS_ERR_STATUS_INVALID\000"
 4015      52525F53 
 4015      54415455 
 4015      535F494E 
 4015      56414C49 
 4016              	.LASF113:
 4017 0966 4F535F45 		.ascii	"OS_ERR_Q_MAX\000"
 4017      52525F51 
 4017      5F4D4158 
 4017      00
 4018              	.LASF234:
 4019 0973 50726576 		.ascii	"PrevPtr\000"
 4019      50747200 
 4020              	.LASF0:
 4021 097b 63686172 		.ascii	"char\000"
 4021      00
 4022              	.LASF28:
 4023 0980 4F535F4F 		.ascii	"OS_OBJ_TYPE\000"
 4023      424A5F54 
 4023      59504500 
 4024              	.LASF165:
 4025 098c 4F535F45 		.ascii	"OS_ERR_TLS_NOT_EN\000"
 4025      52525F54 
 4025      4C535F4E 
 4025      4F545F45 
 4025      4E00
 4026              	.LASF90:
 4027 099e 4F535F45 		.ascii	"OS_ERR_OPT_INVALID\000"
 4027      52525F4F 
 4027      50545F49 
 4027      4E56414C 
 4027      494400
 4028              	.LASF17:
 4029 09b1 4350555F 		.ascii	"CPU_SR\000"
 4029      535200
 4030              	.LASF328:
ARM GAS  C:\Users\ADMINI~1\AppData\Local\Temp\ccvQPEdN.s 			page 100


 4031 09b8 4F535F4D 		.ascii	"OS_MutexGrpPrioFindHighest\000"
 4031      75746578 
 4031      47727050 
 4031      72696F46 
 4031      696E6448 
 4032              	.LASF120:
 4033 09d3 4F535F45 		.ascii	"OS_ERR_SCHED_INVALID_TIME_SLICE\000"
 4033      52525F53 
 4033      43484544 
 4033      5F494E56 
 4033      414C4944 
 4034              	.LASF94:
 4035 09f3 4F535F45 		.ascii	"OS_ERR_OS_NO_APP_TASK\000"
 4035      52525F4F 
 4035      535F4E4F 
 4035      5F415050 
 4035      5F544153 
 4036              	.LASF252:
 4037 0a09 4D736751 		.ascii	"MsgQ\000"
 4037      00
 4038              	.LASF239:
 4039 0a0e 5461736B 		.ascii	"TaskEntryAddr\000"
 4039      456E7472 
 4039      79416464 
 4039      7200
 4040              	.LASF128:
 4041 0a1c 4F535F45 		.ascii	"OS_ERR_STAT_PRIO_INVALID\000"
 4041      52525F53 
 4041      5441545F 
 4041      5052494F 
 4041      5F494E56 
 4042              	.LASF178:
 4043 0a35 4F535F45 		.ascii	"OS_ERR_TIME_NOT_DLY\000"
 4043      52525F54 
 4043      494D455F 
 4043      4E4F545F 
 4043      444C5900 
 4044              	.LASF220:
 4045 0a49 4E616D65 		.ascii	"NamePtr\000"
 4045      50747200 
 4046              	.LASF243:
 4047 0a51 50656E64 		.ascii	"PendStatus\000"
 4047      53746174 
 4047      757300
 4048              	.LASF209:
 4049 0a5c 4F535F4D 		.ascii	"OS_MSG_Q\000"
 4049      53475F51 
 4049      00
 4050              	.LASF219:
 4051 0a65 54797065 		.ascii	"Type\000"
 4051      00
 4052              	.LASF201:
 4053 0a6a 4F535F45 		.ascii	"OS_ERR_YIELD_ISR\000"
 4053      52525F59 
 4053      49454C44 
 4053      5F495352 
 4053      00
ARM GAS  C:\Users\ADMINI~1\AppData\Local\Temp\ccvQPEdN.s 			page 101


 4054              	.LASF87:
 4055 0a7b 4F535F45 		.ascii	"OS_ERR_OBJ_DEL\000"
 4055      52525F4F 
 4055      424A5F44 
 4055      454C00
 4056              	.LASF19:
 4057 0a8a 4350555F 		.ascii	"CPU_TS\000"
 4057      545300
 4058              	.LASF11:
 4059 0a91 6C6F6E67 		.ascii	"long long int\000"
 4059      206C6F6E 
 4059      6720696E 
 4059      7400
 4060              	.LASF49:
 4061 0a9f 4F535F45 		.ascii	"OS_ERR_FLAG_PEND_OPT\000"
 4061      52525F46 
 4061      4C41475F 
 4061      50454E44 
 4061      5F4F5054 
 4062              	.LASF231:
 4063 0ab4 53746B50 		.ascii	"StkPtr\000"
 4063      747200
 4064              	.LASF305:
 4065 0abb 4F535F4D 		.ascii	"OS_MutexClr\000"
 4065      75746578 
 4065      436C7200 
 4066              	.LASF301:
 4067 0ac7 705F7463 		.ascii	"p_tcb\000"
 4067      6200
 4068              	.LASF160:
 4069 0acd 4F535F45 		.ascii	"OS_ERR_TASK_SUSPEND_CTR_OVF\000"
 4069      52525F54 
 4069      41534B5F 
 4069      53555350 
 4069      454E445F 
 4070              	.LASF114:
 4071 0ae9 4F535F45 		.ascii	"OS_ERR_Q_SIZE\000"
 4071      52525F51 
 4071      5F53495A 
 4071      4500
 4072              	.LASF264:
 4073 0af7 4379636C 		.ascii	"CyclesStart\000"
 4073      65735374 
 4073      61727400 
 4074              	.LASF313:
 4075 0b03 68696768 		.ascii	"highest_prio\000"
 4075      6573745F 
 4075      7072696F 
 4075      00
 4076              	.LASF300:
 4077 0b10 70656E64 		.ascii	"pend_data\000"
 4077      5F646174 
 4077      6100
 4078              	.LASF279:
 4079 0b1a 54434250 		.ascii	"TCBPtr\000"
 4079      747200
 4080              	.LASF99:
ARM GAS  C:\Users\ADMINI~1\AppData\Local\Temp\ccvQPEdN.s 			page 102


 4081 0b21 4F535F45 		.ascii	"OS_ERR_PEND_ABORT_SELF\000"
 4081      52525F50 
 4081      454E445F 
 4081      41424F52 
 4081      545F5345 
 4082              	.LASF5:
 4083 0b38 4350555F 		.ascii	"CPU_INT16U\000"
 4083      494E5431 
 4083      365500
 4084              	.LASF118:
 4085 0b43 4F535F45 		.ascii	"OS_ERR_ROUND_ROBIN_DISABLED\000"
 4085      52525F52 
 4085      4F554E44 
 4085      5F524F42 
 4085      494E5F44 
 4086              	.LASF70:
 4087 0b5f 4F535F45 		.ascii	"OS_ERR_MEM_INVALID_PART\000"
 4087      52525F4D 
 4087      454D5F49 
 4087      4E56414C 
 4087      49445F50 
 4088              	.LASF88:
 4089 0b77 4F535F45 		.ascii	"OS_ERR_OBJ_PTR_NULL\000"
 4089      52525F4F 
 4089      424A5F50 
 4089      54525F4E 
 4089      554C4C00 
 4090              	.LASF116:
 4091 0b8b 4F535F45 		.ascii	"OS_ERR_REG_ID_INVALID\000"
 4091      52525F52 
 4091      45475F49 
 4091      445F494E 
 4091      56414C49 
 4092              	.LASF35:
 4093 0ba1 4F535F54 		.ascii	"OS_TICK\000"
 4093      49434B00 
 4094              	.LASF67:
 4095 0ba9 4F535F45 		.ascii	"OS_ERR_MEM_FULL\000"
 4095      52525F4D 
 4095      454D5F46 
 4095      554C4C00 
 4096              	.LASF144:
 4097 0bb9 4F535F45 		.ascii	"OS_ERR_TASK_NO_MORE_TCB\000"
 4097      52525F54 
 4097      41534B5F 
 4097      4E4F5F4D 
 4097      4F52455F 
 4098              	.LASF72:
 4099 0bd1 4F535F45 		.ascii	"OS_ERR_MEM_INVALID_P_MEM\000"
 4099      52525F4D 
 4099      454D5F49 
 4099      4E56414C 
 4099      49445F50 
 4100              	.LASF18:
 4101 0bea 4350555F 		.ascii	"CPU_TS32\000"
 4101      54533332 
 4101      00
ARM GAS  C:\Users\ADMINI~1\AppData\Local\Temp\ccvQPEdN.s 			page 103


 4102              	.LASF259:
 4103 0bf3 53757370 		.ascii	"SuspendCtr\000"
 4103      656E6443 
 4103      747200
 4104              	.LASF233:
 4105 0bfe 53746B4C 		.ascii	"StkLimitPtr\000"
 4105      696D6974 
 4105      50747200 
 4106              	.LASF263:
 4107 0c0a 4379636C 		.ascii	"CyclesDelta\000"
 4107      65734465 
 4107      6C746100 
 4108              	.LASF32:
 4109 0c16 4F535F53 		.ascii	"OS_SEM_CTR\000"
 4109      454D5F43 
 4109      545200
 4110              	.LASF193:
 4111 0c21 4F535F45 		.ascii	"OS_ERR_TMR_STK_SIZE_INVALID\000"
 4111      52525F54 
 4111      4D525F53 
 4111      544B5F53 
 4111      495A455F 
 4112              	.LASF170:
 4113 0c3d 4F535F45 		.ascii	"OS_ERR_TICK_WHEEL_SIZE\000"
 4113      52525F54 
 4113      49434B5F 
 4113      57484545 
 4113      4C5F5349 
 4114              	.LASF235:
 4115 0c54 5469636B 		.ascii	"TickNextPtr\000"
 4115      4E657874 
 4115      50747200 
 4116              	.LASF146:
 4117 0c60 4F535F45 		.ascii	"OS_ERR_TASK_NOT_EXIST\000"
 4117      52525F54 
 4117      41534B5F 
 4117      4E4F545F 
 4117      45584953 
 4118              	.LASF143:
 4119 0c76 4F535F45 		.ascii	"OS_ERR_TASK_INVALID\000"
 4119      52525F54 
 4119      41534B5F 
 4119      494E5641 
 4119      4C494400 
 4120              	.LASF191:
 4121 0c8a 4F535F45 		.ascii	"OS_ERR_TMR_PRIO_INVALID\000"
 4121      52525F54 
 4121      4D525F50 
 4121      52494F5F 
 4121      494E5641 
 4122              	.LASF298:
 4123 0ca2 705F7473 		.ascii	"p_ts\000"
 4123      00
 4124              	.LASF158:
 4125 0ca7 4F535F45 		.ascii	"OS_ERR_TASK_SUSPEND_PRIO\000"
 4125      52525F54 
 4125      41534B5F 
ARM GAS  C:\Users\ADMINI~1\AppData\Local\Temp\ccvQPEdN.s 			page 104


 4125      53555350 
 4125      454E445F 
 4126              	.LASF281:
 4127 0cc0 5264794F 		.ascii	"RdyObjPtr\000"
 4127      626A5074 
 4127      7200
 4128              	.LASF59:
 4129 0cca 4F535F45 		.ascii	"OS_ERR_INT_Q_STK_SIZE_INVALID\000"
 4129      52525F49 
 4129      4E545F51 
 4129      5F53544B 
 4129      5F53495A 
 4130              	.LASF163:
 4131 0ce8 4F535F45 		.ascii	"OS_ERR_TLS_ISR\000"
 4131      52525F54 
 4131      4C535F49 
 4131      535200
 4132              	.LASF195:
 4133 0cf7 4F535F45 		.ascii	"OS_ERR_TMR_INVALID_CALLBACK\000"
 4133      52525F54 
 4133      4D525F49 
 4133      4E56414C 
 4133      49445F43 
 4134              	.LASF142:
 4135 0d13 4F535F45 		.ascii	"OS_ERR_TASK_DEL_ISR\000"
 4135      52525F54 
 4135      41534B5F 
 4135      44454C5F 
 4135      49535200 
 4136              	.LASF314:
 4137 0d27 7072696F 		.ascii	"prio\000"
 4137      00
 4138              	.LASF267:
 4139 0d2c 53656D50 		.ascii	"SemPendTime\000"
 4139      656E6454 
 4139      696D6500 
 4140              	.LASF109:
 4141 0d38 4F535F45 		.ascii	"OS_ERR_PTR_INVALID\000"
 4141      52525F50 
 4141      54525F49 
 4141      4E56414C 
 4141      494400
 4142              	.LASF131:
 4143 0d4b 4F535F45 		.ascii	"OS_ERR_STATE_INVALID\000"
 4143      52525F53 
 4143      54415445 
 4143      5F494E56 
 4143      414C4944 
 4144              	.LASF205:
 4145 0d60 4E657874 		.ascii	"NextPtr\000"
 4145      50747200 
 4146              	.LASF91:
 4147 0d68 4F535F45 		.ascii	"OS_ERR_OS_NOT_RUNNING\000"
 4147      52525F4F 
 4147      535F4E4F 
 4147      545F5255 
 4147      4E4E494E 
ARM GAS  C:\Users\ADMINI~1\AppData\Local\Temp\ccvQPEdN.s 			page 105


 4148              	.LASF253:
 4149 0d7e 4D736751 		.ascii	"MsgQPendTime\000"
 4149      50656E64 
 4149      54696D65 
 4149      00
 4150              	.LASF218:
 4151 0d8b 6F735F6D 		.ascii	"os_mutex\000"
 4151      75746578 
 4151      00
 4152              	.LASF307:
 4153 0d94 4F535F4D 		.ascii	"OS_MutexDbgListRemove\000"
 4153      75746578 
 4153      4462674C 
 4153      69737452 
 4153      656D6F76 
 4154              	.LASF318:
 4155 0daa 4F53496E 		.ascii	"OSIntNestingCtr\000"
 4155      744E6573 
 4155      74696E67 
 4155      43747200 
 4156              	.LASF237:
 4157 0dba 5469636B 		.ascii	"TickListPtr\000"
 4157      4C697374 
 4157      50747200 
 4158              	.LASF179:
 4159 0dc6 4F535F45 		.ascii	"OS_ERR_TIME_SET_ISR\000"
 4159      52525F54 
 4159      494D455F 
 4159      5345545F 
 4159      49535200 
 4160              	.LASF117:
 4161 0dda 4F535F45 		.ascii	"OS_ERR_ROUND_ROBIN_1\000"
 4161      52525F52 
 4161      4F554E44 
 4161      5F524F42 
 4161      494E5F31 
 4162              	.LASF71:
 4163 0def 4F535F45 		.ascii	"OS_ERR_MEM_INVALID_P_BLK\000"
 4163      52525F4D 
 4163      454D5F49 
 4163      4E56414C 
 4163      49445F50 
 4164              	.LASF68:
 4165 0e08 4F535F45 		.ascii	"OS_ERR_MEM_INVALID_P_ADDR\000"
 4165      52525F4D 
 4165      454D5F49 
 4165      4E56414C 
 4165      49445F50 
 4166              	.LASF284:
 4167 0e22 52647954 		.ascii	"RdyTS\000"
 4167      5300
 4168              	.LASF64:
 4169 0e28 4F535F45 		.ascii	"OS_ERR_LOCK_NESTING_OVF\000"
 4169      52525F4C 
 4169      4F434B5F 
 4169      4E455354 
 4169      494E475F 
ARM GAS  C:\Users\ADMINI~1\AppData\Local\Temp\ccvQPEdN.s 			page 106


 4170              	.LASF153:
 4171 0e40 4F535F45 		.ascii	"OS_ERR_TASK_STK_CHK_ISR\000"
 4171      52525F54 
 4171      41534B5F 
 4171      53544B5F 
 4171      43484B5F 
 4172              	.LASF274:
 4173 0e58 6F735F74 		.ascii	"os_tick_list\000"
 4173      69636B5F 
 4173      6C697374 
 4173      00
 4174              	.LASF7:
 4175 0e65 73686F72 		.ascii	"short int\000"
 4175      7420696E 
 4175      7400
 4176              	.LASF283:
 4177 0e6f 5264794D 		.ascii	"RdyMsgSize\000"
 4177      73675369 
 4177      7A6500
 4178              	.LASF76:
 4179 0e7a 4F535F45 		.ascii	"OS_ERR_MSG_POOL_EMPTY\000"
 4179      52525F4D 
 4179      53475F50 
 4179      4F4F4C5F 
 4179      454D5054 
 4180              	.LASF271:
 4181 0e90 496E7444 		.ascii	"IntDisTimeMax\000"
 4181      69735469 
 4181      6D654D61 
 4181      7800
 4182              	.LASF124:
 4183 0e9e 4F535F45 		.ascii	"OS_ERR_SCHED_UNLOCK_ISR\000"
 4183      52525F53 
 4183      43484544 
 4183      5F554E4C 
 4183      4F434B5F 
 4184              	.LASF268:
 4185 0eb6 53656D50 		.ascii	"SemPendTimeMax\000"
 4185      656E6454 
 4185      696D654D 
 4185      617800
 4186              	.LASF292:
 4187 0ec5 705F6D75 		.ascii	"p_mutex\000"
 4187      74657800 
 4188              	.LASF266:
 4189 0ecd 4379636C 		.ascii	"CyclesTotalPrev\000"
 4189      6573546F 
 4189      74616C50 
 4189      72657600 
 4190              	.LASF225:
 4191 0edd 4D757465 		.ascii	"MutexGrpNextPtr\000"
 4191      78477270 
 4191      4E657874 
 4191      50747200 
 4192              	.LASF273:
 4193 0eed 4F535F54 		.ascii	"OS_TICK_LIST\000"
 4193      49434B5F 
ARM GAS  C:\Users\ADMINI~1\AppData\Local\Temp\ccvQPEdN.s 			page 107


 4193      4C495354 
 4193      00
 4194              	.LASF168:
 4195 0efa 4F535F45 		.ascii	"OS_ERR_TICK_STK_INVALID\000"
 4195      52525F54 
 4195      49434B5F 
 4195      53544B5F 
 4195      494E5641 
 4196              	.LASF77:
 4197 0f12 4F535F45 		.ascii	"OS_ERR_MSG_POOL_NULL_PTR\000"
 4197      52525F4D 
 4197      53475F50 
 4197      4F4F4C5F 
 4197      4E554C4C 
 4198              	.LASF26:
 4199 0f2b 4F535F4E 		.ascii	"OS_NESTING_CTR\000"
 4199      45535449 
 4199      4E475F43 
 4199      545200
 4200              	.LASF265:
 4201 0f3a 4379636C 		.ascii	"CyclesTotal\000"
 4201      6573546F 
 4201      74616C00 
 4202              	.LASF289:
 4203 0f46 4F535F50 		.ascii	"OS_PEND_OBJ\000"
 4203      454E445F 
 4203      4F424A00 
 4204              	.LASF151:
 4205 0f52 4F535F45 		.ascii	"OS_ERR_TASK_RESUME_SELF\000"
 4205      52525F54 
 4205      41534B5F 
 4205      52455355 
 4205      4D455F53 
 4206              	.LASF261:
 4207 0f6a 43505555 		.ascii	"CPUUsageMax\000"
 4207      73616765 
 4207      4D617800 
 4208              	.LASF221:
 4209 0f76 50656E64 		.ascii	"PendList\000"
 4209      4C697374 
 4209      00
 4210              	.LASF89:
 4211 0f7f 4F535F45 		.ascii	"OS_ERR_OBJ_TYPE\000"
 4211      52525F4F 
 4211      424A5F54 
 4211      59504500 
 4212              	.LASF241:
 4213 0f8f 50656E64 		.ascii	"PendDataTblPtr\000"
 4213      44617461 
 4213      54626C50 
 4213      747200
 4214              	.LASF249:
 4215 0f9e 53656D43 		.ascii	"SemCtr\000"
 4215      747200
 4216              	.LASF315:
 4217 0fa5 705F6865 		.ascii	"p_head\000"
 4217      616400
ARM GAS  C:\Users\ADMINI~1\AppData\Local\Temp\ccvQPEdN.s 			page 108


 4218              	.LASF212:
 4219 0fac 496E5074 		.ascii	"InPtr\000"
 4219      7200
 4220              	.LASF304:
 4221 0fb2 7072696F 		.ascii	"prio_new\000"
 4221      5F6E6577 
 4221      00
 4222              	.LASF250:
 4223 0fbb 5469636B 		.ascii	"TickRemain\000"
 4223      52656D61 
 4223      696E00
 4224              	.LASF287:
 4225 0fc6 48656164 		.ascii	"HeadPtr\000"
 4225      50747200 
 4226              	.LASF98:
 4227 0fce 4F535F45 		.ascii	"OS_ERR_PEND_ABORT_NONE\000"
 4227      52525F50 
 4227      454E445F 
 4227      41424F52 
 4227      545F4E4F 
 4228              	.LASF9:
 4229 0fe5 756E7369 		.ascii	"unsigned int\000"
 4229      676E6564 
 4229      20696E74 
 4229      00
 4230              	.LASF207:
 4231 0ff2 4D736753 		.ascii	"MsgSize\000"
 4231      697A6500 
 4232              	.LASF79:
 4233 0ffa 4F535F45 		.ascii	"OS_ERR_MUTEX_OWNER\000"
 4233      52525F4D 
 4233      55544558 
 4233      5F4F574E 
 4233      455200
 4234              	.LASF130:
 4235 100d 4F535F45 		.ascii	"OS_ERR_STAT_STK_SIZE_INVALID\000"
 4235      52525F53 
 4235      5441545F 
 4235      53544B5F 
 4235      53495A45 
 4236              	.LASF48:
 4237 102a 4F535F45 		.ascii	"OS_ERR_FLAG_NOT_RDY\000"
 4237      52525F46 
 4237      4C41475F 
 4237      4E4F545F 
 4237      52445900 
 4238              	.LASF232:
 4239 103e 45787450 		.ascii	"ExtPtr\000"
 4239      747200
 4240              	.LASF291:
 4241 1045 73697A65 		.ascii	"sizetype\000"
 4241      74797065 
 4241      00
 4242              	.LASF97:
 4243 104e 4F535F45 		.ascii	"OS_ERR_PEND_ABORT_ISR\000"
 4243      52525F50 
 4243      454E445F 
ARM GAS  C:\Users\ADMINI~1\AppData\Local\Temp\ccvQPEdN.s 			page 109


 4243      41424F52 
 4243      545F4953 
 4244              	.LASF14:
 4245 1064 4350555F 		.ascii	"CPU_ADDR\000"
 4245      41444452 
 4245      00
 4246              	.LASF105:
 4247 106d 4F535F45 		.ascii	"OS_ERR_POST_ISR\000"
 4247      52525F50 
 4247      4F53545F 
 4247      49535200 
 4248              	.LASF171:
 4249 107d 4F535F45 		.ascii	"OS_ERR_TIME_DLY_ISR\000"
 4249      52525F54 
 4249      494D455F 
 4249      444C595F 
 4249      49535200 
 4250              	.LASF135:
 4251 1091 4F535F45 		.ascii	"OS_ERR_STK_LIMIT_INVALID\000"
 4251      52525F53 
 4251      544B5F4C 
 4251      494D4954 
 4251      5F494E56 
 4252              	.LASF22:
 4253 10aa 4F535F43 		.ascii	"OS_CYCLES\000"
 4253      59434C45 
 4253      5300
 4254              	.LASF229:
 4255 10b4 4F535F54 		.ascii	"OS_TCB\000"
 4255      434200
 4256              	.LASF134:
 4257 10bb 4F535F45 		.ascii	"OS_ERR_STK_SIZE_INVALID\000"
 4257      52525F53 
 4257      544B5F53 
 4257      495A455F 
 4257      494E5641 
 4258              	.LASF51:
 4259 10d3 4F535F45 		.ascii	"OS_ERR_G\000"
 4259      52525F47 
 4259      00
 4260              	.LASF194:
 4261 10dc 4F535F45 		.ascii	"OS_ERR_TMR_STOPPED\000"
 4261      52525F54 
 4261      4D525F53 
 4261      544F5050 
 4261      454400
 4262              	.LASF1:
 4263 10ef 756E7369 		.ascii	"unsigned char\000"
 4263      676E6564 
 4263      20636861 
 4263      7200
 4264              	.LASF148:
 4265 10fd 4F535F45 		.ascii	"OS_ERR_TASK_OPT\000"
 4265      52525F54 
 4265      41534B5F 
 4265      4F505400 
 4266              	.LASF322:
ARM GAS  C:\Users\ADMINI~1\AppData\Local\Temp\ccvQPEdN.s 			page 110


 4267 110d 4F535363 		.ascii	"OSSchedLockNestingCtr\000"
 4267      6865644C 
 4267      6F636B4E 
 4267      65737469 
 4267      6E674374 
 4268              	.LASF181:
 4269 1123 4F535F45 		.ascii	"OS_ERR_TIMEOUT\000"
 4269      52525F54 
 4269      494D454F 
 4269      555400
 4270              	.LASF310:
 4271 1132 4F535F4D 		.ascii	"OS_MutexGrpAdd\000"
 4271      75746578 
 4271      47727041 
 4271      646400
 4272              	.LASF33:
 4273 1141 4F535F53 		.ascii	"OS_STATE\000"
 4273      54415445 
 4273      00
 4274              	.LASF297:
 4275 114a 74696D65 		.ascii	"timeout\000"
 4275      6F757400 
 4276              	.LASF29:
 4277 1152 4F535F4F 		.ascii	"OS_OPT\000"
 4277      505400
 4278              	.LASF228:
 4279 1159 4F535F54 		.ascii	"OS_TASK_PTR\000"
 4279      41534B5F 
 4279      50545200 
 4280              	.LASF66:
 4281 1165 4F535F45 		.ascii	"OS_ERR_MEM_CREATE_ISR\000"
 4281      52525F4D 
 4281      454D5F43 
 4281      52454154 
 4281      455F4953 
 4282              	.LASF325:
 4283 117b 2E2E5C2E 		.ascii	"..\\..\\..\\..\\..\\..\\Software\\uCOS-III\\Source\\"
 4283      2E5C2E2E 
 4283      5C2E2E5C 
 4283      2E2E5C2E 
 4283      2E5C536F 
 4284 11a6 6F735F6D 		.ascii	"os_mutex.c\000"
 4284      75746578 
 4284      2E6300
 4285              	.LASF200:
 4286 11b1 4F535F45 		.ascii	"OS_ERR_Y\000"
 4286      52525F59 
 4286      00
 4287              	.LASF101:
 4288 11ba 4F535F45 		.ascii	"OS_ERR_PEND_ISR\000"
 4288      52525F50 
 4288      454E445F 
 4288      49535200 
 4289              	.LASF202:
 4290 11ca 4F535F45 		.ascii	"OS_ERR_Z\000"
 4290      52525F5A 
 4290      00
ARM GAS  C:\Users\ADMINI~1\AppData\Local\Temp\ccvQPEdN.s 			page 111


 4291              	.LASF224:
 4292 11d3 4462674E 		.ascii	"DbgNamePtr\000"
 4292      616D6550 
 4292      747200
 4293              	.LASF213:
 4294 11de 4F757450 		.ascii	"OutPtr\000"
 4294      747200
 4295              	.LASF240:
 4296 11e5 5461736B 		.ascii	"TaskEntryArg\000"
 4296      456E7472 
 4296      79417267 
 4296      00
 4297              	.LASF111:
 4298 11f2 4F535F45 		.ascii	"OS_ERR_Q_FULL\000"
 4298      52525F51 
 4298      5F46554C 
 4298      4C00
 4299              	.LASF316:
 4300 1200 4F535F4D 		.ascii	"OS_MutexGrpPostAll\000"
 4300      75746578 
 4300      47727050 
 4300      6F737441 
 4300      6C6C00
 4301              	.LASF58:
 4302 1213 4F535F45 		.ascii	"OS_ERR_INT_Q_STK_INVALID\000"
 4302      52525F49 
 4302      4E545F51 
 4302      5F53544B 
 4302      5F494E56 
 4303              	.LASF176:
 4304 122c 4F535F45 		.ascii	"OS_ERR_TIME_INVALID_SECONDS\000"
 4304      52525F54 
 4304      494D455F 
 4304      494E5641 
 4304      4C49445F 
 4305              	.LASF139:
 4306 1248 4F535F45 		.ascii	"OS_ERR_TASK_DEL\000"
 4306      52525F54 
 4306      41534B5F 
 4306      44454C00 
 4307              	.LASF285:
 4308 1258 4F535F50 		.ascii	"OS_PEND_LIST\000"
 4308      454E445F 
 4308      4C495354 
 4308      00
 4309              	.LASF4:
 4310 1265 7369676E 		.ascii	"signed char\000"
 4310      65642063 
 4310      68617200 
 4311              	.LASF208:
 4312 1271 4D736754 		.ascii	"MsgTS\000"
 4312      5300
 4313              	.LASF46:
 4314 1277 4F535F45 		.ascii	"OS_ERR_FATAL_RETURN\000"
 4314      52525F46 
 4314      4154414C 
 4314      5F524554 
ARM GAS  C:\Users\ADMINI~1\AppData\Local\Temp\ccvQPEdN.s 			page 112


 4314      55524E00 
 4315              	.LASF6:
 4316 128b 73686F72 		.ascii	"short unsigned int\000"
 4316      7420756E 
 4316      7369676E 
 4316      65642069 
 4316      6E7400
 4317              	.LASF23:
 4318 129e 4F535F46 		.ascii	"OS_FLAGS\000"
 4318      4C414753 
 4318      00
 4319              	.LASF294:
 4320 12a7 705F6572 		.ascii	"p_err\000"
 4320      7200
 4321              	.LASF206:
 4322 12ad 4D736750 		.ascii	"MsgPtr\000"
 4322      747200
 4323              	.LASF164:
 4324 12b4 4F535F45 		.ascii	"OS_ERR_TLS_NO_MORE_AVAIL\000"
 4324      52525F54 
 4324      4C535F4E 
 4324      4F5F4D4F 
 4324      52455F41 
 4325              	.LASF306:
 4326 12cd 4F535F4D 		.ascii	"OS_MutexDbgListAdd\000"
 4326      75746578 
 4326      4462674C 
 4326      69737441 
 4326      646400
 4327              	.LASF36:
 4328 12e0 4F535F45 		.ascii	"OS_ERR_NONE\000"
 4328      52525F4E 
 4328      4F4E4500 
 4329              	.LASF278:
 4330 12ec 6F735F70 		.ascii	"os_pend_data\000"
 4330      656E645F 
 4330      64617461 
 4330      00
 4331              	.LASF122:
 4332 12f9 4F535F45 		.ascii	"OS_ERR_SCHED_LOCKED\000"
 4332      52525F53 
 4332      43484544 
 4332      5F4C4F43 
 4332      4B454400 
 4333              	.LASF50:
 4334 130d 4F535F45 		.ascii	"OS_ERR_FLUSH_ISR\000"
 4334      52525F46 
 4334      4C555348 
 4334      5F495352 
 4334      00
 4335              	.LASF245:
 4336 131e 5072696F 		.ascii	"Prio\000"
 4336      00
 4337              	.LASF13:
 4338 1323 646F7562 		.ascii	"double\000"
 4338      6C6500
 4339              	.LASF96:
ARM GAS  C:\Users\ADMINI~1\AppData\Local\Temp\ccvQPEdN.s 			page 113


 4340 132a 4F535F45 		.ascii	"OS_ERR_PEND_ABORT\000"
 4340      52525F50 
 4340      454E445F 
 4340      41424F52 
 4340      5400
 4341              	.LASF308:
 4342 133c 705F6D75 		.ascii	"p_mutex_next\000"
 4342      7465785F 
 4342      6E657874 
 4342      00
 4343              	.LASF260:
 4344 1349 43505555 		.ascii	"CPUUsage\000"
 4344      73616765 
 4344      00
 4345              	.LASF123:
 4346 1352 4F535F45 		.ascii	"OS_ERR_SCHED_NOT_LOCKED\000"
 4346      52525F53 
 4346      43484544 
 4346      5F4E4F54 
 4346      5F4C4F43 
 4347              	.LASF107:
 4348 136a 4F535F45 		.ascii	"OS_ERR_PRIO\000"
 4348      52525F50 
 4348      52494F00 
 4349              	.LASF100:
 4350 1376 4F535F45 		.ascii	"OS_ERR_PEND_DEL\000"
 4350      52525F50 
 4350      454E445F 
 4350      44454C00 
 4351              	.LASF280:
 4352 1386 50656E64 		.ascii	"PendObjPtr\000"
 4352      4F626A50 
 4352      747200
 4353              	.LASF216:
 4354 1391 4E627245 		.ascii	"NbrEntriesMax\000"
 4354      6E747269 
 4354      65734D61 
 4354      7800
 4355              	.LASF286:
 4356 139f 6F735F70 		.ascii	"os_pend_list\000"
 4356      656E645F 
 4356      6C697374 
 4356      00
 4357              	.LASF74:
 4358 13ac 4F535F45 		.ascii	"OS_ERR_MEM_INVALID_SIZE\000"
 4358      52525F4D 
 4358      454D5F49 
 4358      4E56414C 
 4358      49445F53 
 4359              	.LASF154:
 4360 13c4 4F535F45 		.ascii	"OS_ERR_TASK_SUSPENDED\000"
 4360      52525F54 
 4360      41534B5F 
 4360      53555350 
 4360      454E4445 
 4361              	.LASF126:
 4362 13da 4F535F45 		.ascii	"OS_ERR_SET_ISR\000"
ARM GAS  C:\Users\ADMINI~1\AppData\Local\Temp\ccvQPEdN.s 			page 114


 4362      52525F53 
 4362      45545F49 
 4362      535200
 4363              	.LASF255:
 4364 13e9 52656754 		.ascii	"RegTbl\000"
 4364      626C00
 4365              	.LASF125:
 4366 13f0 4F535F45 		.ascii	"OS_ERR_SEM_OVF\000"
 4366      52525F53 
 4366      454D5F4F 
 4366      564600
 4367              	.LASF140:
 4368 13ff 4F535F45 		.ascii	"OS_ERR_TASK_DEL_IDLE\000"
 4368      52525F54 
 4368      41534B5F 
 4368      44454C5F 
 4368      49444C45 
 4369              	.LASF173:
 4370 1414 4F535F45 		.ascii	"OS_ERR_TIME_GET_ISR\000"
 4370      52525F54 
 4370      494D455F 
 4370      4745545F 
 4370      49535200 
 4371              	.LASF172:
 4372 1428 4F535F45 		.ascii	"OS_ERR_TIME_DLY_RESUME_ISR\000"
 4372      52525F54 
 4372      494D455F 
 4372      444C595F 
 4372      52455355 
 4373              	.LASF167:
 4374 1443 4F535F45 		.ascii	"OS_ERR_TICK_PRIO_INVALID\000"
 4374      52525F54 
 4374      49434B5F 
 4374      5052494F 
 4374      5F494E56 
 4375              	.LASF106:
 4376 145c 4F535F45 		.ascii	"OS_ERR_PRIO_EXIST\000"
 4376      52525F50 
 4376      52494F5F 
 4376      45584953 
 4376      5400
 4377              	.LASF211:
 4378 146e 6F735F6D 		.ascii	"os_msg_q\000"
 4378      73675F71 
 4378      00
 4379              	.LASF75:
 4380 1477 4F535F45 		.ascii	"OS_ERR_MEM_NO_FREE_BLKS\000"
 4380      52525F4D 
 4380      454D5F4E 
 4380      4F5F4652 
 4380      45455F42 
 4381              	.LASF15:
 4382 148f 4350555F 		.ascii	"CPU_STK\000"
 4382      53544B00 
 4383              	.LASF296:
 4384 1497 4F534D75 		.ascii	"OSMutexPend\000"
 4384      74657850 
ARM GAS  C:\Users\ADMINI~1\AppData\Local\Temp\ccvQPEdN.s 			page 115


 4384      656E6400 
 4385              		.ident	"GCC: (GNU Tools for ARM Embedded Processors) 5.4.1 20160609 (release) [ARM/embedded-5-bran
