ARM GAS  C:\Users\ADMINI~1\AppData\Local\Temp\ccLI31Sr.s 			page 1


   1              		.syntax unified
   2              		.cpu cortex-m0
   3              		.fpu softvfp
   4              		.eabi_attribute 20, 1
   5              		.eabi_attribute 21, 1
   6              		.eabi_attribute 23, 3
   7              		.eabi_attribute 24, 1
   8              		.eabi_attribute 25, 1
   9              		.eabi_attribute 26, 1
  10              		.eabi_attribute 30, 6
  11              		.eabi_attribute 34, 0
  12              		.eabi_attribute 18, 4
  13              		.thumb
  14              		.syntax unified
  15              		.file	"os_msg.c"
  16              		.text
  17              	.Ltext0:
  18              		.cfi_sections	.debug_frame
  19              		.section	.text.OS_MsgPoolInit,"ax",%progbits
  20              		.align	2
  21              		.global	OS_MsgPoolInit
  22              		.code	16
  23              		.thumb_func
  24              		.type	OS_MsgPoolInit, %function
  25              	OS_MsgPoolInit:
  26              	.LFB0:
  27              		.file 1 "..\\..\\..\\..\\..\\..\\Software\\uCOS-III\\Source\\os_msg.c"
   1:..\..\..\..\..\..\Software\uCOS-III\Source/os_msg.c **** /*
   2:..\..\..\..\..\..\Software\uCOS-III\Source/os_msg.c **** ***************************************************************************************************
   3:..\..\..\..\..\..\Software\uCOS-III\Source/os_msg.c **** *                                                      uC/OS-III
   4:..\..\..\..\..\..\Software\uCOS-III\Source/os_msg.c **** *                                                 The Real-Time Kernel
   5:..\..\..\..\..\..\Software\uCOS-III\Source/os_msg.c **** *
   6:..\..\..\..\..\..\Software\uCOS-III\Source/os_msg.c **** *                                  (c) Copyright 2009-2015; Micrium, Inc.; Weston, FL
   7:..\..\..\..\..\..\Software\uCOS-III\Source/os_msg.c **** *                           All rights reserved.  Protected by international copyright laws.
   8:..\..\..\..\..\..\Software\uCOS-III\Source/os_msg.c **** *
   9:..\..\..\..\..\..\Software\uCOS-III\Source/os_msg.c **** *                                              MESSAGE HANDLING SERVICES
  10:..\..\..\..\..\..\Software\uCOS-III\Source/os_msg.c **** *
  11:..\..\..\..\..\..\Software\uCOS-III\Source/os_msg.c **** * File    : OS_MSG.C
  12:..\..\..\..\..\..\Software\uCOS-III\Source/os_msg.c **** * By      : JJL
  13:..\..\..\..\..\..\Software\uCOS-III\Source/os_msg.c **** * Version : V3.05.01
  14:..\..\..\..\..\..\Software\uCOS-III\Source/os_msg.c **** *
  15:..\..\..\..\..\..\Software\uCOS-III\Source/os_msg.c **** * LICENSING TERMS:
  16:..\..\..\..\..\..\Software\uCOS-III\Source/os_msg.c **** * ---------------
  17:..\..\..\..\..\..\Software\uCOS-III\Source/os_msg.c **** *           uC/OS-III is provided in source form for FREE short-term evaluation, for educational us
  18:..\..\..\..\..\..\Software\uCOS-III\Source/os_msg.c **** *           for peaceful research.  If you plan or intend to use uC/OS-III in a commercial applicat
  19:..\..\..\..\..\..\Software\uCOS-III\Source/os_msg.c **** *           product then, you need to contact Micrium to properly license uC/OS-III for its use in 
  20:..\..\..\..\..\..\Software\uCOS-III\Source/os_msg.c **** *           application/product.   We provide ALL the source code for your convenience and to help 
  21:..\..\..\..\..\..\Software\uCOS-III\Source/os_msg.c **** *           experience uC/OS-III.  The fact that the source is provided does NOT mean that you can 
  22:..\..\..\..\..\..\Software\uCOS-III\Source/os_msg.c **** *           it commercially without paying a licensing fee.
  23:..\..\..\..\..\..\Software\uCOS-III\Source/os_msg.c **** *
  24:..\..\..\..\..\..\Software\uCOS-III\Source/os_msg.c **** *           Knowledge of the source code may NOT be used to develop a similar product.
  25:..\..\..\..\..\..\Software\uCOS-III\Source/os_msg.c **** *
  26:..\..\..\..\..\..\Software\uCOS-III\Source/os_msg.c **** *           Please help us continue to provide the embedded community with the finest software avai
  27:..\..\..\..\..\..\Software\uCOS-III\Source/os_msg.c **** *           Your honesty is greatly appreciated.
  28:..\..\..\..\..\..\Software\uCOS-III\Source/os_msg.c **** *
  29:..\..\..\..\..\..\Software\uCOS-III\Source/os_msg.c **** *           You can find our product's user manual, API reference, release notes and
  30:..\..\..\..\..\..\Software\uCOS-III\Source/os_msg.c **** *           more information at https://doc.micrium.com.
ARM GAS  C:\Users\ADMINI~1\AppData\Local\Temp\ccLI31Sr.s 			page 2


  31:..\..\..\..\..\..\Software\uCOS-III\Source/os_msg.c **** *           You can contact us at www.micrium.com.
  32:..\..\..\..\..\..\Software\uCOS-III\Source/os_msg.c **** ***************************************************************************************************
  33:..\..\..\..\..\..\Software\uCOS-III\Source/os_msg.c **** */
  34:..\..\..\..\..\..\Software\uCOS-III\Source/os_msg.c **** 
  35:..\..\..\..\..\..\Software\uCOS-III\Source/os_msg.c **** #define  MICRIUM_SOURCE
  36:..\..\..\..\..\..\Software\uCOS-III\Source/os_msg.c **** #include "os.h"
  37:..\..\..\..\..\..\Software\uCOS-III\Source/os_msg.c **** 
  38:..\..\..\..\..\..\Software\uCOS-III\Source/os_msg.c **** #ifdef VSC_INCLUDE_SOURCE_FILE_NAMES
  39:..\..\..\..\..\..\Software\uCOS-III\Source/os_msg.c **** const  CPU_CHAR  *os_msg__c = "$Id: $";
  40:..\..\..\..\..\..\Software\uCOS-III\Source/os_msg.c **** #endif
  41:..\..\..\..\..\..\Software\uCOS-III\Source/os_msg.c **** 
  42:..\..\..\..\..\..\Software\uCOS-III\Source/os_msg.c **** 
  43:..\..\..\..\..\..\Software\uCOS-III\Source/os_msg.c **** #if (OS_MSG_EN == DEF_ENABLED)
  44:..\..\..\..\..\..\Software\uCOS-III\Source/os_msg.c **** 
  45:..\..\..\..\..\..\Software\uCOS-III\Source/os_msg.c **** /*
  46:..\..\..\..\..\..\Software\uCOS-III\Source/os_msg.c **** ***************************************************************************************************
  47:..\..\..\..\..\..\Software\uCOS-III\Source/os_msg.c **** *                                            INITIALIZE THE POOL OF 'OS_MSG'
  48:..\..\..\..\..\..\Software\uCOS-III\Source/os_msg.c **** *
  49:..\..\..\..\..\..\Software\uCOS-III\Source/os_msg.c **** * Description: This function is called by OSInit() to initialize the free list of OS_MSGs.
  50:..\..\..\..\..\..\Software\uCOS-III\Source/os_msg.c **** *
  51:..\..\..\..\..\..\Software\uCOS-III\Source/os_msg.c **** * Argument(s): p_err     is a pointer to a variable that will contain an error code returned by thi
  52:..\..\..\..\..\..\Software\uCOS-III\Source/os_msg.c **** *
  53:..\..\..\..\..\..\Software\uCOS-III\Source/os_msg.c **** *                            OS_ERR_MSG_POOL_NULL_PTR
  54:..\..\..\..\..\..\Software\uCOS-III\Source/os_msg.c **** *                            OS_ERR_MSG_POOL_EMPTY
  55:..\..\..\..\..\..\Software\uCOS-III\Source/os_msg.c **** *                            OS_ERR_NONE
  56:..\..\..\..\..\..\Software\uCOS-III\Source/os_msg.c **** *
  57:..\..\..\..\..\..\Software\uCOS-III\Source/os_msg.c **** * Returns    : none
  58:..\..\..\..\..\..\Software\uCOS-III\Source/os_msg.c **** *
  59:..\..\..\..\..\..\Software\uCOS-III\Source/os_msg.c **** * Note(s)    : 1) This function is INTERNAL to uC/OS-III and your application MUST NOT call it.
  60:..\..\..\..\..\..\Software\uCOS-III\Source/os_msg.c **** ***************************************************************************************************
  61:..\..\..\..\..\..\Software\uCOS-III\Source/os_msg.c **** */
  62:..\..\..\..\..\..\Software\uCOS-III\Source/os_msg.c **** 
  63:..\..\..\..\..\..\Software\uCOS-III\Source/os_msg.c **** void  OS_MsgPoolInit (OS_ERR  *p_err)
  64:..\..\..\..\..\..\Software\uCOS-III\Source/os_msg.c **** {
  28              		.loc 1 64 0
  29              		.cfi_startproc
  30              		@ args = 0, pretend = 0, frame = 24
  31              		@ frame_needed = 1, uses_anonymous_args = 0
  32 0000 80B5     		push	{r7, lr}
  33              		.cfi_def_cfa_offset 8
  34              		.cfi_offset 7, -8
  35              		.cfi_offset 14, -4
  36 0002 86B0     		sub	sp, sp, #24
  37              		.cfi_def_cfa_offset 32
  38 0004 00AF     		add	r7, sp, #0
  39              		.cfi_def_cfa_register 7
  40 0006 7860     		str	r0, [r7, #4]
  65:..\..\..\..\..\..\Software\uCOS-III\Source/os_msg.c ****     OS_MSG      *p_msg1;
  66:..\..\..\..\..\..\Software\uCOS-III\Source/os_msg.c ****     OS_MSG      *p_msg2;
  67:..\..\..\..\..\..\Software\uCOS-III\Source/os_msg.c ****     OS_MSG_QTY   i;
  68:..\..\..\..\..\..\Software\uCOS-III\Source/os_msg.c ****     OS_MSG_QTY   loops;
  69:..\..\..\..\..\..\Software\uCOS-III\Source/os_msg.c **** 
  70:..\..\..\..\..\..\Software\uCOS-III\Source/os_msg.c **** 
  71:..\..\..\..\..\..\Software\uCOS-III\Source/os_msg.c **** #if (OS_CFG_ARG_CHK_EN == DEF_ENABLED)
  72:..\..\..\..\..\..\Software\uCOS-III\Source/os_msg.c ****     if (OSCfg_MsgPoolBasePtr == DEF_NULL) {
  41              		.loc 1 72 0
  42 0008 324B     		ldr	r3, .L7
ARM GAS  C:\Users\ADMINI~1\AppData\Local\Temp\ccLI31Sr.s 			page 3


  43 000a 1B68     		ldr	r3, [r3]
  44 000c 002B     		cmp	r3, #0
  45 000e 03D1     		bne	.L2
  73:..\..\..\..\..\..\Software\uCOS-III\Source/os_msg.c ****        *p_err = OS_ERR_MSG_POOL_NULL_PTR;
  46              		.loc 1 73 0
  47 0010 7B68     		ldr	r3, [r7, #4]
  48 0012 314A     		ldr	r2, .L7+4
  49 0014 1A80     		strh	r2, [r3]
  74:..\..\..\..\..\..\Software\uCOS-III\Source/os_msg.c ****         return;
  50              		.loc 1 74 0
  51 0016 59E0     		b	.L1
  52              	.L2:
  75:..\..\..\..\..\..\Software\uCOS-III\Source/os_msg.c ****     }
  76:..\..\..\..\..\..\Software\uCOS-III\Source/os_msg.c ****     if (OSCfg_MsgPoolSize == 0u) {
  53              		.loc 1 76 0
  54 0018 304B     		ldr	r3, .L7+8
  55 001a 1B88     		ldrh	r3, [r3]
  56 001c 002B     		cmp	r3, #0
  57 001e 03D1     		bne	.L4
  77:..\..\..\..\..\..\Software\uCOS-III\Source/os_msg.c ****        *p_err = OS_ERR_MSG_POOL_EMPTY;
  58              		.loc 1 77 0
  59 0020 7B68     		ldr	r3, [r7, #4]
  60 0022 2F4A     		ldr	r2, .L7+12
  61 0024 1A80     		strh	r2, [r3]
  78:..\..\..\..\..\..\Software\uCOS-III\Source/os_msg.c ****         return;
  62              		.loc 1 78 0
  63 0026 51E0     		b	.L1
  64              	.L4:
  79:..\..\..\..\..\..\Software\uCOS-III\Source/os_msg.c ****     }
  80:..\..\..\..\..\..\Software\uCOS-III\Source/os_msg.c **** #endif
  81:..\..\..\..\..\..\Software\uCOS-III\Source/os_msg.c **** 
  82:..\..\..\..\..\..\Software\uCOS-III\Source/os_msg.c ****     p_msg1 = OSCfg_MsgPoolBasePtr;
  65              		.loc 1 82 0
  66 0028 2A4B     		ldr	r3, .L7
  67 002a 1B68     		ldr	r3, [r3]
  68 002c 7B61     		str	r3, [r7, #20]
  83:..\..\..\..\..\..\Software\uCOS-III\Source/os_msg.c ****     p_msg2 = OSCfg_MsgPoolBasePtr;
  69              		.loc 1 83 0
  70 002e 294B     		ldr	r3, .L7
  71 0030 1B68     		ldr	r3, [r3]
  72 0032 3B61     		str	r3, [r7, #16]
  84:..\..\..\..\..\..\Software\uCOS-III\Source/os_msg.c ****     p_msg2++;
  73              		.loc 1 84 0
  74 0034 3B69     		ldr	r3, [r7, #16]
  75 0036 1033     		adds	r3, r3, #16
  76 0038 3B61     		str	r3, [r7, #16]
  85:..\..\..\..\..\..\Software\uCOS-III\Source/os_msg.c ****     loops  = OSCfg_MsgPoolSize - 1u;
  77              		.loc 1 85 0
  78 003a 284B     		ldr	r3, .L7+8
  79 003c 1A88     		ldrh	r2, [r3]
  80 003e 0C23     		movs	r3, #12
  81 0040 FB18     		adds	r3, r7, r3
  82 0042 013A     		subs	r2, r2, #1
  83 0044 1A80     		strh	r2, [r3]
  86:..\..\..\..\..\..\Software\uCOS-III\Source/os_msg.c ****     for (i = 0u; i < loops; i++) {                              /* Init. list of free OS_MSGs      
  84              		.loc 1 86 0
  85 0046 0E23     		movs	r3, #14
ARM GAS  C:\Users\ADMINI~1\AppData\Local\Temp\ccLI31Sr.s 			page 4


  86 0048 FB18     		adds	r3, r7, r3
  87 004a 0022     		movs	r2, #0
  88 004c 1A80     		strh	r2, [r3]
  89 004e 18E0     		b	.L5
  90              	.L6:
  87:..\..\..\..\..\..\Software\uCOS-III\Source/os_msg.c ****         p_msg1->NextPtr = p_msg2;
  91              		.loc 1 87 0 discriminator 3
  92 0050 7B69     		ldr	r3, [r7, #20]
  93 0052 3A69     		ldr	r2, [r7, #16]
  94 0054 1A60     		str	r2, [r3]
  88:..\..\..\..\..\..\Software\uCOS-III\Source/os_msg.c ****         p_msg1->MsgPtr  = DEF_NULL;
  95              		.loc 1 88 0 discriminator 3
  96 0056 7B69     		ldr	r3, [r7, #20]
  97 0058 0022     		movs	r2, #0
  98 005a 5A60     		str	r2, [r3, #4]
  89:..\..\..\..\..\..\Software\uCOS-III\Source/os_msg.c ****         p_msg1->MsgSize = 0u;
  99              		.loc 1 89 0 discriminator 3
 100 005c 7B69     		ldr	r3, [r7, #20]
 101 005e 0022     		movs	r2, #0
 102 0060 1A81     		strh	r2, [r3, #8]
  90:..\..\..\..\..\..\Software\uCOS-III\Source/os_msg.c **** #if (OS_CFG_TS_EN == DEF_ENABLED)
  91:..\..\..\..\..\..\Software\uCOS-III\Source/os_msg.c ****         p_msg1->MsgTS   = 0u;
 103              		.loc 1 91 0 discriminator 3
 104 0062 7B69     		ldr	r3, [r7, #20]
 105 0064 0022     		movs	r2, #0
 106 0066 DA60     		str	r2, [r3, #12]
  92:..\..\..\..\..\..\Software\uCOS-III\Source/os_msg.c **** #endif
  93:..\..\..\..\..\..\Software\uCOS-III\Source/os_msg.c ****         p_msg1++;
 107              		.loc 1 93 0 discriminator 3
 108 0068 7B69     		ldr	r3, [r7, #20]
 109 006a 1033     		adds	r3, r3, #16
 110 006c 7B61     		str	r3, [r7, #20]
  94:..\..\..\..\..\..\Software\uCOS-III\Source/os_msg.c ****         p_msg2++;
 111              		.loc 1 94 0 discriminator 3
 112 006e 3B69     		ldr	r3, [r7, #16]
 113 0070 1033     		adds	r3, r3, #16
 114 0072 3B61     		str	r3, [r7, #16]
  86:..\..\..\..\..\..\Software\uCOS-III\Source/os_msg.c ****         p_msg1->NextPtr = p_msg2;
 115              		.loc 1 86 0 discriminator 3
 116 0074 0E23     		movs	r3, #14
 117 0076 FB18     		adds	r3, r7, r3
 118 0078 1A88     		ldrh	r2, [r3]
 119 007a 0E23     		movs	r3, #14
 120 007c FB18     		adds	r3, r7, r3
 121 007e 0132     		adds	r2, r2, #1
 122 0080 1A80     		strh	r2, [r3]
 123              	.L5:
  86:..\..\..\..\..\..\Software\uCOS-III\Source/os_msg.c ****         p_msg1->NextPtr = p_msg2;
 124              		.loc 1 86 0 is_stmt 0 discriminator 1
 125 0082 0E23     		movs	r3, #14
 126 0084 FA18     		adds	r2, r7, r3
 127 0086 0C23     		movs	r3, #12
 128 0088 FB18     		adds	r3, r7, r3
 129 008a 1288     		ldrh	r2, [r2]
 130 008c 1B88     		ldrh	r3, [r3]
 131 008e 9A42     		cmp	r2, r3
 132 0090 DED3     		bcc	.L6
ARM GAS  C:\Users\ADMINI~1\AppData\Local\Temp\ccLI31Sr.s 			page 5


  95:..\..\..\..\..\..\Software\uCOS-III\Source/os_msg.c ****     }
  96:..\..\..\..\..\..\Software\uCOS-III\Source/os_msg.c ****     p_msg1->NextPtr = DEF_NULL;                                 /* Last OS_MSG                     
 133              		.loc 1 96 0 is_stmt 1
 134 0092 7B69     		ldr	r3, [r7, #20]
 135 0094 0022     		movs	r2, #0
 136 0096 1A60     		str	r2, [r3]
  97:..\..\..\..\..\..\Software\uCOS-III\Source/os_msg.c ****     p_msg1->MsgPtr  = DEF_NULL;
 137              		.loc 1 97 0
 138 0098 7B69     		ldr	r3, [r7, #20]
 139 009a 0022     		movs	r2, #0
 140 009c 5A60     		str	r2, [r3, #4]
  98:..\..\..\..\..\..\Software\uCOS-III\Source/os_msg.c ****     p_msg1->MsgSize = 0u;
 141              		.loc 1 98 0
 142 009e 7B69     		ldr	r3, [r7, #20]
 143 00a0 0022     		movs	r2, #0
 144 00a2 1A81     		strh	r2, [r3, #8]
  99:..\..\..\..\..\..\Software\uCOS-III\Source/os_msg.c **** #if (OS_CFG_TS_EN == DEF_ENABLED)
 100:..\..\..\..\..\..\Software\uCOS-III\Source/os_msg.c ****     p_msg1->MsgTS   = 0u;
 145              		.loc 1 100 0
 146 00a4 7B69     		ldr	r3, [r7, #20]
 147 00a6 0022     		movs	r2, #0
 148 00a8 DA60     		str	r2, [r3, #12]
 101:..\..\..\..\..\..\Software\uCOS-III\Source/os_msg.c **** #endif
 102:..\..\..\..\..\..\Software\uCOS-III\Source/os_msg.c **** 
 103:..\..\..\..\..\..\Software\uCOS-III\Source/os_msg.c ****     OSMsgPool.NextPtr    = OSCfg_MsgPoolBasePtr;
 149              		.loc 1 103 0
 150 00aa 0A4B     		ldr	r3, .L7
 151 00ac 1A68     		ldr	r2, [r3]
 152 00ae 0D4B     		ldr	r3, .L7+16
 153 00b0 1A60     		str	r2, [r3]
 104:..\..\..\..\..\..\Software\uCOS-III\Source/os_msg.c ****     OSMsgPool.NbrFree    = OSCfg_MsgPoolSize;
 154              		.loc 1 104 0
 155 00b2 0A4B     		ldr	r3, .L7+8
 156 00b4 1A88     		ldrh	r2, [r3]
 157 00b6 0B4B     		ldr	r3, .L7+16
 158 00b8 9A80     		strh	r2, [r3, #4]
 105:..\..\..\..\..\..\Software\uCOS-III\Source/os_msg.c ****     OSMsgPool.NbrUsed    = 0u;
 159              		.loc 1 105 0
 160 00ba 0A4B     		ldr	r3, .L7+16
 161 00bc 0022     		movs	r2, #0
 162 00be DA80     		strh	r2, [r3, #6]
 106:..\..\..\..\..\..\Software\uCOS-III\Source/os_msg.c **** #if (OS_CFG_DBG_EN == DEF_ENABLED)
 107:..\..\..\..\..\..\Software\uCOS-III\Source/os_msg.c ****     OSMsgPool.NbrUsedMax = 0u;
 163              		.loc 1 107 0
 164 00c0 084B     		ldr	r3, .L7+16
 165 00c2 0022     		movs	r2, #0
 166 00c4 1A81     		strh	r2, [r3, #8]
 108:..\..\..\..\..\..\Software\uCOS-III\Source/os_msg.c **** #endif
 109:..\..\..\..\..\..\Software\uCOS-III\Source/os_msg.c ****    *p_err                =  OS_ERR_NONE;
 167              		.loc 1 109 0
 168 00c6 7B68     		ldr	r3, [r7, #4]
 169 00c8 0022     		movs	r2, #0
 170 00ca 1A80     		strh	r2, [r3]
 171              	.L1:
 110:..\..\..\..\..\..\Software\uCOS-III\Source/os_msg.c **** }
 172              		.loc 1 110 0
 173 00cc BD46     		mov	sp, r7
ARM GAS  C:\Users\ADMINI~1\AppData\Local\Temp\ccLI31Sr.s 			page 6


 174 00ce 06B0     		add	sp, sp, #24
 175              		@ sp needed
 176 00d0 80BD     		pop	{r7, pc}
 177              	.L8:
 178 00d2 C046     		.align	2
 179              	.L7:
 180 00d4 00000000 		.word	OSCfg_MsgPoolBasePtr
 181 00d8 1E570000 		.word	22302
 182 00dc 00000000 		.word	OSCfg_MsgPoolSize
 183 00e0 1D570000 		.word	22301
 184 00e4 00000000 		.word	OSMsgPool
 185              		.cfi_endproc
 186              	.LFE0:
 187              		.size	OS_MsgPoolInit, .-OS_MsgPoolInit
 188              		.section	.text.OS_MsgQFreeAll,"ax",%progbits
 189              		.align	2
 190              		.global	OS_MsgQFreeAll
 191              		.code	16
 192              		.thumb_func
 193              		.type	OS_MsgQFreeAll, %function
 194              	OS_MsgQFreeAll:
 195              	.LFB1:
 111:..\..\..\..\..\..\Software\uCOS-III\Source/os_msg.c **** 
 112:..\..\..\..\..\..\Software\uCOS-III\Source/os_msg.c **** 
 113:..\..\..\..\..\..\Software\uCOS-III\Source/os_msg.c **** /*
 114:..\..\..\..\..\..\Software\uCOS-III\Source/os_msg.c **** ***************************************************************************************************
 115:..\..\..\..\..\..\Software\uCOS-III\Source/os_msg.c **** *                                        RELEASE ALL MESSAGE IN MESSAGE QUEUE
 116:..\..\..\..\..\..\Software\uCOS-III\Source/os_msg.c **** *
 117:..\..\..\..\..\..\Software\uCOS-III\Source/os_msg.c **** * Description: This function returns all the messages in a message queue to the free list.
 118:..\..\..\..\..\..\Software\uCOS-III\Source/os_msg.c **** *
 119:..\..\..\..\..\..\Software\uCOS-III\Source/os_msg.c **** * Arguments  : p_msg_q       is a pointer to the OS_MSG_Q structure containing messages to free.
 120:..\..\..\..\..\..\Software\uCOS-III\Source/os_msg.c **** *              -------
 121:..\..\..\..\..\..\Software\uCOS-III\Source/os_msg.c **** *
 122:..\..\..\..\..\..\Software\uCOS-III\Source/os_msg.c **** * Returns    : the number of OS_MSGs returned to the free list
 123:..\..\..\..\..\..\Software\uCOS-III\Source/os_msg.c **** *
 124:..\..\..\..\..\..\Software\uCOS-III\Source/os_msg.c **** * Note(s)    : 1) This function is INTERNAL to uC/OS-III and your application MUST NOT call it.
 125:..\..\..\..\..\..\Software\uCOS-III\Source/os_msg.c **** ***************************************************************************************************
 126:..\..\..\..\..\..\Software\uCOS-III\Source/os_msg.c **** */
 127:..\..\..\..\..\..\Software\uCOS-III\Source/os_msg.c **** 
 128:..\..\..\..\..\..\Software\uCOS-III\Source/os_msg.c **** OS_MSG_QTY  OS_MsgQFreeAll (OS_MSG_Q  *p_msg_q)
 129:..\..\..\..\..\..\Software\uCOS-III\Source/os_msg.c **** {
 196              		.loc 1 129 0
 197              		.cfi_startproc
 198              		@ args = 0, pretend = 0, frame = 16
 199              		@ frame_needed = 1, uses_anonymous_args = 0
 200 0000 80B5     		push	{r7, lr}
 201              		.cfi_def_cfa_offset 8
 202              		.cfi_offset 7, -8
 203              		.cfi_offset 14, -4
 204 0002 84B0     		sub	sp, sp, #16
 205              		.cfi_def_cfa_offset 24
 206 0004 00AF     		add	r7, sp, #0
 207              		.cfi_def_cfa_register 7
 208 0006 7860     		str	r0, [r7, #4]
 130:..\..\..\..\..\..\Software\uCOS-III\Source/os_msg.c ****     OS_MSG      *p_msg;
 131:..\..\..\..\..\..\Software\uCOS-III\Source/os_msg.c ****     OS_MSG_QTY   qty;
 132:..\..\..\..\..\..\Software\uCOS-III\Source/os_msg.c **** 
ARM GAS  C:\Users\ADMINI~1\AppData\Local\Temp\ccLI31Sr.s 			page 7


 133:..\..\..\..\..\..\Software\uCOS-III\Source/os_msg.c **** 
 134:..\..\..\..\..\..\Software\uCOS-III\Source/os_msg.c **** 
 135:..\..\..\..\..\..\Software\uCOS-III\Source/os_msg.c ****     qty = p_msg_q->NbrEntries;                                  /* Get the number of OS_MSGs being 
 209              		.loc 1 135 0
 210 0008 0E23     		movs	r3, #14
 211 000a FB18     		adds	r3, r7, r3
 212 000c 7A68     		ldr	r2, [r7, #4]
 213 000e 5289     		ldrh	r2, [r2, #10]
 214 0010 1A80     		strh	r2, [r3]
 136:..\..\..\..\..\..\Software\uCOS-III\Source/os_msg.c ****     if (p_msg_q->NbrEntries > 0u) {
 215              		.loc 1 136 0
 216 0012 7B68     		ldr	r3, [r7, #4]
 217 0014 5B89     		ldrh	r3, [r3, #10]
 218 0016 002B     		cmp	r3, #0
 219 0018 26D0     		beq	.L10
 137:..\..\..\..\..\..\Software\uCOS-III\Source/os_msg.c ****         p_msg                   = p_msg_q->InPtr;               /* Point to end of message chain   
 220              		.loc 1 137 0
 221 001a 7B68     		ldr	r3, [r7, #4]
 222 001c 1B68     		ldr	r3, [r3]
 223 001e BB60     		str	r3, [r7, #8]
 138:..\..\..\..\..\..\Software\uCOS-III\Source/os_msg.c ****         p_msg->NextPtr          = OSMsgPool.NextPtr;
 224              		.loc 1 138 0
 225 0020 154B     		ldr	r3, .L12
 226 0022 1A68     		ldr	r2, [r3]
 227 0024 BB68     		ldr	r3, [r7, #8]
 228 0026 1A60     		str	r2, [r3]
 139:..\..\..\..\..\..\Software\uCOS-III\Source/os_msg.c ****         OSMsgPool.NextPtr       = p_msg_q->OutPtr;              /* Point to beginning of message ch
 229              		.loc 1 139 0
 230 0028 7B68     		ldr	r3, [r7, #4]
 231 002a 5A68     		ldr	r2, [r3, #4]
 232 002c 124B     		ldr	r3, .L12
 233 002e 1A60     		str	r2, [r3]
 140:..\..\..\..\..\..\Software\uCOS-III\Source/os_msg.c ****         OSMsgPool.NbrUsed      -= p_msg_q->NbrEntries;          /* Update statistics for free list 
 234              		.loc 1 140 0
 235 0030 114B     		ldr	r3, .L12
 236 0032 DA88     		ldrh	r2, [r3, #6]
 237 0034 7B68     		ldr	r3, [r7, #4]
 238 0036 5B89     		ldrh	r3, [r3, #10]
 239 0038 D31A     		subs	r3, r2, r3
 240 003a 9AB2     		uxth	r2, r3
 241 003c 0E4B     		ldr	r3, .L12
 242 003e DA80     		strh	r2, [r3, #6]
 141:..\..\..\..\..\..\Software\uCOS-III\Source/os_msg.c ****         OSMsgPool.NbrFree      += p_msg_q->NbrEntries;
 243              		.loc 1 141 0
 244 0040 0D4B     		ldr	r3, .L12
 245 0042 9A88     		ldrh	r2, [r3, #4]
 246 0044 7B68     		ldr	r3, [r7, #4]
 247 0046 5B89     		ldrh	r3, [r3, #10]
 248 0048 D318     		adds	r3, r2, r3
 249 004a 9AB2     		uxth	r2, r3
 250 004c 0A4B     		ldr	r3, .L12
 251 004e 9A80     		strh	r2, [r3, #4]
 142:..\..\..\..\..\..\Software\uCOS-III\Source/os_msg.c ****         p_msg_q->NbrEntries     = 0u;                           /* Flush the message queue         
 252              		.loc 1 142 0
 253 0050 7B68     		ldr	r3, [r7, #4]
 254 0052 0022     		movs	r2, #0
 255 0054 5A81     		strh	r2, [r3, #10]
ARM GAS  C:\Users\ADMINI~1\AppData\Local\Temp\ccLI31Sr.s 			page 8


 143:..\..\..\..\..\..\Software\uCOS-III\Source/os_msg.c **** #if (OS_CFG_DBG_EN == DEF_ENABLED)
 144:..\..\..\..\..\..\Software\uCOS-III\Source/os_msg.c ****         p_msg_q->NbrEntriesMax  = 0u;
 256              		.loc 1 144 0
 257 0056 7B68     		ldr	r3, [r7, #4]
 258 0058 0022     		movs	r2, #0
 259 005a 9A81     		strh	r2, [r3, #12]
 145:..\..\..\..\..\..\Software\uCOS-III\Source/os_msg.c **** #endif
 146:..\..\..\..\..\..\Software\uCOS-III\Source/os_msg.c ****         p_msg_q->InPtr          = DEF_NULL;
 260              		.loc 1 146 0
 261 005c 7B68     		ldr	r3, [r7, #4]
 262 005e 0022     		movs	r2, #0
 263 0060 1A60     		str	r2, [r3]
 147:..\..\..\..\..\..\Software\uCOS-III\Source/os_msg.c ****         p_msg_q->OutPtr         = DEF_NULL;
 264              		.loc 1 147 0
 265 0062 7B68     		ldr	r3, [r7, #4]
 266 0064 0022     		movs	r2, #0
 267 0066 5A60     		str	r2, [r3, #4]
 268              	.L10:
 148:..\..\..\..\..\..\Software\uCOS-III\Source/os_msg.c ****     }
 149:..\..\..\..\..\..\Software\uCOS-III\Source/os_msg.c ****     return (qty);
 269              		.loc 1 149 0
 270 0068 0E23     		movs	r3, #14
 271 006a FB18     		adds	r3, r7, r3
 272 006c 1B88     		ldrh	r3, [r3]
 150:..\..\..\..\..\..\Software\uCOS-III\Source/os_msg.c **** }
 273              		.loc 1 150 0
 274 006e 1800     		movs	r0, r3
 275 0070 BD46     		mov	sp, r7
 276 0072 04B0     		add	sp, sp, #16
 277              		@ sp needed
 278 0074 80BD     		pop	{r7, pc}
 279              	.L13:
 280 0076 C046     		.align	2
 281              	.L12:
 282 0078 00000000 		.word	OSMsgPool
 283              		.cfi_endproc
 284              	.LFE1:
 285              		.size	OS_MsgQFreeAll, .-OS_MsgQFreeAll
 286              		.section	.text.OS_MsgQInit,"ax",%progbits
 287              		.align	2
 288              		.global	OS_MsgQInit
 289              		.code	16
 290              		.thumb_func
 291              		.type	OS_MsgQInit, %function
 292              	OS_MsgQInit:
 293              	.LFB2:
 151:..\..\..\..\..\..\Software\uCOS-III\Source/os_msg.c **** 
 152:..\..\..\..\..\..\Software\uCOS-III\Source/os_msg.c **** 
 153:..\..\..\..\..\..\Software\uCOS-III\Source/os_msg.c **** /*
 154:..\..\..\..\..\..\Software\uCOS-III\Source/os_msg.c **** ***************************************************************************************************
 155:..\..\..\..\..\..\Software\uCOS-III\Source/os_msg.c **** *                                               INITIALIZE A MESSAGE QUEUE
 156:..\..\..\..\..\..\Software\uCOS-III\Source/os_msg.c **** *
 157:..\..\..\..\..\..\Software\uCOS-III\Source/os_msg.c **** * Description: This function is called to initialize a message queue
 158:..\..\..\..\..\..\Software\uCOS-III\Source/os_msg.c **** *
 159:..\..\..\..\..\..\Software\uCOS-III\Source/os_msg.c **** * Arguments  : p_msg_q      is a pointer to the message queue to initialize
 160:..\..\..\..\..\..\Software\uCOS-III\Source/os_msg.c **** *              -------
 161:..\..\..\..\..\..\Software\uCOS-III\Source/os_msg.c **** *
ARM GAS  C:\Users\ADMINI~1\AppData\Local\Temp\ccLI31Sr.s 			page 9


 162:..\..\..\..\..\..\Software\uCOS-III\Source/os_msg.c **** *              max          is the maximum number of entries that a message queue can have.
 163:..\..\..\..\..\..\Software\uCOS-III\Source/os_msg.c **** *
 164:..\..\..\..\..\..\Software\uCOS-III\Source/os_msg.c **** * Returns    : none
 165:..\..\..\..\..\..\Software\uCOS-III\Source/os_msg.c **** *
 166:..\..\..\..\..\..\Software\uCOS-III\Source/os_msg.c **** * Note(s)    : 1) This function is INTERNAL to uC/OS-III and your application MUST NOT call it.
 167:..\..\..\..\..\..\Software\uCOS-III\Source/os_msg.c **** ***************************************************************************************************
 168:..\..\..\..\..\..\Software\uCOS-III\Source/os_msg.c **** */
 169:..\..\..\..\..\..\Software\uCOS-III\Source/os_msg.c **** 
 170:..\..\..\..\..\..\Software\uCOS-III\Source/os_msg.c **** void  OS_MsgQInit (OS_MSG_Q    *p_msg_q,
 171:..\..\..\..\..\..\Software\uCOS-III\Source/os_msg.c ****                    OS_MSG_QTY   size)
 172:..\..\..\..\..\..\Software\uCOS-III\Source/os_msg.c **** {
 294              		.loc 1 172 0
 295              		.cfi_startproc
 296              		@ args = 0, pretend = 0, frame = 8
 297              		@ frame_needed = 1, uses_anonymous_args = 0
 298 0000 80B5     		push	{r7, lr}
 299              		.cfi_def_cfa_offset 8
 300              		.cfi_offset 7, -8
 301              		.cfi_offset 14, -4
 302 0002 82B0     		sub	sp, sp, #8
 303              		.cfi_def_cfa_offset 16
 304 0004 00AF     		add	r7, sp, #0
 305              		.cfi_def_cfa_register 7
 306 0006 7860     		str	r0, [r7, #4]
 307 0008 0A00     		movs	r2, r1
 308 000a BB1C     		adds	r3, r7, #2
 309 000c 1A80     		strh	r2, [r3]
 173:..\..\..\..\..\..\Software\uCOS-III\Source/os_msg.c ****     p_msg_q->NbrEntriesSize = size;
 310              		.loc 1 173 0
 311 000e 7B68     		ldr	r3, [r7, #4]
 312 0010 BA1C     		adds	r2, r7, #2
 313 0012 1288     		ldrh	r2, [r2]
 314 0014 1A81     		strh	r2, [r3, #8]
 174:..\..\..\..\..\..\Software\uCOS-III\Source/os_msg.c ****     p_msg_q->NbrEntries     = 0u;
 315              		.loc 1 174 0
 316 0016 7B68     		ldr	r3, [r7, #4]
 317 0018 0022     		movs	r2, #0
 318 001a 5A81     		strh	r2, [r3, #10]
 175:..\..\..\..\..\..\Software\uCOS-III\Source/os_msg.c **** #if (OS_CFG_DBG_EN == DEF_ENABLED)
 176:..\..\..\..\..\..\Software\uCOS-III\Source/os_msg.c ****     p_msg_q->NbrEntriesMax  = 0u;
 319              		.loc 1 176 0
 320 001c 7B68     		ldr	r3, [r7, #4]
 321 001e 0022     		movs	r2, #0
 322 0020 9A81     		strh	r2, [r3, #12]
 177:..\..\..\..\..\..\Software\uCOS-III\Source/os_msg.c **** #endif
 178:..\..\..\..\..\..\Software\uCOS-III\Source/os_msg.c ****     p_msg_q->InPtr          = DEF_NULL;
 323              		.loc 1 178 0
 324 0022 7B68     		ldr	r3, [r7, #4]
 325 0024 0022     		movs	r2, #0
 326 0026 1A60     		str	r2, [r3]
 179:..\..\..\..\..\..\Software\uCOS-III\Source/os_msg.c ****     p_msg_q->OutPtr         = DEF_NULL;
 327              		.loc 1 179 0
 328 0028 7B68     		ldr	r3, [r7, #4]
 329 002a 0022     		movs	r2, #0
 330 002c 5A60     		str	r2, [r3, #4]
 180:..\..\..\..\..\..\Software\uCOS-III\Source/os_msg.c **** }
 331              		.loc 1 180 0
ARM GAS  C:\Users\ADMINI~1\AppData\Local\Temp\ccLI31Sr.s 			page 10


 332 002e C046     		nop
 333 0030 BD46     		mov	sp, r7
 334 0032 02B0     		add	sp, sp, #8
 335              		@ sp needed
 336 0034 80BD     		pop	{r7, pc}
 337              		.cfi_endproc
 338              	.LFE2:
 339              		.size	OS_MsgQInit, .-OS_MsgQInit
 340 0036 C046     		.section	.text.OS_MsgQGet,"ax",%progbits
 341              		.align	2
 342              		.global	OS_MsgQGet
 343              		.code	16
 344              		.thumb_func
 345              		.type	OS_MsgQGet, %function
 346              	OS_MsgQGet:
 347              	.LFB3:
 181:..\..\..\..\..\..\Software\uCOS-III\Source/os_msg.c **** 
 182:..\..\..\..\..\..\Software\uCOS-III\Source/os_msg.c **** 
 183:..\..\..\..\..\..\Software\uCOS-III\Source/os_msg.c **** /*
 184:..\..\..\..\..\..\Software\uCOS-III\Source/os_msg.c **** ***************************************************************************************************
 185:..\..\..\..\..\..\Software\uCOS-III\Source/os_msg.c **** *                                           RETRIEVE MESSAGE FROM MESSAGE QUEUE
 186:..\..\..\..\..\..\Software\uCOS-III\Source/os_msg.c **** *
 187:..\..\..\..\..\..\Software\uCOS-III\Source/os_msg.c **** * Description: This function retrieves a message from a message queue
 188:..\..\..\..\..\..\Software\uCOS-III\Source/os_msg.c **** *
 189:..\..\..\..\..\..\Software\uCOS-III\Source/os_msg.c **** * Arguments  : p_msg_q     is a pointer to the message queue where we want to extract the message f
 190:..\..\..\..\..\..\Software\uCOS-III\Source/os_msg.c **** *              -------
 191:..\..\..\..\..\..\Software\uCOS-III\Source/os_msg.c **** *
 192:..\..\..\..\..\..\Software\uCOS-III\Source/os_msg.c **** *              p_msg_size  is a pointer to where the size (in bytes) of the message will be placed
 193:..\..\..\..\..\..\Software\uCOS-III\Source/os_msg.c **** *
 194:..\..\..\..\..\..\Software\uCOS-III\Source/os_msg.c **** *              p_ts        is a pointer to where the time stamp will be placed
 195:..\..\..\..\..\..\Software\uCOS-III\Source/os_msg.c **** *
 196:..\..\..\..\..\..\Software\uCOS-III\Source/os_msg.c **** *              p_err       is a pointer to an error code that will be returned from this call.
 197:..\..\..\..\..\..\Software\uCOS-III\Source/os_msg.c **** *
 198:..\..\..\..\..\..\Software\uCOS-III\Source/os_msg.c **** *                              OS_ERR_Q_EMPTY
 199:..\..\..\..\..\..\Software\uCOS-III\Source/os_msg.c **** *                              OS_ERR_NONE
 200:..\..\..\..\..\..\Software\uCOS-III\Source/os_msg.c **** *
 201:..\..\..\..\..\..\Software\uCOS-III\Source/os_msg.c **** * Returns    : The message (a pointer)
 202:..\..\..\..\..\..\Software\uCOS-III\Source/os_msg.c **** *
 203:..\..\..\..\..\..\Software\uCOS-III\Source/os_msg.c **** * Note(s)    : 1) This function is INTERNAL to uC/OS-III and your application MUST NOT call it.
 204:..\..\..\..\..\..\Software\uCOS-III\Source/os_msg.c **** ***************************************************************************************************
 205:..\..\..\..\..\..\Software\uCOS-III\Source/os_msg.c **** */
 206:..\..\..\..\..\..\Software\uCOS-III\Source/os_msg.c **** 
 207:..\..\..\..\..\..\Software\uCOS-III\Source/os_msg.c **** void  *OS_MsgQGet (OS_MSG_Q     *p_msg_q,
 208:..\..\..\..\..\..\Software\uCOS-III\Source/os_msg.c ****                    OS_MSG_SIZE  *p_msg_size,
 209:..\..\..\..\..\..\Software\uCOS-III\Source/os_msg.c ****                    CPU_TS       *p_ts,
 210:..\..\..\..\..\..\Software\uCOS-III\Source/os_msg.c ****                    OS_ERR       *p_err)
 211:..\..\..\..\..\..\Software\uCOS-III\Source/os_msg.c **** {
 348              		.loc 1 211 0
 349              		.cfi_startproc
 350              		@ args = 0, pretend = 0, frame = 24
 351              		@ frame_needed = 1, uses_anonymous_args = 0
 352 0000 80B5     		push	{r7, lr}
 353              		.cfi_def_cfa_offset 8
 354              		.cfi_offset 7, -8
 355              		.cfi_offset 14, -4
 356 0002 86B0     		sub	sp, sp, #24
 357              		.cfi_def_cfa_offset 32
ARM GAS  C:\Users\ADMINI~1\AppData\Local\Temp\ccLI31Sr.s 			page 11


 358 0004 00AF     		add	r7, sp, #0
 359              		.cfi_def_cfa_register 7
 360 0006 F860     		str	r0, [r7, #12]
 361 0008 B960     		str	r1, [r7, #8]
 362 000a 7A60     		str	r2, [r7, #4]
 363 000c 3B60     		str	r3, [r7]
 212:..\..\..\..\..\..\Software\uCOS-III\Source/os_msg.c ****     OS_MSG  *p_msg;
 213:..\..\..\..\..\..\Software\uCOS-III\Source/os_msg.c ****     void    *p_void;
 214:..\..\..\..\..\..\Software\uCOS-III\Source/os_msg.c **** 
 215:..\..\..\..\..\..\Software\uCOS-III\Source/os_msg.c **** 
 216:..\..\..\..\..\..\Software\uCOS-III\Source/os_msg.c **** #if (OS_CFG_TS_EN == DEF_DISABLED)
 217:..\..\..\..\..\..\Software\uCOS-III\Source/os_msg.c ****     (void)p_ts;                                                 /* Prevent compiler warning for not
 218:..\..\..\..\..\..\Software\uCOS-III\Source/os_msg.c **** #endif
 219:..\..\..\..\..\..\Software\uCOS-III\Source/os_msg.c **** 
 220:..\..\..\..\..\..\Software\uCOS-III\Source/os_msg.c ****     if (p_msg_q->NbrEntries == 0u) {                            /* Is the queue empty?             
 364              		.loc 1 220 0
 365 000e FB68     		ldr	r3, [r7, #12]
 366 0010 5B89     		ldrh	r3, [r3, #10]
 367 0012 002B     		cmp	r3, #0
 368 0014 0DD1     		bne	.L16
 221:..\..\..\..\..\..\Software\uCOS-III\Source/os_msg.c ****        *p_msg_size = 0u;                                        /* Yes                             
 369              		.loc 1 221 0
 370 0016 BB68     		ldr	r3, [r7, #8]
 371 0018 0022     		movs	r2, #0
 372 001a 1A80     		strh	r2, [r3]
 222:..\..\..\..\..\..\Software\uCOS-III\Source/os_msg.c **** #if (OS_CFG_TS_EN == DEF_ENABLED)
 223:..\..\..\..\..\..\Software\uCOS-III\Source/os_msg.c ****         if (p_ts != DEF_NULL) {
 373              		.loc 1 223 0
 374 001c 7B68     		ldr	r3, [r7, #4]
 375 001e 002B     		cmp	r3, #0
 376 0020 02D0     		beq	.L17
 224:..\..\..\..\..\..\Software\uCOS-III\Source/os_msg.c ****            *p_ts = 0u;
 377              		.loc 1 224 0
 378 0022 7B68     		ldr	r3, [r7, #4]
 379 0024 0022     		movs	r2, #0
 380 0026 1A60     		str	r2, [r3]
 381              	.L17:
 225:..\..\..\..\..\..\Software\uCOS-III\Source/os_msg.c ****         }
 226:..\..\..\..\..\..\Software\uCOS-III\Source/os_msg.c **** #endif
 227:..\..\..\..\..\..\Software\uCOS-III\Source/os_msg.c ****        *p_err = OS_ERR_Q_EMPTY;
 382              		.loc 1 227 0
 383 0028 3B68     		ldr	r3, [r7]
 384 002a 224A     		ldr	r2, .L22
 385 002c 1A80     		strh	r2, [r3]
 228:..\..\..\..\..\..\Software\uCOS-III\Source/os_msg.c ****         return (DEF_NULL);
 386              		.loc 1 228 0
 387 002e 0023     		movs	r3, #0
 388 0030 3CE0     		b	.L18
 389              	.L16:
 229:..\..\..\..\..\..\Software\uCOS-III\Source/os_msg.c ****     }
 230:..\..\..\..\..\..\Software\uCOS-III\Source/os_msg.c **** 
 231:..\..\..\..\..\..\Software\uCOS-III\Source/os_msg.c ****     p_msg           = p_msg_q->OutPtr;                          /* No, get the next message to extr
 390              		.loc 1 231 0
 391 0032 FB68     		ldr	r3, [r7, #12]
 392 0034 5B68     		ldr	r3, [r3, #4]
 393 0036 7B61     		str	r3, [r7, #20]
 232:..\..\..\..\..\..\Software\uCOS-III\Source/os_msg.c ****     p_void          = p_msg->MsgPtr;
ARM GAS  C:\Users\ADMINI~1\AppData\Local\Temp\ccLI31Sr.s 			page 12


 394              		.loc 1 232 0
 395 0038 7B69     		ldr	r3, [r7, #20]
 396 003a 5B68     		ldr	r3, [r3, #4]
 397 003c 3B61     		str	r3, [r7, #16]
 233:..\..\..\..\..\..\Software\uCOS-III\Source/os_msg.c ****    *p_msg_size      = p_msg->MsgSize;
 398              		.loc 1 233 0
 399 003e 7B69     		ldr	r3, [r7, #20]
 400 0040 1A89     		ldrh	r2, [r3, #8]
 401 0042 BB68     		ldr	r3, [r7, #8]
 402 0044 1A80     		strh	r2, [r3]
 234:..\..\..\..\..\..\Software\uCOS-III\Source/os_msg.c **** #if (OS_CFG_TS_EN == DEF_ENABLED)
 235:..\..\..\..\..\..\Software\uCOS-III\Source/os_msg.c ****     if (p_ts != DEF_NULL) {
 403              		.loc 1 235 0
 404 0046 7B68     		ldr	r3, [r7, #4]
 405 0048 002B     		cmp	r3, #0
 406 004a 03D0     		beq	.L19
 236:..\..\..\..\..\..\Software\uCOS-III\Source/os_msg.c ****        *p_ts = p_msg->MsgTS;
 407              		.loc 1 236 0
 408 004c 7B69     		ldr	r3, [r7, #20]
 409 004e DA68     		ldr	r2, [r3, #12]
 410 0050 7B68     		ldr	r3, [r7, #4]
 411 0052 1A60     		str	r2, [r3]
 412              	.L19:
 237:..\..\..\..\..\..\Software\uCOS-III\Source/os_msg.c ****     }
 238:..\..\..\..\..\..\Software\uCOS-III\Source/os_msg.c **** #endif
 239:..\..\..\..\..\..\Software\uCOS-III\Source/os_msg.c **** 
 240:..\..\..\..\..\..\Software\uCOS-III\Source/os_msg.c ****     p_msg_q->OutPtr = p_msg->NextPtr;                           /* Point to next message to extract
 413              		.loc 1 240 0
 414 0054 7B69     		ldr	r3, [r7, #20]
 415 0056 1A68     		ldr	r2, [r3]
 416 0058 FB68     		ldr	r3, [r7, #12]
 417 005a 5A60     		str	r2, [r3, #4]
 241:..\..\..\..\..\..\Software\uCOS-III\Source/os_msg.c **** 
 242:..\..\..\..\..\..\Software\uCOS-III\Source/os_msg.c ****     if (p_msg_q->OutPtr == DEF_NULL) {                          /* Are there any more messages in t
 418              		.loc 1 242 0
 419 005c FB68     		ldr	r3, [r7, #12]
 420 005e 5B68     		ldr	r3, [r3, #4]
 421 0060 002B     		cmp	r3, #0
 422 0062 06D1     		bne	.L20
 243:..\..\..\..\..\..\Software\uCOS-III\Source/os_msg.c ****         p_msg_q->InPtr      = DEF_NULL;                         /* No                              
 423              		.loc 1 243 0
 424 0064 FB68     		ldr	r3, [r7, #12]
 425 0066 0022     		movs	r2, #0
 426 0068 1A60     		str	r2, [r3]
 244:..\..\..\..\..\..\Software\uCOS-III\Source/os_msg.c ****         p_msg_q->NbrEntries = 0u;
 427              		.loc 1 244 0
 428 006a FB68     		ldr	r3, [r7, #12]
 429 006c 0022     		movs	r2, #0
 430 006e 5A81     		strh	r2, [r3, #10]
 431 0070 05E0     		b	.L21
 432              	.L20:
 245:..\..\..\..\..\..\Software\uCOS-III\Source/os_msg.c ****     } else {
 246:..\..\..\..\..\..\Software\uCOS-III\Source/os_msg.c ****         p_msg_q->NbrEntries--;                                  /* Yes, One less message in the que
 433              		.loc 1 246 0
 434 0072 FB68     		ldr	r3, [r7, #12]
 435 0074 5B89     		ldrh	r3, [r3, #10]
 436 0076 013B     		subs	r3, r3, #1
ARM GAS  C:\Users\ADMINI~1\AppData\Local\Temp\ccLI31Sr.s 			page 13


 437 0078 9AB2     		uxth	r2, r3
 438 007a FB68     		ldr	r3, [r7, #12]
 439 007c 5A81     		strh	r2, [r3, #10]
 440              	.L21:
 247:..\..\..\..\..\..\Software\uCOS-III\Source/os_msg.c ****     }
 248:..\..\..\..\..\..\Software\uCOS-III\Source/os_msg.c **** 
 249:..\..\..\..\..\..\Software\uCOS-III\Source/os_msg.c ****     p_msg->NextPtr    = OSMsgPool.NextPtr;                      /* Return message control block to 
 441              		.loc 1 249 0
 442 007e 0E4B     		ldr	r3, .L22+4
 443 0080 1A68     		ldr	r2, [r3]
 444 0082 7B69     		ldr	r3, [r7, #20]
 445 0084 1A60     		str	r2, [r3]
 250:..\..\..\..\..\..\Software\uCOS-III\Source/os_msg.c ****     OSMsgPool.NextPtr = p_msg;
 446              		.loc 1 250 0
 447 0086 0C4B     		ldr	r3, .L22+4
 448 0088 7A69     		ldr	r2, [r7, #20]
 449 008a 1A60     		str	r2, [r3]
 251:..\..\..\..\..\..\Software\uCOS-III\Source/os_msg.c ****     OSMsgPool.NbrFree++;
 450              		.loc 1 251 0
 451 008c 0A4B     		ldr	r3, .L22+4
 452 008e 9B88     		ldrh	r3, [r3, #4]
 453 0090 0133     		adds	r3, r3, #1
 454 0092 9AB2     		uxth	r2, r3
 455 0094 084B     		ldr	r3, .L22+4
 456 0096 9A80     		strh	r2, [r3, #4]
 252:..\..\..\..\..\..\Software\uCOS-III\Source/os_msg.c ****     OSMsgPool.NbrUsed--;
 457              		.loc 1 252 0
 458 0098 074B     		ldr	r3, .L22+4
 459 009a DB88     		ldrh	r3, [r3, #6]
 460 009c 013B     		subs	r3, r3, #1
 461 009e 9AB2     		uxth	r2, r3
 462 00a0 054B     		ldr	r3, .L22+4
 463 00a2 DA80     		strh	r2, [r3, #6]
 253:..\..\..\..\..\..\Software\uCOS-III\Source/os_msg.c **** 
 254:..\..\..\..\..\..\Software\uCOS-III\Source/os_msg.c ****    *p_err             = OS_ERR_NONE;
 464              		.loc 1 254 0
 465 00a4 3B68     		ldr	r3, [r7]
 466 00a6 0022     		movs	r2, #0
 467 00a8 1A80     		strh	r2, [r3]
 255:..\..\..\..\..\..\Software\uCOS-III\Source/os_msg.c ****     return (p_void);
 468              		.loc 1 255 0
 469 00aa 3B69     		ldr	r3, [r7, #16]
 470              	.L18:
 256:..\..\..\..\..\..\Software\uCOS-III\Source/os_msg.c **** }
 471              		.loc 1 256 0
 472 00ac 1800     		movs	r0, r3
 473 00ae BD46     		mov	sp, r7
 474 00b0 06B0     		add	sp, sp, #24
 475              		@ sp needed
 476 00b2 80BD     		pop	{r7, pc}
 477              	.L23:
 478              		.align	2
 479              	.L22:
 480 00b4 92650000 		.word	26002
 481 00b8 00000000 		.word	OSMsgPool
 482              		.cfi_endproc
 483              	.LFE3:
ARM GAS  C:\Users\ADMINI~1\AppData\Local\Temp\ccLI31Sr.s 			page 14


 484              		.size	OS_MsgQGet, .-OS_MsgQGet
 485              		.section	.text.OS_MsgQPut,"ax",%progbits
 486              		.align	2
 487              		.global	OS_MsgQPut
 488              		.code	16
 489              		.thumb_func
 490              		.type	OS_MsgQPut, %function
 491              	OS_MsgQPut:
 492              	.LFB4:
 257:..\..\..\..\..\..\Software\uCOS-III\Source/os_msg.c **** 
 258:..\..\..\..\..\..\Software\uCOS-III\Source/os_msg.c **** 
 259:..\..\..\..\..\..\Software\uCOS-III\Source/os_msg.c **** /*
 260:..\..\..\..\..\..\Software\uCOS-III\Source/os_msg.c **** ***************************************************************************************************
 261:..\..\..\..\..\..\Software\uCOS-III\Source/os_msg.c **** *                                           DEPOSIT MESSAGE IN MESSAGE QUEUE
 262:..\..\..\..\..\..\Software\uCOS-III\Source/os_msg.c **** *
 263:..\..\..\..\..\..\Software\uCOS-III\Source/os_msg.c **** * Description: This function places a message in a message queue
 264:..\..\..\..\..\..\Software\uCOS-III\Source/os_msg.c **** *
 265:..\..\..\..\..\..\Software\uCOS-III\Source/os_msg.c **** * Arguments  : p_msg_q     is a pointer to the OS_TCB of the task to post the message to
 266:..\..\..\..\..\..\Software\uCOS-III\Source/os_msg.c **** *              -------
 267:..\..\..\..\..\..\Software\uCOS-III\Source/os_msg.c **** *
 268:..\..\..\..\..\..\Software\uCOS-III\Source/os_msg.c **** *              p_void      is a pointer to the message to send.
 269:..\..\..\..\..\..\Software\uCOS-III\Source/os_msg.c **** *
 270:..\..\..\..\..\..\Software\uCOS-III\Source/os_msg.c **** *              msg_size    is the size of the message (in bytes)
 271:..\..\..\..\..\..\Software\uCOS-III\Source/os_msg.c **** *
 272:..\..\..\..\..\..\Software\uCOS-III\Source/os_msg.c **** *              opt         specifies whether the message will be posted in FIFO or LIFO order
 273:..\..\..\..\..\..\Software\uCOS-III\Source/os_msg.c **** *
 274:..\..\..\..\..\..\Software\uCOS-III\Source/os_msg.c **** *                              OS_OPT_POST_FIFO
 275:..\..\..\..\..\..\Software\uCOS-III\Source/os_msg.c **** *                              OS_OPT_POST_LIFO
 276:..\..\..\..\..\..\Software\uCOS-III\Source/os_msg.c **** *
 277:..\..\..\..\..\..\Software\uCOS-III\Source/os_msg.c **** *              ts          is a timestamp as to when the message was posted
 278:..\..\..\..\..\..\Software\uCOS-III\Source/os_msg.c **** *
 279:..\..\..\..\..\..\Software\uCOS-III\Source/os_msg.c **** *              p_err       is a pointer to a variable that will contain an error code returned by t
 280:..\..\..\..\..\..\Software\uCOS-III\Source/os_msg.c **** *
 281:..\..\..\..\..\..\Software\uCOS-III\Source/os_msg.c **** *                              OS_ERR_Q_MAX           if the queue is full
 282:..\..\..\..\..\..\Software\uCOS-III\Source/os_msg.c **** *                              OS_ERR_MSG_POOL_EMPTY  if we no longer have any OS_MSG to use
 283:..\..\..\..\..\..\Software\uCOS-III\Source/os_msg.c **** *                              OS_ERR_NONE            the message was deposited in the queue
 284:..\..\..\..\..\..\Software\uCOS-III\Source/os_msg.c **** *
 285:..\..\..\..\..\..\Software\uCOS-III\Source/os_msg.c **** * Returns    : none
 286:..\..\..\..\..\..\Software\uCOS-III\Source/os_msg.c **** *
 287:..\..\..\..\..\..\Software\uCOS-III\Source/os_msg.c **** * Note(s)    : 1) This function is INTERNAL to uC/OS-III and your application MUST NOT call it.
 288:..\..\..\..\..\..\Software\uCOS-III\Source/os_msg.c **** ***************************************************************************************************
 289:..\..\..\..\..\..\Software\uCOS-III\Source/os_msg.c **** */
 290:..\..\..\..\..\..\Software\uCOS-III\Source/os_msg.c **** 
 291:..\..\..\..\..\..\Software\uCOS-III\Source/os_msg.c **** void  OS_MsgQPut (OS_MSG_Q     *p_msg_q,
 292:..\..\..\..\..\..\Software\uCOS-III\Source/os_msg.c ****                   void         *p_void,
 293:..\..\..\..\..\..\Software\uCOS-III\Source/os_msg.c ****                   OS_MSG_SIZE   msg_size,
 294:..\..\..\..\..\..\Software\uCOS-III\Source/os_msg.c ****                   OS_OPT        opt,
 295:..\..\..\..\..\..\Software\uCOS-III\Source/os_msg.c ****                   CPU_TS        ts,
 296:..\..\..\..\..\..\Software\uCOS-III\Source/os_msg.c ****                   OS_ERR       *p_err)
 297:..\..\..\..\..\..\Software\uCOS-III\Source/os_msg.c **** {
 493              		.loc 1 297 0
 494              		.cfi_startproc
 495              		@ args = 8, pretend = 0, frame = 24
 496              		@ frame_needed = 1, uses_anonymous_args = 0
 497 0000 80B5     		push	{r7, lr}
 498              		.cfi_def_cfa_offset 8
 499              		.cfi_offset 7, -8
ARM GAS  C:\Users\ADMINI~1\AppData\Local\Temp\ccLI31Sr.s 			page 15


 500              		.cfi_offset 14, -4
 501 0002 86B0     		sub	sp, sp, #24
 502              		.cfi_def_cfa_offset 32
 503 0004 00AF     		add	r7, sp, #0
 504              		.cfi_def_cfa_register 7
 505 0006 F860     		str	r0, [r7, #12]
 506 0008 B960     		str	r1, [r7, #8]
 507 000a 1900     		movs	r1, r3
 508 000c BB1D     		adds	r3, r7, #6
 509 000e 1A80     		strh	r2, [r3]
 510 0010 3B1D     		adds	r3, r7, #4
 511 0012 0A1C     		adds	r2, r1, #0
 512 0014 1A80     		strh	r2, [r3]
 298:..\..\..\..\..\..\Software\uCOS-III\Source/os_msg.c ****     OS_MSG  *p_msg;
 299:..\..\..\..\..\..\Software\uCOS-III\Source/os_msg.c ****     OS_MSG  *p_msg_in;
 300:..\..\..\..\..\..\Software\uCOS-III\Source/os_msg.c **** 
 301:..\..\..\..\..\..\Software\uCOS-III\Source/os_msg.c **** 
 302:..\..\..\..\..\..\Software\uCOS-III\Source/os_msg.c **** #if (OS_CFG_TS_EN == DEF_DISABLED)
 303:..\..\..\..\..\..\Software\uCOS-III\Source/os_msg.c ****     (void)ts;                                                   /* Prevent compiler warning for not
 304:..\..\..\..\..\..\Software\uCOS-III\Source/os_msg.c **** #endif
 305:..\..\..\..\..\..\Software\uCOS-III\Source/os_msg.c **** 
 306:..\..\..\..\..\..\Software\uCOS-III\Source/os_msg.c ****     if (p_msg_q->NbrEntries >= p_msg_q->NbrEntriesSize) {
 513              		.loc 1 306 0
 514 0016 FB68     		ldr	r3, [r7, #12]
 515 0018 5A89     		ldrh	r2, [r3, #10]
 516 001a FB68     		ldr	r3, [r7, #12]
 517 001c 1B89     		ldrh	r3, [r3, #8]
 518 001e 9A42     		cmp	r2, r3
 519 0020 03D3     		bcc	.L25
 307:..\..\..\..\..\..\Software\uCOS-III\Source/os_msg.c ****        *p_err = OS_ERR_Q_MAX;                                   /* Message queue cannot accept any 
 520              		.loc 1 307 0
 521 0022 7B6A     		ldr	r3, [r7, #36]
 522 0024 384A     		ldr	r2, .L34
 523 0026 1A80     		strh	r2, [r3]
 308:..\..\..\..\..\..\Software\uCOS-III\Source/os_msg.c ****         return;
 524              		.loc 1 308 0
 525 0028 6BE0     		b	.L24
 526              	.L25:
 309:..\..\..\..\..\..\Software\uCOS-III\Source/os_msg.c ****     }
 310:..\..\..\..\..\..\Software\uCOS-III\Source/os_msg.c **** 
 311:..\..\..\..\..\..\Software\uCOS-III\Source/os_msg.c ****     if (OSMsgPool.NbrFree == 0u) {
 527              		.loc 1 311 0
 528 002a 384B     		ldr	r3, .L34+4
 529 002c 9B88     		ldrh	r3, [r3, #4]
 530 002e 002B     		cmp	r3, #0
 531 0030 03D1     		bne	.L27
 312:..\..\..\..\..\..\Software\uCOS-III\Source/os_msg.c ****        *p_err = OS_ERR_MSG_POOL_EMPTY;                          /* No more OS_MSG to use           
 532              		.loc 1 312 0
 533 0032 7B6A     		ldr	r3, [r7, #36]
 534 0034 364A     		ldr	r2, .L34+8
 535 0036 1A80     		strh	r2, [r3]
 313:..\..\..\..\..\..\Software\uCOS-III\Source/os_msg.c ****         return;
 536              		.loc 1 313 0
 537 0038 63E0     		b	.L24
 538              	.L27:
 314:..\..\..\..\..\..\Software\uCOS-III\Source/os_msg.c ****     }
 315:..\..\..\..\..\..\Software\uCOS-III\Source/os_msg.c **** 
ARM GAS  C:\Users\ADMINI~1\AppData\Local\Temp\ccLI31Sr.s 			page 16


 316:..\..\..\..\..\..\Software\uCOS-III\Source/os_msg.c ****     p_msg             = OSMsgPool.NextPtr;                      /* Remove message control block fro
 539              		.loc 1 316 0
 540 003a 344B     		ldr	r3, .L34+4
 541 003c 1B68     		ldr	r3, [r3]
 542 003e 7B61     		str	r3, [r7, #20]
 317:..\..\..\..\..\..\Software\uCOS-III\Source/os_msg.c ****     OSMsgPool.NextPtr = p_msg->NextPtr;
 543              		.loc 1 317 0
 544 0040 7B69     		ldr	r3, [r7, #20]
 545 0042 1A68     		ldr	r2, [r3]
 546 0044 314B     		ldr	r3, .L34+4
 547 0046 1A60     		str	r2, [r3]
 318:..\..\..\..\..\..\Software\uCOS-III\Source/os_msg.c ****     OSMsgPool.NbrFree--;
 548              		.loc 1 318 0
 549 0048 304B     		ldr	r3, .L34+4
 550 004a 9B88     		ldrh	r3, [r3, #4]
 551 004c 013B     		subs	r3, r3, #1
 552 004e 9AB2     		uxth	r2, r3
 553 0050 2E4B     		ldr	r3, .L34+4
 554 0052 9A80     		strh	r2, [r3, #4]
 319:..\..\..\..\..\..\Software\uCOS-III\Source/os_msg.c ****     OSMsgPool.NbrUsed++;
 555              		.loc 1 319 0
 556 0054 2D4B     		ldr	r3, .L34+4
 557 0056 DB88     		ldrh	r3, [r3, #6]
 558 0058 0133     		adds	r3, r3, #1
 559 005a 9AB2     		uxth	r2, r3
 560 005c 2B4B     		ldr	r3, .L34+4
 561 005e DA80     		strh	r2, [r3, #6]
 320:..\..\..\..\..\..\Software\uCOS-III\Source/os_msg.c **** 
 321:..\..\..\..\..\..\Software\uCOS-III\Source/os_msg.c **** #if (OS_CFG_DBG_EN == DEF_ENABLED)
 322:..\..\..\..\..\..\Software\uCOS-III\Source/os_msg.c ****     if (OSMsgPool.NbrUsedMax < OSMsgPool.NbrUsed) {
 562              		.loc 1 322 0
 563 0060 2A4B     		ldr	r3, .L34+4
 564 0062 1A89     		ldrh	r2, [r3, #8]
 565 0064 294B     		ldr	r3, .L34+4
 566 0066 DB88     		ldrh	r3, [r3, #6]
 567 0068 9A42     		cmp	r2, r3
 568 006a 03D2     		bcs	.L28
 323:..\..\..\..\..\..\Software\uCOS-III\Source/os_msg.c ****         OSMsgPool.NbrUsedMax = OSMsgPool.NbrUsed;
 569              		.loc 1 323 0
 570 006c 274B     		ldr	r3, .L34+4
 571 006e DA88     		ldrh	r2, [r3, #6]
 572 0070 264B     		ldr	r3, .L34+4
 573 0072 1A81     		strh	r2, [r3, #8]
 574              	.L28:
 324:..\..\..\..\..\..\Software\uCOS-III\Source/os_msg.c ****     }
 325:..\..\..\..\..\..\Software\uCOS-III\Source/os_msg.c **** #endif
 326:..\..\..\..\..\..\Software\uCOS-III\Source/os_msg.c **** 
 327:..\..\..\..\..\..\Software\uCOS-III\Source/os_msg.c ****     if (p_msg_q->NbrEntries == 0u) {                            /* Is this first message placed in 
 575              		.loc 1 327 0
 576 0074 FB68     		ldr	r3, [r7, #12]
 577 0076 5B89     		ldrh	r3, [r3, #10]
 578 0078 002B     		cmp	r3, #0
 579 007a 0CD1     		bne	.L29
 328:..\..\..\..\..\..\Software\uCOS-III\Source/os_msg.c ****         p_msg_q->InPtr         = p_msg;                         /* Yes                             
 580              		.loc 1 328 0
 581 007c FB68     		ldr	r3, [r7, #12]
 582 007e 7A69     		ldr	r2, [r7, #20]
ARM GAS  C:\Users\ADMINI~1\AppData\Local\Temp\ccLI31Sr.s 			page 17


 583 0080 1A60     		str	r2, [r3]
 329:..\..\..\..\..\..\Software\uCOS-III\Source/os_msg.c ****         p_msg_q->OutPtr        = p_msg;
 584              		.loc 1 329 0
 585 0082 FB68     		ldr	r3, [r7, #12]
 586 0084 7A69     		ldr	r2, [r7, #20]
 587 0086 5A60     		str	r2, [r3, #4]
 330:..\..\..\..\..\..\Software\uCOS-III\Source/os_msg.c ****         p_msg_q->NbrEntries    = 1u;
 588              		.loc 1 330 0
 589 0088 FB68     		ldr	r3, [r7, #12]
 590 008a 0122     		movs	r2, #1
 591 008c 5A81     		strh	r2, [r3, #10]
 331:..\..\..\..\..\..\Software\uCOS-III\Source/os_msg.c ****         p_msg->NextPtr         = DEF_NULL;
 592              		.loc 1 331 0
 593 008e 7B69     		ldr	r3, [r7, #20]
 594 0090 0022     		movs	r2, #0
 595 0092 1A60     		str	r2, [r3]
 596 0094 1EE0     		b	.L30
 597              	.L29:
 332:..\..\..\..\..\..\Software\uCOS-III\Source/os_msg.c ****     } else {                                                    /* No                              
 333:..\..\..\..\..\..\Software\uCOS-III\Source/os_msg.c ****         if ((opt & OS_OPT_POST_LIFO) == OS_OPT_POST_FIFO) {     /* Is it FIFO or LIFO?             
 598              		.loc 1 333 0
 599 0096 3B1D     		adds	r3, r7, #4
 600 0098 1B88     		ldrh	r3, [r3]
 601 009a 1022     		movs	r2, #16
 602 009c 1340     		ands	r3, r2
 603 009e 0CD1     		bne	.L31
 334:..\..\..\..\..\..\Software\uCOS-III\Source/os_msg.c ****             p_msg_in           = p_msg_q->InPtr;                /* FIFO, add to the head           
 604              		.loc 1 334 0
 605 00a0 FB68     		ldr	r3, [r7, #12]
 606 00a2 1B68     		ldr	r3, [r3]
 607 00a4 3B61     		str	r3, [r7, #16]
 335:..\..\..\..\..\..\Software\uCOS-III\Source/os_msg.c ****             p_msg_in->NextPtr  = p_msg;
 608              		.loc 1 335 0
 609 00a6 3B69     		ldr	r3, [r7, #16]
 610 00a8 7A69     		ldr	r2, [r7, #20]
 611 00aa 1A60     		str	r2, [r3]
 336:..\..\..\..\..\..\Software\uCOS-III\Source/os_msg.c ****             p_msg_q->InPtr     = p_msg;
 612              		.loc 1 336 0
 613 00ac FB68     		ldr	r3, [r7, #12]
 614 00ae 7A69     		ldr	r2, [r7, #20]
 615 00b0 1A60     		str	r2, [r3]
 337:..\..\..\..\..\..\Software\uCOS-III\Source/os_msg.c ****             p_msg->NextPtr     = DEF_NULL;
 616              		.loc 1 337 0
 617 00b2 7B69     		ldr	r3, [r7, #20]
 618 00b4 0022     		movs	r2, #0
 619 00b6 1A60     		str	r2, [r3]
 620 00b8 06E0     		b	.L32
 621              	.L31:
 338:..\..\..\..\..\..\Software\uCOS-III\Source/os_msg.c ****         } else {
 339:..\..\..\..\..\..\Software\uCOS-III\Source/os_msg.c ****             p_msg->NextPtr     = p_msg_q->OutPtr;               /* LIFO, add to the tail           
 622              		.loc 1 339 0
 623 00ba FB68     		ldr	r3, [r7, #12]
 624 00bc 5A68     		ldr	r2, [r3, #4]
 625 00be 7B69     		ldr	r3, [r7, #20]
 626 00c0 1A60     		str	r2, [r3]
 340:..\..\..\..\..\..\Software\uCOS-III\Source/os_msg.c ****             p_msg_q->OutPtr    = p_msg;
 627              		.loc 1 340 0
ARM GAS  C:\Users\ADMINI~1\AppData\Local\Temp\ccLI31Sr.s 			page 18


 628 00c2 FB68     		ldr	r3, [r7, #12]
 629 00c4 7A69     		ldr	r2, [r7, #20]
 630 00c6 5A60     		str	r2, [r3, #4]
 631              	.L32:
 341:..\..\..\..\..\..\Software\uCOS-III\Source/os_msg.c ****         }
 342:..\..\..\..\..\..\Software\uCOS-III\Source/os_msg.c ****         p_msg_q->NbrEntries++;
 632              		.loc 1 342 0
 633 00c8 FB68     		ldr	r3, [r7, #12]
 634 00ca 5B89     		ldrh	r3, [r3, #10]
 635 00cc 0133     		adds	r3, r3, #1
 636 00ce 9AB2     		uxth	r2, r3
 637 00d0 FB68     		ldr	r3, [r7, #12]
 638 00d2 5A81     		strh	r2, [r3, #10]
 639              	.L30:
 343:..\..\..\..\..\..\Software\uCOS-III\Source/os_msg.c ****     }
 344:..\..\..\..\..\..\Software\uCOS-III\Source/os_msg.c **** 
 345:..\..\..\..\..\..\Software\uCOS-III\Source/os_msg.c **** #if (OS_CFG_DBG_EN == DEF_ENABLED)
 346:..\..\..\..\..\..\Software\uCOS-III\Source/os_msg.c ****     if (p_msg_q->NbrEntriesMax < p_msg_q->NbrEntries) {
 640              		.loc 1 346 0
 641 00d4 FB68     		ldr	r3, [r7, #12]
 642 00d6 9A89     		ldrh	r2, [r3, #12]
 643 00d8 FB68     		ldr	r3, [r7, #12]
 644 00da 5B89     		ldrh	r3, [r3, #10]
 645 00dc 9A42     		cmp	r2, r3
 646 00de 03D2     		bcs	.L33
 347:..\..\..\..\..\..\Software\uCOS-III\Source/os_msg.c ****         p_msg_q->NbrEntriesMax = p_msg_q->NbrEntries;
 647              		.loc 1 347 0
 648 00e0 FB68     		ldr	r3, [r7, #12]
 649 00e2 5A89     		ldrh	r2, [r3, #10]
 650 00e4 FB68     		ldr	r3, [r7, #12]
 651 00e6 9A81     		strh	r2, [r3, #12]
 652              	.L33:
 348:..\..\..\..\..\..\Software\uCOS-III\Source/os_msg.c ****     }
 349:..\..\..\..\..\..\Software\uCOS-III\Source/os_msg.c **** #endif
 350:..\..\..\..\..\..\Software\uCOS-III\Source/os_msg.c **** 
 351:..\..\..\..\..\..\Software\uCOS-III\Source/os_msg.c ****     p_msg->MsgPtr  = p_void;                                    /* Deposit message in the message q
 653              		.loc 1 351 0
 654 00e8 7B69     		ldr	r3, [r7, #20]
 655 00ea BA68     		ldr	r2, [r7, #8]
 656 00ec 5A60     		str	r2, [r3, #4]
 352:..\..\..\..\..\..\Software\uCOS-III\Source/os_msg.c ****     p_msg->MsgSize = msg_size;
 657              		.loc 1 352 0
 658 00ee 7B69     		ldr	r3, [r7, #20]
 659 00f0 BA1D     		adds	r2, r7, #6
 660 00f2 1288     		ldrh	r2, [r2]
 661 00f4 1A81     		strh	r2, [r3, #8]
 353:..\..\..\..\..\..\Software\uCOS-III\Source/os_msg.c **** #if (OS_CFG_TS_EN == DEF_ENABLED)
 354:..\..\..\..\..\..\Software\uCOS-III\Source/os_msg.c ****     p_msg->MsgTS   = ts;
 662              		.loc 1 354 0
 663 00f6 7B69     		ldr	r3, [r7, #20]
 664 00f8 3A6A     		ldr	r2, [r7, #32]
 665 00fa DA60     		str	r2, [r3, #12]
 355:..\..\..\..\..\..\Software\uCOS-III\Source/os_msg.c **** #endif
 356:..\..\..\..\..\..\Software\uCOS-III\Source/os_msg.c ****    *p_err          = OS_ERR_NONE;
 666              		.loc 1 356 0
 667 00fc 7B6A     		ldr	r3, [r7, #36]
 668 00fe 0022     		movs	r2, #0
ARM GAS  C:\Users\ADMINI~1\AppData\Local\Temp\ccLI31Sr.s 			page 19


 669 0100 1A80     		strh	r2, [r3]
 670              	.L24:
 357:..\..\..\..\..\..\Software\uCOS-III\Source/os_msg.c **** }
 671              		.loc 1 357 0
 672 0102 BD46     		mov	sp, r7
 673 0104 06B0     		add	sp, sp, #24
 674              		@ sp needed
 675 0106 80BD     		pop	{r7, pc}
 676              	.L35:
 677              		.align	2
 678              	.L34:
 679 0108 93650000 		.word	26003
 680 010c 00000000 		.word	OSMsgPool
 681 0110 1D570000 		.word	22301
 682              		.cfi_endproc
 683              	.LFE4:
 684              		.size	OS_MsgQPut, .-OS_MsgQPut
 685              		.text
 686              	.Letext0:
 687              		.file 2 "..\\..\\..\\..\\..\\..\\Software\\uC-CPU\\ARM-Cortex-M0\\GNU/cpu.h"
 688              		.file 3 "..\\..\\..\\..\\..\\..\\Software\\uC-CPU/cpu_core.h"
 689              		.file 4 "..\\..\\..\\..\\..\\..\\Software\\uCOS-III\\Source\\os_type.h"
 690              		.file 5 "..\\..\\..\\..\\..\\..\\Software\\uCOS-III\\Source\\os.h"