ARM GAS  C:\Users\ADMINI~1\AppData\Local\Temp\ccvQPEdN.s 			page 1


   1              		.syntax unified
   2              		.cpu cortex-m0
   3              		.fpu softvfp
   4              		.eabi_attribute 20, 1
   5              		.eabi_attribute 21, 1
   6              		.eabi_attribute 23, 3
   7              		.eabi_attribute 24, 1
   8              		.eabi_attribute 25, 1
   9              		.eabi_attribute 26, 1
  10              		.eabi_attribute 30, 6
  11              		.eabi_attribute 34, 0
  12              		.eabi_attribute 18, 4
  13              		.thumb
  14              		.syntax unified
  15              		.file	"os_mutex.c"
  16              		.text
  17              	.Ltext0:
  18              		.cfi_sections	.debug_frame
  19              		.section	.text.OSMutexCreate,"ax",%progbits
  20              		.align	2
  21              		.global	OSMutexCreate
  22              		.code	16
  23              		.thumb_func
  24              		.type	OSMutexCreate, %function
  25              	OSMutexCreate:
  26              	.LFB0:
  27              		.file 1 "..\\..\\..\\..\\..\\..\\Software\\uCOS-III\\Source\\os_mutex.c"
   1:..\..\..\..\..\..\Software\uCOS-III\Source/os_mutex.c **** /*
   2:..\..\..\..\..\..\Software\uCOS-III\Source/os_mutex.c **** ***************************************************************************************************
   3:..\..\..\..\..\..\Software\uCOS-III\Source/os_mutex.c **** *                                                      uC/OS-III
   4:..\..\..\..\..\..\Software\uCOS-III\Source/os_mutex.c **** *                                                 The Real-Time Kernel
   5:..\..\..\..\..\..\Software\uCOS-III\Source/os_mutex.c **** *
   6:..\..\..\..\..\..\Software\uCOS-III\Source/os_mutex.c **** *                                  (c) Copyright 2009-2015; Micrium, Inc.; Weston, FL
   7:..\..\..\..\..\..\Software\uCOS-III\Source/os_mutex.c **** *                           All rights reserved.  Protected by international copyright laws.
   8:..\..\..\..\..\..\Software\uCOS-III\Source/os_mutex.c **** *
   9:..\..\..\..\..\..\Software\uCOS-III\Source/os_mutex.c **** *                                                   MUTEX MANAGEMENT
  10:..\..\..\..\..\..\Software\uCOS-III\Source/os_mutex.c **** *
  11:..\..\..\..\..\..\Software\uCOS-III\Source/os_mutex.c **** * File    : OS_MUTEX.C
  12:..\..\..\..\..\..\Software\uCOS-III\Source/os_mutex.c **** * By      : JJL
  13:..\..\..\..\..\..\Software\uCOS-III\Source/os_mutex.c **** * Version : V3.05.01
  14:..\..\..\..\..\..\Software\uCOS-III\Source/os_mutex.c **** *
  15:..\..\..\..\..\..\Software\uCOS-III\Source/os_mutex.c **** * LICENSING TERMS:
  16:..\..\..\..\..\..\Software\uCOS-III\Source/os_mutex.c **** * ---------------
  17:..\..\..\..\..\..\Software\uCOS-III\Source/os_mutex.c **** *           uC/OS-III is provided in source form for FREE short-term evaluation, for educational us
  18:..\..\..\..\..\..\Software\uCOS-III\Source/os_mutex.c **** *           for peaceful research.  If you plan or intend to use uC/OS-III in a commercial applicat
  19:..\..\..\..\..\..\Software\uCOS-III\Source/os_mutex.c **** *           product then, you need to contact Micrium to properly license uC/OS-III for its use in 
  20:..\..\..\..\..\..\Software\uCOS-III\Source/os_mutex.c **** *           application/product.   We provide ALL the source code for your convenience and to help 
  21:..\..\..\..\..\..\Software\uCOS-III\Source/os_mutex.c **** *           experience uC/OS-III.  The fact that the source is provided does NOT mean that you can 
  22:..\..\..\..\..\..\Software\uCOS-III\Source/os_mutex.c **** *           it commercially without paying a licensing fee.
  23:..\..\..\..\..\..\Software\uCOS-III\Source/os_mutex.c **** *
  24:..\..\..\..\..\..\Software\uCOS-III\Source/os_mutex.c **** *           Knowledge of the source code may NOT be used to develop a similar product.
  25:..\..\..\..\..\..\Software\uCOS-III\Source/os_mutex.c **** *
  26:..\..\..\..\..\..\Software\uCOS-III\Source/os_mutex.c **** *           Please help us continue to provide the embedded community with the finest software avai
  27:..\..\..\..\..\..\Software\uCOS-III\Source/os_mutex.c **** *           Your honesty is greatly appreciated.
  28:..\..\..\..\..\..\Software\uCOS-III\Source/os_mutex.c **** *
  29:..\..\..\..\..\..\Software\uCOS-III\Source/os_mutex.c **** *           You can find our product's user manual, API reference, release notes and
  30:..\..\..\..\..\..\Software\uCOS-III\Source/os_mutex.c **** *           more information at https://doc.micrium.com.
ARM GAS  C:\Users\ADMINI~1\AppData\Local\Temp\ccvQPEdN.s 			page 2


  31:..\..\..\..\..\..\Software\uCOS-III\Source/os_mutex.c **** *           You can contact us at www.micrium.com.
  32:..\..\..\..\..\..\Software\uCOS-III\Source/os_mutex.c **** ***************************************************************************************************
  33:..\..\..\..\..\..\Software\uCOS-III\Source/os_mutex.c **** */
  34:..\..\..\..\..\..\Software\uCOS-III\Source/os_mutex.c **** 
  35:..\..\..\..\..\..\Software\uCOS-III\Source/os_mutex.c **** #define  MICRIUM_SOURCE
  36:..\..\..\..\..\..\Software\uCOS-III\Source/os_mutex.c **** #include "os.h"
  37:..\..\..\..\..\..\Software\uCOS-III\Source/os_mutex.c **** 
  38:..\..\..\..\..\..\Software\uCOS-III\Source/os_mutex.c **** #ifdef VSC_INCLUDE_SOURCE_FILE_NAMES
  39:..\..\..\..\..\..\Software\uCOS-III\Source/os_mutex.c **** const  CPU_CHAR  *os_mutex__c = "$Id: $";
  40:..\..\..\..\..\..\Software\uCOS-III\Source/os_mutex.c **** #endif
  41:..\..\..\..\..\..\Software\uCOS-III\Source/os_mutex.c **** 
  42:..\..\..\..\..\..\Software\uCOS-III\Source/os_mutex.c **** 
  43:..\..\..\..\..\..\Software\uCOS-III\Source/os_mutex.c **** #if (OS_CFG_MUTEX_EN == DEF_ENABLED)
  44:..\..\..\..\..\..\Software\uCOS-III\Source/os_mutex.c **** /*
  45:..\..\..\..\..\..\Software\uCOS-III\Source/os_mutex.c **** ***************************************************************************************************
  46:..\..\..\..\..\..\Software\uCOS-III\Source/os_mutex.c **** *                                                   CREATE A MUTEX
  47:..\..\..\..\..\..\Software\uCOS-III\Source/os_mutex.c **** *
  48:..\..\..\..\..\..\Software\uCOS-III\Source/os_mutex.c **** * Description: This function creates a mutex.
  49:..\..\..\..\..\..\Software\uCOS-III\Source/os_mutex.c **** *
  50:..\..\..\..\..\..\Software\uCOS-III\Source/os_mutex.c **** * Arguments  : p_mutex       is a pointer to the mutex to initialize.  Your application is responsi
  51:..\..\..\..\..\..\Software\uCOS-III\Source/os_mutex.c **** *                            storage for the mutex.
  52:..\..\..\..\..\..\Software\uCOS-III\Source/os_mutex.c **** *
  53:..\..\..\..\..\..\Software\uCOS-III\Source/os_mutex.c **** *              p_name        is a pointer to the name you would like to give the mutex.
  54:..\..\..\..\..\..\Software\uCOS-III\Source/os_mutex.c **** *
  55:..\..\..\..\..\..\Software\uCOS-III\Source/os_mutex.c **** *              p_err         is a pointer to a variable that will contain an error code returned by
  56:..\..\..\..\..\..\Software\uCOS-III\Source/os_mutex.c **** *
  57:..\..\..\..\..\..\Software\uCOS-III\Source/os_mutex.c **** *                                OS_ERR_NONE                    If the call was successful
  58:..\..\..\..\..\..\Software\uCOS-III\Source/os_mutex.c **** *                                OS_ERR_CREATE_ISR              If you called this function from an
  59:..\..\..\..\..\..\Software\uCOS-III\Source/os_mutex.c **** *                                OS_ERR_ILLEGAL_CREATE_RUN_TIME If you are trying to create the mut
  60:..\..\..\..\..\..\Software\uCOS-III\Source/os_mutex.c **** *                                                                 OSStart()
  61:..\..\..\..\..\..\Software\uCOS-III\Source/os_mutex.c **** *                                OS_ERR_OBJ_PTR_NULL            If 'p_mutex' is a NULL pointer
  62:..\..\..\..\..\..\Software\uCOS-III\Source/os_mutex.c **** *
  63:..\..\..\..\..\..\Software\uCOS-III\Source/os_mutex.c **** * Returns    : none
  64:..\..\..\..\..\..\Software\uCOS-III\Source/os_mutex.c **** *
  65:..\..\..\..\..\..\Software\uCOS-III\Source/os_mutex.c **** * Note(s)    : none
  66:..\..\..\..\..\..\Software\uCOS-III\Source/os_mutex.c **** ***************************************************************************************************
  67:..\..\..\..\..\..\Software\uCOS-III\Source/os_mutex.c **** */
  68:..\..\..\..\..\..\Software\uCOS-III\Source/os_mutex.c **** 
  69:..\..\..\..\..\..\Software\uCOS-III\Source/os_mutex.c **** void  OSMutexCreate (OS_MUTEX  *p_mutex,
  70:..\..\..\..\..\..\Software\uCOS-III\Source/os_mutex.c ****                      CPU_CHAR  *p_name,
  71:..\..\..\..\..\..\Software\uCOS-III\Source/os_mutex.c ****                      OS_ERR    *p_err)
  72:..\..\..\..\..\..\Software\uCOS-III\Source/os_mutex.c **** {
  28              		.loc 1 72 0
  29              		.cfi_startproc
  30              		@ args = 0, pretend = 0, frame = 24
  31              		@ frame_needed = 1, uses_anonymous_args = 0
  32 0000 80B5     		push	{r7, lr}
  33              		.cfi_def_cfa_offset 8
  34              		.cfi_offset 7, -8
  35              		.cfi_offset 14, -4
  36 0002 86B0     		sub	sp, sp, #24
  37              		.cfi_def_cfa_offset 32
  38 0004 00AF     		add	r7, sp, #0
  39              		.cfi_def_cfa_register 7
  40 0006 F860     		str	r0, [r7, #12]
  41 0008 B960     		str	r1, [r7, #8]
  42 000a 7A60     		str	r2, [r7, #4]
ARM GAS  C:\Users\ADMINI~1\AppData\Local\Temp\ccvQPEdN.s 			page 3


  73:..\..\..\..\..\..\Software\uCOS-III\Source/os_mutex.c ****     CPU_SR_ALLOC();
  43              		.loc 1 73 0
  44 000c 0023     		movs	r3, #0
  45 000e 7B61     		str	r3, [r7, #20]
  74:..\..\..\..\..\..\Software\uCOS-III\Source/os_mutex.c **** 
  75:..\..\..\..\..\..\Software\uCOS-III\Source/os_mutex.c **** 
  76:..\..\..\..\..\..\Software\uCOS-III\Source/os_mutex.c **** 
  77:..\..\..\..\..\..\Software\uCOS-III\Source/os_mutex.c **** #ifdef OS_SAFETY_CRITICAL
  78:..\..\..\..\..\..\Software\uCOS-III\Source/os_mutex.c ****     if (p_err == DEF_NULL) {
  79:..\..\..\..\..\..\Software\uCOS-III\Source/os_mutex.c ****         OS_SAFETY_CRITICAL_EXCEPTION();
  80:..\..\..\..\..\..\Software\uCOS-III\Source/os_mutex.c ****         return;
  81:..\..\..\..\..\..\Software\uCOS-III\Source/os_mutex.c ****     }
  82:..\..\..\..\..\..\Software\uCOS-III\Source/os_mutex.c **** #endif
  83:..\..\..\..\..\..\Software\uCOS-III\Source/os_mutex.c **** 
  84:..\..\..\..\..\..\Software\uCOS-III\Source/os_mutex.c **** #ifdef OS_SAFETY_CRITICAL_IEC61508
  85:..\..\..\..\..\..\Software\uCOS-III\Source/os_mutex.c ****     if (OSSafetyCriticalStartFlag == DEF_TRUE) {
  86:..\..\..\..\..\..\Software\uCOS-III\Source/os_mutex.c ****        *p_err = OS_ERR_ILLEGAL_CREATE_RUN_TIME;
  87:..\..\..\..\..\..\Software\uCOS-III\Source/os_mutex.c ****         return;
  88:..\..\..\..\..\..\Software\uCOS-III\Source/os_mutex.c ****     }
  89:..\..\..\..\..\..\Software\uCOS-III\Source/os_mutex.c **** #endif
  90:..\..\..\..\..\..\Software\uCOS-III\Source/os_mutex.c **** 
  91:..\..\..\..\..\..\Software\uCOS-III\Source/os_mutex.c **** #if (OS_CFG_CALLED_FROM_ISR_CHK_EN == DEF_ENABLED)
  92:..\..\..\..\..\..\Software\uCOS-III\Source/os_mutex.c ****     if (OSIntNestingCtr > 0u) {                                 /* Not allowed to be called from an
  46              		.loc 1 92 0
  47 0010 214B     		ldr	r3, .L5
  48 0012 1B78     		ldrb	r3, [r3]
  49 0014 002B     		cmp	r3, #0
  50 0016 03D0     		beq	.L2
  93:..\..\..\..\..\..\Software\uCOS-III\Source/os_mutex.c ****        *p_err = OS_ERR_CREATE_ISR;
  51              		.loc 1 93 0
  52 0018 7B68     		ldr	r3, [r7, #4]
  53 001a 204A     		ldr	r2, .L5+4
  54 001c 1A80     		strh	r2, [r3]
  94:..\..\..\..\..\..\Software\uCOS-III\Source/os_mutex.c ****         return;
  55              		.loc 1 94 0
  56 001e 37E0     		b	.L1
  57              	.L2:
  95:..\..\..\..\..\..\Software\uCOS-III\Source/os_mutex.c ****     }
  96:..\..\..\..\..\..\Software\uCOS-III\Source/os_mutex.c **** #endif
  97:..\..\..\..\..\..\Software\uCOS-III\Source/os_mutex.c **** 
  98:..\..\..\..\..\..\Software\uCOS-III\Source/os_mutex.c **** #if (OS_CFG_ARG_CHK_EN == DEF_ENABLED)
  99:..\..\..\..\..\..\Software\uCOS-III\Source/os_mutex.c ****     if (p_mutex == DEF_NULL) {                                  /* Validate 'p_mutex'              
  58              		.loc 1 99 0
  59 0020 FB68     		ldr	r3, [r7, #12]
  60 0022 002B     		cmp	r3, #0
  61 0024 03D1     		bne	.L4
 100:..\..\..\..\..\..\Software\uCOS-III\Source/os_mutex.c ****        *p_err = OS_ERR_OBJ_PTR_NULL;
  62              		.loc 1 100 0
  63 0026 7B68     		ldr	r3, [r7, #4]
  64 0028 1D4A     		ldr	r2, .L5+8
  65 002a 1A80     		strh	r2, [r3]
 101:..\..\..\..\..\..\Software\uCOS-III\Source/os_mutex.c ****         return;
  66              		.loc 1 101 0
  67 002c 30E0     		b	.L1
  68              	.L4:
 102:..\..\..\..\..\..\Software\uCOS-III\Source/os_mutex.c ****     }
 103:..\..\..\..\..\..\Software\uCOS-III\Source/os_mutex.c **** #endif
ARM GAS  C:\Users\ADMINI~1\AppData\Local\Temp\ccvQPEdN.s 			page 4


 104:..\..\..\..\..\..\Software\uCOS-III\Source/os_mutex.c **** 
 105:..\..\..\..\..\..\Software\uCOS-III\Source/os_mutex.c ****     OS_CRITICAL_ENTER();
  69              		.loc 1 105 0
  70 002e FFF7FEFF 		bl	CPU_SR_Save
  71 0032 0300     		movs	r3, r0
  72 0034 7B61     		str	r3, [r7, #20]
  73 0036 FFF7FEFF 		bl	CPU_IntDisMeasStart
 106:..\..\..\..\..\..\Software\uCOS-III\Source/os_mutex.c **** #if (OS_OBJ_TYPE_REQ == DEF_ENABLED)
 107:..\..\..\..\..\..\Software\uCOS-III\Source/os_mutex.c ****     p_mutex->Type              =  OS_OBJ_TYPE_MUTEX;            /* Mark the data structure as a mut
  74              		.loc 1 107 0
  75 003a FB68     		ldr	r3, [r7, #12]
  76 003c 194A     		ldr	r2, .L5+12
  77 003e 1A60     		str	r2, [r3]
 108:..\..\..\..\..\..\Software\uCOS-III\Source/os_mutex.c **** #endif
 109:..\..\..\..\..\..\Software\uCOS-III\Source/os_mutex.c **** #if (OS_CFG_DBG_EN == DEF_ENABLED)
 110:..\..\..\..\..\..\Software\uCOS-III\Source/os_mutex.c ****     p_mutex->NamePtr           =  p_name;
  78              		.loc 1 110 0
  79 0040 FB68     		ldr	r3, [r7, #12]
  80 0042 BA68     		ldr	r2, [r7, #8]
  81 0044 5A60     		str	r2, [r3, #4]
 111:..\..\..\..\..\..\Software\uCOS-III\Source/os_mutex.c **** #else
 112:..\..\..\..\..\..\Software\uCOS-III\Source/os_mutex.c ****     (void)&p_name;
 113:..\..\..\..\..\..\Software\uCOS-III\Source/os_mutex.c **** #endif
 114:..\..\..\..\..\..\Software\uCOS-III\Source/os_mutex.c ****     p_mutex->MutexGrpNextPtr   = DEF_NULL;
  82              		.loc 1 114 0
  83 0046 FB68     		ldr	r3, [r7, #12]
  84 0048 0022     		movs	r2, #0
  85 004a 1A62     		str	r2, [r3, #32]
 115:..\..\..\..\..\..\Software\uCOS-III\Source/os_mutex.c ****     p_mutex->OwnerTCBPtr       = DEF_NULL;
  86              		.loc 1 115 0
  87 004c FB68     		ldr	r3, [r7, #12]
  88 004e 0022     		movs	r2, #0
  89 0050 5A62     		str	r2, [r3, #36]
 116:..\..\..\..\..\..\Software\uCOS-III\Source/os_mutex.c ****     p_mutex->OwnerNestingCtr   = 0u;                            /* Mutex is available              
  90              		.loc 1 116 0
  91 0052 FB68     		ldr	r3, [r7, #12]
  92 0054 2822     		movs	r2, #40
  93 0056 0021     		movs	r1, #0
  94 0058 9954     		strb	r1, [r3, r2]
 117:..\..\..\..\..\..\Software\uCOS-III\Source/os_mutex.c **** #if (OS_CFG_TS_EN == DEF_ENABLED)
 118:..\..\..\..\..\..\Software\uCOS-III\Source/os_mutex.c ****     p_mutex->TS                = 0u;
  95              		.loc 1 118 0
  96 005a FB68     		ldr	r3, [r7, #12]
  97 005c 0022     		movs	r2, #0
  98 005e DA62     		str	r2, [r3, #44]
 119:..\..\..\..\..\..\Software\uCOS-III\Source/os_mutex.c **** #endif
 120:..\..\..\..\..\..\Software\uCOS-III\Source/os_mutex.c ****     OS_PendListInit(&p_mutex->PendList);                        /* Initialize the waiting list     
  99              		.loc 1 120 0
 100 0060 FB68     		ldr	r3, [r7, #12]
 101 0062 0833     		adds	r3, r3, #8
 102 0064 1800     		movs	r0, r3
 103 0066 FFF7FEFF 		bl	OS_PendListInit
 121:..\..\..\..\..\..\Software\uCOS-III\Source/os_mutex.c **** 
 122:..\..\..\..\..\..\Software\uCOS-III\Source/os_mutex.c **** #if (OS_CFG_DBG_EN == DEF_ENABLED)
 123:..\..\..\..\..\..\Software\uCOS-III\Source/os_mutex.c ****     OS_MutexDbgListAdd(p_mutex);
 104              		.loc 1 123 0
 105 006a FB68     		ldr	r3, [r7, #12]
ARM GAS  C:\Users\ADMINI~1\AppData\Local\Temp\ccvQPEdN.s 			page 5


 106 006c 1800     		movs	r0, r3
 107 006e FFF7FEFF 		bl	OS_MutexDbgListAdd
 124:..\..\..\..\..\..\Software\uCOS-III\Source/os_mutex.c ****     OSMutexQty++;
 108              		.loc 1 124 0
 109 0072 0D4B     		ldr	r3, .L5+16
 110 0074 1B88     		ldrh	r3, [r3]
 111 0076 0133     		adds	r3, r3, #1
 112 0078 9AB2     		uxth	r2, r3
 113 007a 0B4B     		ldr	r3, .L5+16
 114 007c 1A80     		strh	r2, [r3]
 125:..\..\..\..\..\..\Software\uCOS-III\Source/os_mutex.c **** #endif
 126:..\..\..\..\..\..\Software\uCOS-III\Source/os_mutex.c **** 
 127:..\..\..\..\..\..\Software\uCOS-III\Source/os_mutex.c **** #if (defined(TRACE_CFG_EN) && (TRACE_CFG_EN == DEF_ENABLED))
 128:..\..\..\..\..\..\Software\uCOS-III\Source/os_mutex.c ****     TRACE_OS_MUTEX_CREATE(p_mutex, p_name);                     /* Record the event.               
 129:..\..\..\..\..\..\Software\uCOS-III\Source/os_mutex.c **** #endif
 130:..\..\..\..\..\..\Software\uCOS-III\Source/os_mutex.c **** 
 131:..\..\..\..\..\..\Software\uCOS-III\Source/os_mutex.c ****     OS_CRITICAL_EXIT_NO_SCHED();
 115              		.loc 1 131 0
 116 007e FFF7FEFF 		bl	CPU_IntDisMeasStop
 117 0082 7B69     		ldr	r3, [r7, #20]
 118 0084 1800     		movs	r0, r3
 119 0086 FFF7FEFF 		bl	CPU_SR_Restore
 132:..\..\..\..\..\..\Software\uCOS-III\Source/os_mutex.c ****    *p_err = OS_ERR_NONE;
 120              		.loc 1 132 0
 121 008a 7B68     		ldr	r3, [r7, #4]
 122 008c 0022     		movs	r2, #0
 123 008e 1A80     		strh	r2, [r3]
 124              	.L1:
 133:..\..\..\..\..\..\Software\uCOS-III\Source/os_mutex.c **** }
 125              		.loc 1 133 0
 126 0090 BD46     		mov	sp, r7
 127 0092 06B0     		add	sp, sp, #24
 128              		@ sp needed
 129 0094 80BD     		pop	{r7, pc}
 130              	.L6:
 131 0096 C046     		.align	2
 132              	.L5:
 133 0098 00000000 		.word	OSIntNestingCtr
 134 009c E12E0000 		.word	12001
 135 00a0 C35D0000 		.word	24003
 136 00a4 4D555458 		.word	1481921869
 137 00a8 00000000 		.word	OSMutexQty
 138              		.cfi_endproc
 139              	.LFE0:
 140              		.size	OSMutexCreate, .-OSMutexCreate
 141              		.section	.text.OSMutexPend,"ax",%progbits
 142              		.align	2
 143              		.global	OSMutexPend
 144              		.code	16
 145              		.thumb_func
 146              		.type	OSMutexPend, %function
 147              	OSMutexPend:
 148              	.LFB1:
 134:..\..\..\..\..\..\Software\uCOS-III\Source/os_mutex.c **** 
 135:..\..\..\..\..\..\Software\uCOS-III\Source/os_mutex.c **** 
 136:..\..\..\..\..\..\Software\uCOS-III\Source/os_mutex.c **** /*
 137:..\..\..\..\..\..\Software\uCOS-III\Source/os_mutex.c **** ***************************************************************************************************
ARM GAS  C:\Users\ADMINI~1\AppData\Local\Temp\ccvQPEdN.s 			page 6


 138:..\..\..\..\..\..\Software\uCOS-III\Source/os_mutex.c **** *                                                   DELETE A MUTEX
 139:..\..\..\..\..\..\Software\uCOS-III\Source/os_mutex.c **** *
 140:..\..\..\..\..\..\Software\uCOS-III\Source/os_mutex.c **** * Description: This function deletes a mutex and readies all tasks pending on the mutex.
 141:..\..\..\..\..\..\Software\uCOS-III\Source/os_mutex.c **** *
 142:..\..\..\..\..\..\Software\uCOS-III\Source/os_mutex.c **** * Arguments  : p_mutex       is a pointer to the mutex to delete
 143:..\..\..\..\..\..\Software\uCOS-III\Source/os_mutex.c **** *
 144:..\..\..\..\..\..\Software\uCOS-III\Source/os_mutex.c **** *              opt           determines delete options as follows:
 145:..\..\..\..\..\..\Software\uCOS-III\Source/os_mutex.c **** *
 146:..\..\..\..\..\..\Software\uCOS-III\Source/os_mutex.c **** *                                OS_OPT_DEL_NO_PEND          Delete mutex ONLY if no task pending
 147:..\..\..\..\..\..\Software\uCOS-III\Source/os_mutex.c **** *                                OS_OPT_DEL_ALWAYS           Deletes the mutex even if tasks are wa
 148:..\..\..\..\..\..\Software\uCOS-III\Source/os_mutex.c **** *                                                            In this case, all the tasks pending wi
 149:..\..\..\..\..\..\Software\uCOS-III\Source/os_mutex.c **** *
 150:..\..\..\..\..\..\Software\uCOS-III\Source/os_mutex.c **** *              p_err         is a pointer to a variable that will contain an error code returned by
 151:..\..\..\..\..\..\Software\uCOS-III\Source/os_mutex.c **** *
 152:..\..\..\..\..\..\Software\uCOS-III\Source/os_mutex.c **** *                                OS_ERR_NONE                    The call was successful and the mut
 153:..\..\..\..\..\..\Software\uCOS-III\Source/os_mutex.c **** *                                OS_ERR_DEL_ISR                 If you attempted to delete the mute
 154:..\..\..\..\..\..\Software\uCOS-III\Source/os_mutex.c **** *                                OS_ERR_ILLEGAL_DEL_RUN_TIME    If you are trying to delete the mut
 155:..\..\..\..\..\..\Software\uCOS-III\Source/os_mutex.c **** *                                                                 OSStart()
 156:..\..\..\..\..\..\Software\uCOS-III\Source/os_mutex.c **** *                                OS_ERR_OBJ_PTR_NULL            If 'p_mutex' is a NULL pointer
 157:..\..\..\..\..\..\Software\uCOS-III\Source/os_mutex.c **** *                                OS_ERR_OBJ_TYPE                If 'p_mutex' is not pointing to a m
 158:..\..\..\..\..\..\Software\uCOS-III\Source/os_mutex.c **** *                                OS_ERR_OPT_INVALID             An invalid option was specified
 159:..\..\..\..\..\..\Software\uCOS-III\Source/os_mutex.c **** *                                OS_ERR_OS_NOT_RUNNING          If uC/OS-III is not running yet
 160:..\..\..\..\..\..\Software\uCOS-III\Source/os_mutex.c **** *                                OS_ERR_TASK_WAITING            One or more tasks were waiting on t
 161:..\..\..\..\..\..\Software\uCOS-III\Source/os_mutex.c **** *
 162:..\..\..\..\..\..\Software\uCOS-III\Source/os_mutex.c **** * Returns    : == 0          if no tasks were waiting on the mutex, or upon error.
 163:..\..\..\..\..\..\Software\uCOS-III\Source/os_mutex.c **** *              >  0          if one or more tasks waiting on the mutex are now readied and informed
 164:..\..\..\..\..\..\Software\uCOS-III\Source/os_mutex.c **** *
 165:..\..\..\..\..\..\Software\uCOS-III\Source/os_mutex.c **** * Note(s)    : 1) This function must be used with care.  Tasks that would normally expect the prese
 166:..\..\..\..\..\..\Software\uCOS-III\Source/os_mutex.c **** *                 check the return code of OSMutexPend().
 167:..\..\..\..\..\..\Software\uCOS-III\Source/os_mutex.c **** *
 168:..\..\..\..\..\..\Software\uCOS-III\Source/os_mutex.c **** *              2) Because ALL tasks pending on the mutex will be readied, you MUST be careful in ap
 169:..\..\..\..\..\..\Software\uCOS-III\Source/os_mutex.c **** *                 mutex is used for mutual exclusion because the resource(s) will no longer be guar
 170:..\..\..\..\..\..\Software\uCOS-III\Source/os_mutex.c **** ***************************************************************************************************
 171:..\..\..\..\..\..\Software\uCOS-III\Source/os_mutex.c **** */
 172:..\..\..\..\..\..\Software\uCOS-III\Source/os_mutex.c **** 
 173:..\..\..\..\..\..\Software\uCOS-III\Source/os_mutex.c **** #if (OS_CFG_MUTEX_DEL_EN == DEF_ENABLED)
 174:..\..\..\..\..\..\Software\uCOS-III\Source/os_mutex.c **** OS_OBJ_QTY  OSMutexDel (OS_MUTEX  *p_mutex,
 175:..\..\..\..\..\..\Software\uCOS-III\Source/os_mutex.c ****                         OS_OPT     opt,
 176:..\..\..\..\..\..\Software\uCOS-III\Source/os_mutex.c ****                         OS_ERR    *p_err)
 177:..\..\..\..\..\..\Software\uCOS-III\Source/os_mutex.c **** {
 178:..\..\..\..\..\..\Software\uCOS-III\Source/os_mutex.c ****     OS_OBJ_QTY     nbr_tasks;
 179:..\..\..\..\..\..\Software\uCOS-III\Source/os_mutex.c ****     OS_PEND_DATA  *p_pend_data;
 180:..\..\..\..\..\..\Software\uCOS-III\Source/os_mutex.c ****     OS_PEND_LIST  *p_pend_list;
 181:..\..\..\..\..\..\Software\uCOS-III\Source/os_mutex.c ****     OS_TCB        *p_tcb;
 182:..\..\..\..\..\..\Software\uCOS-III\Source/os_mutex.c ****     OS_TCB        *p_tcb_owner;
 183:..\..\..\..\..\..\Software\uCOS-III\Source/os_mutex.c ****     CPU_TS         ts;
 184:..\..\..\..\..\..\Software\uCOS-III\Source/os_mutex.c **** #if (OS_CFG_MUTEX_EN == DEF_ENABLED)
 185:..\..\..\..\..\..\Software\uCOS-III\Source/os_mutex.c ****     OS_PRIO        prio_new;
 186:..\..\..\..\..\..\Software\uCOS-III\Source/os_mutex.c **** #endif
 187:..\..\..\..\..\..\Software\uCOS-III\Source/os_mutex.c ****     CPU_SR_ALLOC();
 188:..\..\..\..\..\..\Software\uCOS-III\Source/os_mutex.c **** 
 189:..\..\..\..\..\..\Software\uCOS-III\Source/os_mutex.c **** 
 190:..\..\..\..\..\..\Software\uCOS-III\Source/os_mutex.c **** #ifdef OS_SAFETY_CRITICAL
 191:..\..\..\..\..\..\Software\uCOS-III\Source/os_mutex.c ****     if (p_err == DEF_NULL) {
 192:..\..\..\..\..\..\Software\uCOS-III\Source/os_mutex.c ****         OS_SAFETY_CRITICAL_EXCEPTION();
 193:..\..\..\..\..\..\Software\uCOS-III\Source/os_mutex.c ****         return (0u);
 194:..\..\..\..\..\..\Software\uCOS-III\Source/os_mutex.c ****     }
ARM GAS  C:\Users\ADMINI~1\AppData\Local\Temp\ccvQPEdN.s 			page 7


 195:..\..\..\..\..\..\Software\uCOS-III\Source/os_mutex.c **** #endif
 196:..\..\..\..\..\..\Software\uCOS-III\Source/os_mutex.c **** 
 197:..\..\..\..\..\..\Software\uCOS-III\Source/os_mutex.c **** #ifdef OS_SAFETY_CRITICAL_IEC61508
 198:..\..\..\..\..\..\Software\uCOS-III\Source/os_mutex.c ****     if (OSSafetyCriticalStartFlag == DEF_TRUE) {
 199:..\..\..\..\..\..\Software\uCOS-III\Source/os_mutex.c ****        *p_err = OS_ERR_ILLEGAL_DEL_RUN_TIME;
 200:..\..\..\..\..\..\Software\uCOS-III\Source/os_mutex.c ****         return (0u);
 201:..\..\..\..\..\..\Software\uCOS-III\Source/os_mutex.c ****     }
 202:..\..\..\..\..\..\Software\uCOS-III\Source/os_mutex.c **** #endif
 203:..\..\..\..\..\..\Software\uCOS-III\Source/os_mutex.c **** 
 204:..\..\..\..\..\..\Software\uCOS-III\Source/os_mutex.c **** #if (OS_CFG_CALLED_FROM_ISR_CHK_EN == DEF_ENABLED)
 205:..\..\..\..\..\..\Software\uCOS-III\Source/os_mutex.c ****     if (OSIntNestingCtr > 0u) {                                /* Not allowed to delete a mutex fro
 206:..\..\..\..\..\..\Software\uCOS-III\Source/os_mutex.c ****        *p_err = OS_ERR_DEL_ISR;
 207:..\..\..\..\..\..\Software\uCOS-III\Source/os_mutex.c ****         return (0u);
 208:..\..\..\..\..\..\Software\uCOS-III\Source/os_mutex.c ****     }
 209:..\..\..\..\..\..\Software\uCOS-III\Source/os_mutex.c **** #endif
 210:..\..\..\..\..\..\Software\uCOS-III\Source/os_mutex.c **** 
 211:..\..\..\..\..\..\Software\uCOS-III\Source/os_mutex.c **** #if (OS_CFG_INVALID_OS_CALLS_CHK_EN == DEF_ENABLED)             /* Is the kernel running?          
 212:..\..\..\..\..\..\Software\uCOS-III\Source/os_mutex.c ****     if (OSRunning != OS_STATE_OS_RUNNING) {
 213:..\..\..\..\..\..\Software\uCOS-III\Source/os_mutex.c ****        *p_err = OS_ERR_OS_NOT_RUNNING;
 214:..\..\..\..\..\..\Software\uCOS-III\Source/os_mutex.c ****         return (0u);
 215:..\..\..\..\..\..\Software\uCOS-III\Source/os_mutex.c ****     }
 216:..\..\..\..\..\..\Software\uCOS-III\Source/os_mutex.c **** #endif
 217:..\..\..\..\..\..\Software\uCOS-III\Source/os_mutex.c **** 
 218:..\..\..\..\..\..\Software\uCOS-III\Source/os_mutex.c **** #if (OS_CFG_ARG_CHK_EN == DEF_ENABLED)
 219:..\..\..\..\..\..\Software\uCOS-III\Source/os_mutex.c ****     if (p_mutex == DEF_NULL) {                                  /* Validate 'p_mutex'              
 220:..\..\..\..\..\..\Software\uCOS-III\Source/os_mutex.c ****        *p_err = OS_ERR_OBJ_PTR_NULL;
 221:..\..\..\..\..\..\Software\uCOS-III\Source/os_mutex.c ****         return (0u);
 222:..\..\..\..\..\..\Software\uCOS-III\Source/os_mutex.c ****     }
 223:..\..\..\..\..\..\Software\uCOS-III\Source/os_mutex.c **** #endif
 224:..\..\..\..\..\..\Software\uCOS-III\Source/os_mutex.c **** 
 225:..\..\..\..\..\..\Software\uCOS-III\Source/os_mutex.c **** #if (OS_CFG_OBJ_TYPE_CHK_EN == DEF_ENABLED)
 226:..\..\..\..\..\..\Software\uCOS-III\Source/os_mutex.c ****     if (p_mutex->Type != OS_OBJ_TYPE_MUTEX) {                   /* Make sure mutex was created     
 227:..\..\..\..\..\..\Software\uCOS-III\Source/os_mutex.c ****        *p_err = OS_ERR_OBJ_TYPE;
 228:..\..\..\..\..\..\Software\uCOS-III\Source/os_mutex.c ****         return (0u);
 229:..\..\..\..\..\..\Software\uCOS-III\Source/os_mutex.c ****     }
 230:..\..\..\..\..\..\Software\uCOS-III\Source/os_mutex.c **** #endif
 231:..\..\..\..\..\..\Software\uCOS-III\Source/os_mutex.c **** 
 232:..\..\..\..\..\..\Software\uCOS-III\Source/os_mutex.c ****     OS_CRITICAL_ENTER();
 233:..\..\..\..\..\..\Software\uCOS-III\Source/os_mutex.c ****     p_pend_list = &p_mutex->PendList;
 234:..\..\..\..\..\..\Software\uCOS-III\Source/os_mutex.c ****     nbr_tasks   = 0u;
 235:..\..\..\..\..\..\Software\uCOS-III\Source/os_mutex.c ****     switch (opt) {
 236:..\..\..\..\..\..\Software\uCOS-III\Source/os_mutex.c ****         case OS_OPT_DEL_NO_PEND:                                /* Delete mutex only if no task wai
 237:..\..\..\..\..\..\Software\uCOS-III\Source/os_mutex.c ****              if (p_pend_list->HeadPtr == DEF_NULL) {
 238:..\..\..\..\..\..\Software\uCOS-III\Source/os_mutex.c **** #if (OS_CFG_DBG_EN == DEF_ENABLED)
 239:..\..\..\..\..\..\Software\uCOS-III\Source/os_mutex.c ****                  OS_MutexDbgListRemove(p_mutex);
 240:..\..\..\..\..\..\Software\uCOS-III\Source/os_mutex.c ****                  OSMutexQty--;
 241:..\..\..\..\..\..\Software\uCOS-III\Source/os_mutex.c **** #endif
 242:..\..\..\..\..\..\Software\uCOS-III\Source/os_mutex.c **** #if (defined(TRACE_CFG_EN) && (TRACE_CFG_EN == DEF_ENABLED))
 243:..\..\..\..\..\..\Software\uCOS-III\Source/os_mutex.c ****                  TRACE_OS_MUTEX_DEL(p_mutex);                   /* Record the event.               
 244:..\..\..\..\..\..\Software\uCOS-III\Source/os_mutex.c **** #endif
 245:..\..\..\..\..\..\Software\uCOS-III\Source/os_mutex.c ****                  if (p_mutex->OwnerTCBPtr != DEF_NULL) {        /* Does the mutex belong to a task?
 246:..\..\..\..\..\..\Software\uCOS-III\Source/os_mutex.c ****                      OS_MutexGrpRemove(p_mutex->OwnerTCBPtr, p_mutex); /* yes, remove it from the t
 247:..\..\..\..\..\..\Software\uCOS-III\Source/os_mutex.c ****                  }
 248:..\..\..\..\..\..\Software\uCOS-III\Source/os_mutex.c ****                  OS_MutexClr(p_mutex);
 249:..\..\..\..\..\..\Software\uCOS-III\Source/os_mutex.c ****                  OS_CRITICAL_EXIT();
 250:..\..\..\..\..\..\Software\uCOS-III\Source/os_mutex.c ****                 *p_err = OS_ERR_NONE;
 251:..\..\..\..\..\..\Software\uCOS-III\Source/os_mutex.c ****              } else {
ARM GAS  C:\Users\ADMINI~1\AppData\Local\Temp\ccvQPEdN.s 			page 8


 252:..\..\..\..\..\..\Software\uCOS-III\Source/os_mutex.c ****                  OS_CRITICAL_EXIT();
 253:..\..\..\..\..\..\Software\uCOS-III\Source/os_mutex.c ****                 *p_err = OS_ERR_TASK_WAITING;
 254:..\..\..\..\..\..\Software\uCOS-III\Source/os_mutex.c ****              }
 255:..\..\..\..\..\..\Software\uCOS-III\Source/os_mutex.c ****              break;
 256:..\..\..\..\..\..\Software\uCOS-III\Source/os_mutex.c **** 
 257:..\..\..\..\..\..\Software\uCOS-III\Source/os_mutex.c ****         case OS_OPT_DEL_ALWAYS:                                 /* Always delete the mutex         
 258:..\..\..\..\..\..\Software\uCOS-III\Source/os_mutex.c **** #if (OS_CFG_TS_EN == DEF_ENABLED)
 259:..\..\..\..\..\..\Software\uCOS-III\Source/os_mutex.c ****              ts = OS_TS_GET();                                  /* Get timestamp                   
 260:..\..\..\..\..\..\Software\uCOS-III\Source/os_mutex.c **** #else
 261:..\..\..\..\..\..\Software\uCOS-III\Source/os_mutex.c ****              ts = 0u;
 262:..\..\..\..\..\..\Software\uCOS-III\Source/os_mutex.c **** #endif
 263:..\..\..\..\..\..\Software\uCOS-III\Source/os_mutex.c ****              while (p_pend_list->HeadPtr != DEF_NULL) {         /* Remove all tasks from the pend l
 264:..\..\..\..\..\..\Software\uCOS-III\Source/os_mutex.c ****                  p_pend_data = p_pend_list->HeadPtr;
 265:..\..\..\..\..\..\Software\uCOS-III\Source/os_mutex.c ****                  p_tcb       = p_pend_data->TCBPtr;
 266:..\..\..\..\..\..\Software\uCOS-III\Source/os_mutex.c ****                  OS_PendObjDel((OS_PEND_OBJ *)((void *)p_mutex),
 267:..\..\..\..\..\..\Software\uCOS-III\Source/os_mutex.c ****                                p_tcb,
 268:..\..\..\..\..\..\Software\uCOS-III\Source/os_mutex.c ****                                ts);
 269:..\..\..\..\..\..\Software\uCOS-III\Source/os_mutex.c ****                  nbr_tasks++;
 270:..\..\..\..\..\..\Software\uCOS-III\Source/os_mutex.c ****              }
 271:..\..\..\..\..\..\Software\uCOS-III\Source/os_mutex.c **** #if (OS_CFG_DBG_EN == DEF_ENABLED)
 272:..\..\..\..\..\..\Software\uCOS-III\Source/os_mutex.c ****              OS_MutexDbgListRemove(p_mutex);
 273:..\..\..\..\..\..\Software\uCOS-III\Source/os_mutex.c ****              OSMutexQty--;
 274:..\..\..\..\..\..\Software\uCOS-III\Source/os_mutex.c **** #endif
 275:..\..\..\..\..\..\Software\uCOS-III\Source/os_mutex.c **** #if (defined(TRACE_CFG_EN) && (TRACE_CFG_EN == DEF_ENABLED))
 276:..\..\..\..\..\..\Software\uCOS-III\Source/os_mutex.c ****              TRACE_OS_MUTEX_DEL(p_mutex);                       /* Record the event.               
 277:..\..\..\..\..\..\Software\uCOS-III\Source/os_mutex.c **** #endif
 278:..\..\..\..\..\..\Software\uCOS-III\Source/os_mutex.c **** 
 279:..\..\..\..\..\..\Software\uCOS-III\Source/os_mutex.c ****              p_tcb_owner = p_mutex->OwnerTCBPtr;
 280:..\..\..\..\..\..\Software\uCOS-III\Source/os_mutex.c ****              if (p_tcb_owner != DEF_NULL) {                     /* Does the mutex belong to a task?
 281:..\..\..\..\..\..\Software\uCOS-III\Source/os_mutex.c ****                  OS_MutexGrpRemove(p_tcb_owner, p_mutex);       /* yes, remove it from the task gro
 282:..\..\..\..\..\..\Software\uCOS-III\Source/os_mutex.c ****              }
 283:..\..\..\..\..\..\Software\uCOS-III\Source/os_mutex.c **** 
 284:..\..\..\..\..\..\Software\uCOS-III\Source/os_mutex.c **** 
 285:..\..\..\..\..\..\Software\uCOS-III\Source/os_mutex.c ****              if (p_tcb_owner != DEF_NULL) {                     /* Did we had to change the prio of
 286:..\..\..\..\..\..\Software\uCOS-III\Source/os_mutex.c ****                  if (p_tcb_owner->Prio != p_tcb_owner->BasePrio) {
 287:..\..\..\..\..\..\Software\uCOS-III\Source/os_mutex.c ****                      prio_new = OS_MutexGrpPrioFindHighest(p_tcb_owner);
 288:..\..\..\..\..\..\Software\uCOS-III\Source/os_mutex.c ****                      prio_new = prio_new > p_tcb_owner->BasePrio ? p_tcb_owner->BasePrio : prio_new
 289:..\..\..\..\..\..\Software\uCOS-III\Source/os_mutex.c ****                      OS_TaskChangePrio(p_tcb_owner, prio_new);
 290:..\..\..\..\..\..\Software\uCOS-III\Source/os_mutex.c **** #if (defined(TRACE_CFG_EN) && (TRACE_CFG_EN == DEF_ENABLED))
 291:..\..\..\..\..\..\Software\uCOS-III\Source/os_mutex.c ****                      TRACE_OS_MUTEX_TASK_PRIO_DISINHERIT(p_tcb_owner, p_tcb_owner->Prio)
 292:..\..\..\..\..\..\Software\uCOS-III\Source/os_mutex.c **** #endif
 293:..\..\..\..\..\..\Software\uCOS-III\Source/os_mutex.c ****                  }
 294:..\..\..\..\..\..\Software\uCOS-III\Source/os_mutex.c ****              }
 295:..\..\..\..\..\..\Software\uCOS-III\Source/os_mutex.c **** 
 296:..\..\..\..\..\..\Software\uCOS-III\Source/os_mutex.c ****              OS_MutexClr(p_mutex);
 297:..\..\..\..\..\..\Software\uCOS-III\Source/os_mutex.c ****              OS_CRITICAL_EXIT_NO_SCHED();
 298:..\..\..\..\..\..\Software\uCOS-III\Source/os_mutex.c ****              OSSched();                                         /* Find highest priority task ready
 299:..\..\..\..\..\..\Software\uCOS-III\Source/os_mutex.c ****             *p_err = OS_ERR_NONE;
 300:..\..\..\..\..\..\Software\uCOS-III\Source/os_mutex.c ****              break;
 301:..\..\..\..\..\..\Software\uCOS-III\Source/os_mutex.c **** 
 302:..\..\..\..\..\..\Software\uCOS-III\Source/os_mutex.c ****         default:
 303:..\..\..\..\..\..\Software\uCOS-III\Source/os_mutex.c ****              OS_CRITICAL_EXIT();
 304:..\..\..\..\..\..\Software\uCOS-III\Source/os_mutex.c ****             *p_err = OS_ERR_OPT_INVALID;
 305:..\..\..\..\..\..\Software\uCOS-III\Source/os_mutex.c ****              break;
 306:..\..\..\..\..\..\Software\uCOS-III\Source/os_mutex.c ****     }
 307:..\..\..\..\..\..\Software\uCOS-III\Source/os_mutex.c ****     return (nbr_tasks);
 308:..\..\..\..\..\..\Software\uCOS-III\Source/os_mutex.c **** }
ARM GAS  C:\Users\ADMINI~1\AppData\Local\Temp\ccvQPEdN.s 			page 9


 309:..\..\..\..\..\..\Software\uCOS-III\Source/os_mutex.c **** #endif
 310:..\..\..\..\..\..\Software\uCOS-III\Source/os_mutex.c **** 
 311:..\..\..\..\..\..\Software\uCOS-III\Source/os_mutex.c **** 
 312:..\..\..\..\..\..\Software\uCOS-III\Source/os_mutex.c **** /*
 313:..\..\..\..\..\..\Software\uCOS-III\Source/os_mutex.c **** ***************************************************************************************************
 314:..\..\..\..\..\..\Software\uCOS-III\Source/os_mutex.c **** *                                                    PEND ON MUTEX
 315:..\..\..\..\..\..\Software\uCOS-III\Source/os_mutex.c **** *
 316:..\..\..\..\..\..\Software\uCOS-III\Source/os_mutex.c **** * Description: This function waits for a mutex.
 317:..\..\..\..\..\..\Software\uCOS-III\Source/os_mutex.c **** *
 318:..\..\..\..\..\..\Software\uCOS-III\Source/os_mutex.c **** * Arguments  : p_mutex       is a pointer to the mutex
 319:..\..\..\..\..\..\Software\uCOS-III\Source/os_mutex.c **** *
 320:..\..\..\..\..\..\Software\uCOS-III\Source/os_mutex.c **** *              timeout       is an optional timeout period (in clock ticks).  If non-zero, your tas
 321:..\..\..\..\..\..\Software\uCOS-III\Source/os_mutex.c **** *                            resource up to the amount of time (in 'ticks') specified by this argum
 322:..\..\..\..\..\..\Software\uCOS-III\Source/os_mutex.c **** *                            0, however, your task will wait forever at the specified mutex or, unt
 323:..\..\..\..\..\..\Software\uCOS-III\Source/os_mutex.c **** *                            becomes available.
 324:..\..\..\..\..\..\Software\uCOS-III\Source/os_mutex.c **** *
 325:..\..\..\..\..\..\Software\uCOS-III\Source/os_mutex.c **** *              opt           determines whether the user wants to block if the mutex is not availab
 326:..\..\..\..\..\..\Software\uCOS-III\Source/os_mutex.c **** *
 327:..\..\..\..\..\..\Software\uCOS-III\Source/os_mutex.c **** *                                OS_OPT_PEND_BLOCKING
 328:..\..\..\..\..\..\Software\uCOS-III\Source/os_mutex.c **** *                                OS_OPT_PEND_NON_BLOCKING
 329:..\..\..\..\..\..\Software\uCOS-III\Source/os_mutex.c **** *
 330:..\..\..\..\..\..\Software\uCOS-III\Source/os_mutex.c **** *              p_ts          is a pointer to a variable that will receive the timestamp of when the
 331:..\..\..\..\..\..\Software\uCOS-III\Source/os_mutex.c **** *                            pend aborted or the mutex deleted.  If you pass a NULL pointer (i.e. (
 332:..\..\..\..\..\..\Software\uCOS-III\Source/os_mutex.c **** *                            will not get the timestamp.  In other words, passing a NULL pointer is
 333:..\..\..\..\..\..\Software\uCOS-III\Source/os_mutex.c **** *                            that you don't need the timestamp.
 334:..\..\..\..\..\..\Software\uCOS-III\Source/os_mutex.c **** *
 335:..\..\..\..\..\..\Software\uCOS-III\Source/os_mutex.c **** *              p_err         is a pointer to a variable that will contain an error code returned by
 336:..\..\..\..\..\..\Software\uCOS-III\Source/os_mutex.c **** *
 337:..\..\..\..\..\..\Software\uCOS-III\Source/os_mutex.c **** *                                OS_ERR_NONE               The call was successful and your task ow
 338:..\..\..\..\..\..\Software\uCOS-III\Source/os_mutex.c **** *                                OS_ERR_MUTEX_OWNER        If calling task already owns the mutex
 339:..\..\..\..\..\..\Software\uCOS-III\Source/os_mutex.c **** *                                OS_ERR_MUTEX_OVF          Mutex nesting counter overflowed
 340:..\..\..\..\..\..\Software\uCOS-III\Source/os_mutex.c **** *                                OS_ERR_OBJ_DEL            If 'p_mutex' was deleted
 341:..\..\..\..\..\..\Software\uCOS-III\Source/os_mutex.c **** *                                OS_ERR_OBJ_PTR_NULL       If 'p_mutex' is a NULL pointer
 342:..\..\..\..\..\..\Software\uCOS-III\Source/os_mutex.c **** *                                OS_ERR_OBJ_TYPE           If 'p_mutex' is not pointing at a mutex
 343:..\..\..\..\..\..\Software\uCOS-III\Source/os_mutex.c **** *                                OS_ERR_OPT_INVALID        If you didn't specify a valid option
 344:..\..\..\..\..\..\Software\uCOS-III\Source/os_mutex.c **** *                                OS_ERR_OS_NOT_RUNNING     If uC/OS-III is not running yet
 345:..\..\..\..\..\..\Software\uCOS-III\Source/os_mutex.c **** *                                OS_ERR_PEND_ABORT         If the pend was aborted by another task
 346:..\..\..\..\..\..\Software\uCOS-III\Source/os_mutex.c **** *                                OS_ERR_PEND_ISR           If you called this function from an ISR 
 347:..\..\..\..\..\..\Software\uCOS-III\Source/os_mutex.c **** *                                                          would lead to a suspension
 348:..\..\..\..\..\..\Software\uCOS-III\Source/os_mutex.c **** *                                OS_ERR_PEND_WOULD_BLOCK   If you specified non-blocking but the mu
 349:..\..\..\..\..\..\Software\uCOS-III\Source/os_mutex.c **** *                                                          available
 350:..\..\..\..\..\..\Software\uCOS-III\Source/os_mutex.c **** *                                OS_ERR_SCHED_LOCKED       If you called this function when the sch
 351:..\..\..\..\..\..\Software\uCOS-III\Source/os_mutex.c **** *                                OS_ERR_STATUS_INVALID     If the pend status has an invalid value
 352:..\..\..\..\..\..\Software\uCOS-III\Source/os_mutex.c **** *                                OS_ERR_TIMEOUT            The mutex was not received within the sp
 353:..\..\..\..\..\..\Software\uCOS-III\Source/os_mutex.c **** *
 354:..\..\..\..\..\..\Software\uCOS-III\Source/os_mutex.c **** * Returns    : none
 355:..\..\..\..\..\..\Software\uCOS-III\Source/os_mutex.c **** *
 356:..\..\..\..\..\..\Software\uCOS-III\Source/os_mutex.c **** * Note(s)    : none
 357:..\..\..\..\..\..\Software\uCOS-III\Source/os_mutex.c **** ***************************************************************************************************
 358:..\..\..\..\..\..\Software\uCOS-III\Source/os_mutex.c **** */
 359:..\..\..\..\..\..\Software\uCOS-III\Source/os_mutex.c **** 
 360:..\..\..\..\..\..\Software\uCOS-III\Source/os_mutex.c **** void  OSMutexPend (OS_MUTEX  *p_mutex,
 361:..\..\..\..\..\..\Software\uCOS-III\Source/os_mutex.c ****                    OS_TICK    timeout,
 362:..\..\..\..\..\..\Software\uCOS-III\Source/os_mutex.c ****                    OS_OPT     opt,
 363:..\..\..\..\..\..\Software\uCOS-III\Source/os_mutex.c ****                    CPU_TS    *p_ts,
 364:..\..\..\..\..\..\Software\uCOS-III\Source/os_mutex.c ****                    OS_ERR    *p_err)
 365:..\..\..\..\..\..\Software\uCOS-III\Source/os_mutex.c **** {
ARM GAS  C:\Users\ADMINI~1\AppData\Local\Temp\ccvQPEdN.s 			page 10


 149              		.loc 1 365 0
 150              		.cfi_startproc
 151              		@ args = 4, pretend = 0, frame = 56
 152              		@ frame_needed = 1, uses_anonymous_args = 0
 153 0000 80B5     		push	{r7, lr}
 154              		.cfi_def_cfa_offset 8
 155              		.cfi_offset 7, -8
 156              		.cfi_offset 14, -4
 157 0002 8EB0     		sub	sp, sp, #56
 158              		.cfi_def_cfa_offset 64
 159 0004 00AF     		add	r7, sp, #0
 160              		.cfi_def_cfa_register 7
 161 0006 F860     		str	r0, [r7, #12]
 162 0008 B960     		str	r1, [r7, #8]
 163 000a 3B60     		str	r3, [r7]
 164 000c BB1D     		adds	r3, r7, #6
 165 000e 1A80     		strh	r2, [r3]
 366:..\..\..\..\..\..\Software\uCOS-III\Source/os_mutex.c ****     OS_PEND_DATA  pend_data;
 367:..\..\..\..\..\..\Software\uCOS-III\Source/os_mutex.c ****     OS_TCB       *p_tcb;
 368:..\..\..\..\..\..\Software\uCOS-III\Source/os_mutex.c ****     CPU_SR_ALLOC();
 166              		.loc 1 368 0
 167 0010 0023     		movs	r3, #0
 168 0012 7B63     		str	r3, [r7, #52]
 369:..\..\..\..\..\..\Software\uCOS-III\Source/os_mutex.c **** 
 370:..\..\..\..\..\..\Software\uCOS-III\Source/os_mutex.c **** 
 371:..\..\..\..\..\..\Software\uCOS-III\Source/os_mutex.c **** #if (OS_CFG_TS_EN == DEF_DISABLED)
 372:..\..\..\..\..\..\Software\uCOS-III\Source/os_mutex.c ****     (void)&p_ts;                                                /* Prevent compiler warning for not
 373:..\..\..\..\..\..\Software\uCOS-III\Source/os_mutex.c **** #endif
 374:..\..\..\..\..\..\Software\uCOS-III\Source/os_mutex.c **** 
 375:..\..\..\..\..\..\Software\uCOS-III\Source/os_mutex.c **** #ifdef OS_SAFETY_CRITICAL
 376:..\..\..\..\..\..\Software\uCOS-III\Source/os_mutex.c ****     if (p_err == DEF_NULL) {
 377:..\..\..\..\..\..\Software\uCOS-III\Source/os_mutex.c ****         OS_SAFETY_CRITICAL_EXCEPTION();
 378:..\..\..\..\..\..\Software\uCOS-III\Source/os_mutex.c ****         return;
 379:..\..\..\..\..\..\Software\uCOS-III\Source/os_mutex.c ****     }
 380:..\..\..\..\..\..\Software\uCOS-III\Source/os_mutex.c **** #endif
 381:..\..\..\..\..\..\Software\uCOS-III\Source/os_mutex.c **** 
 382:..\..\..\..\..\..\Software\uCOS-III\Source/os_mutex.c **** #if (OS_CFG_CALLED_FROM_ISR_CHK_EN == DEF_ENABLED)
 383:..\..\..\..\..\..\Software\uCOS-III\Source/os_mutex.c ****     if (OSIntNestingCtr > 0u) {                                 /* Not allowed to call from an ISR 
 169              		.loc 1 383 0
 170 0014 884B     		ldr	r3, .L37
 171 0016 1B78     		ldrb	r3, [r3]
 172 0018 002B     		cmp	r3, #0
 173 001a 03D0     		beq	.L8
 384:..\..\..\..\..\..\Software\uCOS-III\Source/os_mutex.c **** #if (defined(TRACE_CFG_EN) && (TRACE_CFG_EN == DEF_ENABLED))
 385:..\..\..\..\..\..\Software\uCOS-III\Source/os_mutex.c ****         TRACE_OS_MUTEX_PEND_FAILED(p_mutex);                    /* Record the event.               
 386:..\..\..\..\..\..\Software\uCOS-III\Source/os_mutex.c **** #endif
 387:..\..\..\..\..\..\Software\uCOS-III\Source/os_mutex.c ****        *p_err = OS_ERR_PEND_ISR;
 174              		.loc 1 387 0
 175 001c 3B6C     		ldr	r3, [r7, #64]
 176 001e 874A     		ldr	r2, .L37+4
 177 0020 1A80     		strh	r2, [r3]
 388:..\..\..\..\..\..\Software\uCOS-III\Source/os_mutex.c ****         return;
 178              		.loc 1 388 0
 179 0022 06E1     		b	.L7
 180              	.L8:
 389:..\..\..\..\..\..\Software\uCOS-III\Source/os_mutex.c ****     }
 390:..\..\..\..\..\..\Software\uCOS-III\Source/os_mutex.c **** #endif
ARM GAS  C:\Users\ADMINI~1\AppData\Local\Temp\ccvQPEdN.s 			page 11


 391:..\..\..\..\..\..\Software\uCOS-III\Source/os_mutex.c **** 
 392:..\..\..\..\..\..\Software\uCOS-III\Source/os_mutex.c **** #if (OS_CFG_INVALID_OS_CALLS_CHK_EN == DEF_ENABLED)             /* Is the kernel running?          
 393:..\..\..\..\..\..\Software\uCOS-III\Source/os_mutex.c ****     if (OSRunning != OS_STATE_OS_RUNNING) {
 394:..\..\..\..\..\..\Software\uCOS-III\Source/os_mutex.c ****        *p_err = OS_ERR_OS_NOT_RUNNING;
 395:..\..\..\..\..\..\Software\uCOS-III\Source/os_mutex.c ****         return;
 396:..\..\..\..\..\..\Software\uCOS-III\Source/os_mutex.c ****     }
 397:..\..\..\..\..\..\Software\uCOS-III\Source/os_mutex.c **** #endif
 398:..\..\..\..\..\..\Software\uCOS-III\Source/os_mutex.c **** 
 399:..\..\..\..\..\..\Software\uCOS-III\Source/os_mutex.c **** #if (OS_CFG_ARG_CHK_EN == DEF_ENABLED)
 400:..\..\..\..\..\..\Software\uCOS-III\Source/os_mutex.c ****     if (p_mutex == DEF_NULL) {                                  /* Validate arguments              
 181              		.loc 1 400 0
 182 0024 FB68     		ldr	r3, [r7, #12]
 183 0026 002B     		cmp	r3, #0
 184 0028 03D1     		bne	.L10
 401:..\..\..\..\..\..\Software\uCOS-III\Source/os_mutex.c **** #if (defined(TRACE_CFG_EN) && (TRACE_CFG_EN == DEF_ENABLED))
 402:..\..\..\..\..\..\Software\uCOS-III\Source/os_mutex.c ****         TRACE_OS_MUTEX_PEND_FAILED(p_mutex);                    /* Record the event.               
 403:..\..\..\..\..\..\Software\uCOS-III\Source/os_mutex.c **** #endif
 404:..\..\..\..\..\..\Software\uCOS-III\Source/os_mutex.c ****        *p_err = OS_ERR_OBJ_PTR_NULL;
 185              		.loc 1 404 0
 186 002a 3B6C     		ldr	r3, [r7, #64]
 187 002c 844A     		ldr	r2, .L37+8
 188 002e 1A80     		strh	r2, [r3]
 405:..\..\..\..\..\..\Software\uCOS-III\Source/os_mutex.c ****         return;
 189              		.loc 1 405 0
 190 0030 FFE0     		b	.L7
 191              	.L10:
 406:..\..\..\..\..\..\Software\uCOS-III\Source/os_mutex.c ****     }
 407:..\..\..\..\..\..\Software\uCOS-III\Source/os_mutex.c ****     switch (opt) {                                              /* Validate 'opt'                  
 192              		.loc 1 407 0
 193 0032 BB1D     		adds	r3, r7, #6
 194 0034 1B88     		ldrh	r3, [r3]
 195 0036 002B     		cmp	r3, #0
 196 0038 07D0     		beq	.L36
 197 003a 8022     		movs	r2, #128
 198 003c 1202     		lsls	r2, r2, #8
 199 003e 9342     		cmp	r3, r2
 200 0040 03D0     		beq	.L36
 408:..\..\..\..\..\..\Software\uCOS-III\Source/os_mutex.c ****         case OS_OPT_PEND_BLOCKING:
 409:..\..\..\..\..\..\Software\uCOS-III\Source/os_mutex.c ****         case OS_OPT_PEND_NON_BLOCKING:
 410:..\..\..\..\..\..\Software\uCOS-III\Source/os_mutex.c ****              break;
 411:..\..\..\..\..\..\Software\uCOS-III\Source/os_mutex.c **** 
 412:..\..\..\..\..\..\Software\uCOS-III\Source/os_mutex.c ****         default:
 413:..\..\..\..\..\..\Software\uCOS-III\Source/os_mutex.c **** #if (defined(TRACE_CFG_EN) && (TRACE_CFG_EN == DEF_ENABLED))
 414:..\..\..\..\..\..\Software\uCOS-III\Source/os_mutex.c ****              TRACE_OS_MUTEX_PEND_FAILED(p_mutex);               /* Record the event.               
 415:..\..\..\..\..\..\Software\uCOS-III\Source/os_mutex.c **** #endif
 416:..\..\..\..\..\..\Software\uCOS-III\Source/os_mutex.c ****             *p_err = OS_ERR_OPT_INVALID;
 201              		.loc 1 416 0
 202 0042 3B6C     		ldr	r3, [r7, #64]
 203 0044 7F4A     		ldr	r2, .L37+12
 204 0046 1A80     		strh	r2, [r3]
 417:..\..\..\..\..\..\Software\uCOS-III\Source/os_mutex.c ****              return;
 205              		.loc 1 417 0
 206 0048 F3E0     		b	.L7
 207              	.L36:
 410:..\..\..\..\..\..\Software\uCOS-III\Source/os_mutex.c **** 
 208              		.loc 1 410 0
 209 004a C046     		nop
ARM GAS  C:\Users\ADMINI~1\AppData\Local\Temp\ccvQPEdN.s 			page 12


 418:..\..\..\..\..\..\Software\uCOS-III\Source/os_mutex.c ****     }
 419:..\..\..\..\..\..\Software\uCOS-III\Source/os_mutex.c **** #endif
 420:..\..\..\..\..\..\Software\uCOS-III\Source/os_mutex.c **** 
 421:..\..\..\..\..\..\Software\uCOS-III\Source/os_mutex.c **** #if (OS_CFG_OBJ_TYPE_CHK_EN == DEF_ENABLED)
 422:..\..\..\..\..\..\Software\uCOS-III\Source/os_mutex.c ****     if (p_mutex->Type != OS_OBJ_TYPE_MUTEX) {                   /* Make sure mutex was created     
 423:..\..\..\..\..\..\Software\uCOS-III\Source/os_mutex.c **** #if (defined(TRACE_CFG_EN) && (TRACE_CFG_EN == DEF_ENABLED))
 424:..\..\..\..\..\..\Software\uCOS-III\Source/os_mutex.c ****         TRACE_OS_MUTEX_PEND_FAILED(p_mutex);                    /* Record the event.               
 425:..\..\..\..\..\..\Software\uCOS-III\Source/os_mutex.c **** #endif
 426:..\..\..\..\..\..\Software\uCOS-III\Source/os_mutex.c ****        *p_err = OS_ERR_OBJ_TYPE;
 427:..\..\..\..\..\..\Software\uCOS-III\Source/os_mutex.c ****         return;
 428:..\..\..\..\..\..\Software\uCOS-III\Source/os_mutex.c ****     }
 429:..\..\..\..\..\..\Software\uCOS-III\Source/os_mutex.c **** #endif
 430:..\..\..\..\..\..\Software\uCOS-III\Source/os_mutex.c **** 
 431:..\..\..\..\..\..\Software\uCOS-III\Source/os_mutex.c ****     CPU_CRITICAL_ENTER();
 210              		.loc 1 431 0
 211 004c FFF7FEFF 		bl	CPU_SR_Save
 212 0050 0300     		movs	r3, r0
 213 0052 7B63     		str	r3, [r7, #52]
 214 0054 FFF7FEFF 		bl	CPU_IntDisMeasStart
 432:..\..\..\..\..\..\Software\uCOS-III\Source/os_mutex.c ****     if (p_mutex->OwnerNestingCtr == 0u) {                       /* Resource available?             
 215              		.loc 1 432 0
 216 0058 FB68     		ldr	r3, [r7, #12]
 217 005a 2822     		movs	r2, #40
 218 005c 9B5C     		ldrb	r3, [r3, r2]
 219 005e 002B     		cmp	r3, #0
 220 0060 1FD1     		bne	.L14
 433:..\..\..\..\..\..\Software\uCOS-III\Source/os_mutex.c ****         p_mutex->OwnerTCBPtr     = OSTCBCurPtr;                 /* Yes, caller may proceed         
 221              		.loc 1 433 0
 222 0062 794B     		ldr	r3, .L37+16
 223 0064 1A68     		ldr	r2, [r3]
 224 0066 FB68     		ldr	r3, [r7, #12]
 225 0068 5A62     		str	r2, [r3, #36]
 434:..\..\..\..\..\..\Software\uCOS-III\Source/os_mutex.c ****         p_mutex->OwnerNestingCtr = 1u;
 226              		.loc 1 434 0
 227 006a FB68     		ldr	r3, [r7, #12]
 228 006c 2822     		movs	r2, #40
 229 006e 0121     		movs	r1, #1
 230 0070 9954     		strb	r1, [r3, r2]
 435:..\..\..\..\..\..\Software\uCOS-III\Source/os_mutex.c **** #if (OS_CFG_TS_EN == DEF_ENABLED)
 436:..\..\..\..\..\..\Software\uCOS-III\Source/os_mutex.c ****         if (p_ts != DEF_NULL) {
 231              		.loc 1 436 0
 232 0072 3B68     		ldr	r3, [r7]
 233 0074 002B     		cmp	r3, #0
 234 0076 03D0     		beq	.L15
 437:..\..\..\..\..\..\Software\uCOS-III\Source/os_mutex.c ****            *p_ts = p_mutex->TS;
 235              		.loc 1 437 0
 236 0078 FB68     		ldr	r3, [r7, #12]
 237 007a DA6A     		ldr	r2, [r3, #44]
 238 007c 3B68     		ldr	r3, [r7]
 239 007e 1A60     		str	r2, [r3]
 240              	.L15:
 438:..\..\..\..\..\..\Software\uCOS-III\Source/os_mutex.c ****         }
 439:..\..\..\..\..\..\Software\uCOS-III\Source/os_mutex.c **** #endif
 440:..\..\..\..\..\..\Software\uCOS-III\Source/os_mutex.c ****         OS_MutexGrpAdd(OSTCBCurPtr, p_mutex);                   /* Add mutex to owner's group      
 241              		.loc 1 440 0
 242 0080 714B     		ldr	r3, .L37+16
 243 0082 1B68     		ldr	r3, [r3]
ARM GAS  C:\Users\ADMINI~1\AppData\Local\Temp\ccvQPEdN.s 			page 13


 244 0084 FA68     		ldr	r2, [r7, #12]
 245 0086 1100     		movs	r1, r2
 246 0088 1800     		movs	r0, r3
 247 008a FFF7FEFF 		bl	OS_MutexGrpAdd
 441:..\..\..\..\..\..\Software\uCOS-III\Source/os_mutex.c ****         CPU_CRITICAL_EXIT();
 248              		.loc 1 441 0
 249 008e FFF7FEFF 		bl	CPU_IntDisMeasStop
 250 0092 7B6B     		ldr	r3, [r7, #52]
 251 0094 1800     		movs	r0, r3
 252 0096 FFF7FEFF 		bl	CPU_SR_Restore
 442:..\..\..\..\..\..\Software\uCOS-III\Source/os_mutex.c **** #if (defined(TRACE_CFG_EN) && (TRACE_CFG_EN == DEF_ENABLED))
 443:..\..\..\..\..\..\Software\uCOS-III\Source/os_mutex.c ****         TRACE_OS_MUTEX_PEND(p_mutex);                           /* Record the event.               
 444:..\..\..\..\..\..\Software\uCOS-III\Source/os_mutex.c **** #endif
 445:..\..\..\..\..\..\Software\uCOS-III\Source/os_mutex.c ****        *p_err = OS_ERR_NONE;
 253              		.loc 1 445 0
 254 009a 3B6C     		ldr	r3, [r7, #64]
 255 009c 0022     		movs	r2, #0
 256 009e 1A80     		strh	r2, [r3]
 446:..\..\..\..\..\..\Software\uCOS-III\Source/os_mutex.c ****         return;
 257              		.loc 1 446 0
 258 00a0 C7E0     		b	.L7
 259              	.L14:
 447:..\..\..\..\..\..\Software\uCOS-III\Source/os_mutex.c ****     }
 448:..\..\..\..\..\..\Software\uCOS-III\Source/os_mutex.c **** 
 449:..\..\..\..\..\..\Software\uCOS-III\Source/os_mutex.c ****     if (OSTCBCurPtr == p_mutex->OwnerTCBPtr) {                  /* See if current task is already t
 260              		.loc 1 449 0
 261 00a2 FB68     		ldr	r3, [r7, #12]
 262 00a4 5A6A     		ldr	r2, [r3, #36]
 263 00a6 684B     		ldr	r3, .L37+16
 264 00a8 1B68     		ldr	r3, [r3]
 265 00aa 9A42     		cmp	r2, r3
 266 00ac 27D1     		bne	.L16
 450:..\..\..\..\..\..\Software\uCOS-III\Source/os_mutex.c ****         if (p_mutex->OwnerNestingCtr == (OS_NESTING_CTR)-1) {
 267              		.loc 1 450 0
 268 00ae FB68     		ldr	r3, [r7, #12]
 269 00b0 2822     		movs	r2, #40
 270 00b2 9B5C     		ldrb	r3, [r3, r2]
 271 00b4 FF2B     		cmp	r3, #255
 272 00b6 09D1     		bne	.L17
 451:..\..\..\..\..\..\Software\uCOS-III\Source/os_mutex.c ****             CPU_CRITICAL_EXIT();
 273              		.loc 1 451 0
 274 00b8 FFF7FEFF 		bl	CPU_IntDisMeasStop
 275 00bc 7B6B     		ldr	r3, [r7, #52]
 276 00be 1800     		movs	r0, r3
 277 00c0 FFF7FEFF 		bl	CPU_SR_Restore
 452:..\..\..\..\..\..\Software\uCOS-III\Source/os_mutex.c **** #if (defined(TRACE_CFG_EN) && (TRACE_CFG_EN == DEF_ENABLED))
 453:..\..\..\..\..\..\Software\uCOS-III\Source/os_mutex.c ****             TRACE_OS_MUTEX_PEND_FAILED(p_mutex);                /* Record the event.               
 454:..\..\..\..\..\..\Software\uCOS-III\Source/os_mutex.c **** #endif
 455:..\..\..\..\..\..\Software\uCOS-III\Source/os_mutex.c ****            *p_err = OS_ERR_MUTEX_OVF;
 278              		.loc 1 455 0
 279 00c4 3B6C     		ldr	r3, [r7, #64]
 280 00c6 614A     		ldr	r2, .L37+20
 281 00c8 1A80     		strh	r2, [r3]
 456:..\..\..\..\..\..\Software\uCOS-III\Source/os_mutex.c ****             return;
 282              		.loc 1 456 0
 283 00ca B2E0     		b	.L7
 284              	.L17:
ARM GAS  C:\Users\ADMINI~1\AppData\Local\Temp\ccvQPEdN.s 			page 14


 457:..\..\..\..\..\..\Software\uCOS-III\Source/os_mutex.c ****         }
 458:..\..\..\..\..\..\Software\uCOS-III\Source/os_mutex.c ****         p_mutex->OwnerNestingCtr++;
 285              		.loc 1 458 0
 286 00cc FB68     		ldr	r3, [r7, #12]
 287 00ce 2822     		movs	r2, #40
 288 00d0 9B5C     		ldrb	r3, [r3, r2]
 289 00d2 0133     		adds	r3, r3, #1
 290 00d4 D9B2     		uxtb	r1, r3
 291 00d6 FB68     		ldr	r3, [r7, #12]
 292 00d8 2822     		movs	r2, #40
 293 00da 9954     		strb	r1, [r3, r2]
 459:..\..\..\..\..\..\Software\uCOS-III\Source/os_mutex.c **** #if (OS_CFG_TS_EN == DEF_ENABLED)
 460:..\..\..\..\..\..\Software\uCOS-III\Source/os_mutex.c ****         if (p_ts != DEF_NULL) {
 294              		.loc 1 460 0
 295 00dc 3B68     		ldr	r3, [r7]
 296 00de 002B     		cmp	r3, #0
 297 00e0 03D0     		beq	.L18
 461:..\..\..\..\..\..\Software\uCOS-III\Source/os_mutex.c ****            *p_ts = p_mutex->TS;
 298              		.loc 1 461 0
 299 00e2 FB68     		ldr	r3, [r7, #12]
 300 00e4 DA6A     		ldr	r2, [r3, #44]
 301 00e6 3B68     		ldr	r3, [r7]
 302 00e8 1A60     		str	r2, [r3]
 303              	.L18:
 462:..\..\..\..\..\..\Software\uCOS-III\Source/os_mutex.c ****         }
 463:..\..\..\..\..\..\Software\uCOS-III\Source/os_mutex.c **** #endif
 464:..\..\..\..\..\..\Software\uCOS-III\Source/os_mutex.c ****         CPU_CRITICAL_EXIT();
 304              		.loc 1 464 0
 305 00ea FFF7FEFF 		bl	CPU_IntDisMeasStop
 306 00ee 7B6B     		ldr	r3, [r7, #52]
 307 00f0 1800     		movs	r0, r3
 308 00f2 FFF7FEFF 		bl	CPU_SR_Restore
 465:..\..\..\..\..\..\Software\uCOS-III\Source/os_mutex.c **** #if (defined(TRACE_CFG_EN) && (TRACE_CFG_EN == DEF_ENABLED))
 466:..\..\..\..\..\..\Software\uCOS-III\Source/os_mutex.c ****         TRACE_OS_MUTEX_PEND_FAILED(p_mutex);                    /* Record the event.               
 467:..\..\..\..\..\..\Software\uCOS-III\Source/os_mutex.c **** #endif
 468:..\..\..\..\..\..\Software\uCOS-III\Source/os_mutex.c ****        *p_err = OS_ERR_MUTEX_OWNER;                             /* Indicate that current task alrea
 309              		.loc 1 468 0
 310 00f6 3B6C     		ldr	r3, [r7, #64]
 311 00f8 554A     		ldr	r2, .L37+24
 312 00fa 1A80     		strh	r2, [r3]
 469:..\..\..\..\..\..\Software\uCOS-III\Source/os_mutex.c ****         return;
 313              		.loc 1 469 0
 314 00fc 99E0     		b	.L7
 315              	.L16:
 470:..\..\..\..\..\..\Software\uCOS-III\Source/os_mutex.c ****     }
 471:..\..\..\..\..\..\Software\uCOS-III\Source/os_mutex.c **** 
 472:..\..\..\..\..\..\Software\uCOS-III\Source/os_mutex.c ****     if ((opt & OS_OPT_PEND_NON_BLOCKING) != 0u) {               /* Caller wants to block if not ava
 316              		.loc 1 472 0
 317 00fe BB1D     		adds	r3, r7, #6
 318 0100 0022     		movs	r2, #0
 319 0102 9B5E     		ldrsh	r3, [r3, r2]
 320 0104 002B     		cmp	r3, #0
 321 0106 0FDA     		bge	.L19
 473:..\..\..\..\..\..\Software\uCOS-III\Source/os_mutex.c ****         CPU_CRITICAL_EXIT();
 322              		.loc 1 473 0
 323 0108 FFF7FEFF 		bl	CPU_IntDisMeasStop
 324 010c 7B6B     		ldr	r3, [r7, #52]
ARM GAS  C:\Users\ADMINI~1\AppData\Local\Temp\ccvQPEdN.s 			page 15


 325 010e 1800     		movs	r0, r3
 326 0110 FFF7FEFF 		bl	CPU_SR_Restore
 474:..\..\..\..\..\..\Software\uCOS-III\Source/os_mutex.c **** #if (OS_CFG_TS_EN == DEF_ENABLED)
 475:..\..\..\..\..\..\Software\uCOS-III\Source/os_mutex.c ****         if (p_ts != DEF_NULL) {
 327              		.loc 1 475 0
 328 0114 3B68     		ldr	r3, [r7]
 329 0116 002B     		cmp	r3, #0
 330 0118 02D0     		beq	.L20
 476:..\..\..\..\..\..\Software\uCOS-III\Source/os_mutex.c ****            *p_ts = 0u;
 331              		.loc 1 476 0
 332 011a 3B68     		ldr	r3, [r7]
 333 011c 0022     		movs	r2, #0
 334 011e 1A60     		str	r2, [r3]
 335              	.L20:
 477:..\..\..\..\..\..\Software\uCOS-III\Source/os_mutex.c ****         }
 478:..\..\..\..\..\..\Software\uCOS-III\Source/os_mutex.c **** #endif
 479:..\..\..\..\..\..\Software\uCOS-III\Source/os_mutex.c **** #if (defined(TRACE_CFG_EN) && (TRACE_CFG_EN == DEF_ENABLED))
 480:..\..\..\..\..\..\Software\uCOS-III\Source/os_mutex.c ****         TRACE_OS_MUTEX_PEND_FAILED(p_mutex);                    /* Record the event.               
 481:..\..\..\..\..\..\Software\uCOS-III\Source/os_mutex.c **** #endif
 482:..\..\..\..\..\..\Software\uCOS-III\Source/os_mutex.c ****        *p_err = OS_ERR_PEND_WOULD_BLOCK;                        /* No                              
 336              		.loc 1 482 0
 337 0120 3B6C     		ldr	r3, [r7, #64]
 338 0122 4C4A     		ldr	r2, .L37+28
 339 0124 1A80     		strh	r2, [r3]
 483:..\..\..\..\..\..\Software\uCOS-III\Source/os_mutex.c ****         return;
 340              		.loc 1 483 0
 341 0126 84E0     		b	.L7
 342              	.L19:
 484:..\..\..\..\..\..\Software\uCOS-III\Source/os_mutex.c ****     } else {
 485:..\..\..\..\..\..\Software\uCOS-III\Source/os_mutex.c ****         if (OSSchedLockNestingCtr > 0u) {                       /* Can't pend when the scheduler is
 343              		.loc 1 485 0
 344 0128 4B4B     		ldr	r3, .L37+32
 345 012a 1B78     		ldrb	r3, [r3]
 346 012c 002B     		cmp	r3, #0
 347 012e 0FD0     		beq	.L21
 486:..\..\..\..\..\..\Software\uCOS-III\Source/os_mutex.c ****             CPU_CRITICAL_EXIT();
 348              		.loc 1 486 0
 349 0130 FFF7FEFF 		bl	CPU_IntDisMeasStop
 350 0134 7B6B     		ldr	r3, [r7, #52]
 351 0136 1800     		movs	r0, r3
 352 0138 FFF7FEFF 		bl	CPU_SR_Restore
 487:..\..\..\..\..\..\Software\uCOS-III\Source/os_mutex.c **** #if (OS_CFG_TS_EN == DEF_ENABLED)
 488:..\..\..\..\..\..\Software\uCOS-III\Source/os_mutex.c ****             if (p_ts != DEF_NULL) {
 353              		.loc 1 488 0
 354 013c 3B68     		ldr	r3, [r7]
 355 013e 002B     		cmp	r3, #0
 356 0140 02D0     		beq	.L22
 489:..\..\..\..\..\..\Software\uCOS-III\Source/os_mutex.c ****                *p_ts = 0u;
 357              		.loc 1 489 0
 358 0142 3B68     		ldr	r3, [r7]
 359 0144 0022     		movs	r2, #0
 360 0146 1A60     		str	r2, [r3]
 361              	.L22:
 490:..\..\..\..\..\..\Software\uCOS-III\Source/os_mutex.c ****             }
 491:..\..\..\..\..\..\Software\uCOS-III\Source/os_mutex.c **** #endif
 492:..\..\..\..\..\..\Software\uCOS-III\Source/os_mutex.c **** #if (defined(TRACE_CFG_EN) && (TRACE_CFG_EN == DEF_ENABLED))
 493:..\..\..\..\..\..\Software\uCOS-III\Source/os_mutex.c ****             TRACE_OS_MUTEX_PEND_FAILED(p_mutex);                /* Record the event.               
ARM GAS  C:\Users\ADMINI~1\AppData\Local\Temp\ccvQPEdN.s 			page 16


 494:..\..\..\..\..\..\Software\uCOS-III\Source/os_mutex.c **** #endif
 495:..\..\..\..\..\..\Software\uCOS-III\Source/os_mutex.c ****            *p_err = OS_ERR_SCHED_LOCKED;
 362              		.loc 1 495 0
 363 0148 3B6C     		ldr	r3, [r7, #64]
 364 014a 444A     		ldr	r2, .L37+36
 365 014c 1A80     		strh	r2, [r3]
 496:..\..\..\..\..\..\Software\uCOS-III\Source/os_mutex.c ****             return;
 366              		.loc 1 496 0
 367 014e 70E0     		b	.L7
 368              	.L21:
 497:..\..\..\..\..\..\Software\uCOS-III\Source/os_mutex.c ****         }
 498:..\..\..\..\..\..\Software\uCOS-III\Source/os_mutex.c ****     }
 499:..\..\..\..\..\..\Software\uCOS-III\Source/os_mutex.c ****                                                                 /* Lock the scheduler/re-enable int
 500:..\..\..\..\..\..\Software\uCOS-III\Source/os_mutex.c ****     OS_CRITICAL_ENTER_CPU_EXIT();
 501:..\..\..\..\..\..\Software\uCOS-III\Source/os_mutex.c ****     p_tcb = p_mutex->OwnerTCBPtr;                               /* Point to the TCB of the Mutex ow
 369              		.loc 1 501 0
 370 0150 FB68     		ldr	r3, [r7, #12]
 371 0152 5B6A     		ldr	r3, [r3, #36]
 372 0154 3B63     		str	r3, [r7, #48]
 502:..\..\..\..\..\..\Software\uCOS-III\Source/os_mutex.c ****     if (p_tcb->Prio > OSTCBCurPtr->Prio) {                      /* See if mutex owner has a lower p
 373              		.loc 1 502 0
 374 0156 3B6B     		ldr	r3, [r7, #48]
 375 0158 3722     		movs	r2, #55
 376 015a 9A5C     		ldrb	r2, [r3, r2]
 377 015c 3A4B     		ldr	r3, .L37+16
 378 015e 1B68     		ldr	r3, [r3]
 379 0160 3721     		movs	r1, #55
 380 0162 5B5C     		ldrb	r3, [r3, r1]
 381 0164 9A42     		cmp	r2, r3
 382 0166 08D9     		bls	.L23
 503:..\..\..\..\..\..\Software\uCOS-III\Source/os_mutex.c ****         OS_TaskChangePrio(p_tcb, OSTCBCurPtr->Prio);
 383              		.loc 1 503 0
 384 0168 374B     		ldr	r3, .L37+16
 385 016a 1B68     		ldr	r3, [r3]
 386 016c 3722     		movs	r2, #55
 387 016e 9A5C     		ldrb	r2, [r3, r2]
 388 0170 3B6B     		ldr	r3, [r7, #48]
 389 0172 1100     		movs	r1, r2
 390 0174 1800     		movs	r0, r3
 391 0176 FFF7FEFF 		bl	OS_TaskChangePrio
 392              	.L23:
 504:..\..\..\..\..\..\Software\uCOS-III\Source/os_mutex.c **** #if (defined(TRACE_CFG_EN) && (TRACE_CFG_EN == DEF_ENABLED))
 505:..\..\..\..\..\..\Software\uCOS-III\Source/os_mutex.c ****                  TRACE_OS_MUTEX_TASK_PRIO_INHERIT(p_tcb, p_tcb->Prio);
 506:..\..\..\..\..\..\Software\uCOS-III\Source/os_mutex.c **** #endif
 507:..\..\..\..\..\..\Software\uCOS-III\Source/os_mutex.c ****     }
 508:..\..\..\..\..\..\Software\uCOS-III\Source/os_mutex.c **** 
 509:..\..\..\..\..\..\Software\uCOS-III\Source/os_mutex.c ****     OS_Pend(&pend_data,                                         /* Block task pending on Mutex     
 393              		.loc 1 509 0
 394 017a BB68     		ldr	r3, [r7, #8]
 395 017c F968     		ldr	r1, [r7, #12]
 396 017e 1022     		movs	r2, #16
 397 0180 B818     		adds	r0, r7, r2
 398 0182 0422     		movs	r2, #4
 399 0184 FFF7FEFF 		bl	OS_Pend
 510:..\..\..\..\..\..\Software\uCOS-III\Source/os_mutex.c ****             (OS_PEND_OBJ *)((void *)p_mutex),
 511:..\..\..\..\..\..\Software\uCOS-III\Source/os_mutex.c ****              OS_TASK_PEND_ON_MUTEX,
 512:..\..\..\..\..\..\Software\uCOS-III\Source/os_mutex.c ****              timeout);
ARM GAS  C:\Users\ADMINI~1\AppData\Local\Temp\ccvQPEdN.s 			page 17


 513:..\..\..\..\..\..\Software\uCOS-III\Source/os_mutex.c **** 
 514:..\..\..\..\..\..\Software\uCOS-III\Source/os_mutex.c ****     OS_CRITICAL_EXIT_NO_SCHED();
 400              		.loc 1 514 0
 401 0188 FFF7FEFF 		bl	CPU_IntDisMeasStop
 402 018c 7B6B     		ldr	r3, [r7, #52]
 403 018e 1800     		movs	r0, r3
 404 0190 FFF7FEFF 		bl	CPU_SR_Restore
 515:..\..\..\..\..\..\Software\uCOS-III\Source/os_mutex.c **** #if (defined(TRACE_CFG_EN) && (TRACE_CFG_EN == DEF_ENABLED))
 516:..\..\..\..\..\..\Software\uCOS-III\Source/os_mutex.c ****     TRACE_OS_MUTEX_PEND_BLOCK(p_mutex);                         /* Record the event.               
 517:..\..\..\..\..\..\Software\uCOS-III\Source/os_mutex.c **** #endif
 518:..\..\..\..\..\..\Software\uCOS-III\Source/os_mutex.c ****     OSSched();                                                  /* Find the next highest priority t
 405              		.loc 1 518 0
 406 0194 FFF7FEFF 		bl	OSSched
 519:..\..\..\..\..\..\Software\uCOS-III\Source/os_mutex.c **** 
 520:..\..\..\..\..\..\Software\uCOS-III\Source/os_mutex.c ****     CPU_CRITICAL_ENTER();
 407              		.loc 1 520 0
 408 0198 FFF7FEFF 		bl	CPU_SR_Save
 409 019c 0300     		movs	r3, r0
 410 019e 7B63     		str	r3, [r7, #52]
 411 01a0 FFF7FEFF 		bl	CPU_IntDisMeasStart
 521:..\..\..\..\..\..\Software\uCOS-III\Source/os_mutex.c ****     switch (OSTCBCurPtr->PendStatus) {
 412              		.loc 1 521 0
 413 01a4 284B     		ldr	r3, .L37+16
 414 01a6 1B68     		ldr	r3, [r3]
 415 01a8 3522     		movs	r2, #53
 416 01aa 9B5C     		ldrb	r3, [r3, r2]
 417 01ac 012B     		cmp	r3, #1
 418 01ae 14D0     		beq	.L25
 419 01b0 02DC     		bgt	.L26
 420 01b2 002B     		cmp	r3, #0
 421 01b4 05D0     		beq	.L27
 422 01b6 32E0     		b	.L24
 423              	.L26:
 424 01b8 022B     		cmp	r3, #2
 425 01ba 24D0     		beq	.L28
 426 01bc 032B     		cmp	r3, #3
 427 01be 18D0     		beq	.L29
 428 01c0 2DE0     		b	.L24
 429              	.L27:
 522:..\..\..\..\..\..\Software\uCOS-III\Source/os_mutex.c ****         case OS_STATUS_PEND_OK:                                 /* We got the mutex                
 523:..\..\..\..\..\..\Software\uCOS-III\Source/os_mutex.c **** #if (OS_CFG_TS_EN == DEF_ENABLED)
 524:..\..\..\..\..\..\Software\uCOS-III\Source/os_mutex.c ****              if (p_ts != DEF_NULL) {
 430              		.loc 1 524 0
 431 01c2 3B68     		ldr	r3, [r7]
 432 01c4 002B     		cmp	r3, #0
 433 01c6 04D0     		beq	.L30
 525:..\..\..\..\..\..\Software\uCOS-III\Source/os_mutex.c ****                 *p_ts = OSTCBCurPtr->TS;
 434              		.loc 1 525 0
 435 01c8 1F4B     		ldr	r3, .L37+16
 436 01ca 1B68     		ldr	r3, [r3]
 437 01cc 9A6C     		ldr	r2, [r3, #72]
 438 01ce 3B68     		ldr	r3, [r7]
 439 01d0 1A60     		str	r2, [r3]
 440              	.L30:
 526:..\..\..\..\..\..\Software\uCOS-III\Source/os_mutex.c ****              }
 527:..\..\..\..\..\..\Software\uCOS-III\Source/os_mutex.c **** #endif
 528:..\..\..\..\..\..\Software\uCOS-III\Source/os_mutex.c **** #if (defined(TRACE_CFG_EN) && (TRACE_CFG_EN == DEF_ENABLED))
ARM GAS  C:\Users\ADMINI~1\AppData\Local\Temp\ccvQPEdN.s 			page 18


 529:..\..\..\..\..\..\Software\uCOS-III\Source/os_mutex.c ****              TRACE_OS_MUTEX_PEND(p_mutex);                      /* Record the event.               
 530:..\..\..\..\..\..\Software\uCOS-III\Source/os_mutex.c **** #endif
 531:..\..\..\..\..\..\Software\uCOS-III\Source/os_mutex.c ****             *p_err = OS_ERR_NONE;
 441              		.loc 1 531 0
 442 01d2 3B6C     		ldr	r3, [r7, #64]
 443 01d4 0022     		movs	r2, #0
 444 01d6 1A80     		strh	r2, [r3]
 532:..\..\..\..\..\..\Software\uCOS-III\Source/os_mutex.c ****              break;
 445              		.loc 1 532 0
 446 01d8 25E0     		b	.L31
 447              	.L25:
 533:..\..\..\..\..\..\Software\uCOS-III\Source/os_mutex.c **** 
 534:..\..\..\..\..\..\Software\uCOS-III\Source/os_mutex.c ****         case OS_STATUS_PEND_ABORT:                              /* Indicate that we aborted        
 535:..\..\..\..\..\..\Software\uCOS-III\Source/os_mutex.c **** #if (OS_CFG_TS_EN == DEF_ENABLED)
 536:..\..\..\..\..\..\Software\uCOS-III\Source/os_mutex.c ****              if (p_ts != DEF_NULL) {
 448              		.loc 1 536 0
 449 01da 3B68     		ldr	r3, [r7]
 450 01dc 002B     		cmp	r3, #0
 451 01de 04D0     		beq	.L32
 537:..\..\..\..\..\..\Software\uCOS-III\Source/os_mutex.c ****                 *p_ts = OSTCBCurPtr->TS;
 452              		.loc 1 537 0
 453 01e0 194B     		ldr	r3, .L37+16
 454 01e2 1B68     		ldr	r3, [r3]
 455 01e4 9A6C     		ldr	r2, [r3, #72]
 456 01e6 3B68     		ldr	r3, [r7]
 457 01e8 1A60     		str	r2, [r3]
 458              	.L32:
 538:..\..\..\..\..\..\Software\uCOS-III\Source/os_mutex.c ****              }
 539:..\..\..\..\..\..\Software\uCOS-III\Source/os_mutex.c **** #endif
 540:..\..\..\..\..\..\Software\uCOS-III\Source/os_mutex.c **** #if (defined(TRACE_CFG_EN) && (TRACE_CFG_EN == DEF_ENABLED))
 541:..\..\..\..\..\..\Software\uCOS-III\Source/os_mutex.c ****              TRACE_OS_MUTEX_PEND_FAILED(p_mutex);               /* Record the event.               
 542:..\..\..\..\..\..\Software\uCOS-III\Source/os_mutex.c **** #endif
 543:..\..\..\..\..\..\Software\uCOS-III\Source/os_mutex.c ****             *p_err = OS_ERR_PEND_ABORT;
 459              		.loc 1 543 0
 460 01ea 3B6C     		ldr	r3, [r7, #64]
 461 01ec 1C4A     		ldr	r2, .L37+40
 462 01ee 1A80     		strh	r2, [r3]
 544:..\..\..\..\..\..\Software\uCOS-III\Source/os_mutex.c ****              break;
 463              		.loc 1 544 0
 464 01f0 19E0     		b	.L31
 465              	.L29:
 545:..\..\..\..\..\..\Software\uCOS-III\Source/os_mutex.c **** 
 546:..\..\..\..\..\..\Software\uCOS-III\Source/os_mutex.c ****         case OS_STATUS_PEND_TIMEOUT:                            /* Indicate that we didn't get mute
 547:..\..\..\..\..\..\Software\uCOS-III\Source/os_mutex.c **** #if (OS_CFG_TS_EN == DEF_ENABLED)
 548:..\..\..\..\..\..\Software\uCOS-III\Source/os_mutex.c ****              if (p_ts != DEF_NULL) {
 466              		.loc 1 548 0
 467 01f2 3B68     		ldr	r3, [r7]
 468 01f4 002B     		cmp	r3, #0
 469 01f6 02D0     		beq	.L33
 549:..\..\..\..\..\..\Software\uCOS-III\Source/os_mutex.c ****                 *p_ts = 0u;
 470              		.loc 1 549 0
 471 01f8 3B68     		ldr	r3, [r7]
 472 01fa 0022     		movs	r2, #0
 473 01fc 1A60     		str	r2, [r3]
 474              	.L33:
 550:..\..\..\..\..\..\Software\uCOS-III\Source/os_mutex.c ****              }
 551:..\..\..\..\..\..\Software\uCOS-III\Source/os_mutex.c **** #endif
ARM GAS  C:\Users\ADMINI~1\AppData\Local\Temp\ccvQPEdN.s 			page 19


 552:..\..\..\..\..\..\Software\uCOS-III\Source/os_mutex.c **** #if (defined(TRACE_CFG_EN) && (TRACE_CFG_EN == DEF_ENABLED))
 553:..\..\..\..\..\..\Software\uCOS-III\Source/os_mutex.c ****              TRACE_OS_MUTEX_PEND_FAILED(p_mutex);               /* Record the event.               
 554:..\..\..\..\..\..\Software\uCOS-III\Source/os_mutex.c **** #endif
 555:..\..\..\..\..\..\Software\uCOS-III\Source/os_mutex.c ****             *p_err = OS_ERR_TIMEOUT;
 475              		.loc 1 555 0
 476 01fe 3B6C     		ldr	r3, [r7, #64]
 477 0200 184A     		ldr	r2, .L37+44
 478 0202 1A80     		strh	r2, [r3]
 556:..\..\..\..\..\..\Software\uCOS-III\Source/os_mutex.c ****              break;
 479              		.loc 1 556 0
 480 0204 0FE0     		b	.L31
 481              	.L28:
 557:..\..\..\..\..\..\Software\uCOS-III\Source/os_mutex.c **** 
 558:..\..\..\..\..\..\Software\uCOS-III\Source/os_mutex.c ****         case OS_STATUS_PEND_DEL:                                /* Indicate that object pended on h
 559:..\..\..\..\..\..\Software\uCOS-III\Source/os_mutex.c **** #if (OS_CFG_TS_EN == DEF_ENABLED)
 560:..\..\..\..\..\..\Software\uCOS-III\Source/os_mutex.c ****              if (p_ts != DEF_NULL) {
 482              		.loc 1 560 0
 483 0206 3B68     		ldr	r3, [r7]
 484 0208 002B     		cmp	r3, #0
 485 020a 04D0     		beq	.L34
 561:..\..\..\..\..\..\Software\uCOS-III\Source/os_mutex.c ****                 *p_ts = OSTCBCurPtr->TS;
 486              		.loc 1 561 0
 487 020c 0E4B     		ldr	r3, .L37+16
 488 020e 1B68     		ldr	r3, [r3]
 489 0210 9A6C     		ldr	r2, [r3, #72]
 490 0212 3B68     		ldr	r3, [r7]
 491 0214 1A60     		str	r2, [r3]
 492              	.L34:
 562:..\..\..\..\..\..\Software\uCOS-III\Source/os_mutex.c ****              }
 563:..\..\..\..\..\..\Software\uCOS-III\Source/os_mutex.c **** #endif
 564:..\..\..\..\..\..\Software\uCOS-III\Source/os_mutex.c **** #if (defined(TRACE_CFG_EN) && (TRACE_CFG_EN == DEF_ENABLED))
 565:..\..\..\..\..\..\Software\uCOS-III\Source/os_mutex.c ****              TRACE_OS_MUTEX_PEND_FAILED(p_mutex);               /* Record the event.               
 566:..\..\..\..\..\..\Software\uCOS-III\Source/os_mutex.c **** #endif
 567:..\..\..\..\..\..\Software\uCOS-III\Source/os_mutex.c ****             *p_err = OS_ERR_OBJ_DEL;
 493              		.loc 1 567 0
 494 0216 3B6C     		ldr	r3, [r7, #64]
 495 0218 134A     		ldr	r2, .L37+48
 496 021a 1A80     		strh	r2, [r3]
 568:..\..\..\..\..\..\Software\uCOS-III\Source/os_mutex.c ****              break;
 497              		.loc 1 568 0
 498 021c 03E0     		b	.L31
 499              	.L24:
 569:..\..\..\..\..\..\Software\uCOS-III\Source/os_mutex.c **** 
 570:..\..\..\..\..\..\Software\uCOS-III\Source/os_mutex.c ****         default:
 571:..\..\..\..\..\..\Software\uCOS-III\Source/os_mutex.c **** #if (defined(TRACE_CFG_EN) && (TRACE_CFG_EN == DEF_ENABLED))
 572:..\..\..\..\..\..\Software\uCOS-III\Source/os_mutex.c ****              TRACE_OS_MUTEX_PEND_FAILED(p_mutex);               /* Record the event.               
 573:..\..\..\..\..\..\Software\uCOS-III\Source/os_mutex.c **** #endif
 574:..\..\..\..\..\..\Software\uCOS-III\Source/os_mutex.c ****             *p_err = OS_ERR_STATUS_INVALID;
 500              		.loc 1 574 0
 501 021e 3B6C     		ldr	r3, [r7, #64]
 502 0220 124A     		ldr	r2, .L37+52
 503 0222 1A80     		strh	r2, [r3]
 575:..\..\..\..\..\..\Software\uCOS-III\Source/os_mutex.c ****              break;
 504              		.loc 1 575 0
 505 0224 C046     		nop
 506              	.L31:
 576:..\..\..\..\..\..\Software\uCOS-III\Source/os_mutex.c ****     }
ARM GAS  C:\Users\ADMINI~1\AppData\Local\Temp\ccvQPEdN.s 			page 20


 577:..\..\..\..\..\..\Software\uCOS-III\Source/os_mutex.c ****     CPU_CRITICAL_EXIT();
 507              		.loc 1 577 0
 508 0226 FFF7FEFF 		bl	CPU_IntDisMeasStop
 509 022a 7B6B     		ldr	r3, [r7, #52]
 510 022c 1800     		movs	r0, r3
 511 022e FFF7FEFF 		bl	CPU_SR_Restore
 512              	.L7:
 578:..\..\..\..\..\..\Software\uCOS-III\Source/os_mutex.c **** }
 513              		.loc 1 578 0
 514 0232 BD46     		mov	sp, r7
 515 0234 0EB0     		add	sp, sp, #56
 516              		@ sp needed
 517 0236 80BD     		pop	{r7, pc}
 518              	.L38:
 519              		.align	2
 520              	.L37:
 521 0238 00000000 		.word	OSIntNestingCtr
 522 023c AE610000 		.word	25006
 523 0240 C35D0000 		.word	24003
 524 0244 255E0000 		.word	24101
 525 0248 00000000 		.word	OSTCBCurPtr
 526 024c 84570000 		.word	22404
 527 0250 82570000 		.word	22402
 528 0254 B0610000 		.word	25008
 529 0258 00000000 		.word	OSSchedLockNestingCtr
 530 025c 636D0000 		.word	28003
 531 0260 A9610000 		.word	25001
 532 0264 D9720000 		.word	29401
 533 0268 C25D0000 		.word	24002
 534 026c 2E6E0000 		.word	28206
 535              		.cfi_endproc
 536              	.LFE1:
 537              		.size	OSMutexPend, .-OSMutexPend
 538              		.section	.text.OSMutexPost,"ax",%progbits
 539              		.align	2
 540              		.global	OSMutexPost
 541              		.code	16
 542              		.thumb_func
 543              		.type	OSMutexPost, %function
 544              	OSMutexPost:
 545              	.LFB2:
 579:..\..\..\..\..\..\Software\uCOS-III\Source/os_mutex.c **** 
 580:..\..\..\..\..\..\Software\uCOS-III\Source/os_mutex.c **** 
 581:..\..\..\..\..\..\Software\uCOS-III\Source/os_mutex.c **** /*
 582:..\..\..\..\..\..\Software\uCOS-III\Source/os_mutex.c **** ***************************************************************************************************
 583:..\..\..\..\..\..\Software\uCOS-III\Source/os_mutex.c **** *                                               ABORT WAITING ON A MUTEX
 584:..\..\..\..\..\..\Software\uCOS-III\Source/os_mutex.c **** *
 585:..\..\..\..\..\..\Software\uCOS-III\Source/os_mutex.c **** * Description: This function aborts & readies any tasks currently waiting on a mutex.  This functio
 586:..\..\..\..\..\..\Software\uCOS-III\Source/os_mutex.c **** *              to fault-abort the wait on the mutex, rather than to normally signal the mutex via O
 587:..\..\..\..\..\..\Software\uCOS-III\Source/os_mutex.c **** *
 588:..\..\..\..\..\..\Software\uCOS-III\Source/os_mutex.c **** * Arguments  : p_mutex       is a pointer to the mutex
 589:..\..\..\..\..\..\Software\uCOS-III\Source/os_mutex.c **** *
 590:..\..\..\..\..\..\Software\uCOS-III\Source/os_mutex.c **** *              opt           determines the type of ABORT performed:
 591:..\..\..\..\..\..\Software\uCOS-III\Source/os_mutex.c **** *
 592:..\..\..\..\..\..\Software\uCOS-III\Source/os_mutex.c **** *                                OS_OPT_PEND_ABORT_1          ABORT wait for a single task (HPT) wa
 593:..\..\..\..\..\..\Software\uCOS-III\Source/os_mutex.c **** *                                OS_OPT_PEND_ABORT_ALL        ABORT wait for ALL tasks that are  wa
 594:..\..\..\..\..\..\Software\uCOS-III\Source/os_mutex.c **** *                                OS_OPT_POST_NO_SCHED         Do not call the scheduler
ARM GAS  C:\Users\ADMINI~1\AppData\Local\Temp\ccvQPEdN.s 			page 21


 595:..\..\..\..\..\..\Software\uCOS-III\Source/os_mutex.c **** *
 596:..\..\..\..\..\..\Software\uCOS-III\Source/os_mutex.c **** *              p_err         is a pointer to a variable that will contain an error code returned by
 597:..\..\..\..\..\..\Software\uCOS-III\Source/os_mutex.c **** *
 598:..\..\..\..\..\..\Software\uCOS-III\Source/os_mutex.c **** *                                OS_ERR_NONE               At least one task waiting on the mutex w
 599:..\..\..\..\..\..\Software\uCOS-III\Source/os_mutex.c **** *                                                          informed of the aborted wait; check retu
 600:..\..\..\..\..\..\Software\uCOS-III\Source/os_mutex.c **** *                                                          number of tasks whose wait on the mutex 
 601:..\..\..\..\..\..\Software\uCOS-III\Source/os_mutex.c **** *                                OS_ERR_OBJ_PTR_NULL       If 'p_mutex' is a NULL pointer
 602:..\..\..\..\..\..\Software\uCOS-III\Source/os_mutex.c **** *                                OS_ERR_OBJ_TYPE           If 'p_mutex' is not pointing at a mutex
 603:..\..\..\..\..\..\Software\uCOS-III\Source/os_mutex.c **** *                                OS_ERR_OPT_INVALID        If you specified an invalid option
 604:..\..\..\..\..\..\Software\uCOS-III\Source/os_mutex.c **** *                                OS_ERR_OS_NOT_RUNNING     If uC/OS-III is not running yet
 605:..\..\..\..\..\..\Software\uCOS-III\Source/os_mutex.c **** *                                OS_ERR_PEND_ABORT_ISR     If you attempted to call this function f
 606:..\..\..\..\..\..\Software\uCOS-III\Source/os_mutex.c **** *                                OS_ERR_PEND_ABORT_NONE    No task were pending
 607:..\..\..\..\..\..\Software\uCOS-III\Source/os_mutex.c **** *
 608:..\..\..\..\..\..\Software\uCOS-III\Source/os_mutex.c **** * Returns    : == 0          if no tasks were waiting on the mutex, or upon error.
 609:..\..\..\..\..\..\Software\uCOS-III\Source/os_mutex.c **** *              >  0          if one or more tasks waiting on the mutex are now readied and informed
 610:..\..\..\..\..\..\Software\uCOS-III\Source/os_mutex.c **** *
 611:..\..\..\..\..\..\Software\uCOS-III\Source/os_mutex.c **** * Note(s)    : none
 612:..\..\..\..\..\..\Software\uCOS-III\Source/os_mutex.c **** ***************************************************************************************************
 613:..\..\..\..\..\..\Software\uCOS-III\Source/os_mutex.c **** */
 614:..\..\..\..\..\..\Software\uCOS-III\Source/os_mutex.c **** 
 615:..\..\..\..\..\..\Software\uCOS-III\Source/os_mutex.c **** #if (OS_CFG_MUTEX_PEND_ABORT_EN == DEF_ENABLED)
 616:..\..\..\..\..\..\Software\uCOS-III\Source/os_mutex.c **** OS_OBJ_QTY  OSMutexPendAbort (OS_MUTEX  *p_mutex,
 617:..\..\..\..\..\..\Software\uCOS-III\Source/os_mutex.c ****                               OS_OPT     opt,
 618:..\..\..\..\..\..\Software\uCOS-III\Source/os_mutex.c ****                               OS_ERR    *p_err)
 619:..\..\..\..\..\..\Software\uCOS-III\Source/os_mutex.c **** {
 620:..\..\..\..\..\..\Software\uCOS-III\Source/os_mutex.c ****     OS_PEND_LIST  *p_pend_list;
 621:..\..\..\..\..\..\Software\uCOS-III\Source/os_mutex.c ****     OS_TCB        *p_tcb;
 622:..\..\..\..\..\..\Software\uCOS-III\Source/os_mutex.c ****     OS_TCB        *p_tcb_owner;
 623:..\..\..\..\..\..\Software\uCOS-III\Source/os_mutex.c ****     CPU_TS         ts;
 624:..\..\..\..\..\..\Software\uCOS-III\Source/os_mutex.c ****     OS_OBJ_QTY     nbr_tasks;
 625:..\..\..\..\..\..\Software\uCOS-III\Source/os_mutex.c ****     OS_PRIO        prio_new;
 626:..\..\..\..\..\..\Software\uCOS-III\Source/os_mutex.c ****     CPU_SR_ALLOC();
 627:..\..\..\..\..\..\Software\uCOS-III\Source/os_mutex.c **** 
 628:..\..\..\..\..\..\Software\uCOS-III\Source/os_mutex.c **** 
 629:..\..\..\..\..\..\Software\uCOS-III\Source/os_mutex.c **** 
 630:..\..\..\..\..\..\Software\uCOS-III\Source/os_mutex.c **** #ifdef OS_SAFETY_CRITICAL
 631:..\..\..\..\..\..\Software\uCOS-III\Source/os_mutex.c ****     if (p_err == DEF_NULL) {
 632:..\..\..\..\..\..\Software\uCOS-III\Source/os_mutex.c ****         OS_SAFETY_CRITICAL_EXCEPTION();
 633:..\..\..\..\..\..\Software\uCOS-III\Source/os_mutex.c ****         return ((OS_OBJ_QTY)0u);
 634:..\..\..\..\..\..\Software\uCOS-III\Source/os_mutex.c ****     }
 635:..\..\..\..\..\..\Software\uCOS-III\Source/os_mutex.c **** #endif
 636:..\..\..\..\..\..\Software\uCOS-III\Source/os_mutex.c **** 
 637:..\..\..\..\..\..\Software\uCOS-III\Source/os_mutex.c **** #if (OS_CFG_CALLED_FROM_ISR_CHK_EN == DEF_ENABLED)
 638:..\..\..\..\..\..\Software\uCOS-III\Source/os_mutex.c ****     if (OSIntNestingCtr > 0u) {                                 /* Not allowed to Pend Abort from a
 639:..\..\..\..\..\..\Software\uCOS-III\Source/os_mutex.c ****        *p_err =  OS_ERR_PEND_ABORT_ISR;
 640:..\..\..\..\..\..\Software\uCOS-III\Source/os_mutex.c ****         return (0u);
 641:..\..\..\..\..\..\Software\uCOS-III\Source/os_mutex.c ****     }
 642:..\..\..\..\..\..\Software\uCOS-III\Source/os_mutex.c **** #endif
 643:..\..\..\..\..\..\Software\uCOS-III\Source/os_mutex.c **** 
 644:..\..\..\..\..\..\Software\uCOS-III\Source/os_mutex.c **** #if (OS_CFG_INVALID_OS_CALLS_CHK_EN == DEF_ENABLED)             /* Is the kernel running?          
 645:..\..\..\..\..\..\Software\uCOS-III\Source/os_mutex.c ****     if (OSRunning != OS_STATE_OS_RUNNING) {
 646:..\..\..\..\..\..\Software\uCOS-III\Source/os_mutex.c ****        *p_err = OS_ERR_OS_NOT_RUNNING;
 647:..\..\..\..\..\..\Software\uCOS-III\Source/os_mutex.c ****         return (0u);
 648:..\..\..\..\..\..\Software\uCOS-III\Source/os_mutex.c ****     }
 649:..\..\..\..\..\..\Software\uCOS-III\Source/os_mutex.c **** #endif
 650:..\..\..\..\..\..\Software\uCOS-III\Source/os_mutex.c **** 
 651:..\..\..\..\..\..\Software\uCOS-III\Source/os_mutex.c **** #if (OS_CFG_ARG_CHK_EN == DEF_ENABLED)
ARM GAS  C:\Users\ADMINI~1\AppData\Local\Temp\ccvQPEdN.s 			page 22


 652:..\..\..\..\..\..\Software\uCOS-III\Source/os_mutex.c ****     if (p_mutex == DEF_NULL) {                                  /* Validate 'p_mutex'              
 653:..\..\..\..\..\..\Software\uCOS-III\Source/os_mutex.c ****        *p_err =  OS_ERR_OBJ_PTR_NULL;
 654:..\..\..\..\..\..\Software\uCOS-III\Source/os_mutex.c ****         return (0u);
 655:..\..\..\..\..\..\Software\uCOS-III\Source/os_mutex.c ****     }
 656:..\..\..\..\..\..\Software\uCOS-III\Source/os_mutex.c ****     switch (opt) {                                              /* Validate 'opt'                  
 657:..\..\..\..\..\..\Software\uCOS-III\Source/os_mutex.c ****         case OS_OPT_PEND_ABORT_1:
 658:..\..\..\..\..\..\Software\uCOS-III\Source/os_mutex.c ****         case OS_OPT_PEND_ABORT_ALL:
 659:..\..\..\..\..\..\Software\uCOS-III\Source/os_mutex.c ****         case OS_OPT_PEND_ABORT_1   | OS_OPT_POST_NO_SCHED:
 660:..\..\..\..\..\..\Software\uCOS-III\Source/os_mutex.c ****         case OS_OPT_PEND_ABORT_ALL | OS_OPT_POST_NO_SCHED:
 661:..\..\..\..\..\..\Software\uCOS-III\Source/os_mutex.c ****              break;
 662:..\..\..\..\..\..\Software\uCOS-III\Source/os_mutex.c **** 
 663:..\..\..\..\..\..\Software\uCOS-III\Source/os_mutex.c ****         default:
 664:..\..\..\..\..\..\Software\uCOS-III\Source/os_mutex.c ****             *p_err =  OS_ERR_OPT_INVALID;
 665:..\..\..\..\..\..\Software\uCOS-III\Source/os_mutex.c ****              return (0u);
 666:..\..\..\..\..\..\Software\uCOS-III\Source/os_mutex.c ****     }
 667:..\..\..\..\..\..\Software\uCOS-III\Source/os_mutex.c **** #endif
 668:..\..\..\..\..\..\Software\uCOS-III\Source/os_mutex.c **** 
 669:..\..\..\..\..\..\Software\uCOS-III\Source/os_mutex.c **** #if (OS_CFG_OBJ_TYPE_CHK_EN == DEF_ENABLED)
 670:..\..\..\..\..\..\Software\uCOS-III\Source/os_mutex.c ****     if (p_mutex->Type != OS_OBJ_TYPE_MUTEX) {                   /* Make sure mutex was created     
 671:..\..\..\..\..\..\Software\uCOS-III\Source/os_mutex.c ****        *p_err =  OS_ERR_OBJ_TYPE;
 672:..\..\..\..\..\..\Software\uCOS-III\Source/os_mutex.c ****         return (0u);
 673:..\..\..\..\..\..\Software\uCOS-III\Source/os_mutex.c ****     }
 674:..\..\..\..\..\..\Software\uCOS-III\Source/os_mutex.c **** #endif
 675:..\..\..\..\..\..\Software\uCOS-III\Source/os_mutex.c **** 
 676:..\..\..\..\..\..\Software\uCOS-III\Source/os_mutex.c ****     CPU_CRITICAL_ENTER();
 677:..\..\..\..\..\..\Software\uCOS-III\Source/os_mutex.c ****     p_pend_list = &p_mutex->PendList;
 678:..\..\..\..\..\..\Software\uCOS-III\Source/os_mutex.c ****     if (p_pend_list->HeadPtr == DEF_NULL) {                     /* Any task waiting on mutex?      
 679:..\..\..\..\..\..\Software\uCOS-III\Source/os_mutex.c ****         CPU_CRITICAL_EXIT();                                    /* No                              
 680:..\..\..\..\..\..\Software\uCOS-III\Source/os_mutex.c ****        *p_err =  OS_ERR_PEND_ABORT_NONE;
 681:..\..\..\..\..\..\Software\uCOS-III\Source/os_mutex.c ****         return (0u);
 682:..\..\..\..\..\..\Software\uCOS-III\Source/os_mutex.c ****     }
 683:..\..\..\..\..\..\Software\uCOS-III\Source/os_mutex.c **** 
 684:..\..\..\..\..\..\Software\uCOS-III\Source/os_mutex.c ****     OS_CRITICAL_ENTER_CPU_EXIT();
 685:..\..\..\..\..\..\Software\uCOS-III\Source/os_mutex.c ****     nbr_tasks = 0u;
 686:..\..\..\..\..\..\Software\uCOS-III\Source/os_mutex.c **** #if (OS_CFG_TS_EN == DEF_ENABLED)
 687:..\..\..\..\..\..\Software\uCOS-III\Source/os_mutex.c ****     ts        = OS_TS_GET();                                    /* Get local time stamp so all task
 688:..\..\..\..\..\..\Software\uCOS-III\Source/os_mutex.c **** #else
 689:..\..\..\..\..\..\Software\uCOS-III\Source/os_mutex.c ****     ts        = 0u;
 690:..\..\..\..\..\..\Software\uCOS-III\Source/os_mutex.c **** #endif
 691:..\..\..\..\..\..\Software\uCOS-III\Source/os_mutex.c ****     while (p_pend_list->HeadPtr != DEF_NULL) {
 692:..\..\..\..\..\..\Software\uCOS-III\Source/os_mutex.c ****         p_tcb = p_pend_list->HeadPtr->TCBPtr;
 693:..\..\..\..\..\..\Software\uCOS-III\Source/os_mutex.c **** 
 694:..\..\..\..\..\..\Software\uCOS-III\Source/os_mutex.c ****         OS_PendAbort((OS_PEND_OBJ *)((void *)p_mutex),
 695:..\..\..\..\..\..\Software\uCOS-III\Source/os_mutex.c ****                      p_tcb,
 696:..\..\..\..\..\..\Software\uCOS-III\Source/os_mutex.c ****                      ts);
 697:..\..\..\..\..\..\Software\uCOS-III\Source/os_mutex.c **** 
 698:..\..\..\..\..\..\Software\uCOS-III\Source/os_mutex.c ****         p_tcb_owner = p_mutex->OwnerTCBPtr;
 699:..\..\..\..\..\..\Software\uCOS-III\Source/os_mutex.c ****         prio_new    = p_tcb_owner->Prio;
 700:..\..\..\..\..\..\Software\uCOS-III\Source/os_mutex.c ****         if ((p_tcb_owner->Prio != p_tcb_owner->BasePrio) &&
 701:..\..\..\..\..\..\Software\uCOS-III\Source/os_mutex.c ****             (p_tcb_owner->Prio == p_tcb->Prio)) {               /* Has the owner inherited a priori
 702:..\..\..\..\..\..\Software\uCOS-III\Source/os_mutex.c ****             prio_new = OS_MutexGrpPrioFindHighest(p_tcb_owner);
 703:..\..\..\..\..\..\Software\uCOS-III\Source/os_mutex.c ****             prio_new = prio_new > p_tcb_owner->BasePrio ? p_tcb_owner->BasePrio : prio_new;
 704:..\..\..\..\..\..\Software\uCOS-III\Source/os_mutex.c ****         }
 705:..\..\..\..\..\..\Software\uCOS-III\Source/os_mutex.c **** 
 706:..\..\..\..\..\..\Software\uCOS-III\Source/os_mutex.c ****         if(prio_new != p_tcb_owner->Prio) {
 707:..\..\..\..\..\..\Software\uCOS-III\Source/os_mutex.c ****             OS_TaskChangePrio(p_tcb_owner, prio_new);
 708:..\..\..\..\..\..\Software\uCOS-III\Source/os_mutex.c **** #if (defined(TRACE_CFG_EN) && (TRACE_CFG_EN == DEF_ENABLED))
ARM GAS  C:\Users\ADMINI~1\AppData\Local\Temp\ccvQPEdN.s 			page 23


 709:..\..\..\..\..\..\Software\uCOS-III\Source/os_mutex.c ****                           TRACE_OS_MUTEX_TASK_PRIO_DISINHERIT(p_tcb_owner, p_tcb_owner->Prio);
 710:..\..\..\..\..\..\Software\uCOS-III\Source/os_mutex.c **** #endif
 711:..\..\..\..\..\..\Software\uCOS-III\Source/os_mutex.c ****         }
 712:..\..\..\..\..\..\Software\uCOS-III\Source/os_mutex.c **** 
 713:..\..\..\..\..\..\Software\uCOS-III\Source/os_mutex.c ****         nbr_tasks++;
 714:..\..\..\..\..\..\Software\uCOS-III\Source/os_mutex.c ****         if (opt != OS_OPT_PEND_ABORT_ALL) {                     /* Pend abort all tasks waiting?   
 715:..\..\..\..\..\..\Software\uCOS-III\Source/os_mutex.c ****             break;                                              /* No                              
 716:..\..\..\..\..\..\Software\uCOS-III\Source/os_mutex.c ****         }
 717:..\..\..\..\..\..\Software\uCOS-III\Source/os_mutex.c ****     }
 718:..\..\..\..\..\..\Software\uCOS-III\Source/os_mutex.c ****     OS_CRITICAL_EXIT_NO_SCHED();
 719:..\..\..\..\..\..\Software\uCOS-III\Source/os_mutex.c **** 
 720:..\..\..\..\..\..\Software\uCOS-III\Source/os_mutex.c ****     if ((opt & OS_OPT_POST_NO_SCHED) == 0u) {
 721:..\..\..\..\..\..\Software\uCOS-III\Source/os_mutex.c ****         OSSched();                                              /* Run the scheduler               
 722:..\..\..\..\..\..\Software\uCOS-III\Source/os_mutex.c ****     }
 723:..\..\..\..\..\..\Software\uCOS-III\Source/os_mutex.c **** 
 724:..\..\..\..\..\..\Software\uCOS-III\Source/os_mutex.c ****    *p_err = OS_ERR_NONE;
 725:..\..\..\..\..\..\Software\uCOS-III\Source/os_mutex.c ****     return (nbr_tasks);
 726:..\..\..\..\..\..\Software\uCOS-III\Source/os_mutex.c **** }
 727:..\..\..\..\..\..\Software\uCOS-III\Source/os_mutex.c **** #endif
 728:..\..\..\..\..\..\Software\uCOS-III\Source/os_mutex.c **** 
 729:..\..\..\..\..\..\Software\uCOS-III\Source/os_mutex.c **** 
 730:..\..\..\..\..\..\Software\uCOS-III\Source/os_mutex.c **** /*
 731:..\..\..\..\..\..\Software\uCOS-III\Source/os_mutex.c **** ***************************************************************************************************
 732:..\..\..\..\..\..\Software\uCOS-III\Source/os_mutex.c **** *                                                   POST TO A MUTEX
 733:..\..\..\..\..\..\Software\uCOS-III\Source/os_mutex.c **** *
 734:..\..\..\..\..\..\Software\uCOS-III\Source/os_mutex.c **** * Description: This function signals a mutex.
 735:..\..\..\..\..\..\Software\uCOS-III\Source/os_mutex.c **** *
 736:..\..\..\..\..\..\Software\uCOS-III\Source/os_mutex.c **** * Arguments  : p_mutex       is a pointer to the mutex
 737:..\..\..\..\..\..\Software\uCOS-III\Source/os_mutex.c **** *
 738:..\..\..\..\..\..\Software\uCOS-III\Source/os_mutex.c **** *              opt           is an option you can specify to alter the behavior of the post.  The c
 739:..\..\..\..\..\..\Software\uCOS-III\Source/os_mutex.c **** *
 740:..\..\..\..\..\..\Software\uCOS-III\Source/os_mutex.c **** *                                OS_OPT_POST_NONE        No special option selected
 741:..\..\..\..\..\..\Software\uCOS-III\Source/os_mutex.c **** *                                OS_OPT_POST_NO_SCHED    If you don't want the scheduler to be call
 742:..\..\..\..\..\..\Software\uCOS-III\Source/os_mutex.c **** *
 743:..\..\..\..\..\..\Software\uCOS-III\Source/os_mutex.c **** *              p_err         is a pointer to a variable that will contain an error code returned by
 744:..\..\..\..\..\..\Software\uCOS-III\Source/os_mutex.c **** *
 745:..\..\..\..\..\..\Software\uCOS-III\Source/os_mutex.c **** *                                OS_ERR_NONE               The call was successful and the mutex wa
 746:..\..\..\..\..\..\Software\uCOS-III\Source/os_mutex.c **** *                                OS_ERR_MUTEX_NESTING      Mutex owner nested its use of the mutex
 747:..\..\..\..\..\..\Software\uCOS-III\Source/os_mutex.c **** *                                OS_ERR_MUTEX_NOT_OWNER    If the task posting is not the Mutex own
 748:..\..\..\..\..\..\Software\uCOS-III\Source/os_mutex.c **** *                                OS_ERR_OBJ_PTR_NULL       If 'p_mutex' is a NULL pointer
 749:..\..\..\..\..\..\Software\uCOS-III\Source/os_mutex.c **** *                                OS_ERR_OBJ_TYPE           If 'p_mutex' is not pointing at a mutex
 750:..\..\..\..\..\..\Software\uCOS-III\Source/os_mutex.c **** *                                OS_ERR_OPT_INVALID        If you specified an invalid option
 751:..\..\..\..\..\..\Software\uCOS-III\Source/os_mutex.c **** *                                OS_ERR_OS_NOT_RUNNING     If uC/OS-III is not running yet
 752:..\..\..\..\..\..\Software\uCOS-III\Source/os_mutex.c **** *                                OS_ERR_POST_ISR           If you attempted to post from an ISR
 753:..\..\..\..\..\..\Software\uCOS-III\Source/os_mutex.c **** *
 754:..\..\..\..\..\..\Software\uCOS-III\Source/os_mutex.c **** * Returns    : none
 755:..\..\..\..\..\..\Software\uCOS-III\Source/os_mutex.c **** *
 756:..\..\..\..\..\..\Software\uCOS-III\Source/os_mutex.c **** * Note(s)    : none
 757:..\..\..\..\..\..\Software\uCOS-III\Source/os_mutex.c **** ***************************************************************************************************
 758:..\..\..\..\..\..\Software\uCOS-III\Source/os_mutex.c **** */
 759:..\..\..\..\..\..\Software\uCOS-III\Source/os_mutex.c **** 
 760:..\..\..\..\..\..\Software\uCOS-III\Source/os_mutex.c **** void  OSMutexPost (OS_MUTEX  *p_mutex,
 761:..\..\..\..\..\..\Software\uCOS-III\Source/os_mutex.c ****                    OS_OPT     opt,
 762:..\..\..\..\..\..\Software\uCOS-III\Source/os_mutex.c ****                    OS_ERR    *p_err)
 763:..\..\..\..\..\..\Software\uCOS-III\Source/os_mutex.c **** {
 546              		.loc 1 763 0
 547              		.cfi_startproc
ARM GAS  C:\Users\ADMINI~1\AppData\Local\Temp\ccvQPEdN.s 			page 24


 548              		@ args = 0, pretend = 0, frame = 40
 549              		@ frame_needed = 1, uses_anonymous_args = 0
 550 0000 90B5     		push	{r4, r7, lr}
 551              		.cfi_def_cfa_offset 12
 552              		.cfi_offset 4, -12
 553              		.cfi_offset 7, -8
 554              		.cfi_offset 14, -4
 555 0002 8DB0     		sub	sp, sp, #52
 556              		.cfi_def_cfa_offset 64
 557 0004 02AF     		add	r7, sp, #8
 558              		.cfi_def_cfa 7, 56
 559 0006 F860     		str	r0, [r7, #12]
 560 0008 7A60     		str	r2, [r7, #4]
 561 000a 0A23     		movs	r3, #10
 562 000c FB18     		adds	r3, r7, r3
 563 000e 0A1C     		adds	r2, r1, #0
 564 0010 1A80     		strh	r2, [r3]
 764:..\..\..\..\..\..\Software\uCOS-III\Source/os_mutex.c ****     OS_PEND_LIST  *p_pend_list;
 765:..\..\..\..\..\..\Software\uCOS-III\Source/os_mutex.c ****     OS_TCB        *p_tcb;
 766:..\..\..\..\..\..\Software\uCOS-III\Source/os_mutex.c ****     CPU_TS         ts;
 767:..\..\..\..\..\..\Software\uCOS-III\Source/os_mutex.c ****     OS_PRIO        prio_new;
 768:..\..\..\..\..\..\Software\uCOS-III\Source/os_mutex.c ****     CPU_SR_ALLOC();
 565              		.loc 1 768 0
 566 0012 0023     		movs	r3, #0
 567 0014 7B62     		str	r3, [r7, #36]
 769:..\..\..\..\..\..\Software\uCOS-III\Source/os_mutex.c **** 
 770:..\..\..\..\..\..\Software\uCOS-III\Source/os_mutex.c **** 
 771:..\..\..\..\..\..\Software\uCOS-III\Source/os_mutex.c **** #ifdef OS_SAFETY_CRITICAL
 772:..\..\..\..\..\..\Software\uCOS-III\Source/os_mutex.c ****     if (p_err == DEF_NULL) {
 773:..\..\..\..\..\..\Software\uCOS-III\Source/os_mutex.c ****         OS_SAFETY_CRITICAL_EXCEPTION();
 774:..\..\..\..\..\..\Software\uCOS-III\Source/os_mutex.c ****         return;
 775:..\..\..\..\..\..\Software\uCOS-III\Source/os_mutex.c ****     }
 776:..\..\..\..\..\..\Software\uCOS-III\Source/os_mutex.c **** #endif
 777:..\..\..\..\..\..\Software\uCOS-III\Source/os_mutex.c **** 
 778:..\..\..\..\..\..\Software\uCOS-III\Source/os_mutex.c **** #if (OS_CFG_CALLED_FROM_ISR_CHK_EN == DEF_ENABLED)
 779:..\..\..\..\..\..\Software\uCOS-III\Source/os_mutex.c ****     if (OSIntNestingCtr > 0u) {                                 /* Not allowed to call from an ISR 
 568              		.loc 1 779 0
 569 0016 724B     		ldr	r3, .L53
 570 0018 1B78     		ldrb	r3, [r3]
 571 001a 002B     		cmp	r3, #0
 572 001c 03D0     		beq	.L40
 780:..\..\..\..\..\..\Software\uCOS-III\Source/os_mutex.c **** #if (defined(TRACE_CFG_EN) && (TRACE_CFG_EN == DEF_ENABLED))
 781:..\..\..\..\..\..\Software\uCOS-III\Source/os_mutex.c ****         TRACE_OS_MUTEX_POST_FAILED(p_mutex);                    /* Record the event.               
 782:..\..\..\..\..\..\Software\uCOS-III\Source/os_mutex.c **** #endif
 783:..\..\..\..\..\..\Software\uCOS-III\Source/os_mutex.c ****        *p_err = OS_ERR_POST_ISR;
 573              		.loc 1 783 0
 574 001e 7B68     		ldr	r3, [r7, #4]
 575 0020 704A     		ldr	r2, .L53+4
 576 0022 1A80     		strh	r2, [r3]
 784:..\..\..\..\..\..\Software\uCOS-III\Source/os_mutex.c ****         return;
 577              		.loc 1 784 0
 578 0024 D9E0     		b	.L39
 579              	.L40:
 785:..\..\..\..\..\..\Software\uCOS-III\Source/os_mutex.c ****     }
 786:..\..\..\..\..\..\Software\uCOS-III\Source/os_mutex.c **** #endif
 787:..\..\..\..\..\..\Software\uCOS-III\Source/os_mutex.c **** 
 788:..\..\..\..\..\..\Software\uCOS-III\Source/os_mutex.c **** #if (OS_CFG_INVALID_OS_CALLS_CHK_EN == DEF_ENABLED)             /* Is the kernel running?          
ARM GAS  C:\Users\ADMINI~1\AppData\Local\Temp\ccvQPEdN.s 			page 25


 789:..\..\..\..\..\..\Software\uCOS-III\Source/os_mutex.c ****     if (OSRunning != OS_STATE_OS_RUNNING) {
 790:..\..\..\..\..\..\Software\uCOS-III\Source/os_mutex.c ****        *p_err = OS_ERR_OS_NOT_RUNNING;
 791:..\..\..\..\..\..\Software\uCOS-III\Source/os_mutex.c ****         return;
 792:..\..\..\..\..\..\Software\uCOS-III\Source/os_mutex.c ****     }
 793:..\..\..\..\..\..\Software\uCOS-III\Source/os_mutex.c **** #endif
 794:..\..\..\..\..\..\Software\uCOS-III\Source/os_mutex.c **** 
 795:..\..\..\..\..\..\Software\uCOS-III\Source/os_mutex.c **** #if (OS_CFG_ARG_CHK_EN == DEF_ENABLED)
 796:..\..\..\..\..\..\Software\uCOS-III\Source/os_mutex.c ****     if (p_mutex == DEF_NULL) {                                  /* Validate 'p_mutex'              
 580              		.loc 1 796 0
 581 0026 FB68     		ldr	r3, [r7, #12]
 582 0028 002B     		cmp	r3, #0
 583 002a 03D1     		bne	.L42
 797:..\..\..\..\..\..\Software\uCOS-III\Source/os_mutex.c **** #if (defined(TRACE_CFG_EN) && (TRACE_CFG_EN == DEF_ENABLED))
 798:..\..\..\..\..\..\Software\uCOS-III\Source/os_mutex.c ****         TRACE_OS_MUTEX_POST_FAILED(p_mutex);                    /* Record the event.               
 799:..\..\..\..\..\..\Software\uCOS-III\Source/os_mutex.c **** #endif
 800:..\..\..\..\..\..\Software\uCOS-III\Source/os_mutex.c ****        *p_err = OS_ERR_OBJ_PTR_NULL;
 584              		.loc 1 800 0
 585 002c 7B68     		ldr	r3, [r7, #4]
 586 002e 6E4A     		ldr	r2, .L53+8
 587 0030 1A80     		strh	r2, [r3]
 801:..\..\..\..\..\..\Software\uCOS-III\Source/os_mutex.c ****         return;
 588              		.loc 1 801 0
 589 0032 D2E0     		b	.L39
 590              	.L42:
 802:..\..\..\..\..\..\Software\uCOS-III\Source/os_mutex.c ****     }
 803:..\..\..\..\..\..\Software\uCOS-III\Source/os_mutex.c ****     switch (opt) {                                              /* Validate 'opt'                  
 591              		.loc 1 803 0
 592 0034 0A23     		movs	r3, #10
 593 0036 FB18     		adds	r3, r7, r3
 594 0038 1B88     		ldrh	r3, [r3]
 595 003a 002B     		cmp	r3, #0
 596 003c 07D0     		beq	.L52
 597 003e 8022     		movs	r2, #128
 598 0040 1202     		lsls	r2, r2, #8
 599 0042 9342     		cmp	r3, r2
 600 0044 03D0     		beq	.L52
 804:..\..\..\..\..\..\Software\uCOS-III\Source/os_mutex.c ****         case OS_OPT_POST_NONE:
 805:..\..\..\..\..\..\Software\uCOS-III\Source/os_mutex.c ****         case OS_OPT_POST_NO_SCHED:
 806:..\..\..\..\..\..\Software\uCOS-III\Source/os_mutex.c ****              break;
 807:..\..\..\..\..\..\Software\uCOS-III\Source/os_mutex.c **** 
 808:..\..\..\..\..\..\Software\uCOS-III\Source/os_mutex.c ****         default:
 809:..\..\..\..\..\..\Software\uCOS-III\Source/os_mutex.c **** #if (defined(TRACE_CFG_EN) && (TRACE_CFG_EN == DEF_ENABLED))
 810:..\..\..\..\..\..\Software\uCOS-III\Source/os_mutex.c ****              TRACE_OS_MUTEX_POST_FAILED(p_mutex);               /* Record the event.               
 811:..\..\..\..\..\..\Software\uCOS-III\Source/os_mutex.c **** #endif
 812:..\..\..\..\..\..\Software\uCOS-III\Source/os_mutex.c ****             *p_err =  OS_ERR_OPT_INVALID;
 601              		.loc 1 812 0
 602 0046 7B68     		ldr	r3, [r7, #4]
 603 0048 684A     		ldr	r2, .L53+12
 604 004a 1A80     		strh	r2, [r3]
 813:..\..\..\..\..\..\Software\uCOS-III\Source/os_mutex.c ****              return;
 605              		.loc 1 813 0
 606 004c C5E0     		b	.L39
 607              	.L52:
 806:..\..\..\..\..\..\Software\uCOS-III\Source/os_mutex.c **** 
 608              		.loc 1 806 0
 609 004e C046     		nop
 814:..\..\..\..\..\..\Software\uCOS-III\Source/os_mutex.c ****     }
ARM GAS  C:\Users\ADMINI~1\AppData\Local\Temp\ccvQPEdN.s 			page 26


 815:..\..\..\..\..\..\Software\uCOS-III\Source/os_mutex.c **** #endif
 816:..\..\..\..\..\..\Software\uCOS-III\Source/os_mutex.c **** 
 817:..\..\..\..\..\..\Software\uCOS-III\Source/os_mutex.c **** #if (OS_CFG_OBJ_TYPE_CHK_EN == DEF_ENABLED)
 818:..\..\..\..\..\..\Software\uCOS-III\Source/os_mutex.c ****     if (p_mutex->Type != OS_OBJ_TYPE_MUTEX) {                   /* Make sure mutex was created     
 819:..\..\..\..\..\..\Software\uCOS-III\Source/os_mutex.c **** #if (defined(TRACE_CFG_EN) && (TRACE_CFG_EN == DEF_ENABLED))
 820:..\..\..\..\..\..\Software\uCOS-III\Source/os_mutex.c ****         TRACE_OS_MUTEX_POST_FAILED(p_mutex);                    /* Record the event.               
 821:..\..\..\..\..\..\Software\uCOS-III\Source/os_mutex.c **** #endif
 822:..\..\..\..\..\..\Software\uCOS-III\Source/os_mutex.c ****        *p_err = OS_ERR_OBJ_TYPE;
 823:..\..\..\..\..\..\Software\uCOS-III\Source/os_mutex.c ****         return;
 824:..\..\..\..\..\..\Software\uCOS-III\Source/os_mutex.c ****     }
 825:..\..\..\..\..\..\Software\uCOS-III\Source/os_mutex.c **** #endif
 826:..\..\..\..\..\..\Software\uCOS-III\Source/os_mutex.c **** 
 827:..\..\..\..\..\..\Software\uCOS-III\Source/os_mutex.c ****     CPU_CRITICAL_ENTER();
 610              		.loc 1 827 0
 611 0050 FFF7FEFF 		bl	CPU_SR_Save
 612 0054 0300     		movs	r3, r0
 613 0056 7B62     		str	r3, [r7, #36]
 614 0058 FFF7FEFF 		bl	CPU_IntDisMeasStart
 828:..\..\..\..\..\..\Software\uCOS-III\Source/os_mutex.c ****     if (OSTCBCurPtr != p_mutex->OwnerTCBPtr) {                  /* Make sure the mutex owner is rel
 615              		.loc 1 828 0
 616 005c FB68     		ldr	r3, [r7, #12]
 617 005e 5A6A     		ldr	r2, [r3, #36]
 618 0060 634B     		ldr	r3, .L53+16
 619 0062 1B68     		ldr	r3, [r3]
 620 0064 9A42     		cmp	r2, r3
 621 0066 09D0     		beq	.L46
 829:..\..\..\..\..\..\Software\uCOS-III\Source/os_mutex.c ****         CPU_CRITICAL_EXIT();
 622              		.loc 1 829 0
 623 0068 FFF7FEFF 		bl	CPU_IntDisMeasStop
 624 006c 7B6A     		ldr	r3, [r7, #36]
 625 006e 1800     		movs	r0, r3
 626 0070 FFF7FEFF 		bl	CPU_SR_Restore
 830:..\..\..\..\..\..\Software\uCOS-III\Source/os_mutex.c **** #if (defined(TRACE_CFG_EN) && (TRACE_CFG_EN == DEF_ENABLED))
 831:..\..\..\..\..\..\Software\uCOS-III\Source/os_mutex.c ****         TRACE_OS_MUTEX_POST_FAILED(p_mutex);                    /* Record the event.               
 832:..\..\..\..\..\..\Software\uCOS-III\Source/os_mutex.c **** #endif
 833:..\..\..\..\..\..\Software\uCOS-III\Source/os_mutex.c ****        *p_err = OS_ERR_MUTEX_NOT_OWNER;
 627              		.loc 1 833 0
 628 0074 7B68     		ldr	r3, [r7, #4]
 629 0076 5F4A     		ldr	r2, .L53+20
 630 0078 1A80     		strh	r2, [r3]
 834:..\..\..\..\..\..\Software\uCOS-III\Source/os_mutex.c ****         return;
 631              		.loc 1 834 0
 632 007a AEE0     		b	.L39
 633              	.L46:
 835:..\..\..\..\..\..\Software\uCOS-III\Source/os_mutex.c ****     }
 836:..\..\..\..\..\..\Software\uCOS-III\Source/os_mutex.c **** 
 837:..\..\..\..\..\..\Software\uCOS-III\Source/os_mutex.c **** #if (defined(TRACE_CFG_EN) && (TRACE_CFG_EN == DEF_ENABLED))
 838:..\..\..\..\..\..\Software\uCOS-III\Source/os_mutex.c ****     TRACE_OS_MUTEX_POST(p_mutex);                               /* Record the event.               
 839:..\..\..\..\..\..\Software\uCOS-III\Source/os_mutex.c **** #endif
 840:..\..\..\..\..\..\Software\uCOS-III\Source/os_mutex.c **** 
 841:..\..\..\..\..\..\Software\uCOS-III\Source/os_mutex.c ****     OS_CRITICAL_ENTER_CPU_EXIT();
 842:..\..\..\..\..\..\Software\uCOS-III\Source/os_mutex.c **** #if (OS_CFG_TS_EN == DEF_ENABLED)
 843:..\..\..\..\..\..\Software\uCOS-III\Source/os_mutex.c ****     ts          = OS_TS_GET();                                  /* Get timestamp                   
 634              		.loc 1 843 0
 635 007c FFF7FEFF 		bl	CPU_TS_TmrRd
 636 0080 0300     		movs	r3, r0
 637 0082 3B62     		str	r3, [r7, #32]
ARM GAS  C:\Users\ADMINI~1\AppData\Local\Temp\ccvQPEdN.s 			page 27


 844:..\..\..\..\..\..\Software\uCOS-III\Source/os_mutex.c ****     p_mutex->TS = ts;
 638              		.loc 1 844 0
 639 0084 FB68     		ldr	r3, [r7, #12]
 640 0086 3A6A     		ldr	r2, [r7, #32]
 641 0088 DA62     		str	r2, [r3, #44]
 845:..\..\..\..\..\..\Software\uCOS-III\Source/os_mutex.c **** #else
 846:..\..\..\..\..\..\Software\uCOS-III\Source/os_mutex.c ****     ts          = 0u;
 847:..\..\..\..\..\..\Software\uCOS-III\Source/os_mutex.c **** #endif
 848:..\..\..\..\..\..\Software\uCOS-III\Source/os_mutex.c ****     p_mutex->OwnerNestingCtr--;                                 /* Decrement owner's nesting counte
 642              		.loc 1 848 0
 643 008a FB68     		ldr	r3, [r7, #12]
 644 008c 2822     		movs	r2, #40
 645 008e 9B5C     		ldrb	r3, [r3, r2]
 646 0090 013B     		subs	r3, r3, #1
 647 0092 D9B2     		uxtb	r1, r3
 648 0094 FB68     		ldr	r3, [r7, #12]
 649 0096 2822     		movs	r2, #40
 650 0098 9954     		strb	r1, [r3, r2]
 849:..\..\..\..\..\..\Software\uCOS-III\Source/os_mutex.c ****     if (p_mutex->OwnerNestingCtr > 0u) {                        /* Are we done with all nestings?  
 651              		.loc 1 849 0
 652 009a FB68     		ldr	r3, [r7, #12]
 653 009c 2822     		movs	r2, #40
 654 009e 9B5C     		ldrb	r3, [r3, r2]
 655 00a0 002B     		cmp	r3, #0
 656 00a2 09D0     		beq	.L47
 850:..\..\..\..\..\..\Software\uCOS-III\Source/os_mutex.c ****         OS_CRITICAL_EXIT();                                     /* No                              
 657              		.loc 1 850 0
 658 00a4 FFF7FEFF 		bl	CPU_IntDisMeasStop
 659 00a8 7B6A     		ldr	r3, [r7, #36]
 660 00aa 1800     		movs	r0, r3
 661 00ac FFF7FEFF 		bl	CPU_SR_Restore
 851:..\..\..\..\..\..\Software\uCOS-III\Source/os_mutex.c ****        *p_err = OS_ERR_MUTEX_NESTING;
 662              		.loc 1 851 0
 663 00b0 7B68     		ldr	r3, [r7, #4]
 664 00b2 514A     		ldr	r2, .L53+24
 665 00b4 1A80     		strh	r2, [r3]
 852:..\..\..\..\..\..\Software\uCOS-III\Source/os_mutex.c ****         return;
 666              		.loc 1 852 0
 667 00b6 90E0     		b	.L39
 668              	.L47:
 853:..\..\..\..\..\..\Software\uCOS-III\Source/os_mutex.c ****     }
 854:..\..\..\..\..\..\Software\uCOS-III\Source/os_mutex.c **** 
 855:..\..\..\..\..\..\Software\uCOS-III\Source/os_mutex.c ****     OS_MutexGrpRemove(OSTCBCurPtr, p_mutex);                    /* Remove mutex from owner's group 
 669              		.loc 1 855 0
 670 00b8 4D4B     		ldr	r3, .L53+16
 671 00ba 1B68     		ldr	r3, [r3]
 672 00bc FA68     		ldr	r2, [r7, #12]
 673 00be 1100     		movs	r1, r2
 674 00c0 1800     		movs	r0, r3
 675 00c2 FFF7FEFF 		bl	OS_MutexGrpRemove
 856:..\..\..\..\..\..\Software\uCOS-III\Source/os_mutex.c **** 
 857:..\..\..\..\..\..\Software\uCOS-III\Source/os_mutex.c ****     p_pend_list = &p_mutex->PendList;
 676              		.loc 1 857 0
 677 00c6 FB68     		ldr	r3, [r7, #12]
 678 00c8 0833     		adds	r3, r3, #8
 679 00ca FB61     		str	r3, [r7, #28]
 858:..\..\..\..\..\..\Software\uCOS-III\Source/os_mutex.c ****     if (p_pend_list->HeadPtr == DEF_NULL) {                      /* Any task waiting on mutex?     
ARM GAS  C:\Users\ADMINI~1\AppData\Local\Temp\ccvQPEdN.s 			page 28


 680              		.loc 1 858 0
 681 00cc FB69     		ldr	r3, [r7, #28]
 682 00ce 1B68     		ldr	r3, [r3]
 683 00d0 002B     		cmp	r3, #0
 684 00d2 10D1     		bne	.L48
 859:..\..\..\..\..\..\Software\uCOS-III\Source/os_mutex.c ****         p_mutex->OwnerTCBPtr     = DEF_NULL;                    /* No                              
 685              		.loc 1 859 0
 686 00d4 FB68     		ldr	r3, [r7, #12]
 687 00d6 0022     		movs	r2, #0
 688 00d8 5A62     		str	r2, [r3, #36]
 860:..\..\..\..\..\..\Software\uCOS-III\Source/os_mutex.c ****         p_mutex->OwnerNestingCtr = 0u;
 689              		.loc 1 860 0
 690 00da FB68     		ldr	r3, [r7, #12]
 691 00dc 2822     		movs	r2, #40
 692 00de 0021     		movs	r1, #0
 693 00e0 9954     		strb	r1, [r3, r2]
 861:..\..\..\..\..\..\Software\uCOS-III\Source/os_mutex.c ****         OS_CRITICAL_EXIT();
 694              		.loc 1 861 0
 695 00e2 FFF7FEFF 		bl	CPU_IntDisMeasStop
 696 00e6 7B6A     		ldr	r3, [r7, #36]
 697 00e8 1800     		movs	r0, r3
 698 00ea FFF7FEFF 		bl	CPU_SR_Restore
 862:..\..\..\..\..\..\Software\uCOS-III\Source/os_mutex.c ****        *p_err = OS_ERR_NONE;
 699              		.loc 1 862 0
 700 00ee 7B68     		ldr	r3, [r7, #4]
 701 00f0 0022     		movs	r2, #0
 702 00f2 1A80     		strh	r2, [r3]
 863:..\..\..\..\..\..\Software\uCOS-III\Source/os_mutex.c ****         return;
 703              		.loc 1 863 0
 704 00f4 71E0     		b	.L39
 705              	.L48:
 864:..\..\..\..\..\..\Software\uCOS-III\Source/os_mutex.c ****     }
 865:..\..\..\..\..\..\Software\uCOS-III\Source/os_mutex.c ****                                                                 /* Yes                             
 866:..\..\..\..\..\..\Software\uCOS-III\Source/os_mutex.c ****     if (OSTCBCurPtr->Prio != OSTCBCurPtr->BasePrio) {           /* Has owner inherited a priority? 
 706              		.loc 1 866 0
 707 00f6 3E4B     		ldr	r3, .L53+16
 708 00f8 1B68     		ldr	r3, [r3]
 709 00fa 3722     		movs	r2, #55
 710 00fc 9A5C     		ldrb	r2, [r3, r2]
 711 00fe 3C4B     		ldr	r3, .L53+16
 712 0100 1B68     		ldr	r3, [r3]
 713 0102 3821     		movs	r1, #56
 714 0104 5B5C     		ldrb	r3, [r3, r1]
 715 0106 9A42     		cmp	r2, r3
 716 0108 3DD0     		beq	.L49
 867:..\..\..\..\..\..\Software\uCOS-III\Source/os_mutex.c ****         prio_new = OS_MutexGrpPrioFindHighest(OSTCBCurPtr);     /* Yes, find highest priority pendi
 717              		.loc 1 867 0
 718 010a 394B     		ldr	r3, .L53+16
 719 010c 1B68     		ldr	r3, [r3]
 720 010e 1B22     		movs	r2, #27
 721 0110 BC18     		adds	r4, r7, r2
 722 0112 1800     		movs	r0, r3
 723 0114 FFF7FEFF 		bl	OS_MutexGrpPrioFindHighest
 724 0118 0300     		movs	r3, r0
 725 011a 2370     		strb	r3, [r4]
 868:..\..\..\..\..\..\Software\uCOS-III\Source/os_mutex.c ****         prio_new = prio_new > OSTCBCurPtr->BasePrio ? OSTCBCurPtr->BasePrio : prio_new;
 726              		.loc 1 868 0
ARM GAS  C:\Users\ADMINI~1\AppData\Local\Temp\ccvQPEdN.s 			page 29


 727 011c 344B     		ldr	r3, .L53+16
 728 011e 1B68     		ldr	r3, [r3]
 729 0120 3822     		movs	r2, #56
 730 0122 995C     		ldrb	r1, [r3, r2]
 731 0124 1B23     		movs	r3, #27
 732 0126 FA18     		adds	r2, r7, r3
 733 0128 1B23     		movs	r3, #27
 734 012a FB18     		adds	r3, r7, r3
 735 012c 1C78     		ldrb	r4, [r3]
 736 012e 0B1C     		adds	r3, r1, #0
 737 0130 D8B2     		uxtb	r0, r3
 738 0132 E1B2     		uxtb	r1, r4
 739 0134 8842     		cmp	r0, r1
 740 0136 00D9     		bls	.L50
 741 0138 231C     		adds	r3, r4, #0
 742              	.L50:
 743 013a 1370     		strb	r3, [r2]
 869:..\..\..\..\..\..\Software\uCOS-III\Source/os_mutex.c ****         if (prio_new > OSTCBCurPtr->Prio) {
 744              		.loc 1 869 0
 745 013c 2C4B     		ldr	r3, .L53+16
 746 013e 1B68     		ldr	r3, [r3]
 747 0140 3722     		movs	r2, #55
 748 0142 9B5C     		ldrb	r3, [r3, r2]
 749 0144 1B22     		movs	r2, #27
 750 0146 BA18     		adds	r2, r7, r2
 751 0148 1278     		ldrb	r2, [r2]
 752 014a 9A42     		cmp	r2, r3
 753 014c 1BD9     		bls	.L49
 870:..\..\..\..\..\..\Software\uCOS-III\Source/os_mutex.c ****             OS_RdyListRemove(OSTCBCurPtr);
 754              		.loc 1 870 0
 755 014e 284B     		ldr	r3, .L53+16
 756 0150 1B68     		ldr	r3, [r3]
 757 0152 1800     		movs	r0, r3
 758 0154 FFF7FEFF 		bl	OS_RdyListRemove
 871:..\..\..\..\..\..\Software\uCOS-III\Source/os_mutex.c ****             OSTCBCurPtr->Prio = prio_new;                       /* Lower owner's priority back to i
 759              		.loc 1 871 0
 760 0158 254B     		ldr	r3, .L53+16
 761 015a 1B68     		ldr	r3, [r3]
 762 015c 1B22     		movs	r2, #27
 763 015e BA18     		adds	r2, r7, r2
 764 0160 3721     		movs	r1, #55
 765 0162 1278     		ldrb	r2, [r2]
 766 0164 5A54     		strb	r2, [r3, r1]
 872:..\..\..\..\..\..\Software\uCOS-III\Source/os_mutex.c **** #if (defined(TRACE_CFG_EN) && (TRACE_CFG_EN == DEF_ENABLED))
 873:..\..\..\..\..\..\Software\uCOS-III\Source/os_mutex.c ****             TRACE_OS_MUTEX_TASK_PRIO_DISINHERIT(OSTCBCurPtr, prio_new);
 874:..\..\..\..\..\..\Software\uCOS-III\Source/os_mutex.c **** #endif
 875:..\..\..\..\..\..\Software\uCOS-III\Source/os_mutex.c ****             OS_PrioInsert(prio_new);
 767              		.loc 1 875 0
 768 0166 1B23     		movs	r3, #27
 769 0168 FB18     		adds	r3, r7, r3
 770 016a 1B78     		ldrb	r3, [r3]
 771 016c 1800     		movs	r0, r3
 772 016e FFF7FEFF 		bl	OS_PrioInsert
 876:..\..\..\..\..\..\Software\uCOS-III\Source/os_mutex.c ****             OS_RdyListInsertTail(OSTCBCurPtr);                  /* Insert owner in ready list at ne
 773              		.loc 1 876 0
 774 0172 1F4B     		ldr	r3, .L53+16
 775 0174 1B68     		ldr	r3, [r3]
ARM GAS  C:\Users\ADMINI~1\AppData\Local\Temp\ccvQPEdN.s 			page 30


 776 0176 1800     		movs	r0, r3
 777 0178 FFF7FEFF 		bl	OS_RdyListInsertTail
 877:..\..\..\..\..\..\Software\uCOS-III\Source/os_mutex.c ****             OSPrioCur         = prio_new;
 778              		.loc 1 877 0
 779 017c 1F4B     		ldr	r3, .L53+28
 780 017e 1B22     		movs	r2, #27
 781 0180 BA18     		adds	r2, r7, r2
 782 0182 1278     		ldrb	r2, [r2]
 783 0184 1A70     		strb	r2, [r3]
 784              	.L49:
 878:..\..\..\..\..\..\Software\uCOS-III\Source/os_mutex.c ****         }
 879:..\..\..\..\..\..\Software\uCOS-III\Source/os_mutex.c ****     }
 880:..\..\..\..\..\..\Software\uCOS-III\Source/os_mutex.c ****                                                                 /* Get TCB from head of pend list  
 881:..\..\..\..\..\..\Software\uCOS-III\Source/os_mutex.c ****     p_tcb                      = p_pend_list->HeadPtr->TCBPtr;
 785              		.loc 1 881 0
 786 0186 FB69     		ldr	r3, [r7, #28]
 787 0188 1B68     		ldr	r3, [r3]
 788 018a 9B68     		ldr	r3, [r3, #8]
 789 018c 7B61     		str	r3, [r7, #20]
 882:..\..\..\..\..\..\Software\uCOS-III\Source/os_mutex.c ****     p_mutex->OwnerTCBPtr       = p_tcb;                         /* Give mutex to new owner         
 790              		.loc 1 882 0
 791 018e FB68     		ldr	r3, [r7, #12]
 792 0190 7A69     		ldr	r2, [r7, #20]
 793 0192 5A62     		str	r2, [r3, #36]
 883:..\..\..\..\..\..\Software\uCOS-III\Source/os_mutex.c ****     p_mutex->OwnerNestingCtr   = 1u;
 794              		.loc 1 883 0
 795 0194 FB68     		ldr	r3, [r7, #12]
 796 0196 2822     		movs	r2, #40
 797 0198 0121     		movs	r1, #1
 798 019a 9954     		strb	r1, [r3, r2]
 884:..\..\..\..\..\..\Software\uCOS-III\Source/os_mutex.c ****     OS_MutexGrpAdd(p_tcb, p_mutex);
 799              		.loc 1 884 0
 800 019c FA68     		ldr	r2, [r7, #12]
 801 019e 7B69     		ldr	r3, [r7, #20]
 802 01a0 1100     		movs	r1, r2
 803 01a2 1800     		movs	r0, r3
 804 01a4 FFF7FEFF 		bl	OS_MutexGrpAdd
 885:..\..\..\..\..\..\Software\uCOS-III\Source/os_mutex.c ****                                                                 /* Post to mutex                   
 886:..\..\..\..\..\..\Software\uCOS-III\Source/os_mutex.c ****     OS_Post((OS_PEND_OBJ *)((void *)p_mutex),
 805              		.loc 1 886 0
 806 01a8 7969     		ldr	r1, [r7, #20]
 807 01aa F868     		ldr	r0, [r7, #12]
 808 01ac 3B6A     		ldr	r3, [r7, #32]
 809 01ae 0093     		str	r3, [sp]
 810 01b0 0023     		movs	r3, #0
 811 01b2 0022     		movs	r2, #0
 812 01b4 FFF7FEFF 		bl	OS_Post
 887:..\..\..\..\..\..\Software\uCOS-III\Source/os_mutex.c ****             p_tcb,
 888:..\..\..\..\..\..\Software\uCOS-III\Source/os_mutex.c ****             DEF_NULL,
 889:..\..\..\..\..\..\Software\uCOS-III\Source/os_mutex.c ****             0u,
 890:..\..\..\..\..\..\Software\uCOS-III\Source/os_mutex.c ****             ts);
 891:..\..\..\..\..\..\Software\uCOS-III\Source/os_mutex.c **** 
 892:..\..\..\..\..\..\Software\uCOS-III\Source/os_mutex.c ****     OS_CRITICAL_EXIT_NO_SCHED();
 813              		.loc 1 892 0
 814 01b8 FFF7FEFF 		bl	CPU_IntDisMeasStop
 815 01bc 7B6A     		ldr	r3, [r7, #36]
 816 01be 1800     		movs	r0, r3
ARM GAS  C:\Users\ADMINI~1\AppData\Local\Temp\ccvQPEdN.s 			page 31


 817 01c0 FFF7FEFF 		bl	CPU_SR_Restore
 893:..\..\..\..\..\..\Software\uCOS-III\Source/os_mutex.c **** 
 894:..\..\..\..\..\..\Software\uCOS-III\Source/os_mutex.c ****     if ((opt & OS_OPT_POST_NO_SCHED) == 0u) {
 818              		.loc 1 894 0
 819 01c4 0A23     		movs	r3, #10
 820 01c6 FB18     		adds	r3, r7, r3
 821 01c8 0022     		movs	r2, #0
 822 01ca 9B5E     		ldrsh	r3, [r3, r2]
 823 01cc 002B     		cmp	r3, #0
 824 01ce 01DB     		blt	.L51
 895:..\..\..\..\..\..\Software\uCOS-III\Source/os_mutex.c ****         OSSched();                                              /* Run the scheduler               
 825              		.loc 1 895 0
 826 01d0 FFF7FEFF 		bl	OSSched
 827              	.L51:
 896:..\..\..\..\..\..\Software\uCOS-III\Source/os_mutex.c ****     }
 897:..\..\..\..\..\..\Software\uCOS-III\Source/os_mutex.c **** 
 898:..\..\..\..\..\..\Software\uCOS-III\Source/os_mutex.c ****    *p_err = OS_ERR_NONE;
 828              		.loc 1 898 0
 829 01d4 7B68     		ldr	r3, [r7, #4]
 830 01d6 0022     		movs	r2, #0
 831 01d8 1A80     		strh	r2, [r3]
 832              	.L39:
 899:..\..\..\..\..\..\Software\uCOS-III\Source/os_mutex.c **** }
 833              		.loc 1 899 0
 834 01da BD46     		mov	sp, r7
 835 01dc 0BB0     		add	sp, sp, #44
 836              		@ sp needed
 837 01de 90BD     		pop	{r4, r7, pc}
 838              	.L54:
 839              		.align	2
 840              	.L53:
 841 01e0 00000000 		.word	OSIntNestingCtr
 842 01e4 0E620000 		.word	25102
 843 01e8 C35D0000 		.word	24003
 844 01ec 255E0000 		.word	24101
 845 01f0 00000000 		.word	OSTCBCurPtr
 846 01f4 81570000 		.word	22401
 847 01f8 83570000 		.word	22403
 848 01fc 00000000 		.word	OSPrioCur
 849              		.cfi_endproc
 850              	.LFE2:
 851              		.size	OSMutexPost, .-OSMutexPost
 852              		.section	.rodata
 853              		.align	2
 854              	.LC8:
 855 0000 3F4D5554 		.ascii	"?MUTEX\000"
 855      455800
 856              		.section	.text.OS_MutexClr,"ax",%progbits
 857              		.align	2
 858              		.global	OS_MutexClr
 859              		.code	16
 860              		.thumb_func
 861              		.type	OS_MutexClr, %function
 862              	OS_MutexClr:
 863              	.LFB3:
 900:..\..\..\..\..\..\Software\uCOS-III\Source/os_mutex.c **** 
 901:..\..\..\..\..\..\Software\uCOS-III\Source/os_mutex.c **** 
ARM GAS  C:\Users\ADMINI~1\AppData\Local\Temp\ccvQPEdN.s 			page 32


 902:..\..\..\..\..\..\Software\uCOS-III\Source/os_mutex.c **** /*
 903:..\..\..\..\..\..\Software\uCOS-III\Source/os_mutex.c **** ***************************************************************************************************
 904:..\..\..\..\..\..\Software\uCOS-III\Source/os_mutex.c **** *                                            CLEAR THE CONTENTS OF A MUTEX
 905:..\..\..\..\..\..\Software\uCOS-III\Source/os_mutex.c **** *
 906:..\..\..\..\..\..\Software\uCOS-III\Source/os_mutex.c **** * Description: This function is called by OSMutexDel() to clear the contents of a mutex
 907:..\..\..\..\..\..\Software\uCOS-III\Source/os_mutex.c **** *
 908:..\..\..\..\..\..\Software\uCOS-III\Source/os_mutex.c **** 
 909:..\..\..\..\..\..\Software\uCOS-III\Source/os_mutex.c **** * Argument(s): p_mutex      is a pointer to the mutex to clear
 910:..\..\..\..\..\..\Software\uCOS-III\Source/os_mutex.c **** *              -------
 911:..\..\..\..\..\..\Software\uCOS-III\Source/os_mutex.c **** *
 912:..\..\..\..\..\..\Software\uCOS-III\Source/os_mutex.c **** * Returns    : none
 913:..\..\..\..\..\..\Software\uCOS-III\Source/os_mutex.c **** *
 914:..\..\..\..\..\..\Software\uCOS-III\Source/os_mutex.c **** * Note(s)    : This function is INTERNAL to uC/OS-III and your application should not call it.
 915:..\..\..\..\..\..\Software\uCOS-III\Source/os_mutex.c **** ***************************************************************************************************
 916:..\..\..\..\..\..\Software\uCOS-III\Source/os_mutex.c **** */
 917:..\..\..\..\..\..\Software\uCOS-III\Source/os_mutex.c **** 
 918:..\..\..\..\..\..\Software\uCOS-III\Source/os_mutex.c **** void  OS_MutexClr (OS_MUTEX  *p_mutex)
 919:..\..\..\..\..\..\Software\uCOS-III\Source/os_mutex.c **** {
 864              		.loc 1 919 0
 865              		.cfi_startproc
 866              		@ args = 0, pretend = 0, frame = 8
 867              		@ frame_needed = 1, uses_anonymous_args = 0
 868 0000 80B5     		push	{r7, lr}
 869              		.cfi_def_cfa_offset 8
 870              		.cfi_offset 7, -8
 871              		.cfi_offset 14, -4
 872 0002 82B0     		sub	sp, sp, #8
 873              		.cfi_def_cfa_offset 16
 874 0004 00AF     		add	r7, sp, #0
 875              		.cfi_def_cfa_register 7
 876 0006 7860     		str	r0, [r7, #4]
 920:..\..\..\..\..\..\Software\uCOS-III\Source/os_mutex.c **** #if (OS_OBJ_TYPE_REQ == DEF_ENABLED)
 921:..\..\..\..\..\..\Software\uCOS-III\Source/os_mutex.c ****     p_mutex->Type              =  OS_OBJ_TYPE_NONE;             /* Mark the data structure as a NON
 877              		.loc 1 921 0
 878 0008 7B68     		ldr	r3, [r7, #4]
 879 000a 0D4A     		ldr	r2, .L56
 880 000c 1A60     		str	r2, [r3]
 922:..\..\..\..\..\..\Software\uCOS-III\Source/os_mutex.c **** #endif
 923:..\..\..\..\..\..\Software\uCOS-III\Source/os_mutex.c **** #if (OS_CFG_DBG_EN == DEF_ENABLED)
 924:..\..\..\..\..\..\Software\uCOS-III\Source/os_mutex.c ****     p_mutex->NamePtr           = (CPU_CHAR *)((void *)"?MUTEX");
 881              		.loc 1 924 0
 882 000e 7B68     		ldr	r3, [r7, #4]
 883 0010 0C4A     		ldr	r2, .L56+4
 884 0012 5A60     		str	r2, [r3, #4]
 925:..\..\..\..\..\..\Software\uCOS-III\Source/os_mutex.c **** #endif
 926:..\..\..\..\..\..\Software\uCOS-III\Source/os_mutex.c ****     p_mutex->MutexGrpNextPtr   = DEF_NULL;
 885              		.loc 1 926 0
 886 0014 7B68     		ldr	r3, [r7, #4]
 887 0016 0022     		movs	r2, #0
 888 0018 1A62     		str	r2, [r3, #32]
 927:..\..\..\..\..\..\Software\uCOS-III\Source/os_mutex.c ****     p_mutex->OwnerTCBPtr       = DEF_NULL;
 889              		.loc 1 927 0
 890 001a 7B68     		ldr	r3, [r7, #4]
 891 001c 0022     		movs	r2, #0
 892 001e 5A62     		str	r2, [r3, #36]
 928:..\..\..\..\..\..\Software\uCOS-III\Source/os_mutex.c ****     p_mutex->OwnerNestingCtr   = 0u;
 893              		.loc 1 928 0
ARM GAS  C:\Users\ADMINI~1\AppData\Local\Temp\ccvQPEdN.s 			page 33


 894 0020 7B68     		ldr	r3, [r7, #4]
 895 0022 2822     		movs	r2, #40
 896 0024 0021     		movs	r1, #0
 897 0026 9954     		strb	r1, [r3, r2]
 929:..\..\..\..\..\..\Software\uCOS-III\Source/os_mutex.c **** #if (OS_CFG_TS_EN == DEF_ENABLED)
 930:..\..\..\..\..\..\Software\uCOS-III\Source/os_mutex.c ****     p_mutex->TS                = 0u;
 898              		.loc 1 930 0
 899 0028 7B68     		ldr	r3, [r7, #4]
 900 002a 0022     		movs	r2, #0
 901 002c DA62     		str	r2, [r3, #44]
 931:..\..\..\..\..\..\Software\uCOS-III\Source/os_mutex.c **** #endif
 932:..\..\..\..\..\..\Software\uCOS-III\Source/os_mutex.c ****     OS_PendListInit(&p_mutex->PendList);                        /* Initialize the waiting list     
 902              		.loc 1 932 0
 903 002e 7B68     		ldr	r3, [r7, #4]
 904 0030 0833     		adds	r3, r3, #8
 905 0032 1800     		movs	r0, r3
 906 0034 FFF7FEFF 		bl	OS_PendListInit
 933:..\..\..\..\..\..\Software\uCOS-III\Source/os_mutex.c **** }
 907              		.loc 1 933 0
 908 0038 C046     		nop
 909 003a BD46     		mov	sp, r7
 910 003c 02B0     		add	sp, sp, #8
 911              		@ sp needed
 912 003e 80BD     		pop	{r7, pc}
 913              	.L57:
 914              		.align	2
 915              	.L56:
 916 0040 4E4F4E45 		.word	1162760014
 917 0044 00000000 		.word	.LC8
 918              		.cfi_endproc
 919              	.LFE3:
 920              		.size	OS_MutexClr, .-OS_MutexClr
 921              		.section	.rodata
 922 0007 00       		.align	2
 923              	.LC10:
 924 0008 2000     		.ascii	" \000"
 925              		.section	.text.OS_MutexDbgListAdd,"ax",%progbits
 926              		.align	2
 927              		.global	OS_MutexDbgListAdd
 928              		.code	16
 929              		.thumb_func
 930              		.type	OS_MutexDbgListAdd, %function
 931              	OS_MutexDbgListAdd:
 932              	.LFB4:
 934:..\..\..\..\..\..\Software\uCOS-III\Source/os_mutex.c **** 
 935:..\..\..\..\..\..\Software\uCOS-III\Source/os_mutex.c **** 
 936:..\..\..\..\..\..\Software\uCOS-III\Source/os_mutex.c **** /*
 937:..\..\..\..\..\..\Software\uCOS-III\Source/os_mutex.c **** ***************************************************************************************************
 938:..\..\..\..\..\..\Software\uCOS-III\Source/os_mutex.c **** *                                          ADD/REMOVE MUTEX TO/FROM DEBUG LIST
 939:..\..\..\..\..\..\Software\uCOS-III\Source/os_mutex.c **** *
 940:..\..\..\..\..\..\Software\uCOS-III\Source/os_mutex.c **** * Description: These functions are called by uC/OS-III to add or remove a mutex to/from the debug l
 941:..\..\..\..\..\..\Software\uCOS-III\Source/os_mutex.c **** *
 942:..\..\..\..\..\..\Software\uCOS-III\Source/os_mutex.c **** * Arguments  : p_mutex     is a pointer to the mutex to add/remove
 943:..\..\..\..\..\..\Software\uCOS-III\Source/os_mutex.c **** *
 944:..\..\..\..\..\..\Software\uCOS-III\Source/os_mutex.c **** * Returns    : none
 945:..\..\..\..\..\..\Software\uCOS-III\Source/os_mutex.c **** *
 946:..\..\..\..\..\..\Software\uCOS-III\Source/os_mutex.c **** * Note(s)    : These functions are INTERNAL to uC/OS-III and your application should not call it.
ARM GAS  C:\Users\ADMINI~1\AppData\Local\Temp\ccvQPEdN.s 			page 34


 947:..\..\..\..\..\..\Software\uCOS-III\Source/os_mutex.c **** ***************************************************************************************************
 948:..\..\..\..\..\..\Software\uCOS-III\Source/os_mutex.c **** */
 949:..\..\..\..\..\..\Software\uCOS-III\Source/os_mutex.c **** 
 950:..\..\..\..\..\..\Software\uCOS-III\Source/os_mutex.c **** 
 951:..\..\..\..\..\..\Software\uCOS-III\Source/os_mutex.c **** #if (OS_CFG_DBG_EN == DEF_ENABLED)
 952:..\..\..\..\..\..\Software\uCOS-III\Source/os_mutex.c **** void  OS_MutexDbgListAdd (OS_MUTEX  *p_mutex)
 953:..\..\..\..\..\..\Software\uCOS-III\Source/os_mutex.c **** {
 933              		.loc 1 953 0
 934              		.cfi_startproc
 935              		@ args = 0, pretend = 0, frame = 8
 936              		@ frame_needed = 1, uses_anonymous_args = 0
 937 0000 80B5     		push	{r7, lr}
 938              		.cfi_def_cfa_offset 8
 939              		.cfi_offset 7, -8
 940              		.cfi_offset 14, -4
 941 0002 82B0     		sub	sp, sp, #8
 942              		.cfi_def_cfa_offset 16
 943 0004 00AF     		add	r7, sp, #0
 944              		.cfi_def_cfa_register 7
 945 0006 7860     		str	r0, [r7, #4]
 954:..\..\..\..\..\..\Software\uCOS-III\Source/os_mutex.c ****     p_mutex->DbgNamePtr               = (CPU_CHAR *)((void *)" ");
 946              		.loc 1 954 0
 947 0008 7B68     		ldr	r3, [r7, #4]
 948 000a 0E4A     		ldr	r2, .L61
 949 000c DA61     		str	r2, [r3, #28]
 955:..\..\..\..\..\..\Software\uCOS-III\Source/os_mutex.c ****     p_mutex->DbgPrevPtr               = DEF_NULL;
 950              		.loc 1 955 0
 951 000e 7B68     		ldr	r3, [r7, #4]
 952 0010 0022     		movs	r2, #0
 953 0012 5A61     		str	r2, [r3, #20]
 956:..\..\..\..\..\..\Software\uCOS-III\Source/os_mutex.c ****     if (OSMutexDbgListPtr == DEF_NULL) {
 954              		.loc 1 956 0
 955 0014 0C4B     		ldr	r3, .L61+4
 956 0016 1B68     		ldr	r3, [r3]
 957 0018 002B     		cmp	r3, #0
 958 001a 03D1     		bne	.L59
 957:..\..\..\..\..\..\Software\uCOS-III\Source/os_mutex.c ****         p_mutex->DbgNextPtr           = DEF_NULL;
 959              		.loc 1 957 0
 960 001c 7B68     		ldr	r3, [r7, #4]
 961 001e 0022     		movs	r2, #0
 962 0020 9A61     		str	r2, [r3, #24]
 963 0022 07E0     		b	.L60
 964              	.L59:
 958:..\..\..\..\..\..\Software\uCOS-III\Source/os_mutex.c ****     } else {
 959:..\..\..\..\..\..\Software\uCOS-III\Source/os_mutex.c ****         p_mutex->DbgNextPtr           =  OSMutexDbgListPtr;
 965              		.loc 1 959 0
 966 0024 084B     		ldr	r3, .L61+4
 967 0026 1A68     		ldr	r2, [r3]
 968 0028 7B68     		ldr	r3, [r7, #4]
 969 002a 9A61     		str	r2, [r3, #24]
 960:..\..\..\..\..\..\Software\uCOS-III\Source/os_mutex.c ****         OSMutexDbgListPtr->DbgPrevPtr =  p_mutex;
 970              		.loc 1 960 0
 971 002c 064B     		ldr	r3, .L61+4
 972 002e 1B68     		ldr	r3, [r3]
 973 0030 7A68     		ldr	r2, [r7, #4]
 974 0032 5A61     		str	r2, [r3, #20]
 975              	.L60:
ARM GAS  C:\Users\ADMINI~1\AppData\Local\Temp\ccvQPEdN.s 			page 35


 961:..\..\..\..\..\..\Software\uCOS-III\Source/os_mutex.c ****     }
 962:..\..\..\..\..\..\Software\uCOS-III\Source/os_mutex.c ****     OSMutexDbgListPtr                 =  p_mutex;
 976              		.loc 1 962 0
 977 0034 044B     		ldr	r3, .L61+4
 978 0036 7A68     		ldr	r2, [r7, #4]
 979 0038 1A60     		str	r2, [r3]
 963:..\..\..\..\..\..\Software\uCOS-III\Source/os_mutex.c **** }
 980              		.loc 1 963 0
 981 003a C046     		nop
 982 003c BD46     		mov	sp, r7
 983 003e 02B0     		add	sp, sp, #8
 984              		@ sp needed
 985 0040 80BD     		pop	{r7, pc}
 986              	.L62:
 987 0042 C046     		.align	2
 988              	.L61:
 989 0044 08000000 		.word	.LC10
 990 0048 00000000 		.word	OSMutexDbgListPtr
 991              		.cfi_endproc
 992              	.LFE4:
 993              		.size	OS_MutexDbgListAdd, .-OS_MutexDbgListAdd
 994              		.section	.text.OS_MutexDbgListRemove,"ax",%progbits
 995              		.align	2
 996              		.global	OS_MutexDbgListRemove
 997              		.code	16
 998              		.thumb_func
 999              		.type	OS_MutexDbgListRemove, %function
 1000              	OS_MutexDbgListRemove:
 1001              	.LFB5:
 964:..\..\..\..\..\..\Software\uCOS-III\Source/os_mutex.c **** 
 965:..\..\..\..\..\..\Software\uCOS-III\Source/os_mutex.c **** 
 966:..\..\..\..\..\..\Software\uCOS-III\Source/os_mutex.c **** 
 967:..\..\..\..\..\..\Software\uCOS-III\Source/os_mutex.c **** void  OS_MutexDbgListRemove (OS_MUTEX  *p_mutex)
 968:..\..\..\..\..\..\Software\uCOS-III\Source/os_mutex.c **** {
 1002              		.loc 1 968 0
 1003              		.cfi_startproc
 1004              		@ args = 0, pretend = 0, frame = 16
 1005              		@ frame_needed = 1, uses_anonymous_args = 0
 1006 0000 80B5     		push	{r7, lr}
 1007              		.cfi_def_cfa_offset 8
 1008              		.cfi_offset 7, -8
 1009              		.cfi_offset 14, -4
 1010 0002 84B0     		sub	sp, sp, #16
 1011              		.cfi_def_cfa_offset 24
 1012 0004 00AF     		add	r7, sp, #0
 1013              		.cfi_def_cfa_register 7
 1014 0006 7860     		str	r0, [r7, #4]
 969:..\..\..\..\..\..\Software\uCOS-III\Source/os_mutex.c ****     OS_MUTEX  *p_mutex_next;
 970:..\..\..\..\..\..\Software\uCOS-III\Source/os_mutex.c ****     OS_MUTEX  *p_mutex_prev;
 971:..\..\..\..\..\..\Software\uCOS-III\Source/os_mutex.c **** 
 972:..\..\..\..\..\..\Software\uCOS-III\Source/os_mutex.c **** 
 973:..\..\..\..\..\..\Software\uCOS-III\Source/os_mutex.c ****     p_mutex_prev = p_mutex->DbgPrevPtr;
 1015              		.loc 1 973 0
 1016 0008 7B68     		ldr	r3, [r7, #4]
 1017 000a 5B69     		ldr	r3, [r3, #20]
 1018 000c FB60     		str	r3, [r7, #12]
 974:..\..\..\..\..\..\Software\uCOS-III\Source/os_mutex.c ****     p_mutex_next = p_mutex->DbgNextPtr;
ARM GAS  C:\Users\ADMINI~1\AppData\Local\Temp\ccvQPEdN.s 			page 36


 1019              		.loc 1 974 0
 1020 000e 7B68     		ldr	r3, [r7, #4]
 1021 0010 9B69     		ldr	r3, [r3, #24]
 1022 0012 BB60     		str	r3, [r7, #8]
 975:..\..\..\..\..\..\Software\uCOS-III\Source/os_mutex.c **** 
 976:..\..\..\..\..\..\Software\uCOS-III\Source/os_mutex.c ****     if (p_mutex_prev == DEF_NULL) {
 1023              		.loc 1 976 0
 1024 0014 FB68     		ldr	r3, [r7, #12]
 1025 0016 002B     		cmp	r3, #0
 1026 0018 0CD1     		bne	.L64
 977:..\..\..\..\..\..\Software\uCOS-III\Source/os_mutex.c ****         OSMutexDbgListPtr = p_mutex_next;
 1027              		.loc 1 977 0
 1028 001a 134B     		ldr	r3, .L69
 1029 001c BA68     		ldr	r2, [r7, #8]
 1030 001e 1A60     		str	r2, [r3]
 978:..\..\..\..\..\..\Software\uCOS-III\Source/os_mutex.c ****         if (p_mutex_next != DEF_NULL) {
 1031              		.loc 1 978 0
 1032 0020 BB68     		ldr	r3, [r7, #8]
 1033 0022 002B     		cmp	r3, #0
 1034 0024 02D0     		beq	.L65
 979:..\..\..\..\..\..\Software\uCOS-III\Source/os_mutex.c ****             p_mutex_next->DbgPrevPtr = DEF_NULL;
 1035              		.loc 1 979 0
 1036 0026 BB68     		ldr	r3, [r7, #8]
 1037 0028 0022     		movs	r2, #0
 1038 002a 5A61     		str	r2, [r3, #20]
 1039              	.L65:
 980:..\..\..\..\..\..\Software\uCOS-III\Source/os_mutex.c ****         }
 981:..\..\..\..\..\..\Software\uCOS-III\Source/os_mutex.c ****         p_mutex->DbgNextPtr = DEF_NULL;
 1040              		.loc 1 981 0
 1041 002c 7B68     		ldr	r3, [r7, #4]
 1042 002e 0022     		movs	r2, #0
 1043 0030 9A61     		str	r2, [r3, #24]
 982:..\..\..\..\..\..\Software\uCOS-III\Source/os_mutex.c **** 
 983:..\..\..\..\..\..\Software\uCOS-III\Source/os_mutex.c ****     } else if (p_mutex_next == DEF_NULL) {
 984:..\..\..\..\..\..\Software\uCOS-III\Source/os_mutex.c ****         p_mutex_prev->DbgNextPtr = DEF_NULL;
 985:..\..\..\..\..\..\Software\uCOS-III\Source/os_mutex.c ****         p_mutex->DbgPrevPtr      = DEF_NULL;
 986:..\..\..\..\..\..\Software\uCOS-III\Source/os_mutex.c **** 
 987:..\..\..\..\..\..\Software\uCOS-III\Source/os_mutex.c ****     } else {
 988:..\..\..\..\..\..\Software\uCOS-III\Source/os_mutex.c ****         p_mutex_prev->DbgNextPtr =  p_mutex_next;
 989:..\..\..\..\..\..\Software\uCOS-III\Source/os_mutex.c ****         p_mutex_next->DbgPrevPtr =  p_mutex_prev;
 990:..\..\..\..\..\..\Software\uCOS-III\Source/os_mutex.c ****         p_mutex->DbgNextPtr      = DEF_NULL;
 991:..\..\..\..\..\..\Software\uCOS-III\Source/os_mutex.c ****         p_mutex->DbgPrevPtr      = DEF_NULL;
 992:..\..\..\..\..\..\Software\uCOS-III\Source/os_mutex.c ****     }
 993:..\..\..\..\..\..\Software\uCOS-III\Source/os_mutex.c **** }
 1044              		.loc 1 993 0
 1045 0032 15E0     		b	.L68
 1046              	.L64:
 983:..\..\..\..\..\..\Software\uCOS-III\Source/os_mutex.c ****         p_mutex_prev->DbgNextPtr = DEF_NULL;
 1047              		.loc 1 983 0
 1048 0034 BB68     		ldr	r3, [r7, #8]
 1049 0036 002B     		cmp	r3, #0
 1050 0038 06D1     		bne	.L67
 984:..\..\..\..\..\..\Software\uCOS-III\Source/os_mutex.c ****         p_mutex->DbgPrevPtr      = DEF_NULL;
 1051              		.loc 1 984 0
 1052 003a FB68     		ldr	r3, [r7, #12]
 1053 003c 0022     		movs	r2, #0
 1054 003e 9A61     		str	r2, [r3, #24]
ARM GAS  C:\Users\ADMINI~1\AppData\Local\Temp\ccvQPEdN.s 			page 37


 985:..\..\..\..\..\..\Software\uCOS-III\Source/os_mutex.c **** 
 1055              		.loc 1 985 0
 1056 0040 7B68     		ldr	r3, [r7, #4]
 1057 0042 0022     		movs	r2, #0
 1058 0044 5A61     		str	r2, [r3, #20]
 1059              		.loc 1 993 0
 1060 0046 0BE0     		b	.L68
 1061              	.L67:
 988:..\..\..\..\..\..\Software\uCOS-III\Source/os_mutex.c ****         p_mutex_next->DbgPrevPtr =  p_mutex_prev;
 1062              		.loc 1 988 0
 1063 0048 FB68     		ldr	r3, [r7, #12]
 1064 004a BA68     		ldr	r2, [r7, #8]
 1065 004c 9A61     		str	r2, [r3, #24]
 989:..\..\..\..\..\..\Software\uCOS-III\Source/os_mutex.c ****         p_mutex->DbgNextPtr      = DEF_NULL;
 1066              		.loc 1 989 0
 1067 004e BB68     		ldr	r3, [r7, #8]
 1068 0050 FA68     		ldr	r2, [r7, #12]
 1069 0052 5A61     		str	r2, [r3, #20]
 990:..\..\..\..\..\..\Software\uCOS-III\Source/os_mutex.c ****         p_mutex->DbgPrevPtr      = DEF_NULL;
 1070              		.loc 1 990 0
 1071 0054 7B68     		ldr	r3, [r7, #4]
 1072 0056 0022     		movs	r2, #0
 1073 0058 9A61     		str	r2, [r3, #24]
 991:..\..\..\..\..\..\Software\uCOS-III\Source/os_mutex.c ****     }
 1074              		.loc 1 991 0
 1075 005a 7B68     		ldr	r3, [r7, #4]
 1076 005c 0022     		movs	r2, #0
 1077 005e 5A61     		str	r2, [r3, #20]
 1078              	.L68:
 1079              		.loc 1 993 0
 1080 0060 C046     		nop
 1081 0062 BD46     		mov	sp, r7
 1082 0064 04B0     		add	sp, sp, #16
 1083              		@ sp needed
 1084 0066 80BD     		pop	{r7, pc}
 1085              	.L70:
 1086              		.align	2
 1087              	.L69:
 1088 0068 00000000 		.word	OSMutexDbgListPtr
 1089              		.cfi_endproc
 1090              	.LFE5:
 1091              		.size	OS_MutexDbgListRemove, .-OS_MutexDbgListRemove
 1092              		.section	.text.OS_MutexGrpAdd,"ax",%progbits
 1093              		.align	2
 1094              		.global	OS_MutexGrpAdd
 1095              		.code	16
 1096              		.thumb_func
 1097              		.type	OS_MutexGrpAdd, %function
 1098              	OS_MutexGrpAdd:
 1099              	.LFB6:
 994:..\..\..\..\..\..\Software\uCOS-III\Source/os_mutex.c **** #endif
 995:..\..\..\..\..\..\Software\uCOS-III\Source/os_mutex.c **** 
 996:..\..\..\..\..\..\Software\uCOS-III\Source/os_mutex.c **** 
 997:..\..\..\..\..\..\Software\uCOS-III\Source/os_mutex.c **** /*
 998:..\..\..\..\..\..\Software\uCOS-III\Source/os_mutex.c **** ***************************************************************************************************
 999:..\..\..\..\..\..\Software\uCOS-III\Source/os_mutex.c **** *                                               MUTEX GROUP ADD
1000:..\..\..\..\..\..\Software\uCOS-III\Source/os_mutex.c **** *
ARM GAS  C:\Users\ADMINI~1\AppData\Local\Temp\ccvQPEdN.s 			page 38


1001:..\..\..\..\..\..\Software\uCOS-III\Source/os_mutex.c **** * Description: This function is called by the kernel to add a mutex to a task's mutex group.
1002:..\..\..\..\..\..\Software\uCOS-III\Source/os_mutex.c **** *
1003:..\..\..\..\..\..\Software\uCOS-III\Source/os_mutex.c **** 
1004:..\..\..\..\..\..\Software\uCOS-III\Source/os_mutex.c **** * Argument(s): p_tcb        is a pointer to the tcb of the task to give the mutex to.
1005:..\..\..\..\..\..\Software\uCOS-III\Source/os_mutex.c **** *
1006:..\..\..\..\..\..\Software\uCOS-III\Source/os_mutex.c **** *              p_mutex      is a point to the mutex to add to the group.
1007:..\..\..\..\..\..\Software\uCOS-III\Source/os_mutex.c **** *
1008:..\..\..\..\..\..\Software\uCOS-III\Source/os_mutex.c **** *
1009:..\..\..\..\..\..\Software\uCOS-III\Source/os_mutex.c **** * Returns    : none
1010:..\..\..\..\..\..\Software\uCOS-III\Source/os_mutex.c **** *
1011:..\..\..\..\..\..\Software\uCOS-III\Source/os_mutex.c **** * Note(s)    : 1) This function is INTERNAL to uC/OS-III and your application MUST NOT call it.
1012:..\..\..\..\..\..\Software\uCOS-III\Source/os_mutex.c **** ***************************************************************************************************
1013:..\..\..\..\..\..\Software\uCOS-III\Source/os_mutex.c **** */
1014:..\..\..\..\..\..\Software\uCOS-III\Source/os_mutex.c **** 
1015:..\..\..\..\..\..\Software\uCOS-III\Source/os_mutex.c **** void  OS_MutexGrpAdd (OS_TCB  *p_tcb, OS_MUTEX  *p_mutex)
1016:..\..\..\..\..\..\Software\uCOS-III\Source/os_mutex.c **** {
 1100              		.loc 1 1016 0
 1101              		.cfi_startproc
 1102              		@ args = 0, pretend = 0, frame = 8
 1103              		@ frame_needed = 1, uses_anonymous_args = 0
 1104 0000 80B5     		push	{r7, lr}
 1105              		.cfi_def_cfa_offset 8
 1106              		.cfi_offset 7, -8
 1107              		.cfi_offset 14, -4
 1108 0002 82B0     		sub	sp, sp, #8
 1109              		.cfi_def_cfa_offset 16
 1110 0004 00AF     		add	r7, sp, #0
 1111              		.cfi_def_cfa_register 7
 1112 0006 7860     		str	r0, [r7, #4]
 1113 0008 3960     		str	r1, [r7]
1017:..\..\..\..\..\..\Software\uCOS-III\Source/os_mutex.c ****     p_mutex->MutexGrpNextPtr = p_tcb->MutexGrpHeadPtr;      /* The mutex grp is not sorted add to h
 1114              		.loc 1 1017 0
 1115 000a 7B68     		ldr	r3, [r7, #4]
 1116 000c DA6B     		ldr	r2, [r3, #60]
 1117 000e 3B68     		ldr	r3, [r7]
 1118 0010 1A62     		str	r2, [r3, #32]
1018:..\..\..\..\..\..\Software\uCOS-III\Source/os_mutex.c ****     p_tcb->MutexGrpHeadPtr   = p_mutex;
 1119              		.loc 1 1018 0
 1120 0012 7B68     		ldr	r3, [r7, #4]
 1121 0014 3A68     		ldr	r2, [r7]
 1122 0016 DA63     		str	r2, [r3, #60]
1019:..\..\..\..\..\..\Software\uCOS-III\Source/os_mutex.c **** }
 1123              		.loc 1 1019 0
 1124 0018 C046     		nop
 1125 001a BD46     		mov	sp, r7
 1126 001c 02B0     		add	sp, sp, #8
 1127              		@ sp needed
 1128 001e 80BD     		pop	{r7, pc}
 1129              		.cfi_endproc
 1130              	.LFE6:
 1131              		.size	OS_MutexGrpAdd, .-OS_MutexGrpAdd
 1132              		.section	.text.OS_MutexGrpRemove,"ax",%progbits
 1133              		.align	2
 1134              		.global	OS_MutexGrpRemove
 1135              		.code	16
 1136              		.thumb_func
 1137              		.type	OS_MutexGrpRemove, %function
ARM GAS  C:\Users\ADMINI~1\AppData\Local\Temp\ccvQPEdN.s 			page 39


 1138              	OS_MutexGrpRemove:
 1139              	.LFB7:
1020:..\..\..\..\..\..\Software\uCOS-III\Source/os_mutex.c **** 
1021:..\..\..\..\..\..\Software\uCOS-III\Source/os_mutex.c **** 
1022:..\..\..\..\..\..\Software\uCOS-III\Source/os_mutex.c **** /*
1023:..\..\..\..\..\..\Software\uCOS-III\Source/os_mutex.c **** ***************************************************************************************************
1024:..\..\..\..\..\..\Software\uCOS-III\Source/os_mutex.c **** *                                              MUTEX GROUP REMOVE
1025:..\..\..\..\..\..\Software\uCOS-III\Source/os_mutex.c **** *
1026:..\..\..\..\..\..\Software\uCOS-III\Source/os_mutex.c **** * Description: This function is called by the kernel to remove a mutex to a task's mutex group.
1027:..\..\..\..\..\..\Software\uCOS-III\Source/os_mutex.c **** *
1028:..\..\..\..\..\..\Software\uCOS-III\Source/os_mutex.c **** 
1029:..\..\..\..\..\..\Software\uCOS-III\Source/os_mutex.c **** * Argument(s): p_tcb        is a pointer to the tcb of the task to remove the mutex from.
1030:..\..\..\..\..\..\Software\uCOS-III\Source/os_mutex.c **** *
1031:..\..\..\..\..\..\Software\uCOS-III\Source/os_mutex.c **** *              p_mutex      is a point to the mutex to remove from the group.
1032:..\..\..\..\..\..\Software\uCOS-III\Source/os_mutex.c **** *
1033:..\..\..\..\..\..\Software\uCOS-III\Source/os_mutex.c **** *
1034:..\..\..\..\..\..\Software\uCOS-III\Source/os_mutex.c **** * Returns    : none
1035:..\..\..\..\..\..\Software\uCOS-III\Source/os_mutex.c **** *
1036:..\..\..\..\..\..\Software\uCOS-III\Source/os_mutex.c **** * Note(s)    : 1) This function is INTERNAL to uC/OS-III and your application MUST NOT call it.
1037:..\..\..\..\..\..\Software\uCOS-III\Source/os_mutex.c **** ***************************************************************************************************
1038:..\..\..\..\..\..\Software\uCOS-III\Source/os_mutex.c **** */
1039:..\..\..\..\..\..\Software\uCOS-III\Source/os_mutex.c **** 
1040:..\..\..\..\..\..\Software\uCOS-III\Source/os_mutex.c **** void  OS_MutexGrpRemove (OS_TCB  *p_tcb, OS_MUTEX  *p_mutex)
1041:..\..\..\..\..\..\Software\uCOS-III\Source/os_mutex.c **** {
 1140              		.loc 1 1041 0
 1141              		.cfi_startproc
 1142              		@ args = 0, pretend = 0, frame = 16
 1143              		@ frame_needed = 1, uses_anonymous_args = 0
 1144 0000 80B5     		push	{r7, lr}
 1145              		.cfi_def_cfa_offset 8
 1146              		.cfi_offset 7, -8
 1147              		.cfi_offset 14, -4
 1148 0002 84B0     		sub	sp, sp, #16
 1149              		.cfi_def_cfa_offset 24
 1150 0004 00AF     		add	r7, sp, #0
 1151              		.cfi_def_cfa_register 7
 1152 0006 7860     		str	r0, [r7, #4]
 1153 0008 3960     		str	r1, [r7]
1042:..\..\..\..\..\..\Software\uCOS-III\Source/os_mutex.c ****     OS_MUTEX  **pp_mutex;
1043:..\..\..\..\..\..\Software\uCOS-III\Source/os_mutex.c **** 
1044:..\..\..\..\..\..\Software\uCOS-III\Source/os_mutex.c ****     pp_mutex = &p_tcb->MutexGrpHeadPtr;
 1154              		.loc 1 1044 0
 1155 000a 7B68     		ldr	r3, [r7, #4]
 1156 000c 3C33     		adds	r3, r3, #60
 1157 000e FB60     		str	r3, [r7, #12]
1045:..\..\..\..\..\..\Software\uCOS-III\Source/os_mutex.c **** 
1046:..\..\..\..\..\..\Software\uCOS-III\Source/os_mutex.c ****     while(*pp_mutex != p_mutex) {
 1158              		.loc 1 1046 0
 1159 0010 03E0     		b	.L73
 1160              	.L74:
1047:..\..\..\..\..\..\Software\uCOS-III\Source/os_mutex.c ****         pp_mutex = &(*pp_mutex)->MutexGrpNextPtr;
 1161              		.loc 1 1047 0
 1162 0012 FB68     		ldr	r3, [r7, #12]
 1163 0014 1B68     		ldr	r3, [r3]
 1164 0016 2033     		adds	r3, r3, #32
 1165 0018 FB60     		str	r3, [r7, #12]
 1166              	.L73:
ARM GAS  C:\Users\ADMINI~1\AppData\Local\Temp\ccvQPEdN.s 			page 40


1046:..\..\..\..\..\..\Software\uCOS-III\Source/os_mutex.c ****         pp_mutex = &(*pp_mutex)->MutexGrpNextPtr;
 1167              		.loc 1 1046 0
 1168 001a FB68     		ldr	r3, [r7, #12]
 1169 001c 1A68     		ldr	r2, [r3]
 1170 001e 3B68     		ldr	r3, [r7]
 1171 0020 9A42     		cmp	r2, r3
 1172 0022 F6D1     		bne	.L74
1048:..\..\..\..\..\..\Software\uCOS-III\Source/os_mutex.c ****     }
1049:..\..\..\..\..\..\Software\uCOS-III\Source/os_mutex.c **** 
1050:..\..\..\..\..\..\Software\uCOS-III\Source/os_mutex.c ****     *pp_mutex = (*pp_mutex)->MutexGrpNextPtr;
 1173              		.loc 1 1050 0
 1174 0024 FB68     		ldr	r3, [r7, #12]
 1175 0026 1B68     		ldr	r3, [r3]
 1176 0028 1A6A     		ldr	r2, [r3, #32]
 1177 002a FB68     		ldr	r3, [r7, #12]
 1178 002c 1A60     		str	r2, [r3]
1051:..\..\..\..\..\..\Software\uCOS-III\Source/os_mutex.c **** }
 1179              		.loc 1 1051 0
 1180 002e C046     		nop
 1181 0030 BD46     		mov	sp, r7
 1182 0032 04B0     		add	sp, sp, #16
 1183              		@ sp needed
 1184 0034 80BD     		pop	{r7, pc}
 1185              		.cfi_endproc
 1186              	.LFE7:
 1187              		.size	OS_MutexGrpRemove, .-OS_MutexGrpRemove
 1188 0036 C046     		.section	.text.OS_MutexGrpPrioFindHighest,"ax",%progbits
 1189              		.align	2
 1190              		.global	OS_MutexGrpPrioFindHighest
 1191              		.code	16
 1192              		.thumb_func
 1193              		.type	OS_MutexGrpPrioFindHighest, %function
 1194              	OS_MutexGrpPrioFindHighest:
 1195              	.LFB8:
1052:..\..\..\..\..\..\Software\uCOS-III\Source/os_mutex.c **** 
1053:..\..\..\..\..\..\Software\uCOS-III\Source/os_mutex.c **** 
1054:..\..\..\..\..\..\Software\uCOS-III\Source/os_mutex.c **** /*
1055:..\..\..\..\..\..\Software\uCOS-III\Source/os_mutex.c **** ***************************************************************************************************
1056:..\..\..\..\..\..\Software\uCOS-III\Source/os_mutex.c **** *                                              MUTEX FIND HIGHEST PENDING
1057:..\..\..\..\..\..\Software\uCOS-III\Source/os_mutex.c **** *
1058:..\..\..\..\..\..\Software\uCOS-III\Source/os_mutex.c **** * Description: This function is called by the kernel to find the highest task pending on any mutex 
1059:..\..\..\..\..\..\Software\uCOS-III\Source/os_mutex.c **** *
1060:..\..\..\..\..\..\Software\uCOS-III\Source/os_mutex.c **** 
1061:..\..\..\..\..\..\Software\uCOS-III\Source/os_mutex.c **** * Argument(s): p_tcb        is a pointer to the tcb of the task to process.
1062:..\..\..\..\..\..\Software\uCOS-III\Source/os_mutex.c **** *
1063:..\..\..\..\..\..\Software\uCOS-III\Source/os_mutex.c **** *
1064:..\..\..\..\..\..\Software\uCOS-III\Source/os_mutex.c **** * Returns    : Highest priority pending or OS_CFG_PRIO_MAX - 1u if none found.
1065:..\..\..\..\..\..\Software\uCOS-III\Source/os_mutex.c **** *
1066:..\..\..\..\..\..\Software\uCOS-III\Source/os_mutex.c **** * Note(s)    : 1) This function is INTERNAL to uC/OS-III and your application MUST NOT call it.
1067:..\..\..\..\..\..\Software\uCOS-III\Source/os_mutex.c **** ***************************************************************************************************
1068:..\..\..\..\..\..\Software\uCOS-III\Source/os_mutex.c **** */
1069:..\..\..\..\..\..\Software\uCOS-III\Source/os_mutex.c **** 
1070:..\..\..\..\..\..\Software\uCOS-III\Source/os_mutex.c **** OS_PRIO  OS_MutexGrpPrioFindHighest (OS_TCB  *p_tcb)
1071:..\..\..\..\..\..\Software\uCOS-III\Source/os_mutex.c **** {
 1196              		.loc 1 1071 0
 1197              		.cfi_startproc
 1198              		@ args = 0, pretend = 0, frame = 24
ARM GAS  C:\Users\ADMINI~1\AppData\Local\Temp\ccvQPEdN.s 			page 41


 1199              		@ frame_needed = 1, uses_anonymous_args = 0
 1200 0000 80B5     		push	{r7, lr}
 1201              		.cfi_def_cfa_offset 8
 1202              		.cfi_offset 7, -8
 1203              		.cfi_offset 14, -4
 1204 0002 86B0     		sub	sp, sp, #24
 1205              		.cfi_def_cfa_offset 32
 1206 0004 00AF     		add	r7, sp, #0
 1207              		.cfi_def_cfa_register 7
 1208 0006 7860     		str	r0, [r7, #4]
1072:..\..\..\..\..\..\Software\uCOS-III\Source/os_mutex.c ****     OS_MUTEX     **pp_mutex;
1073:..\..\..\..\..\..\Software\uCOS-III\Source/os_mutex.c ****     OS_PRIO        highest_prio;
1074:..\..\..\..\..\..\Software\uCOS-III\Source/os_mutex.c ****     OS_PRIO        prio;
1075:..\..\..\..\..\..\Software\uCOS-III\Source/os_mutex.c ****     OS_PEND_DATA  *p_head;
1076:..\..\..\..\..\..\Software\uCOS-III\Source/os_mutex.c **** 
1077:..\..\..\..\..\..\Software\uCOS-III\Source/os_mutex.c **** 
1078:..\..\..\..\..\..\Software\uCOS-III\Source/os_mutex.c ****     highest_prio = OS_CFG_PRIO_MAX - 1u;
 1209              		.loc 1 1078 0
 1210 0008 1323     		movs	r3, #19
 1211 000a FB18     		adds	r3, r7, r3
 1212 000c 1F22     		movs	r2, #31
 1213 000e 1A70     		strb	r2, [r3]
1079:..\..\..\..\..\..\Software\uCOS-III\Source/os_mutex.c ****     pp_mutex = &p_tcb->MutexGrpHeadPtr;
 1214              		.loc 1 1079 0
 1215 0010 7B68     		ldr	r3, [r7, #4]
 1216 0012 3C33     		adds	r3, r3, #60
 1217 0014 7B61     		str	r3, [r7, #20]
1080:..\..\..\..\..\..\Software\uCOS-III\Source/os_mutex.c **** 
1081:..\..\..\..\..\..\Software\uCOS-III\Source/os_mutex.c ****     while(*pp_mutex != DEF_NULL) {
 1218              		.loc 1 1081 0
 1219 0016 1FE0     		b	.L76
 1220              	.L78:
1082:..\..\..\..\..\..\Software\uCOS-III\Source/os_mutex.c ****         p_head = (*pp_mutex)->PendList.HeadPtr;
 1221              		.loc 1 1082 0
 1222 0018 7B69     		ldr	r3, [r7, #20]
 1223 001a 1B68     		ldr	r3, [r3]
 1224 001c 9B68     		ldr	r3, [r3, #8]
 1225 001e FB60     		str	r3, [r7, #12]
1083:..\..\..\..\..\..\Software\uCOS-III\Source/os_mutex.c ****         if (p_head!= DEF_NULL) {
 1226              		.loc 1 1083 0
 1227 0020 FB68     		ldr	r3, [r7, #12]
 1228 0022 002B     		cmp	r3, #0
 1229 0024 14D0     		beq	.L77
1084:..\..\..\..\..\..\Software\uCOS-III\Source/os_mutex.c ****             prio = p_head->TCBPtr->Prio;
 1230              		.loc 1 1084 0
 1231 0026 FB68     		ldr	r3, [r7, #12]
 1232 0028 9A68     		ldr	r2, [r3, #8]
 1233 002a 0B23     		movs	r3, #11
 1234 002c FB18     		adds	r3, r7, r3
 1235 002e 3721     		movs	r1, #55
 1236 0030 525C     		ldrb	r2, [r2, r1]
 1237 0032 1A70     		strb	r2, [r3]
1085:..\..\..\..\..\..\Software\uCOS-III\Source/os_mutex.c ****             if(prio < highest_prio) {
 1238              		.loc 1 1085 0
 1239 0034 0B23     		movs	r3, #11
 1240 0036 FA18     		adds	r2, r7, r3
 1241 0038 1323     		movs	r3, #19
ARM GAS  C:\Users\ADMINI~1\AppData\Local\Temp\ccvQPEdN.s 			page 42


 1242 003a FB18     		adds	r3, r7, r3
 1243 003c 1278     		ldrb	r2, [r2]
 1244 003e 1B78     		ldrb	r3, [r3]
 1245 0040 9A42     		cmp	r2, r3
 1246 0042 05D2     		bcs	.L77
1086:..\..\..\..\..\..\Software\uCOS-III\Source/os_mutex.c ****                 highest_prio = prio;
 1247              		.loc 1 1086 0
 1248 0044 1323     		movs	r3, #19
 1249 0046 FB18     		adds	r3, r7, r3
 1250 0048 0B22     		movs	r2, #11
 1251 004a BA18     		adds	r2, r7, r2
 1252 004c 1278     		ldrb	r2, [r2]
 1253 004e 1A70     		strb	r2, [r3]
 1254              	.L77:
1087:..\..\..\..\..\..\Software\uCOS-III\Source/os_mutex.c ****             }
1088:..\..\..\..\..\..\Software\uCOS-III\Source/os_mutex.c ****         }
1089:..\..\..\..\..\..\Software\uCOS-III\Source/os_mutex.c ****         pp_mutex = &(*pp_mutex)->MutexGrpNextPtr;
 1255              		.loc 1 1089 0
 1256 0050 7B69     		ldr	r3, [r7, #20]
 1257 0052 1B68     		ldr	r3, [r3]
 1258 0054 2033     		adds	r3, r3, #32
 1259 0056 7B61     		str	r3, [r7, #20]
 1260              	.L76:
1081:..\..\..\..\..\..\Software\uCOS-III\Source/os_mutex.c ****         p_head = (*pp_mutex)->PendList.HeadPtr;
 1261              		.loc 1 1081 0
 1262 0058 7B69     		ldr	r3, [r7, #20]
 1263 005a 1B68     		ldr	r3, [r3]
 1264 005c 002B     		cmp	r3, #0
 1265 005e DBD1     		bne	.L78
1090:..\..\..\..\..\..\Software\uCOS-III\Source/os_mutex.c ****     }
1091:..\..\..\..\..\..\Software\uCOS-III\Source/os_mutex.c **** 
1092:..\..\..\..\..\..\Software\uCOS-III\Source/os_mutex.c ****     return (highest_prio);
 1266              		.loc 1 1092 0
 1267 0060 1323     		movs	r3, #19
 1268 0062 FB18     		adds	r3, r7, r3
 1269 0064 1B78     		ldrb	r3, [r3]
1093:..\..\..\..\..\..\Software\uCOS-III\Source/os_mutex.c **** }
 1270              		.loc 1 1093 0
 1271 0066 1800     		movs	r0, r3
 1272 0068 BD46     		mov	sp, r7
 1273 006a 06B0     		add	sp, sp, #24
 1274              		@ sp needed
 1275 006c 80BD     		pop	{r7, pc}
 1276              		.cfi_endproc
 1277              	.LFE8:
 1278              		.size	OS_MutexGrpPrioFindHighest, .-OS_MutexGrpPrioFindHighest
 1279 006e C046     		.section	.text.OS_MutexGrpPostAll,"ax",%progbits
 1280              		.align	2
 1281              		.global	OS_MutexGrpPostAll
 1282              		.code	16
 1283              		.thumb_func
 1284              		.type	OS_MutexGrpPostAll, %function
 1285              	OS_MutexGrpPostAll:
 1286              	.LFB9:
1094:..\..\..\..\..\..\Software\uCOS-III\Source/os_mutex.c **** 
1095:..\..\..\..\..\..\Software\uCOS-III\Source/os_mutex.c **** 
1096:..\..\..\..\..\..\Software\uCOS-III\Source/os_mutex.c **** /*
ARM GAS  C:\Users\ADMINI~1\AppData\Local\Temp\ccvQPEdN.s 			page 43


1097:..\..\..\..\..\..\Software\uCOS-III\Source/os_mutex.c **** ***************************************************************************************************
1098:..\..\..\..\..\..\Software\uCOS-III\Source/os_mutex.c **** *                                               MUTEX GROUP POST ALL
1099:..\..\..\..\..\..\Software\uCOS-III\Source/os_mutex.c **** *
1100:..\..\..\..\..\..\Software\uCOS-III\Source/os_mutex.c **** * Description: This function is called by the kernel to post (release) all the mutex from a group. 
1101:..\..\..\..\..\..\Software\uCOS-III\Source/os_mutex.c **** *              a task.
1102:..\..\..\..\..\..\Software\uCOS-III\Source/os_mutex.c **** *
1103:..\..\..\..\..\..\Software\uCOS-III\Source/os_mutex.c **** 
1104:..\..\..\..\..\..\Software\uCOS-III\Source/os_mutex.c **** * Argument(s): p_tcb        is a pointer to the tcb of the task to process.
1105:..\..\..\..\..\..\Software\uCOS-III\Source/os_mutex.c **** *
1106:..\..\..\..\..\..\Software\uCOS-III\Source/os_mutex.c **** *
1107:..\..\..\..\..\..\Software\uCOS-III\Source/os_mutex.c **** * Returns    : none.
1108:..\..\..\..\..\..\Software\uCOS-III\Source/os_mutex.c **** *
1109:..\..\..\..\..\..\Software\uCOS-III\Source/os_mutex.c **** * Note(s)    : 1) This function is INTERNAL to uC/OS-III and your application MUST NOT call it.
1110:..\..\..\..\..\..\Software\uCOS-III\Source/os_mutex.c **** ***************************************************************************************************
1111:..\..\..\..\..\..\Software\uCOS-III\Source/os_mutex.c **** */
1112:..\..\..\..\..\..\Software\uCOS-III\Source/os_mutex.c **** 
1113:..\..\..\..\..\..\Software\uCOS-III\Source/os_mutex.c **** void  OS_MutexGrpPostAll (OS_TCB  *p_tcb)
1114:..\..\..\..\..\..\Software\uCOS-III\Source/os_mutex.c **** {
 1287              		.loc 1 1114 0
 1288              		.cfi_startproc
 1289              		@ args = 0, pretend = 0, frame = 32
 1290              		@ frame_needed = 1, uses_anonymous_args = 0
 1291 0000 80B5     		push	{r7, lr}
 1292              		.cfi_def_cfa_offset 8
 1293              		.cfi_offset 7, -8
 1294              		.cfi_offset 14, -4
 1295 0002 8AB0     		sub	sp, sp, #40
 1296              		.cfi_def_cfa_offset 48
 1297 0004 02AF     		add	r7, sp, #8
 1298              		.cfi_def_cfa 7, 40
 1299 0006 7860     		str	r0, [r7, #4]
1115:..\..\..\..\..\..\Software\uCOS-III\Source/os_mutex.c ****     OS_MUTEX      *p_mutex;
1116:..\..\..\..\..\..\Software\uCOS-III\Source/os_mutex.c ****     OS_MUTEX      *p_mutex_next;
1117:..\..\..\..\..\..\Software\uCOS-III\Source/os_mutex.c ****     CPU_TS         ts;
1118:..\..\..\..\..\..\Software\uCOS-III\Source/os_mutex.c ****     OS_PEND_LIST  *p_pend_list;
1119:..\..\..\..\..\..\Software\uCOS-III\Source/os_mutex.c ****     OS_TCB        *p_tcb_new;
1120:..\..\..\..\..\..\Software\uCOS-III\Source/os_mutex.c **** 
1121:..\..\..\..\..\..\Software\uCOS-III\Source/os_mutex.c **** 
1122:..\..\..\..\..\..\Software\uCOS-III\Source/os_mutex.c ****     p_mutex = p_tcb->MutexGrpHeadPtr;
 1300              		.loc 1 1122 0
 1301 0008 7B68     		ldr	r3, [r7, #4]
 1302 000a DB6B     		ldr	r3, [r3, #60]
 1303 000c FB61     		str	r3, [r7, #28]
1123:..\..\..\..\..\..\Software\uCOS-III\Source/os_mutex.c **** 
1124:..\..\..\..\..\..\Software\uCOS-III\Source/os_mutex.c ****     while(p_mutex != DEF_NULL) {
 1304              		.loc 1 1124 0
 1305 000e 39E0     		b	.L81
 1306              	.L84:
1125:..\..\..\..\..\..\Software\uCOS-III\Source/os_mutex.c **** 
1126:..\..\..\..\..\..\Software\uCOS-III\Source/os_mutex.c **** #if (defined(TRACE_CFG_EN) && (TRACE_CFG_EN == DEF_ENABLED))
1127:..\..\..\..\..\..\Software\uCOS-III\Source/os_mutex.c ****     TRACE_OS_MUTEX_POST(p_mutex);                               /* Record the event.               
1128:..\..\..\..\..\..\Software\uCOS-III\Source/os_mutex.c **** #endif
1129:..\..\..\..\..\..\Software\uCOS-III\Source/os_mutex.c **** 
1130:..\..\..\..\..\..\Software\uCOS-III\Source/os_mutex.c ****         p_mutex_next = p_mutex->MutexGrpNextPtr;
 1307              		.loc 1 1130 0
 1308 0010 FB69     		ldr	r3, [r7, #28]
 1309 0012 1B6A     		ldr	r3, [r3, #32]
ARM GAS  C:\Users\ADMINI~1\AppData\Local\Temp\ccvQPEdN.s 			page 44


 1310 0014 BB61     		str	r3, [r7, #24]
1131:..\..\..\..\..\..\Software\uCOS-III\Source/os_mutex.c **** #if (OS_CFG_TS_EN == DEF_ENABLED)
1132:..\..\..\..\..\..\Software\uCOS-III\Source/os_mutex.c ****         ts           = OS_TS_GET();                             /* Get timestamp                   
 1311              		.loc 1 1132 0
 1312 0016 FFF7FEFF 		bl	CPU_TS_TmrRd
 1313 001a 0300     		movs	r3, r0
 1314 001c 7B61     		str	r3, [r7, #20]
1133:..\..\..\..\..\..\Software\uCOS-III\Source/os_mutex.c ****         p_mutex->TS  = ts;
 1315              		.loc 1 1133 0
 1316 001e FB69     		ldr	r3, [r7, #28]
 1317 0020 7A69     		ldr	r2, [r7, #20]
 1318 0022 DA62     		str	r2, [r3, #44]
1134:..\..\..\..\..\..\Software\uCOS-III\Source/os_mutex.c **** #else
1135:..\..\..\..\..\..\Software\uCOS-III\Source/os_mutex.c ****         ts           = 0u;
1136:..\..\..\..\..\..\Software\uCOS-III\Source/os_mutex.c **** #endif
1137:..\..\..\..\..\..\Software\uCOS-III\Source/os_mutex.c ****         OS_MutexGrpRemove(p_tcb,  p_mutex);                     /* Remove mutex from owner's group 
 1319              		.loc 1 1137 0
 1320 0024 FA69     		ldr	r2, [r7, #28]
 1321 0026 7B68     		ldr	r3, [r7, #4]
 1322 0028 1100     		movs	r1, r2
 1323 002a 1800     		movs	r0, r3
 1324 002c FFF7FEFF 		bl	OS_MutexGrpRemove
1138:..\..\..\..\..\..\Software\uCOS-III\Source/os_mutex.c **** 
1139:..\..\..\..\..\..\Software\uCOS-III\Source/os_mutex.c ****         p_pend_list = &p_mutex->PendList;
 1325              		.loc 1 1139 0
 1326 0030 FB69     		ldr	r3, [r7, #28]
 1327 0032 0833     		adds	r3, r3, #8
 1328 0034 3B61     		str	r3, [r7, #16]
1140:..\..\..\..\..\..\Software\uCOS-III\Source/os_mutex.c ****         if (p_pend_list->HeadPtr == DEF_NULL) {                 /* Any task waiting on mutex?      
 1329              		.loc 1 1140 0
 1330 0036 3B69     		ldr	r3, [r7, #16]
 1331 0038 1B68     		ldr	r3, [r3]
 1332 003a 002B     		cmp	r3, #0
 1333 003c 07D1     		bne	.L82
1141:..\..\..\..\..\..\Software\uCOS-III\Source/os_mutex.c ****             p_mutex->OwnerNestingCtr = 0u;                      /* Decrement owner's nesting counte
 1334              		.loc 1 1141 0
 1335 003e FB69     		ldr	r3, [r7, #28]
 1336 0040 2822     		movs	r2, #40
 1337 0042 0021     		movs	r1, #0
 1338 0044 9954     		strb	r1, [r3, r2]
1142:..\..\..\..\..\..\Software\uCOS-III\Source/os_mutex.c ****             p_mutex->OwnerTCBPtr     = DEF_NULL;                /* No                              
 1339              		.loc 1 1142 0
 1340 0046 FB69     		ldr	r3, [r7, #28]
 1341 0048 0022     		movs	r2, #0
 1342 004a 5A62     		str	r2, [r3, #36]
 1343 004c 18E0     		b	.L83
 1344              	.L82:
1143:..\..\..\..\..\..\Software\uCOS-III\Source/os_mutex.c ****         } else {
1144:..\..\..\..\..\..\Software\uCOS-III\Source/os_mutex.c ****                                                                 /* Get TCB from head of pend list  
1145:..\..\..\..\..\..\Software\uCOS-III\Source/os_mutex.c ****             p_tcb_new = p_pend_list->HeadPtr->TCBPtr;
 1345              		.loc 1 1145 0
 1346 004e 3B69     		ldr	r3, [r7, #16]
 1347 0050 1B68     		ldr	r3, [r3]
 1348 0052 9B68     		ldr	r3, [r3, #8]
 1349 0054 FB60     		str	r3, [r7, #12]
1146:..\..\..\..\..\..\Software\uCOS-III\Source/os_mutex.c ****             p_mutex->OwnerTCBPtr     = p_tcb;                   /* Give mutex to new owner         
 1350              		.loc 1 1146 0
ARM GAS  C:\Users\ADMINI~1\AppData\Local\Temp\ccvQPEdN.s 			page 45


 1351 0056 FB69     		ldr	r3, [r7, #28]
 1352 0058 7A68     		ldr	r2, [r7, #4]
 1353 005a 5A62     		str	r2, [r3, #36]
1147:..\..\..\..\..\..\Software\uCOS-III\Source/os_mutex.c ****             p_mutex->OwnerNestingCtr = 1u;
 1354              		.loc 1 1147 0
 1355 005c FB69     		ldr	r3, [r7, #28]
 1356 005e 2822     		movs	r2, #40
 1357 0060 0121     		movs	r1, #1
 1358 0062 9954     		strb	r1, [r3, r2]
1148:..\..\..\..\..\..\Software\uCOS-III\Source/os_mutex.c ****             OS_MutexGrpAdd(p_tcb_new, p_mutex);
 1359              		.loc 1 1148 0
 1360 0064 FA69     		ldr	r2, [r7, #28]
 1361 0066 FB68     		ldr	r3, [r7, #12]
 1362 0068 1100     		movs	r1, r2
 1363 006a 1800     		movs	r0, r3
 1364 006c FFF7FEFF 		bl	OS_MutexGrpAdd
1149:..\..\..\..\..\..\Software\uCOS-III\Source/os_mutex.c ****                                                                 /* Post to mutex                   
1150:..\..\..\..\..\..\Software\uCOS-III\Source/os_mutex.c ****             OS_Post((OS_PEND_OBJ *)((void *)p_mutex),
 1365              		.loc 1 1150 0
 1366 0070 F968     		ldr	r1, [r7, #12]
 1367 0072 F869     		ldr	r0, [r7, #28]
 1368 0074 7B69     		ldr	r3, [r7, #20]
 1369 0076 0093     		str	r3, [sp]
 1370 0078 0023     		movs	r3, #0
 1371 007a 0022     		movs	r2, #0
 1372 007c FFF7FEFF 		bl	OS_Post
 1373              	.L83:
1151:..\..\..\..\..\..\Software\uCOS-III\Source/os_mutex.c ****                                             p_tcb_new,
1152:..\..\..\..\..\..\Software\uCOS-III\Source/os_mutex.c ****                                             DEF_NULL,
1153:..\..\..\..\..\..\Software\uCOS-III\Source/os_mutex.c ****                                             0u,
1154:..\..\..\..\..\..\Software\uCOS-III\Source/os_mutex.c ****                                             ts);
1155:..\..\..\..\..\..\Software\uCOS-III\Source/os_mutex.c ****         }
1156:..\..\..\..\..\..\Software\uCOS-III\Source/os_mutex.c **** 
1157:..\..\..\..\..\..\Software\uCOS-III\Source/os_mutex.c ****         p_mutex = p_mutex_next;
 1374              		.loc 1 1157 0
 1375 0080 BB69     		ldr	r3, [r7, #24]
 1376 0082 FB61     		str	r3, [r7, #28]
 1377              	.L81:
1124:..\..\..\..\..\..\Software\uCOS-III\Source/os_mutex.c **** 
 1378              		.loc 1 1124 0
 1379 0084 FB69     		ldr	r3, [r7, #28]
 1380 0086 002B     		cmp	r3, #0
 1381 0088 C2D1     		bne	.L84
1158:..\..\..\..\..\..\Software\uCOS-III\Source/os_mutex.c ****     }
1159:..\..\..\..\..\..\Software\uCOS-III\Source/os_mutex.c **** 
1160:..\..\..\..\..\..\Software\uCOS-III\Source/os_mutex.c **** }
 1382              		.loc 1 1160 0
 1383 008a C046     		nop
 1384 008c BD46     		mov	sp, r7
 1385 008e 08B0     		add	sp, sp, #32
 1386              		@ sp needed
 1387 0090 80BD     		pop	{r7, pc}
 1388              		.cfi_endproc
 1389              	.LFE9:
 1390              		.size	OS_MutexGrpPostAll, .-OS_MutexGrpPostAll
 1391 0092 C046     		.text
 1392              	.Letext0:
ARM GAS  C:\Users\ADMINI~1\AppData\Local\Temp\ccvQPEdN.s 			page 46


 1393              		.file 2 "..\\..\\..\\..\\..\\..\\Software\\uC-CPU\\ARM-Cortex-M0\\GNU/cpu.h"
 1394              		.file 3 "..\\..\\..\\..\\..\\..\\Software\\uC-CPU/cpu_core.h"
 1395              		.file 4 "..\\..\\..\\..\\..\\..\\Software\\uCOS-III\\Source\\os_type.h"
 1396              		.file 5 "..\\..\\..\\..\\..\\..\\Software\\uCOS-III\\Source\\os.h"