ARM GAS  C:\Users\ADMINI~1\AppData\Local\Temp\ccA4vGOh.s 			page 1


   1              		.syntax unified
   2              		.cpu cortex-m0
   3              		.fpu softvfp
   4              		.eabi_attribute 20, 1
   5              		.eabi_attribute 21, 1
   6              		.eabi_attribute 23, 3
   7              		.eabi_attribute 24, 1
   8              		.eabi_attribute 25, 1
   9              		.eabi_attribute 26, 1
  10              		.eabi_attribute 30, 6
  11              		.eabi_attribute 34, 0
  12              		.eabi_attribute 18, 4
  13              		.thumb
  14              		.syntax unified
  15              		.file	"os_prio.c"
  16              		.text
  17              	.Ltext0:
  18              		.cfi_sections	.debug_frame
  19              		.comm	OSPrioTbl,4,4
  20              		.section	.text.OS_PrioInit,"ax",%progbits
  21              		.align	2
  22              		.global	OS_PrioInit
  23              		.code	16
  24              		.thumb_func
  25              		.type	OS_PrioInit, %function
  26              	OS_PrioInit:
  27              	.LFB0:
  28              		.file 1 "..\\..\\..\\..\\..\\..\\Software\\uCOS-III\\Source\\os_prio.c"
   1:..\..\..\..\..\..\Software\uCOS-III\Source/os_prio.c **** /*
   2:..\..\..\..\..\..\Software\uCOS-III\Source/os_prio.c **** ***************************************************************************************************
   3:..\..\..\..\..\..\Software\uCOS-III\Source/os_prio.c **** *                                                      uC/OS-III
   4:..\..\..\..\..\..\Software\uCOS-III\Source/os_prio.c **** *                                                 The Real-Time Kernel
   5:..\..\..\..\..\..\Software\uCOS-III\Source/os_prio.c **** *
   6:..\..\..\..\..\..\Software\uCOS-III\Source/os_prio.c **** *                                  (c) Copyright 2009-2015; Micrium, Inc.; Weston, FL
   7:..\..\..\..\..\..\Software\uCOS-III\Source/os_prio.c **** *                           All rights reserved.  Protected by international copyright laws.
   8:..\..\..\..\..\..\Software\uCOS-III\Source/os_prio.c **** *
   9:..\..\..\..\..\..\Software\uCOS-III\Source/os_prio.c **** *                                                 PRIORITY MANAGEMENT
  10:..\..\..\..\..\..\Software\uCOS-III\Source/os_prio.c **** *
  11:..\..\..\..\..\..\Software\uCOS-III\Source/os_prio.c **** * File    : OS_PRIO.C
  12:..\..\..\..\..\..\Software\uCOS-III\Source/os_prio.c **** * By      : JJL
  13:..\..\..\..\..\..\Software\uCOS-III\Source/os_prio.c **** * Version : V3.05.01
  14:..\..\..\..\..\..\Software\uCOS-III\Source/os_prio.c **** *
  15:..\..\..\..\..\..\Software\uCOS-III\Source/os_prio.c **** * LICENSING TERMS:
  16:..\..\..\..\..\..\Software\uCOS-III\Source/os_prio.c **** * ---------------
  17:..\..\..\..\..\..\Software\uCOS-III\Source/os_prio.c **** *           uC/OS-III is provided in source form for FREE short-term evaluation, for educational us
  18:..\..\..\..\..\..\Software\uCOS-III\Source/os_prio.c **** *           for peaceful research.  If you plan or intend to use uC/OS-III in a commercial applicat
  19:..\..\..\..\..\..\Software\uCOS-III\Source/os_prio.c **** *           product then, you need to contact Micrium to properly license uC/OS-III for its use in 
  20:..\..\..\..\..\..\Software\uCOS-III\Source/os_prio.c **** *           application/product.   We provide ALL the source code for your convenience and to help 
  21:..\..\..\..\..\..\Software\uCOS-III\Source/os_prio.c **** *           experience uC/OS-III.  The fact that the source is provided does NOT mean that you can 
  22:..\..\..\..\..\..\Software\uCOS-III\Source/os_prio.c **** *           it commercially without paying a licensing fee.
  23:..\..\..\..\..\..\Software\uCOS-III\Source/os_prio.c **** *
  24:..\..\..\..\..\..\Software\uCOS-III\Source/os_prio.c **** *           Knowledge of the source code may NOT be used to develop a similar product.
  25:..\..\..\..\..\..\Software\uCOS-III\Source/os_prio.c **** *
  26:..\..\..\..\..\..\Software\uCOS-III\Source/os_prio.c **** *           Please help us continue to provide the embedded community with the finest software avai
  27:..\..\..\..\..\..\Software\uCOS-III\Source/os_prio.c **** *           Your honesty is greatly appreciated.
  28:..\..\..\..\..\..\Software\uCOS-III\Source/os_prio.c **** *
  29:..\..\..\..\..\..\Software\uCOS-III\Source/os_prio.c **** *           You can find our product's user manual, API reference, release notes and
ARM GAS  C:\Users\ADMINI~1\AppData\Local\Temp\ccA4vGOh.s 			page 2


  30:..\..\..\..\..\..\Software\uCOS-III\Source/os_prio.c **** *           more information at https://doc.micrium.com.
  31:..\..\..\..\..\..\Software\uCOS-III\Source/os_prio.c **** *           You can contact us at www.micrium.com.
  32:..\..\..\..\..\..\Software\uCOS-III\Source/os_prio.c **** ***************************************************************************************************
  33:..\..\..\..\..\..\Software\uCOS-III\Source/os_prio.c **** */
  34:..\..\..\..\..\..\Software\uCOS-III\Source/os_prio.c **** 
  35:..\..\..\..\..\..\Software\uCOS-III\Source/os_prio.c **** #define  MICRIUM_SOURCE
  36:..\..\..\..\..\..\Software\uCOS-III\Source/os_prio.c **** #include "os.h"
  37:..\..\..\..\..\..\Software\uCOS-III\Source/os_prio.c **** 
  38:..\..\..\..\..\..\Software\uCOS-III\Source/os_prio.c **** #ifdef VSC_INCLUDE_SOURCE_FILE_NAMES
  39:..\..\..\..\..\..\Software\uCOS-III\Source/os_prio.c **** const  CPU_CHAR  *os_prio__c = "$Id: $";
  40:..\..\..\..\..\..\Software\uCOS-III\Source/os_prio.c **** #endif
  41:..\..\..\..\..\..\Software\uCOS-III\Source/os_prio.c **** 
  42:..\..\..\..\..\..\Software\uCOS-III\Source/os_prio.c **** 
  43:..\..\..\..\..\..\Software\uCOS-III\Source/os_prio.c **** CPU_DATA   OSPrioTbl[OS_PRIO_TBL_SIZE];                         /* Declare the array local to this 
  44:..\..\..\..\..\..\Software\uCOS-III\Source/os_prio.c ****                                                                 /* ... optimization.  In other word
  45:..\..\..\..\..\..\Software\uCOS-III\Source/os_prio.c ****                                                                 /* ... table to be located in fast 
  46:..\..\..\..\..\..\Software\uCOS-III\Source/os_prio.c **** 
  47:..\..\..\..\..\..\Software\uCOS-III\Source/os_prio.c **** /*
  48:..\..\..\..\..\..\Software\uCOS-III\Source/os_prio.c **** ***************************************************************************************************
  49:..\..\..\..\..\..\Software\uCOS-III\Source/os_prio.c **** *                                               INITIALIZE THE PRIORITY LIST
  50:..\..\..\..\..\..\Software\uCOS-III\Source/os_prio.c **** *
  51:..\..\..\..\..\..\Software\uCOS-III\Source/os_prio.c **** * Description: This function is called by uC/OS-III to initialize the list of ready priorities.
  52:..\..\..\..\..\..\Software\uCOS-III\Source/os_prio.c **** *
  53:..\..\..\..\..\..\Software\uCOS-III\Source/os_prio.c **** * Arguments  : none
  54:..\..\..\..\..\..\Software\uCOS-III\Source/os_prio.c **** *
  55:..\..\..\..\..\..\Software\uCOS-III\Source/os_prio.c **** * Returns    : none
  56:..\..\..\..\..\..\Software\uCOS-III\Source/os_prio.c **** *
  57:..\..\..\..\..\..\Software\uCOS-III\Source/os_prio.c **** * Note       : This function is INTERNAL to uC/OS-III and your application should not call it.
  58:..\..\..\..\..\..\Software\uCOS-III\Source/os_prio.c **** ***************************************************************************************************
  59:..\..\..\..\..\..\Software\uCOS-III\Source/os_prio.c **** */
  60:..\..\..\..\..\..\Software\uCOS-III\Source/os_prio.c **** 
  61:..\..\..\..\..\..\Software\uCOS-III\Source/os_prio.c **** void  OS_PrioInit (void)
  62:..\..\..\..\..\..\Software\uCOS-III\Source/os_prio.c **** {
  29              		.loc 1 62 0
  30              		.cfi_startproc
  31              		@ args = 0, pretend = 0, frame = 8
  32              		@ frame_needed = 1, uses_anonymous_args = 0
  33 0000 80B5     		push	{r7, lr}
  34              		.cfi_def_cfa_offset 8
  35              		.cfi_offset 7, -8
  36              		.cfi_offset 14, -4
  37 0002 82B0     		sub	sp, sp, #8
  38              		.cfi_def_cfa_offset 16
  39 0004 00AF     		add	r7, sp, #0
  40              		.cfi_def_cfa_register 7
  63:..\..\..\..\..\..\Software\uCOS-III\Source/os_prio.c ****     CPU_DATA  i;
  64:..\..\..\..\..\..\Software\uCOS-III\Source/os_prio.c **** 
  65:..\..\..\..\..\..\Software\uCOS-III\Source/os_prio.c **** 
  66:..\..\..\..\..\..\Software\uCOS-III\Source/os_prio.c ****                                                                 /* Clear the bitmap table ... no ta
  67:..\..\..\..\..\..\Software\uCOS-III\Source/os_prio.c ****     for (i = 0u; i < OS_PRIO_TBL_SIZE; i++) {
  41              		.loc 1 67 0
  42 0006 0023     		movs	r3, #0
  43 0008 7B60     		str	r3, [r7, #4]
  44 000a 07E0     		b	.L2
  45              	.L3:
  68:..\..\..\..\..\..\Software\uCOS-III\Source/os_prio.c ****          OSPrioTbl[i] = 0u;
  46              		.loc 1 68 0 discriminator 3
ARM GAS  C:\Users\ADMINI~1\AppData\Local\Temp\ccA4vGOh.s 			page 3


  47 000c 074B     		ldr	r3, .L4
  48 000e 7A68     		ldr	r2, [r7, #4]
  49 0010 9200     		lsls	r2, r2, #2
  50 0012 0021     		movs	r1, #0
  51 0014 D150     		str	r1, [r2, r3]
  67:..\..\..\..\..\..\Software\uCOS-III\Source/os_prio.c ****          OSPrioTbl[i] = 0u;
  52              		.loc 1 67 0 discriminator 3
  53 0016 7B68     		ldr	r3, [r7, #4]
  54 0018 0133     		adds	r3, r3, #1
  55 001a 7B60     		str	r3, [r7, #4]
  56              	.L2:
  67:..\..\..\..\..\..\Software\uCOS-III\Source/os_prio.c ****          OSPrioTbl[i] = 0u;
  57              		.loc 1 67 0 is_stmt 0 discriminator 1
  58 001c 7B68     		ldr	r3, [r7, #4]
  59 001e 002B     		cmp	r3, #0
  60 0020 F4D0     		beq	.L3
  69:..\..\..\..\..\..\Software\uCOS-III\Source/os_prio.c ****     }
  70:..\..\..\..\..\..\Software\uCOS-III\Source/os_prio.c **** 
  71:..\..\..\..\..\..\Software\uCOS-III\Source/os_prio.c **** #if (OS_CFG_TASK_IDLE_EN == DEF_DISABLED)
  72:..\..\..\..\..\..\Software\uCOS-III\Source/os_prio.c ****     OS_PrioInsert ((OS_CFG_PRIO_MAX - 1u));                     /* Insert what would be the idle ta
  73:..\..\..\..\..\..\Software\uCOS-III\Source/os_prio.c **** #endif
  74:..\..\..\..\..\..\Software\uCOS-III\Source/os_prio.c **** }
  61              		.loc 1 74 0 is_stmt 1
  62 0022 C046     		nop
  63 0024 BD46     		mov	sp, r7
  64 0026 02B0     		add	sp, sp, #8
  65              		@ sp needed
  66 0028 80BD     		pop	{r7, pc}
  67              	.L5:
  68 002a C046     		.align	2
  69              	.L4:
  70 002c 00000000 		.word	OSPrioTbl
  71              		.cfi_endproc
  72              	.LFE0:
  73              		.size	OS_PrioInit, .-OS_PrioInit
  74              		.section	.text.OS_PrioGetHighest,"ax",%progbits
  75              		.align	2
  76              		.global	OS_PrioGetHighest
  77              		.code	16
  78              		.thumb_func
  79              		.type	OS_PrioGetHighest, %function
  80              	OS_PrioGetHighest:
  81              	.LFB1:
  75:..\..\..\..\..\..\Software\uCOS-III\Source/os_prio.c **** 
  76:..\..\..\..\..\..\Software\uCOS-III\Source/os_prio.c **** /*
  77:..\..\..\..\..\..\Software\uCOS-III\Source/os_prio.c **** ***************************************************************************************************
  78:..\..\..\..\..\..\Software\uCOS-III\Source/os_prio.c **** *                                           GET HIGHEST PRIORITY TASK WAITING
  79:..\..\..\..\..\..\Software\uCOS-III\Source/os_prio.c **** *
  80:..\..\..\..\..\..\Software\uCOS-III\Source/os_prio.c **** * Description: This function is called by other uC/OS-III services to determine the highest priorit
  81:..\..\..\..\..\..\Software\uCOS-III\Source/os_prio.c **** *              waiting on the event.
  82:..\..\..\..\..\..\Software\uCOS-III\Source/os_prio.c **** *
  83:..\..\..\..\..\..\Software\uCOS-III\Source/os_prio.c **** * Arguments  : none
  84:..\..\..\..\..\..\Software\uCOS-III\Source/os_prio.c **** *
  85:..\..\..\..\..\..\Software\uCOS-III\Source/os_prio.c **** * Returns    : The priority of the Highest Priority Task (HPT) waiting for the event
  86:..\..\..\..\..\..\Software\uCOS-III\Source/os_prio.c **** *
  87:..\..\..\..\..\..\Software\uCOS-III\Source/os_prio.c **** * Note(s)    : 1) This function is INTERNAL to uC/OS-III and your application MUST NOT call it.
  88:..\..\..\..\..\..\Software\uCOS-III\Source/os_prio.c **** ***************************************************************************************************
ARM GAS  C:\Users\ADMINI~1\AppData\Local\Temp\ccA4vGOh.s 			page 4


  89:..\..\..\..\..\..\Software\uCOS-III\Source/os_prio.c **** */
  90:..\..\..\..\..\..\Software\uCOS-III\Source/os_prio.c **** 
  91:..\..\..\..\..\..\Software\uCOS-III\Source/os_prio.c **** OS_PRIO  OS_PrioGetHighest (void)
  92:..\..\..\..\..\..\Software\uCOS-III\Source/os_prio.c **** {
  82              		.loc 1 92 0
  83              		.cfi_startproc
  84              		@ args = 0, pretend = 0, frame = 8
  85              		@ frame_needed = 1, uses_anonymous_args = 0
  86 0000 80B5     		push	{r7, lr}
  87              		.cfi_def_cfa_offset 8
  88              		.cfi_offset 7, -8
  89              		.cfi_offset 14, -4
  90 0002 82B0     		sub	sp, sp, #8
  91              		.cfi_def_cfa_offset 16
  92 0004 00AF     		add	r7, sp, #0
  93              		.cfi_def_cfa_register 7
  93:..\..\..\..\..\..\Software\uCOS-III\Source/os_prio.c ****     CPU_DATA  *p_tbl;
  94:..\..\..\..\..\..\Software\uCOS-III\Source/os_prio.c ****     OS_PRIO    prio;
  95:..\..\..\..\..\..\Software\uCOS-III\Source/os_prio.c **** 
  96:..\..\..\..\..\..\Software\uCOS-III\Source/os_prio.c **** 
  97:..\..\..\..\..\..\Software\uCOS-III\Source/os_prio.c ****     prio  = 0u;
  94              		.loc 1 97 0
  95 0006 FB1D     		adds	r3, r7, #7
  96 0008 0022     		movs	r2, #0
  97 000a 1A70     		strb	r2, [r3]
  98:..\..\..\..\..\..\Software\uCOS-III\Source/os_prio.c ****     p_tbl = &OSPrioTbl[0];
  98              		.loc 1 98 0
  99 000c 094B     		ldr	r3, .L8
 100 000e 3B60     		str	r3, [r7]
  99:..\..\..\..\..\..\Software\uCOS-III\Source/os_prio.c **** #if (OS_CFG_PRIO_MAX > DEF_INT_CPU_NBR_BITS)
 100:..\..\..\..\..\..\Software\uCOS-III\Source/os_prio.c ****     while (*p_tbl == 0u) {                                      /* Search the bitmap table for the 
 101:..\..\..\..\..\..\Software\uCOS-III\Source/os_prio.c ****         prio += DEF_INT_CPU_NBR_BITS;                           /* Compute the step of each CPU_DAT
 102:..\..\..\..\..\..\Software\uCOS-III\Source/os_prio.c ****         p_tbl++;
 103:..\..\..\..\..\..\Software\uCOS-III\Source/os_prio.c ****     }
 104:..\..\..\..\..\..\Software\uCOS-III\Source/os_prio.c **** #endif
 105:..\..\..\..\..\..\Software\uCOS-III\Source/os_prio.c ****     prio += (OS_PRIO)CPU_CntLeadZeros(*p_tbl);                  /* Find the position of the first b
 101              		.loc 1 105 0
 102 0010 3B68     		ldr	r3, [r7]
 103 0012 1B68     		ldr	r3, [r3]
 104 0014 1800     		movs	r0, r3
 105 0016 FFF7FEFF 		bl	CPU_CntLeadZeros
 106 001a 0300     		movs	r3, r0
 107 001c D9B2     		uxtb	r1, r3
 108 001e FB1D     		adds	r3, r7, #7
 109 0020 FA1D     		adds	r2, r7, #7
 110 0022 1278     		ldrb	r2, [r2]
 111 0024 8A18     		adds	r2, r1, r2
 112 0026 1A70     		strb	r2, [r3]
 106:..\..\..\..\..\..\Software\uCOS-III\Source/os_prio.c **** 
 107:..\..\..\..\..\..\Software\uCOS-III\Source/os_prio.c ****     return (prio);
 113              		.loc 1 107 0
 114 0028 FB1D     		adds	r3, r7, #7
 115 002a 1B78     		ldrb	r3, [r3]
 108:..\..\..\..\..\..\Software\uCOS-III\Source/os_prio.c **** }
 116              		.loc 1 108 0
 117 002c 1800     		movs	r0, r3
 118 002e BD46     		mov	sp, r7
ARM GAS  C:\Users\ADMINI~1\AppData\Local\Temp\ccA4vGOh.s 			page 5


 119 0030 02B0     		add	sp, sp, #8
 120              		@ sp needed
 121 0032 80BD     		pop	{r7, pc}
 122              	.L9:
 123              		.align	2
 124              	.L8:
 125 0034 00000000 		.word	OSPrioTbl
 126              		.cfi_endproc
 127              	.LFE1:
 128              		.size	OS_PrioGetHighest, .-OS_PrioGetHighest
 129              		.section	.text.OS_PrioInsert,"ax",%progbits
 130              		.align	2
 131              		.global	OS_PrioInsert
 132              		.code	16
 133              		.thumb_func
 134              		.type	OS_PrioInsert, %function
 135              	OS_PrioInsert:
 136              	.LFB2:
 109:..\..\..\..\..\..\Software\uCOS-III\Source/os_prio.c **** 
 110:..\..\..\..\..\..\Software\uCOS-III\Source/os_prio.c **** /*
 111:..\..\..\..\..\..\Software\uCOS-III\Source/os_prio.c **** ***************************************************************************************************
 112:..\..\..\..\..\..\Software\uCOS-III\Source/os_prio.c **** *                                                  INSERT PRIORITY
 113:..\..\..\..\..\..\Software\uCOS-III\Source/os_prio.c **** *
 114:..\..\..\..\..\..\Software\uCOS-III\Source/os_prio.c **** * Description: This function is called to insert a priority in the priority table.
 115:..\..\..\..\..\..\Software\uCOS-III\Source/os_prio.c **** *
 116:..\..\..\..\..\..\Software\uCOS-III\Source/os_prio.c **** * Arguments  : prio     is the priority to insert
 117:..\..\..\..\..\..\Software\uCOS-III\Source/os_prio.c **** *
 118:..\..\..\..\..\..\Software\uCOS-III\Source/os_prio.c **** * Returns    : none
 119:..\..\..\..\..\..\Software\uCOS-III\Source/os_prio.c **** *
 120:..\..\..\..\..\..\Software\uCOS-III\Source/os_prio.c **** * Note(s)    : 1) This function is INTERNAL to uC/OS-III and your application MUST NOT call it.
 121:..\..\..\..\..\..\Software\uCOS-III\Source/os_prio.c **** ***************************************************************************************************
 122:..\..\..\..\..\..\Software\uCOS-III\Source/os_prio.c **** */
 123:..\..\..\..\..\..\Software\uCOS-III\Source/os_prio.c **** 
 124:..\..\..\..\..\..\Software\uCOS-III\Source/os_prio.c **** void  OS_PrioInsert (OS_PRIO  prio)
 125:..\..\..\..\..\..\Software\uCOS-III\Source/os_prio.c **** {
 137              		.loc 1 125 0
 138              		.cfi_startproc
 139              		@ args = 0, pretend = 0, frame = 24
 140              		@ frame_needed = 1, uses_anonymous_args = 0
 141 0000 80B5     		push	{r7, lr}
 142              		.cfi_def_cfa_offset 8
 143              		.cfi_offset 7, -8
 144              		.cfi_offset 14, -4
 145 0002 86B0     		sub	sp, sp, #24
 146              		.cfi_def_cfa_offset 32
 147 0004 00AF     		add	r7, sp, #0
 148              		.cfi_def_cfa_register 7
 149 0006 0200     		movs	r2, r0
 150 0008 FB1D     		adds	r3, r7, #7
 151 000a 1A70     		strb	r2, [r3]
 126:..\..\..\..\..\..\Software\uCOS-III\Source/os_prio.c ****     CPU_DATA  bit;
 127:..\..\..\..\..\..\Software\uCOS-III\Source/os_prio.c ****     CPU_DATA  bit_nbr;
 128:..\..\..\..\..\..\Software\uCOS-III\Source/os_prio.c ****     OS_PRIO   ix;
 129:..\..\..\..\..\..\Software\uCOS-III\Source/os_prio.c **** 
 130:..\..\..\..\..\..\Software\uCOS-III\Source/os_prio.c **** #if (OS_CFG_PRIO_MAX > DEF_INT_CPU_NBR_BITS)
 131:..\..\..\..\..\..\Software\uCOS-III\Source/os_prio.c ****     ix             = prio / DEF_INT_CPU_NBR_BITS;
 132:..\..\..\..\..\..\Software\uCOS-III\Source/os_prio.c ****     bit_nbr        = (CPU_DATA)prio & (DEF_INT_CPU_NBR_BITS - 1u);
ARM GAS  C:\Users\ADMINI~1\AppData\Local\Temp\ccA4vGOh.s 			page 6


 133:..\..\..\..\..\..\Software\uCOS-III\Source/os_prio.c **** #else
 134:..\..\..\..\..\..\Software\uCOS-III\Source/os_prio.c ****     ix             = 0u;
 152              		.loc 1 134 0
 153 000c 1723     		movs	r3, #23
 154 000e FB18     		adds	r3, r7, r3
 155 0010 0022     		movs	r2, #0
 156 0012 1A70     		strb	r2, [r3]
 135:..\..\..\..\..\..\Software\uCOS-III\Source/os_prio.c ****     bit_nbr        = prio;
 157              		.loc 1 135 0
 158 0014 FB1D     		adds	r3, r7, #7
 159 0016 1B78     		ldrb	r3, [r3]
 160 0018 3B61     		str	r3, [r7, #16]
 136:..\..\..\..\..\..\Software\uCOS-III\Source/os_prio.c **** #endif
 137:..\..\..\..\..\..\Software\uCOS-III\Source/os_prio.c ****     bit            = 1u;
 161              		.loc 1 137 0
 162 001a 0123     		movs	r3, #1
 163 001c FB60     		str	r3, [r7, #12]
 138:..\..\..\..\..\..\Software\uCOS-III\Source/os_prio.c ****     bit          <<= (DEF_INT_CPU_NBR_BITS - 1u) - bit_nbr;
 164              		.loc 1 138 0
 165 001e 3B69     		ldr	r3, [r7, #16]
 166 0020 1F22     		movs	r2, #31
 167 0022 D31A     		subs	r3, r2, r3
 168 0024 FA68     		ldr	r2, [r7, #12]
 169 0026 9A40     		lsls	r2, r2, r3
 170 0028 1300     		movs	r3, r2
 171 002a FB60     		str	r3, [r7, #12]
 139:..\..\..\..\..\..\Software\uCOS-III\Source/os_prio.c ****     OSPrioTbl[ix] |= bit;
 172              		.loc 1 139 0
 173 002c 1723     		movs	r3, #23
 174 002e FB18     		adds	r3, r7, r3
 175 0030 1A78     		ldrb	r2, [r3]
 176 0032 1723     		movs	r3, #23
 177 0034 FB18     		adds	r3, r7, r3
 178 0036 1978     		ldrb	r1, [r3]
 179 0038 054B     		ldr	r3, .L11
 180 003a 8900     		lsls	r1, r1, #2
 181 003c C958     		ldr	r1, [r1, r3]
 182 003e FB68     		ldr	r3, [r7, #12]
 183 0040 1943     		orrs	r1, r3
 184 0042 034B     		ldr	r3, .L11
 185 0044 9200     		lsls	r2, r2, #2
 186 0046 D150     		str	r1, [r2, r3]
 140:..\..\..\..\..\..\Software\uCOS-III\Source/os_prio.c **** }
 187              		.loc 1 140 0
 188 0048 C046     		nop
 189 004a BD46     		mov	sp, r7
 190 004c 06B0     		add	sp, sp, #24
 191              		@ sp needed
 192 004e 80BD     		pop	{r7, pc}
 193              	.L12:
 194              		.align	2
 195              	.L11:
 196 0050 00000000 		.word	OSPrioTbl
 197              		.cfi_endproc
 198              	.LFE2:
 199              		.size	OS_PrioInsert, .-OS_PrioInsert
 200              		.section	.text.OS_PrioRemove,"ax",%progbits
ARM GAS  C:\Users\ADMINI~1\AppData\Local\Temp\ccA4vGOh.s 			page 7


 201              		.align	2
 202              		.global	OS_PrioRemove
 203              		.code	16
 204              		.thumb_func
 205              		.type	OS_PrioRemove, %function
 206              	OS_PrioRemove:
 207              	.LFB3:
 141:..\..\..\..\..\..\Software\uCOS-III\Source/os_prio.c **** 
 142:..\..\..\..\..\..\Software\uCOS-III\Source/os_prio.c **** /*
 143:..\..\..\..\..\..\Software\uCOS-III\Source/os_prio.c **** ***************************************************************************************************
 144:..\..\..\..\..\..\Software\uCOS-III\Source/os_prio.c **** *                                                   REMOVE PRIORITY
 145:..\..\..\..\..\..\Software\uCOS-III\Source/os_prio.c **** *
 146:..\..\..\..\..\..\Software\uCOS-III\Source/os_prio.c **** * Description: This function is called to remove a priority in the priority table.
 147:..\..\..\..\..\..\Software\uCOS-III\Source/os_prio.c **** *
 148:..\..\..\..\..\..\Software\uCOS-III\Source/os_prio.c **** * Arguments  : prio     is the priority to remove
 149:..\..\..\..\..\..\Software\uCOS-III\Source/os_prio.c **** *
 150:..\..\..\..\..\..\Software\uCOS-III\Source/os_prio.c **** * Returns    : none
 151:..\..\..\..\..\..\Software\uCOS-III\Source/os_prio.c **** *
 152:..\..\..\..\..\..\Software\uCOS-III\Source/os_prio.c **** * Note(s)    : 1) This function is INTERNAL to uC/OS-III and your application MUST NOT call it.
 153:..\..\..\..\..\..\Software\uCOS-III\Source/os_prio.c **** ***************************************************************************************************
 154:..\..\..\..\..\..\Software\uCOS-III\Source/os_prio.c **** */
 155:..\..\..\..\..\..\Software\uCOS-III\Source/os_prio.c **** 
 156:..\..\..\..\..\..\Software\uCOS-III\Source/os_prio.c **** void  OS_PrioRemove (OS_PRIO  prio)
 157:..\..\..\..\..\..\Software\uCOS-III\Source/os_prio.c **** {
 208              		.loc 1 157 0
 209              		.cfi_startproc
 210              		@ args = 0, pretend = 0, frame = 24
 211              		@ frame_needed = 1, uses_anonymous_args = 0
 212 0000 80B5     		push	{r7, lr}
 213              		.cfi_def_cfa_offset 8
 214              		.cfi_offset 7, -8
 215              		.cfi_offset 14, -4
 216 0002 86B0     		sub	sp, sp, #24
 217              		.cfi_def_cfa_offset 32
 218 0004 00AF     		add	r7, sp, #0
 219              		.cfi_def_cfa_register 7
 220 0006 0200     		movs	r2, r0
 221 0008 FB1D     		adds	r3, r7, #7
 222 000a 1A70     		strb	r2, [r3]
 158:..\..\..\..\..\..\Software\uCOS-III\Source/os_prio.c ****     CPU_DATA  bit;
 159:..\..\..\..\..\..\Software\uCOS-III\Source/os_prio.c ****     CPU_DATA  bit_nbr;
 160:..\..\..\..\..\..\Software\uCOS-III\Source/os_prio.c ****     OS_PRIO   ix;
 161:..\..\..\..\..\..\Software\uCOS-III\Source/os_prio.c **** 
 162:..\..\..\..\..\..\Software\uCOS-III\Source/os_prio.c **** #if (OS_CFG_PRIO_MAX > DEF_INT_CPU_NBR_BITS)
 163:..\..\..\..\..\..\Software\uCOS-III\Source/os_prio.c ****     ix             = prio / DEF_INT_CPU_NBR_BITS;
 164:..\..\..\..\..\..\Software\uCOS-III\Source/os_prio.c ****     bit_nbr        = (CPU_DATA)prio & (DEF_INT_CPU_NBR_BITS - 1u);
 165:..\..\..\..\..\..\Software\uCOS-III\Source/os_prio.c **** #else
 166:..\..\..\..\..\..\Software\uCOS-III\Source/os_prio.c ****     ix             = 0u;
 223              		.loc 1 166 0
 224 000c 1723     		movs	r3, #23
 225 000e FB18     		adds	r3, r7, r3
 226 0010 0022     		movs	r2, #0
 227 0012 1A70     		strb	r2, [r3]
 167:..\..\..\..\..\..\Software\uCOS-III\Source/os_prio.c ****     bit_nbr        = prio;
 228              		.loc 1 167 0
 229 0014 FB1D     		adds	r3, r7, #7
 230 0016 1B78     		ldrb	r3, [r3]
ARM GAS  C:\Users\ADMINI~1\AppData\Local\Temp\ccA4vGOh.s 			page 8


 231 0018 3B61     		str	r3, [r7, #16]
 168:..\..\..\..\..\..\Software\uCOS-III\Source/os_prio.c **** #endif
 169:..\..\..\..\..\..\Software\uCOS-III\Source/os_prio.c ****     bit            = 1u;
 232              		.loc 1 169 0
 233 001a 0123     		movs	r3, #1
 234 001c FB60     		str	r3, [r7, #12]
 170:..\..\..\..\..\..\Software\uCOS-III\Source/os_prio.c ****     bit          <<= (DEF_INT_CPU_NBR_BITS - 1u) - bit_nbr;
 235              		.loc 1 170 0
 236 001e 3B69     		ldr	r3, [r7, #16]
 237 0020 1F22     		movs	r2, #31
 238 0022 D31A     		subs	r3, r2, r3
 239 0024 FA68     		ldr	r2, [r7, #12]
 240 0026 9A40     		lsls	r2, r2, r3
 241 0028 1300     		movs	r3, r2
 242 002a FB60     		str	r3, [r7, #12]
 171:..\..\..\..\..\..\Software\uCOS-III\Source/os_prio.c ****     OSPrioTbl[ix] &= ~bit;
 243              		.loc 1 171 0
 244 002c 1723     		movs	r3, #23
 245 002e FB18     		adds	r3, r7, r3
 246 0030 1A78     		ldrb	r2, [r3]
 247 0032 1723     		movs	r3, #23
 248 0034 FB18     		adds	r3, r7, r3
 249 0036 1978     		ldrb	r1, [r3]
 250 0038 064B     		ldr	r3, .L14
 251 003a 8900     		lsls	r1, r1, #2
 252 003c CB58     		ldr	r3, [r1, r3]
 253 003e F968     		ldr	r1, [r7, #12]
 254 0040 C943     		mvns	r1, r1
 255 0042 1940     		ands	r1, r3
 256 0044 034B     		ldr	r3, .L14
 257 0046 9200     		lsls	r2, r2, #2
 258 0048 D150     		str	r1, [r2, r3]
 172:..\..\..\..\..\..\Software\uCOS-III\Source/os_prio.c **** }
 259              		.loc 1 172 0
 260 004a C046     		nop
 261 004c BD46     		mov	sp, r7
 262 004e 06B0     		add	sp, sp, #24
 263              		@ sp needed
 264 0050 80BD     		pop	{r7, pc}
 265              	.L15:
 266 0052 C046     		.align	2
 267              	.L14:
 268 0054 00000000 		.word	OSPrioTbl
 269              		.cfi_endproc
 270              	.LFE3:
 271              		.size	OS_PrioRemove, .-OS_PrioRemove
 272              		.text
 273              	.Letext0:
 274              		.file 2 "..\\..\\..\\..\\..\\..\\Software\\uC-CPU\\ARM-Cortex-M0\\GNU/cpu.h"
 275              		.file 3 "..\\..\\..\\..\\..\\..\\Software\\uCOS-III\\Source\\os_type.h"