ARM GAS  C:\Users\ADMINI~1\AppData\Local\Temp\ccKLo23z.s 			page 1


   1              		.syntax unified
   2              		.cpu cortex-m0
   3              		.fpu softvfp
   4              		.eabi_attribute 20, 1
   5              		.eabi_attribute 21, 1
   6              		.eabi_attribute 23, 3
   7              		.eabi_attribute 24, 1
   8              		.eabi_attribute 25, 1
   9              		.eabi_attribute 26, 1
  10              		.eabi_attribute 30, 6
  11              		.eabi_attribute 34, 0
  12              		.eabi_attribute 18, 4
  13              		.thumb
  14              		.syntax unified
  15              		.file	"os_q.c"
  16              		.text
  17              	.Ltext0:
  18              		.cfi_sections	.debug_frame
  19              		.section	.text.OSQCreate,"ax",%progbits
  20              		.align	2
  21              		.global	OSQCreate
  22              		.code	16
  23              		.thumb_func
  24              		.type	OSQCreate, %function
  25              	OSQCreate:
  26              	.LFB0:
  27              		.file 1 "..\\..\\..\\..\\..\\..\\Software\\uCOS-III\\Source\\os_q.c"
   1:..\..\..\..\..\..\Software\uCOS-III\Source/os_q.c **** /*
   2:..\..\..\..\..\..\Software\uCOS-III\Source/os_q.c **** ***************************************************************************************************
   3:..\..\..\..\..\..\Software\uCOS-III\Source/os_q.c **** *                                                      uC/OS-III
   4:..\..\..\..\..\..\Software\uCOS-III\Source/os_q.c **** *                                                 The Real-Time Kernel
   5:..\..\..\..\..\..\Software\uCOS-III\Source/os_q.c **** *
   6:..\..\..\..\..\..\Software\uCOS-III\Source/os_q.c **** *                                  (c) Copyright 2009-2015; Micrium, Inc.; Weston, FL
   7:..\..\..\..\..\..\Software\uCOS-III\Source/os_q.c **** *                           All rights reserved.  Protected by international copyright laws.
   8:..\..\..\..\..\..\Software\uCOS-III\Source/os_q.c **** *
   9:..\..\..\..\..\..\Software\uCOS-III\Source/os_q.c **** *                                               MESSAGE QUEUE MANAGEMENT
  10:..\..\..\..\..\..\Software\uCOS-III\Source/os_q.c **** *
  11:..\..\..\..\..\..\Software\uCOS-III\Source/os_q.c **** * File    : OS_Q.C
  12:..\..\..\..\..\..\Software\uCOS-III\Source/os_q.c **** * By      : JJL
  13:..\..\..\..\..\..\Software\uCOS-III\Source/os_q.c **** * Version : V3.05.01
  14:..\..\..\..\..\..\Software\uCOS-III\Source/os_q.c **** *
  15:..\..\..\..\..\..\Software\uCOS-III\Source/os_q.c **** * LICENSING TERMS:
  16:..\..\..\..\..\..\Software\uCOS-III\Source/os_q.c **** * ---------------
  17:..\..\..\..\..\..\Software\uCOS-III\Source/os_q.c **** *           uC/OS-III is provided in source form for FREE short-term evaluation, for educational us
  18:..\..\..\..\..\..\Software\uCOS-III\Source/os_q.c **** *           for peaceful research.  If you plan or intend to use uC/OS-III in a commercial applicat
  19:..\..\..\..\..\..\Software\uCOS-III\Source/os_q.c **** *           product then, you need to contact Micrium to properly license uC/OS-III for its use in 
  20:..\..\..\..\..\..\Software\uCOS-III\Source/os_q.c **** *           application/product.   We provide ALL the source code for your convenience and to help 
  21:..\..\..\..\..\..\Software\uCOS-III\Source/os_q.c **** *           experience uC/OS-III.  The fact that the source is provided does NOT mean that you can 
  22:..\..\..\..\..\..\Software\uCOS-III\Source/os_q.c **** *           it commercially without paying a licensing fee.
  23:..\..\..\..\..\..\Software\uCOS-III\Source/os_q.c **** *
  24:..\..\..\..\..\..\Software\uCOS-III\Source/os_q.c **** *           Knowledge of the source code may NOT be used to develop a similar product.
  25:..\..\..\..\..\..\Software\uCOS-III\Source/os_q.c **** *
  26:..\..\..\..\..\..\Software\uCOS-III\Source/os_q.c **** *           Please help us continue to provide the embedded community with the finest software avai
  27:..\..\..\..\..\..\Software\uCOS-III\Source/os_q.c **** *           Your honesty is greatly appreciated.
  28:..\..\..\..\..\..\Software\uCOS-III\Source/os_q.c **** *
  29:..\..\..\..\..\..\Software\uCOS-III\Source/os_q.c **** *           You can find our product's user manual, API reference, release notes and
  30:..\..\..\..\..\..\Software\uCOS-III\Source/os_q.c **** *           more information at https://doc.micrium.com.
ARM GAS  C:\Users\ADMINI~1\AppData\Local\Temp\ccKLo23z.s 			page 2


  31:..\..\..\..\..\..\Software\uCOS-III\Source/os_q.c **** *           You can contact us at www.micrium.com.
  32:..\..\..\..\..\..\Software\uCOS-III\Source/os_q.c **** ***************************************************************************************************
  33:..\..\..\..\..\..\Software\uCOS-III\Source/os_q.c **** */
  34:..\..\..\..\..\..\Software\uCOS-III\Source/os_q.c **** 
  35:..\..\..\..\..\..\Software\uCOS-III\Source/os_q.c **** #define  MICRIUM_SOURCE
  36:..\..\..\..\..\..\Software\uCOS-III\Source/os_q.c **** #include "os.h"
  37:..\..\..\..\..\..\Software\uCOS-III\Source/os_q.c **** 
  38:..\..\..\..\..\..\Software\uCOS-III\Source/os_q.c **** #ifdef VSC_INCLUDE_SOURCE_FILE_NAMES
  39:..\..\..\..\..\..\Software\uCOS-III\Source/os_q.c **** const  CPU_CHAR  *os_q__c = "$Id: $";
  40:..\..\..\..\..\..\Software\uCOS-III\Source/os_q.c **** #endif
  41:..\..\..\..\..\..\Software\uCOS-III\Source/os_q.c **** 
  42:..\..\..\..\..\..\Software\uCOS-III\Source/os_q.c **** 
  43:..\..\..\..\..\..\Software\uCOS-III\Source/os_q.c **** #if (OS_CFG_Q_EN == DEF_ENABLED)
  44:..\..\..\..\..\..\Software\uCOS-III\Source/os_q.c **** /*
  45:..\..\..\..\..\..\Software\uCOS-III\Source/os_q.c **** ***************************************************************************************************
  46:..\..\..\..\..\..\Software\uCOS-III\Source/os_q.c **** *                                               CREATE A MESSAGE QUEUE
  47:..\..\..\..\..\..\Software\uCOS-III\Source/os_q.c **** *
  48:..\..\..\..\..\..\Software\uCOS-III\Source/os_q.c **** * Description: This function is called by your application to create a message queue.  Message queu
  49:..\..\..\..\..\..\Software\uCOS-III\Source/os_q.c **** *              before they can be used.
  50:..\..\..\..\..\..\Software\uCOS-III\Source/os_q.c **** *
  51:..\..\..\..\..\..\Software\uCOS-III\Source/os_q.c **** * Arguments  : p_q         is a pointer to the message queue
  52:..\..\..\..\..\..\Software\uCOS-III\Source/os_q.c **** *
  53:..\..\..\..\..\..\Software\uCOS-III\Source/os_q.c **** *              p_name      is a pointer to an ASCII string that will be used to name the message qu
  54:..\..\..\..\..\..\Software\uCOS-III\Source/os_q.c **** *
  55:..\..\..\..\..\..\Software\uCOS-III\Source/os_q.c **** *              max_qty     indicates the maximum size of the message queue (must be non-zero).  Not
  56:..\..\..\..\..\..\Software\uCOS-III\Source/os_q.c **** *                          possible to have a size higher than the maximum number of OS_MSGs availa
  57:..\..\..\..\..\..\Software\uCOS-III\Source/os_q.c **** *
  58:..\..\..\..\..\..\Software\uCOS-III\Source/os_q.c **** *              p_err       is a pointer to a variable that will contain an error code returned by t
  59:..\..\..\..\..\..\Software\uCOS-III\Source/os_q.c **** *
  60:..\..\..\..\..\..\Software\uCOS-III\Source/os_q.c **** *                              OS_ERR_NONE                    The call was successful
  61:..\..\..\..\..\..\Software\uCOS-III\Source/os_q.c **** *                              OS_ERR_CREATE_ISR              Can't create from an ISR
  62:..\..\..\..\..\..\Software\uCOS-III\Source/os_q.c **** *                              OS_ERR_ILLEGAL_CREATE_RUN_TIME If you are trying to create the Queue
  63:..\..\..\..\..\..\Software\uCOS-III\Source/os_q.c **** *                                                               OSStart()
  64:..\..\..\..\..\..\Software\uCOS-III\Source/os_q.c **** *                              OS_ERR_OBJ_PTR_NULL            If you passed a NULL pointer for 'p_q
  65:..\..\..\..\..\..\Software\uCOS-III\Source/os_q.c **** *                              OS_ERR_Q_SIZE                  If the size you specified is 0
  66:..\..\..\..\..\..\Software\uCOS-III\Source/os_q.c **** *
  67:..\..\..\..\..\..\Software\uCOS-III\Source/os_q.c **** * Returns    : none
  68:..\..\..\..\..\..\Software\uCOS-III\Source/os_q.c **** *
  69:..\..\..\..\..\..\Software\uCOS-III\Source/os_q.c **** * Note(s)    : none
  70:..\..\..\..\..\..\Software\uCOS-III\Source/os_q.c **** ***************************************************************************************************
  71:..\..\..\..\..\..\Software\uCOS-III\Source/os_q.c **** */
  72:..\..\..\..\..\..\Software\uCOS-III\Source/os_q.c **** 
  73:..\..\..\..\..\..\Software\uCOS-III\Source/os_q.c **** void  OSQCreate (OS_Q        *p_q,
  74:..\..\..\..\..\..\Software\uCOS-III\Source/os_q.c ****                  CPU_CHAR    *p_name,
  75:..\..\..\..\..\..\Software\uCOS-III\Source/os_q.c ****                  OS_MSG_QTY   max_qty,
  76:..\..\..\..\..\..\Software\uCOS-III\Source/os_q.c ****                  OS_ERR      *p_err)
  77:..\..\..\..\..\..\Software\uCOS-III\Source/os_q.c **** 
  78:..\..\..\..\..\..\Software\uCOS-III\Source/os_q.c **** {
  28              		.loc 1 78 0
  29              		.cfi_startproc
  30              		@ args = 0, pretend = 0, frame = 24
  31              		@ frame_needed = 1, uses_anonymous_args = 0
  32 0000 80B5     		push	{r7, lr}
  33              		.cfi_def_cfa_offset 8
  34              		.cfi_offset 7, -8
  35              		.cfi_offset 14, -4
  36 0002 86B0     		sub	sp, sp, #24
ARM GAS  C:\Users\ADMINI~1\AppData\Local\Temp\ccKLo23z.s 			page 3


  37              		.cfi_def_cfa_offset 32
  38 0004 00AF     		add	r7, sp, #0
  39              		.cfi_def_cfa_register 7
  40 0006 F860     		str	r0, [r7, #12]
  41 0008 B960     		str	r1, [r7, #8]
  42 000a 3B60     		str	r3, [r7]
  43 000c BB1D     		adds	r3, r7, #6
  44 000e 1A80     		strh	r2, [r3]
  79:..\..\..\..\..\..\Software\uCOS-III\Source/os_q.c ****     CPU_SR_ALLOC();
  45              		.loc 1 79 0
  46 0010 0023     		movs	r3, #0
  47 0012 7B61     		str	r3, [r7, #20]
  80:..\..\..\..\..\..\Software\uCOS-III\Source/os_q.c **** 
  81:..\..\..\..\..\..\Software\uCOS-III\Source/os_q.c **** 
  82:..\..\..\..\..\..\Software\uCOS-III\Source/os_q.c **** 
  83:..\..\..\..\..\..\Software\uCOS-III\Source/os_q.c **** #ifdef OS_SAFETY_CRITICAL
  84:..\..\..\..\..\..\Software\uCOS-III\Source/os_q.c ****     if (p_err == DEF_NULL) {
  85:..\..\..\..\..\..\Software\uCOS-III\Source/os_q.c ****         OS_SAFETY_CRITICAL_EXCEPTION();
  86:..\..\..\..\..\..\Software\uCOS-III\Source/os_q.c ****         return;
  87:..\..\..\..\..\..\Software\uCOS-III\Source/os_q.c ****     }
  88:..\..\..\..\..\..\Software\uCOS-III\Source/os_q.c **** #endif
  89:..\..\..\..\..\..\Software\uCOS-III\Source/os_q.c **** 
  90:..\..\..\..\..\..\Software\uCOS-III\Source/os_q.c **** #ifdef OS_SAFETY_CRITICAL_IEC61508
  91:..\..\..\..\..\..\Software\uCOS-III\Source/os_q.c ****     if (OSSafetyCriticalStartFlag == DEF_TRUE) {
  92:..\..\..\..\..\..\Software\uCOS-III\Source/os_q.c ****        *p_err = OS_ERR_ILLEGAL_CREATE_RUN_TIME;
  93:..\..\..\..\..\..\Software\uCOS-III\Source/os_q.c ****         return;
  94:..\..\..\..\..\..\Software\uCOS-III\Source/os_q.c ****     }
  95:..\..\..\..\..\..\Software\uCOS-III\Source/os_q.c **** #endif
  96:..\..\..\..\..\..\Software\uCOS-III\Source/os_q.c **** 
  97:..\..\..\..\..\..\Software\uCOS-III\Source/os_q.c **** #if (OS_CFG_CALLED_FROM_ISR_CHK_EN == DEF_ENABLED)
  98:..\..\..\..\..\..\Software\uCOS-III\Source/os_q.c ****     if (OSIntNestingCtr > 0u) {                                 /* Not allowed to be called from an
  48              		.loc 1 98 0
  49 0014 234B     		ldr	r3, .L6
  50 0016 1B78     		ldrb	r3, [r3]
  51 0018 002B     		cmp	r3, #0
  52 001a 03D0     		beq	.L2
  99:..\..\..\..\..\..\Software\uCOS-III\Source/os_q.c ****        *p_err = OS_ERR_CREATE_ISR;
  53              		.loc 1 99 0
  54 001c 3B68     		ldr	r3, [r7]
  55 001e 224A     		ldr	r2, .L6+4
  56 0020 1A80     		strh	r2, [r3]
 100:..\..\..\..\..\..\Software\uCOS-III\Source/os_q.c ****         return;
  57              		.loc 1 100 0
  58 0022 3BE0     		b	.L1
  59              	.L2:
 101:..\..\..\..\..\..\Software\uCOS-III\Source/os_q.c ****     }
 102:..\..\..\..\..\..\Software\uCOS-III\Source/os_q.c **** #endif
 103:..\..\..\..\..\..\Software\uCOS-III\Source/os_q.c **** 
 104:..\..\..\..\..\..\Software\uCOS-III\Source/os_q.c **** #if (OS_CFG_ARG_CHK_EN == DEF_ENABLED)
 105:..\..\..\..\..\..\Software\uCOS-III\Source/os_q.c ****     if (p_q == DEF_NULL) {                                      /* Validate arguments              
  60              		.loc 1 105 0
  61 0024 FB68     		ldr	r3, [r7, #12]
  62 0026 002B     		cmp	r3, #0
  63 0028 03D1     		bne	.L4
 106:..\..\..\..\..\..\Software\uCOS-III\Source/os_q.c ****        *p_err = OS_ERR_OBJ_PTR_NULL;
  64              		.loc 1 106 0
  65 002a 3B68     		ldr	r3, [r7]
ARM GAS  C:\Users\ADMINI~1\AppData\Local\Temp\ccKLo23z.s 			page 4


  66 002c 1F4A     		ldr	r2, .L6+8
  67 002e 1A80     		strh	r2, [r3]
 107:..\..\..\..\..\..\Software\uCOS-III\Source/os_q.c ****         return;
  68              		.loc 1 107 0
  69 0030 34E0     		b	.L1
  70              	.L4:
 108:..\..\..\..\..\..\Software\uCOS-III\Source/os_q.c ****     }
 109:..\..\..\..\..\..\Software\uCOS-III\Source/os_q.c ****     if (max_qty == 0u) {                                        /* Cannot specify a zero size queue
  71              		.loc 1 109 0
  72 0032 BB1D     		adds	r3, r7, #6
  73 0034 1B88     		ldrh	r3, [r3]
  74 0036 002B     		cmp	r3, #0
  75 0038 03D1     		bne	.L5
 110:..\..\..\..\..\..\Software\uCOS-III\Source/os_q.c ****        *p_err = OS_ERR_Q_SIZE;
  76              		.loc 1 110 0
  77 003a 3B68     		ldr	r3, [r7]
  78 003c 1C4A     		ldr	r2, .L6+12
  79 003e 1A80     		strh	r2, [r3]
 111:..\..\..\..\..\..\Software\uCOS-III\Source/os_q.c ****         return;
  80              		.loc 1 111 0
  81 0040 2CE0     		b	.L1
  82              	.L5:
 112:..\..\..\..\..\..\Software\uCOS-III\Source/os_q.c ****     }
 113:..\..\..\..\..\..\Software\uCOS-III\Source/os_q.c **** #endif
 114:..\..\..\..\..\..\Software\uCOS-III\Source/os_q.c **** 
 115:..\..\..\..\..\..\Software\uCOS-III\Source/os_q.c ****     OS_CRITICAL_ENTER();
  83              		.loc 1 115 0
  84 0042 FFF7FEFF 		bl	CPU_SR_Save
  85 0046 0300     		movs	r3, r0
  86 0048 7B61     		str	r3, [r7, #20]
  87 004a FFF7FEFF 		bl	CPU_IntDisMeasStart
 116:..\..\..\..\..\..\Software\uCOS-III\Source/os_q.c **** #if (OS_OBJ_TYPE_REQ == DEF_ENABLED)
 117:..\..\..\..\..\..\Software\uCOS-III\Source/os_q.c ****     p_q->Type    = OS_OBJ_TYPE_Q;                               /* Mark the data structure as a mes
  88              		.loc 1 117 0
  89 004e FB68     		ldr	r3, [r7, #12]
  90 0050 184A     		ldr	r2, .L6+16
  91 0052 1A60     		str	r2, [r3]
 118:..\..\..\..\..\..\Software\uCOS-III\Source/os_q.c **** #endif
 119:..\..\..\..\..\..\Software\uCOS-III\Source/os_q.c **** #if (OS_CFG_DBG_EN == DEF_ENABLED)
 120:..\..\..\..\..\..\Software\uCOS-III\Source/os_q.c ****     p_q->NamePtr = p_name;
  92              		.loc 1 120 0
  93 0054 FB68     		ldr	r3, [r7, #12]
  94 0056 BA68     		ldr	r2, [r7, #8]
  95 0058 5A60     		str	r2, [r3, #4]
 121:..\..\..\..\..\..\Software\uCOS-III\Source/os_q.c **** #else
 122:..\..\..\..\..\..\Software\uCOS-III\Source/os_q.c ****     (void)&p_name;
 123:..\..\..\..\..\..\Software\uCOS-III\Source/os_q.c **** #endif
 124:..\..\..\..\..\..\Software\uCOS-III\Source/os_q.c ****     OS_MsgQInit(&p_q->MsgQ,                                     /* Initialize the queue            
  96              		.loc 1 124 0
  97 005a FB68     		ldr	r3, [r7, #12]
  98 005c 2033     		adds	r3, r3, #32
  99 005e 1A00     		movs	r2, r3
 100 0060 BB1D     		adds	r3, r7, #6
 101 0062 1B88     		ldrh	r3, [r3]
 102 0064 1900     		movs	r1, r3
 103 0066 1000     		movs	r0, r2
 104 0068 FFF7FEFF 		bl	OS_MsgQInit
ARM GAS  C:\Users\ADMINI~1\AppData\Local\Temp\ccKLo23z.s 			page 5


 125:..\..\..\..\..\..\Software\uCOS-III\Source/os_q.c ****                 max_qty);
 126:..\..\..\..\..\..\Software\uCOS-III\Source/os_q.c ****     OS_PendListInit(&p_q->PendList);                            /* Initialize the waiting list     
 105              		.loc 1 126 0
 106 006c FB68     		ldr	r3, [r7, #12]
 107 006e 0833     		adds	r3, r3, #8
 108 0070 1800     		movs	r0, r3
 109 0072 FFF7FEFF 		bl	OS_PendListInit
 127:..\..\..\..\..\..\Software\uCOS-III\Source/os_q.c **** 
 128:..\..\..\..\..\..\Software\uCOS-III\Source/os_q.c **** #if (OS_CFG_DBG_EN == DEF_ENABLED)
 129:..\..\..\..\..\..\Software\uCOS-III\Source/os_q.c ****     OS_QDbgListAdd(p_q);
 110              		.loc 1 129 0
 111 0076 FB68     		ldr	r3, [r7, #12]
 112 0078 1800     		movs	r0, r3
 113 007a FFF7FEFF 		bl	OS_QDbgListAdd
 130:..\..\..\..\..\..\Software\uCOS-III\Source/os_q.c ****     OSQQty++;                                                   /* One more queue created          
 114              		.loc 1 130 0
 115 007e 0E4B     		ldr	r3, .L6+20
 116 0080 1B88     		ldrh	r3, [r3]
 117 0082 0133     		adds	r3, r3, #1
 118 0084 9AB2     		uxth	r2, r3
 119 0086 0C4B     		ldr	r3, .L6+20
 120 0088 1A80     		strh	r2, [r3]
 131:..\..\..\..\..\..\Software\uCOS-III\Source/os_q.c **** #endif
 132:..\..\..\..\..\..\Software\uCOS-III\Source/os_q.c **** #if (defined(TRACE_CFG_EN) && (TRACE_CFG_EN == DEF_ENABLED))
 133:..\..\..\..\..\..\Software\uCOS-III\Source/os_q.c ****     TRACE_OS_Q_CREATE(p_q, p_name);                             /* Record the event.               
 134:..\..\..\..\..\..\Software\uCOS-III\Source/os_q.c **** #endif
 135:..\..\..\..\..\..\Software\uCOS-III\Source/os_q.c ****     OS_CRITICAL_EXIT_NO_SCHED();
 121              		.loc 1 135 0
 122 008a FFF7FEFF 		bl	CPU_IntDisMeasStop
 123 008e 7B69     		ldr	r3, [r7, #20]
 124 0090 1800     		movs	r0, r3
 125 0092 FFF7FEFF 		bl	CPU_SR_Restore
 136:..\..\..\..\..\..\Software\uCOS-III\Source/os_q.c ****    *p_err = OS_ERR_NONE;
 126              		.loc 1 136 0
 127 0096 3B68     		ldr	r3, [r7]
 128 0098 0022     		movs	r2, #0
 129 009a 1A80     		strh	r2, [r3]
 130              	.L1:
 137:..\..\..\..\..\..\Software\uCOS-III\Source/os_q.c **** }
 131              		.loc 1 137 0
 132 009c BD46     		mov	sp, r7
 133 009e 06B0     		add	sp, sp, #24
 134              		@ sp needed
 135 00a0 80BD     		pop	{r7, pc}
 136              	.L7:
 137 00a2 C046     		.align	2
 138              	.L6:
 139 00a4 00000000 		.word	OSIntNestingCtr
 140 00a8 E12E0000 		.word	12001
 141 00ac C35D0000 		.word	24003
 142 00b0 94650000 		.word	26004
 143 00b4 51554555 		.word	1430607185
 144 00b8 00000000 		.word	OSQQty
 145              		.cfi_endproc
 146              	.LFE0:
 147              		.size	OSQCreate, .-OSQCreate
 148              		.section	.text.OSQPend,"ax",%progbits
ARM GAS  C:\Users\ADMINI~1\AppData\Local\Temp\ccKLo23z.s 			page 6


 149              		.align	2
 150              		.global	OSQPend
 151              		.code	16
 152              		.thumb_func
 153              		.type	OSQPend, %function
 154              	OSQPend:
 155              	.LFB1:
 138:..\..\..\..\..\..\Software\uCOS-III\Source/os_q.c **** 
 139:..\..\..\..\..\..\Software\uCOS-III\Source/os_q.c **** 
 140:..\..\..\..\..\..\Software\uCOS-III\Source/os_q.c **** /*
 141:..\..\..\..\..\..\Software\uCOS-III\Source/os_q.c **** ***************************************************************************************************
 142:..\..\..\..\..\..\Software\uCOS-III\Source/os_q.c **** *                                               DELETE A MESSAGE QUEUE
 143:..\..\..\..\..\..\Software\uCOS-III\Source/os_q.c **** *
 144:..\..\..\..\..\..\Software\uCOS-III\Source/os_q.c **** * Description: This function deletes a message queue and readies all tasks pending on the queue.
 145:..\..\..\..\..\..\Software\uCOS-III\Source/os_q.c **** *
 146:..\..\..\..\..\..\Software\uCOS-III\Source/os_q.c **** * Arguments  : p_q       is a pointer to the message queue you want to delete
 147:..\..\..\..\..\..\Software\uCOS-III\Source/os_q.c **** *
 148:..\..\..\..\..\..\Software\uCOS-III\Source/os_q.c **** *              opt       determines delete options as follows:
 149:..\..\..\..\..\..\Software\uCOS-III\Source/os_q.c **** *
 150:..\..\..\..\..\..\Software\uCOS-III\Source/os_q.c **** *                            OS_OPT_DEL_NO_PEND          Delete the queue ONLY if no task pending
 151:..\..\..\..\..\..\Software\uCOS-III\Source/os_q.c **** *                            OS_OPT_DEL_ALWAYS           Deletes the queue even if tasks are waitin
 152:..\..\..\..\..\..\Software\uCOS-III\Source/os_q.c **** *                                                        In this case, all the tasks pending will b
 153:..\..\..\..\..\..\Software\uCOS-III\Source/os_q.c **** *
 154:..\..\..\..\..\..\Software\uCOS-III\Source/os_q.c **** *              p_err     is a pointer to a variable that will contain an error code returned by thi
 155:..\..\..\..\..\..\Software\uCOS-III\Source/os_q.c **** *
 156:..\..\..\..\..\..\Software\uCOS-III\Source/os_q.c **** *                            OS_ERR_NONE                    The call was successful and the queue w
 157:..\..\..\..\..\..\Software\uCOS-III\Source/os_q.c **** *                            OS_ERR_DEL_ISR                 If you tried to delete the queue from a
 158:..\..\..\..\..\..\Software\uCOS-III\Source/os_q.c **** *                            OS_ERR_ILLEGAL_DEL_RUN_TIME    If you are trying to delete the message
 159:..\..\..\..\..\..\Software\uCOS-III\Source/os_q.c **** *                                                             called OSStart()
 160:..\..\..\..\..\..\Software\uCOS-III\Source/os_q.c **** *                            OS_ERR_OBJ_PTR_NULL            If you pass a NULL pointer for 'p_q'
 161:..\..\..\..\..\..\Software\uCOS-III\Source/os_q.c **** *                            OS_ERR_OBJ_TYPE                If the message queue was not created
 162:..\..\..\..\..\..\Software\uCOS-III\Source/os_q.c **** *                            OS_ERR_OPT_INVALID             An invalid option was specified
 163:..\..\..\..\..\..\Software\uCOS-III\Source/os_q.c **** *                            OS_ERR_OS_NOT_RUNNING          If uC/OS-III is not running yet
 164:..\..\..\..\..\..\Software\uCOS-III\Source/os_q.c **** *                            OS_ERR_TASK_WAITING            One or more tasks were waiting on the q
 165:..\..\..\..\..\..\Software\uCOS-III\Source/os_q.c **** *
 166:..\..\..\..\..\..\Software\uCOS-III\Source/os_q.c **** * Returns    : == 0          if no tasks were waiting on the queue, or upon error.
 167:..\..\..\..\..\..\Software\uCOS-III\Source/os_q.c **** *              >  0          if one or more tasks waiting on the queue are now readied and informed
 168:..\..\..\..\..\..\Software\uCOS-III\Source/os_q.c **** *
 169:..\..\..\..\..\..\Software\uCOS-III\Source/os_q.c **** * Note(s)    : 1) This function must be used with care.  Tasks that would normally expect the prese
 170:..\..\..\..\..\..\Software\uCOS-III\Source/os_q.c **** *                 check the return code of OSQPend().
 171:..\..\..\..\..\..\Software\uCOS-III\Source/os_q.c **** *
 172:..\..\..\..\..\..\Software\uCOS-III\Source/os_q.c **** *              2) Because ALL tasks pending on the queue will be readied, you MUST be careful in ap
 173:..\..\..\..\..\..\Software\uCOS-III\Source/os_q.c **** *                 queue is used for mutual exclusion because the resource(s) will no longer be guar
 174:..\..\..\..\..\..\Software\uCOS-III\Source/os_q.c **** ***************************************************************************************************
 175:..\..\..\..\..\..\Software\uCOS-III\Source/os_q.c **** */
 176:..\..\..\..\..\..\Software\uCOS-III\Source/os_q.c **** 
 177:..\..\..\..\..\..\Software\uCOS-III\Source/os_q.c **** #if (OS_CFG_Q_DEL_EN == DEF_ENABLED)
 178:..\..\..\..\..\..\Software\uCOS-III\Source/os_q.c **** OS_OBJ_QTY  OSQDel (OS_Q    *p_q,
 179:..\..\..\..\..\..\Software\uCOS-III\Source/os_q.c ****                     OS_OPT   opt,
 180:..\..\..\..\..\..\Software\uCOS-III\Source/os_q.c ****                     OS_ERR  *p_err)
 181:..\..\..\..\..\..\Software\uCOS-III\Source/os_q.c **** {
 182:..\..\..\..\..\..\Software\uCOS-III\Source/os_q.c ****     OS_OBJ_QTY     nbr_tasks;
 183:..\..\..\..\..\..\Software\uCOS-III\Source/os_q.c ****     OS_PEND_DATA  *p_pend_data;
 184:..\..\..\..\..\..\Software\uCOS-III\Source/os_q.c ****     OS_PEND_LIST  *p_pend_list;
 185:..\..\..\..\..\..\Software\uCOS-III\Source/os_q.c ****     OS_TCB        *p_tcb;
 186:..\..\..\..\..\..\Software\uCOS-III\Source/os_q.c ****     CPU_TS         ts;
 187:..\..\..\..\..\..\Software\uCOS-III\Source/os_q.c ****     CPU_SR_ALLOC();
ARM GAS  C:\Users\ADMINI~1\AppData\Local\Temp\ccKLo23z.s 			page 7


 188:..\..\..\..\..\..\Software\uCOS-III\Source/os_q.c **** 
 189:..\..\..\..\..\..\Software\uCOS-III\Source/os_q.c **** 
 190:..\..\..\..\..\..\Software\uCOS-III\Source/os_q.c **** 
 191:..\..\..\..\..\..\Software\uCOS-III\Source/os_q.c **** #ifdef OS_SAFETY_CRITICAL
 192:..\..\..\..\..\..\Software\uCOS-III\Source/os_q.c ****     if (p_err == DEF_NULL) {
 193:..\..\..\..\..\..\Software\uCOS-III\Source/os_q.c ****         OS_SAFETY_CRITICAL_EXCEPTION();
 194:..\..\..\..\..\..\Software\uCOS-III\Source/os_q.c ****         return (0u);
 195:..\..\..\..\..\..\Software\uCOS-III\Source/os_q.c ****     }
 196:..\..\..\..\..\..\Software\uCOS-III\Source/os_q.c **** #endif
 197:..\..\..\..\..\..\Software\uCOS-III\Source/os_q.c **** 
 198:..\..\..\..\..\..\Software\uCOS-III\Source/os_q.c **** #ifdef OS_SAFETY_CRITICAL_IEC61508
 199:..\..\..\..\..\..\Software\uCOS-III\Source/os_q.c ****     if (OSSafetyCriticalStartFlag == DEF_TRUE) {
 200:..\..\..\..\..\..\Software\uCOS-III\Source/os_q.c ****        *p_err = OS_ERR_ILLEGAL_DEL_RUN_TIME;
 201:..\..\..\..\..\..\Software\uCOS-III\Source/os_q.c ****         return (0u);
 202:..\..\..\..\..\..\Software\uCOS-III\Source/os_q.c ****     }
 203:..\..\..\..\..\..\Software\uCOS-III\Source/os_q.c **** #endif
 204:..\..\..\..\..\..\Software\uCOS-III\Source/os_q.c **** 
 205:..\..\..\..\..\..\Software\uCOS-III\Source/os_q.c **** #if (OS_CFG_CALLED_FROM_ISR_CHK_EN == DEF_ENABLED)
 206:..\..\..\..\..\..\Software\uCOS-III\Source/os_q.c ****     if (OSIntNestingCtr > 0u) {                                 /* Can't delete a message queue fro
 207:..\..\..\..\..\..\Software\uCOS-III\Source/os_q.c ****        *p_err = OS_ERR_DEL_ISR;
 208:..\..\..\..\..\..\Software\uCOS-III\Source/os_q.c ****         return (0u);
 209:..\..\..\..\..\..\Software\uCOS-III\Source/os_q.c ****     }
 210:..\..\..\..\..\..\Software\uCOS-III\Source/os_q.c **** #endif
 211:..\..\..\..\..\..\Software\uCOS-III\Source/os_q.c **** 
 212:..\..\..\..\..\..\Software\uCOS-III\Source/os_q.c **** #if (OS_CFG_INVALID_OS_CALLS_CHK_EN == DEF_ENABLED)             /* Is the kernel running?          
 213:..\..\..\..\..\..\Software\uCOS-III\Source/os_q.c ****     if (OSRunning != OS_STATE_OS_RUNNING) {
 214:..\..\..\..\..\..\Software\uCOS-III\Source/os_q.c ****        *p_err = OS_ERR_OS_NOT_RUNNING;
 215:..\..\..\..\..\..\Software\uCOS-III\Source/os_q.c ****         return (0u);
 216:..\..\..\..\..\..\Software\uCOS-III\Source/os_q.c ****     }
 217:..\..\..\..\..\..\Software\uCOS-III\Source/os_q.c **** #endif
 218:..\..\..\..\..\..\Software\uCOS-III\Source/os_q.c **** 
 219:..\..\..\..\..\..\Software\uCOS-III\Source/os_q.c **** #if (OS_CFG_ARG_CHK_EN == DEF_ENABLED)
 220:..\..\..\..\..\..\Software\uCOS-III\Source/os_q.c ****     if (p_q == DEF_NULL) {                                      /* Validate 'p_q'                  
 221:..\..\..\..\..\..\Software\uCOS-III\Source/os_q.c ****        *p_err =  OS_ERR_OBJ_PTR_NULL;
 222:..\..\..\..\..\..\Software\uCOS-III\Source/os_q.c ****         return (0u);
 223:..\..\..\..\..\..\Software\uCOS-III\Source/os_q.c ****     }
 224:..\..\..\..\..\..\Software\uCOS-III\Source/os_q.c **** #endif
 225:..\..\..\..\..\..\Software\uCOS-III\Source/os_q.c **** 
 226:..\..\..\..\..\..\Software\uCOS-III\Source/os_q.c **** #if (OS_CFG_OBJ_TYPE_CHK_EN == DEF_ENABLED)
 227:..\..\..\..\..\..\Software\uCOS-III\Source/os_q.c ****     if (p_q->Type != OS_OBJ_TYPE_Q) {                           /* Make sure message queue was crea
 228:..\..\..\..\..\..\Software\uCOS-III\Source/os_q.c ****        *p_err = OS_ERR_OBJ_TYPE;
 229:..\..\..\..\..\..\Software\uCOS-III\Source/os_q.c ****         return (0u);
 230:..\..\..\..\..\..\Software\uCOS-III\Source/os_q.c ****     }
 231:..\..\..\..\..\..\Software\uCOS-III\Source/os_q.c **** #endif
 232:..\..\..\..\..\..\Software\uCOS-III\Source/os_q.c **** 
 233:..\..\..\..\..\..\Software\uCOS-III\Source/os_q.c ****     CPU_CRITICAL_ENTER();
 234:..\..\..\..\..\..\Software\uCOS-III\Source/os_q.c ****     p_pend_list = &p_q->PendList;
 235:..\..\..\..\..\..\Software\uCOS-III\Source/os_q.c ****     nbr_tasks   = 0u;
 236:..\..\..\..\..\..\Software\uCOS-III\Source/os_q.c ****     switch (opt) {
 237:..\..\..\..\..\..\Software\uCOS-III\Source/os_q.c ****         case OS_OPT_DEL_NO_PEND:                                /* Delete message queue only if no 
 238:..\..\..\..\..\..\Software\uCOS-III\Source/os_q.c ****              if (p_pend_list->HeadPtr == DEF_NULL) {
 239:..\..\..\..\..\..\Software\uCOS-III\Source/os_q.c **** #if (OS_CFG_DBG_EN == DEF_ENABLED)
 240:..\..\..\..\..\..\Software\uCOS-III\Source/os_q.c ****                  OS_QDbgListRemove(p_q);
 241:..\..\..\..\..\..\Software\uCOS-III\Source/os_q.c ****                  OSQQty--;
 242:..\..\..\..\..\..\Software\uCOS-III\Source/os_q.c **** #endif
 243:..\..\..\..\..\..\Software\uCOS-III\Source/os_q.c **** #if (defined(TRACE_CFG_EN) && (TRACE_CFG_EN == DEF_ENABLED))
 244:..\..\..\..\..\..\Software\uCOS-III\Source/os_q.c ****                  TRACE_OS_Q_DEL(p_q);                           /* Record the event.               
ARM GAS  C:\Users\ADMINI~1\AppData\Local\Temp\ccKLo23z.s 			page 8


 245:..\..\..\..\..\..\Software\uCOS-III\Source/os_q.c **** #endif
 246:..\..\..\..\..\..\Software\uCOS-III\Source/os_q.c ****                  OS_QClr(p_q);
 247:..\..\..\..\..\..\Software\uCOS-III\Source/os_q.c ****                  CPU_CRITICAL_EXIT();
 248:..\..\..\..\..\..\Software\uCOS-III\Source/os_q.c ****                 *p_err = OS_ERR_NONE;
 249:..\..\..\..\..\..\Software\uCOS-III\Source/os_q.c ****              } else {
 250:..\..\..\..\..\..\Software\uCOS-III\Source/os_q.c ****                  CPU_CRITICAL_EXIT();
 251:..\..\..\..\..\..\Software\uCOS-III\Source/os_q.c ****                 *p_err = OS_ERR_TASK_WAITING;
 252:..\..\..\..\..\..\Software\uCOS-III\Source/os_q.c ****              }
 253:..\..\..\..\..\..\Software\uCOS-III\Source/os_q.c ****              break;
 254:..\..\..\..\..\..\Software\uCOS-III\Source/os_q.c **** 
 255:..\..\..\..\..\..\Software\uCOS-III\Source/os_q.c ****         case OS_OPT_DEL_ALWAYS:                                 /* Always delete the message queue 
 256:..\..\..\..\..\..\Software\uCOS-III\Source/os_q.c ****              OS_CRITICAL_ENTER_CPU_EXIT();
 257:..\..\..\..\..\..\Software\uCOS-III\Source/os_q.c **** #if (OS_CFG_TS_EN == DEF_ENABLED)
 258:..\..\..\..\..\..\Software\uCOS-III\Source/os_q.c ****              ts = OS_TS_GET();                                  /* Get local time stamp so all task
 259:..\..\..\..\..\..\Software\uCOS-III\Source/os_q.c **** #else
 260:..\..\..\..\..\..\Software\uCOS-III\Source/os_q.c ****              ts = 0u;
 261:..\..\..\..\..\..\Software\uCOS-III\Source/os_q.c **** #endif
 262:..\..\..\..\..\..\Software\uCOS-III\Source/os_q.c ****              while (p_pend_list->HeadPtr != DEF_NULL) {         /* Remove all tasks from the pend l
 263:..\..\..\..\..\..\Software\uCOS-III\Source/os_q.c ****                  p_pend_data = p_pend_list->HeadPtr;
 264:..\..\..\..\..\..\Software\uCOS-III\Source/os_q.c ****                  p_tcb       = p_pend_data->TCBPtr;
 265:..\..\..\..\..\..\Software\uCOS-III\Source/os_q.c ****                  OS_PendObjDel((OS_PEND_OBJ *)((void *)p_q),
 266:..\..\..\..\..\..\Software\uCOS-III\Source/os_q.c ****                                p_tcb,
 267:..\..\..\..\..\..\Software\uCOS-III\Source/os_q.c ****                                ts);
 268:..\..\..\..\..\..\Software\uCOS-III\Source/os_q.c ****                  nbr_tasks++;
 269:..\..\..\..\..\..\Software\uCOS-III\Source/os_q.c ****              }
 270:..\..\..\..\..\..\Software\uCOS-III\Source/os_q.c **** #if (OS_CFG_DBG_EN == DEF_ENABLED)
 271:..\..\..\..\..\..\Software\uCOS-III\Source/os_q.c ****              OS_QDbgListRemove(p_q);
 272:..\..\..\..\..\..\Software\uCOS-III\Source/os_q.c ****              OSQQty--;
 273:..\..\..\..\..\..\Software\uCOS-III\Source/os_q.c **** #endif
 274:..\..\..\..\..\..\Software\uCOS-III\Source/os_q.c **** #if (defined(TRACE_CFG_EN) && (TRACE_CFG_EN == DEF_ENABLED))
 275:..\..\..\..\..\..\Software\uCOS-III\Source/os_q.c ****              TRACE_OS_Q_DEL(p_q);                               /* Record the event.               
 276:..\..\..\..\..\..\Software\uCOS-III\Source/os_q.c **** #endif
 277:..\..\..\..\..\..\Software\uCOS-III\Source/os_q.c ****              OS_QClr(p_q);
 278:..\..\..\..\..\..\Software\uCOS-III\Source/os_q.c ****              OS_CRITICAL_EXIT_NO_SCHED();
 279:..\..\..\..\..\..\Software\uCOS-III\Source/os_q.c ****              OSSched();                                         /* Find highest priority task ready
 280:..\..\..\..\..\..\Software\uCOS-III\Source/os_q.c ****             *p_err = OS_ERR_NONE;
 281:..\..\..\..\..\..\Software\uCOS-III\Source/os_q.c ****              break;
 282:..\..\..\..\..\..\Software\uCOS-III\Source/os_q.c **** 
 283:..\..\..\..\..\..\Software\uCOS-III\Source/os_q.c ****         default:
 284:..\..\..\..\..\..\Software\uCOS-III\Source/os_q.c ****              CPU_CRITICAL_EXIT();
 285:..\..\..\..\..\..\Software\uCOS-III\Source/os_q.c ****             *p_err = OS_ERR_OPT_INVALID;
 286:..\..\..\..\..\..\Software\uCOS-III\Source/os_q.c ****              break;
 287:..\..\..\..\..\..\Software\uCOS-III\Source/os_q.c ****     }
 288:..\..\..\..\..\..\Software\uCOS-III\Source/os_q.c ****     return (nbr_tasks);
 289:..\..\..\..\..\..\Software\uCOS-III\Source/os_q.c **** }
 290:..\..\..\..\..\..\Software\uCOS-III\Source/os_q.c **** #endif
 291:..\..\..\..\..\..\Software\uCOS-III\Source/os_q.c **** 
 292:..\..\..\..\..\..\Software\uCOS-III\Source/os_q.c **** 
 293:..\..\..\..\..\..\Software\uCOS-III\Source/os_q.c **** /*
 294:..\..\..\..\..\..\Software\uCOS-III\Source/os_q.c **** ***************************************************************************************************
 295:..\..\..\..\..\..\Software\uCOS-III\Source/os_q.c **** *                                                     FLUSH QUEUE
 296:..\..\..\..\..\..\Software\uCOS-III\Source/os_q.c **** *
 297:..\..\..\..\..\..\Software\uCOS-III\Source/os_q.c **** * Description : This function is used to flush the contents of the message queue.
 298:..\..\..\..\..\..\Software\uCOS-III\Source/os_q.c **** *
 299:..\..\..\..\..\..\Software\uCOS-III\Source/os_q.c **** * Arguments   : p_q        is a pointer to the message queue to flush
 300:..\..\..\..\..\..\Software\uCOS-III\Source/os_q.c **** *
 301:..\..\..\..\..\..\Software\uCOS-III\Source/os_q.c **** *               p_err      is a pointer to a variable that will contain an error code returned by t
ARM GAS  C:\Users\ADMINI~1\AppData\Local\Temp\ccKLo23z.s 			page 9


 302:..\..\..\..\..\..\Software\uCOS-III\Source/os_q.c **** *
 303:..\..\..\..\..\..\Software\uCOS-III\Source/os_q.c **** *                              OS_ERR_NONE              Upon success
 304:..\..\..\..\..\..\Software\uCOS-III\Source/os_q.c **** *                              OS_ERR_FLUSH_ISR         If you called this function from an ISR
 305:..\..\..\..\..\..\Software\uCOS-III\Source/os_q.c **** *                              OS_ERR_OBJ_PTR_NULL      If you passed a NULL pointer for 'p_q'
 306:..\..\..\..\..\..\Software\uCOS-III\Source/os_q.c **** *                              OS_ERR_OBJ_TYPE          If you didn't create the message queue
 307:..\..\..\..\..\..\Software\uCOS-III\Source/os_q.c **** *                              OS_ERR_OS_NOT_RUNNING    If uC/OS-III is not running yet
 308:..\..\..\..\..\..\Software\uCOS-III\Source/os_q.c **** *
 309:..\..\..\..\..\..\Software\uCOS-III\Source/os_q.c **** * Returns     : == 0       if no entries were freed, or upon error.
 310:..\..\..\..\..\..\Software\uCOS-III\Source/os_q.c **** *               >  0       the number of freed entries.
 311:..\..\..\..\..\..\Software\uCOS-III\Source/os_q.c **** *
 312:..\..\..\..\..\..\Software\uCOS-III\Source/os_q.c **** * Note(s)     : 1) You should use this function with great care because, when to flush the queue, y
 313:..\..\..\..\..\..\Software\uCOS-III\Source/os_q.c **** *                  references to what the queue entries are pointing to and thus, you could cause '
 314:..\..\..\..\..\..\Software\uCOS-III\Source/os_q.c **** *                  other words, the data you are pointing to that's being referenced by the queue e
 315:..\..\..\..\..\..\Software\uCOS-III\Source/os_q.c **** *                  likely, need to be de-allocated (i.e. freed).
 316:..\..\..\..\..\..\Software\uCOS-III\Source/os_q.c **** ***************************************************************************************************
 317:..\..\..\..\..\..\Software\uCOS-III\Source/os_q.c **** */
 318:..\..\..\..\..\..\Software\uCOS-III\Source/os_q.c **** 
 319:..\..\..\..\..\..\Software\uCOS-III\Source/os_q.c **** #if (OS_CFG_Q_FLUSH_EN == DEF_ENABLED)
 320:..\..\..\..\..\..\Software\uCOS-III\Source/os_q.c **** OS_MSG_QTY  OSQFlush (OS_Q    *p_q,
 321:..\..\..\..\..\..\Software\uCOS-III\Source/os_q.c ****                       OS_ERR  *p_err)
 322:..\..\..\..\..\..\Software\uCOS-III\Source/os_q.c **** {
 323:..\..\..\..\..\..\Software\uCOS-III\Source/os_q.c ****     OS_MSG_QTY  entries;
 324:..\..\..\..\..\..\Software\uCOS-III\Source/os_q.c ****     CPU_SR_ALLOC();
 325:..\..\..\..\..\..\Software\uCOS-III\Source/os_q.c **** 
 326:..\..\..\..\..\..\Software\uCOS-III\Source/os_q.c **** 
 327:..\..\..\..\..\..\Software\uCOS-III\Source/os_q.c **** 
 328:..\..\..\..\..\..\Software\uCOS-III\Source/os_q.c **** #ifdef OS_SAFETY_CRITICAL
 329:..\..\..\..\..\..\Software\uCOS-III\Source/os_q.c ****     if (p_err == DEF_NULL) {
 330:..\..\..\..\..\..\Software\uCOS-III\Source/os_q.c ****         OS_SAFETY_CRITICAL_EXCEPTION();
 331:..\..\..\..\..\..\Software\uCOS-III\Source/os_q.c ****         return (0u);
 332:..\..\..\..\..\..\Software\uCOS-III\Source/os_q.c ****     }
 333:..\..\..\..\..\..\Software\uCOS-III\Source/os_q.c **** #endif
 334:..\..\..\..\..\..\Software\uCOS-III\Source/os_q.c **** 
 335:..\..\..\..\..\..\Software\uCOS-III\Source/os_q.c **** #if (OS_CFG_CALLED_FROM_ISR_CHK_EN == DEF_ENABLED)
 336:..\..\..\..\..\..\Software\uCOS-III\Source/os_q.c ****     if (OSIntNestingCtr > 0u) {                                 /* Can't flush a message queue from
 337:..\..\..\..\..\..\Software\uCOS-III\Source/os_q.c ****        *p_err = OS_ERR_FLUSH_ISR;
 338:..\..\..\..\..\..\Software\uCOS-III\Source/os_q.c ****         return (0u);
 339:..\..\..\..\..\..\Software\uCOS-III\Source/os_q.c ****     }
 340:..\..\..\..\..\..\Software\uCOS-III\Source/os_q.c **** #endif
 341:..\..\..\..\..\..\Software\uCOS-III\Source/os_q.c **** 
 342:..\..\..\..\..\..\Software\uCOS-III\Source/os_q.c **** #if (OS_CFG_INVALID_OS_CALLS_CHK_EN == DEF_ENABLED)             /* Is the kernel running?          
 343:..\..\..\..\..\..\Software\uCOS-III\Source/os_q.c ****     if (OSRunning != OS_STATE_OS_RUNNING) {
 344:..\..\..\..\..\..\Software\uCOS-III\Source/os_q.c ****        *p_err = OS_ERR_OS_NOT_RUNNING;
 345:..\..\..\..\..\..\Software\uCOS-III\Source/os_q.c ****         return (0u);
 346:..\..\..\..\..\..\Software\uCOS-III\Source/os_q.c ****     }
 347:..\..\..\..\..\..\Software\uCOS-III\Source/os_q.c **** #endif
 348:..\..\..\..\..\..\Software\uCOS-III\Source/os_q.c **** 
 349:..\..\..\..\..\..\Software\uCOS-III\Source/os_q.c **** #if (OS_CFG_ARG_CHK_EN == DEF_ENABLED)
 350:..\..\..\..\..\..\Software\uCOS-III\Source/os_q.c ****     if (p_q == DEF_NULL) {                                      /* Validate arguments              
 351:..\..\..\..\..\..\Software\uCOS-III\Source/os_q.c ****        *p_err = OS_ERR_OBJ_PTR_NULL;
 352:..\..\..\..\..\..\Software\uCOS-III\Source/os_q.c ****         return (0u);
 353:..\..\..\..\..\..\Software\uCOS-III\Source/os_q.c ****     }
 354:..\..\..\..\..\..\Software\uCOS-III\Source/os_q.c **** #endif
 355:..\..\..\..\..\..\Software\uCOS-III\Source/os_q.c **** 
 356:..\..\..\..\..\..\Software\uCOS-III\Source/os_q.c **** #if (OS_CFG_OBJ_TYPE_CHK_EN == DEF_ENABLED)
 357:..\..\..\..\..\..\Software\uCOS-III\Source/os_q.c ****     if (p_q->Type != OS_OBJ_TYPE_Q) {                           /* Make sure message queue was crea
 358:..\..\..\..\..\..\Software\uCOS-III\Source/os_q.c ****        *p_err = OS_ERR_OBJ_TYPE;
ARM GAS  C:\Users\ADMINI~1\AppData\Local\Temp\ccKLo23z.s 			page 10


 359:..\..\..\..\..\..\Software\uCOS-III\Source/os_q.c ****         return (0u);
 360:..\..\..\..\..\..\Software\uCOS-III\Source/os_q.c ****     }
 361:..\..\..\..\..\..\Software\uCOS-III\Source/os_q.c **** #endif
 362:..\..\..\..\..\..\Software\uCOS-III\Source/os_q.c **** 
 363:..\..\..\..\..\..\Software\uCOS-III\Source/os_q.c ****     OS_CRITICAL_ENTER();
 364:..\..\..\..\..\..\Software\uCOS-III\Source/os_q.c ****     entries = OS_MsgQFreeAll(&p_q->MsgQ);                       /* Return all OS_MSGs to the OS_MSG
 365:..\..\..\..\..\..\Software\uCOS-III\Source/os_q.c ****     OS_CRITICAL_EXIT();
 366:..\..\..\..\..\..\Software\uCOS-III\Source/os_q.c ****    *p_err   = OS_ERR_NONE;
 367:..\..\..\..\..\..\Software\uCOS-III\Source/os_q.c ****     return (entries);
 368:..\..\..\..\..\..\Software\uCOS-III\Source/os_q.c **** }
 369:..\..\..\..\..\..\Software\uCOS-III\Source/os_q.c **** #endif
 370:..\..\..\..\..\..\Software\uCOS-III\Source/os_q.c **** 
 371:..\..\..\..\..\..\Software\uCOS-III\Source/os_q.c **** 
 372:..\..\..\..\..\..\Software\uCOS-III\Source/os_q.c **** /*
 373:..\..\..\..\..\..\Software\uCOS-III\Source/os_q.c **** ***************************************************************************************************
 374:..\..\..\..\..\..\Software\uCOS-III\Source/os_q.c **** *                                            PEND ON A QUEUE FOR A MESSAGE
 375:..\..\..\..\..\..\Software\uCOS-III\Source/os_q.c **** *
 376:..\..\..\..\..\..\Software\uCOS-III\Source/os_q.c **** * Description: This function waits for a message to be sent to a queue.
 377:..\..\..\..\..\..\Software\uCOS-III\Source/os_q.c **** *
 378:..\..\..\..\..\..\Software\uCOS-III\Source/os_q.c **** * Arguments  : p_q           is a pointer to the message queue
 379:..\..\..\..\..\..\Software\uCOS-III\Source/os_q.c **** *
 380:..\..\..\..\..\..\Software\uCOS-III\Source/os_q.c **** *              timeout       is an optional timeout period (in clock ticks).  If non-zero, your tas
 381:..\..\..\..\..\..\Software\uCOS-III\Source/os_q.c **** *                            message to arrive at the queue up to the amount of time specified by t
 382:..\..\..\..\..\..\Software\uCOS-III\Source/os_q.c **** *                            specify 0, however, your task will wait forever at the specified queue
 383:..\..\..\..\..\..\Software\uCOS-III\Source/os_q.c **** *                            arrives.
 384:..\..\..\..\..\..\Software\uCOS-III\Source/os_q.c **** *
 385:..\..\..\..\..\..\Software\uCOS-III\Source/os_q.c **** *              opt           determines whether the user wants to block if the queue is empty or no
 386:..\..\..\..\..\..\Software\uCOS-III\Source/os_q.c **** *
 387:..\..\..\..\..\..\Software\uCOS-III\Source/os_q.c **** *                                OS_OPT_PEND_BLOCKING
 388:..\..\..\..\..\..\Software\uCOS-III\Source/os_q.c **** *                                OS_OPT_PEND_NON_BLOCKING
 389:..\..\..\..\..\..\Software\uCOS-III\Source/os_q.c **** *
 390:..\..\..\..\..\..\Software\uCOS-III\Source/os_q.c **** *              p_msg_size    is a pointer to a variable that will receive the size of the message
 391:..\..\..\..\..\..\Software\uCOS-III\Source/os_q.c **** *
 392:..\..\..\..\..\..\Software\uCOS-III\Source/os_q.c **** *              p_ts          is a pointer to a variable that will receive the timestamp of when the
 393:..\..\..\..\..\..\Software\uCOS-III\Source/os_q.c **** *                            received, pend aborted or the message queue deleted,  If you pass a NU
 394:..\..\..\..\..\..\Software\uCOS-III\Source/os_q.c **** *                            (CPU_TS *)0) then you will not get the timestamp.  In other words, pas
 395:..\..\..\..\..\..\Software\uCOS-III\Source/os_q.c **** *                            is valid and indicates that you don't need the timestamp.
 396:..\..\..\..\..\..\Software\uCOS-III\Source/os_q.c **** *
 397:..\..\..\..\..\..\Software\uCOS-III\Source/os_q.c **** *              p_err         is a pointer to a variable that will contain an error code returned by
 398:..\..\..\..\..\..\Software\uCOS-III\Source/os_q.c **** *
 399:..\..\..\..\..\..\Software\uCOS-III\Source/os_q.c **** *                                OS_ERR_NONE               The call was successful and your task re
 400:..\..\..\..\..\..\Software\uCOS-III\Source/os_q.c **** *                                OS_ERR_OBJ_DEL            If 'p_q' was deleted
 401:..\..\..\..\..\..\Software\uCOS-III\Source/os_q.c **** *                                OS_ERR_OBJ_PTR_NULL       If you pass a NULL pointer for 'p_q'
 402:..\..\..\..\..\..\Software\uCOS-III\Source/os_q.c **** *                                OS_ERR_OBJ_TYPE           If the message queue was not created
 403:..\..\..\..\..\..\Software\uCOS-III\Source/os_q.c **** *                                OS_ERR_OPT_INVALID        You specified an invalid option
 404:..\..\..\..\..\..\Software\uCOS-III\Source/os_q.c **** *                                OS_ERR_OS_NOT_RUNNING     If uC/OS-III is not running yet
 405:..\..\..\..\..\..\Software\uCOS-III\Source/os_q.c **** *                                OS_ERR_PEND_ABORT         The pend was aborted
 406:..\..\..\..\..\..\Software\uCOS-III\Source/os_q.c **** *                                OS_ERR_PEND_ISR           If you called this function from an ISR
 407:..\..\..\..\..\..\Software\uCOS-III\Source/os_q.c **** *                                OS_ERR_PEND_WOULD_BLOCK   If you specified non-blocking but the qu
 408:..\..\..\..\..\..\Software\uCOS-III\Source/os_q.c **** *                                OS_ERR_PTR_INVALID        If you passed a NULL pointer of 'p_msg_s
 409:..\..\..\..\..\..\Software\uCOS-III\Source/os_q.c **** *                                OS_ERR_SCHED_LOCKED       The scheduler is locked
 410:..\..\..\..\..\..\Software\uCOS-III\Source/os_q.c **** *                                OS_ERR_STATUS_INVALID     If the pend status has an invalid value
 411:..\..\..\..\..\..\Software\uCOS-III\Source/os_q.c **** *                                OS_ERR_TIMEOUT            A message was not received within the sp
 412:..\..\..\..\..\..\Software\uCOS-III\Source/os_q.c **** *                                                          would lead to a suspension.
 413:..\..\..\..\..\..\Software\uCOS-III\Source/os_q.c **** *
 414:..\..\..\..\..\..\Software\uCOS-III\Source/os_q.c **** * Returns    : != (void *)0  is a pointer to the message received
 415:..\..\..\..\..\..\Software\uCOS-III\Source/os_q.c **** *              == (void *)0  if you received a NULL pointer message or,
ARM GAS  C:\Users\ADMINI~1\AppData\Local\Temp\ccKLo23z.s 			page 11


 416:..\..\..\..\..\..\Software\uCOS-III\Source/os_q.c **** *                            if no message was received or,
 417:..\..\..\..\..\..\Software\uCOS-III\Source/os_q.c **** *                            if 'p_q' is a NULL pointer or,
 418:..\..\..\..\..\..\Software\uCOS-III\Source/os_q.c **** *                            if you didn't pass a pointer to a queue.
 419:..\..\..\..\..\..\Software\uCOS-III\Source/os_q.c **** *
 420:..\..\..\..\..\..\Software\uCOS-III\Source/os_q.c **** * Note(s)    : none
 421:..\..\..\..\..\..\Software\uCOS-III\Source/os_q.c **** ***************************************************************************************************
 422:..\..\..\..\..\..\Software\uCOS-III\Source/os_q.c **** */
 423:..\..\..\..\..\..\Software\uCOS-III\Source/os_q.c **** 
 424:..\..\..\..\..\..\Software\uCOS-III\Source/os_q.c **** void  *OSQPend (OS_Q         *p_q,
 425:..\..\..\..\..\..\Software\uCOS-III\Source/os_q.c ****                 OS_TICK       timeout,
 426:..\..\..\..\..\..\Software\uCOS-III\Source/os_q.c ****                 OS_OPT        opt,
 427:..\..\..\..\..\..\Software\uCOS-III\Source/os_q.c ****                 OS_MSG_SIZE  *p_msg_size,
 428:..\..\..\..\..\..\Software\uCOS-III\Source/os_q.c ****                 CPU_TS       *p_ts,
 429:..\..\..\..\..\..\Software\uCOS-III\Source/os_q.c ****                 OS_ERR       *p_err)
 430:..\..\..\..\..\..\Software\uCOS-III\Source/os_q.c **** {
 156              		.loc 1 430 0
 157              		.cfi_startproc
 158              		@ args = 8, pretend = 0, frame = 56
 159              		@ frame_needed = 1, uses_anonymous_args = 0
 160 0000 80B5     		push	{r7, lr}
 161              		.cfi_def_cfa_offset 8
 162              		.cfi_offset 7, -8
 163              		.cfi_offset 14, -4
 164 0002 8EB0     		sub	sp, sp, #56
 165              		.cfi_def_cfa_offset 64
 166 0004 00AF     		add	r7, sp, #0
 167              		.cfi_def_cfa_register 7
 168 0006 F860     		str	r0, [r7, #12]
 169 0008 B960     		str	r1, [r7, #8]
 170 000a 3B60     		str	r3, [r7]
 171 000c BB1D     		adds	r3, r7, #6
 172 000e 1A80     		strh	r2, [r3]
 431:..\..\..\..\..\..\Software\uCOS-III\Source/os_q.c ****     OS_PEND_DATA  pend_data;
 432:..\..\..\..\..\..\Software\uCOS-III\Source/os_q.c ****     void         *p_void;
 433:..\..\..\..\..\..\Software\uCOS-III\Source/os_q.c ****     CPU_SR_ALLOC();
 173              		.loc 1 433 0
 174 0010 0023     		movs	r3, #0
 175 0012 3B63     		str	r3, [r7, #48]
 434:..\..\..\..\..\..\Software\uCOS-III\Source/os_q.c **** 
 435:..\..\..\..\..\..\Software\uCOS-III\Source/os_q.c **** 
 436:..\..\..\..\..\..\Software\uCOS-III\Source/os_q.c **** #ifdef OS_SAFETY_CRITICAL
 437:..\..\..\..\..\..\Software\uCOS-III\Source/os_q.c ****     if (p_err == DEF_NULL) {
 438:..\..\..\..\..\..\Software\uCOS-III\Source/os_q.c ****         OS_SAFETY_CRITICAL_EXCEPTION();
 439:..\..\..\..\..\..\Software\uCOS-III\Source/os_q.c ****         return (DEF_NULL);
 440:..\..\..\..\..\..\Software\uCOS-III\Source/os_q.c ****     }
 441:..\..\..\..\..\..\Software\uCOS-III\Source/os_q.c **** #endif
 442:..\..\..\..\..\..\Software\uCOS-III\Source/os_q.c **** 
 443:..\..\..\..\..\..\Software\uCOS-III\Source/os_q.c **** #if (OS_CFG_CALLED_FROM_ISR_CHK_EN == DEF_ENABLED)
 444:..\..\..\..\..\..\Software\uCOS-III\Source/os_q.c ****     if (OSIntNestingCtr > 0u) {                                 /* Not allowed to call from an ISR 
 176              		.loc 1 444 0
 177 0014 704B     		ldr	r3, .L32
 178 0016 1B78     		ldrb	r3, [r3]
 179 0018 002B     		cmp	r3, #0
 180 001a 04D0     		beq	.L9
 445:..\..\..\..\..\..\Software\uCOS-III\Source/os_q.c **** #if (defined(TRACE_CFG_EN) && (TRACE_CFG_EN == DEF_ENABLED))
 446:..\..\..\..\..\..\Software\uCOS-III\Source/os_q.c ****         TRACE_OS_Q_PEND_FAILED(p_q);                            /* Record the event.               
 447:..\..\..\..\..\..\Software\uCOS-III\Source/os_q.c **** #endif
ARM GAS  C:\Users\ADMINI~1\AppData\Local\Temp\ccKLo23z.s 			page 12


 448:..\..\..\..\..\..\Software\uCOS-III\Source/os_q.c ****        *p_err = OS_ERR_PEND_ISR;
 181              		.loc 1 448 0
 182 001c 7B6C     		ldr	r3, [r7, #68]
 183 001e 6F4A     		ldr	r2, .L32+4
 184 0020 1A80     		strh	r2, [r3]
 449:..\..\..\..\..\..\Software\uCOS-III\Source/os_q.c ****         return (DEF_NULL);
 185              		.loc 1 449 0
 186 0022 0023     		movs	r3, #0
 187 0024 D3E0     		b	.L30
 188              	.L9:
 450:..\..\..\..\..\..\Software\uCOS-III\Source/os_q.c ****     }
 451:..\..\..\..\..\..\Software\uCOS-III\Source/os_q.c **** #endif
 452:..\..\..\..\..\..\Software\uCOS-III\Source/os_q.c **** 
 453:..\..\..\..\..\..\Software\uCOS-III\Source/os_q.c **** #if (OS_CFG_INVALID_OS_CALLS_CHK_EN == DEF_ENABLED)             /* Is the kernel running?          
 454:..\..\..\..\..\..\Software\uCOS-III\Source/os_q.c ****     if (OSRunning != OS_STATE_OS_RUNNING) {
 455:..\..\..\..\..\..\Software\uCOS-III\Source/os_q.c ****        *p_err = OS_ERR_OS_NOT_RUNNING;
 456:..\..\..\..\..\..\Software\uCOS-III\Source/os_q.c ****         return (DEF_NULL);
 457:..\..\..\..\..\..\Software\uCOS-III\Source/os_q.c ****     }
 458:..\..\..\..\..\..\Software\uCOS-III\Source/os_q.c **** #endif
 459:..\..\..\..\..\..\Software\uCOS-III\Source/os_q.c **** 
 460:..\..\..\..\..\..\Software\uCOS-III\Source/os_q.c **** #if (OS_CFG_ARG_CHK_EN == DEF_ENABLED)
 461:..\..\..\..\..\..\Software\uCOS-III\Source/os_q.c ****     if (p_q == DEF_NULL) {                                      /* Validate arguments              
 189              		.loc 1 461 0
 190 0026 FB68     		ldr	r3, [r7, #12]
 191 0028 002B     		cmp	r3, #0
 192 002a 04D1     		bne	.L11
 462:..\..\..\..\..\..\Software\uCOS-III\Source/os_q.c **** #if (defined(TRACE_CFG_EN) && (TRACE_CFG_EN == DEF_ENABLED))
 463:..\..\..\..\..\..\Software\uCOS-III\Source/os_q.c ****         TRACE_OS_Q_PEND_FAILED(p_q);                            /* Record the event.               
 464:..\..\..\..\..\..\Software\uCOS-III\Source/os_q.c **** #endif
 465:..\..\..\..\..\..\Software\uCOS-III\Source/os_q.c ****        *p_err = OS_ERR_OBJ_PTR_NULL;
 193              		.loc 1 465 0
 194 002c 7B6C     		ldr	r3, [r7, #68]
 195 002e 6C4A     		ldr	r2, .L32+8
 196 0030 1A80     		strh	r2, [r3]
 466:..\..\..\..\..\..\Software\uCOS-III\Source/os_q.c ****         return (DEF_NULL);
 197              		.loc 1 466 0
 198 0032 0023     		movs	r3, #0
 199 0034 CBE0     		b	.L30
 200              	.L11:
 467:..\..\..\..\..\..\Software\uCOS-III\Source/os_q.c ****     }
 468:..\..\..\..\..\..\Software\uCOS-III\Source/os_q.c ****     if (p_msg_size == DEF_NULL) {
 201              		.loc 1 468 0
 202 0036 3B68     		ldr	r3, [r7]
 203 0038 002B     		cmp	r3, #0
 204 003a 04D1     		bne	.L12
 469:..\..\..\..\..\..\Software\uCOS-III\Source/os_q.c **** #if (defined(TRACE_CFG_EN) && (TRACE_CFG_EN == DEF_ENABLED))
 470:..\..\..\..\..\..\Software\uCOS-III\Source/os_q.c ****         TRACE_OS_Q_PEND_FAILED(p_q);                            /* Record the event.               
 471:..\..\..\..\..\..\Software\uCOS-III\Source/os_q.c **** #endif
 472:..\..\..\..\..\..\Software\uCOS-III\Source/os_q.c ****        *p_err = OS_ERR_PTR_INVALID;
 205              		.loc 1 472 0
 206 003c 7B6C     		ldr	r3, [r7, #68]
 207 003e 694A     		ldr	r2, .L32+12
 208 0040 1A80     		strh	r2, [r3]
 473:..\..\..\..\..\..\Software\uCOS-III\Source/os_q.c ****         return (DEF_NULL);
 209              		.loc 1 473 0
 210 0042 0023     		movs	r3, #0
 211 0044 C3E0     		b	.L30
ARM GAS  C:\Users\ADMINI~1\AppData\Local\Temp\ccKLo23z.s 			page 13


 212              	.L12:
 474:..\..\..\..\..\..\Software\uCOS-III\Source/os_q.c ****     }
 475:..\..\..\..\..\..\Software\uCOS-III\Source/os_q.c ****     switch (opt) {
 213              		.loc 1 475 0
 214 0046 BB1D     		adds	r3, r7, #6
 215 0048 1B88     		ldrh	r3, [r3]
 216 004a 002B     		cmp	r3, #0
 217 004c 08D0     		beq	.L31
 218 004e 8022     		movs	r2, #128
 219 0050 1202     		lsls	r2, r2, #8
 220 0052 9342     		cmp	r3, r2
 221 0054 04D0     		beq	.L31
 476:..\..\..\..\..\..\Software\uCOS-III\Source/os_q.c ****         case OS_OPT_PEND_BLOCKING:
 477:..\..\..\..\..\..\Software\uCOS-III\Source/os_q.c ****         case OS_OPT_PEND_NON_BLOCKING:
 478:..\..\..\..\..\..\Software\uCOS-III\Source/os_q.c ****              break;
 479:..\..\..\..\..\..\Software\uCOS-III\Source/os_q.c **** 
 480:..\..\..\..\..\..\Software\uCOS-III\Source/os_q.c ****         default:
 481:..\..\..\..\..\..\Software\uCOS-III\Source/os_q.c **** #if (defined(TRACE_CFG_EN) && (TRACE_CFG_EN == DEF_ENABLED))
 482:..\..\..\..\..\..\Software\uCOS-III\Source/os_q.c ****              TRACE_OS_Q_PEND_FAILED(p_q);                       /* Record the event.               
 483:..\..\..\..\..\..\Software\uCOS-III\Source/os_q.c **** #endif
 484:..\..\..\..\..\..\Software\uCOS-III\Source/os_q.c ****             *p_err = OS_ERR_OPT_INVALID;
 222              		.loc 1 484 0
 223 0056 7B6C     		ldr	r3, [r7, #68]
 224 0058 634A     		ldr	r2, .L32+16
 225 005a 1A80     		strh	r2, [r3]
 485:..\..\..\..\..\..\Software\uCOS-III\Source/os_q.c ****              return (DEF_NULL);
 226              		.loc 1 485 0
 227 005c 0023     		movs	r3, #0
 228 005e B6E0     		b	.L30
 229              	.L31:
 478:..\..\..\..\..\..\Software\uCOS-III\Source/os_q.c **** 
 230              		.loc 1 478 0
 231 0060 C046     		nop
 486:..\..\..\..\..\..\Software\uCOS-III\Source/os_q.c ****     }
 487:..\..\..\..\..\..\Software\uCOS-III\Source/os_q.c **** #endif
 488:..\..\..\..\..\..\Software\uCOS-III\Source/os_q.c **** 
 489:..\..\..\..\..\..\Software\uCOS-III\Source/os_q.c **** #if (OS_CFG_OBJ_TYPE_CHK_EN == DEF_ENABLED)
 490:..\..\..\..\..\..\Software\uCOS-III\Source/os_q.c ****     if (p_q->Type != OS_OBJ_TYPE_Q) {                           /* Make sure message queue was crea
 491:..\..\..\..\..\..\Software\uCOS-III\Source/os_q.c **** #if (defined(TRACE_CFG_EN) && (TRACE_CFG_EN == DEF_ENABLED))
 492:..\..\..\..\..\..\Software\uCOS-III\Source/os_q.c ****         TRACE_OS_Q_PEND_FAILED(p_q);                            /* Record the event.               
 493:..\..\..\..\..\..\Software\uCOS-III\Source/os_q.c **** #endif
 494:..\..\..\..\..\..\Software\uCOS-III\Source/os_q.c ****        *p_err = OS_ERR_OBJ_TYPE;
 495:..\..\..\..\..\..\Software\uCOS-III\Source/os_q.c ****         return (DEF_NULL);
 496:..\..\..\..\..\..\Software\uCOS-III\Source/os_q.c ****     }
 497:..\..\..\..\..\..\Software\uCOS-III\Source/os_q.c **** #endif
 498:..\..\..\..\..\..\Software\uCOS-III\Source/os_q.c **** 
 499:..\..\..\..\..\..\Software\uCOS-III\Source/os_q.c ****     if (p_ts != DEF_NULL) {
 232              		.loc 1 499 0
 233 0062 3B6C     		ldr	r3, [r7, #64]
 234 0064 002B     		cmp	r3, #0
 235 0066 02D0     		beq	.L16
 500:..\..\..\..\..\..\Software\uCOS-III\Source/os_q.c ****        *p_ts = 0u;                                              /* Initialize the returned timestam
 236              		.loc 1 500 0
 237 0068 3B6C     		ldr	r3, [r7, #64]
 238 006a 0022     		movs	r2, #0
 239 006c 1A60     		str	r2, [r3]
 240              	.L16:
ARM GAS  C:\Users\ADMINI~1\AppData\Local\Temp\ccKLo23z.s 			page 14


 501:..\..\..\..\..\..\Software\uCOS-III\Source/os_q.c ****     }
 502:..\..\..\..\..\..\Software\uCOS-III\Source/os_q.c **** 
 503:..\..\..\..\..\..\Software\uCOS-III\Source/os_q.c ****     CPU_CRITICAL_ENTER();
 241              		.loc 1 503 0
 242 006e FFF7FEFF 		bl	CPU_SR_Save
 243 0072 0300     		movs	r3, r0
 244 0074 3B63     		str	r3, [r7, #48]
 245 0076 FFF7FEFF 		bl	CPU_IntDisMeasStart
 504:..\..\..\..\..\..\Software\uCOS-III\Source/os_q.c ****     p_void = OS_MsgQGet(&p_q->MsgQ,                             /* Any message waiting in the messa
 246              		.loc 1 504 0
 247 007a FB68     		ldr	r3, [r7, #12]
 248 007c 2033     		adds	r3, r3, #32
 249 007e 1800     		movs	r0, r3
 250 0080 7B6C     		ldr	r3, [r7, #68]
 251 0082 3A6C     		ldr	r2, [r7, #64]
 252 0084 3968     		ldr	r1, [r7]
 253 0086 FFF7FEFF 		bl	OS_MsgQGet
 254 008a 0300     		movs	r3, r0
 255 008c 7B63     		str	r3, [r7, #52]
 505:..\..\..\..\..\..\Software\uCOS-III\Source/os_q.c ****                         p_msg_size,
 506:..\..\..\..\..\..\Software\uCOS-III\Source/os_q.c ****                         p_ts,
 507:..\..\..\..\..\..\Software\uCOS-III\Source/os_q.c ****                         p_err);
 508:..\..\..\..\..\..\Software\uCOS-III\Source/os_q.c ****     if (*p_err == OS_ERR_NONE) {
 256              		.loc 1 508 0
 257 008e 7B6C     		ldr	r3, [r7, #68]
 258 0090 1B88     		ldrh	r3, [r3]
 259 0092 002B     		cmp	r3, #0
 260 0094 07D1     		bne	.L17
 509:..\..\..\..\..\..\Software\uCOS-III\Source/os_q.c ****         CPU_CRITICAL_EXIT();
 261              		.loc 1 509 0
 262 0096 FFF7FEFF 		bl	CPU_IntDisMeasStop
 263 009a 3B6B     		ldr	r3, [r7, #48]
 264 009c 1800     		movs	r0, r3
 265 009e FFF7FEFF 		bl	CPU_SR_Restore
 510:..\..\..\..\..\..\Software\uCOS-III\Source/os_q.c **** #if (defined(TRACE_CFG_EN) && (TRACE_CFG_EN == DEF_ENABLED))
 511:..\..\..\..\..\..\Software\uCOS-III\Source/os_q.c ****         TRACE_OS_Q_PEND(p_q);                                   /* Record the event.               
 512:..\..\..\..\..\..\Software\uCOS-III\Source/os_q.c **** #endif
 513:..\..\..\..\..\..\Software\uCOS-III\Source/os_q.c ****         return (p_void);                                        /* Yes, Return message received    
 266              		.loc 1 513 0
 267 00a2 7B6B     		ldr	r3, [r7, #52]
 268 00a4 93E0     		b	.L30
 269              	.L17:
 514:..\..\..\..\..\..\Software\uCOS-III\Source/os_q.c ****     }
 515:..\..\..\..\..\..\Software\uCOS-III\Source/os_q.c **** 
 516:..\..\..\..\..\..\Software\uCOS-III\Source/os_q.c ****     if ((opt & OS_OPT_PEND_NON_BLOCKING) != 0u) {               /* Caller wants to block if not ava
 270              		.loc 1 516 0
 271 00a6 BB1D     		adds	r3, r7, #6
 272 00a8 0022     		movs	r2, #0
 273 00aa 9B5E     		ldrsh	r3, [r3, r2]
 274 00ac 002B     		cmp	r3, #0
 275 00ae 0ADA     		bge	.L18
 517:..\..\..\..\..\..\Software\uCOS-III\Source/os_q.c ****         CPU_CRITICAL_EXIT();
 276              		.loc 1 517 0
 277 00b0 FFF7FEFF 		bl	CPU_IntDisMeasStop
 278 00b4 3B6B     		ldr	r3, [r7, #48]
 279 00b6 1800     		movs	r0, r3
 280 00b8 FFF7FEFF 		bl	CPU_SR_Restore
ARM GAS  C:\Users\ADMINI~1\AppData\Local\Temp\ccKLo23z.s 			page 15


 518:..\..\..\..\..\..\Software\uCOS-III\Source/os_q.c **** #if (defined(TRACE_CFG_EN) && (TRACE_CFG_EN == DEF_ENABLED))
 519:..\..\..\..\..\..\Software\uCOS-III\Source/os_q.c ****         TRACE_OS_Q_PEND_FAILED(p_q);                            /* Record the event.               
 520:..\..\..\..\..\..\Software\uCOS-III\Source/os_q.c **** #endif
 521:..\..\..\..\..\..\Software\uCOS-III\Source/os_q.c ****        *p_err = OS_ERR_PEND_WOULD_BLOCK;                        /* No                              
 281              		.loc 1 521 0
 282 00bc 7B6C     		ldr	r3, [r7, #68]
 283 00be 4B4A     		ldr	r2, .L32+20
 284 00c0 1A80     		strh	r2, [r3]
 522:..\..\..\..\..\..\Software\uCOS-III\Source/os_q.c ****         return (DEF_NULL);
 285              		.loc 1 522 0
 286 00c2 0023     		movs	r3, #0
 287 00c4 83E0     		b	.L30
 288              	.L18:
 523:..\..\..\..\..\..\Software\uCOS-III\Source/os_q.c ****     } else {
 524:..\..\..\..\..\..\Software\uCOS-III\Source/os_q.c ****         if (OSSchedLockNestingCtr > 0u) {                       /* Can't pend when the scheduler is
 289              		.loc 1 524 0
 290 00c6 4A4B     		ldr	r3, .L32+24
 291 00c8 1B78     		ldrb	r3, [r3]
 292 00ca 002B     		cmp	r3, #0
 293 00cc 0AD0     		beq	.L19
 525:..\..\..\..\..\..\Software\uCOS-III\Source/os_q.c ****             CPU_CRITICAL_EXIT();
 294              		.loc 1 525 0
 295 00ce FFF7FEFF 		bl	CPU_IntDisMeasStop
 296 00d2 3B6B     		ldr	r3, [r7, #48]
 297 00d4 1800     		movs	r0, r3
 298 00d6 FFF7FEFF 		bl	CPU_SR_Restore
 526:..\..\..\..\..\..\Software\uCOS-III\Source/os_q.c **** #if (defined(TRACE_CFG_EN) && (TRACE_CFG_EN == DEF_ENABLED))
 527:..\..\..\..\..\..\Software\uCOS-III\Source/os_q.c ****             TRACE_OS_Q_PEND_FAILED(p_q);                        /* Record the event.               
 528:..\..\..\..\..\..\Software\uCOS-III\Source/os_q.c **** #endif
 529:..\..\..\..\..\..\Software\uCOS-III\Source/os_q.c ****            *p_err = OS_ERR_SCHED_LOCKED;
 299              		.loc 1 529 0
 300 00da 7B6C     		ldr	r3, [r7, #68]
 301 00dc 454A     		ldr	r2, .L32+28
 302 00de 1A80     		strh	r2, [r3]
 530:..\..\..\..\..\..\Software\uCOS-III\Source/os_q.c ****             return (DEF_NULL);
 303              		.loc 1 530 0
 304 00e0 0023     		movs	r3, #0
 305 00e2 74E0     		b	.L30
 306              	.L19:
 531:..\..\..\..\..\..\Software\uCOS-III\Source/os_q.c ****         }
 532:..\..\..\..\..\..\Software\uCOS-III\Source/os_q.c ****     }
 533:..\..\..\..\..\..\Software\uCOS-III\Source/os_q.c ****                                                                 /* Lock the scheduler/re-enable int
 534:..\..\..\..\..\..\Software\uCOS-III\Source/os_q.c ****     OS_CRITICAL_ENTER_CPU_EXIT();
 535:..\..\..\..\..\..\Software\uCOS-III\Source/os_q.c ****     OS_Pend(&pend_data,                                         /* Block task pending on Message Qu
 307              		.loc 1 535 0
 308 00e4 BB68     		ldr	r3, [r7, #8]
 309 00e6 F968     		ldr	r1, [r7, #12]
 310 00e8 1022     		movs	r2, #16
 311 00ea B818     		adds	r0, r7, r2
 312 00ec 0522     		movs	r2, #5
 313 00ee FFF7FEFF 		bl	OS_Pend
 536:..\..\..\..\..\..\Software\uCOS-III\Source/os_q.c ****             (OS_PEND_OBJ *)((void *)p_q),
 537:..\..\..\..\..\..\Software\uCOS-III\Source/os_q.c ****             OS_TASK_PEND_ON_Q,
 538:..\..\..\..\..\..\Software\uCOS-III\Source/os_q.c ****             timeout);
 539:..\..\..\..\..\..\Software\uCOS-III\Source/os_q.c ****     OS_CRITICAL_EXIT_NO_SCHED();
 314              		.loc 1 539 0
 315 00f2 FFF7FEFF 		bl	CPU_IntDisMeasStop
ARM GAS  C:\Users\ADMINI~1\AppData\Local\Temp\ccKLo23z.s 			page 16


 316 00f6 3B6B     		ldr	r3, [r7, #48]
 317 00f8 1800     		movs	r0, r3
 318 00fa FFF7FEFF 		bl	CPU_SR_Restore
 540:..\..\..\..\..\..\Software\uCOS-III\Source/os_q.c **** #if (defined(TRACE_CFG_EN) && (TRACE_CFG_EN == DEF_ENABLED))
 541:..\..\..\..\..\..\Software\uCOS-III\Source/os_q.c ****     TRACE_OS_Q_PEND_BLOCK(p_q);                                 /* Record the event.               
 542:..\..\..\..\..\..\Software\uCOS-III\Source/os_q.c **** #endif
 543:..\..\..\..\..\..\Software\uCOS-III\Source/os_q.c ****     OSSched();                                                  /* Find the next highest priority t
 319              		.loc 1 543 0
 320 00fe FFF7FEFF 		bl	OSSched
 544:..\..\..\..\..\..\Software\uCOS-III\Source/os_q.c **** 
 545:..\..\..\..\..\..\Software\uCOS-III\Source/os_q.c ****     CPU_CRITICAL_ENTER();
 321              		.loc 1 545 0
 322 0102 FFF7FEFF 		bl	CPU_SR_Save
 323 0106 0300     		movs	r3, r0
 324 0108 3B63     		str	r3, [r7, #48]
 325 010a FFF7FEFF 		bl	CPU_IntDisMeasStart
 546:..\..\..\..\..\..\Software\uCOS-III\Source/os_q.c ****     switch (OSTCBCurPtr->PendStatus) {
 326              		.loc 1 546 0
 327 010e 3A4B     		ldr	r3, .L32+32
 328 0110 1B68     		ldr	r3, [r3]
 329 0112 3522     		movs	r2, #53
 330 0114 9B5C     		ldrb	r3, [r3, r2]
 331 0116 012B     		cmp	r3, #1
 332 0118 1ED0     		beq	.L21
 333 011a 02DC     		bgt	.L22
 334 011c 002B     		cmp	r3, #0
 335 011e 05D0     		beq	.L23
 336 0120 45E0     		b	.L20
 337              	.L22:
 338 0122 022B     		cmp	r3, #2
 339 0124 32D0     		beq	.L24
 340 0126 032B     		cmp	r3, #3
 341 0128 27D0     		beq	.L25
 342 012a 40E0     		b	.L20
 343              	.L23:
 547:..\..\..\..\..\..\Software\uCOS-III\Source/os_q.c ****         case OS_STATUS_PEND_OK:                                 /* Extract message from TCB (Put th
 548:..\..\..\..\..\..\Software\uCOS-III\Source/os_q.c ****              p_void     = OSTCBCurPtr->MsgPtr;
 344              		.loc 1 548 0
 345 012c 324B     		ldr	r3, .L32+32
 346 012e 1B68     		ldr	r3, [r3]
 347 0130 9B6D     		ldr	r3, [r3, #88]
 348 0132 7B63     		str	r3, [r7, #52]
 549:..\..\..\..\..\..\Software\uCOS-III\Source/os_q.c ****             *p_msg_size = OSTCBCurPtr->MsgSize;
 349              		.loc 1 549 0
 350 0134 304B     		ldr	r3, .L32+32
 351 0136 1B68     		ldr	r3, [r3]
 352 0138 5C22     		movs	r2, #92
 353 013a 9A5A     		ldrh	r2, [r3, r2]
 354 013c 3B68     		ldr	r3, [r7]
 355 013e 1A80     		strh	r2, [r3]
 550:..\..\..\..\..\..\Software\uCOS-III\Source/os_q.c **** #if (OS_CFG_TS_EN == DEF_ENABLED)
 551:..\..\..\..\..\..\Software\uCOS-III\Source/os_q.c ****              if (p_ts  != DEF_NULL) {
 356              		.loc 1 551 0
 357 0140 3B6C     		ldr	r3, [r7, #64]
 358 0142 002B     		cmp	r3, #0
 359 0144 04D0     		beq	.L26
 552:..\..\..\..\..\..\Software\uCOS-III\Source/os_q.c ****                 *p_ts  =  OSTCBCurPtr->TS;
ARM GAS  C:\Users\ADMINI~1\AppData\Local\Temp\ccKLo23z.s 			page 17


 360              		.loc 1 552 0
 361 0146 2C4B     		ldr	r3, .L32+32
 362 0148 1B68     		ldr	r3, [r3]
 363 014a 9A6C     		ldr	r2, [r3, #72]
 364 014c 3B6C     		ldr	r3, [r7, #64]
 365 014e 1A60     		str	r2, [r3]
 366              	.L26:
 553:..\..\..\..\..\..\Software\uCOS-III\Source/os_q.c ****              }
 554:..\..\..\..\..\..\Software\uCOS-III\Source/os_q.c **** #endif
 555:..\..\..\..\..\..\Software\uCOS-III\Source/os_q.c **** #if (defined(TRACE_CFG_EN) && (TRACE_CFG_EN == DEF_ENABLED))
 556:..\..\..\..\..\..\Software\uCOS-III\Source/os_q.c ****              TRACE_OS_Q_PEND(p_q);                              /* Record the event.               
 557:..\..\..\..\..\..\Software\uCOS-III\Source/os_q.c **** #endif
 558:..\..\..\..\..\..\Software\uCOS-III\Source/os_q.c ****             *p_err      = OS_ERR_NONE;
 367              		.loc 1 558 0
 368 0150 7B6C     		ldr	r3, [r7, #68]
 369 0152 0022     		movs	r2, #0
 370 0154 1A80     		strh	r2, [r3]
 559:..\..\..\..\..\..\Software\uCOS-III\Source/os_q.c ****              break;
 371              		.loc 1 559 0
 372 0156 33E0     		b	.L27
 373              	.L21:
 560:..\..\..\..\..\..\Software\uCOS-III\Source/os_q.c **** 
 561:..\..\..\..\..\..\Software\uCOS-III\Source/os_q.c ****         case OS_STATUS_PEND_ABORT:                              /* Indicate that we aborted        
 562:..\..\..\..\..\..\Software\uCOS-III\Source/os_q.c ****              p_void     = DEF_NULL;
 374              		.loc 1 562 0
 375 0158 0023     		movs	r3, #0
 376 015a 7B63     		str	r3, [r7, #52]
 563:..\..\..\..\..\..\Software\uCOS-III\Source/os_q.c ****             *p_msg_size = 0u;
 377              		.loc 1 563 0
 378 015c 3B68     		ldr	r3, [r7]
 379 015e 0022     		movs	r2, #0
 380 0160 1A80     		strh	r2, [r3]
 564:..\..\..\..\..\..\Software\uCOS-III\Source/os_q.c **** #if (OS_CFG_TS_EN == DEF_ENABLED)
 565:..\..\..\..\..\..\Software\uCOS-III\Source/os_q.c ****              if (p_ts  != DEF_NULL) {
 381              		.loc 1 565 0
 382 0162 3B6C     		ldr	r3, [r7, #64]
 383 0164 002B     		cmp	r3, #0
 384 0166 04D0     		beq	.L28
 566:..\..\..\..\..\..\Software\uCOS-III\Source/os_q.c ****                 *p_ts  =  OSTCBCurPtr->TS;
 385              		.loc 1 566 0
 386 0168 234B     		ldr	r3, .L32+32
 387 016a 1B68     		ldr	r3, [r3]
 388 016c 9A6C     		ldr	r2, [r3, #72]
 389 016e 3B6C     		ldr	r3, [r7, #64]
 390 0170 1A60     		str	r2, [r3]
 391              	.L28:
 567:..\..\..\..\..\..\Software\uCOS-III\Source/os_q.c ****              }
 568:..\..\..\..\..\..\Software\uCOS-III\Source/os_q.c **** #endif
 569:..\..\..\..\..\..\Software\uCOS-III\Source/os_q.c **** #if (defined(TRACE_CFG_EN) && (TRACE_CFG_EN == DEF_ENABLED))
 570:..\..\..\..\..\..\Software\uCOS-III\Source/os_q.c ****              TRACE_OS_Q_PEND_FAILED(p_q);                       /* Record the event.               
 571:..\..\..\..\..\..\Software\uCOS-III\Source/os_q.c **** #endif
 572:..\..\..\..\..\..\Software\uCOS-III\Source/os_q.c ****             *p_err      = OS_ERR_PEND_ABORT;
 392              		.loc 1 572 0
 393 0172 7B6C     		ldr	r3, [r7, #68]
 394 0174 214A     		ldr	r2, .L32+36
 395 0176 1A80     		strh	r2, [r3]
 573:..\..\..\..\..\..\Software\uCOS-III\Source/os_q.c ****              break;
ARM GAS  C:\Users\ADMINI~1\AppData\Local\Temp\ccKLo23z.s 			page 18


 396              		.loc 1 573 0
 397 0178 22E0     		b	.L27
 398              	.L25:
 574:..\..\..\..\..\..\Software\uCOS-III\Source/os_q.c **** 
 575:..\..\..\..\..\..\Software\uCOS-III\Source/os_q.c ****         case OS_STATUS_PEND_TIMEOUT:                            /* Indicate that we didn't get even
 576:..\..\..\..\..\..\Software\uCOS-III\Source/os_q.c ****              p_void     = DEF_NULL;
 399              		.loc 1 576 0
 400 017a 0023     		movs	r3, #0
 401 017c 7B63     		str	r3, [r7, #52]
 577:..\..\..\..\..\..\Software\uCOS-III\Source/os_q.c ****             *p_msg_size = 0u;
 402              		.loc 1 577 0
 403 017e 3B68     		ldr	r3, [r7]
 404 0180 0022     		movs	r2, #0
 405 0182 1A80     		strh	r2, [r3]
 578:..\..\..\..\..\..\Software\uCOS-III\Source/os_q.c **** #if (defined(TRACE_CFG_EN) && (TRACE_CFG_EN == DEF_ENABLED))
 579:..\..\..\..\..\..\Software\uCOS-III\Source/os_q.c ****              TRACE_OS_Q_PEND_FAILED(p_q);                       /* Record the event.               
 580:..\..\..\..\..\..\Software\uCOS-III\Source/os_q.c **** #endif
 581:..\..\..\..\..\..\Software\uCOS-III\Source/os_q.c ****             *p_err      = OS_ERR_TIMEOUT;
 406              		.loc 1 581 0
 407 0184 7B6C     		ldr	r3, [r7, #68]
 408 0186 1E4A     		ldr	r2, .L32+40
 409 0188 1A80     		strh	r2, [r3]
 582:..\..\..\..\..\..\Software\uCOS-III\Source/os_q.c ****              break;
 410              		.loc 1 582 0
 411 018a 19E0     		b	.L27
 412              	.L24:
 583:..\..\..\..\..\..\Software\uCOS-III\Source/os_q.c **** 
 584:..\..\..\..\..\..\Software\uCOS-III\Source/os_q.c ****         case OS_STATUS_PEND_DEL:                                /* Indicate that object pended on h
 585:..\..\..\..\..\..\Software\uCOS-III\Source/os_q.c ****              p_void     = DEF_NULL;
 413              		.loc 1 585 0
 414 018c 0023     		movs	r3, #0
 415 018e 7B63     		str	r3, [r7, #52]
 586:..\..\..\..\..\..\Software\uCOS-III\Source/os_q.c ****             *p_msg_size = 0u;
 416              		.loc 1 586 0
 417 0190 3B68     		ldr	r3, [r7]
 418 0192 0022     		movs	r2, #0
 419 0194 1A80     		strh	r2, [r3]
 587:..\..\..\..\..\..\Software\uCOS-III\Source/os_q.c **** #if (OS_CFG_TS_EN == DEF_ENABLED)
 588:..\..\..\..\..\..\Software\uCOS-III\Source/os_q.c ****              if (p_ts  != DEF_NULL) {
 420              		.loc 1 588 0
 421 0196 3B6C     		ldr	r3, [r7, #64]
 422 0198 002B     		cmp	r3, #0
 423 019a 04D0     		beq	.L29
 589:..\..\..\..\..\..\Software\uCOS-III\Source/os_q.c ****                 *p_ts  =  OSTCBCurPtr->TS;
 424              		.loc 1 589 0
 425 019c 164B     		ldr	r3, .L32+32
 426 019e 1B68     		ldr	r3, [r3]
 427 01a0 9A6C     		ldr	r2, [r3, #72]
 428 01a2 3B6C     		ldr	r3, [r7, #64]
 429 01a4 1A60     		str	r2, [r3]
 430              	.L29:
 590:..\..\..\..\..\..\Software\uCOS-III\Source/os_q.c ****              }
 591:..\..\..\..\..\..\Software\uCOS-III\Source/os_q.c **** #endif
 592:..\..\..\..\..\..\Software\uCOS-III\Source/os_q.c **** #if (defined(TRACE_CFG_EN) && (TRACE_CFG_EN == DEF_ENABLED))
 593:..\..\..\..\..\..\Software\uCOS-III\Source/os_q.c ****              TRACE_OS_Q_PEND_FAILED(p_q);                       /* Record the event.               
 594:..\..\..\..\..\..\Software\uCOS-III\Source/os_q.c **** #endif
 595:..\..\..\..\..\..\Software\uCOS-III\Source/os_q.c ****             *p_err      = OS_ERR_OBJ_DEL;
ARM GAS  C:\Users\ADMINI~1\AppData\Local\Temp\ccKLo23z.s 			page 19


 431              		.loc 1 595 0
 432 01a6 7B6C     		ldr	r3, [r7, #68]
 433 01a8 164A     		ldr	r2, .L32+44
 434 01aa 1A80     		strh	r2, [r3]
 596:..\..\..\..\..\..\Software\uCOS-III\Source/os_q.c ****              break;
 435              		.loc 1 596 0
 436 01ac 08E0     		b	.L27
 437              	.L20:
 597:..\..\..\..\..\..\Software\uCOS-III\Source/os_q.c **** 
 598:..\..\..\..\..\..\Software\uCOS-III\Source/os_q.c ****         default:
 599:..\..\..\..\..\..\Software\uCOS-III\Source/os_q.c ****              p_void     = DEF_NULL;
 438              		.loc 1 599 0
 439 01ae 0023     		movs	r3, #0
 440 01b0 7B63     		str	r3, [r7, #52]
 600:..\..\..\..\..\..\Software\uCOS-III\Source/os_q.c ****             *p_msg_size = 0u;
 441              		.loc 1 600 0
 442 01b2 3B68     		ldr	r3, [r7]
 443 01b4 0022     		movs	r2, #0
 444 01b6 1A80     		strh	r2, [r3]
 601:..\..\..\..\..\..\Software\uCOS-III\Source/os_q.c **** #if (defined(TRACE_CFG_EN) && (TRACE_CFG_EN == DEF_ENABLED))
 602:..\..\..\..\..\..\Software\uCOS-III\Source/os_q.c ****              TRACE_OS_Q_PEND_FAILED(p_q);                       /* Record the event.               
 603:..\..\..\..\..\..\Software\uCOS-III\Source/os_q.c **** #endif
 604:..\..\..\..\..\..\Software\uCOS-III\Source/os_q.c ****             *p_err      = OS_ERR_STATUS_INVALID;
 445              		.loc 1 604 0
 446 01b8 7B6C     		ldr	r3, [r7, #68]
 447 01ba 134A     		ldr	r2, .L32+48
 448 01bc 1A80     		strh	r2, [r3]
 605:..\..\..\..\..\..\Software\uCOS-III\Source/os_q.c ****              break;
 449              		.loc 1 605 0
 450 01be C046     		nop
 451              	.L27:
 606:..\..\..\..\..\..\Software\uCOS-III\Source/os_q.c ****     }
 607:..\..\..\..\..\..\Software\uCOS-III\Source/os_q.c ****     CPU_CRITICAL_EXIT();
 452              		.loc 1 607 0
 453 01c0 FFF7FEFF 		bl	CPU_IntDisMeasStop
 454 01c4 3B6B     		ldr	r3, [r7, #48]
 455 01c6 1800     		movs	r0, r3
 456 01c8 FFF7FEFF 		bl	CPU_SR_Restore
 608:..\..\..\..\..\..\Software\uCOS-III\Source/os_q.c ****     return (p_void);
 457              		.loc 1 608 0
 458 01cc 7B6B     		ldr	r3, [r7, #52]
 459              	.L30:
 609:..\..\..\..\..\..\Software\uCOS-III\Source/os_q.c **** }
 460              		.loc 1 609 0 discriminator 1
 461 01ce 1800     		movs	r0, r3
 462 01d0 BD46     		mov	sp, r7
 463 01d2 0EB0     		add	sp, sp, #56
 464              		@ sp needed
 465 01d4 80BD     		pop	{r7, pc}
 466              	.L33:
 467 01d6 C046     		.align	2
 468              	.L32:
 469 01d8 00000000 		.word	OSIntNestingCtr
 470 01dc AE610000 		.word	25006
 471 01e0 C35D0000 		.word	24003
 472 01e4 D5620000 		.word	25301
 473 01e8 255E0000 		.word	24101
ARM GAS  C:\Users\ADMINI~1\AppData\Local\Temp\ccKLo23z.s 			page 20


 474 01ec B0610000 		.word	25008
 475 01f0 00000000 		.word	OSSchedLockNestingCtr
 476 01f4 636D0000 		.word	28003
 477 01f8 00000000 		.word	OSTCBCurPtr
 478 01fc A9610000 		.word	25001
 479 0200 D9720000 		.word	29401
 480 0204 C25D0000 		.word	24002
 481 0208 2E6E0000 		.word	28206
 482              		.cfi_endproc
 483              	.LFE1:
 484              		.size	OSQPend, .-OSQPend
 485              		.section	.text.OSQPendAbort,"ax",%progbits
 486              		.align	2
 487              		.global	OSQPendAbort
 488              		.code	16
 489              		.thumb_func
 490              		.type	OSQPendAbort, %function
 491              	OSQPendAbort:
 492              	.LFB2:
 610:..\..\..\..\..\..\Software\uCOS-III\Source/os_q.c **** 
 611:..\..\..\..\..\..\Software\uCOS-III\Source/os_q.c **** 
 612:..\..\..\..\..\..\Software\uCOS-III\Source/os_q.c **** /*
 613:..\..\..\..\..\..\Software\uCOS-III\Source/os_q.c **** ***************************************************************************************************
 614:..\..\..\..\..\..\Software\uCOS-III\Source/os_q.c **** *                                             ABORT WAITING ON A MESSAGE QUEUE
 615:..\..\..\..\..\..\Software\uCOS-III\Source/os_q.c **** *
 616:..\..\..\..\..\..\Software\uCOS-III\Source/os_q.c **** * Description: This function aborts & readies any tasks currently waiting on a queue.  This functio
 617:..\..\..\..\..\..\Software\uCOS-III\Source/os_q.c **** *              fault-abort the wait on the queue, rather than to normally signal the queue via OSQP
 618:..\..\..\..\..\..\Software\uCOS-III\Source/os_q.c **** *
 619:..\..\..\..\..\..\Software\uCOS-III\Source/os_q.c **** * Arguments  : p_q       is a pointer to the message queue
 620:..\..\..\..\..\..\Software\uCOS-III\Source/os_q.c **** *
 621:..\..\..\..\..\..\Software\uCOS-III\Source/os_q.c **** *              opt       determines the type of ABORT performed:
 622:..\..\..\..\..\..\Software\uCOS-III\Source/os_q.c **** *
 623:..\..\..\..\..\..\Software\uCOS-III\Source/os_q.c **** *                            OS_OPT_PEND_ABORT_1          ABORT wait for a single task (HPT) waitin
 624:..\..\..\..\..\..\Software\uCOS-III\Source/os_q.c **** *                            OS_OPT_PEND_ABORT_ALL        ABORT wait for ALL tasks that are  waitin
 625:..\..\..\..\..\..\Software\uCOS-III\Source/os_q.c **** *                            OS_OPT_POST_NO_SCHED         Do not call the scheduler
 626:..\..\..\..\..\..\Software\uCOS-III\Source/os_q.c **** *
 627:..\..\..\..\..\..\Software\uCOS-III\Source/os_q.c **** *              p_err     is a pointer to a variable that will contain an error code returned by thi
 628:..\..\..\..\..\..\Software\uCOS-III\Source/os_q.c **** *
 629:..\..\..\..\..\..\Software\uCOS-III\Source/os_q.c **** *                            OS_ERR_NONE                  At least one task waiting on the queue wa
 630:..\..\..\..\..\..\Software\uCOS-III\Source/os_q.c **** *                                                         informed of the aborted wait; check retur
 631:..\..\..\..\..\..\Software\uCOS-III\Source/os_q.c **** *                                                         number of tasks whose wait on the queue w
 632:..\..\..\..\..\..\Software\uCOS-III\Source/os_q.c **** *                            OS_ERR_OBJ_PTR_NULL          If you pass a NULL pointer for 'p_q'
 633:..\..\..\..\..\..\Software\uCOS-III\Source/os_q.c **** *                            OS_ERR_OBJ_TYPE              If the message queue was not created
 634:..\..\..\..\..\..\Software\uCOS-III\Source/os_q.c **** *                            OS_ERR_OPT_INVALID           You specified an invalid option
 635:..\..\..\..\..\..\Software\uCOS-III\Source/os_q.c **** *                            OS_ERR_OS_NOT_RUNNING        If uC/OS-III is not running yet
 636:..\..\..\..\..\..\Software\uCOS-III\Source/os_q.c **** *                            OS_ERR_PEND_ABORT_ISR        If this function was called from an ISR
 637:..\..\..\..\..\..\Software\uCOS-III\Source/os_q.c **** *                            OS_ERR_PEND_ABORT_NONE       No task were pending
 638:..\..\..\..\..\..\Software\uCOS-III\Source/os_q.c **** *
 639:..\..\..\..\..\..\Software\uCOS-III\Source/os_q.c **** * Returns    : == 0      if no tasks were waiting on the queue, or upon error.
 640:..\..\..\..\..\..\Software\uCOS-III\Source/os_q.c **** *              >  0      if one or more tasks waiting on the queue are now readied and informed.
 641:..\..\..\..\..\..\Software\uCOS-III\Source/os_q.c **** *
 642:..\..\..\..\..\..\Software\uCOS-III\Source/os_q.c **** * Note(s)    : none
 643:..\..\..\..\..\..\Software\uCOS-III\Source/os_q.c **** ***************************************************************************************************
 644:..\..\..\..\..\..\Software\uCOS-III\Source/os_q.c **** */
 645:..\..\..\..\..\..\Software\uCOS-III\Source/os_q.c **** 
 646:..\..\..\..\..\..\Software\uCOS-III\Source/os_q.c **** #if (OS_CFG_Q_PEND_ABORT_EN == DEF_ENABLED)
 647:..\..\..\..\..\..\Software\uCOS-III\Source/os_q.c **** OS_OBJ_QTY  OSQPendAbort (OS_Q    *p_q,
ARM GAS  C:\Users\ADMINI~1\AppData\Local\Temp\ccKLo23z.s 			page 21


 648:..\..\..\..\..\..\Software\uCOS-III\Source/os_q.c ****                           OS_OPT   opt,
 649:..\..\..\..\..\..\Software\uCOS-III\Source/os_q.c ****                           OS_ERR  *p_err)
 650:..\..\..\..\..\..\Software\uCOS-III\Source/os_q.c **** {
 493              		.loc 1 650 0
 494              		.cfi_startproc
 495              		@ args = 0, pretend = 0, frame = 40
 496              		@ frame_needed = 1, uses_anonymous_args = 0
 497 0000 80B5     		push	{r7, lr}
 498              		.cfi_def_cfa_offset 8
 499              		.cfi_offset 7, -8
 500              		.cfi_offset 14, -4
 501 0002 8AB0     		sub	sp, sp, #40
 502              		.cfi_def_cfa_offset 48
 503 0004 00AF     		add	r7, sp, #0
 504              		.cfi_def_cfa_register 7
 505 0006 F860     		str	r0, [r7, #12]
 506 0008 7A60     		str	r2, [r7, #4]
 507 000a 0A23     		movs	r3, #10
 508 000c FB18     		adds	r3, r7, r3
 509 000e 0A1C     		adds	r2, r1, #0
 510 0010 1A80     		strh	r2, [r3]
 651:..\..\..\..\..\..\Software\uCOS-III\Source/os_q.c ****     OS_PEND_LIST  *p_pend_list;
 652:..\..\..\..\..\..\Software\uCOS-III\Source/os_q.c ****     OS_TCB        *p_tcb;
 653:..\..\..\..\..\..\Software\uCOS-III\Source/os_q.c ****     CPU_TS         ts;
 654:..\..\..\..\..\..\Software\uCOS-III\Source/os_q.c ****     OS_OBJ_QTY     nbr_tasks;
 655:..\..\..\..\..\..\Software\uCOS-III\Source/os_q.c ****     CPU_SR_ALLOC();
 511              		.loc 1 655 0
 512 0012 0023     		movs	r3, #0
 513 0014 3B62     		str	r3, [r7, #32]
 656:..\..\..\..\..\..\Software\uCOS-III\Source/os_q.c **** 
 657:..\..\..\..\..\..\Software\uCOS-III\Source/os_q.c **** 
 658:..\..\..\..\..\..\Software\uCOS-III\Source/os_q.c **** 
 659:..\..\..\..\..\..\Software\uCOS-III\Source/os_q.c **** #ifdef OS_SAFETY_CRITICAL
 660:..\..\..\..\..\..\Software\uCOS-III\Source/os_q.c ****     if (p_err == DEF_NULL) {
 661:..\..\..\..\..\..\Software\uCOS-III\Source/os_q.c ****         OS_SAFETY_CRITICAL_EXCEPTION();
 662:..\..\..\..\..\..\Software\uCOS-III\Source/os_q.c ****         return (0u);
 663:..\..\..\..\..\..\Software\uCOS-III\Source/os_q.c ****     }
 664:..\..\..\..\..\..\Software\uCOS-III\Source/os_q.c **** #endif
 665:..\..\..\..\..\..\Software\uCOS-III\Source/os_q.c **** 
 666:..\..\..\..\..\..\Software\uCOS-III\Source/os_q.c **** #if (OS_CFG_CALLED_FROM_ISR_CHK_EN == DEF_ENABLED)
 667:..\..\..\..\..\..\Software\uCOS-III\Source/os_q.c ****     if (OSIntNestingCtr > 0u) {                                 /* Not allowed to Pend Abort from a
 514              		.loc 1 667 0
 515 0016 424B     		ldr	r3, .L49
 516 0018 1B78     		ldrb	r3, [r3]
 517 001a 002B     		cmp	r3, #0
 518 001c 04D0     		beq	.L35
 668:..\..\..\..\..\..\Software\uCOS-III\Source/os_q.c ****        *p_err =  OS_ERR_PEND_ABORT_ISR;
 519              		.loc 1 668 0
 520 001e 7B68     		ldr	r3, [r7, #4]
 521 0020 404A     		ldr	r2, .L49+4
 522 0022 1A80     		strh	r2, [r3]
 669:..\..\..\..\..\..\Software\uCOS-III\Source/os_q.c ****         return (0u);
 523              		.loc 1 669 0
 524 0024 0023     		movs	r3, #0
 525 0026 76E0     		b	.L36
 526              	.L35:
 670:..\..\..\..\..\..\Software\uCOS-III\Source/os_q.c ****     }
ARM GAS  C:\Users\ADMINI~1\AppData\Local\Temp\ccKLo23z.s 			page 22


 671:..\..\..\..\..\..\Software\uCOS-III\Source/os_q.c **** #endif
 672:..\..\..\..\..\..\Software\uCOS-III\Source/os_q.c **** 
 673:..\..\..\..\..\..\Software\uCOS-III\Source/os_q.c **** #if (OS_CFG_INVALID_OS_CALLS_CHK_EN == DEF_ENABLED)             /* Is the kernel running?          
 674:..\..\..\..\..\..\Software\uCOS-III\Source/os_q.c ****     if (OSRunning != OS_STATE_OS_RUNNING) {
 675:..\..\..\..\..\..\Software\uCOS-III\Source/os_q.c ****        *p_err = OS_ERR_OS_NOT_RUNNING;
 676:..\..\..\..\..\..\Software\uCOS-III\Source/os_q.c ****         return (0u);
 677:..\..\..\..\..\..\Software\uCOS-III\Source/os_q.c ****     }
 678:..\..\..\..\..\..\Software\uCOS-III\Source/os_q.c **** #endif
 679:..\..\..\..\..\..\Software\uCOS-III\Source/os_q.c **** 
 680:..\..\..\..\..\..\Software\uCOS-III\Source/os_q.c **** #if (OS_CFG_ARG_CHK_EN == DEF_ENABLED)
 681:..\..\..\..\..\..\Software\uCOS-III\Source/os_q.c ****     if (p_q == DEF_NULL) {                                      /* Validate 'p_q'                  
 527              		.loc 1 681 0
 528 0028 FB68     		ldr	r3, [r7, #12]
 529 002a 002B     		cmp	r3, #0
 530 002c 04D1     		bne	.L37
 682:..\..\..\..\..\..\Software\uCOS-III\Source/os_q.c ****        *p_err =  OS_ERR_OBJ_PTR_NULL;
 531              		.loc 1 682 0
 532 002e 7B68     		ldr	r3, [r7, #4]
 533 0030 3D4A     		ldr	r2, .L49+8
 534 0032 1A80     		strh	r2, [r3]
 683:..\..\..\..\..\..\Software\uCOS-III\Source/os_q.c ****         return (0u);
 535              		.loc 1 683 0
 536 0034 0023     		movs	r3, #0
 537 0036 6EE0     		b	.L36
 538              	.L37:
 684:..\..\..\..\..\..\Software\uCOS-III\Source/os_q.c ****     }
 685:..\..\..\..\..\..\Software\uCOS-III\Source/os_q.c ****     switch (opt) {                                              /* Validate 'opt'                  
 539              		.loc 1 685 0
 540 0038 0A23     		movs	r3, #10
 541 003a FB18     		adds	r3, r7, r3
 542 003c 1B88     		ldrh	r3, [r3]
 543 003e 8022     		movs	r2, #128
 544 0040 5200     		lsls	r2, r2, #1
 545 0042 9342     		cmp	r3, r2
 546 0044 13D0     		beq	.L47
 547 0046 8022     		movs	r2, #128
 548 0048 5200     		lsls	r2, r2, #1
 549 004a 9342     		cmp	r3, r2
 550 004c 02DC     		bgt	.L40
 551 004e 002B     		cmp	r3, #0
 552 0050 0DD0     		beq	.L47
 553 0052 07E0     		b	.L38
 554              	.L40:
 555 0054 8022     		movs	r2, #128
 556 0056 1202     		lsls	r2, r2, #8
 557 0058 9342     		cmp	r3, r2
 558 005a 08D0     		beq	.L47
 559 005c 8122     		movs	r2, #129
 560 005e 1202     		lsls	r2, r2, #8
 561 0060 9342     		cmp	r3, r2
 562 0062 04D0     		beq	.L47
 563              	.L38:
 686:..\..\..\..\..\..\Software\uCOS-III\Source/os_q.c ****         case OS_OPT_PEND_ABORT_1:
 687:..\..\..\..\..\..\Software\uCOS-III\Source/os_q.c ****         case OS_OPT_PEND_ABORT_ALL:
 688:..\..\..\..\..\..\Software\uCOS-III\Source/os_q.c ****         case OS_OPT_PEND_ABORT_1   | OS_OPT_POST_NO_SCHED:
 689:..\..\..\..\..\..\Software\uCOS-III\Source/os_q.c ****         case OS_OPT_PEND_ABORT_ALL | OS_OPT_POST_NO_SCHED:
 690:..\..\..\..\..\..\Software\uCOS-III\Source/os_q.c ****              break;
ARM GAS  C:\Users\ADMINI~1\AppData\Local\Temp\ccKLo23z.s 			page 23


 691:..\..\..\..\..\..\Software\uCOS-III\Source/os_q.c **** 
 692:..\..\..\..\..\..\Software\uCOS-III\Source/os_q.c ****         default:
 693:..\..\..\..\..\..\Software\uCOS-III\Source/os_q.c ****             *p_err =  OS_ERR_OPT_INVALID;
 564              		.loc 1 693 0
 565 0064 7B68     		ldr	r3, [r7, #4]
 566 0066 314A     		ldr	r2, .L49+12
 567 0068 1A80     		strh	r2, [r3]
 694:..\..\..\..\..\..\Software\uCOS-III\Source/os_q.c ****              return (0u);
 568              		.loc 1 694 0
 569 006a 0023     		movs	r3, #0
 570 006c 53E0     		b	.L36
 571              	.L47:
 690:..\..\..\..\..\..\Software\uCOS-III\Source/os_q.c **** 
 572              		.loc 1 690 0
 573 006e C046     		nop
 695:..\..\..\..\..\..\Software\uCOS-III\Source/os_q.c ****     }
 696:..\..\..\..\..\..\Software\uCOS-III\Source/os_q.c **** #endif
 697:..\..\..\..\..\..\Software\uCOS-III\Source/os_q.c **** 
 698:..\..\..\..\..\..\Software\uCOS-III\Source/os_q.c **** #if (OS_CFG_OBJ_TYPE_CHK_EN == DEF_ENABLED)
 699:..\..\..\..\..\..\Software\uCOS-III\Source/os_q.c ****     if (p_q->Type != OS_OBJ_TYPE_Q) {                           /* Make sure queue was created     
 700:..\..\..\..\..\..\Software\uCOS-III\Source/os_q.c ****        *p_err =  OS_ERR_OBJ_TYPE;
 701:..\..\..\..\..\..\Software\uCOS-III\Source/os_q.c ****         return (0u);
 702:..\..\..\..\..\..\Software\uCOS-III\Source/os_q.c ****     }
 703:..\..\..\..\..\..\Software\uCOS-III\Source/os_q.c **** #endif
 704:..\..\..\..\..\..\Software\uCOS-III\Source/os_q.c **** 
 705:..\..\..\..\..\..\Software\uCOS-III\Source/os_q.c ****     CPU_CRITICAL_ENTER();
 574              		.loc 1 705 0
 575 0070 FFF7FEFF 		bl	CPU_SR_Save
 576 0074 0300     		movs	r3, r0
 577 0076 3B62     		str	r3, [r7, #32]
 578 0078 FFF7FEFF 		bl	CPU_IntDisMeasStart
 706:..\..\..\..\..\..\Software\uCOS-III\Source/os_q.c ****     p_pend_list = &p_q->PendList;
 579              		.loc 1 706 0
 580 007c FB68     		ldr	r3, [r7, #12]
 581 007e 0833     		adds	r3, r3, #8
 582 0080 FB61     		str	r3, [r7, #28]
 707:..\..\..\..\..\..\Software\uCOS-III\Source/os_q.c ****     if (p_pend_list->HeadPtr == DEF_NULL) {                     /* Any task waiting on queue?      
 583              		.loc 1 707 0
 584 0082 FB69     		ldr	r3, [r7, #28]
 585 0084 1B68     		ldr	r3, [r3]
 586 0086 002B     		cmp	r3, #0
 587 0088 0AD1     		bne	.L42
 708:..\..\..\..\..\..\Software\uCOS-III\Source/os_q.c ****         CPU_CRITICAL_EXIT();                                    /* No                              
 588              		.loc 1 708 0
 589 008a FFF7FEFF 		bl	CPU_IntDisMeasStop
 590 008e 3B6A     		ldr	r3, [r7, #32]
 591 0090 1800     		movs	r0, r3
 592 0092 FFF7FEFF 		bl	CPU_SR_Restore
 709:..\..\..\..\..\..\Software\uCOS-III\Source/os_q.c ****        *p_err =  OS_ERR_PEND_ABORT_NONE;
 593              		.loc 1 709 0
 594 0096 7B68     		ldr	r3, [r7, #4]
 595 0098 254A     		ldr	r2, .L49+16
 596 009a 1A80     		strh	r2, [r3]
 710:..\..\..\..\..\..\Software\uCOS-III\Source/os_q.c ****         return (0u);
 597              		.loc 1 710 0
 598 009c 0023     		movs	r3, #0
 599 009e 3AE0     		b	.L36
ARM GAS  C:\Users\ADMINI~1\AppData\Local\Temp\ccKLo23z.s 			page 24


 600              	.L42:
 711:..\..\..\..\..\..\Software\uCOS-III\Source/os_q.c ****     }
 712:..\..\..\..\..\..\Software\uCOS-III\Source/os_q.c **** 
 713:..\..\..\..\..\..\Software\uCOS-III\Source/os_q.c ****     OS_CRITICAL_ENTER_CPU_EXIT();
 714:..\..\..\..\..\..\Software\uCOS-III\Source/os_q.c ****     nbr_tasks = 0u;
 601              		.loc 1 714 0
 602 00a0 2623     		movs	r3, #38
 603 00a2 FB18     		adds	r3, r7, r3
 604 00a4 0022     		movs	r2, #0
 605 00a6 1A80     		strh	r2, [r3]
 715:..\..\..\..\..\..\Software\uCOS-III\Source/os_q.c **** #if (OS_CFG_TS_EN == DEF_ENABLED)
 716:..\..\..\..\..\..\Software\uCOS-III\Source/os_q.c ****     ts        = OS_TS_GET();                                    /* Get local time stamp so all task
 606              		.loc 1 716 0
 607 00a8 FFF7FEFF 		bl	CPU_TS_TmrRd
 608 00ac 0300     		movs	r3, r0
 609 00ae BB61     		str	r3, [r7, #24]
 717:..\..\..\..\..\..\Software\uCOS-III\Source/os_q.c **** #else
 718:..\..\..\..\..\..\Software\uCOS-III\Source/os_q.c ****     ts        = 0u;
 719:..\..\..\..\..\..\Software\uCOS-III\Source/os_q.c **** #endif
 720:..\..\..\..\..\..\Software\uCOS-III\Source/os_q.c ****     while (p_pend_list->HeadPtr != DEF_NULL) {
 610              		.loc 1 720 0
 611 00b0 17E0     		b	.L43
 612              	.L45:
 721:..\..\..\..\..\..\Software\uCOS-III\Source/os_q.c ****         p_tcb = p_pend_list->HeadPtr->TCBPtr;
 613              		.loc 1 721 0
 614 00b2 FB69     		ldr	r3, [r7, #28]
 615 00b4 1B68     		ldr	r3, [r3]
 616 00b6 9B68     		ldr	r3, [r3, #8]
 617 00b8 7B61     		str	r3, [r7, #20]
 722:..\..\..\..\..\..\Software\uCOS-III\Source/os_q.c ****         OS_PendAbort((OS_PEND_OBJ *)((void *)p_q),
 618              		.loc 1 722 0
 619 00ba BA69     		ldr	r2, [r7, #24]
 620 00bc 7969     		ldr	r1, [r7, #20]
 621 00be FB68     		ldr	r3, [r7, #12]
 622 00c0 1800     		movs	r0, r3
 623 00c2 FFF7FEFF 		bl	OS_PendAbort
 723:..\..\..\..\..\..\Software\uCOS-III\Source/os_q.c ****                      p_tcb,
 724:..\..\..\..\..\..\Software\uCOS-III\Source/os_q.c ****                      ts);
 725:..\..\..\..\..\..\Software\uCOS-III\Source/os_q.c ****         nbr_tasks++;
 624              		.loc 1 725 0
 625 00c6 2623     		movs	r3, #38
 626 00c8 FB18     		adds	r3, r7, r3
 627 00ca 1A88     		ldrh	r2, [r3]
 628 00cc 2623     		movs	r3, #38
 629 00ce FB18     		adds	r3, r7, r3
 630 00d0 0132     		adds	r2, r2, #1
 631 00d2 1A80     		strh	r2, [r3]
 726:..\..\..\..\..\..\Software\uCOS-III\Source/os_q.c ****         if (opt != OS_OPT_PEND_ABORT_ALL) {                     /* Pend abort all tasks waiting?   
 632              		.loc 1 726 0
 633 00d4 0A23     		movs	r3, #10
 634 00d6 FB18     		adds	r3, r7, r3
 635 00d8 1A88     		ldrh	r2, [r3]
 636 00da 8023     		movs	r3, #128
 637 00dc 5B00     		lsls	r3, r3, #1
 638 00de 9A42     		cmp	r2, r3
 639 00e0 04D1     		bne	.L48
 640              	.L43:
ARM GAS  C:\Users\ADMINI~1\AppData\Local\Temp\ccKLo23z.s 			page 25


 720:..\..\..\..\..\..\Software\uCOS-III\Source/os_q.c ****         p_tcb = p_pend_list->HeadPtr->TCBPtr;
 641              		.loc 1 720 0
 642 00e2 FB69     		ldr	r3, [r7, #28]
 643 00e4 1B68     		ldr	r3, [r3]
 644 00e6 002B     		cmp	r3, #0
 645 00e8 E3D1     		bne	.L45
 646 00ea 00E0     		b	.L44
 647              	.L48:
 727:..\..\..\..\..\..\Software\uCOS-III\Source/os_q.c ****             break;                                              /* No                              
 648              		.loc 1 727 0
 649 00ec C046     		nop
 650              	.L44:
 728:..\..\..\..\..\..\Software\uCOS-III\Source/os_q.c ****         }
 729:..\..\..\..\..\..\Software\uCOS-III\Source/os_q.c ****     }
 730:..\..\..\..\..\..\Software\uCOS-III\Source/os_q.c ****     OS_CRITICAL_EXIT_NO_SCHED();
 651              		.loc 1 730 0
 652 00ee FFF7FEFF 		bl	CPU_IntDisMeasStop
 653 00f2 3B6A     		ldr	r3, [r7, #32]
 654 00f4 1800     		movs	r0, r3
 655 00f6 FFF7FEFF 		bl	CPU_SR_Restore
 731:..\..\..\..\..\..\Software\uCOS-III\Source/os_q.c **** 
 732:..\..\..\..\..\..\Software\uCOS-III\Source/os_q.c ****     if ((opt & OS_OPT_POST_NO_SCHED) == 0u) {
 656              		.loc 1 732 0
 657 00fa 0A23     		movs	r3, #10
 658 00fc FB18     		adds	r3, r7, r3
 659 00fe 0022     		movs	r2, #0
 660 0100 9B5E     		ldrsh	r3, [r3, r2]
 661 0102 002B     		cmp	r3, #0
 662 0104 01DB     		blt	.L46
 733:..\..\..\..\..\..\Software\uCOS-III\Source/os_q.c ****         OSSched();                                              /* Run the scheduler               
 663              		.loc 1 733 0
 664 0106 FFF7FEFF 		bl	OSSched
 665              	.L46:
 734:..\..\..\..\..\..\Software\uCOS-III\Source/os_q.c ****     }
 735:..\..\..\..\..\..\Software\uCOS-III\Source/os_q.c **** 
 736:..\..\..\..\..\..\Software\uCOS-III\Source/os_q.c ****    *p_err = OS_ERR_NONE;
 666              		.loc 1 736 0
 667 010a 7B68     		ldr	r3, [r7, #4]
 668 010c 0022     		movs	r2, #0
 669 010e 1A80     		strh	r2, [r3]
 737:..\..\..\..\..\..\Software\uCOS-III\Source/os_q.c ****     return (nbr_tasks);
 670              		.loc 1 737 0
 671 0110 2623     		movs	r3, #38
 672 0112 FB18     		adds	r3, r7, r3
 673 0114 1B88     		ldrh	r3, [r3]
 674              	.L36:
 738:..\..\..\..\..\..\Software\uCOS-III\Source/os_q.c **** }
 675              		.loc 1 738 0
 676 0116 1800     		movs	r0, r3
 677 0118 BD46     		mov	sp, r7
 678 011a 0AB0     		add	sp, sp, #40
 679              		@ sp needed
 680 011c 80BD     		pop	{r7, pc}
 681              	.L50:
 682 011e C046     		.align	2
 683              	.L49:
 684 0120 00000000 		.word	OSIntNestingCtr
ARM GAS  C:\Users\ADMINI~1\AppData\Local\Temp\ccKLo23z.s 			page 26


 685 0124 AA610000 		.word	25002
 686 0128 C35D0000 		.word	24003
 687 012c 255E0000 		.word	24101
 688 0130 AB610000 		.word	25003
 689              		.cfi_endproc
 690              	.LFE2:
 691              		.size	OSQPendAbort, .-OSQPendAbort
 692              		.section	.text.OSQPost,"ax",%progbits
 693              		.align	2
 694              		.global	OSQPost
 695              		.code	16
 696              		.thumb_func
 697              		.type	OSQPost, %function
 698              	OSQPost:
 699              	.LFB3:
 739:..\..\..\..\..\..\Software\uCOS-III\Source/os_q.c **** #endif
 740:..\..\..\..\..\..\Software\uCOS-III\Source/os_q.c **** 
 741:..\..\..\..\..\..\Software\uCOS-III\Source/os_q.c **** 
 742:..\..\..\..\..\..\Software\uCOS-III\Source/os_q.c **** /*
 743:..\..\..\..\..\..\Software\uCOS-III\Source/os_q.c **** ***************************************************************************************************
 744:..\..\..\..\..\..\Software\uCOS-III\Source/os_q.c **** *                                               POST MESSAGE TO A QUEUE
 745:..\..\..\..\..\..\Software\uCOS-III\Source/os_q.c **** *
 746:..\..\..\..\..\..\Software\uCOS-III\Source/os_q.c **** * Description: This function sends a message to a queue.  With the 'opt' argument, you can specify 
 747:..\..\..\..\..\..\Software\uCOS-III\Source/os_q.c **** *              is broadcast to all waiting tasks and/or whether you post the message to the front o
 748:..\..\..\..\..\..\Software\uCOS-III\Source/os_q.c **** *              or normally (FIFO) at the end of the queue.
 749:..\..\..\..\..\..\Software\uCOS-III\Source/os_q.c **** *
 750:..\..\..\..\..\..\Software\uCOS-III\Source/os_q.c **** * Arguments  : p_q           is a pointer to a message queue that must have been created by OSQCrea
 751:..\..\..\..\..\..\Software\uCOS-III\Source/os_q.c **** *
 752:..\..\..\..\..\..\Software\uCOS-III\Source/os_q.c **** *              p_void        is a pointer to the message to send.
 753:..\..\..\..\..\..\Software\uCOS-III\Source/os_q.c **** *
 754:..\..\..\..\..\..\Software\uCOS-III\Source/os_q.c **** *              msg_size      specifies the size of the message (in bytes)
 755:..\..\..\..\..\..\Software\uCOS-III\Source/os_q.c **** *
 756:..\..\..\..\..\..\Software\uCOS-III\Source/os_q.c **** *              opt           determines the type of POST performed:
 757:..\..\..\..\..\..\Software\uCOS-III\Source/os_q.c **** *
 758:..\..\..\..\..\..\Software\uCOS-III\Source/os_q.c **** *                                OS_OPT_POST_ALL          POST to ALL tasks that are waiting on the
 759:..\..\..\..\..\..\Software\uCOS-III\Source/os_q.c **** *                                                         can be added to either OS_OPT_POST_FIFO o
 760:..\..\..\..\..\..\Software\uCOS-III\Source/os_q.c **** *                                OS_OPT_POST_FIFO         POST message to end of queue (FIFO) and w
 761:..\..\..\..\..\..\Software\uCOS-III\Source/os_q.c **** *                                                         waiting task.
 762:..\..\..\..\..\..\Software\uCOS-III\Source/os_q.c **** *                                OS_OPT_POST_LIFO         POST message to the front of the queue (L
 763:..\..\..\..\..\..\Software\uCOS-III\Source/os_q.c **** *                                                         a single waiting task.
 764:..\..\..\..\..\..\Software\uCOS-III\Source/os_q.c **** *                                OS_OPT_POST_NO_SCHED     Do not call the scheduler
 765:..\..\..\..\..\..\Software\uCOS-III\Source/os_q.c **** *
 766:..\..\..\..\..\..\Software\uCOS-III\Source/os_q.c **** *                            Note(s): 1) OS_OPT_POST_NO_SCHED can be added (or OR'd) with one of th
 767:..\..\..\..\..\..\Software\uCOS-III\Source/os_q.c **** *                                     2) OS_OPT_POST_ALL      can be added (or OR'd) with one of th
 768:..\..\..\..\..\..\Software\uCOS-III\Source/os_q.c **** *                                     3) Possible combination of options are:
 769:..\..\..\..\..\..\Software\uCOS-III\Source/os_q.c **** *
 770:..\..\..\..\..\..\Software\uCOS-III\Source/os_q.c **** *                                        OS_OPT_POST_FIFO
 771:..\..\..\..\..\..\Software\uCOS-III\Source/os_q.c **** *                                        OS_OPT_POST_LIFO
 772:..\..\..\..\..\..\Software\uCOS-III\Source/os_q.c **** *                                        OS_OPT_POST_FIFO + OS_OPT_POST_ALL
 773:..\..\..\..\..\..\Software\uCOS-III\Source/os_q.c **** *                                        OS_OPT_POST_LIFO + OS_OPT_POST_ALL
 774:..\..\..\..\..\..\Software\uCOS-III\Source/os_q.c **** *                                        OS_OPT_POST_FIFO + OS_OPT_POST_NO_SCHED
 775:..\..\..\..\..\..\Software\uCOS-III\Source/os_q.c **** *                                        OS_OPT_POST_LIFO + OS_OPT_POST_NO_SCHED
 776:..\..\..\..\..\..\Software\uCOS-III\Source/os_q.c **** *                                        OS_OPT_POST_FIFO + OS_OPT_POST_ALL + OS_OPT_POST_NO_SCHED
 777:..\..\..\..\..\..\Software\uCOS-III\Source/os_q.c **** *                                        OS_OPT_POST_LIFO + OS_OPT_POST_ALL + OS_OPT_POST_NO_SCHED
 778:..\..\..\..\..\..\Software\uCOS-III\Source/os_q.c **** *
 779:..\..\..\..\..\..\Software\uCOS-III\Source/os_q.c **** *              p_err         is a pointer to a variable that will contain an error code returned by
 780:..\..\..\..\..\..\Software\uCOS-III\Source/os_q.c **** *
ARM GAS  C:\Users\ADMINI~1\AppData\Local\Temp\ccKLo23z.s 			page 27


 781:..\..\..\..\..\..\Software\uCOS-III\Source/os_q.c **** *                                OS_ERR_NONE              The call was successful and the message w
 782:..\..\..\..\..\..\Software\uCOS-III\Source/os_q.c **** *                                OS_ERR_INT_Q_FULL        If the deferred interrupt post queue is f
 783:..\..\..\..\..\..\Software\uCOS-III\Source/os_q.c **** *                                OS_ERR_MSG_POOL_EMPTY    If there are no more OS_MSGs to use to pl
 784:..\..\..\..\..\..\Software\uCOS-III\Source/os_q.c **** *                                OS_ERR_OBJ_PTR_NULL      If 'p_q' is a NULL pointer
 785:..\..\..\..\..\..\Software\uCOS-III\Source/os_q.c **** *                                OS_ERR_OBJ_TYPE          If the message queue was not initialized
 786:..\..\..\..\..\..\Software\uCOS-III\Source/os_q.c **** *                                OS_ERR_OPT_INVALID       You specified an invalid option
 787:..\..\..\..\..\..\Software\uCOS-III\Source/os_q.c **** *                                OS_ERR_OS_NOT_RUNNING    If uC/OS-III is not running yet
 788:..\..\..\..\..\..\Software\uCOS-III\Source/os_q.c **** *                                OS_ERR_Q_MAX             If the queue is full
 789:..\..\..\..\..\..\Software\uCOS-III\Source/os_q.c **** *
 790:..\..\..\..\..\..\Software\uCOS-III\Source/os_q.c **** * Returns    : None
 791:..\..\..\..\..\..\Software\uCOS-III\Source/os_q.c **** *
 792:..\..\..\..\..\..\Software\uCOS-III\Source/os_q.c **** * Note(s)    : none
 793:..\..\..\..\..\..\Software\uCOS-III\Source/os_q.c **** ***************************************************************************************************
 794:..\..\..\..\..\..\Software\uCOS-III\Source/os_q.c **** */
 795:..\..\..\..\..\..\Software\uCOS-III\Source/os_q.c **** 
 796:..\..\..\..\..\..\Software\uCOS-III\Source/os_q.c **** void  OSQPost (OS_Q         *p_q,
 797:..\..\..\..\..\..\Software\uCOS-III\Source/os_q.c ****                void         *p_void,
 798:..\..\..\..\..\..\Software\uCOS-III\Source/os_q.c ****                OS_MSG_SIZE   msg_size,
 799:..\..\..\..\..\..\Software\uCOS-III\Source/os_q.c ****                OS_OPT        opt,
 800:..\..\..\..\..\..\Software\uCOS-III\Source/os_q.c ****                OS_ERR       *p_err)
 801:..\..\..\..\..\..\Software\uCOS-III\Source/os_q.c **** {
 700              		.loc 1 801 0
 701              		.cfi_startproc
 702              		@ args = 4, pretend = 0, frame = 24
 703              		@ frame_needed = 1, uses_anonymous_args = 0
 704 0000 90B5     		push	{r4, r7, lr}
 705              		.cfi_def_cfa_offset 12
 706              		.cfi_offset 4, -12
 707              		.cfi_offset 7, -8
 708              		.cfi_offset 14, -4
 709 0002 89B0     		sub	sp, sp, #36
 710              		.cfi_def_cfa_offset 48
 711 0004 02AF     		add	r7, sp, #8
 712              		.cfi_def_cfa 7, 40
 713 0006 F860     		str	r0, [r7, #12]
 714 0008 B960     		str	r1, [r7, #8]
 715 000a 1900     		movs	r1, r3
 716 000c BB1D     		adds	r3, r7, #6
 717 000e 1A80     		strh	r2, [r3]
 718 0010 3B1D     		adds	r3, r7, #4
 719 0012 0A1C     		adds	r2, r1, #0
 720 0014 1A80     		strh	r2, [r3]
 802:..\..\..\..\..\..\Software\uCOS-III\Source/os_q.c ****     CPU_TS  ts;
 803:..\..\..\..\..\..\Software\uCOS-III\Source/os_q.c **** 
 804:..\..\..\..\..\..\Software\uCOS-III\Source/os_q.c **** 
 805:..\..\..\..\..\..\Software\uCOS-III\Source/os_q.c **** 
 806:..\..\..\..\..\..\Software\uCOS-III\Source/os_q.c **** #ifdef OS_SAFETY_CRITICAL
 807:..\..\..\..\..\..\Software\uCOS-III\Source/os_q.c ****     if (p_err == DEF_NULL) {
 808:..\..\..\..\..\..\Software\uCOS-III\Source/os_q.c ****         OS_SAFETY_CRITICAL_EXCEPTION();
 809:..\..\..\..\..\..\Software\uCOS-III\Source/os_q.c ****         return;
 810:..\..\..\..\..\..\Software\uCOS-III\Source/os_q.c ****     }
 811:..\..\..\..\..\..\Software\uCOS-III\Source/os_q.c **** #endif
 812:..\..\..\..\..\..\Software\uCOS-III\Source/os_q.c **** 
 813:..\..\..\..\..\..\Software\uCOS-III\Source/os_q.c **** #if (OS_CFG_INVALID_OS_CALLS_CHK_EN == DEF_ENABLED)             /* Is the kernel running?          
 814:..\..\..\..\..\..\Software\uCOS-III\Source/os_q.c ****     if (OSRunning != OS_STATE_OS_RUNNING) {
 815:..\..\..\..\..\..\Software\uCOS-III\Source/os_q.c ****        *p_err = OS_ERR_OS_NOT_RUNNING;
 816:..\..\..\..\..\..\Software\uCOS-III\Source/os_q.c ****         return;
ARM GAS  C:\Users\ADMINI~1\AppData\Local\Temp\ccKLo23z.s 			page 28


 817:..\..\..\..\..\..\Software\uCOS-III\Source/os_q.c ****     }
 818:..\..\..\..\..\..\Software\uCOS-III\Source/os_q.c **** #endif
 819:..\..\..\..\..\..\Software\uCOS-III\Source/os_q.c **** 
 820:..\..\..\..\..\..\Software\uCOS-III\Source/os_q.c **** #if (OS_CFG_ARG_CHK_EN == DEF_ENABLED)
 821:..\..\..\..\..\..\Software\uCOS-III\Source/os_q.c ****     if (p_q == DEF_NULL) {                                      /* Validate 'p_q'                  
 721              		.loc 1 821 0
 722 0016 FB68     		ldr	r3, [r7, #12]
 723 0018 002B     		cmp	r3, #0
 724 001a 03D1     		bne	.L52
 822:..\..\..\..\..\..\Software\uCOS-III\Source/os_q.c **** #if (defined(TRACE_CFG_EN) && (TRACE_CFG_EN == DEF_ENABLED))
 823:..\..\..\..\..\..\Software\uCOS-III\Source/os_q.c ****         TRACE_OS_Q_POST_FAILED(p_q);                            /* Record the event.               
 824:..\..\..\..\..\..\Software\uCOS-III\Source/os_q.c **** #endif
 825:..\..\..\..\..\..\Software\uCOS-III\Source/os_q.c ****        *p_err = OS_ERR_OBJ_PTR_NULL;
 725              		.loc 1 825 0
 726 001c BB6A     		ldr	r3, [r7, #40]
 727 001e 204A     		ldr	r2, .L60
 728 0020 1A80     		strh	r2, [r3]
 826:..\..\..\..\..\..\Software\uCOS-III\Source/os_q.c ****         return;
 729              		.loc 1 826 0
 730 0022 3AE0     		b	.L51
 731              	.L52:
 827:..\..\..\..\..\..\Software\uCOS-III\Source/os_q.c ****     }
 828:..\..\..\..\..\..\Software\uCOS-III\Source/os_q.c ****     switch (opt) {                                              /* Validate 'opt'                  
 732              		.loc 1 828 0
 733 0024 3B1D     		adds	r3, r7, #4
 734 0026 1B88     		ldrh	r3, [r3]
 735 0028 8422     		movs	r2, #132
 736 002a 9200     		lsls	r2, r2, #2
 737 002c 9342     		cmp	r3, r2
 738 002e 22D0     		beq	.L59
 739 0030 8422     		movs	r2, #132
 740 0032 9200     		lsls	r2, r2, #2
 741 0034 9342     		cmp	r3, r2
 742 0036 08DC     		bgt	.L56
 743 0038 102B     		cmp	r3, #16
 744 003a 1CD0     		beq	.L59
 745 003c 8022     		movs	r2, #128
 746 003e 9200     		lsls	r2, r2, #2
 747 0040 9342     		cmp	r3, r2
 748 0042 18D0     		beq	.L59
 749 0044 002B     		cmp	r3, #0
 750 0046 16D0     		beq	.L59
 751 0048 11E0     		b	.L54
 752              	.L56:
 753 004a 164A     		ldr	r2, .L60+4
 754 004c 9342     		cmp	r3, r2
 755 004e 12D0     		beq	.L59
 756 0050 144A     		ldr	r2, .L60+4
 757 0052 9342     		cmp	r3, r2
 758 0054 04DC     		bgt	.L57
 759 0056 8022     		movs	r2, #128
 760 0058 1202     		lsls	r2, r2, #8
 761 005a 9342     		cmp	r3, r2
 762 005c 0BD0     		beq	.L59
 763 005e 06E0     		b	.L54
 764              	.L57:
 765 0060 8222     		movs	r2, #130
ARM GAS  C:\Users\ADMINI~1\AppData\Local\Temp\ccKLo23z.s 			page 29


 766 0062 1202     		lsls	r2, r2, #8
 767 0064 9342     		cmp	r3, r2
 768 0066 06D0     		beq	.L59
 769 0068 0F4A     		ldr	r2, .L60+8
 770 006a 9342     		cmp	r3, r2
 771 006c 03D0     		beq	.L59
 772              	.L54:
 829:..\..\..\..\..\..\Software\uCOS-III\Source/os_q.c ****         case OS_OPT_POST_FIFO:
 830:..\..\..\..\..\..\Software\uCOS-III\Source/os_q.c ****         case OS_OPT_POST_LIFO:
 831:..\..\..\..\..\..\Software\uCOS-III\Source/os_q.c ****         case OS_OPT_POST_FIFO | OS_OPT_POST_ALL:
 832:..\..\..\..\..\..\Software\uCOS-III\Source/os_q.c ****         case OS_OPT_POST_LIFO | OS_OPT_POST_ALL:
 833:..\..\..\..\..\..\Software\uCOS-III\Source/os_q.c ****         case OS_OPT_POST_FIFO | OS_OPT_POST_NO_SCHED:
 834:..\..\..\..\..\..\Software\uCOS-III\Source/os_q.c ****         case OS_OPT_POST_LIFO | OS_OPT_POST_NO_SCHED:
 835:..\..\..\..\..\..\Software\uCOS-III\Source/os_q.c ****         case OS_OPT_POST_FIFO | OS_OPT_POST_ALL | OS_OPT_POST_NO_SCHED:
 836:..\..\..\..\..\..\Software\uCOS-III\Source/os_q.c ****         case OS_OPT_POST_LIFO | OS_OPT_POST_ALL | OS_OPT_POST_NO_SCHED:
 837:..\..\..\..\..\..\Software\uCOS-III\Source/os_q.c ****              break;
 838:..\..\..\..\..\..\Software\uCOS-III\Source/os_q.c **** 
 839:..\..\..\..\..\..\Software\uCOS-III\Source/os_q.c ****         default:
 840:..\..\..\..\..\..\Software\uCOS-III\Source/os_q.c **** #if (defined(TRACE_CFG_EN) && (TRACE_CFG_EN == DEF_ENABLED))
 841:..\..\..\..\..\..\Software\uCOS-III\Source/os_q.c ****              TRACE_OS_Q_POST_FAILED(p_q);                       /* Record the event.               
 842:..\..\..\..\..\..\Software\uCOS-III\Source/os_q.c **** #endif
 843:..\..\..\..\..\..\Software\uCOS-III\Source/os_q.c ****             *p_err =  OS_ERR_OPT_INVALID;
 773              		.loc 1 843 0
 774 006e BB6A     		ldr	r3, [r7, #40]
 775 0070 0E4A     		ldr	r2, .L60+12
 776 0072 1A80     		strh	r2, [r3]
 844:..\..\..\..\..\..\Software\uCOS-III\Source/os_q.c ****              return;
 777              		.loc 1 844 0
 778 0074 11E0     		b	.L51
 779              	.L59:
 837:..\..\..\..\..\..\Software\uCOS-III\Source/os_q.c **** 
 780              		.loc 1 837 0
 781 0076 C046     		nop
 845:..\..\..\..\..\..\Software\uCOS-III\Source/os_q.c ****     }
 846:..\..\..\..\..\..\Software\uCOS-III\Source/os_q.c **** #endif
 847:..\..\..\..\..\..\Software\uCOS-III\Source/os_q.c **** 
 848:..\..\..\..\..\..\Software\uCOS-III\Source/os_q.c **** #if (OS_CFG_OBJ_TYPE_CHK_EN == DEF_ENABLED)
 849:..\..\..\..\..\..\Software\uCOS-III\Source/os_q.c ****     if (p_q->Type != OS_OBJ_TYPE_Q) {                           /* Make sure message queue was crea
 850:..\..\..\..\..\..\Software\uCOS-III\Source/os_q.c **** #if (defined(TRACE_CFG_EN) && (TRACE_CFG_EN == DEF_ENABLED))
 851:..\..\..\..\..\..\Software\uCOS-III\Source/os_q.c ****         TRACE_OS_Q_POST_FAILED(p_q);                            /* Record the event.               
 852:..\..\..\..\..\..\Software\uCOS-III\Source/os_q.c **** #endif
 853:..\..\..\..\..\..\Software\uCOS-III\Source/os_q.c ****        *p_err = OS_ERR_OBJ_TYPE;
 854:..\..\..\..\..\..\Software\uCOS-III\Source/os_q.c ****         return;
 855:..\..\..\..\..\..\Software\uCOS-III\Source/os_q.c ****     }
 856:..\..\..\..\..\..\Software\uCOS-III\Source/os_q.c **** #endif
 857:..\..\..\..\..\..\Software\uCOS-III\Source/os_q.c **** #if (OS_CFG_TS_EN == DEF_ENABLED)
 858:..\..\..\..\..\..\Software\uCOS-III\Source/os_q.c ****     ts = OS_TS_GET();                                           /* Get timestamp                   
 782              		.loc 1 858 0
 783 0078 FFF7FEFF 		bl	CPU_TS_TmrRd
 784 007c 0300     		movs	r3, r0
 785 007e 7B61     		str	r3, [r7, #20]
 859:..\..\..\..\..\..\Software\uCOS-III\Source/os_q.c **** #else
 860:..\..\..\..\..\..\Software\uCOS-III\Source/os_q.c ****     ts = 0u;
 861:..\..\..\..\..\..\Software\uCOS-III\Source/os_q.c **** #endif
 862:..\..\..\..\..\..\Software\uCOS-III\Source/os_q.c **** 
 863:..\..\..\..\..\..\Software\uCOS-III\Source/os_q.c **** #if (OS_CFG_ISR_POST_DEFERRED_EN == DEF_ENABLED)
 864:..\..\..\..\..\..\Software\uCOS-III\Source/os_q.c ****     if (OSIntNestingCtr > 0u) {
ARM GAS  C:\Users\ADMINI~1\AppData\Local\Temp\ccKLo23z.s 			page 30


 865:..\..\..\..\..\..\Software\uCOS-III\Source/os_q.c ****         OS_IntQPost(OS_OBJ_TYPE_Q,                              /* Post to ISR queue               
 866:..\..\..\..\..\..\Software\uCOS-III\Source/os_q.c ****                     (void      *)p_q,
 867:..\..\..\..\..\..\Software\uCOS-III\Source/os_q.c ****                     (void      *)p_void,
 868:..\..\..\..\..\..\Software\uCOS-III\Source/os_q.c ****                     msg_size,
 869:..\..\..\..\..\..\Software\uCOS-III\Source/os_q.c ****                     0u,
 870:..\..\..\..\..\..\Software\uCOS-III\Source/os_q.c ****                     opt,
 871:..\..\..\..\..\..\Software\uCOS-III\Source/os_q.c ****                     ts,
 872:..\..\..\..\..\..\Software\uCOS-III\Source/os_q.c ****                     p_err);
 873:..\..\..\..\..\..\Software\uCOS-III\Source/os_q.c ****         return;
 874:..\..\..\..\..\..\Software\uCOS-III\Source/os_q.c ****     }
 875:..\..\..\..\..\..\Software\uCOS-III\Source/os_q.c **** #endif
 876:..\..\..\..\..\..\Software\uCOS-III\Source/os_q.c **** #if (defined(TRACE_CFG_EN) && (TRACE_CFG_EN == DEF_ENABLED))
 877:..\..\..\..\..\..\Software\uCOS-III\Source/os_q.c ****     TRACE_OS_Q_POST(p_q);                                       /* Record the event.               
 878:..\..\..\..\..\..\Software\uCOS-III\Source/os_q.c **** #endif
 879:..\..\..\..\..\..\Software\uCOS-III\Source/os_q.c ****     OS_QPost(p_q,
 786              		.loc 1 879 0
 787 0080 3B1D     		adds	r3, r7, #4
 788 0082 1C88     		ldrh	r4, [r3]
 789 0084 BB1D     		adds	r3, r7, #6
 790 0086 1A88     		ldrh	r2, [r3]
 791 0088 B968     		ldr	r1, [r7, #8]
 792 008a F868     		ldr	r0, [r7, #12]
 793 008c BB6A     		ldr	r3, [r7, #40]
 794 008e 0193     		str	r3, [sp, #4]
 795 0090 7B69     		ldr	r3, [r7, #20]
 796 0092 0093     		str	r3, [sp]
 797 0094 2300     		movs	r3, r4
 798 0096 FFF7FEFF 		bl	OS_QPost
 799              	.L51:
 880:..\..\..\..\..\..\Software\uCOS-III\Source/os_q.c ****              p_void,
 881:..\..\..\..\..\..\Software\uCOS-III\Source/os_q.c ****              msg_size,
 882:..\..\..\..\..\..\Software\uCOS-III\Source/os_q.c ****              opt,
 883:..\..\..\..\..\..\Software\uCOS-III\Source/os_q.c ****              ts,
 884:..\..\..\..\..\..\Software\uCOS-III\Source/os_q.c ****              p_err);
 885:..\..\..\..\..\..\Software\uCOS-III\Source/os_q.c **** }
 800              		.loc 1 885 0
 801 009a BD46     		mov	sp, r7
 802 009c 07B0     		add	sp, sp, #28
 803              		@ sp needed
 804 009e 90BD     		pop	{r4, r7, pc}
 805              	.L61:
 806              		.align	2
 807              	.L60:
 808 00a0 C35D0000 		.word	24003
 809 00a4 10800000 		.word	32784
 810 00a8 10820000 		.word	33296
 811 00ac 255E0000 		.word	24101
 812              		.cfi_endproc
 813              	.LFE3:
 814              		.size	OSQPost, .-OSQPost
 815              		.section	.rodata
 816              		.align	2
 817              	.LC6:
 818 0000 3F5100   		.ascii	"?Q\000"
 819              		.section	.text.OS_QClr,"ax",%progbits
 820              		.align	2
 821              		.global	OS_QClr
ARM GAS  C:\Users\ADMINI~1\AppData\Local\Temp\ccKLo23z.s 			page 31


 822              		.code	16
 823              		.thumb_func
 824              		.type	OS_QClr, %function
 825              	OS_QClr:
 826              	.LFB4:
 886:..\..\..\..\..\..\Software\uCOS-III\Source/os_q.c **** 
 887:..\..\..\..\..\..\Software\uCOS-III\Source/os_q.c **** 
 888:..\..\..\..\..\..\Software\uCOS-III\Source/os_q.c **** /*
 889:..\..\..\..\..\..\Software\uCOS-III\Source/os_q.c **** ***************************************************************************************************
 890:..\..\..\..\..\..\Software\uCOS-III\Source/os_q.c **** *                                        CLEAR THE CONTENTS OF A MESSAGE QUEUE
 891:..\..\..\..\..\..\Software\uCOS-III\Source/os_q.c **** *
 892:..\..\..\..\..\..\Software\uCOS-III\Source/os_q.c **** * Description: This function is called by OSQDel() to clear the contents of a message queue
 893:..\..\..\..\..\..\Software\uCOS-III\Source/os_q.c **** *
 894:..\..\..\..\..\..\Software\uCOS-III\Source/os_q.c **** 
 895:..\..\..\..\..\..\Software\uCOS-III\Source/os_q.c **** * Argument(s): p_q      is a pointer to the queue to clear
 896:..\..\..\..\..\..\Software\uCOS-III\Source/os_q.c **** *              ---
 897:..\..\..\..\..\..\Software\uCOS-III\Source/os_q.c **** *
 898:..\..\..\..\..\..\Software\uCOS-III\Source/os_q.c **** * Returns    : none
 899:..\..\..\..\..\..\Software\uCOS-III\Source/os_q.c **** *
 900:..\..\..\..\..\..\Software\uCOS-III\Source/os_q.c **** * Note(s)    : 1) This function is INTERNAL to uC/OS-III and your application MUST NOT call it.
 901:..\..\..\..\..\..\Software\uCOS-III\Source/os_q.c **** ***************************************************************************************************
 902:..\..\..\..\..\..\Software\uCOS-III\Source/os_q.c **** */
 903:..\..\..\..\..\..\Software\uCOS-III\Source/os_q.c **** 
 904:..\..\..\..\..\..\Software\uCOS-III\Source/os_q.c **** void  OS_QClr (OS_Q  *p_q)
 905:..\..\..\..\..\..\Software\uCOS-III\Source/os_q.c **** {
 827              		.loc 1 905 0
 828              		.cfi_startproc
 829              		@ args = 0, pretend = 0, frame = 8
 830              		@ frame_needed = 1, uses_anonymous_args = 0
 831 0000 80B5     		push	{r7, lr}
 832              		.cfi_def_cfa_offset 8
 833              		.cfi_offset 7, -8
 834              		.cfi_offset 14, -4
 835 0002 82B0     		sub	sp, sp, #8
 836              		.cfi_def_cfa_offset 16
 837 0004 00AF     		add	r7, sp, #0
 838              		.cfi_def_cfa_register 7
 839 0006 7860     		str	r0, [r7, #4]
 906:..\..\..\..\..\..\Software\uCOS-III\Source/os_q.c ****     (void)OS_MsgQFreeAll (&p_q->MsgQ);                          /* Return all OS_MSGs to the free l
 840              		.loc 1 906 0
 841 0008 7B68     		ldr	r3, [r7, #4]
 842 000a 2033     		adds	r3, r3, #32
 843 000c 1800     		movs	r0, r3
 844 000e FFF7FEFF 		bl	OS_MsgQFreeAll
 907:..\..\..\..\..\..\Software\uCOS-III\Source/os_q.c **** #if (OS_OBJ_TYPE_REQ == DEF_ENABLED)
 908:..\..\..\..\..\..\Software\uCOS-III\Source/os_q.c ****     p_q->Type    =  OS_OBJ_TYPE_NONE;                           /* Mark the data structure as a NON
 845              		.loc 1 908 0
 846 0012 7B68     		ldr	r3, [r7, #4]
 847 0014 094A     		ldr	r2, .L63
 848 0016 1A60     		str	r2, [r3]
 909:..\..\..\..\..\..\Software\uCOS-III\Source/os_q.c **** #endif
 910:..\..\..\..\..\..\Software\uCOS-III\Source/os_q.c **** #if (OS_CFG_DBG_EN == DEF_ENABLED)
 911:..\..\..\..\..\..\Software\uCOS-III\Source/os_q.c ****     p_q->NamePtr = (CPU_CHAR *)((void *)"?Q");
 849              		.loc 1 911 0
 850 0018 7B68     		ldr	r3, [r7, #4]
 851 001a 094A     		ldr	r2, .L63+4
 852 001c 5A60     		str	r2, [r3, #4]
ARM GAS  C:\Users\ADMINI~1\AppData\Local\Temp\ccKLo23z.s 			page 32


 912:..\..\..\..\..\..\Software\uCOS-III\Source/os_q.c **** #endif
 913:..\..\..\..\..\..\Software\uCOS-III\Source/os_q.c ****     OS_MsgQInit (&p_q->MsgQ,                                    /* Initialize the list of OS_MSGs  
 853              		.loc 1 913 0
 854 001e 7B68     		ldr	r3, [r7, #4]
 855 0020 2033     		adds	r3, r3, #32
 856 0022 0021     		movs	r1, #0
 857 0024 1800     		movs	r0, r3
 858 0026 FFF7FEFF 		bl	OS_MsgQInit
 914:..\..\..\..\..\..\Software\uCOS-III\Source/os_q.c ****                  0u);
 915:..\..\..\..\..\..\Software\uCOS-III\Source/os_q.c ****     OS_PendListInit (&p_q->PendList);                           /* Initialize the waiting list     
 859              		.loc 1 915 0
 860 002a 7B68     		ldr	r3, [r7, #4]
 861 002c 0833     		adds	r3, r3, #8
 862 002e 1800     		movs	r0, r3
 863 0030 FFF7FEFF 		bl	OS_PendListInit
 916:..\..\..\..\..\..\Software\uCOS-III\Source/os_q.c **** }
 864              		.loc 1 916 0
 865 0034 C046     		nop
 866 0036 BD46     		mov	sp, r7
 867 0038 02B0     		add	sp, sp, #8
 868              		@ sp needed
 869 003a 80BD     		pop	{r7, pc}
 870              	.L64:
 871              		.align	2
 872              	.L63:
 873 003c 4E4F4E45 		.word	1162760014
 874 0040 00000000 		.word	.LC6
 875              		.cfi_endproc
 876              	.LFE4:
 877              		.size	OS_QClr, .-OS_QClr
 878              		.section	.rodata
 879 0003 00       		.align	2
 880              	.LC8:
 881 0004 2000     		.ascii	" \000"
 882              		.section	.text.OS_QDbgListAdd,"ax",%progbits
 883              		.align	2
 884              		.global	OS_QDbgListAdd
 885              		.code	16
 886              		.thumb_func
 887              		.type	OS_QDbgListAdd, %function
 888              	OS_QDbgListAdd:
 889              	.LFB5:
 917:..\..\..\..\..\..\Software\uCOS-III\Source/os_q.c **** 
 918:..\..\..\..\..\..\Software\uCOS-III\Source/os_q.c **** 
 919:..\..\..\..\..\..\Software\uCOS-III\Source/os_q.c **** /*
 920:..\..\..\..\..\..\Software\uCOS-III\Source/os_q.c **** ***************************************************************************************************
 921:..\..\..\..\..\..\Software\uCOS-III\Source/os_q.c **** *                                      ADD/REMOVE MESSAGE QUEUE TO/FROM DEBUG LIST
 922:..\..\..\..\..\..\Software\uCOS-III\Source/os_q.c **** *
 923:..\..\..\..\..\..\Software\uCOS-III\Source/os_q.c **** * Description: These functions are called by uC/OS-III to add or remove a message queue to/from a m
 924:..\..\..\..\..\..\Software\uCOS-III\Source/os_q.c **** *              list.
 925:..\..\..\..\..\..\Software\uCOS-III\Source/os_q.c **** *
 926:..\..\..\..\..\..\Software\uCOS-III\Source/os_q.c **** * Arguments  : p_q     is a pointer to the message queue to add/remove
 927:..\..\..\..\..\..\Software\uCOS-III\Source/os_q.c **** *
 928:..\..\..\..\..\..\Software\uCOS-III\Source/os_q.c **** * Returns    : none
 929:..\..\..\..\..\..\Software\uCOS-III\Source/os_q.c **** *
 930:..\..\..\..\..\..\Software\uCOS-III\Source/os_q.c **** * Note(s)    : These functions are INTERNAL to uC/OS-III and your application should not call it.
 931:..\..\..\..\..\..\Software\uCOS-III\Source/os_q.c **** ***************************************************************************************************
ARM GAS  C:\Users\ADMINI~1\AppData\Local\Temp\ccKLo23z.s 			page 33


 932:..\..\..\..\..\..\Software\uCOS-III\Source/os_q.c **** */
 933:..\..\..\..\..\..\Software\uCOS-III\Source/os_q.c **** 
 934:..\..\..\..\..\..\Software\uCOS-III\Source/os_q.c **** 
 935:..\..\..\..\..\..\Software\uCOS-III\Source/os_q.c **** #if (OS_CFG_DBG_EN == DEF_ENABLED)
 936:..\..\..\..\..\..\Software\uCOS-III\Source/os_q.c **** void  OS_QDbgListAdd (OS_Q  *p_q)
 937:..\..\..\..\..\..\Software\uCOS-III\Source/os_q.c **** {
 890              		.loc 1 937 0
 891              		.cfi_startproc
 892              		@ args = 0, pretend = 0, frame = 8
 893              		@ frame_needed = 1, uses_anonymous_args = 0
 894 0000 80B5     		push	{r7, lr}
 895              		.cfi_def_cfa_offset 8
 896              		.cfi_offset 7, -8
 897              		.cfi_offset 14, -4
 898 0002 82B0     		sub	sp, sp, #8
 899              		.cfi_def_cfa_offset 16
 900 0004 00AF     		add	r7, sp, #0
 901              		.cfi_def_cfa_register 7
 902 0006 7860     		str	r0, [r7, #4]
 938:..\..\..\..\..\..\Software\uCOS-III\Source/os_q.c ****     p_q->DbgNamePtr               = (CPU_CHAR *)((void *)" ");
 903              		.loc 1 938 0
 904 0008 7B68     		ldr	r3, [r7, #4]
 905 000a 0E4A     		ldr	r2, .L68
 906 000c DA61     		str	r2, [r3, #28]
 939:..\..\..\..\..\..\Software\uCOS-III\Source/os_q.c ****     p_q->DbgPrevPtr               = DEF_NULL;
 907              		.loc 1 939 0
 908 000e 7B68     		ldr	r3, [r7, #4]
 909 0010 0022     		movs	r2, #0
 910 0012 5A61     		str	r2, [r3, #20]
 940:..\..\..\..\..\..\Software\uCOS-III\Source/os_q.c ****     if (OSQDbgListPtr == DEF_NULL) {
 911              		.loc 1 940 0
 912 0014 0C4B     		ldr	r3, .L68+4
 913 0016 1B68     		ldr	r3, [r3]
 914 0018 002B     		cmp	r3, #0
 915 001a 03D1     		bne	.L66
 941:..\..\..\..\..\..\Software\uCOS-III\Source/os_q.c ****         p_q->DbgNextPtr           = DEF_NULL;
 916              		.loc 1 941 0
 917 001c 7B68     		ldr	r3, [r7, #4]
 918 001e 0022     		movs	r2, #0
 919 0020 9A61     		str	r2, [r3, #24]
 920 0022 07E0     		b	.L67
 921              	.L66:
 942:..\..\..\..\..\..\Software\uCOS-III\Source/os_q.c ****     } else {
 943:..\..\..\..\..\..\Software\uCOS-III\Source/os_q.c ****         p_q->DbgNextPtr           =  OSQDbgListPtr;
 922              		.loc 1 943 0
 923 0024 084B     		ldr	r3, .L68+4
 924 0026 1A68     		ldr	r2, [r3]
 925 0028 7B68     		ldr	r3, [r7, #4]
 926 002a 9A61     		str	r2, [r3, #24]
 944:..\..\..\..\..\..\Software\uCOS-III\Source/os_q.c ****         OSQDbgListPtr->DbgPrevPtr =  p_q;
 927              		.loc 1 944 0
 928 002c 064B     		ldr	r3, .L68+4
 929 002e 1B68     		ldr	r3, [r3]
 930 0030 7A68     		ldr	r2, [r7, #4]
 931 0032 5A61     		str	r2, [r3, #20]
 932              	.L67:
 945:..\..\..\..\..\..\Software\uCOS-III\Source/os_q.c ****     }
ARM GAS  C:\Users\ADMINI~1\AppData\Local\Temp\ccKLo23z.s 			page 34


 946:..\..\..\..\..\..\Software\uCOS-III\Source/os_q.c ****     OSQDbgListPtr                 =  p_q;
 933              		.loc 1 946 0
 934 0034 044B     		ldr	r3, .L68+4
 935 0036 7A68     		ldr	r2, [r7, #4]
 936 0038 1A60     		str	r2, [r3]
 947:..\..\..\..\..\..\Software\uCOS-III\Source/os_q.c **** }
 937              		.loc 1 947 0
 938 003a C046     		nop
 939 003c BD46     		mov	sp, r7
 940 003e 02B0     		add	sp, sp, #8
 941              		@ sp needed
 942 0040 80BD     		pop	{r7, pc}
 943              	.L69:
 944 0042 C046     		.align	2
 945              	.L68:
 946 0044 04000000 		.word	.LC8
 947 0048 00000000 		.word	OSQDbgListPtr
 948              		.cfi_endproc
 949              	.LFE5:
 950              		.size	OS_QDbgListAdd, .-OS_QDbgListAdd
 951              		.section	.text.OS_QDbgListRemove,"ax",%progbits
 952              		.align	2
 953              		.global	OS_QDbgListRemove
 954              		.code	16
 955              		.thumb_func
 956              		.type	OS_QDbgListRemove, %function
 957              	OS_QDbgListRemove:
 958              	.LFB6:
 948:..\..\..\..\..\..\Software\uCOS-III\Source/os_q.c **** 
 949:..\..\..\..\..\..\Software\uCOS-III\Source/os_q.c **** 
 950:..\..\..\..\..\..\Software\uCOS-III\Source/os_q.c **** 
 951:..\..\..\..\..\..\Software\uCOS-III\Source/os_q.c **** void  OS_QDbgListRemove (OS_Q  *p_q)
 952:..\..\..\..\..\..\Software\uCOS-III\Source/os_q.c **** {
 959              		.loc 1 952 0
 960              		.cfi_startproc
 961              		@ args = 0, pretend = 0, frame = 16
 962              		@ frame_needed = 1, uses_anonymous_args = 0
 963 0000 80B5     		push	{r7, lr}
 964              		.cfi_def_cfa_offset 8
 965              		.cfi_offset 7, -8
 966              		.cfi_offset 14, -4
 967 0002 84B0     		sub	sp, sp, #16
 968              		.cfi_def_cfa_offset 24
 969 0004 00AF     		add	r7, sp, #0
 970              		.cfi_def_cfa_register 7
 971 0006 7860     		str	r0, [r7, #4]
 953:..\..\..\..\..\..\Software\uCOS-III\Source/os_q.c ****     OS_Q  *p_q_next;
 954:..\..\..\..\..\..\Software\uCOS-III\Source/os_q.c ****     OS_Q  *p_q_prev;
 955:..\..\..\..\..\..\Software\uCOS-III\Source/os_q.c **** 
 956:..\..\..\..\..\..\Software\uCOS-III\Source/os_q.c **** 
 957:..\..\..\..\..\..\Software\uCOS-III\Source/os_q.c ****     p_q_prev = p_q->DbgPrevPtr;
 972              		.loc 1 957 0
 973 0008 7B68     		ldr	r3, [r7, #4]
 974 000a 5B69     		ldr	r3, [r3, #20]
 975 000c FB60     		str	r3, [r7, #12]
 958:..\..\..\..\..\..\Software\uCOS-III\Source/os_q.c ****     p_q_next = p_q->DbgNextPtr;
 976              		.loc 1 958 0
ARM GAS  C:\Users\ADMINI~1\AppData\Local\Temp\ccKLo23z.s 			page 35


 977 000e 7B68     		ldr	r3, [r7, #4]
 978 0010 9B69     		ldr	r3, [r3, #24]
 979 0012 BB60     		str	r3, [r7, #8]
 959:..\..\..\..\..\..\Software\uCOS-III\Source/os_q.c **** 
 960:..\..\..\..\..\..\Software\uCOS-III\Source/os_q.c ****     if (p_q_prev == DEF_NULL) {
 980              		.loc 1 960 0
 981 0014 FB68     		ldr	r3, [r7, #12]
 982 0016 002B     		cmp	r3, #0
 983 0018 0CD1     		bne	.L71
 961:..\..\..\..\..\..\Software\uCOS-III\Source/os_q.c ****         OSQDbgListPtr = p_q_next;
 984              		.loc 1 961 0
 985 001a 134B     		ldr	r3, .L76
 986 001c BA68     		ldr	r2, [r7, #8]
 987 001e 1A60     		str	r2, [r3]
 962:..\..\..\..\..\..\Software\uCOS-III\Source/os_q.c ****         if (p_q_next != DEF_NULL) {
 988              		.loc 1 962 0
 989 0020 BB68     		ldr	r3, [r7, #8]
 990 0022 002B     		cmp	r3, #0
 991 0024 02D0     		beq	.L72
 963:..\..\..\..\..\..\Software\uCOS-III\Source/os_q.c ****             p_q_next->DbgPrevPtr = DEF_NULL;
 992              		.loc 1 963 0
 993 0026 BB68     		ldr	r3, [r7, #8]
 994 0028 0022     		movs	r2, #0
 995 002a 5A61     		str	r2, [r3, #20]
 996              	.L72:
 964:..\..\..\..\..\..\Software\uCOS-III\Source/os_q.c ****         }
 965:..\..\..\..\..\..\Software\uCOS-III\Source/os_q.c ****         p_q->DbgNextPtr = DEF_NULL;
 997              		.loc 1 965 0
 998 002c 7B68     		ldr	r3, [r7, #4]
 999 002e 0022     		movs	r2, #0
 1000 0030 9A61     		str	r2, [r3, #24]
 966:..\..\..\..\..\..\Software\uCOS-III\Source/os_q.c **** 
 967:..\..\..\..\..\..\Software\uCOS-III\Source/os_q.c ****     } else if (p_q_next == DEF_NULL) {
 968:..\..\..\..\..\..\Software\uCOS-III\Source/os_q.c ****         p_q_prev->DbgNextPtr = DEF_NULL;
 969:..\..\..\..\..\..\Software\uCOS-III\Source/os_q.c ****         p_q->DbgPrevPtr      = DEF_NULL;
 970:..\..\..\..\..\..\Software\uCOS-III\Source/os_q.c **** 
 971:..\..\..\..\..\..\Software\uCOS-III\Source/os_q.c ****     } else {
 972:..\..\..\..\..\..\Software\uCOS-III\Source/os_q.c ****         p_q_prev->DbgNextPtr =  p_q_next;
 973:..\..\..\..\..\..\Software\uCOS-III\Source/os_q.c ****         p_q_next->DbgPrevPtr =  p_q_prev;
 974:..\..\..\..\..\..\Software\uCOS-III\Source/os_q.c ****         p_q->DbgNextPtr      = DEF_NULL;
 975:..\..\..\..\..\..\Software\uCOS-III\Source/os_q.c ****         p_q->DbgPrevPtr      = DEF_NULL;
 976:..\..\..\..\..\..\Software\uCOS-III\Source/os_q.c ****     }
 977:..\..\..\..\..\..\Software\uCOS-III\Source/os_q.c **** }
 1001              		.loc 1 977 0
 1002 0032 15E0     		b	.L75
 1003              	.L71:
 967:..\..\..\..\..\..\Software\uCOS-III\Source/os_q.c ****         p_q_prev->DbgNextPtr = DEF_NULL;
 1004              		.loc 1 967 0
 1005 0034 BB68     		ldr	r3, [r7, #8]
 1006 0036 002B     		cmp	r3, #0
 1007 0038 06D1     		bne	.L74
 968:..\..\..\..\..\..\Software\uCOS-III\Source/os_q.c ****         p_q->DbgPrevPtr      = DEF_NULL;
 1008              		.loc 1 968 0
 1009 003a FB68     		ldr	r3, [r7, #12]
 1010 003c 0022     		movs	r2, #0
 1011 003e 9A61     		str	r2, [r3, #24]
 969:..\..\..\..\..\..\Software\uCOS-III\Source/os_q.c **** 
ARM GAS  C:\Users\ADMINI~1\AppData\Local\Temp\ccKLo23z.s 			page 36


 1012              		.loc 1 969 0
 1013 0040 7B68     		ldr	r3, [r7, #4]
 1014 0042 0022     		movs	r2, #0
 1015 0044 5A61     		str	r2, [r3, #20]
 1016              		.loc 1 977 0
 1017 0046 0BE0     		b	.L75
 1018              	.L74:
 972:..\..\..\..\..\..\Software\uCOS-III\Source/os_q.c ****         p_q_next->DbgPrevPtr =  p_q_prev;
 1019              		.loc 1 972 0
 1020 0048 FB68     		ldr	r3, [r7, #12]
 1021 004a BA68     		ldr	r2, [r7, #8]
 1022 004c 9A61     		str	r2, [r3, #24]
 973:..\..\..\..\..\..\Software\uCOS-III\Source/os_q.c ****         p_q->DbgNextPtr      = DEF_NULL;
 1023              		.loc 1 973 0
 1024 004e BB68     		ldr	r3, [r7, #8]
 1025 0050 FA68     		ldr	r2, [r7, #12]
 1026 0052 5A61     		str	r2, [r3, #20]
 974:..\..\..\..\..\..\Software\uCOS-III\Source/os_q.c ****         p_q->DbgPrevPtr      = DEF_NULL;
 1027              		.loc 1 974 0
 1028 0054 7B68     		ldr	r3, [r7, #4]
 1029 0056 0022     		movs	r2, #0
 1030 0058 9A61     		str	r2, [r3, #24]
 975:..\..\..\..\..\..\Software\uCOS-III\Source/os_q.c ****     }
 1031              		.loc 1 975 0
 1032 005a 7B68     		ldr	r3, [r7, #4]
 1033 005c 0022     		movs	r2, #0
 1034 005e 5A61     		str	r2, [r3, #20]
 1035              	.L75:
 1036              		.loc 1 977 0
 1037 0060 C046     		nop
 1038 0062 BD46     		mov	sp, r7
 1039 0064 04B0     		add	sp, sp, #16
 1040              		@ sp needed
 1041 0066 80BD     		pop	{r7, pc}
 1042              	.L77:
 1043              		.align	2
 1044              	.L76:
 1045 0068 00000000 		.word	OSQDbgListPtr
 1046              		.cfi_endproc
 1047              	.LFE6:
 1048              		.size	OS_QDbgListRemove, .-OS_QDbgListRemove
 1049              		.section	.text.OS_QPost,"ax",%progbits
 1050              		.align	2
 1051              		.global	OS_QPost
 1052              		.code	16
 1053              		.thumb_func
 1054              		.type	OS_QPost, %function
 1055              	OS_QPost:
 1056              	.LFB7:
 978:..\..\..\..\..\..\Software\uCOS-III\Source/os_q.c **** #endif
 979:..\..\..\..\..\..\Software\uCOS-III\Source/os_q.c **** 
 980:..\..\..\..\..\..\Software\uCOS-III\Source/os_q.c **** 
 981:..\..\..\..\..\..\Software\uCOS-III\Source/os_q.c **** /*
 982:..\..\..\..\..\..\Software\uCOS-III\Source/os_q.c **** ***************************************************************************************************
 983:..\..\..\..\..\..\Software\uCOS-III\Source/os_q.c **** *                                               POST MESSAGE TO A QUEUE
 984:..\..\..\..\..\..\Software\uCOS-III\Source/os_q.c **** *
 985:..\..\..\..\..\..\Software\uCOS-III\Source/os_q.c **** * Description: This function sends a message to a queue.  With the 'opt' argument, you can specify 
ARM GAS  C:\Users\ADMINI~1\AppData\Local\Temp\ccKLo23z.s 			page 37


 986:..\..\..\..\..\..\Software\uCOS-III\Source/os_q.c **** *              is broadcast to all waiting tasks and/or whether you post the message to the front o
 987:..\..\..\..\..\..\Software\uCOS-III\Source/os_q.c **** *              or normally (FIFO) at the end of the queue.
 988:..\..\..\..\..\..\Software\uCOS-III\Source/os_q.c **** *
 989:..\..\..\..\..\..\Software\uCOS-III\Source/os_q.c **** * Arguments  : p_q           is a pointer to a message queue that must have been created by OSQCrea
 990:..\..\..\..\..\..\Software\uCOS-III\Source/os_q.c **** *
 991:..\..\..\..\..\..\Software\uCOS-III\Source/os_q.c **** *              p_void        is a pointer to the message to send.
 992:..\..\..\..\..\..\Software\uCOS-III\Source/os_q.c **** *
 993:..\..\..\..\..\..\Software\uCOS-III\Source/os_q.c **** *              msg_size      specifies the size of the message (in bytes)
 994:..\..\..\..\..\..\Software\uCOS-III\Source/os_q.c **** *
 995:..\..\..\..\..\..\Software\uCOS-III\Source/os_q.c **** *              opt           determines the type of POST performed:
 996:..\..\..\..\..\..\Software\uCOS-III\Source/os_q.c **** *
 997:..\..\..\..\..\..\Software\uCOS-III\Source/os_q.c **** *                                OS_OPT_POST_ALL          POST to ALL tasks that are waiting on the
 998:..\..\..\..\..\..\Software\uCOS-III\Source/os_q.c **** *
 999:..\..\..\..\..\..\Software\uCOS-III\Source/os_q.c **** *                                OS_OPT_POST_FIFO         POST as FIFO and wake up single waiting t
1000:..\..\..\..\..\..\Software\uCOS-III\Source/os_q.c **** *                                OS_OPT_POST_LIFO         POST as LIFO and wake up single waiting t
1001:..\..\..\..\..\..\Software\uCOS-III\Source/os_q.c **** *
1002:..\..\..\..\..\..\Software\uCOS-III\Source/os_q.c **** *                                OS_OPT_POST_NO_SCHED     Do not call the scheduler
1003:..\..\..\..\..\..\Software\uCOS-III\Source/os_q.c **** *
1004:..\..\..\..\..\..\Software\uCOS-III\Source/os_q.c **** *              ts            is the timestamp of the post
1005:..\..\..\..\..\..\Software\uCOS-III\Source/os_q.c **** *
1006:..\..\..\..\..\..\Software\uCOS-III\Source/os_q.c **** *              p_err         is a pointer to a variable that will contain an error code returned by
1007:..\..\..\..\..\..\Software\uCOS-III\Source/os_q.c **** *
1008:..\..\..\..\..\..\Software\uCOS-III\Source/os_q.c **** *                                OS_ERR_NONE            The call was successful and the message was
1009:..\..\..\..\..\..\Software\uCOS-III\Source/os_q.c **** *                                OS_ERR_MSG_POOL_EMPTY  If there are no more OS_MSGs to use to plac
1010:..\..\..\..\..\..\Software\uCOS-III\Source/os_q.c **** *                                OS_ERR_Q_MAX           If the queue is full
1011:..\..\..\..\..\..\Software\uCOS-III\Source/os_q.c **** *
1012:..\..\..\..\..\..\Software\uCOS-III\Source/os_q.c **** * Returns    : None
1013:..\..\..\..\..\..\Software\uCOS-III\Source/os_q.c **** *
1014:..\..\..\..\..\..\Software\uCOS-III\Source/os_q.c **** * Note(s)    : This function is INTERNAL to uC/OS-III and your application should not call it.
1015:..\..\..\..\..\..\Software\uCOS-III\Source/os_q.c **** ***************************************************************************************************
1016:..\..\..\..\..\..\Software\uCOS-III\Source/os_q.c **** */
1017:..\..\..\..\..\..\Software\uCOS-III\Source/os_q.c **** 
1018:..\..\..\..\..\..\Software\uCOS-III\Source/os_q.c **** void  OS_QPost (OS_Q         *p_q,
1019:..\..\..\..\..\..\Software\uCOS-III\Source/os_q.c ****                 void         *p_void,
1020:..\..\..\..\..\..\Software\uCOS-III\Source/os_q.c ****                 OS_MSG_SIZE   msg_size,
1021:..\..\..\..\..\..\Software\uCOS-III\Source/os_q.c ****                 OS_OPT        opt,
1022:..\..\..\..\..\..\Software\uCOS-III\Source/os_q.c ****                 CPU_TS        ts,
1023:..\..\..\..\..\..\Software\uCOS-III\Source/os_q.c ****                 OS_ERR       *p_err)
1024:..\..\..\..\..\..\Software\uCOS-III\Source/os_q.c **** {
 1057              		.loc 1 1024 0
 1058              		.cfi_startproc
 1059              		@ args = 8, pretend = 0, frame = 40
 1060              		@ frame_needed = 1, uses_anonymous_args = 0
 1061 0000 90B5     		push	{r4, r7, lr}
 1062              		.cfi_def_cfa_offset 12
 1063              		.cfi_offset 4, -12
 1064              		.cfi_offset 7, -8
 1065              		.cfi_offset 14, -4
 1066 0002 8DB0     		sub	sp, sp, #52
 1067              		.cfi_def_cfa_offset 64
 1068 0004 02AF     		add	r7, sp, #8
 1069              		.cfi_def_cfa 7, 56
 1070 0006 F860     		str	r0, [r7, #12]
 1071 0008 B960     		str	r1, [r7, #8]
 1072 000a 1900     		movs	r1, r3
 1073 000c BB1D     		adds	r3, r7, #6
 1074 000e 1A80     		strh	r2, [r3]
ARM GAS  C:\Users\ADMINI~1\AppData\Local\Temp\ccKLo23z.s 			page 38


 1075 0010 3B1D     		adds	r3, r7, #4
 1076 0012 0A1C     		adds	r2, r1, #0
 1077 0014 1A80     		strh	r2, [r3]
1025:..\..\..\..\..\..\Software\uCOS-III\Source/os_q.c ****     OS_OPT         post_type;
1026:..\..\..\..\..\..\Software\uCOS-III\Source/os_q.c ****     OS_PEND_LIST  *p_pend_list;
1027:..\..\..\..\..\..\Software\uCOS-III\Source/os_q.c ****     OS_PEND_DATA  *p_pend_data;
1028:..\..\..\..\..\..\Software\uCOS-III\Source/os_q.c ****     OS_PEND_DATA  *p_pend_data_next;
1029:..\..\..\..\..\..\Software\uCOS-III\Source/os_q.c ****     OS_TCB        *p_tcb;
1030:..\..\..\..\..\..\Software\uCOS-III\Source/os_q.c ****     CPU_SR_ALLOC();
 1078              		.loc 1 1030 0
 1079 0016 0023     		movs	r3, #0
 1080 0018 FB61     		str	r3, [r7, #28]
1031:..\..\..\..\..\..\Software\uCOS-III\Source/os_q.c **** 
1032:..\..\..\..\..\..\Software\uCOS-III\Source/os_q.c **** 
1033:..\..\..\..\..\..\Software\uCOS-III\Source/os_q.c **** 
1034:..\..\..\..\..\..\Software\uCOS-III\Source/os_q.c ****     OS_CRITICAL_ENTER();
 1081              		.loc 1 1034 0
 1082 001a FFF7FEFF 		bl	CPU_SR_Save
 1083 001e 0300     		movs	r3, r0
 1084 0020 FB61     		str	r3, [r7, #28]
 1085 0022 FFF7FEFF 		bl	CPU_IntDisMeasStart
1035:..\..\..\..\..\..\Software\uCOS-III\Source/os_q.c ****     p_pend_list = &p_q->PendList;
 1086              		.loc 1 1035 0
 1087 0026 FB68     		ldr	r3, [r7, #12]
 1088 0028 0833     		adds	r3, r3, #8
 1089 002a BB61     		str	r3, [r7, #24]
1036:..\..\..\..\..\..\Software\uCOS-III\Source/os_q.c ****     if (p_pend_list->HeadPtr == DEF_NULL) {                     /* Any task waiting on message queu
 1090              		.loc 1 1036 0
 1091 002c BB69     		ldr	r3, [r7, #24]
 1092 002e 1B68     		ldr	r3, [r3]
 1093 0030 002B     		cmp	r3, #0
 1094 0032 24D1     		bne	.L79
1037:..\..\..\..\..\..\Software\uCOS-III\Source/os_q.c ****         if ((opt & OS_OPT_POST_LIFO) == 0u) {                   /* Determine whether we post FIFO o
 1095              		.loc 1 1037 0
 1096 0034 3B1D     		adds	r3, r7, #4
 1097 0036 1B88     		ldrh	r3, [r3]
 1098 0038 1022     		movs	r2, #16
 1099 003a 1340     		ands	r3, r2
 1100 003c 04D1     		bne	.L80
1038:..\..\..\..\..\..\Software\uCOS-III\Source/os_q.c ****             post_type = OS_OPT_POST_FIFO;
 1101              		.loc 1 1038 0
 1102 003e 2623     		movs	r3, #38
 1103 0040 FB18     		adds	r3, r7, r3
 1104 0042 0022     		movs	r2, #0
 1105 0044 1A80     		strh	r2, [r3]
 1106 0046 03E0     		b	.L81
 1107              	.L80:
1039:..\..\..\..\..\..\Software\uCOS-III\Source/os_q.c ****         } else {
1040:..\..\..\..\..\..\Software\uCOS-III\Source/os_q.c ****             post_type = OS_OPT_POST_LIFO;
 1108              		.loc 1 1040 0
 1109 0048 2623     		movs	r3, #38
 1110 004a FB18     		adds	r3, r7, r3
 1111 004c 1022     		movs	r2, #16
 1112 004e 1A80     		strh	r2, [r3]
 1113              	.L81:
1041:..\..\..\..\..\..\Software\uCOS-III\Source/os_q.c ****         }
1042:..\..\..\..\..\..\Software\uCOS-III\Source/os_q.c ****         OS_MsgQPut(&p_q->MsgQ,                                  /* Place message in the message que
ARM GAS  C:\Users\ADMINI~1\AppData\Local\Temp\ccKLo23z.s 			page 39


 1114              		.loc 1 1042 0
 1115 0050 FB68     		ldr	r3, [r7, #12]
 1116 0052 2033     		adds	r3, r3, #32
 1117 0054 1800     		movs	r0, r3
 1118 0056 2623     		movs	r3, #38
 1119 0058 FB18     		adds	r3, r7, r3
 1120 005a 1C88     		ldrh	r4, [r3]
 1121 005c BB1D     		adds	r3, r7, #6
 1122 005e 1A88     		ldrh	r2, [r3]
 1123 0060 B968     		ldr	r1, [r7, #8]
 1124 0062 FB6B     		ldr	r3, [r7, #60]
 1125 0064 0193     		str	r3, [sp, #4]
 1126 0066 BB6B     		ldr	r3, [r7, #56]
 1127 0068 0093     		str	r3, [sp]
 1128 006a 2300     		movs	r3, r4
 1129 006c FFF7FEFF 		bl	OS_MsgQPut
1043:..\..\..\..\..\..\Software\uCOS-III\Source/os_q.c ****                    p_void,
1044:..\..\..\..\..\..\Software\uCOS-III\Source/os_q.c ****                    msg_size,
1045:..\..\..\..\..\..\Software\uCOS-III\Source/os_q.c ****                    post_type,
1046:..\..\..\..\..\..\Software\uCOS-III\Source/os_q.c ****                    ts,
1047:..\..\..\..\..\..\Software\uCOS-III\Source/os_q.c ****                    p_err);
1048:..\..\..\..\..\..\Software\uCOS-III\Source/os_q.c ****         OS_CRITICAL_EXIT();
 1130              		.loc 1 1048 0
 1131 0070 FFF7FEFF 		bl	CPU_IntDisMeasStop
 1132 0074 FB69     		ldr	r3, [r7, #28]
 1133 0076 1800     		movs	r0, r3
 1134 0078 FFF7FEFF 		bl	CPU_SR_Restore
1049:..\..\..\..\..\..\Software\uCOS-III\Source/os_q.c ****         return;
 1135              		.loc 1 1049 0
 1136 007c 30E0     		b	.L78
 1137              	.L79:
1050:..\..\..\..\..\..\Software\uCOS-III\Source/os_q.c ****     }
1051:..\..\..\..\..\..\Software\uCOS-III\Source/os_q.c **** 
1052:..\..\..\..\..\..\Software\uCOS-III\Source/os_q.c ****     p_pend_data = p_pend_list->HeadPtr;
 1138              		.loc 1 1052 0
 1139 007e BB69     		ldr	r3, [r7, #24]
 1140 0080 1B68     		ldr	r3, [r3]
 1141 0082 3B62     		str	r3, [r7, #32]
1053:..\..\..\..\..\..\Software\uCOS-III\Source/os_q.c ****     while (p_pend_data != DEF_NULL) {
 1142              		.loc 1 1053 0
 1143 0084 17E0     		b	.L83
 1144              	.L86:
1054:..\..\..\..\..\..\Software\uCOS-III\Source/os_q.c ****         p_tcb            = p_pend_data->TCBPtr;
 1145              		.loc 1 1054 0
 1146 0086 3B6A     		ldr	r3, [r7, #32]
 1147 0088 9B68     		ldr	r3, [r3, #8]
 1148 008a 7B61     		str	r3, [r7, #20]
1055:..\..\..\..\..\..\Software\uCOS-III\Source/os_q.c ****         p_pend_data_next = p_pend_data->NextPtr;
 1149              		.loc 1 1055 0
 1150 008c 3B6A     		ldr	r3, [r7, #32]
 1151 008e 5B68     		ldr	r3, [r3, #4]
 1152 0090 3B61     		str	r3, [r7, #16]
1056:..\..\..\..\..\..\Software\uCOS-III\Source/os_q.c ****         OS_Post((OS_PEND_OBJ *)((void *)p_q),
 1153              		.loc 1 1056 0
 1154 0092 BB1D     		adds	r3, r7, #6
 1155 0094 1C88     		ldrh	r4, [r3]
 1156 0096 BA68     		ldr	r2, [r7, #8]
ARM GAS  C:\Users\ADMINI~1\AppData\Local\Temp\ccKLo23z.s 			page 40


 1157 0098 7969     		ldr	r1, [r7, #20]
 1158 009a F868     		ldr	r0, [r7, #12]
 1159 009c BB6B     		ldr	r3, [r7, #56]
 1160 009e 0093     		str	r3, [sp]
 1161 00a0 2300     		movs	r3, r4
 1162 00a2 FFF7FEFF 		bl	OS_Post
1057:..\..\..\..\..\..\Software\uCOS-III\Source/os_q.c ****                 p_tcb,
1058:..\..\..\..\..\..\Software\uCOS-III\Source/os_q.c ****                 p_void,
1059:..\..\..\..\..\..\Software\uCOS-III\Source/os_q.c ****                 msg_size,
1060:..\..\..\..\..\..\Software\uCOS-III\Source/os_q.c ****                 ts);
1061:..\..\..\..\..\..\Software\uCOS-III\Source/os_q.c ****         if ((opt & OS_OPT_POST_ALL) == 0)  {                    /* Post message to all tasks waitin
 1163              		.loc 1 1061 0
 1164 00a6 3B1D     		adds	r3, r7, #4
 1165 00a8 1A88     		ldrh	r2, [r3]
 1166 00aa 8023     		movs	r3, #128
 1167 00ac 9B00     		lsls	r3, r3, #2
 1168 00ae 1340     		ands	r3, r2
 1169 00b0 05D0     		beq	.L88
1062:..\..\..\..\..\..\Software\uCOS-III\Source/os_q.c ****             break;                                              /* No                              
1063:..\..\..\..\..\..\Software\uCOS-III\Source/os_q.c ****         }
1064:..\..\..\..\..\..\Software\uCOS-III\Source/os_q.c ****         p_pend_data = p_pend_data_next;
 1170              		.loc 1 1064 0
 1171 00b2 3B69     		ldr	r3, [r7, #16]
 1172 00b4 3B62     		str	r3, [r7, #32]
 1173              	.L83:
1053:..\..\..\..\..\..\Software\uCOS-III\Source/os_q.c ****         p_tcb            = p_pend_data->TCBPtr;
 1174              		.loc 1 1053 0
 1175 00b6 3B6A     		ldr	r3, [r7, #32]
 1176 00b8 002B     		cmp	r3, #0
 1177 00ba E4D1     		bne	.L86
 1178 00bc 00E0     		b	.L85
 1179              	.L88:
1062:..\..\..\..\..\..\Software\uCOS-III\Source/os_q.c ****             break;                                              /* No                              
 1180              		.loc 1 1062 0
 1181 00be C046     		nop
 1182              	.L85:
1065:..\..\..\..\..\..\Software\uCOS-III\Source/os_q.c ****     }
1066:..\..\..\..\..\..\Software\uCOS-III\Source/os_q.c ****     OS_CRITICAL_EXIT_NO_SCHED();
 1183              		.loc 1 1066 0
 1184 00c0 FFF7FEFF 		bl	CPU_IntDisMeasStop
 1185 00c4 FB69     		ldr	r3, [r7, #28]
 1186 00c6 1800     		movs	r0, r3
 1187 00c8 FFF7FEFF 		bl	CPU_SR_Restore
1067:..\..\..\..\..\..\Software\uCOS-III\Source/os_q.c ****     if ((opt & OS_OPT_POST_NO_SCHED) == 0u) {
 1188              		.loc 1 1067 0
 1189 00cc 3B1D     		adds	r3, r7, #4
 1190 00ce 0022     		movs	r2, #0
 1191 00d0 9B5E     		ldrsh	r3, [r3, r2]
 1192 00d2 002B     		cmp	r3, #0
 1193 00d4 01DB     		blt	.L87
1068:..\..\..\..\..\..\Software\uCOS-III\Source/os_q.c ****         OSSched();                                              /* Run the scheduler               
 1194              		.loc 1 1068 0
 1195 00d6 FFF7FEFF 		bl	OSSched
 1196              	.L87:
1069:..\..\..\..\..\..\Software\uCOS-III\Source/os_q.c ****     }
1070:..\..\..\..\..\..\Software\uCOS-III\Source/os_q.c ****    *p_err = OS_ERR_NONE;
 1197              		.loc 1 1070 0
ARM GAS  C:\Users\ADMINI~1\AppData\Local\Temp\ccKLo23z.s 			page 41


 1198 00da FB6B     		ldr	r3, [r7, #60]
 1199 00dc 0022     		movs	r2, #0
 1200 00de 1A80     		strh	r2, [r3]
 1201              	.L78:
1071:..\..\..\..\..\..\Software\uCOS-III\Source/os_q.c **** }
 1202              		.loc 1 1071 0
 1203 00e0 BD46     		mov	sp, r7
 1204 00e2 0BB0     		add	sp, sp, #44
 1205              		@ sp needed
 1206 00e4 90BD     		pop	{r4, r7, pc}
 1207              		.cfi_endproc
 1208              	.LFE7:
 1209              		.size	OS_QPost, .-OS_QPost
 1210 00e6 C046     		.text
 1211              	.Letext0:
 1212              		.file 2 "..\\..\\..\\..\\..\\..\\Software\\uC-CPU\\ARM-Cortex-M0\\GNU/cpu.h"
 1213              		.file 3 "..\\..\\..\\..\\..\\..\\Software\\uC-CPU/cpu_core.h"
 1214              		.file 4 "..\\..\\..\\..\\..\\..\\Software\\uCOS-III\\Source\\os_type.h"
 1215              		.file 5 "..\\..\\..\\..\\..\\..\\Software\\uCOS-III\\Source\\os.h"