ARM GAS  C:\Users\ADMINI~1\AppData\Local\Temp\ccKLo23z.s 			page 1


   1              		.syntax unified
   2              		.cpu cortex-m0
   3              		.fpu softvfp
   4              		.eabi_attribute 20, 1
   5              		.eabi_attribute 21, 1
   6              		.eabi_attribute 23, 3
   7              		.eabi_attribute 24, 1
   8              		.eabi_attribute 25, 1
   9              		.eabi_attribute 26, 1
  10              		.eabi_attribute 30, 6
  11              		.eabi_attribute 34, 0
  12              		.eabi_attribute 18, 4
  13              		.thumb
  14              		.syntax unified
  15              		.file	"os_q.c"
  16              		.text
  17              	.Ltext0:
  18              		.cfi_sections	.debug_frame
  19              		.section	.text.OSQCreate,"ax",%progbits
  20              		.align	2
  21              		.global	OSQCreate
  22              		.code	16
  23              		.thumb_func
  24              		.type	OSQCreate, %function
  25              	OSQCreate:
  26              	.LFB0:
  27              		.file 1 "..\\..\\..\\..\\..\\..\\Software\\uCOS-III\\Source\\os_q.c"
   1:..\..\..\..\..\..\Software\uCOS-III\Source/os_q.c **** /*
   2:..\..\..\..\..\..\Software\uCOS-III\Source/os_q.c **** ***************************************************************************************************
   3:..\..\..\..\..\..\Software\uCOS-III\Source/os_q.c **** *                                                      uC/OS-III
   4:..\..\..\..\..\..\Software\uCOS-III\Source/os_q.c **** *                                                 The Real-Time Kernel
   5:..\..\..\..\..\..\Software\uCOS-III\Source/os_q.c **** *
   6:..\..\..\..\..\..\Software\uCOS-III\Source/os_q.c **** *                                  (c) Copyright 2009-2015; Micrium, Inc.; Weston, FL
   7:..\..\..\..\..\..\Software\uCOS-III\Source/os_q.c **** *                           All rights reserved.  Protected by international copyright laws.
   8:..\..\..\..\..\..\Software\uCOS-III\Source/os_q.c **** *
   9:..\..\..\..\..\..\Software\uCOS-III\Source/os_q.c **** *                                               MESSAGE QUEUE MANAGEMENT
  10:..\..\..\..\..\..\Software\uCOS-III\Source/os_q.c **** *
  11:..\..\..\..\..\..\Software\uCOS-III\Source/os_q.c **** * File    : OS_Q.C
  12:..\..\..\..\..\..\Software\uCOS-III\Source/os_q.c **** * By      : JJL
  13:..\..\..\..\..\..\Software\uCOS-III\Source/os_q.c **** * Version : V3.05.01
  14:..\..\..\..\..\..\Software\uCOS-III\Source/os_q.c **** *
  15:..\..\..\..\..\..\Software\uCOS-III\Source/os_q.c **** * LICENSING TERMS:
  16:..\..\..\..\..\..\Software\uCOS-III\Source/os_q.c **** * ---------------
  17:..\..\..\..\..\..\Software\uCOS-III\Source/os_q.c **** *           uC/OS-III is provided in source form for FREE short-term evaluation, for educational us
  18:..\..\..\..\..\..\Software\uCOS-III\Source/os_q.c **** *           for peaceful research.  If you plan or intend to use uC/OS-III in a commercial applicat
  19:..\..\..\..\..\..\Software\uCOS-III\Source/os_q.c **** *           product then, you need to contact Micrium to properly license uC/OS-III for its use in 
  20:..\..\..\..\..\..\Software\uCOS-III\Source/os_q.c **** *           application/product.   We provide ALL the source code for your convenience and to help 
  21:..\..\..\..\..\..\Software\uCOS-III\Source/os_q.c **** *           experience uC/OS-III.  The fact that the source is provided does NOT mean that you can 
  22:..\..\..\..\..\..\Software\uCOS-III\Source/os_q.c **** *           it commercially without paying a licensing fee.
  23:..\..\..\..\..\..\Software\uCOS-III\Source/os_q.c **** *
  24:..\..\..\..\..\..\Software\uCOS-III\Source/os_q.c **** *           Knowledge of the source code may NOT be used to develop a similar product.
  25:..\..\..\..\..\..\Software\uCOS-III\Source/os_q.c **** *
  26:..\..\..\..\..\..\Software\uCOS-III\Source/os_q.c **** *           Please help us continue to provide the embedded community with the finest software avai
  27:..\..\..\..\..\..\Software\uCOS-III\Source/os_q.c **** *           Your honesty is greatly appreciated.
  28:..\..\..\..\..\..\Software\uCOS-III\Source/os_q.c **** *
  29:..\..\..\..\..\..\Software\uCOS-III\Source/os_q.c **** *           You can find our product's user manual, API reference, release notes and
  30:..\..\..\..\..\..\Software\uCOS-III\Source/os_q.c **** *           more information at https://doc.micrium.com.
ARM GAS  C:\Users\ADMINI~1\AppData\Local\Temp\ccKLo23z.s 			page 2


  31:..\..\..\..\..\..\Software\uCOS-III\Source/os_q.c **** *           You can contact us at www.micrium.com.
  32:..\..\..\..\..\..\Software\uCOS-III\Source/os_q.c **** ***************************************************************************************************
  33:..\..\..\..\..\..\Software\uCOS-III\Source/os_q.c **** */
  34:..\..\..\..\..\..\Software\uCOS-III\Source/os_q.c **** 
  35:..\..\..\..\..\..\Software\uCOS-III\Source/os_q.c **** #define  MICRIUM_SOURCE
  36:..\..\..\..\..\..\Software\uCOS-III\Source/os_q.c **** #include "os.h"
  37:..\..\..\..\..\..\Software\uCOS-III\Source/os_q.c **** 
  38:..\..\..\..\..\..\Software\uCOS-III\Source/os_q.c **** #ifdef VSC_INCLUDE_SOURCE_FILE_NAMES
  39:..\..\..\..\..\..\Software\uCOS-III\Source/os_q.c **** const  CPU_CHAR  *os_q__c = "$Id: $";
  40:..\..\..\..\..\..\Software\uCOS-III\Source/os_q.c **** #endif
  41:..\..\..\..\..\..\Software\uCOS-III\Source/os_q.c **** 
  42:..\..\..\..\..\..\Software\uCOS-III\Source/os_q.c **** 
  43:..\..\..\..\..\..\Software\uCOS-III\Source/os_q.c **** #if (OS_CFG_Q_EN == DEF_ENABLED)
  44:..\..\..\..\..\..\Software\uCOS-III\Source/os_q.c **** /*
  45:..\..\..\..\..\..\Software\uCOS-III\Source/os_q.c **** ***************************************************************************************************
  46:..\..\..\..\..\..\Software\uCOS-III\Source/os_q.c **** *                                               CREATE A MESSAGE QUEUE
  47:..\..\..\..\..\..\Software\uCOS-III\Source/os_q.c **** *
  48:..\..\..\..\..\..\Software\uCOS-III\Source/os_q.c **** * Description: This function is called by your application to create a message queue.  Message queu
  49:..\..\..\..\..\..\Software\uCOS-III\Source/os_q.c **** *              before they can be used.
  50:..\..\..\..\..\..\Software\uCOS-III\Source/os_q.c **** *
  51:..\..\..\..\..\..\Software\uCOS-III\Source/os_q.c **** * Arguments  : p_q         is a pointer to the message queue
  52:..\..\..\..\..\..\Software\uCOS-III\Source/os_q.c **** *
  53:..\..\..\..\..\..\Software\uCOS-III\Source/os_q.c **** *              p_name      is a pointer to an ASCII string that will be used to name the message qu
  54:..\..\..\..\..\..\Software\uCOS-III\Source/os_q.c **** *
  55:..\..\..\..\..\..\Software\uCOS-III\Source/os_q.c **** *              max_qty     indicates the maximum size of the message queue (must be non-zero).  Not
  56:..\..\..\..\..\..\Software\uCOS-III\Source/os_q.c **** *                          possible to have a size higher than the maximum number of OS_MSGs availa
  57:..\..\..\..\..\..\Software\uCOS-III\Source/os_q.c **** *
  58:..\..\..\..\..\..\Software\uCOS-III\Source/os_q.c **** *              p_err       is a pointer to a variable that will contain an error code returned by t
  59:..\..\..\..\..\..\Software\uCOS-III\Source/os_q.c **** *
  60:..\..\..\..\..\..\Software\uCOS-III\Source/os_q.c **** *                              OS_ERR_NONE                    The call was successful
  61:..\..\..\..\..\..\Software\uCOS-III\Source/os_q.c **** *                              OS_ERR_CREATE_ISR              Can't create from an ISR
  62:..\..\..\..\..\..\Software\uCOS-III\Source/os_q.c **** *                              OS_ERR_ILLEGAL_CREATE_RUN_TIME If you are trying to create the Queue
  63:..\..\..\..\..\..\Software\uCOS-III\Source/os_q.c **** *                                                               OSStart()
  64:..\..\..\..\..\..\Software\uCOS-III\Source/os_q.c **** *                              OS_ERR_OBJ_PTR_NULL            If you passed a NULL pointer for 'p_q
  65:..\..\..\..\..\..\Software\uCOS-III\Source/os_q.c **** *                              OS_ERR_Q_SIZE                  If the size you specified is 0
  66:..\..\..\..\..\..\Software\uCOS-III\Source/os_q.c **** *
  67:..\..\..\..\..\..\Software\uCOS-III\Source/os_q.c **** * Returns    : none
  68:..\..\..\..\..\..\Software\uCOS-III\Source/os_q.c **** *
  69:..\..\..\..\..\..\Software\uCOS-III\Source/os_q.c **** * Note(s)    : none
  70:..\..\..\..\..\..\Software\uCOS-III\Source/os_q.c **** ***************************************************************************************************
  71:..\..\..\..\..\..\Software\uCOS-III\Source/os_q.c **** */
  72:..\..\..\..\..\..\Software\uCOS-III\Source/os_q.c **** 
  73:..\..\..\..\..\..\Software\uCOS-III\Source/os_q.c **** void  OSQCreate (OS_Q        *p_q,
  74:..\..\..\..\..\..\Software\uCOS-III\Source/os_q.c ****                  CPU_CHAR    *p_name,
  75:..\..\..\..\..\..\Software\uCOS-III\Source/os_q.c ****                  OS_MSG_QTY   max_qty,
  76:..\..\..\..\..\..\Software\uCOS-III\Source/os_q.c ****                  OS_ERR      *p_err)
  77:..\..\..\..\..\..\Software\uCOS-III\Source/os_q.c **** 
  78:..\..\..\..\..\..\Software\uCOS-III\Source/os_q.c **** {
  28              		.loc 1 78 0
  29              		.cfi_startproc
  30              		@ args = 0, pretend = 0, frame = 24
  31              		@ frame_needed = 1, uses_anonymous_args = 0
  32 0000 80B5     		push	{r7, lr}
  33              		.cfi_def_cfa_offset 8
  34              		.cfi_offset 7, -8
  35              		.cfi_offset 14, -4
  36 0002 86B0     		sub	sp, sp, #24
ARM GAS  C:\Users\ADMINI~1\AppData\Local\Temp\ccKLo23z.s 			page 3


  37              		.cfi_def_cfa_offset 32
  38 0004 00AF     		add	r7, sp, #0
  39              		.cfi_def_cfa_register 7
  40 0006 F860     		str	r0, [r7, #12]
  41 0008 B960     		str	r1, [r7, #8]
  42 000a 3B60     		str	r3, [r7]
  43 000c BB1D     		adds	r3, r7, #6
  44 000e 1A80     		strh	r2, [r3]
  79:..\..\..\..\..\..\Software\uCOS-III\Source/os_q.c ****     CPU_SR_ALLOC();
  45              		.loc 1 79 0
  46 0010 0023     		movs	r3, #0
  47 0012 7B61     		str	r3, [r7, #20]
  80:..\..\..\..\..\..\Software\uCOS-III\Source/os_q.c **** 
  81:..\..\..\..\..\..\Software\uCOS-III\Source/os_q.c **** 
  82:..\..\..\..\..\..\Software\uCOS-III\Source/os_q.c **** 
  83:..\..\..\..\..\..\Software\uCOS-III\Source/os_q.c **** #ifdef OS_SAFETY_CRITICAL
  84:..\..\..\..\..\..\Software\uCOS-III\Source/os_q.c ****     if (p_err == DEF_NULL) {
  85:..\..\..\..\..\..\Software\uCOS-III\Source/os_q.c ****         OS_SAFETY_CRITICAL_EXCEPTION();
  86:..\..\..\..\..\..\Software\uCOS-III\Source/os_q.c ****         return;
  87:..\..\..\..\..\..\Software\uCOS-III\Source/os_q.c ****     }
  88:..\..\..\..\..\..\Software\uCOS-III\Source/os_q.c **** #endif
  89:..\..\..\..\..\..\Software\uCOS-III\Source/os_q.c **** 
  90:..\..\..\..\..\..\Software\uCOS-III\Source/os_q.c **** #ifdef OS_SAFETY_CRITICAL_IEC61508
  91:..\..\..\..\..\..\Software\uCOS-III\Source/os_q.c ****     if (OSSafetyCriticalStartFlag == DEF_TRUE) {
  92:..\..\..\..\..\..\Software\uCOS-III\Source/os_q.c ****        *p_err = OS_ERR_ILLEGAL_CREATE_RUN_TIME;
  93:..\..\..\..\..\..\Software\uCOS-III\Source/os_q.c ****         return;
  94:..\..\..\..\..\..\Software\uCOS-III\Source/os_q.c ****     }
  95:..\..\..\..\..\..\Software\uCOS-III\Source/os_q.c **** #endif
  96:..\..\..\..\..\..\Software\uCOS-III\Source/os_q.c **** 
  97:..\..\..\..\..\..\Software\uCOS-III\Source/os_q.c **** #if (OS_CFG_CALLED_FROM_ISR_CHK_EN == DEF_ENABLED)
  98:..\..\..\..\..\..\Software\uCOS-III\Source/os_q.c ****     if (OSIntNestingCtr > 0u) {                                 /* Not allowed to be called from an
  48              		.loc 1 98 0
  49 0014 234B     		ldr	r3, .L6
  50 0016 1B78     		ldrb	r3, [r3]
  51 0018 002B     		cmp	r3, #0
  52 001a 03D0     		beq	.L2
  99:..\..\..\..\..\..\Software\uCOS-III\Source/os_q.c ****        *p_err = OS_ERR_CREATE_ISR;
  53              		.loc 1 99 0
  54 001c 3B68     		ldr	r3, [r7]
  55 001e 224A     		ldr	r2, .L6+4
  56 0020 1A80     		strh	r2, [r3]
 100:..\..\..\..\..\..\Software\uCOS-III\Source/os_q.c ****         return;
  57              		.loc 1 100 0
  58 0022 3BE0     		b	.L1
  59              	.L2:
 101:..\..\..\..\..\..\Software\uCOS-III\Source/os_q.c ****     }
 102:..\..\..\..\..\..\Software\uCOS-III\Source/os_q.c **** #endif
 103:..\..\..\..\..\..\Software\uCOS-III\Source/os_q.c **** 
 104:..\..\..\..\..\..\Software\uCOS-III\Source/os_q.c **** #if (OS_CFG_ARG_CHK_EN == DEF_ENABLED)
 105:..\..\..\..\..\..\Software\uCOS-III\Source/os_q.c ****     if (p_q == DEF_NULL) {                                      /* Validate arguments              
  60              		.loc 1 105 0
  61 0024 FB68     		ldr	r3, [r7, #12]
  62 0026 002B     		cmp	r3, #0
  63 0028 03D1     		bne	.L4
 106:..\..\..\..\..\..\Software\uCOS-III\Source/os_q.c ****        *p_err = OS_ERR_OBJ_PTR_NULL;
  64              		.loc 1 106 0
  65 002a 3B68     		ldr	r3, [r7]
ARM GAS  C:\Users\ADMINI~1\AppData\Local\Temp\ccKLo23z.s 			page 4


  66 002c 1F4A     		ldr	r2, .L6+8
  67 002e 1A80     		strh	r2, [r3]
 107:..\..\..\..\..\..\Software\uCOS-III\Source/os_q.c ****         return;
  68              		.loc 1 107 0
  69 0030 34E0     		b	.L1
  70              	.L4:
 108:..\..\..\..\..\..\Software\uCOS-III\Source/os_q.c ****     }
 109:..\..\..\..\..\..\Software\uCOS-III\Source/os_q.c ****     if (max_qty == 0u) {                                        /* Cannot specify a zero size queue
  71              		.loc 1 109 0
  72 0032 BB1D     		adds	r3, r7, #6
  73 0034 1B88     		ldrh	r3, [r3]
  74 0036 002B     		cmp	r3, #0
  75 0038 03D1     		bne	.L5
 110:..\..\..\..\..\..\Software\uCOS-III\Source/os_q.c ****        *p_err = OS_ERR_Q_SIZE;
  76              		.loc 1 110 0
  77 003a 3B68     		ldr	r3, [r7]
  78 003c 1C4A     		ldr	r2, .L6+12
  79 003e 1A80     		strh	r2, [r3]
 111:..\..\..\..\..\..\Software\uCOS-III\Source/os_q.c ****         return;
  80              		.loc 1 111 0
  81 0040 2CE0     		b	.L1
  82              	.L5:
 112:..\..\..\..\..\..\Software\uCOS-III\Source/os_q.c ****     }
 113:..\..\..\..\..\..\Software\uCOS-III\Source/os_q.c **** #endif
 114:..\..\..\..\..\..\Software\uCOS-III\Source/os_q.c **** 
 115:..\..\..\..\..\..\Software\uCOS-III\Source/os_q.c ****     OS_CRITICAL_ENTER();
  83              		.loc 1 115 0
  84 0042 FFF7FEFF 		bl	CPU_SR_Save
  85 0046 0300     		movs	r3, r0
  86 0048 7B61     		str	r3, [r7, #20]
  87 004a FFF7FEFF 		bl	CPU_IntDisMeasStart
 116:..\..\..\..\..\..\Software\uCOS-III\Source/os_q.c **** #if (OS_OBJ_TYPE_REQ == DEF_ENABLED)
 117:..\..\..\..\..\..\Software\uCOS-III\Source/os_q.c ****     p_q->Type    = OS_OBJ_TYPE_Q;                               /* Mark the data structure as a mes
  88              		.loc 1 117 0
  89 004e FB68     		ldr	r3, [r7, #12]
  90 0050 184A     		ldr	r2, .L6+16
  91 0052 1A60     		str	r2, [r3]
 118:..\..\..\..\..\..\Software\uCOS-III\Source/os_q.c **** #endif
 119:..\..\..\..\..\..\Software\uCOS-III\Source/os_q.c **** #if (OS_CFG_DBG_EN == DEF_ENABLED)
 120:..\..\..\..\..\..\Software\uCOS-III\Source/os_q.c ****     p_q->NamePtr = p_name;
  92              		.loc 1 120 0
  93 0054 FB68     		ldr	r3, [r7, #12]
  94 0056 BA68     		ldr	r2, [r7, #8]
  95 0058 5A60     		str	r2, [r3, #4]
 121:..\..\..\..\..\..\Software\uCOS-III\Source/os_q.c **** #else
 122:..\..\..\..\..\..\Software\uCOS-III\Source/os_q.c ****     (void)&p_name;
 123:..\..\..\..\..\..\Software\uCOS-III\Source/os_q.c **** #endif
 124:..\..\..\..\..\..\Software\uCOS-III\Source/os_q.c ****     OS_MsgQInit(&p_q->MsgQ,                                     /* Initialize the queue            
  96              		.loc 1 124 0
  97 005a FB68     		ldr	r3, [r7, #12]
  98 005c 2033     		adds	r3, r3, #32
  99 005e 1A00     		movs	r2, r3
 100 0060 BB1D     		adds	r3, r7, #6
 101 0062 1B88     		ldrh	r3, [r3]
 102 0064 1900     		movs	r1, r3
 103 0066 1000     		movs	r0, r2
 104 0068 FFF7FEFF 		bl	OS_MsgQInit
ARM GAS  C:\Users\ADMINI~1\AppData\Local\Temp\ccKLo23z.s 			page 5


 125:..\..\..\..\..\..\Software\uCOS-III\Source/os_q.c ****                 max_qty);
 126:..\..\..\..\..\..\Software\uCOS-III\Source/os_q.c ****     OS_PendListInit(&p_q->PendList);                            /* Initialize the waiting list     
 105              		.loc 1 126 0
 106 006c FB68     		ldr	r3, [r7, #12]
 107 006e 0833     		adds	r3, r3, #8
 108 0070 1800     		movs	r0, r3
 109 0072 FFF7FEFF 		bl	OS_PendListInit
 127:..\..\..\..\..\..\Software\uCOS-III\Source/os_q.c **** 
 128:..\..\..\..\..\..\Software\uCOS-III\Source/os_q.c **** #if (OS_CFG_DBG_EN == DEF_ENABLED)
 129:..\..\..\..\..\..\Software\uCOS-III\Source/os_q.c ****     OS_QDbgListAdd(p_q);
 110              		.loc 1 129 0
 111 0076 FB68     		ldr	r3, [r7, #12]
 112 0078 1800     		movs	r0, r3
 113 007a FFF7FEFF 		bl	OS_QDbgListAdd
 130:..\..\..\..\..\..\Software\uCOS-III\Source/os_q.c ****     OSQQty++;                                                   /* One more queue created          
 114              		.loc 1 130 0
 115 007e 0E4B     		ldr	r3, .L6+20
 116 0080 1B88     		ldrh	r3, [r3]
 117 0082 0133     		adds	r3, r3, #1
 118 0084 9AB2     		uxth	r2, r3
 119 0086 0C4B     		ldr	r3, .L6+20
 120 0088 1A80     		strh	r2, [r3]
 131:..\..\..\..\..\..\Software\uCOS-III\Source/os_q.c **** #endif
 132:..\..\..\..\..\..\Software\uCOS-III\Source/os_q.c **** #if (defined(TRACE_CFG_EN) && (TRACE_CFG_EN == DEF_ENABLED))
 133:..\..\..\..\..\..\Software\uCOS-III\Source/os_q.c ****     TRACE_OS_Q_CREATE(p_q, p_name);                             /* Record the event.               
 134:..\..\..\..\..\..\Software\uCOS-III\Source/os_q.c **** #endif
 135:..\..\..\..\..\..\Software\uCOS-III\Source/os_q.c ****     OS_CRITICAL_EXIT_NO_SCHED();
 121              		.loc 1 135 0
 122 008a FFF7FEFF 		bl	CPU_IntDisMeasStop
 123 008e 7B69     		ldr	r3, [r7, #20]
 124 0090 1800     		movs	r0, r3
 125 0092 FFF7FEFF 		bl	CPU_SR_Restore
 136:..\..\..\..\..\..\Software\uCOS-III\Source/os_q.c ****    *p_err = OS_ERR_NONE;
 126              		.loc 1 136 0
 127 0096 3B68     		ldr	r3, [r7]
 128 0098 0022     		movs	r2, #0
 129 009a 1A80     		strh	r2, [r3]
 130              	.L1:
 137:..\..\..\..\..\..\Software\uCOS-III\Source/os_q.c **** }
 131              		.loc 1 137 0
 132 009c BD46     		mov	sp, r7
 133 009e 06B0     		add	sp, sp, #24
 134              		@ sp needed
 135 00a0 80BD     		pop	{r7, pc}
 136              	.L7:
 137 00a2 C046     		.align	2
 138              	.L6:
 139 00a4 00000000 		.word	OSIntNestingCtr
 140 00a8 E12E0000 		.word	12001
 141 00ac C35D0000 		.word	24003
 142 00b0 94650000 		.word	26004
 143 00b4 51554555 		.word	1430607185
 144 00b8 00000000 		.word	OSQQty
 145              		.cfi_endproc
 146              	.LFE0:
 147              		.size	OSQCreate, .-OSQCreate
 148              		.section	.text.OSQPend,"ax",%progbits
ARM GAS  C:\Users\ADMINI~1\AppData\Local\Temp\ccKLo23z.s 			page 6


 149              		.align	2
 150              		.global	OSQPend
 151              		.code	16
 152              		.thumb_func
 153              		.type	OSQPend, %function
 154              	OSQPend:
 155              	.LFB1:
 138:..\..\..\..\..\..\Software\uCOS-III\Source/os_q.c **** 
 139:..\..\..\..\..\..\Software\uCOS-III\Source/os_q.c **** 
 140:..\..\..\..\..\..\Software\uCOS-III\Source/os_q.c **** /*
 141:..\..\..\..\..\..\Software\uCOS-III\Source/os_q.c **** ***************************************************************************************************
 142:..\..\..\..\..\..\Software\uCOS-III\Source/os_q.c **** *                                               DELETE A MESSAGE QUEUE
 143:..\..\..\..\..\..\Software\uCOS-III\Source/os_q.c **** *
 144:..\..\..\..\..\..\Software\uCOS-III\Source/os_q.c **** * Description: This function deletes a message queue and readies all tasks pending on the queue.
 145:..\..\..\..\..\..\Software\uCOS-III\Source/os_q.c **** *
 146:..\..\..\..\..\..\Software\uCOS-III\Source/os_q.c **** * Arguments  : p_q       is a pointer to the message queue you want to delete
 147:..\..\..\..\..\..\Software\uCOS-III\Source/os_q.c **** *
 148:..\..\..\..\..\..\Software\uCOS-III\Source/os_q.c **** *              opt       determines delete options as follows:
 149:..\..\..\..\..\..\Software\uCOS-III\Source/os_q.c **** *
 150:..\..\..\..\..\..\Software\uCOS-III\Source/os_q.c **** *                            OS_OPT_DEL_NO_PEND          Delete the queue ONLY if no task pending
 151:..\..\..\..\..\..\Software\uCOS-III\Source/os_q.c **** *                            OS_OPT_DEL_ALWAYS           Deletes the queue even if tasks are waitin
 152:..\..\..\..\..\..\Software\uCOS-III\Source/os_q.c **** *                                                        In this case, all the tasks pending will b
 153:..\..\..\..\..\..\Software\uCOS-III\Source/os_q.c **** *
 154:..\..\..\..\..\..\Software\uCOS-III\Source/os_q.c **** *              p_err     is a pointer to a variable that will contain an error code returned by thi
 155:..\..\..\..\..\..\Software\uCOS-III\Source/os_q.c **** *
 156:..\..\..\..\..\..\Software\uCOS-III\Source/os_q.c **** *                            OS_ERR_NONE                    The call was successful and the queue w
 157:..\..\..\..\..\..\Software\uCOS-III\Source/os_q.c **** *                            OS_ERR_DEL_ISR                 If you tried to delete the queue from a
 158:..\..\..\..\..\..\Software\uCOS-III\Source/os_q.c **** *                            OS_ERR_ILLEGAL_DEL_RUN_TIME    If you are trying to delete the message
 159:..\..\..\..\..\..\Software\uCOS-III\Source/os_q.c **** *                                                             called OSStart()
 160:..\..\..\..\..\..\Software\uCOS-III\Source/os_q.c **** *                            OS_ERR_OBJ_PTR_NULL            If you pass a NULL pointer for 'p_q'
 161:..\..\..\..\..\..\Software\uCOS-III\Source/os_q.c **** *                            OS_ERR_OBJ_TYPE                If the message queue was not created
 162:..\..\..\..\..\..\Software\uCOS-III\Source/os_q.c **** *                            OS_ERR_OPT_INVALID             An invalid option was specified
 163:..\..\..\..\..\..\Software\uCOS-III\Source/os_q.c **** *                            OS_ERR_OS_NOT_RUNNING          If uC/OS-III is not running yet
 164:..\..\..\..\..\..\Software\uCOS-III\Source/os_q.c **** *                            OS_ERR_TASK_WAITING            One or more tasks were waiting on the q
 165:..\..\..\..\..\..\Software\uCOS-III\Source/os_q.c **** *
 166:..\..\..\..\..\..\Software\uCOS-III\Source/os_q.c **** * Returns    : == 0          if no tasks were waiting on the queue, or upon error.
 167:..\..\..\..\..\..\Software\uCOS-III\Source/os_q.c **** *              >  0          if one or more tasks waiting on the queue are now readied and informed
 168:..\..\..\..\..\..\Software\uCOS-III\Source/os_q.c **** *
 169:..\..\..\..\..\..\Software\uCOS-III\Source/os_q.c **** * Note(s)    : 1) This function must be used with care.  Tasks that would normally expect the prese
 170:..\..\..\..\..\..\Software\uCOS-III\Source/os_q.c **** *                 check the return code of OSQPend().
 171:..\..\..\..\..\..\Software\uCOS-III\Source/os_q.c **** *
 172:..\..\..\..\..\..\Software\uCOS-III\Source/os_q.c **** *              2) Because ALL tasks pending on the queue will be readied, you MUST be careful in ap
 173:..\..\..\..\..\..\Software\uCOS-III\Source/os_q.c **** *                 queue is used for mutual exclusion because the resource(s) will no longer be guar
 174:..\..\..\..\..\..\Software\uCOS-III\Source/os_q.c **** ***************************************************************************************************
 175:..\..\..\..\..\..\Software\uCOS-III\Source/os_q.c **** */
 176:..\..\..\..\..\..\Software\uCOS-III\Source/os_q.c **** 
 177:..\..\..\..\..\..\Software\uCOS-III\Source/os_q.c **** #if (OS_CFG_Q_DEL_EN == DEF_ENABLED)
 178:..\..\..\..\..\..\Software\uCOS-III\Source/os_q.c **** OS_OBJ_QTY  OSQDel (OS_Q    *p_q,
 179:..\..\..\..\..\..\Software\uCOS-III\Source/os_q.c ****                     OS_OPT   opt,
 180:..\..\..\..\..\..\Software\uCOS-III\Source/os_q.c ****                     OS_ERR  *p_err)
 181:..\..\..\..\..\..\Software\uCOS-III\Source/os_q.c **** {
 182:..\..\..\..\..\..\Software\uCOS-III\Source/os_q.c ****     OS_OBJ_QTY     nbr_tasks;
 183:..\..\..\..\..\..\Software\uCOS-III\Source/os_q.c ****     OS_PEND_DATA  *p_pend_data;
 184:..\..\..\..\..\..\Software\uCOS-III\Source/os_q.c ****     OS_PEND_LIST  *p_pend_list;
 185:..\..\..\..\..\..\Software\uCOS-III\Source/os_q.c ****     OS_TCB        *p_tcb;
 186:..\..\..\..\..\..\Software\uCOS-III\Source/os_q.c ****     CPU_TS         ts;
 187:..\..\..\..\..\..\Software\uCOS-III\Source/os_q.c ****     CPU_SR_ALLOC();
ARM GAS  C:\Users\ADMINI~1\AppData\Local\Temp\ccKLo23z.s 			page 7


 188:..\..\..\..\..\..\Software\uCOS-III\Source/os_q.c **** 
 189:..\..\..\..\..\..\Software\uCOS-III\Source/os_q.c **** 
 190:..\..\..\..\..\..\Software\uCOS-III\Source/os_q.c **** 
 191:..\..\..\..\..\..\Software\uCOS-III\Source/os_q.c **** #ifdef OS_SAFETY_CRITICAL
 192:..\..\..\..\..\..\Software\uCOS-III\Source/os_q.c ****     if (p_err == DEF_NULL) {
 193:..\..\..\..\..\..\Software\uCOS-III\Source/os_q.c ****         OS_SAFETY_CRITICAL_EXCEPTION();
 194:..\..\..\..\..\..\Software\uCOS-III\Source/os_q.c ****         return (0u);
 195:..\..\..\..\..\..\Software\uCOS-III\Source/os_q.c ****     }
 196:..\..\..\..\..\..\Software\uCOS-III\Source/os_q.c **** #endif
 197:..\..\..\..\..\..\Software\uCOS-III\Source/os_q.c **** 
 198:..\..\..\..\..\..\Software\uCOS-III\Source/os_q.c **** #ifdef OS_SAFETY_CRITICAL_IEC61508
 199:..\..\..\..\..\..\Software\uCOS-III\Source/os_q.c ****     if (OSSafetyCriticalStartFlag == DEF_TRUE) {
 200:..\..\..\..\..\..\Software\uCOS-III\Source/os_q.c ****        *p_err = OS_ERR_ILLEGAL_DEL_RUN_TIME;
 201:..\..\..\..\..\..\Software\uCOS-III\Source/os_q.c ****         return (0u);
 202:..\..\..\..\..\..\Software\uCOS-III\Source/os_q.c ****     }
 203:..\..\..\..\..\..\Software\uCOS-III\Source/os_q.c **** #endif
 204:..\..\..\..\..\..\Software\uCOS-III\Source/os_q.c **** 
 205:..\..\..\..\..\..\Software\uCOS-III\Source/os_q.c **** #if (OS_CFG_CALLED_FROM_ISR_CHK_EN == DEF_ENABLED)
 206:..\..\..\..\..\..\Software\uCOS-III\Source/os_q.c ****     if (OSIntNestingCtr > 0u) {                                 /* Can't delete a message queue fro
 207:..\..\..\..\..\..\Software\uCOS-III\Source/os_q.c ****        *p_err = OS_ERR_DEL_ISR;
 208:..\..\..\..\..\..\Software\uCOS-III\Source/os_q.c ****         return (0u);
 209:..\..\..\..\..\..\Software\uCOS-III\Source/os_q.c ****     }
 210:..\..\..\..\..\..\Software\uCOS-III\Source/os_q.c **** #endif
 211:..\..\..\..\..\..\Software\uCOS-III\Source/os_q.c **** 
 212:..\..\..\..\..\..\Software\uCOS-III\Source/os_q.c **** #if (OS_CFG_INVALID_OS_CALLS_CHK_EN == DEF_ENABLED)             /* Is the kernel running?          
 213:..\..\..\..\..\..\Software\uCOS-III\Source/os_q.c ****     if (OSRunning != OS_STATE_OS_RUNNING) {
 214:..\..\..\..\..\..\Software\uCOS-III\Source/os_q.c ****        *p_err = OS_ERR_OS_NOT_RUNNING;
 215:..\..\..\..\..\..\Software\uCOS-III\Source/os_q.c ****         return (0u);
 216:..\..\..\..\..\..\Software\uCOS-III\Source/os_q.c ****     }
 217:..\..\..\..\..\..\Software\uCOS-III\Source/os_q.c **** #endif
 218:..\..\..\..\..\..\Software\uCOS-III\Source/os_q.c **** 
 219:..\..\..\..\..\..\Software\uCOS-III\Source/os_q.c **** #if (OS_CFG_ARG_CHK_EN == DEF_ENABLED)
 220:..\..\..\..\..\..\Software\uCOS-III\Source/os_q.c ****     if (p_q == DEF_NULL) {                                      /* Validate 'p_q'                  
 221:..\..\..\..\..\..\Software\uCOS-III\Source/os_q.c ****        *p_err =  OS_ERR_OBJ_PTR_NULL;
 222:..\..\..\..\..\..\Software\uCOS-III\Source/os_q.c ****         return (0u);
 223:..\..\..\..\..\..\Software\uCOS-III\Source/os_q.c ****     }
 224:..\..\..\..\..\..\Software\uCOS-III\Source/os_q.c **** #endif
 225:..\..\..\..\..\..\Software\uCOS-III\Source/os_q.c **** 
 226:..\..\..\..\..\..\Software\uCOS-III\Source/os_q.c **** #if (OS_CFG_OBJ_TYPE_CHK_EN == DEF_ENABLED)
 227:..\..\..\..\..\..\Software\uCOS-III\Source/os_q.c ****     if (p_q->Type != OS_OBJ_TYPE_Q) {                           /* Make sure message queue was crea
 228:..\..\..\..\..\..\Software\uCOS-III\Source/os_q.c ****        *p_err = OS_ERR_OBJ_TYPE;
 229:..\..\..\..\..\..\Software\uCOS-III\Source/os_q.c ****         return (0u);
 230:..\..\..\..\..\..\Software\uCOS-III\Source/os_q.c ****     }
 231:..\..\..\..\..\..\Software\uCOS-III\Source/os_q.c **** #endif
 232:..\..\..\..\..\..\Software\uCOS-III\Source/os_q.c **** 
 233:..\..\..\..\..\..\Software\uCOS-III\Source/os_q.c ****     CPU_CRITICAL_ENTER();
 234:..\..\..\..\..\..\Software\uCOS-III\Source/os_q.c ****     p_pend_list = &p_q->PendList;
 235:..\..\..\..\..\..\Software\uCOS-III\Source/os_q.c ****     nbr_tasks   = 0u;
 236:..\..\..\..\..\..\Software\uCOS-III\Source/os_q.c ****     switch (opt) {
 237:..\..\..\..\..\..\Software\uCOS-III\Source/os_q.c ****         case OS_OPT_DEL_NO_PEND:                                /* Delete message queue only if no 
 238:..\..\..\..\..\..\Software\uCOS-III\Source/os_q.c ****              if (p_pend_list->HeadPtr == DEF_NULL) {
 239:..\..\..\..\..\..\Software\uCOS-III\Source/os_q.c **** #if (OS_CFG_DBG_EN == DEF_ENABLED)
 240:..\..\..\..\..\..\Software\uCOS-III\Source/os_q.c ****                  OS_QDbgListRemove(p_q);
 241:..\..\..\..\..\..\Software\uCOS-III\Source/os_q.c ****                  OSQQty--;
 242:..\..\..\..\..\..\Software\uCOS-III\Source/os_q.c **** #endif
 243:..\..\..\..\..\..\Software\uCOS-III\Source/os_q.c **** #if (defined(TRACE_CFG_EN) && (TRACE_CFG_EN == DEF_ENABLED))
 244:..\..\..\..\..\..\Software\uCOS-III\Source/os_q.c ****                  TRACE_OS_Q_DEL(p_q);                           /* Record the event.               
ARM GAS  C:\Users\ADMINI~1\AppData\Local\Temp\ccKLo23z.s 			page 8


 245:..\..\..\..\..\..\Software\uCOS-III\Source/os_q.c **** #endif
 246:..\..\..\..\..\..\Software\uCOS-III\Source/os_q.c ****                  OS_QClr(p_q);
 247:..\..\..\..\..\..\Software\uCOS-III\Source/os_q.c ****                  CPU_CRITICAL_EXIT();
 248:..\..\..\..\..\..\Software\uCOS-III\Source/os_q.c ****                 *p_err = OS_ERR_NONE;
 249:..\..\..\..\..\..\Software\uCOS-III\Source/os_q.c ****              } else {
 250:..\..\..\..\..\..\Software\uCOS-III\Source/os_q.c ****                  CPU_CRITICAL_EXIT();
 251:..\..\..\..\..\..\Software\uCOS-III\Source/os_q.c ****                 *p_err = OS_ERR_TASK_WAITING;
 252:..\..\..\..\..\..\Software\uCOS-III\Source/os_q.c ****              }
 253:..\..\..\..\..\..\Software\uCOS-III\Source/os_q.c ****              break;
 254:..\..\..\..\..\..\Software\uCOS-III\Source/os_q.c **** 
 255:..\..\..\..\..\..\Software\uCOS-III\Source/os_q.c ****         case OS_OPT_DEL_ALWAYS:                                 /* Always delete the message queue 
 256:..\..\..\..\..\..\Software\uCOS-III\Source/os_q.c ****              OS_CRITICAL_ENTER_CPU_EXIT();
 257:..\..\..\..\..\..\Software\uCOS-III\Source/os_q.c **** #if (OS_CFG_TS_EN == DEF_ENABLED)
 258:..\..\..\..\..\..\Software\uCOS-III\Source/os_q.c ****              ts = OS_TS_GET();                                  /* Get local time stamp so all task
 259:..\..\..\..\..\..\Software\uCOS-III\Source/os_q.c **** #else
 260:..\..\..\..\..\..\Software\uCOS-III\Source/os_q.c ****              ts = 0u;
 261:..\..\..\..\..\..\Software\uCOS-III\Source/os_q.c **** #endif
 262:..\..\..\..\..\..\Software\uCOS-III\Source/os_q.c ****              while (p_pend_list->HeadPtr != DEF_NULL) {         /* Remove all tasks from the pend l
 263:..\..\..\..\..\..\Software\uCOS-III\Source/os_q.c ****                  p_pend_data = p_pend_list->HeadPtr;
 264:..\..\..\..\..\..\Software\uCOS-III\Source/os_q.c ****                  p_tcb       = p_pend_data->TCBPtr;
 265:..\..\..\..\..\..\Software\uCOS-III\Source/os_q.c ****                  OS_PendObjDel((OS_PEND_OBJ *)((void *)p_q),
 266:..\..\..\..\..\..\Software\uCOS-III\Source/os_q.c ****                                p_tcb,
 267:..\..\..\..\..\..\Software\uCOS-III\Source/os_q.c ****                                ts);
 268:..\..\..\..\..\..\Software\uCOS-III\Source/os_q.c ****                  nbr_tasks++;
 269:..\..\..\..\..\..\Software\uCOS-III\Source/os_q.c ****              }
 270:..\..\..\..\..\..\Software\uCOS-III\Source/os_q.c **** #if (OS_CFG_DBG_EN == DEF_ENABLED)
 271:..\..\..\..\..\..\Software\uCOS-III\Source/os_q.c ****              OS_QDbgListRemove(p_q);
 272:..\..\..\..\..\..\Software\uCOS-III\Source/os_q.c ****              OSQQty--;
 273:..\..\..\..\..\..\Software\uCOS-III\Source/os_q.c **** #endif
 274:..\..\..\..\..\..\Software\uCOS-III\Source/os_q.c **** #if (defined(TRACE_CFG_EN) && (TRACE_CFG_EN == DEF_ENABLED))
 275:..\..\..\..\..\..\Software\uCOS-III\Source/os_q.c ****              TRACE_OS_Q_DEL(p_q);                               /* Record the event.               
 276:..\..\..\..\..\..\Software\uCOS-III\Source/os_q.c **** #endif
 277:..\..\..\..\..\..\Software\uCOS-III\Source/os_q.c ****              OS_QClr(p_q);
 278:..\..\..\..\..\..\Software\uCOS-III\Source/os_q.c ****              OS_CRITICAL_EXIT_NO_SCHED();
 279:..\..\..\..\..\..\Software\uCOS-III\Source/os_q.c ****              OSSched();                                         /* Find highest priority task ready
 280:..\..\..\..\..\..\Software\uCOS-III\Source/os_q.c ****             *p_err = OS_ERR_NONE;
 281:..\..\..\..\..\..\Software\uCOS-III\Source/os_q.c ****              break;
 282:..\..\..\..\..\..\Software\uCOS-III\Source/os_q.c **** 
 283:..\..\..\..\..\..\Software\uCOS-III\Source/os_q.c ****         default:
 284:..\..\..\..\..\..\Software\uCOS-III\Source/os_q.c ****              CPU_CRITICAL_EXIT();
 285:..\..\..\..\..\..\Software\uCOS-III\Source/os_q.c ****             *p_err = OS_ERR_OPT_INVALID;
 286:..\..\..\..\..\..\Software\uCOS-III\Source/os_q.c ****              break;
 287:..\..\..\..\..\..\Software\uCOS-III\Source/os_q.c ****     }
 288:..\..\..\..\..\..\Software\uCOS-III\Source/os_q.c ****     return (nbr_tasks);
 289:..\..\..\..\..\..\Software\uCOS-III\Source/os_q.c **** }
 290:..\..\..\..\..\..\Software\uCOS-III\Source/os_q.c **** #endif
 291:..\..\..\..\..\..\Software\uCOS-III\Source/os_q.c **** 
 292:..\..\..\..\..\..\Software\uCOS-III\Source/os_q.c **** 
 293:..\..\..\..\..\..\Software\uCOS-III\Source/os_q.c **** /*
 294:..\..\..\..\..\..\Software\uCOS-III\Source/os_q.c **** ***************************************************************************************************
 295:..\..\..\..\..\..\Software\uCOS-III\Source/os_q.c **** *                                                     FLUSH QUEUE
 296:..\..\..\..\..\..\Software\uCOS-III\Source/os_q.c **** *
 297:..\..\..\..\..\..\Software\uCOS-III\Source/os_q.c **** * Description : This function is used to flush the contents of the message queue.
 298:..\..\..\..\..\..\Software\uCOS-III\Source/os_q.c **** *
 299:..\..\..\..\..\..\Software\uCOS-III\Source/os_q.c **** * Arguments   : p_q        is a pointer to the message queue to flush
 300:..\..\..\..\..\..\Software\uCOS-III\Source/os_q.c **** *
 301:..\..\..\..\..\..\Software\uCOS-III\Source/os_q.c **** *               p_err      is a pointer to a variable that will contain an error code returned by t
ARM GAS  C:\Users\ADMINI~1\AppData\Local\Temp\ccKLo23z.s 			page 9


 302:..\..\..\..\..\..\Software\uCOS-III\Source/os_q.c **** *
 303:..\..\..\..\..\..\Software\uCOS-III\Source/os_q.c **** *                              OS_ERR_NONE              Upon success
 304:..\..\..\..\..\..\Software\uCOS-III\Source/os_q.c **** *                              OS_ERR_FLUSH_ISR         If you called this function from an ISR
 305:..\..\..\..\..\..\Software\uCOS-III\Source/os_q.c **** *                              OS_ERR_OBJ_PTR_NULL      If you passed a NULL pointer for 'p_q'
 306:..\..\..\..\..\..\Software\uCOS-III\Source/os_q.c **** *                              OS_ERR_OBJ_TYPE          If you didn't create the message queue
 307:..\..\..\..\..\..\Software\uCOS-III\Source/os_q.c **** *                              OS_ERR_OS_NOT_RUNNING    If uC/OS-III is not running yet
 308:..\..\..\..\..\..\Software\uCOS-III\Source/os_q.c **** *
 309:..\..\..\..\..\..\Software\uCOS-III\Source/os_q.c **** * Returns     : == 0       if no entries were freed, or upon error.
 310:..\..\..\..\..\..\Software\uCOS-III\Source/os_q.c **** *               >  0       the number of freed entries.
 311:..\..\..\..\..\..\Software\uCOS-III\Source/os_q.c **** *
 312:..\..\..\..\..\..\Software\uCOS-III\Source/os_q.c **** * Note(s)     : 1) You should use this function with great care because, when to flush the queue, y
 313:..\..\..\..\..\..\Software\uCOS-III\Source/os_q.c **** *                  references to what the queue entries are pointing to and thus, you could cause '
 314:..\..\..\..\..\..\Software\uCOS-III\Source/os_q.c **** *                  other words, the data you are pointing to that's being referenced by the queue e
 315:..\..\..\..\..\..\Software\uCOS-III\Source/os_q.c **** *                  likely, need to be de-allocated (i.e. freed).
 316:..\..\..\..\..\..\Software\uCOS-III\Source/os_q.c **** ***************************************************************************************************
 317:..\..\..\..\..\..\Software\uCOS-III\Source/os_q.c **** */
 318:..\..\..\..\..\..\Software\uCOS-III\Source/os_q.c **** 
 319:..\..\..\..\..\..\Software\uCOS-III\Source/os_q.c **** #if (OS_CFG_Q_FLUSH_EN == DEF_ENABLED)
 320:..\..\..\..\..\..\Software\uCOS-III\Source/os_q.c **** OS_MSG_QTY  OSQFlush (OS_Q    *p_q,
 321:..\..\..\..\..\..\Software\uCOS-III\Source/os_q.c ****                       OS_ERR  *p_err)
 322:..\..\..\..\..\..\Software\uCOS-III\Source/os_q.c **** {
 323:..\..\..\..\..\..\Software\uCOS-III\Source/os_q.c ****     OS_MSG_QTY  entries;
 324:..\..\..\..\..\..\Software\uCOS-III\Source/os_q.c ****     CPU_SR_ALLOC();
 325:..\..\..\..\..\..\Software\uCOS-III\Source/os_q.c **** 
 326:..\..\..\..\..\..\Software\uCOS-III\Source/os_q.c **** 
 327:..\..\..\..\..\..\Software\uCOS-III\Source/os_q.c **** 
 328:..\..\..\..\..\..\Software\uCOS-III\Source/os_q.c **** #ifdef OS_SAFETY_CRITICAL
 329:..\..\..\..\..\..\Software\uCOS-III\Source/os_q.c ****     if (p_err == DEF_NULL) {
 330:..\..\..\..\..\..\Software\uCOS-III\Source/os_q.c ****         OS_SAFETY_CRITICAL_EXCEPTION();
 331:..\..\..\..\..\..\Software\uCOS-III\Source/os_q.c ****         return (0u);
 332:..\..\..\..\..\..\Software\uCOS-III\Source/os_q.c ****     }
 333:..\..\..\..\..\..\Software\uCOS-III\Source/os_q.c **** #endif
 334:..\..\..\..\..\..\Software\uCOS-III\Source/os_q.c **** 
 335:..\..\..\..\..\..\Software\uCOS-III\Source/os_q.c **** #if (OS_CFG_CALLED_FROM_ISR_CHK_EN == DEF_ENABLED)
 336:..\..\..\..\..\..\Software\uCOS-III\Source/os_q.c ****     if (OSIntNestingCtr > 0u) {                                 /* Can't flush a message queue from
 337:..\..\..\..\..\..\Software\uCOS-III\Source/os_q.c ****        *p_err = OS_ERR_FLUSH_ISR;
 338:..\..\..\..\..\..\Software\uCOS-III\Source/os_q.c ****         return (0u);
 339:..\..\..\..\..\..\Software\uCOS-III\Source/os_q.c ****     }
 340:..\..\..\..\..\..\Software\uCOS-III\Source/os_q.c **** #endif
 341:..\..\..\..\..\..\Software\uCOS-III\Source/os_q.c **** 
 342:..\..\..\..\..\..\Software\uCOS-III\Source/os_q.c **** #if (OS_CFG_INVALID_OS_CALLS_CHK_EN == DEF_ENABLED)             /* Is the kernel running?          
 343:..\..\..\..\..\..\Software\uCOS-III\Source/os_q.c ****     if (OSRunning != OS_STATE_OS_RUNNING) {
 344:..\..\..\..\..\..\Software\uCOS-III\Source/os_q.c ****        *p_err = OS_ERR_OS_NOT_RUNNING;
 345:..\..\..\..\..\..\Software\uCOS-III\Source/os_q.c ****         return (0u);
 346:..\..\..\..\..\..\Software\uCOS-III\Source/os_q.c ****     }
 347:..\..\..\..\..\..\Software\uCOS-III\Source/os_q.c **** #endif
 348:..\..\..\..\..\..\Software\uCOS-III\Source/os_q.c **** 
 349:..\..\..\..\..\..\Software\uCOS-III\Source/os_q.c **** #if (OS_CFG_ARG_CHK_EN == DEF_ENABLED)
 350:..\..\..\..\..\..\Software\uCOS-III\Source/os_q.c ****     if (p_q == DEF_NULL) {                                      /* Validate arguments              
 351:..\..\..\..\..\..\Software\uCOS-III\Source/os_q.c ****        *p_err = OS_ERR_OBJ_PTR_NULL;
 352:..\..\..\..\..\..\Software\uCOS-III\Source/os_q.c ****         return (0u);
 353:..\..\..\..\..\..\Software\uCOS-III\Source/os_q.c ****     }
 354:..\..\..\..\..\..\Software\uCOS-III\Source/os_q.c **** #endif
 355:..\..\..\..\..\..\Software\uCOS-III\Source/os_q.c **** 
 356:..\..\..\..\..\..\Software\uCOS-III\Source/os_q.c **** #if (OS_CFG_OBJ_TYPE_CHK_EN == DEF_ENABLED)
 357:..\..\..\..\..\..\Software\uCOS-III\Source/os_q.c ****     if (p_q->Type != OS_OBJ_TYPE_Q) {                           /* Make sure message queue was crea
 358:..\..\..\..\..\..\Software\uCOS-III\Source/os_q.c ****        *p_err = OS_ERR_OBJ_TYPE;
ARM GAS  C:\Users\ADMINI~1\AppData\Local\Temp\ccKLo23z.s 			page 10


 359:..\..\..\..\..\..\Software\uCOS-III\Source/os_q.c ****         return (0u);
 360:..\..\..\..\..\..\Software\uCOS-III\Source/os_q.c ****     }
 361:..\..\..\..\..\..\Software\uCOS-III\Source/os_q.c **** #endif
 362:..\..\..\..\..\..\Software\uCOS-III\Source/os_q.c **** 
 363:..\..\..\..\..\..\Software\uCOS-III\Source/os_q.c ****     OS_CRITICAL_ENTER();
 364:..\..\..\..\..\..\Software\uCOS-III\Source/os_q.c ****     entries = OS_MsgQFreeAll(&p_q->MsgQ);                       /* Return all OS_MSGs to the OS_MSG
 365:..\..\..\..\..\..\Software\uCOS-III\Source/os_q.c ****     OS_CRITICAL_EXIT();
 366:..\..\..\..\..\..\Software\uCOS-III\Source/os_q.c ****    *p_err   = OS_ERR_NONE;
 367:..\..\..\..\..\..\Software\uCOS-III\Source/os_q.c ****     return (entries);
 368:..\..\..\..\..\..\Software\uCOS-III\Source/os_q.c **** }
 369:..\..\..\..\..\..\Software\uCOS-III\Source/os_q.c **** #endif
 370:..\..\..\..\..\..\Software\uCOS-III\Source/os_q.c **** 
 371:..\..\..\..\..\..\Software\uCOS-III\Source/os_q.c **** 
 372:..\..\..\..\..\..\Software\uCOS-III\Source/os_q.c **** /*
 373:..\..\..\..\..\..\Software\uCOS-III\Source/os_q.c **** ***************************************************************************************************
 374:..\..\..\..\..\..\Software\uCOS-III\Source/os_q.c **** *                                            PEND ON A QUEUE FOR A MESSAGE
 375:..\..\..\..\..\..\Software\uCOS-III\Source/os_q.c **** *
 376:..\..\..\..\..\..\Software\uCOS-III\Source/os_q.c **** * Description: This function waits for a message to be sent to a queue.
 377:..\..\..\..\..\..\Software\uCOS-III\Source/os_q.c **** *
 378:..\..\..\..\..\..\Software\uCOS-III\Source/os_q.c **** * Arguments  : p_q           is a pointer to the message queue
 379:..\..\..\..\..\..\Software\uCOS-III\Source/os_q.c **** *
 380:..\..\..\..\..\..\Software\uCOS-III\Source/os_q.c **** *              timeout       is an optional timeout period (in clock ticks).  If non-zero, your tas
 381:..\..\..\..\..\..\Software\uCOS-III\Source/os_q.c **** *                            message to arrive at the queue up to the amount of time specified by t
 382:..\..\..\..\..\..\Software\uCOS-III\Source/os_q.c **** *                            specify 0, however, your task will wait forever at the specified queue
 383:..\..\..\..\..\..\Software\uCOS-III\Source/os_q.c **** *                            arrives.
 384:..\..\..\..\..\..\Software\uCOS-III\Source/os_q.c **** *
 385:..\..\..\..\..\..\Software\uCOS-III\Source/os_q.c **** *              opt           determines whether the user wants to block if the queue is empty or no
 386:..\..\..\..\..\..\Software\uCOS-III\Source/os_q.c **** *
 387:..\..\..\..\..\..\Software\uCOS-III\Source/os_q.c **** *                                OS_OPT_PEND_BLOCKING
 388:..\..\..\..\..\..\Software\uCOS-III\Source/os_q.c **** *                                OS_OPT_PEND_NON_BLOCKING
 389:..\..\..\..\..\..\Software\uCOS-III\Source/os_q.c **** *
 390:..\..\..\..\..\..\Software\uCOS-III\Source/os_q.c **** *              p_msg_size    is a pointer to a variable that will receive the size of the message
 391:..\..\..\..\..\..\Software\uCOS-III\Source/os_q.c **** *
 392:..\..\..\..\..\..\Software\uCOS-III\Source/os_q.c **** *              p_ts          is a pointer to a variable that will receive the timestamp of when the
 393:..\..\..\..\..\..\Software\uCOS-III\Source/os_q.c **** *                            received, pend aborted or the message queue deleted,  If you pass a NU
 394:..\..\..\..\..\..\Software\uCOS-III\Source/os_q.c **** *                            (CPU_TS *)0) then you will not get the timestamp.  In other words, pas
 395:..\..\..\..\..\..\Software\uCOS-III\Source/os_q.c **** *                            is valid and indicates that you don't need the timestamp.
 396:..\..\..\..\..\..\Software\uCOS-III\Source/os_q.c **** *
 397:..\..\..\..\..\..\Software\uCOS-III\Source/os_q.c **** *              p_err         is a pointer to a variable that will contain an error code returned by
 398:..\..\..\..\..\..\Software\uCOS-III\Source/os_q.c **** *
 399:..\..\..\..\..\..\Software\uCOS-III\Source/os_q.c **** *                                OS_ERR_NONE               The call was successful and your task re
 400:..\..\..\..\..\..\Software\uCOS-III\Source/os_q.c **** *                                OS_ERR_OBJ_DEL            If 'p_q' was deleted
 401:..\..\..\..\..\..\Software\uCOS-III\Source/os_q.c **** *                                OS_ERR_OBJ_PTR_NULL       If you pass a NULL pointer for 'p_q'
 402:..\..\..\..\..\..\Software\uCOS-III\Source/os_q.c **** *                                OS_ERR_OBJ_TYPE           If the message queue was not created
 403:..\..\..\..\..\..\Software\uCOS-III\Source/os_q.c **** *                                OS_ERR_OPT_INVALID        You specified an invalid option
 404:..\..\..\..\..\..\Software\uCOS-III\Source/os_q.c **** *                                OS_ERR_OS_NOT_RUNNING     If uC/OS-III is not running yet
 405:..\..\..\..\..\..\Software\uCOS-III\Source/os_q.c **** *                                OS_ERR_PEND_ABORT         The pend was aborted
 406:..\..\..\..\..\..\Software\uCOS-III\Source/os_q.c **** *                                OS_ERR_PEND_ISR           If you called this function from an ISR
 407:..\..\..\..\..\..\Software\uCOS-III\Source/os_q.c **** *                                OS_ERR_PEND_WOULD_BLOCK   If you specified non-blocking but the qu
 408:..\..\..\..\..\..\Software\uCOS-III\Source/os_q.c **** *                                OS_ERR_PTR_INVALID        If you passed a NULL pointer of 'p_msg_s
 409:..\..\..\..\..\..\Software\uCOS-III\Source/os_q.c **** *                                OS_ERR_SCHED_LOCKED       The scheduler is locked
 410:..\..\..\..\..\..\Software\uCOS-III\Source/os_q.c **** *                                OS_ERR_STATUS_INVALID     If the pend status has an invalid value
 411:..\..\..\..\..\..\Software\uCOS-III\Source/os_q.c **** *                                OS_ERR_TIMEOUT            A message was not received within the sp
 412:..\..\..\..\..\..\Software\uCOS-III\Source/os_q.c **** *                                                          would lead to a suspension.
 413:..\..\..\..\..\..\Software\uCOS-III\Source/os_q.c **** *
 414:..\..\..\..\..\..\Software\uCOS-III\Source/os_q.c **** * Returns    : != (void *)0  is a pointer to the message received
 415:..\..\..\..\..\..\Software\uCOS-III\Source/os_q.c **** *              == (void *)0  if you received a NULL pointer message or,
ARM GAS  C:\Users\ADMINI~1\AppData\Local\Temp\ccKLo23z.s 			page 11


 416:..\..\..\..\..\..\Software\uCOS-III\Source/os_q.c **** *                            if no message was received or,
 417:..\..\..\..\..\..\Software\uCOS-III\Source/os_q.c **** *                            if 'p_q' is a NULL pointer or,
 418:..\..\..\..\..\..\Software\uCOS-III\Source/os_q.c **** *                            if you didn't pass a pointer to a queue.
 419:..\..\..\..\..\..\Software\uCOS-III\Source/os_q.c **** *
 420:..\..\..\..\..\..\Software\uCOS-III\Source/os_q.c **** * Note(s)    : none
 421:..\..\..\..\..\..\Software\uCOS-III\Source/os_q.c **** ***************************************************************************************************
 422:..\..\..\..\..\..\Software\uCOS-III\Source/os_q.c **** */
 423:..\..\..\..\..\..\Software\uCOS-III\Source/os_q.c **** 
 424:..\..\..\..\..\..\Software\uCOS-III\Source/os_q.c **** void  *OSQPend (OS_Q         *p_q,
 425:..\..\..\..\..\..\Software\uCOS-III\Source/os_q.c ****                 OS_TICK       timeout,
 426:..\..\..\..\..\..\Software\uCOS-III\Source/os_q.c ****                 OS_OPT        opt,
 427:..\..\..\..\..\..\Software\uCOS-III\Source/os_q.c ****                 OS_MSG_SIZE  *p_msg_size,
 428:..\..\..\..\..\..\Software\uCOS-III\Source/os_q.c ****                 CPU_TS       *p_ts,
 429:..\..\..\..\..\..\Software\uCOS-III\Source/os_q.c ****                 OS_ERR       *p_err)
 430:..\..\..\..\..\..\Software\uCOS-III\Source/os_q.c **** {
 156              		.loc 1 430 0
 157              		.cfi_startproc
 158              		@ args = 8, pretend = 0, frame = 56
 159              		@ frame_needed = 1, uses_anonymous_args = 0
 160 0000 80B5     		push	{r7, lr}
 161              		.cfi_def_cfa_offset 8
 162              		.cfi_offset 7, -8
 163              		.cfi_offset 14, -4
 164 0002 8EB0     		sub	sp, sp, #56
 165              		.cfi_def_cfa_offset 64
 166 0004 00AF     		add	r7, sp, #0
 167              		.cfi_def_cfa_register 7
 168 0006 F860     		str	r0, [r7, #12]
 169 0008 B960     		str	r1, [r7, #8]
 170 000a 3B60     		str	r3, [r7]
 171 000c BB1D     		adds	r3, r7, #6
 172 000e 1A80     		strh	r2, [r3]
 431:..\..\..\..\..\..\Software\uCOS-III\Source/os_q.c ****     OS_PEND_DATA  pend_data;
 432:..\..\..\..\..\..\Software\uCOS-III\Source/os_q.c ****     void         *p_void;
 433:..\..\..\..\..\..\Software\uCOS-III\Source/os_q.c ****     CPU_SR_ALLOC();
 173              		.loc 1 433 0
 174 0010 0023     		movs	r3, #0
 175 0012 3B63     		str	r3, [r7, #48]
 434:..\..\..\..\..\..\Software\uCOS-III\Source/os_q.c **** 
 435:..\..\..\..\..\..\Software\uCOS-III\Source/os_q.c **** 
 436:..\..\..\..\..\..\Software\uCOS-III\Source/os_q.c **** #ifdef OS_SAFETY_CRITICAL
 437:..\..\..\..\..\..\Software\uCOS-III\Source/os_q.c ****     if (p_err == DEF_NULL) {
 438:..\..\..\..\..\..\Software\uCOS-III\Source/os_q.c ****         OS_SAFETY_CRITICAL_EXCEPTION();
 439:..\..\..\..\..\..\Software\uCOS-III\Source/os_q.c ****         return (DEF_NULL);
 440:..\..\..\..\..\..\Software\uCOS-III\Source/os_q.c ****     }
 441:..\..\..\..\..\..\Software\uCOS-III\Source/os_q.c **** #endif
 442:..\..\..\..\..\..\Software\uCOS-III\Source/os_q.c **** 
 443:..\..\..\..\..\..\Software\uCOS-III\Source/os_q.c **** #if (OS_CFG_CALLED_FROM_ISR_CHK_EN == DEF_ENABLED)
 444:..\..\..\..\..\..\Software\uCOS-III\Source/os_q.c ****     if (OSIntNestingCtr > 0u) {                                 /* Not allowed to call from an ISR 
 176              		.loc 1 444 0
 177 0014 704B     		ldr	r3, .L32
 178 0016 1B78     		ldrb	r3, [r3]
 179 0018 002B     		cmp	r3, #0
 180 001a 04D0     		beq	.L9
 445:..\..\..\..\..\..\Software\uCOS-III\Source/os_q.c **** #if (defined(TRACE_CFG_EN) && (TRACE_CFG_EN == DEF_ENABLED))
 446:..\..\..\..\..\..\Software\uCOS-III\Source/os_q.c ****         TRACE_OS_Q_PEND_FAILED(p_q);                            /* Record the event.               
 447:..\..\..\..\..\..\Software\uCOS-III\Source/os_q.c **** #endif
ARM GAS  C:\Users\ADMINI~1\AppData\Local\Temp\ccKLo23z.s 			page 12


 448:..\..\..\..\..\..\Software\uCOS-III\Source/os_q.c ****        *p_err = OS_ERR_PEND_ISR;
 181              		.loc 1 448 0
 182 001c 7B6C     		ldr	r3, [r7, #68]
 183 001e 6F4A     		ldr	r2, .L32+4
 184 0020 1A80     		strh	r2, [r3]
 449:..\..\..\..\..\..\Software\uCOS-III\Source/os_q.c ****         return (DEF_NULL);
 185              		.loc 1 449 0
 186 0022 0023     		movs	r3, #0
 187 0024 D3E0     		b	.L30
 188              	.L9:
 450:..\..\..\..\..\..\Software\uCOS-III\Source/os_q.c ****     }
 451:..\..\..\..\..\..\Software\uCOS-III\Source/os_q.c **** #endif
 452:..\..\..\..\..\..\Software\uCOS-III\Source/os_q.c **** 
 453:..\..\..\..\..\..\Software\uCOS-III\Source/os_q.c **** #if (OS_CFG_INVALID_OS_CALLS_CHK_EN == DEF_ENABLED)             /* Is the kernel running?          
 454:..\..\..\..\..\..\Software\uCOS-III\Source/os_q.c ****     if (OSRunning != OS_STATE_OS_RUNNING) {
 455:..\..\..\..\..\..\Software\uCOS-III\Source/os_q.c ****        *p_err = OS_ERR_OS_NOT_RUNNING;
 456:..\..\..\..\..\..\Software\uCOS-III\Source/os_q.c ****         return (DEF_NULL);
 457:..\..\..\..\..\..\Software\uCOS-III\Source/os_q.c ****     }
 458:..\..\..\..\..\..\Software\uCOS-III\Source/os_q.c **** #endif
 459:..\..\..\..\..\..\Software\uCOS-III\Source/os_q.c **** 
 460:..\..\..\..\..\..\Software\uCOS-III\Source/os_q.c **** #if (OS_CFG_ARG_CHK_EN == DEF_ENABLED)
 461:..\..\..\..\..\..\Software\uCOS-III\Source/os_q.c ****     if (p_q == DEF_NULL) {                                      /* Validate arguments              
 189              		.loc 1 461 0
 190 0026 FB68     		ldr	r3, [r7, #12]
 191 0028 002B     		cmp	r3, #0
 192 002a 04D1     		bne	.L11
 462:..\..\..\..\..\..\Software\uCOS-III\Source/os_q.c **** #if (defined(TRACE_CFG_EN) && (TRACE_CFG_EN == DEF_ENABLED))
 463:..\..\..\..\..\..\Software\uCOS-III\Source/os_q.c ****         TRACE_OS_Q_PEND_FAILED(p_q);                            /* Record the event.               
 464:..\..\..\..\..\..\Software\uCOS-III\Source/os_q.c **** #endif
 465:..\..\..\..\..\..\Software\uCOS-III\Source/os_q.c ****        *p_err = OS_ERR_OBJ_PTR_NULL;
 193              		.loc 1 465 0
 194 002c 7B6C     		ldr	r3, [r7, #68]
 195 002e 6C4A     		ldr	r2, .L32+8
 196 0030 1A80     		strh	r2, [r3]
 466:..\..\..\..\..\..\Software\uCOS-III\Source/os_q.c ****         return (DEF_NULL);
 197              		.loc 1 466 0
 198 0032 0023     		movs	r3, #0
 199 0034 CBE0     		b	.L30
 200              	.L11:
 467:..\..\..\..\..\..\Software\uCOS-III\Source/os_q.c ****     }
 468:..\..\..\..\..\..\Software\uCOS-III\Source/os_q.c ****     if (p_msg_size == DEF_NULL) {
 201              		.loc 1 468 0
 202 0036 3B68     		ldr	r3, [r7]
 203 0038 002B     		cmp	r3, #0
 204 003a 04D1     		bne	.L12
 469:..\..\..\..\..\..\Software\uCOS-III\Source/os_q.c **** #if (defined(TRACE_CFG_EN) && (TRACE_CFG_EN == DEF_ENABLED))
 470:..\..\..\..\..\..\Software\uCOS-III\Source/os_q.c ****         TRACE_OS_Q_PEND_FAILED(p_q);                            /* Record the event.               
 471:..\..\..\..\..\..\Software\uCOS-III\Source/os_q.c **** #endif
 472:..\..\..\..\..\..\Software\uCOS-III\Source/os_q.c ****        *p_err = OS_ERR_PTR_INVALID;
 205              		.loc 1 472 0
 206 003c 7B6C     		ldr	r3, [r7, #68]
 207 003e 694A     		ldr	r2, .L32+12
 208 0040 1A80     		strh	r2, [r3]
 473:..\..\..\..\..\..\Software\uCOS-III\Source/os_q.c ****         return (DEF_NULL);
 209              		.loc 1 473 0
 210 0042 0023     		movs	r3, #0
 211 0044 C3E0     		b	.L30
ARM GAS  C:\Users\ADMINI~1\AppData\Local\Temp\ccKLo23z.s 			page 13


 212              	.L12:
 474:..\..\..\..\..\..\Software\uCOS-III\Source/os_q.c ****     }
 475:..\..\..\..\..\..\Software\uCOS-III\Source/os_q.c ****     switch (opt) {
 213              		.loc 1 475 0
 214 0046 BB1D     		adds	r3, r7, #6
 215 0048 1B88     		ldrh	r3, [r3]
 216 004a 002B     		cmp	r3, #0
 217 004c 08D0     		beq	.L31
 218 004e 8022     		movs	r2, #128
 219 0050 1202     		lsls	r2, r2, #8
 220 0052 9342     		cmp	r3, r2
 221 0054 04D0     		beq	.L31
 476:..\..\..\..\..\..\Software\uCOS-III\Source/os_q.c ****         case OS_OPT_PEND_BLOCKING:
 477:..\..\..\..\..\..\Software\uCOS-III\Source/os_q.c ****         case OS_OPT_PEND_NON_BLOCKING:
 478:..\..\..\..\..\..\Software\uCOS-III\Source/os_q.c ****              break;
 479:..\..\..\..\..\..\Software\uCOS-III\Source/os_q.c **** 
 480:..\..\..\..\..\..\Software\uCOS-III\Source/os_q.c ****         default:
 481:..\..\..\..\..\..\Software\uCOS-III\Source/os_q.c **** #if (defined(TRACE_CFG_EN) && (TRACE_CFG_EN == DEF_ENABLED))
 482:..\..\..\..\..\..\Software\uCOS-III\Source/os_q.c ****              TRACE_OS_Q_PEND_FAILED(p_q);                       /* Record the event.               
 483:..\..\..\..\..\..\Software\uCOS-III\Source/os_q.c **** #endif
 484:..\..\..\..\..\..\Software\uCOS-III\Source/os_q.c ****             *p_err = OS_ERR_OPT_INVALID;
 222              		.loc 1 484 0
 223 0056 7B6C     		ldr	r3, [r7, #68]
 224 0058 634A     		ldr	r2, .L32+16
 225 005a 1A80     		strh	r2, [r3]
 485:..\..\..\..\..\..\Software\uCOS-III\Source/os_q.c ****              return (DEF_NULL);
 226              		.loc 1 485 0
 227 005c 0023     		movs	r3, #0
 228 005e B6E0     		b	.L30
 229              	.L31:
 478:..\..\..\..\..\..\Software\uCOS-III\Source/os_q.c **** 
 230              		.loc 1 478 0
 231 0060 C046     		nop
 486:..\..\..\..\..\..\Software\uCOS-III\Source/os_q.c ****     }
 487:..\..\..\..\..\..\Software\uCOS-III\Source/os_q.c **** #endif
 488:..\..\..\..\..\..\Software\uCOS-III\Source/os_q.c **** 
 489:..\..\..\..\..\..\Software\uCOS-III\Source/os_q.c **** #if (OS_CFG_OBJ_TYPE_CHK_EN == DEF_ENABLED)
 490:..\..\..\..\..\..\Software\uCOS-III\Source/os_q.c ****     if (p_q->Type != OS_OBJ_TYPE_Q) {                           /* Make sure message queue was crea
 491:..\..\..\..\..\..\Software\uCOS-III\Source/os_q.c **** #if (defined(TRACE_CFG_EN) && (TRACE_CFG_EN == DEF_ENABLED))
 492:..\..\..\..\..\..\Software\uCOS-III\Source/os_q.c ****         TRACE_OS_Q_PEND_FAILED(p_q);                            /* Record the event.               
 493:..\..\..\..\..\..\Software\uCOS-III\Source/os_q.c **** #endif
 494:..\..\..\..\..\..\Software\uCOS-III\Source/os_q.c ****        *p_err = OS_ERR_OBJ_TYPE;
 495:..\..\..\..\..\..\Software\uCOS-III\Source/os_q.c ****         return (DEF_NULL);
 496:..\..\..\..\..\..\Software\uCOS-III\Source/os_q.c ****     }
 497:..\..\..\..\..\..\Software\uCOS-III\Source/os_q.c **** #endif
 498:..\..\..\..\..\..\Software\uCOS-III\Source/os_q.c **** 
 499:..\..\..\..\..\..\Software\uCOS-III\Source/os_q.c ****     if (p_ts != DEF_NULL) {
 232              		.loc 1 499 0
 233 0062 3B6C     		ldr	r3, [r7, #64]
 234 0064 002B     		cmp	r3, #0
 235 0066 02D0     		beq	.L16
 500:..\..\..\..\..\..\Software\uCOS-III\Source/os_q.c ****        *p_ts = 0u;                                              /* Initialize the returned timestam
 236              		.loc 1 500 0
 237 0068 3B6C     		ldr	r3, [r7, #64]
 238 006a 0022     		movs	r2, #0
 239 006c 1A60     		str	r2, [r3]
 240              	.L16:
ARM GAS  C:\Users\ADMINI~1\AppData\Local\Temp\ccKLo23z.s 			page 14


 501:..\..\..\..\..\..\Software\uCOS-III\Source/os_q.c ****     }
 502:..\..\..\..\..\..\Software\uCOS-III\Source/os_q.c **** 
 503:..\..\..\..\..\..\Software\uCOS-III\Source/os_q.c ****     CPU_CRITICAL_ENTER();
 241              		.loc 1 503 0
 242 006e FFF7FEFF 		bl	CPU_SR_Save
 243 0072 0300     		movs	r3, r0
 244 0074 3B63     		str	r3, [r7, #48]
 245 0076 FFF7FEFF 		bl	CPU_IntDisMeasStart
 504:..\..\..\..\..\..\Software\uCOS-III\Source/os_q.c ****     p_void = OS_MsgQGet(&p_q->MsgQ,                             /* Any message waiting in the messa
 246              		.loc 1 504 0
 247 007a FB68     		ldr	r3, [r7, #12]
 248 007c 2033     		adds	r3, r3, #32
 249 007e 1800     		movs	r0, r3
 250 0080 7B6C     		ldr	r3, [r7, #68]
 251 0082 3A6C     		ldr	r2, [r7, #64]
 252 0084 3968     		ldr	r1, [r7]
 253 0086 FFF7FEFF 		bl	OS_MsgQGet
 254 008a 0300     		movs	r3, r0
 255 008c 7B63     		str	r3, [r7, #52]
 505:..\..\..\..\..\..\Software\uCOS-III\Source/os_q.c ****                         p_msg_size,
 506:..\..\..\..\..\..\Software\uCOS-III\Source/os_q.c ****                         p_ts,
 507:..\..\..\..\..\..\Software\uCOS-III\Source/os_q.c ****                         p_err);
 508:..\..\..\..\..\..\Software\uCOS-III\Source/os_q.c ****     if (*p_err == OS_ERR_NONE) {
 256              		.loc 1 508 0
 257 008e 7B6C     		ldr	r3, [r7, #68]
 258 0090 1B88     		ldrh	r3, [r3]
 259 0092 002B     		cmp	r3, #0
 260 0094 07D1     		bne	.L17
 509:..\..\..\..\..\..\Software\uCOS-III\Source/os_q.c ****         CPU_CRITICAL_EXIT();
 261              		.loc 1 509 0
 262 0096 FFF7FEFF 		bl	CPU_IntDisMeasStop
 263 009a 3B6B     		ldr	r3, [r7, #48]
 264 009c 1800     		movs	r0, r3
 265 009e FFF7FEFF 		bl	CPU_SR_Restore
 510:..\..\..\..\..\..\Software\uCOS-III\Source/os_q.c **** #if (defined(TRACE_CFG_EN) && (TRACE_CFG_EN == DEF_ENABLED))
 511:..\..\..\..\..\..\Software\uCOS-III\Source/os_q.c ****         TRACE_OS_Q_PEND(p_q);                                   /* Record the event.               
 512:..\..\..\..\..\..\Software\uCOS-III\Source/os_q.c **** #endif
 513:..\..\..\..\..\..\Software\uCOS-III\Source/os_q.c ****         return (p_void);                                        /* Yes, Return message received    
 266              		.loc 1 513 0
 267 00a2 7B6B     		ldr	r3, [r7, #52]
 268 00a4 93E0     		b	.L30
 269              	.L17:
 514:..\..\..\..\..\..\Software\uCOS-III\Source/os_q.c ****     }
 515:..\..\..\..\..\..\Software\uCOS-III\Source/os_q.c **** 
 516:..\..\..\..\..\..\Software\uCOS-III\Source/os_q.c ****     if ((opt & OS_OPT_PEND_NON_BLOCKING) != 0u) {               /* Caller wants to block if not ava
 270              		.loc 1 516 0
 271 00a6 BB1D     		adds	r3, r7, #6
 272 00a8 0022     		movs	r2, #0
 273 00aa 9B5E     		ldrsh	r3, [r3, r2]
 274 00ac 002B     		cmp	r3, #0
 275 00ae 0ADA     		bge	.L18
 517:..\..\..\..\..\..\Software\uCOS-III\Source/os_q.c ****         CPU_CRITICAL_EXIT();
 276              		.loc 1 517 0
 277 00b0 FFF7FEFF 		bl	CPU_IntDisMeasStop
 278 00b4 3B6B     		ldr	r3, [r7, #48]
 279 00b6 1800     		movs	r0, r3
 280 00b8 FFF7FEFF 		bl	CPU_SR_Restore
ARM GAS  C:\Users\ADMINI~1\AppData\Local\Temp\ccKLo23z.s 			page 15


 518:..\..\..\..\..\..\Software\uCOS-III\Source/os_q.c **** #if (defined(TRACE_CFG_EN) && (TRACE_CFG_EN == DEF_ENABLED))
 519:..\..\..\..\..\..\Software\uCOS-III\Source/os_q.c ****         TRACE_OS_Q_PEND_FAILED(p_q);                            /* Record the event.               
 520:..\..\..\..\..\..\Software\uCOS-III\Source/os_q.c **** #endif
 521:..\..\..\..\..\..\Software\uCOS-III\Source/os_q.c ****        *p_err = OS_ERR_PEND_WOULD_BLOCK;                        /* No                              
 281              		.loc 1 521 0
 282 00bc 7B6C     		ldr	r3, [r7, #68]
 283 00be 4B4A     		ldr	r2, .L32+20
 284 00c0 1A80     		strh	r2, [r3]
 522:..\..\..\..\..\..\Software\uCOS-III\Source/os_q.c ****         return (DEF_NULL);
 285              		.loc 1 522 0
 286 00c2 0023     		movs	r3, #0
 287 00c4 83E0     		b	.L30
 288              	.L18:
 523:..\..\..\..\..\..\Software\uCOS-III\Source/os_q.c ****     } else {
 524:..\..\..\..\..\..\Software\uCOS-III\Source/os_q.c ****         if (OSSchedLockNestingCtr > 0u) {                       /* Can't pend when the scheduler is
 289              		.loc 1 524 0
 290 00c6 4A4B     		ldr	r3, .L32+24
 291 00c8 1B78     		ldrb	r3, [r3]
 292 00ca 002B     		cmp	r3, #0
 293 00cc 0AD0     		beq	.L19
 525:..\..\..\..\..\..\Software\uCOS-III\Source/os_q.c ****             CPU_CRITICAL_EXIT();
 294              		.loc 1 525 0
 295 00ce FFF7FEFF 		bl	CPU_IntDisMeasStop
 296 00d2 3B6B     		ldr	r3, [r7, #48]
 297 00d4 1800     		movs	r0, r3
 298 00d6 FFF7FEFF 		bl	CPU_SR_Restore
 526:..\..\..\..\..\..\Software\uCOS-III\Source/os_q.c **** #if (defined(TRACE_CFG_EN) && (TRACE_CFG_EN == DEF_ENABLED))
 527:..\..\..\..\..\..\Software\uCOS-III\Source/os_q.c ****             TRACE_OS_Q_PEND_FAILED(p_q);                        /* Record the event.               
 528:..\..\..\..\..\..\Software\uCOS-III\Source/os_q.c **** #endif
 529:..\..\..\..\..\..\Software\uCOS-III\Source/os_q.c ****            *p_err = OS_ERR_SCHED_LOCKED;
 299              		.loc 1 529 0
 300 00da 7B6C     		ldr	r3, [r7, #68]
 301 00dc 454A     		ldr	r2, .L32+28
 302 00de 1A80     		strh	r2, [r3]
 530:..\..\..\..\..\..\Software\uCOS-III\Source/os_q.c ****             return (DEF_NULL);
 303              		.loc 1 530 0
 304 00e0 0023     		movs	r3, #0
 305 00e2 74E0     		b	.L30
 306              	.L19:
 531:..\..\..\..\..\..\Software\uCOS-III\Source/os_q.c ****         }
 532:..\..\..\..\..\..\Software\uCOS-III\Source/os_q.c ****     }
 533:..\..\..\..\..\..\Software\uCOS-III\Source/os_q.c ****                                                                 /* Lock the scheduler/re-enable int
 534:..\..\..\..\..\..\Software\uCOS-III\Source/os_q.c ****     OS_CRITICAL_ENTER_CPU_EXIT();
 535:..\..\..\..\..\..\Software\uCOS-III\Source/os_q.c ****     OS_Pend(&pend_data,                                         /* Block task pending on Message Qu
 307              		.loc 1 535 0
 308 00e4 BB68     		ldr	r3, [r7, #8]
 309 00e6 F968     		ldr	r1, [r7, #12]
 310 00e8 1022     		movs	r2, #16
 311 00ea B818     		adds	r0, r7, r2
 312 00ec 0522     		movs	r2, #5
 313 00ee FFF7FEFF 		bl	OS_Pend
 536:..\..\..\..\..\..\Software\uCOS-III\Source/os_q.c ****             (OS_PEND_OBJ *)((void *)p_q),
 537:..\..\..\..\..\..\Software\uCOS-III\Source/os_q.c ****             OS_TASK_PEND_ON_Q,
 538:..\..\..\..\..\..\Software\uCOS-III\Source/os_q.c ****             timeout);
 539:..\..\..\..\..\..\Software\uCOS-III\Source/os_q.c ****     OS_CRITICAL_EXIT_NO_SCHED();
 314              		.loc 1 539 0
 315 00f2 FFF7FEFF 		bl	CPU_IntDisMeasStop
ARM GAS  C:\Users\ADMINI~1\AppData\Local\Temp\ccKLo23z.s 			page 16


 316 00f6 3B6B     		ldr	r3, [r7, #48]
 317 00f8 1800     		movs	r0, r3
 318 00fa FFF7FEFF 		bl	CPU_SR_Restore
 540:..\..\..\..\..\..\Software\uCOS-III\Source/os_q.c **** #if (defined(TRACE_CFG_EN) && (TRACE_CFG_EN == DEF_ENABLED))
 541:..\..\..\..\..\..\Software\uCOS-III\Source/os_q.c ****     TRACE_OS_Q_PEND_BLOCK(p_q);                                 /* Record the event.               
 542:..\..\..\..\..\..\Software\uCOS-III\Source/os_q.c **** #endif
 543:..\..\..\..\..\..\Software\uCOS-III\Source/os_q.c ****     OSSched();                                                  /* Find the next highest priority t
 319              		.loc 1 543 0
 320 00fe FFF7FEFF 		bl	OSSched
 544:..\..\..\..\..\..\Software\uCOS-III\Source/os_q.c **** 
 545:..\..\..\..\..\..\Software\uCOS-III\Source/os_q.c ****     CPU_CRITICAL_ENTER();
 321              		.loc 1 545 0
 322 0102 FFF7FEFF 		bl	CPU_SR_Save
 323 0106 0300     		movs	r3, r0
 324 0108 3B63     		str	r3, [r7, #48]
 325 010a FFF7FEFF 		bl	CPU_IntDisMeasStart
 546:..\..\..\..\..\..\Software\uCOS-III\Source/os_q.c ****     switch (OSTCBCurPtr->PendStatus) {
 326              		.loc 1 546 0
 327 010e 3A4B     		ldr	r3, .L32+32
 328 0110 1B68     		ldr	r3, [r3]
 329 0112 3522     		movs	r2, #53
 330 0114 9B5C     		ldrb	r3, [r3, r2]
 331 0116 012B     		cmp	r3, #1
 332 0118 1ED0     		beq	.L21
 333 011a 02DC     		bgt	.L22
 334 011c 002B     		cmp	r3, #0
 335 011e 05D0     		beq	.L23
 336 0120 45E0     		b	.L20
 337              	.L22:
 338 0122 022B     		cmp	r3, #2
 339 0124 32D0     		beq	.L24
 340 0126 032B     		cmp	r3, #3
 341 0128 27D0     		beq	.L25
 342 012a 40E0     		b	.L20
 343              	.L23:
 547:..\..\..\..\..\..\Software\uCOS-III\Source/os_q.c ****         case OS_STATUS_PEND_OK:                                 /* Extract message from TCB (Put th
 548:..\..\..\..\..\..\Software\uCOS-III\Source/os_q.c ****              p_void     = OSTCBCurPtr->MsgPtr;
 344              		.loc 1 548 0
 345 012c 324B     		ldr	r3, .L32+32
 346 012e 1B68     		ldr	r3, [r3]
 347 0130 9B6D     		ldr	r3, [r3, #88]
 348 0132 7B63     		str	r3, [r7, #52]
 549:..\..\..\..\..\..\Software\uCOS-III\Source/os_q.c ****             *p_msg_size = OSTCBCurPtr->MsgSize;
 349              		.loc 1 549 0
 350 0134 304B     		ldr	r3, .L32+32
 351 0136 1B68     		ldr	r3, [r3]
 352 0138 5C22     		movs	r2, #92
 353 013a 9A5A     		ldrh	r2, [r3, r2]
 354 013c 3B68     		ldr	r3, [r7]
 355 013e 1A80     		strh	r2, [r3]
 550:..\..\..\..\..\..\Software\uCOS-III\Source/os_q.c **** #if (OS_CFG_TS_EN == DEF_ENABLED)
 551:..\..\..\..\..\..\Software\uCOS-III\Source/os_q.c ****              if (p_ts  != DEF_NULL) {
 356              		.loc 1 551 0
 357 0140 3B6C     		ldr	r3, [r7, #64]
 358 0142 002B     		cmp	r3, #0
 359 0144 04D0     		beq	.L26
 552:..\..\..\..\..\..\Software\uCOS-III\Source/os_q.c ****                 *p_ts  =  OSTCBCurPtr->TS;
ARM GAS  C:\Users\ADMINI~1\AppData\Local\Temp\ccKLo23z.s 			page 17


 360              		.loc 1 552 0
 361 0146 2C4B     		ldr	r3, .L32+32
 362 0148 1B68     		ldr	r3, [r3]
 363 014a 9A6C     		ldr	r2, [r3, #72]
 364 014c 3B6C     		ldr	r3, [r7, #64]
 365 014e 1A60     		str	r2, [r3]
 366              	.L26:
 553:..\..\..\..\..\..\Software\uCOS-III\Source/os_q.c ****              }
 554:..\..\..\..\..\..\Software\uCOS-III\Source/os_q.c **** #endif
 555:..\..\..\..\..\..\Software\uCOS-III\Source/os_q.c **** #if (defined(TRACE_CFG_EN) && (TRACE_CFG_EN == DEF_ENABLED))
 556:..\..\..\..\..\..\Software\uCOS-III\Source/os_q.c ****              TRACE_OS_Q_PEND(p_q);                              /* Record the event.               
 557:..\..\..\..\..\..\Software\uCOS-III\Source/os_q.c **** #endif
 558:..\..\..\..\..\..\Software\uCOS-III\Source/os_q.c ****             *p_err      = OS_ERR_NONE;
 367              		.loc 1 558 0
 368 0150 7B6C     		ldr	r3, [r7, #68]
 369 0152 0022     		movs	r2, #0
 370 0154 1A80     		strh	r2, [r3]
 559:..\..\..\..\..\..\Software\uCOS-III\Source/os_q.c ****              break;
 371              		.loc 1 559 0
 372 0156 33E0     		b	.L27
 373              	.L21:
 560:..\..\..\..\..\..\Software\uCOS-III\Source/os_q.c **** 
 561:..\..\..\..\..\..\Software\uCOS-III\Source/os_q.c ****         case OS_STATUS_PEND_ABORT:                              /* Indicate that we aborted        
 562:..\..\..\..\..\..\Software\uCOS-III\Source/os_q.c ****              p_void     = DEF_NULL;
 374              		.loc 1 562 0
 375 0158 0023     		movs	r3, #0
 376 015a 7B63     		str	r3, [r7, #52]
 563:..\..\..\..\..\..\Software\uCOS-III\Source/os_q.c ****             *p_msg_size = 0u;
 377              		.loc 1 563 0
 378 015c 3B68     		ldr	r3, [r7]
 379 015e 0022     		movs	r2, #0
 380 0160 1A80     		strh	r2, [r3]
 564:..\..\..\..\..\..\Software\uCOS-III\Source/os_q.c **** #if (OS_CFG_TS_EN == DEF_ENABLED)
 565:..\..\..\..\..\..\Software\uCOS-III\Source/os_q.c ****              if (p_ts  != DEF_NULL) {
 381              		.loc 1 565 0
 382 0162 3B6C     		ldr	r3, [r7, #64]
 383 0164 002B     		cmp	r3, #0
 384 0166 04D0     		beq	.L28
 566:..\..\..\..\..\..\Software\uCOS-III\Source/os_q.c ****                 *p_ts  =  OSTCBCurPtr->TS;
 385              		.loc 1 566 0
 386 0168 234B     		ldr	r3, .L32+32
 387 016a 1B68     		ldr	r3, [r3]
 388 016c 9A6C     		ldr	r2, [r3, #72]
 389 016e 3B6C     		ldr	r3, [r7, #64]
 390 0170 1A60     		str	r2, [r3]
 391              	.L28:
 567:..\..\..\..\..\..\Software\uCOS-III\Source/os_q.c ****              }
 568:..\..\..\..\..\..\Software\uCOS-III\Source/os_q.c **** #endif
 569:..\..\..\..\..\..\Software\uCOS-III\Source/os_q.c **** #if (defined(TRACE_CFG_EN) && (TRACE_CFG_EN == DEF_ENABLED))
 570:..\..\..\..\..\..\Software\uCOS-III\Source/os_q.c ****              TRACE_OS_Q_PEND_FAILED(p_q);                       /* Record the event.               
 571:..\..\..\..\..\..\Software\uCOS-III\Source/os_q.c **** #endif
 572:..\..\..\..\..\..\Software\uCOS-III\Source/os_q.c ****             *p_err      = OS_ERR_PEND_ABORT;
 392              		.loc 1 572 0
 393 0172 7B6C     		ldr	r3, [r7, #68]
 394 0174 214A     		ldr	r2, .L32+36
 395 0176 1A80     		strh	r2, [r3]
 573:..\..\..\..\..\..\Software\uCOS-III\Source/os_q.c ****              break;
ARM GAS  C:\Users\ADMINI~1\AppData\Local\Temp\ccKLo23z.s 			page 18


 396              		.loc 1 573 0
 397 0178 22E0     		b	.L27
 398              	.L25:
 574:..\..\..\..\..\..\Software\uCOS-III\Source/os_q.c **** 
 575:..\..\..\..\..\..\Software\uCOS-III\Source/os_q.c ****         case OS_STATUS_PEND_TIMEOUT:                            /* Indicate that we didn't get even
 576:..\..\..\..\..\..\Software\uCOS-III\Source/os_q.c ****              p_void     = DEF_NULL;
 399              		.loc 1 576 0
 400 017a 0023     		movs	r3, #0
 401 017c 7B63     		str	r3, [r7, #52]
 577:..\..\..\..\..\..\Software\uCOS-III\Source/os_q.c ****             *p_msg_size = 0u;
 402              		.loc 1 577 0
 403 017e 3B68     		ldr	r3, [r7]
 404 0180 0022     		movs	r2, #0
 405 0182 1A80     		strh	r2, [r3]
 578:..\..\..\..\..\..\Software\uCOS-III\Source/os_q.c **** #if (defined(TRACE_CFG_EN) && (TRACE_CFG_EN == DEF_ENABLED))
 579:..\..\..\..\..\..\Software\uCOS-III\Source/os_q.c ****              TRACE_OS_Q_PEND_FAILED(p_q);                       /* Record the event.               
 580:..\..\..\..\..\..\Software\uCOS-III\Source/os_q.c **** #endif
 581:..\..\..\..\..\..\Software\uCOS-III\Source/os_q.c ****             *p_err      = OS_ERR_TIMEOUT;
 406              		.loc 1 581 0
 407 0184 7B6C     		ldr	r3, [r7, #68]
 408 0186 1E4A     		ldr	r2, .L32+40
 409 0188 1A80     		strh	r2, [r3]
 582:..\..\..\..\..\..\Software\uCOS-III\Source/os_q.c ****              break;
 410              		.loc 1 582 0
 411 018a 19E0     		b	.L27
 412              	.L24:
 583:..\..\..\..\..\..\Software\uCOS-III\Source/os_q.c **** 
 584:..\..\..\..\..\..\Software\uCOS-III\Source/os_q.c ****         case OS_STATUS_PEND_DEL:                                /* Indicate that object pended on h
 585:..\..\..\..\..\..\Software\uCOS-III\Source/os_q.c ****              p_void     = DEF_NULL;
 413              		.loc 1 585 0
 414 018c 0023     		movs	r3, #0
 415 018e 7B63     		str	r3, [r7, #52]
 586:..\..\..\..\..\..\Software\uCOS-III\Source/os_q.c ****             *p_msg_size = 0u;
 416              		.loc 1 586 0
 417 0190 3B68     		ldr	r3, [r7]
 418 0192 0022     		movs	r2, #0
 419 0194 1A80     		strh	r2, [r3]
 587:..\..\..\..\..\..\Software\uCOS-III\Source/os_q.c **** #if (OS_CFG_TS_EN == DEF_ENABLED)
 588:..\..\..\..\..\..\Software\uCOS-III\Source/os_q.c ****              if (p_ts  != DEF_NULL) {
 420              		.loc 1 588 0
 421 0196 3B6C     		ldr	r3, [r7, #64]
 422 0198 002B     		cmp	r3, #0
 423 019a 04D0     		beq	.L29
 589:..\..\..\..\..\..\Software\uCOS-III\Source/os_q.c ****                 *p_ts  =  OSTCBCurPtr->TS;
 424              		.loc 1 589 0
 425 019c 164B     		ldr	r3, .L32+32
 426 019e 1B68     		ldr	r3, [r3]
 427 01a0 9A6C     		ldr	r2, [r3, #72]
 428 01a2 3B6C     		ldr	r3, [r7, #64]
 429 01a4 1A60     		str	r2, [r3]
 430              	.L29:
 590:..\..\..\..\..\..\Software\uCOS-III\Source/os_q.c ****              }
 591:..\..\..\..\..\..\Software\uCOS-III\Source/os_q.c **** #endif
 592:..\..\..\..\..\..\Software\uCOS-III\Source/os_q.c **** #if (defined(TRACE_CFG_EN) && (TRACE_CFG_EN == DEF_ENABLED))
 593:..\..\..\..\..\..\Software\uCOS-III\Source/os_q.c ****              TRACE_OS_Q_PEND_FAILED(p_q);                       /* Record the event.               
 594:..\..\..\..\..\..\Software\uCOS-III\Source/os_q.c **** #endif
 595:..\..\..\..\..\..\Software\uCOS-III\Source/os_q.c ****             *p_err      = OS_ERR_OBJ_DEL;
ARM GAS  C:\Users\ADMINI~1\AppData\Local\Temp\ccKLo23z.s 			page 19


 431              		.loc 1 595 0
 432 01a6 7B6C     		ldr	r3, [r7, #68]
 433 01a8 164A     		ldr	r2, .L32+44
 434 01aa 1A80     		strh	r2, [r3]
 596:..\..\..\..\..\..\Software\uCOS-III\Source/os_q.c ****              break;
 435              		.loc 1 596 0
 436 01ac 08E0     		b	.L27
 437              	.L20:
 597:..\..\..\..\..\..\Software\uCOS-III\Source/os_q.c **** 
 598:..\..\..\..\..\..\Software\uCOS-III\Source/os_q.c ****         default:
 599:..\..\..\..\..\..\Software\uCOS-III\Source/os_q.c ****              p_void     = DEF_NULL;
 438              		.loc 1 599 0
 439 01ae 0023     		movs	r3, #0
 440 01b0 7B63     		str	r3, [r7, #52]
 600:..\..\..\..\..\..\Software\uCOS-III\Source/os_q.c ****             *p_msg_size = 0u;
 441              		.loc 1 600 0
 442 01b2 3B68     		ldr	r3, [r7]
 443 01b4 0022     		movs	r2, #0
 444 01b6 1A80     		strh	r2, [r3]
 601:..\..\..\..\..\..\Software\uCOS-III\Source/os_q.c **** #if (defined(TRACE_CFG_EN) && (TRACE_CFG_EN == DEF_ENABLED))
 602:..\..\..\..\..\..\Software\uCOS-III\Source/os_q.c ****              TRACE_OS_Q_PEND_FAILED(p_q);                       /* Record the event.               
 603:..\..\..\..\..\..\Software\uCOS-III\Source/os_q.c **** #endif
 604:..\..\..\..\..\..\Software\uCOS-III\Source/os_q.c ****             *p_err      = OS_ERR_STATUS_INVALID;
 445              		.loc 1 604 0
 446 01b8 7B6C     		ldr	r3, [r7, #68]
 447 01ba 134A     		ldr	r2, .L32+48
 448 01bc 1A80     		strh	r2, [r3]
 605:..\..\..\..\..\..\Software\uCOS-III\Source/os_q.c ****              break;
 449              		.loc 1 605 0
 450 01be C046     		nop
 451              	.L27:
 606:..\..\..\..\..\..\Software\uCOS-III\Source/os_q.c ****     }
 607:..\..\..\..\..\..\Software\uCOS-III\Source/os_q.c ****     CPU_CRITICAL_EXIT();
 452              		.loc 1 607 0
 453 01c0 FFF7FEFF 		bl	CPU_IntDisMeasStop
 454 01c4 3B6B     		ldr	r3, [r7, #48]
 455 01c6 1800     		movs	r0, r3
 456 01c8 FFF7FEFF 		bl	CPU_SR_Restore
 608:..\..\..\..\..\..\Software\uCOS-III\Source/os_q.c ****     return (p_void);
 457              		.loc 1 608 0
 458 01cc 7B6B     		ldr	r3, [r7, #52]
 459              	.L30:
 609:..\..\..\..\..\..\Software\uCOS-III\Source/os_q.c **** }
 460              		.loc 1 609 0 discriminator 1
 461 01ce 1800     		movs	r0, r3
 462 01d0 BD46     		mov	sp, r7
 463 01d2 0EB0     		add	sp, sp, #56
 464              		@ sp needed
 465 01d4 80BD     		pop	{r7, pc}
 466              	.L33:
 467 01d6 C046     		.align	2
 468              	.L32:
 469 01d8 00000000 		.word	OSIntNestingCtr
 470 01dc AE610000 		.word	25006
 471 01e0 C35D0000 		.word	24003
 472 01e4 D5620000 		.word	25301
 473 01e8 255E0000 		.word	24101
ARM GAS  C:\Users\ADMINI~1\AppData\Local\Temp\ccKLo23z.s 			page 20


 474 01ec B0610000 		.word	25008
 475 01f0 00000000 		.word	OSSchedLockNestingCtr
 476 01f4 636D0000 		.word	28003
 477 01f8 00000000 		.word	OSTCBCurPtr
 478 01fc A9610000 		.word	25001
 479 0200 D9720000 		.word	29401
 480 0204 C25D0000 		.word	24002
 481 0208 2E6E0000 		.word	28206
 482              		.cfi_endproc
 483              	.LFE1:
 484              		.size	OSQPend, .-OSQPend
 485              		.section	.text.OSQPendAbort,"ax",%progbits
 486              		.align	2
 487              		.global	OSQPendAbort
 488              		.code	16
 489              		.thumb_func
 490              		.type	OSQPendAbort, %function
 491              	OSQPendAbort:
 492              	.LFB2:
 610:..\..\..\..\..\..\Software\uCOS-III\Source/os_q.c **** 
 611:..\..\..\..\..\..\Software\uCOS-III\Source/os_q.c **** 
 612:..\..\..\..\..\..\Software\uCOS-III\Source/os_q.c **** /*
 613:..\..\..\..\..\..\Software\uCOS-III\Source/os_q.c **** ***************************************************************************************************
 614:..\..\..\..\..\..\Software\uCOS-III\Source/os_q.c **** *                                             ABORT WAITING ON A MESSAGE QUEUE
 615:..\..\..\..\..\..\Software\uCOS-III\Source/os_q.c **** *
 616:..\..\..\..\..\..\Software\uCOS-III\Source/os_q.c **** * Description: This function aborts & readies any tasks currently waiting on a queue.  This functio
 617:..\..\..\..\..\..\Software\uCOS-III\Source/os_q.c **** *              fault-abort the wait on the queue, rather than to normally signal the queue via OSQP
 618:..\..\..\..\..\..\Software\uCOS-III\Source/os_q.c **** *
 619:..\..\..\..\..\..\Software\uCOS-III\Source/os_q.c **** * Arguments  : p_q       is a pointer to the message queue
 620:..\..\..\..\..\..\Software\uCOS-III\Source/os_q.c **** *
 621:..\..\..\..\..\..\Software\uCOS-III\Source/os_q.c **** *              opt       determines the type of ABORT performed:
 622:..\..\..\..\..\..\Software\uCOS-III\Source/os_q.c **** *
 623:..\..\..\..\..\..\Software\uCOS-III\Source/os_q.c **** *                            OS_OPT_PEND_ABORT_1          ABORT wait for a single task (HPT) waitin
 624:..\..\..\..\..\..\Software\uCOS-III\Source/os_q.c **** *                            OS_OPT_PEND_ABORT_ALL        ABORT wait for ALL tasks that are  waitin
 625:..\..\..\..\..\..\Software\uCOS-III\Source/os_q.c **** *                            OS_OPT_POST_NO_SCHED         Do not call the scheduler
 626:..\..\..\..\..\..\Software\uCOS-III\Source/os_q.c **** *
 627:..\..\..\..\..\..\Software\uCOS-III\Source/os_q.c **** *              p_err     is a pointer to a variable that will contain an error code returned by thi
 628:..\..\..\..\..\..\Software\uCOS-III\Source/os_q.c **** *
 629:..\..\..\..\..\..\Software\uCOS-III\Source/os_q.c **** *                            OS_ERR_NONE                  At least one task waiting on the queue wa
 630:..\..\..\..\..\..\Software\uCOS-III\Source/os_q.c **** *                                                         informed of the aborted wait; check retur
 631:..\..\..\..\..\..\Software\uCOS-III\Source/os_q.c **** *                                                         number of tasks whose wait on the queue w
 632:..\..\..\..\..\..\Software\uCOS-III\Source/os_q.c **** *                            OS_ERR_OBJ_PTR_NULL          If you pass a NULL pointer for 'p_q'
 633:..\..\..\..\..\..\Software\uCOS-III\Source/os_q.c **** *                            OS_ERR_OBJ_TYPE              If the message queue was not created
 634:..\..\..\..\..\..\Software\uCOS-III\Source/os_q.c **** *                            OS_ERR_OPT_INVALID           You specified an invalid option
 635:..\..\..\..\..\..\Software\uCOS-III\Source/os_q.c **** *                            OS_ERR_OS_NOT_RUNNING        If uC/OS-III is not running yet
 636:..\..\..\..\..\..\Software\uCOS-III\Source/os_q.c **** *                            OS_ERR_PEND_ABORT_ISR        If this function was called from an ISR
 637:..\..\..\..\..\..\Software\uCOS-III\Source/os_q.c **** *                            OS_ERR_PEND_ABORT_NONE       No task were pending
 638:..\..\..\..\..\..\Software\uCOS-III\Source/os_q.c **** *
 639:..\..\..\..\..\..\Software\uCOS-III\Source/os_q.c **** * Returns    : == 0      if no tasks were waiting on the queue, or upon error.
 640:..\..\..\..\..\..\Software\uCOS-III\Source/os_q.c **** *              >  0      if one or more tasks waiting on the queue are now readied and informed.
 641:..\..\..\..\..\..\Software\uCOS-III\Source/os_q.c **** *
 642:..\..\..\..\..\..\Software\uCOS-III\Source/os_q.c **** * Note(s)    : none
 643:..\..\..\..\..\..\Software\uCOS-III\Source/os_q.c **** ***************************************************************************************************
 644:..\..\..\..\..\..\Software\uCOS-III\Source/os_q.c **** */
 645:..\..\..\..\..\..\Software\uCOS-III\Source/os_q.c **** 
 646:..\..\..\..\..\..\Software\uCOS-III\Source/os_q.c **** #if (OS_CFG_Q_PEND_ABORT_EN == DEF_ENABLED)
 647:..\..\..\..\..\..\Software\uCOS-III\Source/os_q.c **** OS_OBJ_QTY  OSQPendAbort (OS_Q    *p_q,
ARM GAS  C:\Users\ADMINI~1\AppData\Local\Temp\ccKLo23z.s 			page 21


 648:..\..\..\..\..\..\Software\uCOS-III\Source/os_q.c ****                           OS_OPT   opt,
 649:..\..\..\..\..\..\Software\uCOS-III\Source/os_q.c ****                           OS_ERR  *p_err)
 650:..\..\..\..\..\..\Software\uCOS-III\Source/os_q.c **** {
 493              		.loc 1 650 0
 494              		.cfi_startproc
 495              		@ args = 0, pretend = 0, frame = 40
 496              		@ frame_needed = 1, uses_anonymous_args = 0
 497 0000 80B5     		push	{r7, lr}
 498              		.cfi_def_cfa_offset 8
 499              		.cfi_offset 7, -8
 500              		.cfi_offset 14, -4
 501 0002 8AB0     		sub	sp, sp, #40
 502              		.cfi_def_cfa_offset 48
 503 0004 00AF     		add	r7, sp, #0
 504              		.cfi_def_cfa_register 7
 505 0006 F860     		str	r0, [r7, #12]
 506 0008 7A60     		str	r2, [r7, #4]
 507 000a 0A23     		movs	r3, #10
 508 000c FB18     		adds	r3, r7, r3
 509 000e 0A1C     		adds	r2, r1, #0
 510 0010 1A80     		strh	r2, [r3]
 651:..\..\..\..\..\..\Software\uCOS-III\Source/os_q.c ****     OS_PEND_LIST  *p_pend_list;
 652:..\..\..\..\..\..\Software\uCOS-III\Source/os_q.c ****     OS_TCB        *p_tcb;
 653:..\..\..\..\..\..\Software\uCOS-III\Source/os_q.c ****     CPU_TS         ts;
 654:..\..\..\..\..\..\Software\uCOS-III\Source/os_q.c ****     OS_OBJ_QTY     nbr_tasks;
 655:..\..\..\..\..\..\Software\uCOS-III\Source/os_q.c ****     CPU_SR_ALLOC();
 511              		.loc 1 655 0
 512 0012 0023     		movs	r3, #0
 513 0014 3B62     		str	r3, [r7, #32]
 656:..\..\..\..\..\..\Software\uCOS-III\Source/os_q.c **** 
 657:..\..\..\..\..\..\Software\uCOS-III\Source/os_q.c **** 
 658:..\..\..\..\..\..\Software\uCOS-III\Source/os_q.c **** 
 659:..\..\..\..\..\..\Software\uCOS-III\Source/os_q.c **** #ifdef OS_SAFETY_CRITICAL
 660:..\..\..\..\..\..\Software\uCOS-III\Source/os_q.c ****     if (p_err == DEF_NULL) {
 661:..\..\..\..\..\..\Software\uCOS-III\Source/os_q.c ****         OS_SAFETY_CRITICAL_EXCEPTION();
 662:..\..\..\..\..\..\Software\uCOS-III\Source/os_q.c ****         return (0u);
 663:..\..\..\..\..\..\Software\uCOS-III\Source/os_q.c ****     }
 664:..\..\..\..\..\..\Software\uCOS-III\Source/os_q.c **** #endif
 665:..\..\..\..\..\..\Software\uCOS-III\Source/os_q.c **** 
 666:..\..\..\..\..\..\Software\uCOS-III\Source/os_q.c **** #if (OS_CFG_CALLED_FROM_ISR_CHK_EN == DEF_ENABLED)
 667:..\..\..\..\..\..\Software\uCOS-III\Source/os_q.c ****     if (OSIntNestingCtr > 0u) {                                 /* Not allowed to Pend Abort from a
 514              		.loc 1 667 0
 515 0016 424B     		ldr	r3, .L49
 516 0018 1B78     		ldrb	r3, [r3]
 517 001a 002B     		cmp	r3, #0
 518 001c 04D0     		beq	.L35
 668:..\..\..\..\..\..\Software\uCOS-III\Source/os_q.c ****        *p_err =  OS_ERR_PEND_ABORT_ISR;
 519              		.loc 1 668 0
 520 001e 7B68     		ldr	r3, [r7, #4]
 521 0020 404A     		ldr	r2, .L49+4
 522 0022 1A80     		strh	r2, [r3]
 669:..\..\..\..\..\..\Software\uCOS-III\Source/os_q.c ****         return (0u);
 523              		.loc 1 669 0
 524 0024 0023     		movs	r3, #0
 525 0026 76E0     		b	.L36
 526              	.L35:
 670:..\..\..\..\..\..\Software\uCOS-III\Source/os_q.c ****     }
ARM GAS  C:\Users\ADMINI~1\AppData\Local\Temp\ccKLo23z.s 			page 22


 671:..\..\..\..\..\..\Software\uCOS-III\Source/os_q.c **** #endif
 672:..\..\..\..\..\..\Software\uCOS-III\Source/os_q.c **** 
 673:..\..\..\..\..\..\Software\uCOS-III\Source/os_q.c **** #if (OS_CFG_INVALID_OS_CALLS_CHK_EN == DEF_ENABLED)             /* Is the kernel running?          
 674:..\..\..\..\..\..\Software\uCOS-III\Source/os_q.c ****     if (OSRunning != OS_STATE_OS_RUNNING) {
 675:..\..\..\..\..\..\Software\uCOS-III\Source/os_q.c ****        *p_err = OS_ERR_OS_NOT_RUNNING;
 676:..\..\..\..\..\..\Software\uCOS-III\Source/os_q.c ****         return (0u);
 677:..\..\..\..\..\..\Software\uCOS-III\Source/os_q.c ****     }
 678:..\..\..\..\..\..\Software\uCOS-III\Source/os_q.c **** #endif
 679:..\..\..\..\..\..\Software\uCOS-III\Source/os_q.c **** 
 680:..\..\..\..\..\..\Software\uCOS-III\Source/os_q.c **** #if (OS_CFG_ARG_CHK_EN == DEF_ENABLED)
 681:..\..\..\..\..\..\Software\uCOS-III\Source/os_q.c ****     if (p_q == DEF_NULL) {                                      /* Validate 'p_q'                  
 527              		.loc 1 681 0
 528 0028 FB68     		ldr	r3, [r7, #12]
 529 002a 002B     		cmp	r3, #0
 530 002c 04D1     		bne	.L37
 682:..\..\..\..\..\..\Software\uCOS-III\Source/os_q.c ****        *p_err =  OS_ERR_OBJ_PTR_NULL;
 531              		.loc 1 682 0
 532 002e 7B68     		ldr	r3, [r7, #4]
 533 0030 3D4A     		ldr	r2, .L49+8
 534 0032 1A80     		strh	r2, [r3]
 683:..\..\..\..\..\..\Software\uCOS-III\Source/os_q.c ****         return (0u);
 535              		.loc 1 683 0
 536 0034 0023     		movs	r3, #0
 537 0036 6EE0     		b	.L36
 538              	.L37:
 684:..\..\..\..\..\..\Software\uCOS-III\Source/os_q.c ****     }
 685:..\..\..\..\..\..\Software\uCOS-III\Source/os_q.c ****     switch (opt) {                                              /* Validate 'opt'                  
 539              		.loc 1 685 0
 540 0038 0A23     		movs	r3, #10
 541 003a FB18     		adds	r3, r7, r3
 542 003c 1B88     		ldrh	r3, [r3]
 543 003e 8022     		movs	r2, #128
 544 0040 5200     		lsls	r2, r2, #1
 545 0042 9342     		cmp	r3, r2
 546 0044 13D0     		beq	.L47
 547 0046 8022     		movs	r2, #128
 548 0048 5200     		lsls	r2, r2, #1
 549 004a 9342     		cmp	r3, r2
 550 004c 02DC     		bgt	.L40
 551 004e 002B     		cmp	r3, #0
 552 0050 0DD0     		beq	.L47
 553 0052 07E0     		b	.L38
 554              	.L40:
 555 0054 8022     		movs	r2, #128
 556 0056 1202     		lsls	r2, r2, #8
 557 0058 9342     		cmp	r3, r2
 558 005a 08D0     		beq	.L47
 559 005c 8122     		movs	r2, #129
 560 005e 1202     		lsls	r2, r2, #8
 561 0060 9342     		cmp	r3, r2
 562 0062 04D0     		beq	.L47
 563              	.L38:
 686:..\..\..\..\..\..\Software\uCOS-III\Source/os_q.c ****         case OS_OPT_PEND_ABORT_1:
 687:..\..\..\..\..\..\Software\uCOS-III\Source/os_q.c ****         case OS_OPT_PEND_ABORT_ALL:
 688:..\..\..\..\..\..\Software\uCOS-III\Source/os_q.c ****         case OS_OPT_PEND_ABORT_1   | OS_OPT_POST_NO_SCHED:
 689:..\..\..\..\..\..\Software\uCOS-III\Source/os_q.c ****         case OS_OPT_PEND_ABORT_ALL | OS_OPT_POST_NO_SCHED:
 690:..\..\..\..\..\..\Software\uCOS-III\Source/os_q.c ****              break;
ARM GAS  C:\Users\ADMINI~1\AppData\Local\Temp\ccKLo23z.s 			page 23


 691:..\..\..\..\..\..\Software\uCOS-III\Source/os_q.c **** 
 692:..\..\..\..\..\..\Software\uCOS-III\Source/os_q.c ****         default:
 693:..\..\..\..\..\..\Software\uCOS-III\Source/os_q.c ****             *p_err =  OS_ERR_OPT_INVALID;
 564              		.loc 1 693 0
 565 0064 7B68     		ldr	r3, [r7, #4]
 566 0066 314A     		ldr	r2, .L49+12
 567 0068 1A80     		strh	r2, [r3]
 694:..\..\..\..\..\..\Software\uCOS-III\Source/os_q.c ****              return (0u);
 568              		.loc 1 694 0
 569 006a 0023     		movs	r3, #0
 570 006c 53E0     		b	.L36
 571              	.L47:
 690:..\..\..\..\..\..\Software\uCOS-III\Source/os_q.c **** 
 572              		.loc 1 690 0
 573 006e C046     		nop
 695:..\..\..\..\..\..\Software\uCOS-III\Source/os_q.c ****     }
 696:..\..\..\..\..\..\Software\uCOS-III\Source/os_q.c **** #endif
 697:..\..\..\..\..\..\Software\uCOS-III\Source/os_q.c **** 
 698:..\..\..\..\..\..\Software\uCOS-III\Source/os_q.c **** #if (OS_CFG_OBJ_TYPE_CHK_EN == DEF_ENABLED)
 699:..\..\..\..\..\..\Software\uCOS-III\Source/os_q.c ****     if (p_q->Type != OS_OBJ_TYPE_Q) {                           /* Make sure queue was created     
 700:..\..\..\..\..\..\Software\uCOS-III\Source/os_q.c ****        *p_err =  OS_ERR_OBJ_TYPE;
 701:..\..\..\..\..\..\Software\uCOS-III\Source/os_q.c ****         return (0u);
 702:..\..\..\..\..\..\Software\uCOS-III\Source/os_q.c ****     }
 703:..\..\..\..\..\..\Software\uCOS-III\Source/os_q.c **** #endif
 704:..\..\..\..\..\..\Software\uCOS-III\Source/os_q.c **** 
 705:..\..\..\..\..\..\Software\uCOS-III\Source/os_q.c ****     CPU_CRITICAL_ENTER();
 574              		.loc 1 705 0
 575 0070 FFF7FEFF 		bl	CPU_SR_Save
 576 0074 0300     		movs	r3, r0
 577 0076 3B62     		str	r3, [r7, #32]
 578 0078 FFF7FEFF 		bl	CPU_IntDisMeasStart
 706:..\..\..\..\..\..\Software\uCOS-III\Source/os_q.c ****     p_pend_list = &p_q->PendList;
 579              		.loc 1 706 0
 580 007c FB68     		ldr	r3, [r7, #12]
 581 007e 0833     		adds	r3, r3, #8
 582 0080 FB61     		str	r3, [r7, #28]
 707:..\..\..\..\..\..\Software\uCOS-III\Source/os_q.c ****     if (p_pend_list->HeadPtr == DEF_NULL) {                     /* Any task waiting on queue?      
 583              		.loc 1 707 0
 584 0082 FB69     		ldr	r3, [r7, #28]
 585 0084 1B68     		ldr	r3, [r3]
 586 0086 002B     		cmp	r3, #0
 587 0088 0AD1     		bne	.L42
 708:..\..\..\..\..\..\Software\uCOS-III\Source/os_q.c ****         CPU_CRITICAL_EXIT();                                    /* No                              
 588              		.loc 1 708 0
 589 008a FFF7FEFF 		bl	CPU_IntDisMeasStop
 590 008e 3B6A     		ldr	r3, [r7, #32]
 591 0090 1800     		movs	r0, r3
 592 0092 FFF7FEFF 		bl	CPU_SR_Restore
 709:..\..\..\..\..\..\Software\uCOS-III\Source/os_q.c ****        *p_err =  OS_ERR_PEND_ABORT_NONE;
 593              		.loc 1 709 0
 594 0096 7B68     		ldr	r3, [r7, #4]
 595 0098 254A     		ldr	r2, .L49+16
 596 009a 1A80     		strh	r2, [r3]
 710:..\..\..\..\..\..\Software\uCOS-III\Source/os_q.c ****         return (0u);
 597              		.loc 1 710 0
 598 009c 0023     		movs	r3, #0
 599 009e 3AE0     		b	.L36
ARM GAS  C:\Users\ADMINI~1\AppData\Local\Temp\ccKLo23z.s 			page 24


 600              	.L42:
 711:..\..\..\..\..\..\Software\uCOS-III\Source/os_q.c ****     }
 712:..\..\..\..\..\..\Software\uCOS-III\Source/os_q.c **** 
 713:..\..\..\..\..\..\Software\uCOS-III\Source/os_q.c ****     OS_CRITICAL_ENTER_CPU_EXIT();
 714:..\..\..\..\..\..\Software\uCOS-III\Source/os_q.c ****     nbr_tasks = 0u;
 601              		.loc 1 714 0
 602 00a0 2623     		movs	r3, #38
 603 00a2 FB18     		adds	r3, r7, r3
 604 00a4 0022     		movs	r2, #0
 605 00a6 1A80     		strh	r2, [r3]
 715:..\..\..\..\..\..\Software\uCOS-III\Source/os_q.c **** #if (OS_CFG_TS_EN == DEF_ENABLED)
 716:..\..\..\..\..\..\Software\uCOS-III\Source/os_q.c ****     ts        = OS_TS_GET();                                    /* Get local time stamp so all task
 606              		.loc 1 716 0
 607 00a8 FFF7FEFF 		bl	CPU_TS_TmrRd
 608 00ac 0300     		movs	r3, r0
 609 00ae BB61     		str	r3, [r7, #24]
 717:..\..\..\..\..\..\Software\uCOS-III\Source/os_q.c **** #else
 718:..\..\..\..\..\..\Software\uCOS-III\Source/os_q.c ****     ts        = 0u;
 719:..\..\..\..\..\..\Software\uCOS-III\Source/os_q.c **** #endif
 720:..\..\..\..\..\..\Software\uCOS-III\Source/os_q.c ****     while (p_pend_list->HeadPtr != DEF_NULL) {
 610              		.loc 1 720 0
 611 00b0 17E0     		b	.L43
 612              	.L45:
 721:..\..\..\..\..\..\Software\uCOS-III\Source/os_q.c ****         p_tcb = p_pend_list->HeadPtr->TCBPtr;
 613              		.loc 1 721 0
 614 00b2 FB69     		ldr	r3, [r7, #28]
 615 00b4 1B68     		ldr	r3, [r3]
 616 00b6 9B68     		ldr	r3, [r3, #8]
 617 00b8 7B61     		str	r3, [r7, #20]
 722:..\..\..\..\..\..\Software\uCOS-III\Source/os_q.c ****         OS_PendAbort((OS_PEND_OBJ *)((void *)p_q),
 618              		.loc 1 722 0
 619 00ba BA69     		ldr	r2, [r7, #24]
 620 00bc 7969     		ldr	r1, [r7, #20]
 621 00be FB68     		ldr	r3, [r7, #12]
 622 00c0 1800     		movs	r0, r3
 623 00c2 FFF7FEFF 		bl	OS_PendAbort
 723:..\..\..\..\..\..\Software\uCOS-III\Source/os_q.c ****                      p_tcb,
 724:..\..\..\..\..\..\Software\uCOS-III\Source/os_q.c ****                      ts);
 725:..\..\..\..\..\..\Software\uCOS-III\Source/os_q.c ****         nbr_tasks++;
 624              		.loc 1 725 0
 625 00c6 2623     		movs	r3, #38
 626 00c8 FB18     		adds	r3, r7, r3
 627 00ca 1A88     		ldrh	r2, [r3]
 628 00cc 2623     		movs	r3, #38
 629 00ce FB18     		adds	r3, r7, r3
 630 00d0 0132     		adds	r2, r2, #1
 631 00d2 1A80     		strh	r2, [r3]
 726:..\..\..\..\..\..\Software\uCOS-III\Source/os_q.c ****         if (opt != OS_OPT_PEND_ABORT_ALL) {                     /* Pend abort all tasks waiting?   
 632              		.loc 1 726 0
 633 00d4 0A23     		movs	r3, #10
 634 00d6 FB18     		adds	r3, r7, r3
 635 00d8 1A88     		ldrh	r2, [r3]
 636 00da 8023     		movs	r3, #128
 637 00dc 5B00     		lsls	r3, r3, #1
 638 00de 9A42     		cmp	r2, r3
 639 00e0 04D1     		bne	.L48
 640              	.L43:
ARM GAS  C:\Users\ADMINI~1\AppData\Local\Temp\ccKLo23z.s 			page 25


 720:..\..\..\..\..\..\Software\uCOS-III\Source/os_q.c ****         p_tcb = p_pend_list->HeadPtr->TCBPtr;
 641              		.loc 1 720 0
 642 00e2 FB69     		ldr	r3, [r7, #28]
 643 00e4 1B68     		ldr	r3, [r3]
 644 00e6 002B     		cmp	r3, #0
 645 00e8 E3D1     		bne	.L45
 646 00ea 00E0     		b	.L44
 647              	.L48:
 727:..\..\..\..\..\..\Software\uCOS-III\Source/os_q.c ****             break;                                              /* No                              
 648              		.loc 1 727 0
 649 00ec C046     		nop
 650              	.L44:
 728:..\..\..\..\..\..\Software\uCOS-III\Source/os_q.c ****         }
 729:..\..\..\..\..\..\Software\uCOS-III\Source/os_q.c ****     }
 730:..\..\..\..\..\..\Software\uCOS-III\Source/os_q.c ****     OS_CRITICAL_EXIT_NO_SCHED();
 651              		.loc 1 730 0
 652 00ee FFF7FEFF 		bl	CPU_IntDisMeasStop
 653 00f2 3B6A     		ldr	r3, [r7, #32]
 654 00f4 1800     		movs	r0, r3
 655 00f6 FFF7FEFF 		bl	CPU_SR_Restore
 731:..\..\..\..\..\..\Software\uCOS-III\Source/os_q.c **** 
 732:..\..\..\..\..\..\Software\uCOS-III\Source/os_q.c ****     if ((opt & OS_OPT_POST_NO_SCHED) == 0u) {
 656              		.loc 1 732 0
 657 00fa 0A23     		movs	r3, #10
 658 00fc FB18     		adds	r3, r7, r3
 659 00fe 0022     		movs	r2, #0
 660 0100 9B5E     		ldrsh	r3, [r3, r2]
 661 0102 002B     		cmp	r3, #0
 662 0104 01DB     		blt	.L46
 733:..\..\..\..\..\..\Software\uCOS-III\Source/os_q.c ****         OSSched();                                              /* Run the scheduler               
 663              		.loc 1 733 0
 664 0106 FFF7FEFF 		bl	OSSched
 665              	.L46:
 734:..\..\..\..\..\..\Software\uCOS-III\Source/os_q.c ****     }
 735:..\..\..\..\..\..\Software\uCOS-III\Source/os_q.c **** 
 736:..\..\..\..\..\..\Software\uCOS-III\Source/os_q.c ****    *p_err = OS_ERR_NONE;
 666              		.loc 1 736 0
 667 010a 7B68     		ldr	r3, [r7, #4]
 668 010c 0022     		movs	r2, #0
 669 010e 1A80     		strh	r2, [r3]
 737:..\..\..\..\..\..\Software\uCOS-III\Source/os_q.c ****     return (nbr_tasks);
 670              		.loc 1 737 0
 671 0110 2623     		movs	r3, #38
 672 0112 FB18     		adds	r3, r7, r3
 673 0114 1B88     		ldrh	r3, [r3]
 674              	.L36:
 738:..\..\..\..\..\..\Software\uCOS-III\Source/os_q.c **** }
 675              		.loc 1 738 0
 676 0116 1800     		movs	r0, r3
 677 0118 BD46     		mov	sp, r7
 678 011a 0AB0     		add	sp, sp, #40
 679              		@ sp needed
 680 011c 80BD     		pop	{r7, pc}
 681              	.L50:
 682 011e C046     		.align	2
 683              	.L49:
 684 0120 00000000 		.word	OSIntNestingCtr
ARM GAS  C:\Users\ADMINI~1\AppData\Local\Temp\ccKLo23z.s 			page 26


 685 0124 AA610000 		.word	25002
 686 0128 C35D0000 		.word	24003
 687 012c 255E0000 		.word	24101
 688 0130 AB610000 		.word	25003
 689              		.cfi_endproc
 690              	.LFE2:
 691              		.size	OSQPendAbort, .-OSQPendAbort
 692              		.section	.text.OSQPost,"ax",%progbits
 693              		.align	2
 694              		.global	OSQPost
 695              		.code	16
 696              		.thumb_func
 697              		.type	OSQPost, %function
 698              	OSQPost:
 699              	.LFB3:
 739:..\..\..\..\..\..\Software\uCOS-III\Source/os_q.c **** #endif
 740:..\..\..\..\..\..\Software\uCOS-III\Source/os_q.c **** 
 741:..\..\..\..\..\..\Software\uCOS-III\Source/os_q.c **** 
 742:..\..\..\..\..\..\Software\uCOS-III\Source/os_q.c **** /*
 743:..\..\..\..\..\..\Software\uCOS-III\Source/os_q.c **** ***************************************************************************************************
 744:..\..\..\..\..\..\Software\uCOS-III\Source/os_q.c **** *                                               POST MESSAGE TO A QUEUE
 745:..\..\..\..\..\..\Software\uCOS-III\Source/os_q.c **** *
 746:..\..\..\..\..\..\Software\uCOS-III\Source/os_q.c **** * Description: This function sends a message to a queue.  With the 'opt' argument, you can specify 
 747:..\..\..\..\..\..\Software\uCOS-III\Source/os_q.c **** *              is broadcast to all waiting tasks and/or whether you post the message to the front o
 748:..\..\..\..\..\..\Software\uCOS-III\Source/os_q.c **** *              or normally (FIFO) at the end of the queue.
 749:..\..\..\..\..\..\Software\uCOS-III\Source/os_q.c **** *
 750:..\..\..\..\..\..\Software\uCOS-III\Source/os_q.c **** * Arguments  : p_q           is a pointer to a message queue that must have been created by OSQCrea
 751:..\..\..\..\..\..\Software\uCOS-III\Source/os_q.c **** *
 752:..\..\..\..\..\..\Software\uCOS-III\Source/os_q.c **** *              p_void        is a pointer to the message to send.
 753:..\..\..\..\..\..\Software\uCOS-III\Source/os_q.c **** *
 754:..\..\..\..\..\..\Software\uCOS-III\Source/os_q.c **** *              msg_size      specifies the size of the message (in bytes)
 755:..\..\..\..\..\..\Software\uCOS-III\Source/os_q.c **** *
 756:..\..\..\..\..\..\Software\uCOS-III\Source/os_q.c **** *              opt           determines the type of POST performed:
 757:..\..\..\..\..\..\Software\uCOS-III\Source/os_q.c **** *
 758:..\..\..\..\..\..\Software\uCOS-III\Source/os_q.c **** *                                OS_OPT_POST_ALL          POST to ALL tasks that are waiting on the
 759:..\..\..\..\..\..\Software\uCOS-III\Source/os_q.c **** *                                                         can be added to either OS_OPT_POST_FIFO o
 760:..\..\..\..\..\..\Software\uCOS-III\Source/os_q.c **** *                                OS_OPT_POST_FIFO         POST message to end of queue (FIFO) and w
 761:..\..\..\..\..\..\Software\uCOS-III\Source/os_q.c **** *                                                         waiting task.
 762:..\..\..\..\..\..\Software\uCOS-III\Source/os_q.c **** *                                OS_OPT_POST_LIFO         POST message to the front of the queue (L
 763:..\..\..\..\..\..\Software\uCOS-III\Source/os_q.c **** *                                                         a single waiting task.
 764:..\..\..\..\..\..\Software\uCOS-III\Source/os_q.c **** *                                OS_OPT_POST_NO_SCHED     Do not call the scheduler
 765:..\..\..\..\..\..\Software\uCOS-III\Source/os_q.c **** *
 766:..\..\..\..\..\..\Software\uCOS-III\Source/os_q.c **** *                            Note(s): 1) OS_OPT_POST_NO_SCHED can be added (or OR'd) with one of th
 767:..\..\..\..\..\..\Software\uCOS-III\Source/os_q.c **** *                                     2) OS_OPT_POST_ALL      can be added (or OR'd) with one of th
 768:..\..\..\..\..\..\Software\uCOS-III\Source/os_q.c **** *                                     3) Possible combination of options are:
 769:..\..\..\..\..\..\Software\uCOS-III\Source/os_q.c **** *
 770:..\..\..\..\..\..\Software\uCOS-III\Source/os_q.c **** *                                        OS_OPT_POST_FIFO
 771:..\..\..\..\..\..\Software\uCOS-III\Source/os_q.c **** *                                        OS_OPT_POST_LIFO
 772:..\..\..\..\..\..\Software\uCOS-III\Source/os_q.c **** *                                        OS_OPT_POST_FIFO + OS_OPT_POST_ALL
 773:..\..\..\..\..\..\Software\uCOS-III\Source/os_q.c **** *                                        OS_OPT_POST_LIFO + OS_OPT_POST_ALL
 774:..\..\..\..\..\..\Software\uCOS-III\Source/os_q.c **** *                                        OS_OPT_POST_FIFO + OS_OPT_POST_NO_SCHED
 775:..\..\..\..\..\..\Software\uCOS-III\Source/os_q.c **** *                                        OS_OPT_POST_LIFO + OS_OPT_POST_NO_SCHED
 776:..\..\..\..\..\..\Software\uCOS-III\Source/os_q.c **** *                                        OS_OPT_POST_FIFO + OS_OPT_POST_ALL + OS_OPT_POST_NO_SCHED
 777:..\..\..\..\..\..\Software\uCOS-III\Source/os_q.c **** *                                        OS_OPT_POST_LIFO + OS_OPT_POST_ALL + OS_OPT_POST_NO_SCHED
 778:..\..\..\..\..\..\Software\uCOS-III\Source/os_q.c **** *
 779:..\..\..\..\..\..\Software\uCOS-III\Source/os_q.c **** *              p_err         is a pointer to a variable that will contain an error code returned by
 780:..\..\..\..\..\..\Software\uCOS-III\Source/os_q.c **** *
ARM GAS  C:\Users\ADMINI~1\AppData\Local\Temp\ccKLo23z.s 			page 27


 781:..\..\..\..\..\..\Software\uCOS-III\Source/os_q.c **** *                                OS_ERR_NONE              The call was successful and the message w
 782:..\..\..\..\..\..\Software\uCOS-III\Source/os_q.c **** *                                OS_ERR_INT_Q_FULL        If the deferred interrupt post queue is f
 783:..\..\..\..\..\..\Software\uCOS-III\Source/os_q.c **** *                                OS_ERR_MSG_POOL_EMPTY    If there are no more OS_MSGs to use to pl
 784:..\..\..\..\..\..\Software\uCOS-III\Source/os_q.c **** *                                OS_ERR_OBJ_PTR_NULL      If 'p_q' is a NULL pointer
 785:..\..\..\..\..\..\Software\uCOS-III\Source/os_q.c **** *                                OS_ERR_OBJ_TYPE          If the message queue was not initialized
 786:..\..\..\..\..\..\Software\uCOS-III\Source/os_q.c **** *                                OS_ERR_OPT_INVALID       You specified an invalid option
 787:..\..\..\..\..\..\Software\uCOS-III\Source/os_q.c **** *                                OS_ERR_OS_NOT_RUNNING    If uC/OS-III is not running yet
 788:..\..\..\..\..\..\Software\uCOS-III\Source/os_q.c **** *                                OS_ERR_Q_MAX             If the queue is full
 789:..\..\..\..\..\..\Software\uCOS-III\Source/os_q.c **** *
 790:..\..\..\..\..\..\Software\uCOS-III\Source/os_q.c **** * Returns    : None
 791:..\..\..\..\..\..\Software\uCOS-III\Source/os_q.c **** *
 792:..\..\..\..\..\..\Software\uCOS-III\Source/os_q.c **** * Note(s)    : none
 793:..\..\..\..\..\..\Software\uCOS-III\Source/os_q.c **** ***************************************************************************************************
 794:..\..\..\..\..\..\Software\uCOS-III\Source/os_q.c **** */
 795:..\..\..\..\..\..\Software\uCOS-III\Source/os_q.c **** 
 796:..\..\..\..\..\..\Software\uCOS-III\Source/os_q.c **** void  OSQPost (OS_Q         *p_q,
 797:..\..\..\..\..\..\Software\uCOS-III\Source/os_q.c ****                void         *p_void,
 798:..\..\..\..\..\..\Software\uCOS-III\Source/os_q.c ****                OS_MSG_SIZE   msg_size,
 799:..\..\..\..\..\..\Software\uCOS-III\Source/os_q.c ****                OS_OPT        opt,
 800:..\..\..\..\..\..\Software\uCOS-III\Source/os_q.c ****                OS_ERR       *p_err)
 801:..\..\..\..\..\..\Software\uCOS-III\Source/os_q.c **** {
 700              		.loc 1 801 0
 701              		.cfi_startproc
 702              		@ args = 4, pretend = 0, frame = 24
 703              		@ frame_needed = 1, uses_anonymous_args = 0
 704 0000 90B5     		push	{r4, r7, lr}
 705              		.cfi_def_cfa_offset 12
 706              		.cfi_offset 4, -12
 707              		.cfi_offset 7, -8
 708              		.cfi_offset 14, -4
 709 0002 89B0     		sub	sp, sp, #36
 710              		.cfi_def_cfa_offset 48
 711 0004 02AF     		add	r7, sp, #8
 712              		.cfi_def_cfa 7, 40
 713 0006 F860     		str	r0, [r7, #12]
 714 0008 B960     		str	r1, [r7, #8]
 715 000a 1900     		movs	r1, r3
 716 000c BB1D     		adds	r3, r7, #6
 717 000e 1A80     		strh	r2, [r3]
 718 0010 3B1D     		adds	r3, r7, #4
 719 0012 0A1C     		adds	r2, r1, #0
 720 0014 1A80     		strh	r2, [r3]
 802:..\..\..\..\..\..\Software\uCOS-III\Source/os_q.c ****     CPU_TS  ts;
 803:..\..\..\..\..\..\Software\uCOS-III\Source/os_q.c **** 
 804:..\..\..\..\..\..\Software\uCOS-III\Source/os_q.c **** 
 805:..\..\..\..\..\..\Software\uCOS-III\Source/os_q.c **** 
 806:..\..\..\..\..\..\Software\uCOS-III\Source/os_q.c **** #ifdef OS_SAFETY_CRITICAL
 807:..\..\..\..\..\..\Software\uCOS-III\Source/os_q.c ****     if (p_err == DEF_NULL) {
 808:..\..\..\..\..\..\Software\uCOS-III\Source/os_q.c ****         OS_SAFETY_CRITICAL_EXCEPTION();
 809:..\..\..\..\..\..\Software\uCOS-III\Source/os_q.c ****         return;
 810:..\..\..\..\..\..\Software\uCOS-III\Source/os_q.c ****     }
 811:..\..\..\..\..\..\Software\uCOS-III\Source/os_q.c **** #endif
 812:..\..\..\..\..\..\Software\uCOS-III\Source/os_q.c **** 
 813:..\..\..\..\..\..\Software\uCOS-III\Source/os_q.c **** #if (OS_CFG_INVALID_OS_CALLS_CHK_EN == DEF_ENABLED)             /* Is the kernel running?          
 814:..\..\..\..\..\..\Software\uCOS-III\Source/os_q.c ****     if (OSRunning != OS_STATE_OS_RUNNING) {
 815:..\..\..\..\..\..\Software\uCOS-III\Source/os_q.c ****        *p_err = OS_ERR_OS_NOT_RUNNING;
 816:..\..\..\..\..\..\Software\uCOS-III\Source/os_q.c ****         return;
ARM GAS  C:\Users\ADMINI~1\AppData\Local\Temp\ccKLo23z.s 			page 28


 817:..\..\..\..\..\..\Software\uCOS-III\Source/os_q.c ****     }
 818:..\..\..\..\..\..\Software\uCOS-III\Source/os_q.c **** #endif
 819:..\..\..\..\..\..\Software\uCOS-III\Source/os_q.c **** 
 820:..\..\..\..\..\..\Software\uCOS-III\Source/os_q.c **** #if (OS_CFG_ARG_CHK_EN == DEF_ENABLED)
 821:..\..\..\..\..\..\Software\uCOS-III\Source/os_q.c ****     if (p_q == DEF_NULL) {                                      /* Validate 'p_q'                  
 721              		.loc 1 821 0
 722 0016 FB68     		ldr	r3, [r7, #12]
 723 0018 002B     		cmp	r3, #0
 724 001a 03D1     		bne	.L52
 822:..\..\..\..\..\..\Software\uCOS-III\Source/os_q.c **** #if (defined(TRACE_CFG_EN) && (TRACE_CFG_EN == DEF_ENABLED))
 823:..\..\..\..\..\..\Software\uCOS-III\Source/os_q.c ****         TRACE_OS_Q_POST_FAILED(p_q);                            /* Record the event.               
 824:..\..\..\..\..\..\Software\uCOS-III\Source/os_q.c **** #endif
 825:..\..\..\..\..\..\Software\uCOS-III\Source/os_q.c ****        *p_err = OS_ERR_OBJ_PTR_NULL;
 725              		.loc 1 825 0
 726 001c BB6A     		ldr	r3, [r7, #40]
 727 001e 204A     		ldr	r2, .L60
 728 0020 1A80     		strh	r2, [r3]
 826:..\..\..\..\..\..\Software\uCOS-III\Source/os_q.c ****         return;
 729              		.loc 1 826 0
 730 0022 3AE0     		b	.L51
 731              	.L52:
 827:..\..\..\..\..\..\Software\uCOS-III\Source/os_q.c ****     }
 828:..\..\..\..\..\..\Software\uCOS-III\Source/os_q.c ****     switch (opt) {                                              /* Validate 'opt'                  
 732              		.loc 1 828 0
 733 0024 3B1D     		adds	r3, r7, #4
 734 0026 1B88     		ldrh	r3, [r3]
 735 0028 8422     		movs	r2, #132
 736 002a 9200     		lsls	r2, r2, #2
 737 002c 9342     		cmp	r3, r2
 738 002e 22D0     		beq	.L59
 739 0030 8422     		movs	r2, #132
 740 0032 9200     		lsls	r2, r2, #2
 741 0034 9342     		cmp	r3, r2
 742 0036 08DC     		bgt	.L56
 743 0038 102B     		cmp	r3, #16
 744 003a 1CD0     		beq	.L59
 745 003c 8022     		movs	r2, #128
 746 003e 9200     		lsls	r2, r2, #2
 747 0040 9342     		cmp	r3, r2
 748 0042 18D0     		beq	.L59
 749 0044 002B     		cmp	r3, #0
 750 0046 16D0     		beq	.L59
 751 0048 11E0     		b	.L54
 752              	.L56:
 753 004a 164A     		ldr	r2, .L60+4
 754 004c 9342     		cmp	r3, r2
 755 004e 12D0     		beq	.L59
 756 0050 144A     		ldr	r2, .L60+4
 757 0052 9342     		cmp	r3, r2
 758 0054 04DC     		bgt	.L57
 759 0056 8022     		movs	r2, #128
 760 0058 1202     		lsls	r2, r2, #8
 761 005a 9342     		cmp	r3, r2
 762 005c 0BD0     		beq	.L59
 763 005e 06E0     		b	.L54
 764              	.L57:
 765 0060 8222     		movs	r2, #130
ARM GAS  C:\Users\ADMINI~1\AppData\Local\Temp\ccKLo23z.s 			page 29


 766 0062 1202     		lsls	r2, r2, #8
 767 0064 9342     		cmp	r3, r2
 768 0066 06D0     		beq	.L59
 769 0068 0F4A     		ldr	r2, .L60+8
 770 006a 9342     		cmp	r3, r2
 771 006c 03D0     		beq	.L59
 772              	.L54:
 829:..\..\..\..\..\..\Software\uCOS-III\Source/os_q.c ****         case OS_OPT_POST_FIFO:
 830:..\..\..\..\..\..\Software\uCOS-III\Source/os_q.c ****         case OS_OPT_POST_LIFO:
 831:..\..\..\..\..\..\Software\uCOS-III\Source/os_q.c ****         case OS_OPT_POST_FIFO | OS_OPT_POST_ALL:
 832:..\..\..\..\..\..\Software\uCOS-III\Source/os_q.c ****         case OS_OPT_POST_LIFO | OS_OPT_POST_ALL:
 833:..\..\..\..\..\..\Software\uCOS-III\Source/os_q.c ****         case OS_OPT_POST_FIFO | OS_OPT_POST_NO_SCHED:
 834:..\..\..\..\..\..\Software\uCOS-III\Source/os_q.c ****         case OS_OPT_POST_LIFO | OS_OPT_POST_NO_SCHED:
 835:..\..\..\..\..\..\Software\uCOS-III\Source/os_q.c ****         case OS_OPT_POST_FIFO | OS_OPT_POST_ALL | OS_OPT_POST_NO_SCHED:
 836:..\..\..\..\..\..\Software\uCOS-III\Source/os_q.c ****         case OS_OPT_POST_LIFO | OS_OPT_POST_ALL | OS_OPT_POST_NO_SCHED:
 837:..\..\..\..\..\..\Software\uCOS-III\Source/os_q.c ****              break;
 838:..\..\..\..\..\..\Software\uCOS-III\Source/os_q.c **** 
 839:..\..\..\..\..\..\Software\uCOS-III\Source/os_q.c ****         default:
 840:..\..\..\..\..\..\Software\uCOS-III\Source/os_q.c **** #if (defined(TRACE_CFG_EN) && (TRACE_CFG_EN == DEF_ENABLED))
 841:..\..\..\..\..\..\Software\uCOS-III\Source/os_q.c ****              TRACE_OS_Q_POST_FAILED(p_q);                       /* Record the event.               
 842:..\..\..\..\..\..\Software\uCOS-III\Source/os_q.c **** #endif
 843:..\..\..\..\..\..\Software\uCOS-III\Source/os_q.c ****             *p_err =  OS_ERR_OPT_INVALID;
 773              		.loc 1 843 0
 774 006e BB6A     		ldr	r3, [r7, #40]
 775 0070 0E4A     		ldr	r2, .L60+12
 776 0072 1A80     		strh	r2, [r3]
 844:..\..\..\..\..\..\Software\uCOS-III\Source/os_q.c ****              return;
 777              		.loc 1 844 0
 778 0074 11E0     		b	.L51
 779              	.L59:
 837:..\..\..\..\..\..\Software\uCOS-III\Source/os_q.c **** 
 780              		.loc 1 837 0
 781 0076 C046     		nop
 845:..\..\..\..\..\..\Software\uCOS-III\Source/os_q.c ****     }
 846:..\..\..\..\..\..\Software\uCOS-III\Source/os_q.c **** #endif
 847:..\..\..\..\..\..\Software\uCOS-III\Source/os_q.c **** 
 848:..\..\..\..\..\..\Software\uCOS-III\Source/os_q.c **** #if (OS_CFG_OBJ_TYPE_CHK_EN == DEF_ENABLED)
 849:..\..\..\..\..\..\Software\uCOS-III\Source/os_q.c ****     if (p_q->Type != OS_OBJ_TYPE_Q) {                           /* Make sure message queue was crea
 850:..\..\..\..\..\..\Software\uCOS-III\Source/os_q.c **** #if (defined(TRACE_CFG_EN) && (TRACE_CFG_EN == DEF_ENABLED))
 851:..\..\..\..\..\..\Software\uCOS-III\Source/os_q.c ****         TRACE_OS_Q_POST_FAILED(p_q);                            /* Record the event.               
 852:..\..\..\..\..\..\Software\uCOS-III\Source/os_q.c **** #endif
 853:..\..\..\..\..\..\Software\uCOS-III\Source/os_q.c ****        *p_err = OS_ERR_OBJ_TYPE;
 854:..\..\..\..\..\..\Software\uCOS-III\Source/os_q.c ****         return;
 855:..\..\..\..\..\..\Software\uCOS-III\Source/os_q.c ****     }
 856:..\..\..\..\..\..\Software\uCOS-III\Source/os_q.c **** #endif
 857:..\..\..\..\..\..\Software\uCOS-III\Source/os_q.c **** #if (OS_CFG_TS_EN == DEF_ENABLED)
 858:..\..\..\..\..\..\Software\uCOS-III\Source/os_q.c ****     ts = OS_TS_GET();                                           /* Get timestamp                   
 782              		.loc 1 858 0
 783 0078 FFF7FEFF 		bl	CPU_TS_TmrRd
 784 007c 0300     		movs	r3, r0
 785 007e 7B61     		str	r3, [r7, #20]
 859:..\..\..\..\..\..\Software\uCOS-III\Source/os_q.c **** #else
 860:..\..\..\..\..\..\Software\uCOS-III\Source/os_q.c ****     ts = 0u;
 861:..\..\..\..\..\..\Software\uCOS-III\Source/os_q.c **** #endif
 862:..\..\..\..\..\..\Software\uCOS-III\Source/os_q.c **** 
 863:..\..\..\..\..\..\Software\uCOS-III\Source/os_q.c **** #if (OS_CFG_ISR_POST_DEFERRED_EN == DEF_ENABLED)
 864:..\..\..\..\..\..\Software\uCOS-III\Source/os_q.c ****     if (OSIntNestingCtr > 0u) {
ARM GAS  C:\Users\ADMINI~1\AppData\Local\Temp\ccKLo23z.s 			page 30


 865:..\..\..\..\..\..\Software\uCOS-III\Source/os_q.c ****         OS_IntQPost(OS_OBJ_TYPE_Q,                              /* Post to ISR queue               
 866:..\..\..\..\..\..\Software\uCOS-III\Source/os_q.c ****                     (void      *)p_q,
 867:..\..\..\..\..\..\Software\uCOS-III\Source/os_q.c ****                     (void      *)p_void,
 868:..\..\..\..\..\..\Software\uCOS-III\Source/os_q.c ****                     msg_size,
 869:..\..\..\..\..\..\Software\uCOS-III\Source/os_q.c ****                     0u,
 870:..\..\..\..\..\..\Software\uCOS-III\Source/os_q.c ****                     opt,
 871:..\..\..\..\..\..\Software\uCOS-III\Source/os_q.c ****                     ts,
 872:..\..\..\..\..\..\Software\uCOS-III\Source/os_q.c ****                     p_err);
 873:..\..\..\..\..\..\Software\uCOS-III\Source/os_q.c ****         return;
 874:..\..\..\..\..\..\Software\uCOS-III\Source/os_q.c ****     }
 875:..\..\..\..\..\..\Software\uCOS-III\Source/os_q.c **** #endif
 876:..\..\..\..\..\..\Software\uCOS-III\Source/os_q.c **** #if (defined(TRACE_CFG_EN) && (TRACE_CFG_EN == DEF_ENABLED))
 877:..\..\..\..\..\..\Software\uCOS-III\Source/os_q.c ****     TRACE_OS_Q_POST(p_q);                                       /* Record the event.               
 878:..\..\..\..\..\..\Software\uCOS-III\Source/os_q.c **** #endif
 879:..\..\..\..\..\..\Software\uCOS-III\Source/os_q.c ****     OS_QPost(p_q,
 786              		.loc 1 879 0
 787 0080 3B1D     		adds	r3, r7, #4
 788 0082 1C88     		ldrh	r4, [r3]
 789 0084 BB1D     		adds	r3, r7, #6
 790 0086 1A88     		ldrh	r2, [r3]
 791 0088 B968     		ldr	r1, [r7, #8]
 792 008a F868     		ldr	r0, [r7, #12]
 793 008c BB6A     		ldr	r3, [r7, #40]
 794 008e 0193     		str	r3, [sp, #4]
 795 0090 7B69     		ldr	r3, [r7, #20]
 796 0092 0093     		str	r3, [sp]
 797 0094 2300     		movs	r3, r4
 798 0096 FFF7FEFF 		bl	OS_QPost
 799              	.L51:
 880:..\..\..\..\..\..\Software\uCOS-III\Source/os_q.c ****              p_void,
 881:..\..\..\..\..\..\Software\uCOS-III\Source/os_q.c ****              msg_size,
 882:..\..\..\..\..\..\Software\uCOS-III\Source/os_q.c ****              opt,
 883:..\..\..\..\..\..\Software\uCOS-III\Source/os_q.c ****              ts,
 884:..\..\..\..\..\..\Software\uCOS-III\Source/os_q.c ****              p_err);
 885:..\..\..\..\..\..\Software\uCOS-III\Source/os_q.c **** }
 800              		.loc 1 885 0
 801 009a BD46     		mov	sp, r7
 802 009c 07B0     		add	sp, sp, #28
 803              		@ sp needed
 804 009e 90BD     		pop	{r4, r7, pc}
 805              	.L61:
 806              		.align	2
 807              	.L60:
 808 00a0 C35D0000 		.word	24003
 809 00a4 10800000 		.word	32784
 810 00a8 10820000 		.word	33296
 811 00ac 255E0000 		.word	24101
 812              		.cfi_endproc
 813              	.LFE3:
 814              		.size	OSQPost, .-OSQPost
 815              		.section	.rodata
 816              		.align	2
 817              	.LC6:
 818 0000 3F5100   		.ascii	"?Q\000"
 819              		.section	.text.OS_QClr,"ax",%progbits
 820              		.align	2
 821              		.global	OS_QClr
ARM GAS  C:\Users\ADMINI~1\AppData\Local\Temp\ccKLo23z.s 			page 31


 822              		.code	16
 823              		.thumb_func
 824              		.type	OS_QClr, %function
 825              	OS_QClr:
 826              	.LFB4:
 886:..\..\..\..\..\..\Software\uCOS-III\Source/os_q.c **** 
 887:..\..\..\..\..\..\Software\uCOS-III\Source/os_q.c **** 
 888:..\..\..\..\..\..\Software\uCOS-III\Source/os_q.c **** /*
 889:..\..\..\..\..\..\Software\uCOS-III\Source/os_q.c **** ***************************************************************************************************
 890:..\..\..\..\..\..\Software\uCOS-III\Source/os_q.c **** *                                        CLEAR THE CONTENTS OF A MESSAGE QUEUE
 891:..\..\..\..\..\..\Software\uCOS-III\Source/os_q.c **** *
 892:..\..\..\..\..\..\Software\uCOS-III\Source/os_q.c **** * Description: This function is called by OSQDel() to clear the contents of a message queue
 893:..\..\..\..\..\..\Software\uCOS-III\Source/os_q.c **** *
 894:..\..\..\..\..\..\Software\uCOS-III\Source/os_q.c **** 
 895:..\..\..\..\..\..\Software\uCOS-III\Source/os_q.c **** * Argument(s): p_q      is a pointer to the queue to clear
 896:..\..\..\..\..\..\Software\uCOS-III\Source/os_q.c **** *              ---
 897:..\..\..\..\..\..\Software\uCOS-III\Source/os_q.c **** *
 898:..\..\..\..\..\..\Software\uCOS-III\Source/os_q.c **** * Returns    : none
 899:..\..\..\..\..\..\Software\uCOS-III\Source/os_q.c **** *
 900:..\..\..\..\..\..\Software\uCOS-III\Source/os_q.c **** * Note(s)    : 1) This function is INTERNAL to uC/OS-III and your application MUST NOT call it.
 901:..\..\..\..\..\..\Software\uCOS-III\Source/os_q.c **** ***************************************************************************************************
 902:..\..\..\..\..\..\Software\uCOS-III\Source/os_q.c **** */
 903:..\..\..\..\..\..\Software\uCOS-III\Source/os_q.c **** 
 904:..\..\..\..\..\..\Software\uCOS-III\Source/os_q.c **** void  OS_QClr (OS_Q  *p_q)
 905:..\..\..\..\..\..\Software\uCOS-III\Source/os_q.c **** {
 827              		.loc 1 905 0
 828              		.cfi_startproc
 829              		@ args = 0, pretend = 0, frame = 8
 830              		@ frame_needed = 1, uses_anonymous_args = 0
 831 0000 80B5     		push	{r7, lr}
 832              		.cfi_def_cfa_offset 8
 833              		.cfi_offset 7, -8
 834              		.cfi_offset 14, -4
 835 0002 82B0     		sub	sp, sp, #8
 836              		.cfi_def_cfa_offset 16
 837 0004 00AF     		add	r7, sp, #0
 838              		.cfi_def_cfa_register 7
 839 0006 7860     		str	r0, [r7, #4]
 906:..\..\..\..\..\..\Software\uCOS-III\Source/os_q.c ****     (void)OS_MsgQFreeAll (&p_q->MsgQ);                          /* Return all OS_MSGs to the free l
 840              		.loc 1 906 0
 841 0008 7B68     		ldr	r3, [r7, #4]
 842 000a 2033     		adds	r3, r3, #32
 843 000c 1800     		movs	r0, r3
 844 000e FFF7FEFF 		bl	OS_MsgQFreeAll
 907:..\..\..\..\..\..\Software\uCOS-III\Source/os_q.c **** #if (OS_OBJ_TYPE_REQ == DEF_ENABLED)
 908:..\..\..\..\..\..\Software\uCOS-III\Source/os_q.c ****     p_q->Type    =  OS_OBJ_TYPE_NONE;                           /* Mark the data structure as a NON
 845              		.loc 1 908 0
 846 0012 7B68     		ldr	r3, [r7, #4]
 847 0014 094A     		ldr	r2, .L63
 848 0016 1A60     		str	r2, [r3]
 909:..\..\..\..\..\..\Software\uCOS-III\Source/os_q.c **** #endif
 910:..\..\..\..\..\..\Software\uCOS-III\Source/os_q.c **** #if (OS_CFG_DBG_EN == DEF_ENABLED)
 911:..\..\..\..\..\..\Software\uCOS-III\Source/os_q.c ****     p_q->NamePtr = (CPU_CHAR *)((void *)"?Q");
 849              		.loc 1 911 0
 850 0018 7B68     		ldr	r3, [r7, #4]
 851 001a 094A     		ldr	r2, .L63+4
 852 001c 5A60     		str	r2, [r3, #4]
ARM GAS  C:\Users\ADMINI~1\AppData\Local\Temp\ccKLo23z.s 			page 32


 912:..\..\..\..\..\..\Software\uCOS-III\Source/os_q.c **** #endif
 913:..\..\..\..\..\..\Software\uCOS-III\Source/os_q.c ****     OS_MsgQInit (&p_q->MsgQ,                                    /* Initialize the list of OS_MSGs  
 853              		.loc 1 913 0
 854 001e 7B68     		ldr	r3, [r7, #4]
 855 0020 2033     		adds	r3, r3, #32
 856 0022 0021     		movs	r1, #0
 857 0024 1800     		movs	r0, r3
 858 0026 FFF7FEFF 		bl	OS_MsgQInit
 914:..\..\..\..\..\..\Software\uCOS-III\Source/os_q.c ****                  0u);
 915:..\..\..\..\..\..\Software\uCOS-III\Source/os_q.c ****     OS_PendListInit (&p_q->PendList);                           /* Initialize the waiting list     
 859              		.loc 1 915 0
 860 002a 7B68     		ldr	r3, [r7, #4]
 861 002c 0833     		adds	r3, r3, #8
 862 002e 1800     		movs	r0, r3
 863 0030 FFF7FEFF 		bl	OS_PendListInit
 916:..\..\..\..\..\..\Software\uCOS-III\Source/os_q.c **** }
 864              		.loc 1 916 0
 865 0034 C046     		nop
 866 0036 BD46     		mov	sp, r7
 867 0038 02B0     		add	sp, sp, #8
 868              		@ sp needed
 869 003a 80BD     		pop	{r7, pc}
 870              	.L64:
 871              		.align	2
 872              	.L63:
 873 003c 4E4F4E45 		.word	1162760014
 874 0040 00000000 		.word	.LC6
 875              		.cfi_endproc
 876              	.LFE4:
 877              		.size	OS_QClr, .-OS_QClr
 878              		.section	.rodata
 879 0003 00       		.align	2
 880              	.LC8:
 881 0004 2000     		.ascii	" \000"
 882              		.section	.text.OS_QDbgListAdd,"ax",%progbits
 883              		.align	2
 884              		.global	OS_QDbgListAdd
 885              		.code	16
 886              		.thumb_func
 887              		.type	OS_QDbgListAdd, %function
 888              	OS_QDbgListAdd:
 889              	.LFB5:
 917:..\..\..\..\..\..\Software\uCOS-III\Source/os_q.c **** 
 918:..\..\..\..\..\..\Software\uCOS-III\Source/os_q.c **** 
 919:..\..\..\..\..\..\Software\uCOS-III\Source/os_q.c **** /*
 920:..\..\..\..\..\..\Software\uCOS-III\Source/os_q.c **** ***************************************************************************************************
 921:..\..\..\..\..\..\Software\uCOS-III\Source/os_q.c **** *                                      ADD/REMOVE MESSAGE QUEUE TO/FROM DEBUG LIST
 922:..\..\..\..\..\..\Software\uCOS-III\Source/os_q.c **** *
 923:..\..\..\..\..\..\Software\uCOS-III\Source/os_q.c **** * Description: These functions are called by uC/OS-III to add or remove a message queue to/from a m
 924:..\..\..\..\..\..\Software\uCOS-III\Source/os_q.c **** *              list.
 925:..\..\..\..\..\..\Software\uCOS-III\Source/os_q.c **** *
 926:..\..\..\..\..\..\Software\uCOS-III\Source/os_q.c **** * Arguments  : p_q     is a pointer to the message queue to add/remove
 927:..\..\..\..\..\..\Software\uCOS-III\Source/os_q.c **** *
 928:..\..\..\..\..\..\Software\uCOS-III\Source/os_q.c **** * Returns    : none
 929:..\..\..\..\..\..\Software\uCOS-III\Source/os_q.c **** *
 930:..\..\..\..\..\..\Software\uCOS-III\Source/os_q.c **** * Note(s)    : These functions are INTERNAL to uC/OS-III and your application should not call it.
 931:..\..\..\..\..\..\Software\uCOS-III\Source/os_q.c **** ***************************************************************************************************
ARM GAS  C:\Users\ADMINI~1\AppData\Local\Temp\ccKLo23z.s 			page 33


 932:..\..\..\..\..\..\Software\uCOS-III\Source/os_q.c **** */
 933:..\..\..\..\..\..\Software\uCOS-III\Source/os_q.c **** 
 934:..\..\..\..\..\..\Software\uCOS-III\Source/os_q.c **** 
 935:..\..\..\..\..\..\Software\uCOS-III\Source/os_q.c **** #if (OS_CFG_DBG_EN == DEF_ENABLED)
 936:..\..\..\..\..\..\Software\uCOS-III\Source/os_q.c **** void  OS_QDbgListAdd (OS_Q  *p_q)
 937:..\..\..\..\..\..\Software\uCOS-III\Source/os_q.c **** {
 890              		.loc 1 937 0
 891              		.cfi_startproc
 892              		@ args = 0, pretend = 0, frame = 8
 893              		@ frame_needed = 1, uses_anonymous_args = 0
 894 0000 80B5     		push	{r7, lr}
 895              		.cfi_def_cfa_offset 8
 896              		.cfi_offset 7, -8
 897              		.cfi_offset 14, -4
 898 0002 82B0     		sub	sp, sp, #8
 899              		.cfi_def_cfa_offset 16
 900 0004 00AF     		add	r7, sp, #0
 901              		.cfi_def_cfa_register 7
 902 0006 7860     		str	r0, [r7, #4]
 938:..\..\..\..\..\..\Software\uCOS-III\Source/os_q.c ****     p_q->DbgNamePtr               = (CPU_CHAR *)((void *)" ");
 903              		.loc 1 938 0
 904 0008 7B68     		ldr	r3, [r7, #4]
 905 000a 0E4A     		ldr	r2, .L68
 906 000c DA61     		str	r2, [r3, #28]
 939:..\..\..\..\..\..\Software\uCOS-III\Source/os_q.c ****     p_q->DbgPrevPtr               = DEF_NULL;
 907              		.loc 1 939 0
 908 000e 7B68     		ldr	r3, [r7, #4]
 909 0010 0022     		movs	r2, #0
 910 0012 5A61     		str	r2, [r3, #20]
 940:..\..\..\..\..\..\Software\uCOS-III\Source/os_q.c ****     if (OSQDbgListPtr == DEF_NULL) {
 911              		.loc 1 940 0
 912 0014 0C4B     		ldr	r3, .L68+4
 913 0016 1B68     		ldr	r3, [r3]
 914 0018 002B     		cmp	r3, #0
 915 001a 03D1     		bne	.L66
 941:..\..\..\..\..\..\Software\uCOS-III\Source/os_q.c ****         p_q->DbgNextPtr           = DEF_NULL;
 916              		.loc 1 941 0
 917 001c 7B68     		ldr	r3, [r7, #4]
 918 001e 0022     		movs	r2, #0
 919 0020 9A61     		str	r2, [r3, #24]
 920 0022 07E0     		b	.L67
 921              	.L66:
 942:..\..\..\..\..\..\Software\uCOS-III\Source/os_q.c ****     } else {
 943:..\..\..\..\..\..\Software\uCOS-III\Source/os_q.c ****         p_q->DbgNextPtr           =  OSQDbgListPtr;
 922              		.loc 1 943 0
 923 0024 084B     		ldr	r3, .L68+4
 924 0026 1A68     		ldr	r2, [r3]
 925 0028 7B68     		ldr	r3, [r7, #4]
 926 002a 9A61     		str	r2, [r3, #24]
 944:..\..\..\..\..\..\Software\uCOS-III\Source/os_q.c ****         OSQDbgListPtr->DbgPrevPtr =  p_q;
 927              		.loc 1 944 0
 928 002c 064B     		ldr	r3, .L68+4
 929 002e 1B68     		ldr	r3, [r3]
 930 0030 7A68     		ldr	r2, [r7, #4]
 931 0032 5A61     		str	r2, [r3, #20]
 932              	.L67:
 945:..\..\..\..\..\..\Software\uCOS-III\Source/os_q.c ****     }
ARM GAS  C:\Users\ADMINI~1\AppData\Local\Temp\ccKLo23z.s 			page 34


 946:..\..\..\..\..\..\Software\uCOS-III\Source/os_q.c ****     OSQDbgListPtr                 =  p_q;
 933              		.loc 1 946 0
 934 0034 044B     		ldr	r3, .L68+4
 935 0036 7A68     		ldr	r2, [r7, #4]
 936 0038 1A60     		str	r2, [r3]
 947:..\..\..\..\..\..\Software\uCOS-III\Source/os_q.c **** }
 937              		.loc 1 947 0
 938 003a C046     		nop
 939 003c BD46     		mov	sp, r7
 940 003e 02B0     		add	sp, sp, #8
 941              		@ sp needed
 942 0040 80BD     		pop	{r7, pc}
 943              	.L69:
 944 0042 C046     		.align	2
 945              	.L68:
 946 0044 04000000 		.word	.LC8
 947 0048 00000000 		.word	OSQDbgListPtr
 948              		.cfi_endproc
 949              	.LFE5:
 950              		.size	OS_QDbgListAdd, .-OS_QDbgListAdd
 951              		.section	.text.OS_QDbgListRemove,"ax",%progbits
 952              		.align	2
 953              		.global	OS_QDbgListRemove
 954              		.code	16
 955              		.thumb_func
 956              		.type	OS_QDbgListRemove, %function
 957              	OS_QDbgListRemove:
 958              	.LFB6:
 948:..\..\..\..\..\..\Software\uCOS-III\Source/os_q.c **** 
 949:..\..\..\..\..\..\Software\uCOS-III\Source/os_q.c **** 
 950:..\..\..\..\..\..\Software\uCOS-III\Source/os_q.c **** 
 951:..\..\..\..\..\..\Software\uCOS-III\Source/os_q.c **** void  OS_QDbgListRemove (OS_Q  *p_q)
 952:..\..\..\..\..\..\Software\uCOS-III\Source/os_q.c **** {
 959              		.loc 1 952 0
 960              		.cfi_startproc
 961              		@ args = 0, pretend = 0, frame = 16
 962              		@ frame_needed = 1, uses_anonymous_args = 0
 963 0000 80B5     		push	{r7, lr}
 964              		.cfi_def_cfa_offset 8
 965              		.cfi_offset 7, -8
 966              		.cfi_offset 14, -4
 967 0002 84B0     		sub	sp, sp, #16
 968              		.cfi_def_cfa_offset 24
 969 0004 00AF     		add	r7, sp, #0
 970              		.cfi_def_cfa_register 7
 971 0006 7860     		str	r0, [r7, #4]
 953:..\..\..\..\..\..\Software\uCOS-III\Source/os_q.c ****     OS_Q  *p_q_next;
 954:..\..\..\..\..\..\Software\uCOS-III\Source/os_q.c ****     OS_Q  *p_q_prev;
 955:..\..\..\..\..\..\Software\uCOS-III\Source/os_q.c **** 
 956:..\..\..\..\..\..\Software\uCOS-III\Source/os_q.c **** 
 957:..\..\..\..\..\..\Software\uCOS-III\Source/os_q.c ****     p_q_prev = p_q->DbgPrevPtr;
 972              		.loc 1 957 0
 973 0008 7B68     		ldr	r3, [r7, #4]
 974 000a 5B69     		ldr	r3, [r3, #20]
 975 000c FB60     		str	r3, [r7, #12]
 958:..\..\..\..\..\..\Software\uCOS-III\Source/os_q.c ****     p_q_next = p_q->DbgNextPtr;
 976              		.loc 1 958 0
ARM GAS  C:\Users\ADMINI~1\AppData\Local\Temp\ccKLo23z.s 			page 35


 977 000e 7B68     		ldr	r3, [r7, #4]
 978 0010 9B69     		ldr	r3, [r3, #24]
 979 0012 BB60     		str	r3, [r7, #8]
 959:..\..\..\..\..\..\Software\uCOS-III\Source/os_q.c **** 
 960:..\..\..\..\..\..\Software\uCOS-III\Source/os_q.c ****     if (p_q_prev == DEF_NULL) {
 980              		.loc 1 960 0
 981 0014 FB68     		ldr	r3, [r7, #12]
 982 0016 002B     		cmp	r3, #0
 983 0018 0CD1     		bne	.L71
 961:..\..\..\..\..\..\Software\uCOS-III\Source/os_q.c ****         OSQDbgListPtr = p_q_next;
 984              		.loc 1 961 0
 985 001a 134B     		ldr	r3, .L76
 986 001c BA68     		ldr	r2, [r7, #8]
 987 001e 1A60     		str	r2, [r3]
 962:..\..\..\..\..\..\Software\uCOS-III\Source/os_q.c ****         if (p_q_next != DEF_NULL) {
 988              		.loc 1 962 0
 989 0020 BB68     		ldr	r3, [r7, #8]
 990 0022 002B     		cmp	r3, #0
 991 0024 02D0     		beq	.L72
 963:..\..\..\..\..\..\Software\uCOS-III\Source/os_q.c ****             p_q_next->DbgPrevPtr = DEF_NULL;
 992              		.loc 1 963 0
 993 0026 BB68     		ldr	r3, [r7, #8]
 994 0028 0022     		movs	r2, #0
 995 002a 5A61     		str	r2, [r3, #20]
 996              	.L72:
 964:..\..\..\..\..\..\Software\uCOS-III\Source/os_q.c ****         }
 965:..\..\..\..\..\..\Software\uCOS-III\Source/os_q.c ****         p_q->DbgNextPtr = DEF_NULL;
 997              		.loc 1 965 0
 998 002c 7B68     		ldr	r3, [r7, #4]
 999 002e 0022     		movs	r2, #0
 1000 0030 9A61     		str	r2, [r3, #24]
 966:..\..\..\..\..\..\Software\uCOS-III\Source/os_q.c **** 
 967:..\..\..\..\..\..\Software\uCOS-III\Source/os_q.c ****     } else if (p_q_next == DEF_NULL) {
 968:..\..\..\..\..\..\Software\uCOS-III\Source/os_q.c ****         p_q_prev->DbgNextPtr = DEF_NULL;
 969:..\..\..\..\..\..\Software\uCOS-III\Source/os_q.c ****         p_q->DbgPrevPtr      = DEF_NULL;
 970:..\..\..\..\..\..\Software\uCOS-III\Source/os_q.c **** 
 971:..\..\..\..\..\..\Software\uCOS-III\Source/os_q.c ****     } else {
 972:..\..\..\..\..\..\Software\uCOS-III\Source/os_q.c ****         p_q_prev->DbgNextPtr =  p_q_next;
 973:..\..\..\..\..\..\Software\uCOS-III\Source/os_q.c ****         p_q_next->DbgPrevPtr =  p_q_prev;
 974:..\..\..\..\..\..\Software\uCOS-III\Source/os_q.c ****         p_q->DbgNextPtr      = DEF_NULL;
 975:..\..\..\..\..\..\Software\uCOS-III\Source/os_q.c ****         p_q->DbgPrevPtr      = DEF_NULL;
 976:..\..\..\..\..\..\Software\uCOS-III\Source/os_q.c ****     }
 977:..\..\..\..\..\..\Software\uCOS-III\Source/os_q.c **** }
 1001              		.loc 1 977 0
 1002 0032 15E0     		b	.L75
 1003              	.L71:
 967:..\..\..\..\..\..\Software\uCOS-III\Source/os_q.c ****         p_q_prev->DbgNextPtr = DEF_NULL;
 1004              		.loc 1 967 0
 1005 0034 BB68     		ldr	r3, [r7, #8]
 1006 0036 002B     		cmp	r3, #0
 1007 0038 06D1     		bne	.L74
 968:..\..\..\..\..\..\Software\uCOS-III\Source/os_q.c ****         p_q->DbgPrevPtr      = DEF_NULL;
 1008              		.loc 1 968 0
 1009 003a FB68     		ldr	r3, [r7, #12]
 1010 003c 0022     		movs	r2, #0
 1011 003e 9A61     		str	r2, [r3, #24]
 969:..\..\..\..\..\..\Software\uCOS-III\Source/os_q.c **** 
ARM GAS  C:\Users\ADMINI~1\AppData\Local\Temp\ccKLo23z.s 			page 36


 1012              		.loc 1 969 0
 1013 0040 7B68     		ldr	r3, [r7, #4]
 1014 0042 0022     		movs	r2, #0
 1015 0044 5A61     		str	r2, [r3, #20]
 1016              		.loc 1 977 0
 1017 0046 0BE0     		b	.L75
 1018              	.L74:
 972:..\..\..\..\..\..\Software\uCOS-III\Source/os_q.c ****         p_q_next->DbgPrevPtr =  p_q_prev;
 1019              		.loc 1 972 0
 1020 0048 FB68     		ldr	r3, [r7, #12]
 1021 004a BA68     		ldr	r2, [r7, #8]
 1022 004c 9A61     		str	r2, [r3, #24]
 973:..\..\..\..\..\..\Software\uCOS-III\Source/os_q.c ****         p_q->DbgNextPtr      = DEF_NULL;
 1023              		.loc 1 973 0
 1024 004e BB68     		ldr	r3, [r7, #8]
 1025 0050 FA68     		ldr	r2, [r7, #12]
 1026 0052 5A61     		str	r2, [r3, #20]
 974:..\..\..\..\..\..\Software\uCOS-III\Source/os_q.c ****         p_q->DbgPrevPtr      = DEF_NULL;
 1027              		.loc 1 974 0
 1028 0054 7B68     		ldr	r3, [r7, #4]
 1029 0056 0022     		movs	r2, #0
 1030 0058 9A61     		str	r2, [r3, #24]
 975:..\..\..\..\..\..\Software\uCOS-III\Source/os_q.c ****     }
 1031              		.loc 1 975 0
 1032 005a 7B68     		ldr	r3, [r7, #4]
 1033 005c 0022     		movs	r2, #0
 1034 005e 5A61     		str	r2, [r3, #20]
 1035              	.L75:
 1036              		.loc 1 977 0
 1037 0060 C046     		nop
 1038 0062 BD46     		mov	sp, r7
 1039 0064 04B0     		add	sp, sp, #16
 1040              		@ sp needed
 1041 0066 80BD     		pop	{r7, pc}
 1042              	.L77:
 1043              		.align	2
 1044              	.L76:
 1045 0068 00000000 		.word	OSQDbgListPtr
 1046              		.cfi_endproc
 1047              	.LFE6:
 1048              		.size	OS_QDbgListRemove, .-OS_QDbgListRemove
 1049              		.section	.text.OS_QPost,"ax",%progbits
 1050              		.align	2
 1051              		.global	OS_QPost
 1052              		.code	16
 1053              		.thumb_func
 1054              		.type	OS_QPost, %function
 1055              	OS_QPost:
 1056              	.LFB7:
 978:..\..\..\..\..\..\Software\uCOS-III\Source/os_q.c **** #endif
 979:..\..\..\..\..\..\Software\uCOS-III\Source/os_q.c **** 
 980:..\..\..\..\..\..\Software\uCOS-III\Source/os_q.c **** 
 981:..\..\..\..\..\..\Software\uCOS-III\Source/os_q.c **** /*
 982:..\..\..\..\..\..\Software\uCOS-III\Source/os_q.c **** ***************************************************************************************************
 983:..\..\..\..\..\..\Software\uCOS-III\Source/os_q.c **** *                                               POST MESSAGE TO A QUEUE
 984:..\..\..\..\..\..\Software\uCOS-III\Source/os_q.c **** *
 985:..\..\..\..\..\..\Software\uCOS-III\Source/os_q.c **** * Description: This function sends a message to a queue.  With the 'opt' argument, you can specify 
ARM GAS  C:\Users\ADMINI~1\AppData\Local\Temp\ccKLo23z.s 			page 37


 986:..\..\..\..\..\..\Software\uCOS-III\Source/os_q.c **** *              is broadcast to all waiting tasks and/or whether you post the message to the front o
 987:..\..\..\..\..\..\Software\uCOS-III\Source/os_q.c **** *              or normally (FIFO) at the end of the queue.
 988:..\..\..\..\..\..\Software\uCOS-III\Source/os_q.c **** *
 989:..\..\..\..\..\..\Software\uCOS-III\Source/os_q.c **** * Arguments  : p_q           is a pointer to a message queue that must have been created by OSQCrea
 990:..\..\..\..\..\..\Software\uCOS-III\Source/os_q.c **** *
 991:..\..\..\..\..\..\Software\uCOS-III\Source/os_q.c **** *              p_void        is a pointer to the message to send.
 992:..\..\..\..\..\..\Software\uCOS-III\Source/os_q.c **** *
 993:..\..\..\..\..\..\Software\uCOS-III\Source/os_q.c **** *              msg_size      specifies the size of the message (in bytes)
 994:..\..\..\..\..\..\Software\uCOS-III\Source/os_q.c **** *
 995:..\..\..\..\..\..\Software\uCOS-III\Source/os_q.c **** *              opt           determines the type of POST performed:
 996:..\..\..\..\..\..\Software\uCOS-III\Source/os_q.c **** *
 997:..\..\..\..\..\..\Software\uCOS-III\Source/os_q.c **** *                                OS_OPT_POST_ALL          POST to ALL tasks that are waiting on the
 998:..\..\..\..\..\..\Software\uCOS-III\Source/os_q.c **** *
 999:..\..\..\..\..\..\Software\uCOS-III\Source/os_q.c **** *                                OS_OPT_POST_FIFO         POST as FIFO and wake up single waiting t
1000:..\..\..\..\..\..\Software\uCOS-III\Source/os_q.c **** *                                OS_OPT_POST_LIFO         POST as LIFO and wake up single waiting t
1001:..\..\..\..\..\..\Software\uCOS-III\Source/os_q.c **** *
1002:..\..\..\..\..\..\Software\uCOS-III\Source/os_q.c **** *                                OS_OPT_POST_NO_SCHED     Do not call the scheduler
1003:..\..\..\..\..\..\Software\uCOS-III\Source/os_q.c **** *
1004:..\..\..\..\..\..\Software\uCOS-III\Source/os_q.c **** *              ts            is the timestamp of the post
1005:..\..\..\..\..\..\Software\uCOS-III\Source/os_q.c **** *
1006:..\..\..\..\..\..\Software\uCOS-III\Source/os_q.c **** *              p_err         is a pointer to a variable that will contain an error code returned by
1007:..\..\..\..\..\..\Software\uCOS-III\Source/os_q.c **** *
1008:..\..\..\..\..\..\Software\uCOS-III\Source/os_q.c **** *                                OS_ERR_NONE            The call was successful and the message was
1009:..\..\..\..\..\..\Software\uCOS-III\Source/os_q.c **** *                                OS_ERR_MSG_POOL_EMPTY  If there are no more OS_MSGs to use to plac
1010:..\..\..\..\..\..\Software\uCOS-III\Source/os_q.c **** *                                OS_ERR_Q_MAX           If the queue is full
1011:..\..\..\..\..\..\Software\uCOS-III\Source/os_q.c **** *
1012:..\..\..\..\..\..\Software\uCOS-III\Source/os_q.c **** * Returns    : None
1013:..\..\..\..\..\..\Software\uCOS-III\Source/os_q.c **** *
1014:..\..\..\..\..\..\Software\uCOS-III\Source/os_q.c **** * Note(s)    : This function is INTERNAL to uC/OS-III and your application should not call it.
1015:..\..\..\..\..\..\Software\uCOS-III\Source/os_q.c **** ***************************************************************************************************
1016:..\..\..\..\..\..\Software\uCOS-III\Source/os_q.c **** */
1017:..\..\..\..\..\..\Software\uCOS-III\Source/os_q.c **** 
1018:..\..\..\..\..\..\Software\uCOS-III\Source/os_q.c **** void  OS_QPost (OS_Q         *p_q,
1019:..\..\..\..\..\..\Software\uCOS-III\Source/os_q.c ****                 void         *p_void,
1020:..\..\..\..\..\..\Software\uCOS-III\Source/os_q.c ****                 OS_MSG_SIZE   msg_size,
1021:..\..\..\..\..\..\Software\uCOS-III\Source/os_q.c ****                 OS_OPT        opt,
1022:..\..\..\..\..\..\Software\uCOS-III\Source/os_q.c ****                 CPU_TS        ts,
1023:..\..\..\..\..\..\Software\uCOS-III\Source/os_q.c ****                 OS_ERR       *p_err)
1024:..\..\..\..\..\..\Software\uCOS-III\Source/os_q.c **** {
 1057              		.loc 1 1024 0
 1058              		.cfi_startproc
 1059              		@ args = 8, pretend = 0, frame = 40
 1060              		@ frame_needed = 1, uses_anonymous_args = 0
 1061 0000 90B5     		push	{r4, r7, lr}
 1062              		.cfi_def_cfa_offset 12
 1063              		.cfi_offset 4, -12
 1064              		.cfi_offset 7, -8
 1065              		.cfi_offset 14, -4
 1066 0002 8DB0     		sub	sp, sp, #52
 1067              		.cfi_def_cfa_offset 64
 1068 0004 02AF     		add	r7, sp, #8
 1069              		.cfi_def_cfa 7, 56
 1070 0006 F860     		str	r0, [r7, #12]
 1071 0008 B960     		str	r1, [r7, #8]
 1072 000a 1900     		movs	r1, r3
 1073 000c BB1D     		adds	r3, r7, #6
 1074 000e 1A80     		strh	r2, [r3]
ARM GAS  C:\Users\ADMINI~1\AppData\Local\Temp\ccKLo23z.s 			page 38


 1075 0010 3B1D     		adds	r3, r7, #4
 1076 0012 0A1C     		adds	r2, r1, #0
 1077 0014 1A80     		strh	r2, [r3]
1025:..\..\..\..\..\..\Software\uCOS-III\Source/os_q.c ****     OS_OPT         post_type;
1026:..\..\..\..\..\..\Software\uCOS-III\Source/os_q.c ****     OS_PEND_LIST  *p_pend_list;
1027:..\..\..\..\..\..\Software\uCOS-III\Source/os_q.c ****     OS_PEND_DATA  *p_pend_data;
1028:..\..\..\..\..\..\Software\uCOS-III\Source/os_q.c ****     OS_PEND_DATA  *p_pend_data_next;
1029:..\..\..\..\..\..\Software\uCOS-III\Source/os_q.c ****     OS_TCB        *p_tcb;
1030:..\..\..\..\..\..\Software\uCOS-III\Source/os_q.c ****     CPU_SR_ALLOC();
 1078              		.loc 1 1030 0
 1079 0016 0023     		movs	r3, #0
 1080 0018 FB61     		str	r3, [r7, #28]
1031:..\..\..\..\..\..\Software\uCOS-III\Source/os_q.c **** 
1032:..\..\..\..\..\..\Software\uCOS-III\Source/os_q.c **** 
1033:..\..\..\..\..\..\Software\uCOS-III\Source/os_q.c **** 
1034:..\..\..\..\..\..\Software\uCOS-III\Source/os_q.c ****     OS_CRITICAL_ENTER();
 1081              		.loc 1 1034 0
 1082 001a FFF7FEFF 		bl	CPU_SR_Save
 1083 001e 0300     		movs	r3, r0
 1084 0020 FB61     		str	r3, [r7, #28]
 1085 0022 FFF7FEFF 		bl	CPU_IntDisMeasStart
1035:..\..\..\..\..\..\Software\uCOS-III\Source/os_q.c ****     p_pend_list = &p_q->PendList;
 1086              		.loc 1 1035 0
 1087 0026 FB68     		ldr	r3, [r7, #12]
 1088 0028 0833     		adds	r3, r3, #8
 1089 002a BB61     		str	r3, [r7, #24]
1036:..\..\..\..\..\..\Software\uCOS-III\Source/os_q.c ****     if (p_pend_list->HeadPtr == DEF_NULL) {                     /* Any task waiting on message queu
 1090              		.loc 1 1036 0
 1091 002c BB69     		ldr	r3, [r7, #24]
 1092 002e 1B68     		ldr	r3, [r3]
 1093 0030 002B     		cmp	r3, #0
 1094 0032 24D1     		bne	.L79
1037:..\..\..\..\..\..\Software\uCOS-III\Source/os_q.c ****         if ((opt & OS_OPT_POST_LIFO) == 0u) {                   /* Determine whether we post FIFO o
 1095              		.loc 1 1037 0
 1096 0034 3B1D     		adds	r3, r7, #4
 1097 0036 1B88     		ldrh	r3, [r3]
 1098 0038 1022     		movs	r2, #16
 1099 003a 1340     		ands	r3, r2
 1100 003c 04D1     		bne	.L80
1038:..\..\..\..\..\..\Software\uCOS-III\Source/os_q.c ****             post_type = OS_OPT_POST_FIFO;
 1101              		.loc 1 1038 0
 1102 003e 2623     		movs	r3, #38
 1103 0040 FB18     		adds	r3, r7, r3
 1104 0042 0022     		movs	r2, #0
 1105 0044 1A80     		strh	r2, [r3]
 1106 0046 03E0     		b	.L81
 1107              	.L80:
1039:..\..\..\..\..\..\Software\uCOS-III\Source/os_q.c ****         } else {
1040:..\..\..\..\..\..\Software\uCOS-III\Source/os_q.c ****             post_type = OS_OPT_POST_LIFO;
 1108              		.loc 1 1040 0
 1109 0048 2623     		movs	r3, #38
 1110 004a FB18     		adds	r3, r7, r3
 1111 004c 1022     		movs	r2, #16
 1112 004e 1A80     		strh	r2, [r3]
 1113              	.L81:
1041:..\..\..\..\..\..\Software\uCOS-III\Source/os_q.c ****         }
1042:..\..\..\..\..\..\Software\uCOS-III\Source/os_q.c ****         OS_MsgQPut(&p_q->MsgQ,                                  /* Place message in the message que
ARM GAS  C:\Users\ADMINI~1\AppData\Local\Temp\ccKLo23z.s 			page 39


 1114              		.loc 1 1042 0
 1115 0050 FB68     		ldr	r3, [r7, #12]
 1116 0052 2033     		adds	r3, r3, #32
 1117 0054 1800     		movs	r0, r3
 1118 0056 2623     		movs	r3, #38
 1119 0058 FB18     		adds	r3, r7, r3
 1120 005a 1C88     		ldrh	r4, [r3]
 1121 005c BB1D     		adds	r3, r7, #6
 1122 005e 1A88     		ldrh	r2, [r3]
 1123 0060 B968     		ldr	r1, [r7, #8]
 1124 0062 FB6B     		ldr	r3, [r7, #60]
 1125 0064 0193     		str	r3, [sp, #4]
 1126 0066 BB6B     		ldr	r3, [r7, #56]
 1127 0068 0093     		str	r3, [sp]
 1128 006a 2300     		movs	r3, r4
 1129 006c FFF7FEFF 		bl	OS_MsgQPut
1043:..\..\..\..\..\..\Software\uCOS-III\Source/os_q.c ****                    p_void,
1044:..\..\..\..\..\..\Software\uCOS-III\Source/os_q.c ****                    msg_size,
1045:..\..\..\..\..\..\Software\uCOS-III\Source/os_q.c ****                    post_type,
1046:..\..\..\..\..\..\Software\uCOS-III\Source/os_q.c ****                    ts,
1047:..\..\..\..\..\..\Software\uCOS-III\Source/os_q.c ****                    p_err);
1048:..\..\..\..\..\..\Software\uCOS-III\Source/os_q.c ****         OS_CRITICAL_EXIT();
 1130              		.loc 1 1048 0
 1131 0070 FFF7FEFF 		bl	CPU_IntDisMeasStop
 1132 0074 FB69     		ldr	r3, [r7, #28]
 1133 0076 1800     		movs	r0, r3
 1134 0078 FFF7FEFF 		bl	CPU_SR_Restore
1049:..\..\..\..\..\..\Software\uCOS-III\Source/os_q.c ****         return;
 1135              		.loc 1 1049 0
 1136 007c 30E0     		b	.L78
 1137              	.L79:
1050:..\..\..\..\..\..\Software\uCOS-III\Source/os_q.c ****     }
1051:..\..\..\..\..\..\Software\uCOS-III\Source/os_q.c **** 
1052:..\..\..\..\..\..\Software\uCOS-III\Source/os_q.c ****     p_pend_data = p_pend_list->HeadPtr;
 1138              		.loc 1 1052 0
 1139 007e BB69     		ldr	r3, [r7, #24]
 1140 0080 1B68     		ldr	r3, [r3]
 1141 0082 3B62     		str	r3, [r7, #32]
1053:..\..\..\..\..\..\Software\uCOS-III\Source/os_q.c ****     while (p_pend_data != DEF_NULL) {
 1142              		.loc 1 1053 0
 1143 0084 17E0     		b	.L83
 1144              	.L86:
1054:..\..\..\..\..\..\Software\uCOS-III\Source/os_q.c ****         p_tcb            = p_pend_data->TCBPtr;
 1145              		.loc 1 1054 0
 1146 0086 3B6A     		ldr	r3, [r7, #32]
 1147 0088 9B68     		ldr	r3, [r3, #8]
 1148 008a 7B61     		str	r3, [r7, #20]
1055:..\..\..\..\..\..\Software\uCOS-III\Source/os_q.c ****         p_pend_data_next = p_pend_data->NextPtr;
 1149              		.loc 1 1055 0
 1150 008c 3B6A     		ldr	r3, [r7, #32]
 1151 008e 5B68     		ldr	r3, [r3, #4]
 1152 0090 3B61     		str	r3, [r7, #16]
1056:..\..\..\..\..\..\Software\uCOS-III\Source/os_q.c ****         OS_Post((OS_PEND_OBJ *)((void *)p_q),
 1153              		.loc 1 1056 0
 1154 0092 BB1D     		adds	r3, r7, #6
 1155 0094 1C88     		ldrh	r4, [r3]
 1156 0096 BA68     		ldr	r2, [r7, #8]
ARM GAS  C:\Users\ADMINI~1\AppData\Local\Temp\ccKLo23z.s 			page 40


 1157 0098 7969     		ldr	r1, [r7, #20]
 1158 009a F868     		ldr	r0, [r7, #12]
 1159 009c BB6B     		ldr	r3, [r7, #56]
 1160 009e 0093     		str	r3, [sp]
 1161 00a0 2300     		movs	r3, r4
 1162 00a2 FFF7FEFF 		bl	OS_Post
1057:..\..\..\..\..\..\Software\uCOS-III\Source/os_q.c ****                 p_tcb,
1058:..\..\..\..\..\..\Software\uCOS-III\Source/os_q.c ****                 p_void,
1059:..\..\..\..\..\..\Software\uCOS-III\Source/os_q.c ****                 msg_size,
1060:..\..\..\..\..\..\Software\uCOS-III\Source/os_q.c ****                 ts);
1061:..\..\..\..\..\..\Software\uCOS-III\Source/os_q.c ****         if ((opt & OS_OPT_POST_ALL) == 0)  {                    /* Post message to all tasks waitin
 1163              		.loc 1 1061 0
 1164 00a6 3B1D     		adds	r3, r7, #4
 1165 00a8 1A88     		ldrh	r2, [r3]
 1166 00aa 8023     		movs	r3, #128
 1167 00ac 9B00     		lsls	r3, r3, #2
 1168 00ae 1340     		ands	r3, r2
 1169 00b0 05D0     		beq	.L88
1062:..\..\..\..\..\..\Software\uCOS-III\Source/os_q.c ****             break;                                              /* No                              
1063:..\..\..\..\..\..\Software\uCOS-III\Source/os_q.c ****         }
1064:..\..\..\..\..\..\Software\uCOS-III\Source/os_q.c ****         p_pend_data = p_pend_data_next;
 1170              		.loc 1 1064 0
 1171 00b2 3B69     		ldr	r3, [r7, #16]
 1172 00b4 3B62     		str	r3, [r7, #32]
 1173              	.L83:
1053:..\..\..\..\..\..\Software\uCOS-III\Source/os_q.c ****         p_tcb            = p_pend_data->TCBPtr;
 1174              		.loc 1 1053 0
 1175 00b6 3B6A     		ldr	r3, [r7, #32]
 1176 00b8 002B     		cmp	r3, #0
 1177 00ba E4D1     		bne	.L86
 1178 00bc 00E0     		b	.L85
 1179              	.L88:
1062:..\..\..\..\..\..\Software\uCOS-III\Source/os_q.c ****             break;                                              /* No                              
 1180              		.loc 1 1062 0
 1181 00be C046     		nop
 1182              	.L85:
1065:..\..\..\..\..\..\Software\uCOS-III\Source/os_q.c ****     }
1066:..\..\..\..\..\..\Software\uCOS-III\Source/os_q.c ****     OS_CRITICAL_EXIT_NO_SCHED();
 1183              		.loc 1 1066 0
 1184 00c0 FFF7FEFF 		bl	CPU_IntDisMeasStop
 1185 00c4 FB69     		ldr	r3, [r7, #28]
 1186 00c6 1800     		movs	r0, r3
 1187 00c8 FFF7FEFF 		bl	CPU_SR_Restore
1067:..\..\..\..\..\..\Software\uCOS-III\Source/os_q.c ****     if ((opt & OS_OPT_POST_NO_SCHED) == 0u) {
 1188              		.loc 1 1067 0
 1189 00cc 3B1D     		adds	r3, r7, #4
 1190 00ce 0022     		movs	r2, #0
 1191 00d0 9B5E     		ldrsh	r3, [r3, r2]
 1192 00d2 002B     		cmp	r3, #0
 1193 00d4 01DB     		blt	.L87
1068:..\..\..\..\..\..\Software\uCOS-III\Source/os_q.c ****         OSSched();                                              /* Run the scheduler               
 1194              		.loc 1 1068 0
 1195 00d6 FFF7FEFF 		bl	OSSched
 1196              	.L87:
1069:..\..\..\..\..\..\Software\uCOS-III\Source/os_q.c ****     }
1070:..\..\..\..\..\..\Software\uCOS-III\Source/os_q.c ****    *p_err = OS_ERR_NONE;
 1197              		.loc 1 1070 0
ARM GAS  C:\Users\ADMINI~1\AppData\Local\Temp\ccKLo23z.s 			page 41


 1198 00da FB6B     		ldr	r3, [r7, #60]
 1199 00dc 0022     		movs	r2, #0
 1200 00de 1A80     		strh	r2, [r3]
 1201              	.L78:
1071:..\..\..\..\..\..\Software\uCOS-III\Source/os_q.c **** }
 1202              		.loc 1 1071 0
 1203 00e0 BD46     		mov	sp, r7
 1204 00e2 0BB0     		add	sp, sp, #44
 1205              		@ sp needed
 1206 00e4 90BD     		pop	{r4, r7, pc}
 1207              		.cfi_endproc
 1208              	.LFE7:
 1209              		.size	OS_QPost, .-OS_QPost
 1210 00e6 C046     		.text
 1211              	.Letext0:
 1212              		.file 2 "..\\..\\..\\..\\..\\..\\Software\\uC-CPU\\ARM-Cortex-M0\\GNU/cpu.h"
 1213              		.file 3 "..\\..\\..\\..\\..\\..\\Software\\uC-CPU/cpu_core.h"
 1214              		.file 4 "..\\..\\..\\..\\..\\..\\Software\\uCOS-III\\Source\\os_type.h"
 1215              		.file 5 "..\\..\\..\\..\\..\\..\\Software\\uCOS-III\\Source\\os.h"
 1216              		.section	.debug_info,"",%progbits
 1217              	.Ldebug_info0:
 1218 0000 2B100000 		.4byte	0x102b
 1219 0004 0400     		.2byte	0x4
 1220 0006 00000000 		.4byte	.Ldebug_abbrev0
 1221 000a 04       		.byte	0x4
 1222 000b 01       		.uleb128 0x1
 1223 000c F6020000 		.4byte	.LASF325
 1224 0010 0C       		.byte	0xc
 1225 0011 66080000 		.4byte	.LASF326
 1226 0015 91000000 		.4byte	.LASF327
 1227 0019 00000000 		.4byte	.Ldebug_ranges0+0
 1228 001d 00000000 		.4byte	0
 1229 0021 00000000 		.4byte	.Ldebug_line0
 1230 0025 02       		.uleb128 0x2
 1231 0026 D8070000 		.4byte	.LASF2
 1232 002a 02       		.byte	0x2
 1233 002b 7C       		.byte	0x7c
 1234 002c 30000000 		.4byte	0x30
 1235 0030 03       		.uleb128 0x3
 1236 0031 01       		.byte	0x1
 1237 0032 08       		.byte	0x8
 1238 0033 8D090000 		.4byte	.LASF0
 1239 0037 03       		.uleb128 0x3
 1240 0038 01       		.byte	0x1
 1241 0039 08       		.byte	0x8
 1242 003a FA100000 		.4byte	.LASF1
 1243 003e 02       		.uleb128 0x2
 1244 003f BA060000 		.4byte	.LASF3
 1245 0043 02       		.byte	0x2
 1246 0044 7E       		.byte	0x7e
 1247 0045 37000000 		.4byte	0x37
 1248 0049 03       		.uleb128 0x3
 1249 004a 01       		.byte	0x1
 1250 004b 06       		.byte	0x6
 1251 004c 40120000 		.4byte	.LASF4
 1252 0050 02       		.uleb128 0x2
 1253 0051 300B0000 		.4byte	.LASF5
ARM GAS  C:\Users\ADMINI~1\AppData\Local\Temp\ccKLo23z.s 			page 42


 1254 0055 02       		.byte	0x2
 1255 0056 80       		.byte	0x80
 1256 0057 5B000000 		.4byte	0x5b
 1257 005b 03       		.uleb128 0x3
 1258 005c 02       		.byte	0x2
 1259 005d 07       		.byte	0x7
 1260 005e 66120000 		.4byte	.LASF6
 1261 0062 03       		.uleb128 0x3
 1262 0063 02       		.byte	0x2
 1263 0064 05       		.byte	0x5
 1264 0065 6A0E0000 		.4byte	.LASF7
 1265 0069 02       		.uleb128 0x2
 1266 006a 0F020000 		.4byte	.LASF8
 1267 006e 02       		.byte	0x2
 1268 006f 82       		.byte	0x82
 1269 0070 74000000 		.4byte	0x74
 1270 0074 03       		.uleb128 0x3
 1271 0075 04       		.byte	0x4
 1272 0076 07       		.byte	0x7
 1273 0077 E30F0000 		.4byte	.LASF9
 1274 007b 04       		.uleb128 0x4
 1275 007c 04       		.byte	0x4
 1276 007d 05       		.byte	0x5
 1277 007e 696E7400 		.ascii	"int\000"
 1278 0082 03       		.uleb128 0x3
 1279 0083 08       		.byte	0x8
 1280 0084 07       		.byte	0x7
 1281 0085 FE050000 		.4byte	.LASF10
 1282 0089 03       		.uleb128 0x3
 1283 008a 08       		.byte	0x8
 1284 008b 05       		.byte	0x5
 1285 008c 880A0000 		.4byte	.LASF11
 1286 0090 03       		.uleb128 0x3
 1287 0091 04       		.byte	0x4
 1288 0092 04       		.byte	0x4
 1289 0093 69050000 		.4byte	.LASF12
 1290 0097 03       		.uleb128 0x3
 1291 0098 08       		.byte	0x8
 1292 0099 04       		.byte	0x4
 1293 009a EE120000 		.4byte	.LASF13
 1294 009e 05       		.uleb128 0x5
 1295 009f 04       		.byte	0x4
 1296 00a0 A4000000 		.4byte	0xa4
 1297 00a4 06       		.uleb128 0x6
 1298 00a5 AF000000 		.4byte	0xaf
 1299 00a9 07       		.uleb128 0x7
 1300 00aa AF000000 		.4byte	0xaf
 1301 00ae 00       		.byte	0
 1302 00af 08       		.uleb128 0x8
 1303 00b0 04       		.byte	0x4
 1304 00b1 02       		.uleb128 0x2
 1305 00b2 62100000 		.4byte	.LASF14
 1306 00b6 02       		.byte	0x2
 1307 00b7 BA       		.byte	0xba
 1308 00b8 69000000 		.4byte	0x69
 1309 00bc 02       		.uleb128 0x2
 1310 00bd 4D140000 		.4byte	.LASF15
ARM GAS  C:\Users\ADMINI~1\AppData\Local\Temp\ccKLo23z.s 			page 43


 1311 00c1 02       		.byte	0x2
 1312 00c2 E5       		.byte	0xe5
 1313 00c3 69000000 		.4byte	0x69
 1314 00c7 02       		.uleb128 0x2
 1315 00c8 F8070000 		.4byte	.LASF16
 1316 00cc 02       		.byte	0x2
 1317 00cd E6       		.byte	0xe6
 1318 00ce B1000000 		.4byte	0xb1
 1319 00d2 09       		.uleb128 0x9
 1320 00d3 C3090000 		.4byte	.LASF17
 1321 00d7 02       		.byte	0x2
 1322 00d8 3301     		.2byte	0x133
 1323 00da 69000000 		.4byte	0x69
 1324 00de 02       		.uleb128 0x2
 1325 00df EC0B0000 		.4byte	.LASF18
 1326 00e3 03       		.byte	0x3
 1327 00e4 C3       		.byte	0xc3
 1328 00e5 69000000 		.4byte	0x69
 1329 00e9 02       		.uleb128 0x2
 1330 00ea 810A0000 		.4byte	.LASF19
 1331 00ee 03       		.byte	0x3
 1332 00ef C6       		.byte	0xc6
 1333 00f0 DE000000 		.4byte	0xde
 1334 00f4 02       		.uleb128 0x2
 1335 00f5 E5010000 		.4byte	.LASF20
 1336 00f9 04       		.byte	0x4
 1337 00fa 32       		.byte	0x32
 1338 00fb 50000000 		.4byte	0x50
 1339 00ff 02       		.uleb128 0x2
 1340 0100 22000000 		.4byte	.LASF21
 1341 0104 04       		.byte	0x4
 1342 0105 36       		.byte	0x36
 1343 0106 69000000 		.4byte	0x69
 1344 010a 02       		.uleb128 0x2
 1345 010b B5100000 		.4byte	.LASF22
 1346 010f 04       		.byte	0x4
 1347 0110 38       		.byte	0x38
 1348 0111 69000000 		.4byte	0x69
 1349 0115 02       		.uleb128 0x2
 1350 0116 79120000 		.4byte	.LASF23
 1351 011a 04       		.byte	0x4
 1352 011b 3A       		.byte	0x3a
 1353 011c 69000000 		.4byte	0x69
 1354 0120 02       		.uleb128 0x2
 1355 0121 05080000 		.4byte	.LASF24
 1356 0125 04       		.byte	0x4
 1357 0126 41       		.byte	0x41
 1358 0127 50000000 		.4byte	0x50
 1359 012b 02       		.uleb128 0x2
 1360 012c 9D070000 		.4byte	.LASF25
 1361 0130 04       		.byte	0x4
 1362 0131 42       		.byte	0x42
 1363 0132 50000000 		.4byte	0x50
 1364 0136 02       		.uleb128 0x2
 1365 0137 280F0000 		.4byte	.LASF26
 1366 013b 04       		.byte	0x4
 1367 013c 44       		.byte	0x44
ARM GAS  C:\Users\ADMINI~1\AppData\Local\Temp\ccKLo23z.s 			page 44


 1368 013d 3E000000 		.4byte	0x3e
 1369 0141 02       		.uleb128 0x2
 1370 0142 29050000 		.4byte	.LASF27
 1371 0146 04       		.byte	0x4
 1372 0147 46       		.byte	0x46
 1373 0148 50000000 		.4byte	0x50
 1374 014c 02       		.uleb128 0x2
 1375 014d 92090000 		.4byte	.LASF28
 1376 0151 04       		.byte	0x4
 1377 0152 47       		.byte	0x47
 1378 0153 69000000 		.4byte	0x69
 1379 0157 02       		.uleb128 0x2
 1380 0158 4E110000 		.4byte	.LASF29
 1381 015c 04       		.byte	0x4
 1382 015d 49       		.byte	0x49
 1383 015e 50000000 		.4byte	0x50
 1384 0162 02       		.uleb128 0x2
 1385 0163 61050000 		.4byte	.LASF30
 1386 0167 04       		.byte	0x4
 1387 0168 4D       		.byte	0x4d
 1388 0169 3E000000 		.4byte	0x3e
 1389 016d 02       		.uleb128 0x2
 1390 016e 22070000 		.4byte	.LASF31
 1391 0172 04       		.byte	0x4
 1392 0173 56       		.byte	0x56
 1393 0174 69000000 		.4byte	0x69
 1394 0178 02       		.uleb128 0x2
 1395 0179 110C0000 		.4byte	.LASF32
 1396 017d 04       		.byte	0x4
 1397 017e 5A       		.byte	0x5a
 1398 017f 69000000 		.4byte	0x69
 1399 0183 02       		.uleb128 0x2
 1400 0184 3D110000 		.4byte	.LASF33
 1401 0188 04       		.byte	0x4
 1402 0189 5C       		.byte	0x5c
 1403 018a 3E000000 		.4byte	0x3e
 1404 018e 02       		.uleb128 0x2
 1405 018f 4D070000 		.4byte	.LASF34
 1406 0193 04       		.byte	0x4
 1407 0194 5E       		.byte	0x5e
 1408 0195 3E000000 		.4byte	0x3e
 1409 0199 02       		.uleb128 0x2
 1410 019a A30B0000 		.4byte	.LASF35
 1411 019e 04       		.byte	0x4
 1412 019f 60       		.byte	0x60
 1413 01a0 69000000 		.4byte	0x69
 1414 01a4 0A       		.uleb128 0xa
 1415 01a5 96010000 		.4byte	.LASF328
 1416 01a9 02       		.byte	0x2
 1417 01aa 5B000000 		.4byte	0x5b
 1418 01ae 05       		.byte	0x5
 1419 01af E201     		.2byte	0x1e2
 1420 01b1 46060000 		.4byte	0x646
 1421 01b5 0B       		.uleb128 0xb
 1422 01b6 A2120000 		.4byte	.LASF36
 1423 01ba 00       		.byte	0
 1424 01bb 0C       		.uleb128 0xc
ARM GAS  C:\Users\ADMINI~1\AppData\Local\Temp\ccKLo23z.s 			page 45


 1425 01bc 5B000000 		.4byte	.LASF37
 1426 01c0 1027     		.2byte	0x2710
 1427 01c2 0C       		.uleb128 0xc
 1428 01c3 0B040000 		.4byte	.LASF38
 1429 01c7 1127     		.2byte	0x2711
 1430 01c9 0C       		.uleb128 0xc
 1431 01ca 64000000 		.4byte	.LASF39
 1432 01ce F82A     		.2byte	0x2af8
 1433 01d0 0C       		.uleb128 0xc
 1434 01d1 6D000000 		.4byte	.LASF40
 1435 01d5 E02E     		.2byte	0x2ee0
 1436 01d7 0C       		.uleb128 0xc
 1437 01d8 BA010000 		.4byte	.LASF41
 1438 01dc E12E     		.2byte	0x2ee1
 1439 01de 0C       		.uleb128 0xc
 1440 01df 76000000 		.4byte	.LASF42
 1441 01e3 C832     		.2byte	0x32c8
 1442 01e5 0C       		.uleb128 0xc
 1443 01e6 57090000 		.4byte	.LASF43
 1444 01ea C932     		.2byte	0x32c9
 1445 01ec 0C       		.uleb128 0xc
 1446 01ed 7F000000 		.4byte	.LASF44
 1447 01f1 B036     		.2byte	0x36b0
 1448 01f3 0C       		.uleb128 0xc
 1449 01f4 88000000 		.4byte	.LASF45
 1450 01f8 983A     		.2byte	0x3a98
 1451 01fa 0C       		.uleb128 0xc
 1452 01fb 52120000 		.4byte	.LASF46
 1453 01ff 993A     		.2byte	0x3a99
 1454 0201 0C       		.uleb128 0xc
 1455 0202 B9080000 		.4byte	.LASF47
 1456 0206 FD3A     		.2byte	0x3afd
 1457 0208 0C       		.uleb128 0xc
 1458 0209 28100000 		.4byte	.LASF48
 1459 020d FE3A     		.2byte	0x3afe
 1460 020f 0C       		.uleb128 0xc
 1461 0210 960A0000 		.4byte	.LASF49
 1462 0214 FF3A     		.2byte	0x3aff
 1463 0216 0C       		.uleb128 0xc
 1464 0217 D8120000 		.4byte	.LASF50
 1465 021b 003B     		.2byte	0x3b00
 1466 021d 0C       		.uleb128 0xc
 1467 021e DE100000 		.4byte	.LASF51
 1468 0222 803E     		.2byte	0x3e80
 1469 0224 0C       		.uleb128 0xc
 1470 0225 E3000000 		.4byte	.LASF52
 1471 0229 6842     		.2byte	0x4268
 1472 022b 0C       		.uleb128 0xc
 1473 022c EC000000 		.4byte	.LASF53
 1474 0230 5046     		.2byte	0x4650
 1475 0232 0C       		.uleb128 0xc
 1476 0233 E9040000 		.4byte	.LASF54
 1477 0237 5146     		.2byte	0x4651
 1478 0239 0C       		.uleb128 0xc
 1479 023a CE030000 		.4byte	.LASF55
 1480 023e 5246     		.2byte	0x4652
 1481 0240 0C       		.uleb128 0xc
ARM GAS  C:\Users\ADMINI~1\AppData\Local\Temp\ccKLo23z.s 			page 46


 1482 0241 C1040000 		.4byte	.LASF56
 1483 0245 5346     		.2byte	0x4653
 1484 0247 0C       		.uleb128 0xc
 1485 0248 A8010000 		.4byte	.LASF57
 1486 024c 5446     		.2byte	0x4654
 1487 024e 0C       		.uleb128 0xc
 1488 024f DC110000 		.4byte	.LASF58
 1489 0253 5546     		.2byte	0x4655
 1490 0255 0C       		.uleb128 0xc
 1491 0256 D60C0000 		.4byte	.LASF59
 1492 025a 5646     		.2byte	0x4656
 1493 025c 0C       		.uleb128 0xc
 1494 025d A6020000 		.4byte	.LASF60
 1495 0261 5746     		.2byte	0x4657
 1496 0263 0C       		.uleb128 0xc
 1497 0264 F5000000 		.4byte	.LASF61
 1498 0268 384A     		.2byte	0x4a38
 1499 026a 0C       		.uleb128 0xc
 1500 026b FE000000 		.4byte	.LASF62
 1501 026f 204E     		.2byte	0x4e20
 1502 0271 0C       		.uleb128 0xc
 1503 0272 07010000 		.4byte	.LASF63
 1504 0276 0852     		.2byte	0x5208
 1505 0278 0C       		.uleb128 0xc
 1506 0279 2D0E0000 		.4byte	.LASF64
 1507 027d 0952     		.2byte	0x5209
 1508 027f 0C       		.uleb128 0xc
 1509 0280 10010000 		.4byte	.LASF65
 1510 0284 F055     		.2byte	0x55f0
 1511 0286 0C       		.uleb128 0xc
 1512 0287 61110000 		.4byte	.LASF66
 1513 028b B956     		.2byte	0x56b9
 1514 028d 0C       		.uleb128 0xc
 1515 028e AB0B0000 		.4byte	.LASF67
 1516 0292 BA56     		.2byte	0x56ba
 1517 0294 0C       		.uleb128 0xc
 1518 0295 0D0E0000 		.4byte	.LASF68
 1519 0299 BB56     		.2byte	0x56bb
 1520 029b 0C       		.uleb128 0xc
 1521 029c D2080000 		.4byte	.LASF69
 1522 02a0 BC56     		.2byte	0x56bc
 1523 02a2 0C       		.uleb128 0xc
 1524 02a3 570B0000 		.4byte	.LASF70
 1525 02a7 BD56     		.2byte	0x56bd
 1526 02a9 0C       		.uleb128 0xc
 1527 02aa F40D0000 		.4byte	.LASF71
 1528 02ae BE56     		.2byte	0x56be
 1529 02b0 0C       		.uleb128 0xc
 1530 02b1 D30B0000 		.4byte	.LASF72
 1531 02b5 BF56     		.2byte	0x56bf
 1532 02b7 0C       		.uleb128 0xc
 1533 02b8 9C050000 		.4byte	.LASF73
 1534 02bc C056     		.2byte	0x56c0
 1535 02be 0C       		.uleb128 0xc
 1536 02bf 6A130000 		.4byte	.LASF74
 1537 02c3 C156     		.2byte	0x56c1
 1538 02c5 0C       		.uleb128 0xc
ARM GAS  C:\Users\ADMINI~1\AppData\Local\Temp\ccKLo23z.s 			page 47


 1539 02c6 35140000 		.4byte	.LASF75
 1540 02ca C256     		.2byte	0x56c2
 1541 02cc 0C       		.uleb128 0xc
 1542 02cd 7F0E0000 		.4byte	.LASF76
 1543 02d1 1D57     		.2byte	0x571d
 1544 02d3 0C       		.uleb128 0xc
 1545 02d4 0F0F0000 		.4byte	.LASF77
 1546 02d8 1E57     		.2byte	0x571e
 1547 02da 0C       		.uleb128 0xc
 1548 02db 86070000 		.4byte	.LASF78
 1549 02df 8157     		.2byte	0x5781
 1550 02e1 0C       		.uleb128 0xc
 1551 02e2 F80F0000 		.4byte	.LASF79
 1552 02e6 8257     		.2byte	0x5782
 1553 02e8 0C       		.uleb128 0xc
 1554 02e9 35040000 		.4byte	.LASF80
 1555 02ed 8357     		.2byte	0x5783
 1556 02ef 0C       		.uleb128 0xc
 1557 02f0 9E030000 		.4byte	.LASF81
 1558 02f4 8457     		.2byte	0x5784
 1559 02f6 0C       		.uleb128 0xc
 1560 02f7 19010000 		.4byte	.LASF82
 1561 02fb D859     		.2byte	0x59d8
 1562 02fd 0C       		.uleb128 0xc
 1563 02fe 29070000 		.4byte	.LASF83
 1564 0302 D959     		.2byte	0x59d9
 1565 0304 0C       		.uleb128 0xc
 1566 0305 84050000 		.4byte	.LASF84
 1567 0309 DA59     		.2byte	0x59da
 1568 030b 0C       		.uleb128 0xc
 1569 030c 22010000 		.4byte	.LASF85
 1570 0310 C05D     		.2byte	0x5dc0
 1571 0312 0C       		.uleb128 0xc
 1572 0313 76040000 		.4byte	.LASF86
 1573 0317 C15D     		.2byte	0x5dc1
 1574 0319 0C       		.uleb128 0xc
 1575 031a 720A0000 		.4byte	.LASF87
 1576 031e C25D     		.2byte	0x5dc2
 1577 0320 0C       		.uleb128 0xc
 1578 0321 6F0B0000 		.4byte	.LASF88
 1579 0325 C35D     		.2byte	0x5dc3
 1580 0327 0C       		.uleb128 0xc
 1581 0328 8D0F0000 		.4byte	.LASF89
 1582 032c C45D     		.2byte	0x5dc4
 1583 032e 0C       		.uleb128 0xc
 1584 032f B0090000 		.4byte	.LASF90
 1585 0333 255E     		.2byte	0x5e25
 1586 0335 0C       		.uleb128 0xc
 1587 0336 770D0000 		.4byte	.LASF91
 1588 033a 895E     		.2byte	0x5e89
 1589 033c 0C       		.uleb128 0xc
 1590 033d 10080000 		.4byte	.LASF92
 1591 0341 8A5E     		.2byte	0x5e8a
 1592 0343 0C       		.uleb128 0xc
 1593 0344 08090000 		.4byte	.LASF93
 1594 0348 8B5E     		.2byte	0x5e8b
 1595 034a 0C       		.uleb128 0xc
ARM GAS  C:\Users\ADMINI~1\AppData\Local\Temp\ccKLo23z.s 			page 48


 1596 034b EA090000 		.4byte	.LASF94
 1597 034f 8C5E     		.2byte	0x5e8c
 1598 0351 0C       		.uleb128 0xc
 1599 0352 2B010000 		.4byte	.LASF95
 1600 0356 A861     		.2byte	0x61a8
 1601 0358 0C       		.uleb128 0xc
 1602 0359 F5120000 		.4byte	.LASF96
 1603 035d A961     		.2byte	0x61a9
 1604 035f 0C       		.uleb128 0xc
 1605 0360 4C100000 		.4byte	.LASF97
 1606 0364 AA61     		.2byte	0x61aa
 1607 0366 0C       		.uleb128 0xc
 1608 0367 CC0F0000 		.4byte	.LASF98
 1609 036b AB61     		.2byte	0x61ab
 1610 036d 0C       		.uleb128 0xc
 1611 036e 190B0000 		.4byte	.LASF99
 1612 0372 AC61     		.2byte	0x61ac
 1613 0374 0C       		.uleb128 0xc
 1614 0375 34130000 		.4byte	.LASF100
 1615 0379 AD61     		.2byte	0x61ad
 1616 037b 0C       		.uleb128 0xc
 1617 037c 96110000 		.4byte	.LASF101
 1618 0380 AE61     		.2byte	0x61ae
 1619 0382 0C       		.uleb128 0xc
 1620 0383 E3020000 		.4byte	.LASF102
 1621 0387 AF61     		.2byte	0x61af
 1622 0389 0C       		.uleb128 0xc
 1623 038a 62020000 		.4byte	.LASF103
 1624 038e B061     		.2byte	0x61b0
 1625 0390 0C       		.uleb128 0xc
 1626 0391 6F050000 		.4byte	.LASF104
 1627 0395 0D62     		.2byte	0x620d
 1628 0397 0C       		.uleb128 0xc
 1629 0398 78100000 		.4byte	.LASF105
 1630 039c 0E62     		.2byte	0x620e
 1631 039e 0C       		.uleb128 0xc
 1632 039f 1A140000 		.4byte	.LASF106
 1633 03a3 7162     		.2byte	0x6271
 1634 03a5 0C       		.uleb128 0xc
 1635 03a6 28130000 		.4byte	.LASF107
 1636 03aa 7262     		.2byte	0x6272
 1637 03ac 0C       		.uleb128 0xc
 1638 03ad 07000000 		.4byte	.LASF108
 1639 03b1 7362     		.2byte	0x6273
 1640 03b3 0C       		.uleb128 0xc
 1641 03b4 470D0000 		.4byte	.LASF109
 1642 03b8 D562     		.2byte	0x62d5
 1643 03ba 0C       		.uleb128 0xc
 1644 03bb 34010000 		.4byte	.LASF110
 1645 03bf 9065     		.2byte	0x6590
 1646 03c1 0C       		.uleb128 0xc
 1647 03c2 CE110000 		.4byte	.LASF111
 1648 03c6 9165     		.2byte	0x6591
 1649 03c8 0C       		.uleb128 0xc
 1650 03c9 F2060000 		.4byte	.LASF112
 1651 03cd 9265     		.2byte	0x6592
 1652 03cf 0C       		.uleb128 0xc
ARM GAS  C:\Users\ADMINI~1\AppData\Local\Temp\ccKLo23z.s 			page 49


 1653 03d0 6C090000 		.4byte	.LASF113
 1654 03d4 9365     		.2byte	0x6593
 1655 03d6 0C       		.uleb128 0xc
 1656 03d7 E60A0000 		.4byte	.LASF114
 1657 03db 9465     		.2byte	0x6594
 1658 03dd 0C       		.uleb128 0xc
 1659 03de 3D010000 		.4byte	.LASF115
 1660 03e2 7869     		.2byte	0x6978
 1661 03e4 0C       		.uleb128 0xc
 1662 03e5 830B0000 		.4byte	.LASF116
 1663 03e9 7969     		.2byte	0x6979
 1664 03eb 0C       		.uleb128 0xc
 1665 03ec DF0D0000 		.4byte	.LASF117
 1666 03f0 7A69     		.2byte	0x697a
 1667 03f2 0C       		.uleb128 0xc
 1668 03f3 3B0B0000 		.4byte	.LASF118
 1669 03f7 7B69     		.2byte	0x697b
 1670 03f9 0C       		.uleb128 0xc
 1671 03fa 46010000 		.4byte	.LASF119
 1672 03fe 606D     		.2byte	0x6d60
 1673 0400 0C       		.uleb128 0xc
 1674 0401 CA090000 		.4byte	.LASF120
 1675 0405 616D     		.2byte	0x6d61
 1676 0407 0C       		.uleb128 0xc
 1677 0408 41090000 		.4byte	.LASF121
 1678 040c 626D     		.2byte	0x6d62
 1679 040e 0C       		.uleb128 0xc
 1680 040f C4120000 		.4byte	.LASF122
 1681 0413 636D     		.2byte	0x6d63
 1682 0415 0C       		.uleb128 0xc
 1683 0416 10130000 		.4byte	.LASF123
 1684 041a 646D     		.2byte	0x6d64
 1685 041c 0C       		.uleb128 0xc
 1686 041d A30E0000 		.4byte	.LASF124
 1687 0421 656D     		.2byte	0x6d65
 1688 0423 0C       		.uleb128 0xc
 1689 0424 AE130000 		.4byte	.LASF125
 1690 0428 C56D     		.2byte	0x6dc5
 1691 042a 0C       		.uleb128 0xc
 1692 042b 98130000 		.4byte	.LASF126
 1693 042f C66D     		.2byte	0x6dc6
 1694 0431 0C       		.uleb128 0xc
 1695 0432 C2020000 		.4byte	.LASF127
 1696 0436 296E     		.2byte	0x6e29
 1697 0438 0C       		.uleb128 0xc
 1698 0439 130A0000 		.4byte	.LASF128
 1699 043d 2A6E     		.2byte	0x6e2a
 1700 043f 0C       		.uleb128 0xc
 1701 0440 A1080000 		.4byte	.LASF129
 1702 0444 2B6E     		.2byte	0x6e2b
 1703 0446 0C       		.uleb128 0xc
 1704 0447 0B100000 		.4byte	.LASF130
 1705 044b 2C6E     		.2byte	0x6e2c
 1706 044d 0C       		.uleb128 0xc
 1707 044e 5A0D0000 		.4byte	.LASF131
 1708 0452 2D6E     		.2byte	0x6e2d
 1709 0454 0C       		.uleb128 0xc
ARM GAS  C:\Users\ADMINI~1\AppData\Local\Temp\ccKLo23z.s 			page 50


 1710 0455 77110000 		.4byte	.LASF132
 1711 0459 2E6E     		.2byte	0x6e2e
 1712 045b 0C       		.uleb128 0xc
 1713 045c 2F020000 		.4byte	.LASF133
 1714 0460 2F6E     		.2byte	0x6e2f
 1715 0462 0C       		.uleb128 0xc
 1716 0463 C6100000 		.4byte	.LASF134
 1717 0467 306E     		.2byte	0x6e30
 1718 0469 0C       		.uleb128 0xc
 1719 046a 9C100000 		.4byte	.LASF135
 1720 046e 316E     		.2byte	0x6e31
 1721 0470 0C       		.uleb128 0xc
 1722 0471 4F010000 		.4byte	.LASF136
 1723 0475 4871     		.2byte	0x7148
 1724 0477 0C       		.uleb128 0xc
 1725 0478 7A020000 		.4byte	.LASF137
 1726 047c 4971     		.2byte	0x7149
 1727 047e 0C       		.uleb128 0xc
 1728 047f E1070000 		.4byte	.LASF138
 1729 0483 4A71     		.2byte	0x714a
 1730 0485 0C       		.uleb128 0xc
 1731 0486 1A120000 		.4byte	.LASF139
 1732 048a 4B71     		.2byte	0x714b
 1733 048c 0C       		.uleb128 0xc
 1734 048d BD130000 		.4byte	.LASF140
 1735 0491 4C71     		.2byte	0x714c
 1736 0493 0C       		.uleb128 0xc
 1737 0494 80060000 		.4byte	.LASF141
 1738 0498 4D71     		.2byte	0x714d
 1739 049a 0C       		.uleb128 0xc
 1740 049b 1F0D0000 		.4byte	.LASF142
 1741 049f 4E71     		.2byte	0x714e
 1742 04a1 0C       		.uleb128 0xc
 1743 04a2 820C0000 		.4byte	.LASF143
 1744 04a6 4F71     		.2byte	0x714f
 1745 04a8 0C       		.uleb128 0xc
 1746 04a9 BB0B0000 		.4byte	.LASF144
 1747 04ad 5071     		.2byte	0x7150
 1748 04af 0C       		.uleb128 0xc
 1749 04b0 AF030000 		.4byte	.LASF145
 1750 04b4 5171     		.2byte	0x7151
 1751 04b6 0C       		.uleb128 0xc
 1752 04b7 5B0C0000 		.4byte	.LASF146
 1753 04bb 5271     		.2byte	0x7152
 1754 04bd 0C       		.uleb128 0xc
 1755 04be 84030000 		.4byte	.LASF147
 1756 04c2 5371     		.2byte	0x7153
 1757 04c4 0C       		.uleb128 0xc
 1758 04c5 08110000 		.4byte	.LASF148
 1759 04c9 5471     		.2byte	0x7154
 1760 04cb 0C       		.uleb128 0xc
 1761 04cc 4B020000 		.4byte	.LASF149
 1762 04d0 5571     		.2byte	0x7155
 1763 04d2 0C       		.uleb128 0xc
 1764 04d3 49050000 		.4byte	.LASF150
 1765 04d7 5671     		.2byte	0x7156
 1766 04d9 0C       		.uleb128 0xc
ARM GAS  C:\Users\ADMINI~1\AppData\Local\Temp\ccKLo23z.s 			page 51


 1767 04da 600F0000 		.4byte	.LASF151
 1768 04de 5771     		.2byte	0x7157
 1769 04e0 0C       		.uleb128 0xc
 1770 04e1 24060000 		.4byte	.LASF152
 1771 04e5 5871     		.2byte	0x7158
 1772 04e7 0C       		.uleb128 0xc
 1773 04e8 450E0000 		.4byte	.LASF153
 1774 04ec 5971     		.2byte	0x7159
 1775 04ee 0C       		.uleb128 0xc
 1776 04ef 82130000 		.4byte	.LASF154
 1777 04f3 5A71     		.2byte	0x715a
 1778 04f5 0C       		.uleb128 0xc
 1779 04f6 A8040000 		.4byte	.LASF155
 1780 04fa 5B71     		.2byte	0x715b
 1781 04fc 0C       		.uleb128 0xc
 1782 04fd 60060000 		.4byte	.LASF156
 1783 0501 5C71     		.2byte	0x715c
 1784 0503 0C       		.uleb128 0xc
 1785 0504 1D040000 		.4byte	.LASF157
 1786 0508 5D71     		.2byte	0x715d
 1787 050a 0C       		.uleb128 0xc
 1788 050b B30C0000 		.4byte	.LASF158
 1789 050f 5E71     		.2byte	0x715e
 1790 0511 0C       		.uleb128 0xc
 1791 0512 F7030000 		.4byte	.LASF159
 1792 0516 5F71     		.2byte	0x715f
 1793 0518 0C       		.uleb128 0xc
 1794 0519 CA0A0000 		.4byte	.LASF160
 1795 051d 6071     		.2byte	0x7160
 1796 051f 0C       		.uleb128 0xc
 1797 0520 CC060000 		.4byte	.LASF161
 1798 0524 AD71     		.2byte	0x71ad
 1799 0526 0C       		.uleb128 0xc
 1800 0527 E8050000 		.4byte	.LASF162
 1801 052b C071     		.2byte	0x71c0
 1802 052d 0C       		.uleb128 0xc
 1803 052e F40C0000 		.4byte	.LASF163
 1804 0532 C171     		.2byte	0x71c1
 1805 0534 0C       		.uleb128 0xc
 1806 0535 89120000 		.4byte	.LASF164
 1807 0539 C271     		.2byte	0x71c2
 1808 053b 0C       		.uleb128 0xc
 1809 053c 9E090000 		.4byte	.LASF165
 1810 0540 C371     		.2byte	0x71c3
 1811 0542 0C       		.uleb128 0xc
 1812 0543 61070000 		.4byte	.LASF166
 1813 0547 C471     		.2byte	0x71c4
 1814 0549 0C       		.uleb128 0xc
 1815 054a 01140000 		.4byte	.LASF167
 1816 054e 1172     		.2byte	0x7211
 1817 0550 0C       		.uleb128 0xc
 1818 0551 F70E0000 		.4byte	.LASF168
 1819 0555 1272     		.2byte	0x7212
 1820 0557 0C       		.uleb128 0xc
 1821 0558 F2010000 		.4byte	.LASF169
 1822 055c 1372     		.2byte	0x7213
 1823 055e 0C       		.uleb128 0xc
ARM GAS  C:\Users\ADMINI~1\AppData\Local\Temp\ccKLo23z.s 			page 52


 1824 055f 380C0000 		.4byte	.LASF170
 1825 0563 1472     		.2byte	0x7214
 1826 0565 0C       		.uleb128 0xc
 1827 0566 88100000 		.4byte	.LASF171
 1828 056a 7572     		.2byte	0x7275
 1829 056c 0C       		.uleb128 0xc
 1830 056d E6130000 		.4byte	.LASF172
 1831 0571 7672     		.2byte	0x7276
 1832 0573 0C       		.uleb128 0xc
 1833 0574 D2130000 		.4byte	.LASF173
 1834 0578 7772     		.2byte	0x7277
 1835 057a 0C       		.uleb128 0xc
 1836 057b A9070000 		.4byte	.LASF174
 1837 057f 7872     		.2byte	0x7278
 1838 0581 0C       		.uleb128 0xc
 1839 0582 3F000000 		.4byte	.LASF175
 1840 0586 7972     		.2byte	0x7279
 1841 0588 0C       		.uleb128 0xc
 1842 0589 F5110000 		.4byte	.LASF176
 1843 058d 7A72     		.2byte	0x727a
 1844 058f 0C       		.uleb128 0xc
 1845 0590 01070000 		.4byte	.LASF177
 1846 0594 7B72     		.2byte	0x727b
 1847 0596 0C       		.uleb128 0xc
 1848 0597 2C0A0000 		.4byte	.LASF178
 1849 059b 7C72     		.2byte	0x727c
 1850 059d 0C       		.uleb128 0xc
 1851 059e CB0D0000 		.4byte	.LASF179
 1852 05a2 7D72     		.2byte	0x727d
 1853 05a4 0C       		.uleb128 0xc
 1854 05a5 45080000 		.4byte	.LASF180
 1855 05a9 7E72     		.2byte	0x727e
 1856 05ab 0C       		.uleb128 0xc
 1857 05ac 2E110000 		.4byte	.LASF181
 1858 05b0 D972     		.2byte	0x72d9
 1859 05b2 0C       		.uleb128 0xc
 1860 05b3 D4050000 		.4byte	.LASF182
 1861 05b7 3D73     		.2byte	0x733d
 1862 05b9 0C       		.uleb128 0xc
 1863 05ba 29090000 		.4byte	.LASF183
 1864 05be 3E73     		.2byte	0x733e
 1865 05c0 0C       		.uleb128 0xc
 1866 05c1 12050000 		.4byte	.LASF184
 1867 05c5 3F73     		.2byte	0x733f
 1868 05c7 0C       		.uleb128 0xc
 1869 05c8 7C010000 		.4byte	.LASF185
 1870 05cc 4073     		.2byte	0x7340
 1871 05ce 0C       		.uleb128 0xc
 1872 05cf 56040000 		.4byte	.LASF186
 1873 05d3 4173     		.2byte	0x7341
 1874 05d5 0C       		.uleb128 0xc
 1875 05d6 40060000 		.4byte	.LASF187
 1876 05da 4273     		.2byte	0x7342
 1877 05dc 0C       		.uleb128 0xc
 1878 05dd 30000000 		.4byte	.LASF188
 1879 05e1 4373     		.2byte	0x7343
 1880 05e3 0C       		.uleb128 0xc
ARM GAS  C:\Users\ADMINI~1\AppData\Local\Temp\ccKLo23z.s 			page 53


 1881 05e4 BD050000 		.4byte	.LASF189
 1882 05e8 4473     		.2byte	0x7344
 1883 05ea 0C       		.uleb128 0xc
 1884 05eb C3070000 		.4byte	.LASF190
 1885 05ef 4573     		.2byte	0x7345
 1886 05f1 0C       		.uleb128 0xc
 1887 05f2 960C0000 		.4byte	.LASF191
 1888 05f6 4673     		.2byte	0x7346
 1889 05f8 0C       		.uleb128 0xc
 1890 05f9 A3060000 		.4byte	.LASF192
 1891 05fd 4773     		.2byte	0x7347
 1892 05ff 0C       		.uleb128 0xc
 1893 0600 1C0C0000 		.4byte	.LASF193
 1894 0604 4873     		.2byte	0x7348
 1895 0606 0C       		.uleb128 0xc
 1896 0607 E7100000 		.4byte	.LASF194
 1897 060b 4973     		.2byte	0x7349
 1898 060d 0C       		.uleb128 0xc
 1899 060e 030D0000 		.4byte	.LASF195
 1900 0612 4A73     		.2byte	0x734a
 1901 0614 0C       		.uleb128 0xc
 1902 0615 58010000 		.4byte	.LASF196
 1903 0619 3075     		.2byte	0x7530
 1904 061b 0C       		.uleb128 0xc
 1905 061c 61010000 		.4byte	.LASF197
 1906 0620 1879     		.2byte	0x7918
 1907 0622 0C       		.uleb128 0xc
 1908 0623 6A010000 		.4byte	.LASF198
 1909 0627 007D     		.2byte	0x7d00
 1910 0629 0C       		.uleb128 0xc
 1911 062a 73010000 		.4byte	.LASF199
 1912 062e E880     		.2byte	0x80e8
 1913 0630 0C       		.uleb128 0xc
 1914 0631 8D110000 		.4byte	.LASF200
 1915 0635 D084     		.2byte	0x84d0
 1916 0637 0C       		.uleb128 0xc
 1917 0638 610A0000 		.4byte	.LASF201
 1918 063c D184     		.2byte	0x84d1
 1919 063e 0C       		.uleb128 0xc
 1920 063f A6110000 		.4byte	.LASF202
 1921 0643 B888     		.2byte	0x88b8
 1922 0645 00       		.byte	0
 1923 0646 09       		.uleb128 0x9
 1924 0647 1B000000 		.4byte	.LASF203
 1925 064b 05       		.byte	0x5
 1926 064c B502     		.2byte	0x2b5
 1927 064e A4010000 		.4byte	0x1a4
 1928 0652 09       		.uleb128 0x9
 1929 0653 1B090000 		.4byte	.LASF204
 1930 0657 05       		.byte	0x5
 1931 0658 C402     		.2byte	0x2c4
 1932 065a 5E060000 		.4byte	0x65e
 1933 065e 0D       		.uleb128 0xd
 1934 065f C5060000 		.4byte	.LASF210
 1935 0663 10       		.byte	0x10
 1936 0664 05       		.byte	0x5
 1937 0665 A303     		.2byte	0x3a3
ARM GAS  C:\Users\ADMINI~1\AppData\Local\Temp\ccKLo23z.s 			page 54


 1938 0667 A0060000 		.4byte	0x6a0
 1939 066b 0E       		.uleb128 0xe
 1940 066c 6F0D0000 		.4byte	.LASF205
 1941 0670 05       		.byte	0x5
 1942 0671 A403     		.2byte	0x3a4
 1943 0673 4B0C0000 		.4byte	0xc4b
 1944 0677 00       		.byte	0
 1945 0678 0E       		.uleb128 0xe
 1946 0679 82120000 		.4byte	.LASF206
 1947 067d 05       		.byte	0x5
 1948 067e A503     		.2byte	0x3a5
 1949 0680 AF000000 		.4byte	0xaf
 1950 0684 04       		.byte	0x4
 1951 0685 0E       		.uleb128 0xe
 1952 0686 F00F0000 		.4byte	.LASF207
 1953 068a 05       		.byte	0x5
 1954 068b A603     		.2byte	0x3a6
 1955 068d 2B010000 		.4byte	0x12b
 1956 0691 08       		.byte	0x8
 1957 0692 0E       		.uleb128 0xe
 1958 0693 4C120000 		.4byte	.LASF208
 1959 0697 05       		.byte	0x5
 1960 0698 A803     		.2byte	0x3a8
 1961 069a E9000000 		.4byte	0xe9
 1962 069e 0C       		.byte	0xc
 1963 069f 00       		.byte	0
 1964 06a0 09       		.uleb128 0x9
 1965 06a1 530A0000 		.4byte	.LASF209
 1966 06a5 05       		.byte	0x5
 1967 06a6 C602     		.2byte	0x2c6
 1968 06a8 AC060000 		.4byte	0x6ac
 1969 06ac 0D       		.uleb128 0xd
 1970 06ad 2C140000 		.4byte	.LASF211
 1971 06b1 10       		.byte	0x10
 1972 06b2 05       		.byte	0x5
 1973 06b3 BA03     		.2byte	0x3ba
 1974 06b5 FB060000 		.4byte	0x6fb
 1975 06b9 0E       		.uleb128 0xe
 1976 06ba B30F0000 		.4byte	.LASF212
 1977 06be 05       		.byte	0x5
 1978 06bf BB03     		.2byte	0x3bb
 1979 06c1 4B0C0000 		.4byte	0xc4b
 1980 06c5 00       		.byte	0
 1981 06c6 0E       		.uleb128 0xe
 1982 06c7 BA110000 		.4byte	.LASF213
 1983 06cb 05       		.byte	0x5
 1984 06cc BC03     		.2byte	0x3bc
 1985 06ce 4B0C0000 		.4byte	0xc4b
 1986 06d2 04       		.byte	0x4
 1987 06d3 0E       		.uleb128 0xe
 1988 06d4 36080000 		.4byte	.LASF214
 1989 06d8 05       		.byte	0x5
 1990 06d9 BD03     		.2byte	0x3bd
 1991 06db 20010000 		.4byte	0x120
 1992 06df 08       		.byte	0x8
 1993 06e0 0E       		.uleb128 0xe
 1994 06e1 9D010000 		.4byte	.LASF215
ARM GAS  C:\Users\ADMINI~1\AppData\Local\Temp\ccKLo23z.s 			page 55


 1995 06e5 05       		.byte	0x5
 1996 06e6 BE03     		.2byte	0x3be
 1997 06e8 20010000 		.4byte	0x120
 1998 06ec 0A       		.byte	0xa
 1999 06ed 0E       		.uleb128 0xe
 2000 06ee 4F130000 		.4byte	.LASF216
 2001 06f2 05       		.byte	0x5
 2002 06f3 C003     		.2byte	0x3c0
 2003 06f5 20010000 		.4byte	0x120
 2004 06f9 0C       		.byte	0xc
 2005 06fa 00       		.byte	0
 2006 06fb 09       		.uleb128 0x9
 2007 06fc 26020000 		.4byte	.LASF217
 2008 0700 05       		.byte	0x5
 2009 0701 C802     		.2byte	0x2c8
 2010 0703 07070000 		.4byte	0x707
 2011 0707 0D       		.uleb128 0xd
 2012 0708 9A0D0000 		.4byte	.LASF218
 2013 070c 30       		.byte	0x30
 2014 070d 05       		.byte	0x5
 2015 070e D003     		.2byte	0x3d0
 2016 0710 96070000 		.4byte	0x796
 2017 0714 0E       		.uleb128 0xe
 2018 0715 5C0A0000 		.4byte	.LASF219
 2019 0719 05       		.byte	0x5
 2020 071a D303     		.2byte	0x3d3
 2021 071c 4C010000 		.4byte	0x14c
 2022 0720 00       		.byte	0
 2023 0721 0E       		.uleb128 0xe
 2024 0722 400A0000 		.4byte	.LASF220
 2025 0726 05       		.byte	0x5
 2026 0727 D603     		.2byte	0x3d6
 2027 0729 450C0000 		.4byte	0xc45
 2028 072d 04       		.byte	0x4
 2029 072e 0E       		.uleb128 0xe
 2030 072f 840F0000 		.4byte	.LASF221
 2031 0733 05       		.byte	0x5
 2032 0734 D803     		.2byte	0x3d8
 2033 0736 8A0B0000 		.4byte	0xb8a
 2034 073a 08       		.byte	0x8
 2035 073b 0E       		.uleb128 0xe
 2036 073c C3030000 		.4byte	.LASF222
 2037 0740 05       		.byte	0x5
 2038 0741 DA03     		.2byte	0x3da
 2039 0743 510C0000 		.4byte	0xc51
 2040 0747 14       		.byte	0x14
 2041 0748 0E       		.uleb128 0xe
 2042 0749 DB030000 		.4byte	.LASF223
 2043 074d 05       		.byte	0x5
 2044 074e DB03     		.2byte	0x3db
 2045 0750 510C0000 		.4byte	0xc51
 2046 0754 18       		.byte	0x18
 2047 0755 0E       		.uleb128 0xe
 2048 0756 AF110000 		.4byte	.LASF224
 2049 075a 05       		.byte	0x5
 2050 075b DC03     		.2byte	0x3dc
 2051 075d 450C0000 		.4byte	0xc45
ARM GAS  C:\Users\ADMINI~1\AppData\Local\Temp\ccKLo23z.s 			page 56


 2052 0761 1C       		.byte	0x1c
 2053 0762 0E       		.uleb128 0xe
 2054 0763 DA0E0000 		.4byte	.LASF225
 2055 0767 05       		.byte	0x5
 2056 0768 DF03     		.2byte	0x3df
 2057 076a 510C0000 		.4byte	0xc51
 2058 076e 20       		.byte	0x20
 2059 076f 0E       		.uleb128 0xe
 2060 0770 34050000 		.4byte	.LASF226
 2061 0774 05       		.byte	0x5
 2062 0775 E003     		.2byte	0x3e0
 2063 0777 330C0000 		.4byte	0xc33
 2064 077b 24       		.byte	0x24
 2065 077c 0E       		.uleb128 0xe
 2066 077d CC010000 		.4byte	.LASF227
 2067 0781 05       		.byte	0x5
 2068 0782 E103     		.2byte	0x3e1
 2069 0784 36010000 		.4byte	0x136
 2070 0788 28       		.byte	0x28
 2071 0789 0F       		.uleb128 0xf
 2072 078a 545300   		.ascii	"TS\000"
 2073 078d 05       		.byte	0x5
 2074 078e E303     		.2byte	0x3e3
 2075 0790 E9000000 		.4byte	0xe9
 2076 0794 2C       		.byte	0x2c
 2077 0795 00       		.byte	0
 2078 0796 09       		.uleb128 0x9
 2079 0797 F3080000 		.4byte	.LASF228
 2080 079b 05       		.byte	0x5
 2081 079c CC02     		.2byte	0x2cc
 2082 079e A2070000 		.4byte	0x7a2
 2083 07a2 0D       		.uleb128 0xd
 2084 07a3 000C0000 		.4byte	.LASF229
 2085 07a7 30       		.byte	0x30
 2086 07a8 05       		.byte	0x5
 2087 07a9 F303     		.2byte	0x3f3
 2088 07ab 0B080000 		.4byte	0x80b
 2089 07af 0E       		.uleb128 0xe
 2090 07b0 5C0A0000 		.4byte	.LASF219
 2091 07b4 05       		.byte	0x5
 2092 07b5 F603     		.2byte	0x3f6
 2093 07b7 4C010000 		.4byte	0x14c
 2094 07bb 00       		.byte	0
 2095 07bc 0E       		.uleb128 0xe
 2096 07bd 400A0000 		.4byte	.LASF220
 2097 07c1 05       		.byte	0x5
 2098 07c2 F903     		.2byte	0x3f9
 2099 07c4 450C0000 		.4byte	0xc45
 2100 07c8 04       		.byte	0x4
 2101 07c9 0E       		.uleb128 0xe
 2102 07ca 840F0000 		.4byte	.LASF221
 2103 07ce 05       		.byte	0x5
 2104 07cf FB03     		.2byte	0x3fb
 2105 07d1 8A0B0000 		.4byte	0xb8a
 2106 07d5 08       		.byte	0x8
 2107 07d6 0E       		.uleb128 0xe
 2108 07d7 C3030000 		.4byte	.LASF222
ARM GAS  C:\Users\ADMINI~1\AppData\Local\Temp\ccKLo23z.s 			page 57


 2109 07db 05       		.byte	0x5
 2110 07dc FD03     		.2byte	0x3fd
 2111 07de 570C0000 		.4byte	0xc57
 2112 07e2 14       		.byte	0x14
 2113 07e3 0E       		.uleb128 0xe
 2114 07e4 DB030000 		.4byte	.LASF223
 2115 07e8 05       		.byte	0x5
 2116 07e9 FE03     		.2byte	0x3fe
 2117 07eb 570C0000 		.4byte	0xc57
 2118 07ef 18       		.byte	0x18
 2119 07f0 0E       		.uleb128 0xe
 2120 07f1 AF110000 		.4byte	.LASF224
 2121 07f5 05       		.byte	0x5
 2122 07f6 FF03     		.2byte	0x3ff
 2123 07f8 450C0000 		.4byte	0xc45
 2124 07fc 1C       		.byte	0x1c
 2125 07fd 0E       		.uleb128 0xe
 2126 07fe 000A0000 		.4byte	.LASF230
 2127 0802 05       		.byte	0x5
 2128 0803 0204     		.2byte	0x402
 2129 0805 A0060000 		.4byte	0x6a0
 2130 0809 20       		.byte	0x20
 2131 080a 00       		.byte	0
 2132 080b 09       		.uleb128 0x9
 2133 080c 55110000 		.4byte	.LASF231
 2134 0810 05       		.byte	0x5
 2135 0811 D402     		.2byte	0x2d4
 2136 0813 9E000000 		.4byte	0x9e
 2137 0817 09       		.uleb128 0x9
 2138 0818 BF100000 		.4byte	.LASF232
 2139 081c 05       		.byte	0x5
 2140 081d D902     		.2byte	0x2d9
 2141 081f 23080000 		.4byte	0x823
 2142 0823 0D       		.uleb128 0xd
 2143 0824 00000000 		.4byte	.LASF233
 2144 0828 C4       		.byte	0xc4
 2145 0829 05       		.byte	0x5
 2146 082a 5004     		.2byte	0x450
 2147 082c C70A0000 		.4byte	0xac7
 2148 0830 0E       		.uleb128 0xe
 2149 0831 AB0A0000 		.4byte	.LASF234
 2150 0835 05       		.byte	0x5
 2151 0836 5104     		.2byte	0x451
 2152 0838 5D0C0000 		.4byte	0xc5d
 2153 083c 00       		.byte	0
 2154 083d 0E       		.uleb128 0xe
 2155 083e 3C100000 		.4byte	.LASF235
 2156 0842 05       		.byte	0x5
 2157 0843 5304     		.2byte	0x453
 2158 0845 AF000000 		.4byte	0xaf
 2159 0849 04       		.byte	0x4
 2160 084a 0E       		.uleb128 0xe
 2161 084b 400A0000 		.4byte	.LASF220
 2162 084f 05       		.byte	0x5
 2163 0850 5604     		.2byte	0x456
 2164 0852 450C0000 		.4byte	0xc45
 2165 0856 08       		.byte	0x8
ARM GAS  C:\Users\ADMINI~1\AppData\Local\Temp\ccKLo23z.s 			page 58


 2166 0857 0E       		.uleb128 0xe
 2167 0858 B30D0000 		.4byte	.LASF236
 2168 085c 05       		.byte	0x5
 2169 085d 5A04     		.2byte	0x45a
 2170 085f 5D0C0000 		.4byte	0xc5d
 2171 0863 0C       		.byte	0xc
 2172 0864 0E       		.uleb128 0xe
 2173 0865 6F0D0000 		.4byte	.LASF205
 2174 0869 05       		.byte	0x5
 2175 086a 5D04     		.2byte	0x45d
 2176 086c 330C0000 		.4byte	0xc33
 2177 0870 10       		.byte	0x10
 2178 0871 0E       		.uleb128 0xe
 2179 0872 85090000 		.4byte	.LASF237
 2180 0876 05       		.byte	0x5
 2181 0877 5E04     		.2byte	0x45e
 2182 0879 330C0000 		.4byte	0xc33
 2183 087d 14       		.byte	0x14
 2184 087e 0E       		.uleb128 0xe
 2185 087f 4F0C0000 		.4byte	.LASF238
 2186 0883 05       		.byte	0x5
 2187 0884 6104     		.2byte	0x461
 2188 0886 330C0000 		.4byte	0xc33
 2189 088a 18       		.byte	0x18
 2190 088b 0E       		.uleb128 0xe
 2191 088c 5A080000 		.4byte	.LASF239
 2192 0890 05       		.byte	0x5
 2193 0891 6204     		.2byte	0x462
 2194 0893 330C0000 		.4byte	0xc33
 2195 0897 1C       		.byte	0x1c
 2196 0898 0E       		.uleb128 0xe
 2197 0899 BF0D0000 		.4byte	.LASF240
 2198 089d 05       		.byte	0x5
 2199 089e 6404     		.2byte	0x464
 2200 08a0 630C0000 		.4byte	0xc63
 2201 08a4 20       		.byte	0x20
 2202 08a5 0E       		.uleb128 0xe
 2203 08a6 E7060000 		.4byte	.LASF241
 2204 08aa 05       		.byte	0x5
 2205 08ab 6804     		.2byte	0x468
 2206 08ad 5D0C0000 		.4byte	0xc5d
 2207 08b1 24       		.byte	0x24
 2208 08b2 0E       		.uleb128 0xe
 2209 08b3 050A0000 		.4byte	.LASF242
 2210 08b7 05       		.byte	0x5
 2211 08b8 7004     		.2byte	0x470
 2212 08ba 0B080000 		.4byte	0x80b
 2213 08be 28       		.byte	0x28
 2214 08bf 0E       		.uleb128 0xe
 2215 08c0 C1110000 		.4byte	.LASF243
 2216 08c4 05       		.byte	0x5
 2217 08c5 7104     		.2byte	0x471
 2218 08c7 AF000000 		.4byte	0xaf
 2219 08cb 2C       		.byte	0x2c
 2220 08cc 0E       		.uleb128 0xe
 2221 08cd 9D0F0000 		.4byte	.LASF244
 2222 08d1 05       		.byte	0x5
ARM GAS  C:\Users\ADMINI~1\AppData\Local\Temp\ccKLo23z.s 			page 59


 2223 08d2 7404     		.2byte	0x474
 2224 08d4 390C0000 		.4byte	0xc39
 2225 08d8 30       		.byte	0x30
 2226 08d9 0E       		.uleb128 0xe
 2227 08da 6F040000 		.4byte	.LASF245
 2228 08de 05       		.byte	0x5
 2229 08df 7504     		.2byte	0x475
 2230 08e1 83010000 		.4byte	0x183
 2231 08e5 34       		.byte	0x34
 2232 08e6 0E       		.uleb128 0xe
 2233 08e7 480A0000 		.4byte	.LASF246
 2234 08eb 05       		.byte	0x5
 2235 08ec 7604     		.2byte	0x476
 2236 08ee 8E010000 		.4byte	0x18e
 2237 08f2 35       		.byte	0x35
 2238 08f3 0E       		.uleb128 0xe
 2239 08f4 57070000 		.4byte	.LASF247
 2240 08f8 05       		.byte	0x5
 2241 08f9 7804     		.2byte	0x478
 2242 08fb 83010000 		.4byte	0x183
 2243 08ff 36       		.byte	0x36
 2244 0900 0E       		.uleb128 0xe
 2245 0901 E9120000 		.4byte	.LASF248
 2246 0905 05       		.byte	0x5
 2247 0906 7904     		.2byte	0x479
 2248 0908 62010000 		.4byte	0x162
 2249 090c 37       		.byte	0x37
 2250 090d 0E       		.uleb128 0xe
 2251 090e EA080000 		.4byte	.LASF249
 2252 0912 05       		.byte	0x5
 2253 0913 7B04     		.2byte	0x47b
 2254 0915 62010000 		.4byte	0x162
 2255 0919 38       		.byte	0x38
 2256 091a 0E       		.uleb128 0xe
 2257 091b 96020000 		.4byte	.LASF250
 2258 091f 05       		.byte	0x5
 2259 0920 7C04     		.2byte	0x47c
 2260 0922 510C0000 		.4byte	0xc51
 2261 0926 3C       		.byte	0x3c
 2262 0927 0E       		.uleb128 0xe
 2263 0928 DF060000 		.4byte	.LASF251
 2264 092c 05       		.byte	0x5
 2265 092d 8004     		.2byte	0x480
 2266 092f C7000000 		.4byte	0xc7
 2267 0933 40       		.byte	0x40
 2268 0934 0F       		.uleb128 0xf
 2269 0935 4F707400 		.ascii	"Opt\000"
 2270 0939 05       		.byte	0x5
 2271 093a 8204     		.2byte	0x482
 2272 093c 57010000 		.4byte	0x157
 2273 0940 44       		.byte	0x44
 2274 0941 0F       		.uleb128 0xf
 2275 0942 545300   		.ascii	"TS\000"
 2276 0945 05       		.byte	0x5
 2277 0946 8804     		.2byte	0x488
 2278 0948 E9000000 		.4byte	0xe9
 2279 094c 48       		.byte	0x48
ARM GAS  C:\Users\ADMINI~1\AppData\Local\Temp\ccKLo23z.s 			page 60


 2280 094d 0E       		.uleb128 0xe
 2281 094e AC0F0000 		.4byte	.LASF252
 2282 0952 05       		.byte	0x5
 2283 0953 8D04     		.2byte	0x48d
 2284 0955 78010000 		.4byte	0x178
 2285 0959 4C       		.byte	0x4c
 2286 095a 0E       		.uleb128 0xe
 2287 095b B90F0000 		.4byte	.LASF253
 2288 095f 05       		.byte	0x5
 2289 0960 9104     		.2byte	0x491
 2290 0962 99010000 		.4byte	0x199
 2291 0966 50       		.byte	0x50
 2292 0967 0E       		.uleb128 0xe
 2293 0968 2A080000 		.4byte	.LASF254
 2294 096c 05       		.byte	0x5
 2295 096d 9204     		.2byte	0x492
 2296 096f 99010000 		.4byte	0x199
 2297 0973 54       		.byte	0x54
 2298 0974 0E       		.uleb128 0xe
 2299 0975 82120000 		.4byte	.LASF206
 2300 0979 05       		.byte	0x5
 2301 097a 9B04     		.2byte	0x49b
 2302 097c AF000000 		.4byte	0xaf
 2303 0980 58       		.byte	0x58
 2304 0981 0E       		.uleb128 0xe
 2305 0982 F00F0000 		.4byte	.LASF207
 2306 0986 05       		.byte	0x5
 2307 0987 9C04     		.2byte	0x49c
 2308 0989 2B010000 		.4byte	0x12b
 2309 098d 5C       		.byte	0x5c
 2310 098e 0E       		.uleb128 0xe
 2311 098f 000A0000 		.4byte	.LASF230
 2312 0993 05       		.byte	0x5
 2313 0994 A004     		.2byte	0x4a0
 2314 0996 A0060000 		.4byte	0x6a0
 2315 099a 60       		.byte	0x60
 2316 099b 0E       		.uleb128 0xe
 2317 099c 8D0D0000 		.4byte	.LASF255
 2318 09a0 05       		.byte	0x5
 2319 09a1 A204     		.2byte	0x4a2
 2320 09a3 E9000000 		.4byte	0xe9
 2321 09a7 70       		.byte	0x70
 2322 09a8 0E       		.uleb128 0xe
 2323 09a9 F8080000 		.4byte	.LASF256
 2324 09ad 05       		.byte	0x5
 2325 09ae A304     		.2byte	0x4a3
 2326 09b0 E9000000 		.4byte	0xe9
 2327 09b4 74       		.byte	0x74
 2328 09b5 0E       		.uleb128 0xe
 2329 09b6 A7130000 		.4byte	.LASF257
 2330 09ba 05       		.byte	0x5
 2331 09bb A804     		.2byte	0x4a8
 2332 09bd 690C0000 		.4byte	0xc69
 2333 09c1 78       		.byte	0x78
 2334 09c2 0E       		.uleb128 0xe
 2335 09c3 08050000 		.4byte	.LASF258
 2336 09c7 05       		.byte	0x5
ARM GAS  C:\Users\ADMINI~1\AppData\Local\Temp\ccKLo23z.s 			page 61


 2337 09c8 AC04     		.2byte	0x4ac
 2338 09ca 15010000 		.4byte	0x115
 2339 09ce 7C       		.byte	0x7c
 2340 09cf 0E       		.uleb128 0xe
 2341 09d0 98080000 		.4byte	.LASF259
 2342 09d4 05       		.byte	0x5
 2343 09d5 AD04     		.2byte	0x4ad
 2344 09d7 15010000 		.4byte	0x115
 2345 09db 80       		.byte	0x80
 2346 09dc 0E       		.uleb128 0xe
 2347 09dd 42020000 		.4byte	.LASF260
 2348 09e1 05       		.byte	0x5
 2349 09e2 AE04     		.2byte	0x4ae
 2350 09e4 57010000 		.4byte	0x157
 2351 09e8 84       		.byte	0x84
 2352 09e9 0E       		.uleb128 0xe
 2353 09ea F50B0000 		.4byte	.LASF261
 2354 09ee 05       		.byte	0x5
 2355 09ef B204     		.2byte	0x4b2
 2356 09f1 36010000 		.4byte	0x136
 2357 09f5 86       		.byte	0x86
 2358 09f6 0E       		.uleb128 0xe
 2359 09f7 07130000 		.4byte	.LASF262
 2360 09fb 05       		.byte	0x5
 2361 09fc B604     		.2byte	0x4b6
 2362 09fe F4000000 		.4byte	0xf4
 2363 0a02 88       		.byte	0x88
 2364 0a03 0E       		.uleb128 0xe
 2365 0a04 780F0000 		.4byte	.LASF263
 2366 0a08 05       		.byte	0x5
 2367 0a09 B704     		.2byte	0x4b7
 2368 0a0b F4000000 		.4byte	0xf4
 2369 0a0f 8A       		.byte	0x8a
 2370 0a10 0E       		.uleb128 0xe
 2371 0a11 40050000 		.4byte	.LASF264
 2372 0a15 05       		.byte	0x5
 2373 0a16 B804     		.2byte	0x4b8
 2374 0a18 FF000000 		.4byte	0xff
 2375 0a1c 8C       		.byte	0x8c
 2376 0a1d 0E       		.uleb128 0xe
 2377 0a1e 050C0000 		.4byte	.LASF265
 2378 0a22 05       		.byte	0x5
 2379 0a23 B904     		.2byte	0x4b9
 2380 0a25 E9000000 		.4byte	0xe9
 2381 0a29 90       		.byte	0x90
 2382 0a2a 0E       		.uleb128 0xe
 2383 0a2b F40A0000 		.4byte	.LASF266
 2384 0a2f 05       		.byte	0x5
 2385 0a30 BA04     		.2byte	0x4ba
 2386 0a32 E9000000 		.4byte	0xe9
 2387 0a36 94       		.byte	0x94
 2388 0a37 0E       		.uleb128 0xe
 2389 0a38 370F0000 		.4byte	.LASF267
 2390 0a3c 05       		.byte	0x5
 2391 0a3d BB04     		.2byte	0x4bb
 2392 0a3f 0A010000 		.4byte	0x10a
 2393 0a43 98       		.byte	0x98
ARM GAS  C:\Users\ADMINI~1\AppData\Local\Temp\ccKLo23z.s 			page 62


 2394 0a44 0E       		.uleb128 0xe
 2395 0a45 CA0E0000 		.4byte	.LASF268
 2396 0a49 05       		.byte	0x5
 2397 0a4a BC04     		.2byte	0x4bc
 2398 0a4c 0A010000 		.4byte	0x10a
 2399 0a50 9C       		.byte	0x9c
 2400 0a51 0E       		.uleb128 0xe
 2401 0a52 330D0000 		.4byte	.LASF269
 2402 0a56 05       		.byte	0x5
 2403 0a57 BE04     		.2byte	0x4be
 2404 0a59 E9000000 		.4byte	0xe9
 2405 0a5d A0       		.byte	0xa0
 2406 0a5e 0E       		.uleb128 0xe
 2407 0a5f BB0E0000 		.4byte	.LASF270
 2408 0a63 05       		.byte	0x5
 2409 0a64 BF04     		.2byte	0x4bf
 2410 0a66 E9000000 		.4byte	0xe9
 2411 0a6a A4       		.byte	0xa4
 2412 0a6b 0E       		.uleb128 0xe
 2413 0a6c 38060000 		.4byte	.LASF271
 2414 0a70 05       		.byte	0x5
 2415 0a71 C304     		.2byte	0x4c3
 2416 0a73 C7000000 		.4byte	0xc7
 2417 0a77 A8       		.byte	0xa8
 2418 0a78 0E       		.uleb128 0xe
 2419 0a79 22080000 		.4byte	.LASF272
 2420 0a7d 05       		.byte	0x5
 2421 0a7e C404     		.2byte	0x4c4
 2422 0a80 C7000000 		.4byte	0xc7
 2423 0a84 AC       		.byte	0xac
 2424 0a85 0E       		.uleb128 0xe
 2425 0a86 950E0000 		.4byte	.LASF273
 2426 0a8a 05       		.byte	0x5
 2427 0a8b C804     		.2byte	0x4c8
 2428 0a8d E9000000 		.4byte	0xe9
 2429 0a91 B0       		.byte	0xb0
 2430 0a92 0E       		.uleb128 0xe
 2431 0a93 E6030000 		.4byte	.LASF274
 2432 0a97 05       		.byte	0x5
 2433 0a98 CB04     		.2byte	0x4cb
 2434 0a9a E9000000 		.4byte	0xe9
 2435 0a9e B4       		.byte	0xb4
 2436 0a9f 0E       		.uleb128 0xe
 2437 0aa0 C3030000 		.4byte	.LASF222
 2438 0aa4 05       		.byte	0x5
 2439 0aa5 CF04     		.2byte	0x4cf
 2440 0aa7 330C0000 		.4byte	0xc33
 2441 0aab B8       		.byte	0xb8
 2442 0aac 0E       		.uleb128 0xe
 2443 0aad DB030000 		.4byte	.LASF223
 2444 0ab1 05       		.byte	0x5
 2445 0ab2 D004     		.2byte	0x4d0
 2446 0ab4 330C0000 		.4byte	0xc33
 2447 0ab8 BC       		.byte	0xbc
 2448 0ab9 0E       		.uleb128 0xe
 2449 0aba AF110000 		.4byte	.LASF224
 2450 0abe 05       		.byte	0x5
ARM GAS  C:\Users\ADMINI~1\AppData\Local\Temp\ccKLo23z.s 			page 63


 2451 0abf D104     		.2byte	0x4d1
 2452 0ac1 450C0000 		.4byte	0xc45
 2453 0ac5 C0       		.byte	0xc0
 2454 0ac6 00       		.byte	0
 2455 0ac7 09       		.uleb128 0x9
 2456 0ac8 EA0E0000 		.4byte	.LASF275
 2457 0acc 05       		.byte	0x5
 2458 0acd E702     		.2byte	0x2e7
 2459 0acf D30A0000 		.4byte	0xad3
 2460 0ad3 0D       		.uleb128 0xd
 2461 0ad4 5D0E0000 		.4byte	.LASF276
 2462 0ad8 08       		.byte	0x8
 2463 0ad9 05       		.byte	0x5
 2464 0ada DF04     		.2byte	0x4df
 2465 0adc 080B0000 		.4byte	0xb08
 2466 0ae0 0E       		.uleb128 0xe
 2467 0ae1 91040000 		.4byte	.LASF277
 2468 0ae5 05       		.byte	0x5
 2469 0ae6 E004     		.2byte	0x4e0
 2470 0ae8 330C0000 		.4byte	0xc33
 2471 0aec 00       		.byte	0
 2472 0aed 0E       		.uleb128 0xe
 2473 0aee 9D010000 		.4byte	.LASF215
 2474 0af2 05       		.byte	0x5
 2475 0af3 E204     		.2byte	0x4e2
 2476 0af5 41010000 		.4byte	0x141
 2477 0af9 04       		.byte	0x4
 2478 0afa 0E       		.uleb128 0xe
 2479 0afb 98060000 		.4byte	.LASF278
 2480 0aff 05       		.byte	0x5
 2481 0b00 E304     		.2byte	0x4e3
 2482 0b02 41010000 		.4byte	0x141
 2483 0b06 06       		.byte	0x6
 2484 0b07 00       		.byte	0
 2485 0b08 09       		.uleb128 0x9
 2486 0b09 53060000 		.4byte	.LASF279
 2487 0b0d 05       		.byte	0x5
 2488 0b0e EC02     		.2byte	0x2ec
 2489 0b10 140B0000 		.4byte	0xb14
 2490 0b14 0D       		.uleb128 0xd
 2491 0b15 AE120000 		.4byte	.LASF280
 2492 0b19 20       		.byte	0x20
 2493 0b1a 05       		.byte	0x5
 2494 0b1b 2803     		.2byte	0x328
 2495 0b1d 8A0B0000 		.4byte	0xb8a
 2496 0b21 0E       		.uleb128 0xe
 2497 0b22 85090000 		.4byte	.LASF237
 2498 0b26 05       		.byte	0x5
 2499 0b27 2903     		.2byte	0x329
 2500 0b29 390C0000 		.4byte	0xc39
 2501 0b2d 00       		.byte	0
 2502 0b2e 0E       		.uleb128 0xe
 2503 0b2f 6F0D0000 		.4byte	.LASF205
 2504 0b33 05       		.byte	0x5
 2505 0b34 2A03     		.2byte	0x32a
 2506 0b36 390C0000 		.4byte	0xc39
 2507 0b3a 04       		.byte	0x4
ARM GAS  C:\Users\ADMINI~1\AppData\Local\Temp\ccKLo23z.s 			page 64


 2508 0b3b 0E       		.uleb128 0xe
 2509 0b3c 120B0000 		.4byte	.LASF281
 2510 0b40 05       		.byte	0x5
 2511 0b41 2B03     		.2byte	0x32b
 2512 0b43 330C0000 		.4byte	0xc33
 2513 0b47 08       		.byte	0x8
 2514 0b48 0E       		.uleb128 0xe
 2515 0b49 44130000 		.4byte	.LASF282
 2516 0b4d 05       		.byte	0x5
 2517 0b4e 2C03     		.2byte	0x32c
 2518 0b50 3F0C0000 		.4byte	0xc3f
 2519 0b54 0C       		.byte	0xc
 2520 0b55 0E       		.uleb128 0xe
 2521 0b56 CC0C0000 		.4byte	.LASF283
 2522 0b5a 05       		.byte	0x5
 2523 0b5b 2D03     		.2byte	0x32d
 2524 0b5d 3F0C0000 		.4byte	0xc3f
 2525 0b61 10       		.byte	0x10
 2526 0b62 0E       		.uleb128 0xe
 2527 0b63 D3040000 		.4byte	.LASF284
 2528 0b67 05       		.byte	0x5
 2529 0b68 2E03     		.2byte	0x32e
 2530 0b6a AF000000 		.4byte	0xaf
 2531 0b6e 14       		.byte	0x14
 2532 0b6f 0E       		.uleb128 0xe
 2533 0b70 740E0000 		.4byte	.LASF285
 2534 0b74 05       		.byte	0x5
 2535 0b75 2F03     		.2byte	0x32f
 2536 0b77 2B010000 		.4byte	0x12b
 2537 0b7b 18       		.byte	0x18
 2538 0b7c 0E       		.uleb128 0xe
 2539 0b7d 270E0000 		.4byte	.LASF286
 2540 0b81 05       		.byte	0x5
 2541 0b82 3103     		.2byte	0x331
 2542 0b84 E9000000 		.4byte	0xe9
 2543 0b88 1C       		.byte	0x1c
 2544 0b89 00       		.byte	0
 2545 0b8a 09       		.uleb128 0x9
 2546 0b8b 2A120000 		.4byte	.LASF287
 2547 0b8f 05       		.byte	0x5
 2548 0b90 ED02     		.2byte	0x2ed
 2549 0b92 960B0000 		.4byte	0xb96
 2550 0b96 0D       		.uleb128 0xd
 2551 0b97 5D130000 		.4byte	.LASF288
 2552 0b9b 0C       		.byte	0xc
 2553 0b9c 05       		.byte	0x5
 2554 0b9d 3603     		.2byte	0x336
 2555 0b9f CB0B0000 		.4byte	0xbcb
 2556 0ba3 0E       		.uleb128 0xe
 2557 0ba4 C40F0000 		.4byte	.LASF289
 2558 0ba8 05       		.byte	0x5
 2559 0ba9 3703     		.2byte	0x337
 2560 0bab 390C0000 		.4byte	0xc39
 2561 0baf 00       		.byte	0
 2562 0bb0 0E       		.uleb128 0xe
 2563 0bb1 99040000 		.4byte	.LASF290
 2564 0bb5 05       		.byte	0x5
ARM GAS  C:\Users\ADMINI~1\AppData\Local\Temp\ccKLo23z.s 			page 65


 2565 0bb6 3803     		.2byte	0x338
 2566 0bb8 390C0000 		.4byte	0xc39
 2567 0bbc 04       		.byte	0x4
 2568 0bbd 0E       		.uleb128 0xe
 2569 0bbe 9D010000 		.4byte	.LASF215
 2570 0bc2 05       		.byte	0x5
 2571 0bc3 3A03     		.2byte	0x33a
 2572 0bc5 41010000 		.4byte	0x141
 2573 0bc9 08       		.byte	0x8
 2574 0bca 00       		.byte	0
 2575 0bcb 09       		.uleb128 0x9
 2576 0bcc 4A0F0000 		.4byte	.LASF291
 2577 0bd0 05       		.byte	0x5
 2578 0bd1 EE02     		.2byte	0x2ee
 2579 0bd3 D70B0000 		.4byte	0xbd7
 2580 0bd7 0D       		.uleb128 0xd
 2581 0bd8 DD040000 		.4byte	.LASF292
 2582 0bdc 20       		.byte	0x20
 2583 0bdd 05       		.byte	0x5
 2584 0bde 4E03     		.2byte	0x34e
 2585 0be0 330C0000 		.4byte	0xc33
 2586 0be4 0E       		.uleb128 0xe
 2587 0be5 5C0A0000 		.4byte	.LASF219
 2588 0be9 05       		.byte	0x5
 2589 0bea 5003     		.2byte	0x350
 2590 0bec 4C010000 		.4byte	0x14c
 2591 0bf0 00       		.byte	0
 2592 0bf1 0E       		.uleb128 0xe
 2593 0bf2 400A0000 		.4byte	.LASF220
 2594 0bf6 05       		.byte	0x5
 2595 0bf7 5303     		.2byte	0x353
 2596 0bf9 450C0000 		.4byte	0xc45
 2597 0bfd 04       		.byte	0x4
 2598 0bfe 0E       		.uleb128 0xe
 2599 0bff 840F0000 		.4byte	.LASF221
 2600 0c03 05       		.byte	0x5
 2601 0c04 5503     		.2byte	0x355
 2602 0c06 8A0B0000 		.4byte	0xb8a
 2603 0c0a 08       		.byte	0x8
 2604 0c0b 0E       		.uleb128 0xe
 2605 0c0c C3030000 		.4byte	.LASF222
 2606 0c10 05       		.byte	0x5
 2607 0c11 5703     		.2byte	0x357
 2608 0c13 AF000000 		.4byte	0xaf
 2609 0c17 14       		.byte	0x14
 2610 0c18 0E       		.uleb128 0xe
 2611 0c19 DB030000 		.4byte	.LASF223
 2612 0c1d 05       		.byte	0x5
 2613 0c1e 5803     		.2byte	0x358
 2614 0c20 AF000000 		.4byte	0xaf
 2615 0c24 18       		.byte	0x18
 2616 0c25 0E       		.uleb128 0xe
 2617 0c26 AF110000 		.4byte	.LASF224
 2618 0c2a 05       		.byte	0x5
 2619 0c2b 5903     		.2byte	0x359
 2620 0c2d 450C0000 		.4byte	0xc45
 2621 0c31 1C       		.byte	0x1c
ARM GAS  C:\Users\ADMINI~1\AppData\Local\Temp\ccKLo23z.s 			page 66


 2622 0c32 00       		.byte	0
 2623 0c33 05       		.uleb128 0x5
 2624 0c34 04       		.byte	0x4
 2625 0c35 17080000 		.4byte	0x817
 2626 0c39 05       		.uleb128 0x5
 2627 0c3a 04       		.byte	0x4
 2628 0c3b 080B0000 		.4byte	0xb08
 2629 0c3f 05       		.uleb128 0x5
 2630 0c40 04       		.byte	0x4
 2631 0c41 CB0B0000 		.4byte	0xbcb
 2632 0c45 05       		.uleb128 0x5
 2633 0c46 04       		.byte	0x4
 2634 0c47 25000000 		.4byte	0x25
 2635 0c4b 05       		.uleb128 0x5
 2636 0c4c 04       		.byte	0x4
 2637 0c4d 52060000 		.4byte	0x652
 2638 0c51 05       		.uleb128 0x5
 2639 0c52 04       		.byte	0x4
 2640 0c53 FB060000 		.4byte	0x6fb
 2641 0c57 05       		.uleb128 0x5
 2642 0c58 04       		.byte	0x4
 2643 0c59 96070000 		.4byte	0x796
 2644 0c5d 05       		.uleb128 0x5
 2645 0c5e 04       		.byte	0x4
 2646 0c5f BC000000 		.4byte	0xbc
 2647 0c63 05       		.uleb128 0x5
 2648 0c64 04       		.byte	0x4
 2649 0c65 C70A0000 		.4byte	0xac7
 2650 0c69 10       		.uleb128 0x10
 2651 0c6a 6D010000 		.4byte	0x16d
 2652 0c6e 790C0000 		.4byte	0xc79
 2653 0c72 11       		.uleb128 0x11
 2654 0c73 790C0000 		.4byte	0xc79
 2655 0c77 00       		.byte	0
 2656 0c78 00       		.byte	0
 2657 0c79 03       		.uleb128 0x3
 2658 0c7a 04       		.byte	0x4
 2659 0c7b 07       		.byte	0x7
 2660 0c7c 43100000 		.4byte	.LASF293
 2661 0c80 12       		.uleb128 0x12
 2662 0c81 560F0000 		.4byte	.LASF308
 2663 0c85 01       		.byte	0x1
 2664 0c86 49       		.byte	0x49
 2665 0c87 00000000 		.4byte	.LFB0
 2666 0c8b BC000000 		.4byte	.LFE0-.LFB0
 2667 0c8f 01       		.uleb128 0x1
 2668 0c90 9C       		.byte	0x9c
 2669 0c91 DC0C0000 		.4byte	0xcdc
 2670 0c95 13       		.uleb128 0x13
 2671 0c96 705F7100 		.ascii	"p_q\000"
 2672 0c9a 01       		.byte	0x1
 2673 0c9b 49       		.byte	0x49
 2674 0c9c 570C0000 		.4byte	0xc57
 2675 0ca0 02       		.uleb128 0x2
 2676 0ca1 91       		.byte	0x91
 2677 0ca2 6C       		.sleb128 -20
 2678 0ca3 14       		.uleb128 0x14
ARM GAS  C:\Users\ADMINI~1\AppData\Local\Temp\ccKLo23z.s 			page 67


 2679 0ca4 22090000 		.4byte	.LASF294
 2680 0ca8 01       		.byte	0x1
 2681 0ca9 4A       		.byte	0x4a
 2682 0caa 450C0000 		.4byte	0xc45
 2683 0cae 02       		.uleb128 0x2
 2684 0caf 91       		.byte	0x91
 2685 0cb0 68       		.sleb128 -24
 2686 0cb1 14       		.uleb128 0x14
 2687 0cb2 0A0B0000 		.4byte	.LASF295
 2688 0cb6 01       		.byte	0x1
 2689 0cb7 4B       		.byte	0x4b
 2690 0cb8 20010000 		.4byte	0x120
 2691 0cbc 02       		.uleb128 0x2
 2692 0cbd 91       		.byte	0x91
 2693 0cbe 66       		.sleb128 -26
 2694 0cbf 14       		.uleb128 0x14
 2695 0cc0 66090000 		.4byte	.LASF296
 2696 0cc4 01       		.byte	0x1
 2697 0cc5 4C       		.byte	0x4c
 2698 0cc6 DC0C0000 		.4byte	0xcdc
 2699 0cca 02       		.uleb128 0x2
 2700 0ccb 91       		.byte	0x91
 2701 0ccc 60       		.sleb128 -32
 2702 0ccd 15       		.uleb128 0x15
 2703 0cce B6050000 		.4byte	.LASF300
 2704 0cd2 01       		.byte	0x1
 2705 0cd3 4F       		.byte	0x4f
 2706 0cd4 D2000000 		.4byte	0xd2
 2707 0cd8 02       		.uleb128 0x2
 2708 0cd9 91       		.byte	0x91
 2709 0cda 74       		.sleb128 -12
 2710 0cdb 00       		.byte	0
 2711 0cdc 05       		.uleb128 0x5
 2712 0cdd 04       		.byte	0x4
 2713 0cde 46060000 		.4byte	0x646
 2714 0ce2 16       		.uleb128 0x16
 2715 0ce3 3F0D0000 		.4byte	.LASF303
 2716 0ce7 01       		.byte	0x1
 2717 0ce8 A801     		.2byte	0x1a8
 2718 0cea AF000000 		.4byte	0xaf
 2719 0cee 00000000 		.4byte	.LFB1
 2720 0cf2 0C020000 		.4byte	.LFE1-.LFB1
 2721 0cf6 01       		.uleb128 0x1
 2722 0cf7 9C       		.byte	0x9c
 2723 0cf8 840D0000 		.4byte	0xd84
 2724 0cfc 17       		.uleb128 0x17
 2725 0cfd 705F7100 		.ascii	"p_q\000"
 2726 0d01 01       		.byte	0x1
 2727 0d02 A801     		.2byte	0x1a8
 2728 0d04 570C0000 		.4byte	0xc57
 2729 0d08 02       		.uleb128 0x2
 2730 0d09 91       		.byte	0x91
 2731 0d0a 4C       		.sleb128 -52
 2732 0d0b 18       		.uleb128 0x18
 2733 0d0c 46110000 		.4byte	.LASF297
 2734 0d10 01       		.byte	0x1
 2735 0d11 A901     		.2byte	0x1a9
ARM GAS  C:\Users\ADMINI~1\AppData\Local\Temp\ccKLo23z.s 			page 68


 2736 0d13 99010000 		.4byte	0x199
 2737 0d17 02       		.uleb128 0x2
 2738 0d18 91       		.byte	0x91
 2739 0d19 48       		.sleb128 -56
 2740 0d1a 17       		.uleb128 0x17
 2741 0d1b 6F707400 		.ascii	"opt\000"
 2742 0d1f 01       		.byte	0x1
 2743 0d20 AA01     		.2byte	0x1aa
 2744 0d22 57010000 		.4byte	0x157
 2745 0d26 02       		.uleb128 0x2
 2746 0d27 91       		.byte	0x91
 2747 0d28 46       		.sleb128 -58
 2748 0d29 18       		.uleb128 0x18
 2749 0d2a D8020000 		.4byte	.LASF298
 2750 0d2e 01       		.byte	0x1
 2751 0d2f AB01     		.2byte	0x1ab
 2752 0d31 840D0000 		.4byte	0xd84
 2753 0d35 02       		.uleb128 0x2
 2754 0d36 91       		.byte	0x91
 2755 0d37 40       		.sleb128 -64
 2756 0d38 18       		.uleb128 0x18
 2757 0d39 AE0C0000 		.4byte	.LASF299
 2758 0d3d 01       		.byte	0x1
 2759 0d3e AC01     		.2byte	0x1ac
 2760 0d40 8A0D0000 		.4byte	0xd8a
 2761 0d44 02       		.uleb128 0x2
 2762 0d45 91       		.byte	0x91
 2763 0d46 00       		.sleb128 0
 2764 0d47 18       		.uleb128 0x18
 2765 0d48 66090000 		.4byte	.LASF296
 2766 0d4c 01       		.byte	0x1
 2767 0d4d AD01     		.2byte	0x1ad
 2768 0d4f DC0C0000 		.4byte	0xcdc
 2769 0d53 02       		.uleb128 0x2
 2770 0d54 91       		.byte	0x91
 2771 0d55 04       		.sleb128 4
 2772 0d56 19       		.uleb128 0x19
 2773 0d57 000B0000 		.4byte	.LASF301
 2774 0d5b 01       		.byte	0x1
 2775 0d5c AF01     		.2byte	0x1af
 2776 0d5e 080B0000 		.4byte	0xb08
 2777 0d62 02       		.uleb128 0x2
 2778 0d63 91       		.byte	0x91
 2779 0d64 50       		.sleb128 -48
 2780 0d65 19       		.uleb128 0x19
 2781 0d66 A1040000 		.4byte	.LASF302
 2782 0d6a 01       		.byte	0x1
 2783 0d6b B001     		.2byte	0x1b0
 2784 0d6d AF000000 		.4byte	0xaf
 2785 0d71 02       		.uleb128 0x2
 2786 0d72 91       		.byte	0x91
 2787 0d73 74       		.sleb128 -12
 2788 0d74 19       		.uleb128 0x19
 2789 0d75 B6050000 		.4byte	.LASF300
 2790 0d79 01       		.byte	0x1
 2791 0d7a B101     		.2byte	0x1b1
 2792 0d7c D2000000 		.4byte	0xd2
ARM GAS  C:\Users\ADMINI~1\AppData\Local\Temp\ccKLo23z.s 			page 69


 2793 0d80 02       		.uleb128 0x2
 2794 0d81 91       		.byte	0x91
 2795 0d82 70       		.sleb128 -16
 2796 0d83 00       		.byte	0
 2797 0d84 05       		.uleb128 0x5
 2798 0d85 04       		.byte	0x4
 2799 0d86 2B010000 		.4byte	0x12b
 2800 0d8a 05       		.uleb128 0x5
 2801 0d8b 04       		.byte	0x4
 2802 0d8c E9000000 		.4byte	0xe9
 2803 0d90 16       		.uleb128 0x16
 2804 0d91 6B100000 		.4byte	.LASF304
 2805 0d95 01       		.byte	0x1
 2806 0d96 8702     		.2byte	0x287
 2807 0d98 41010000 		.4byte	0x141
 2808 0d9c 00000000 		.4byte	.LFB2
 2809 0da0 34010000 		.4byte	.LFE2-.LFB2
 2810 0da4 01       		.uleb128 0x1
 2811 0da5 9C       		.byte	0x9c
 2812 0da6 220E0000 		.4byte	0xe22
 2813 0daa 17       		.uleb128 0x17
 2814 0dab 705F7100 		.ascii	"p_q\000"
 2815 0daf 01       		.byte	0x1
 2816 0db0 8702     		.2byte	0x287
 2817 0db2 570C0000 		.4byte	0xc57
 2818 0db6 02       		.uleb128 0x2
 2819 0db7 91       		.byte	0x91
 2820 0db8 5C       		.sleb128 -36
 2821 0db9 17       		.uleb128 0x17
 2822 0dba 6F707400 		.ascii	"opt\000"
 2823 0dbe 01       		.byte	0x1
 2824 0dbf 8802     		.2byte	0x288
 2825 0dc1 57010000 		.4byte	0x157
 2826 0dc5 02       		.uleb128 0x2
 2827 0dc6 91       		.byte	0x91
 2828 0dc7 5A       		.sleb128 -38
 2829 0dc8 18       		.uleb128 0x18
 2830 0dc9 66090000 		.4byte	.LASF296
 2831 0dcd 01       		.byte	0x1
 2832 0dce 8902     		.2byte	0x289
 2833 0dd0 DC0C0000 		.4byte	0xcdc
 2834 0dd4 02       		.uleb128 0x2
 2835 0dd5 91       		.byte	0x91
 2836 0dd6 54       		.sleb128 -44
 2837 0dd7 19       		.uleb128 0x19
 2838 0dd8 4A040000 		.4byte	.LASF305
 2839 0ddc 01       		.byte	0x1
 2840 0ddd 8B02     		.2byte	0x28b
 2841 0ddf 220E0000 		.4byte	0xe22
 2842 0de3 02       		.uleb128 0x2
 2843 0de4 91       		.byte	0x91
 2844 0de5 6C       		.sleb128 -20
 2845 0de6 19       		.uleb128 0x19
 2846 0de7 C40A0000 		.4byte	.LASF306
 2847 0deb 01       		.byte	0x1
 2848 0dec 8C02     		.2byte	0x28c
 2849 0dee 330C0000 		.4byte	0xc33
ARM GAS  C:\Users\ADMINI~1\AppData\Local\Temp\ccKLo23z.s 			page 70


 2850 0df2 02       		.uleb128 0x2
 2851 0df3 91       		.byte	0x91
 2852 0df4 64       		.sleb128 -28
 2853 0df5 1A       		.uleb128 0x1a
 2854 0df6 747300   		.ascii	"ts\000"
 2855 0df9 01       		.byte	0x1
 2856 0dfa 8D02     		.2byte	0x28d
 2857 0dfc E9000000 		.4byte	0xe9
 2858 0e00 02       		.uleb128 0x2
 2859 0e01 91       		.byte	0x91
 2860 0e02 68       		.sleb128 -24
 2861 0e03 19       		.uleb128 0x19
 2862 0e04 990B0000 		.4byte	.LASF307
 2863 0e08 01       		.byte	0x1
 2864 0e09 8E02     		.2byte	0x28e
 2865 0e0b 41010000 		.4byte	0x141
 2866 0e0f 02       		.uleb128 0x2
 2867 0e10 91       		.byte	0x91
 2868 0e11 76       		.sleb128 -10
 2869 0e12 19       		.uleb128 0x19
 2870 0e13 B6050000 		.4byte	.LASF300
 2871 0e17 01       		.byte	0x1
 2872 0e18 8F02     		.2byte	0x28f
 2873 0e1a D2000000 		.4byte	0xd2
 2874 0e1e 02       		.uleb128 0x2
 2875 0e1f 91       		.byte	0x91
 2876 0e20 70       		.sleb128 -16
 2877 0e21 00       		.byte	0
 2878 0e22 05       		.uleb128 0x5
 2879 0e23 04       		.byte	0x4
 2880 0e24 8A0B0000 		.4byte	0xb8a
 2881 0e28 1B       		.uleb128 0x1b
 2882 0e29 7E070000 		.4byte	.LASF309
 2883 0e2d 01       		.byte	0x1
 2884 0e2e 1C03     		.2byte	0x31c
 2885 0e30 00000000 		.4byte	.LFB3
 2886 0e34 B0000000 		.4byte	.LFE3-.LFB3
 2887 0e38 01       		.uleb128 0x1
 2888 0e39 9C       		.byte	0x9c
 2889 0e3a 980E0000 		.4byte	0xe98
 2890 0e3e 17       		.uleb128 0x17
 2891 0e3f 705F7100 		.ascii	"p_q\000"
 2892 0e43 01       		.byte	0x1
 2893 0e44 1C03     		.2byte	0x31c
 2894 0e46 570C0000 		.4byte	0xc57
 2895 0e4a 02       		.uleb128 0x2
 2896 0e4b 91       		.byte	0x91
 2897 0e4c 64       		.sleb128 -28
 2898 0e4d 18       		.uleb128 0x18
 2899 0e4e A1040000 		.4byte	.LASF302
 2900 0e52 01       		.byte	0x1
 2901 0e53 1D03     		.2byte	0x31d
 2902 0e55 AF000000 		.4byte	0xaf
 2903 0e59 02       		.uleb128 0x2
 2904 0e5a 91       		.byte	0x91
 2905 0e5b 60       		.sleb128 -32
 2906 0e5c 18       		.uleb128 0x18
ARM GAS  C:\Users\ADMINI~1\AppData\Local\Temp\ccKLo23z.s 			page 71


 2907 0e5d 37120000 		.4byte	.LASF310
 2908 0e61 01       		.byte	0x1
 2909 0e62 1E03     		.2byte	0x31e
 2910 0e64 2B010000 		.4byte	0x12b
 2911 0e68 02       		.uleb128 0x2
 2912 0e69 91       		.byte	0x91
 2913 0e6a 5E       		.sleb128 -34
 2914 0e6b 17       		.uleb128 0x17
 2915 0e6c 6F707400 		.ascii	"opt\000"
 2916 0e70 01       		.byte	0x1
 2917 0e71 1F03     		.2byte	0x31f
 2918 0e73 57010000 		.4byte	0x157
 2919 0e77 02       		.uleb128 0x2
 2920 0e78 91       		.byte	0x91
 2921 0e79 5C       		.sleb128 -36
 2922 0e7a 18       		.uleb128 0x18
 2923 0e7b 66090000 		.4byte	.LASF296
 2924 0e7f 01       		.byte	0x1
 2925 0e80 2003     		.2byte	0x320
 2926 0e82 DC0C0000 		.4byte	0xcdc
 2927 0e86 02       		.uleb128 0x2
 2928 0e87 91       		.byte	0x91
 2929 0e88 00       		.sleb128 0
 2930 0e89 1A       		.uleb128 0x1a
 2931 0e8a 747300   		.ascii	"ts\000"
 2932 0e8d 01       		.byte	0x1
 2933 0e8e 2203     		.2byte	0x322
 2934 0e90 E9000000 		.4byte	0xe9
 2935 0e94 02       		.uleb128 0x2
 2936 0e95 91       		.byte	0x91
 2937 0e96 6C       		.sleb128 -20
 2938 0e97 00       		.byte	0
 2939 0e98 1B       		.uleb128 0x1b
 2940 0e99 89040000 		.4byte	.LASF311
 2941 0e9d 01       		.byte	0x1
 2942 0e9e 8803     		.2byte	0x388
 2943 0ea0 00000000 		.4byte	.LFB4
 2944 0ea4 44000000 		.4byte	.LFE4-.LFB4
 2945 0ea8 01       		.uleb128 0x1
 2946 0ea9 9C       		.byte	0x9c
 2947 0eaa BE0E0000 		.4byte	0xebe
 2948 0eae 17       		.uleb128 0x17
 2949 0eaf 705F7100 		.ascii	"p_q\000"
 2950 0eb3 01       		.byte	0x1
 2951 0eb4 8803     		.2byte	0x388
 2952 0eb6 570C0000 		.4byte	0xc57
 2953 0eba 02       		.uleb128 0x2
 2954 0ebb 91       		.byte	0x91
 2955 0ebc 74       		.sleb128 -12
 2956 0ebd 00       		.byte	0
 2957 0ebe 1C       		.uleb128 0x1c
 2958 0ebf 15060000 		.4byte	.LASF312
 2959 0ec3 01       		.byte	0x1
 2960 0ec4 A803     		.2byte	0x3a8
 2961 0ec6 00000000 		.4byte	.LFB5
 2962 0eca 4C000000 		.4byte	.LFE5-.LFB5
 2963 0ece 01       		.uleb128 0x1
ARM GAS  C:\Users\ADMINI~1\AppData\Local\Temp\ccKLo23z.s 			page 72


 2964 0ecf 9C       		.byte	0x9c
 2965 0ed0 E40E0000 		.4byte	0xee4
 2966 0ed4 17       		.uleb128 0x17
 2967 0ed5 705F7100 		.ascii	"p_q\000"
 2968 0ed9 01       		.byte	0x1
 2969 0eda A803     		.2byte	0x3a8
 2970 0edc 570C0000 		.4byte	0xc57
 2971 0ee0 02       		.uleb128 0x2
 2972 0ee1 91       		.byte	0x91
 2973 0ee2 74       		.sleb128 -12
 2974 0ee3 00       		.byte	0
 2975 0ee4 1C       		.uleb128 0x1c
 2976 0ee5 B20A0000 		.4byte	.LASF313
 2977 0ee9 01       		.byte	0x1
 2978 0eea B703     		.2byte	0x3b7
 2979 0eec 00000000 		.4byte	.LFB6
 2980 0ef0 6C000000 		.4byte	.LFE6-.LFB6
 2981 0ef4 01       		.uleb128 0x1
 2982 0ef5 9C       		.byte	0x9c
 2983 0ef6 280F0000 		.4byte	0xf28
 2984 0efa 17       		.uleb128 0x17
 2985 0efb 705F7100 		.ascii	"p_q\000"
 2986 0eff 01       		.byte	0x1
 2987 0f00 B703     		.2byte	0x3b7
 2988 0f02 570C0000 		.4byte	0xc57
 2989 0f06 02       		.uleb128 0x2
 2990 0f07 91       		.byte	0x91
 2991 0f08 6C       		.sleb128 -20
 2992 0f09 19       		.uleb128 0x19
 2993 0f0a BB120000 		.4byte	.LASF314
 2994 0f0e 01       		.byte	0x1
 2995 0f0f B903     		.2byte	0x3b9
 2996 0f11 570C0000 		.4byte	0xc57
 2997 0f15 02       		.uleb128 0x2
 2998 0f16 91       		.byte	0x91
 2999 0f17 70       		.sleb128 -16
 3000 0f18 19       		.uleb128 0x19
 3001 0f19 11120000 		.4byte	.LASF315
 3002 0f1d 01       		.byte	0x1
 3003 0f1e BA03     		.2byte	0x3ba
 3004 0f20 570C0000 		.4byte	0xc57
 3005 0f24 02       		.uleb128 0x2
 3006 0f25 91       		.byte	0x91
 3007 0f26 74       		.sleb128 -12
 3008 0f27 00       		.byte	0
 3009 0f28 1B       		.uleb128 0x1b
 3010 0f29 DC010000 		.4byte	.LASF316
 3011 0f2d 01       		.byte	0x1
 3012 0f2e FA03     		.2byte	0x3fa
 3013 0f30 00000000 		.4byte	.LFB7
 3014 0f34 E6000000 		.4byte	.LFE7-.LFB7
 3015 0f38 01       		.uleb128 0x1
 3016 0f39 9C       		.byte	0x9c
 3017 0f3a F20F0000 		.4byte	0xff2
 3018 0f3e 17       		.uleb128 0x17
 3019 0f3f 705F7100 		.ascii	"p_q\000"
 3020 0f43 01       		.byte	0x1
ARM GAS  C:\Users\ADMINI~1\AppData\Local\Temp\ccKLo23z.s 			page 73


 3021 0f44 FA03     		.2byte	0x3fa
 3022 0f46 570C0000 		.4byte	0xc57
 3023 0f4a 02       		.uleb128 0x2
 3024 0f4b 91       		.byte	0x91
 3025 0f4c 54       		.sleb128 -44
 3026 0f4d 18       		.uleb128 0x18
 3027 0f4e A1040000 		.4byte	.LASF302
 3028 0f52 01       		.byte	0x1
 3029 0f53 FB03     		.2byte	0x3fb
 3030 0f55 AF000000 		.4byte	0xaf
 3031 0f59 02       		.uleb128 0x2
 3032 0f5a 91       		.byte	0x91
 3033 0f5b 50       		.sleb128 -48
 3034 0f5c 18       		.uleb128 0x18
 3035 0f5d 37120000 		.4byte	.LASF310
 3036 0f61 01       		.byte	0x1
 3037 0f62 FC03     		.2byte	0x3fc
 3038 0f64 2B010000 		.4byte	0x12b
 3039 0f68 02       		.uleb128 0x2
 3040 0f69 91       		.byte	0x91
 3041 0f6a 4E       		.sleb128 -50
 3042 0f6b 17       		.uleb128 0x17
 3043 0f6c 6F707400 		.ascii	"opt\000"
 3044 0f70 01       		.byte	0x1
 3045 0f71 FD03     		.2byte	0x3fd
 3046 0f73 57010000 		.4byte	0x157
 3047 0f77 02       		.uleb128 0x2
 3048 0f78 91       		.byte	0x91
 3049 0f79 4C       		.sleb128 -52
 3050 0f7a 17       		.uleb128 0x17
 3051 0f7b 747300   		.ascii	"ts\000"
 3052 0f7e 01       		.byte	0x1
 3053 0f7f FE03     		.2byte	0x3fe
 3054 0f81 E9000000 		.4byte	0xe9
 3055 0f85 02       		.uleb128 0x2
 3056 0f86 91       		.byte	0x91
 3057 0f87 00       		.sleb128 0
 3058 0f88 18       		.uleb128 0x18
 3059 0f89 66090000 		.4byte	.LASF296
 3060 0f8d 01       		.byte	0x1
 3061 0f8e FF03     		.2byte	0x3ff
 3062 0f90 DC0C0000 		.4byte	0xcdc
 3063 0f94 02       		.uleb128 0x2
 3064 0f95 91       		.byte	0x91
 3065 0f96 04       		.sleb128 4
 3066 0f97 19       		.uleb128 0x19
 3067 0f98 43070000 		.4byte	.LASF317
 3068 0f9c 01       		.byte	0x1
 3069 0f9d 0104     		.2byte	0x401
 3070 0f9f 57010000 		.4byte	0x157
 3071 0fa3 02       		.uleb128 0x2
 3072 0fa4 91       		.byte	0x91
 3073 0fa5 6E       		.sleb128 -18
 3074 0fa6 19       		.uleb128 0x19
 3075 0fa7 4A040000 		.4byte	.LASF305
 3076 0fab 01       		.byte	0x1
 3077 0fac 0204     		.2byte	0x402
ARM GAS  C:\Users\ADMINI~1\AppData\Local\Temp\ccKLo23z.s 			page 74


 3078 0fae 220E0000 		.4byte	0xe22
 3079 0fb2 02       		.uleb128 0x2
 3080 0fb3 91       		.byte	0x91
 3081 0fb4 60       		.sleb128 -32
 3082 0fb5 19       		.uleb128 0x19
 3083 0fb6 79090000 		.4byte	.LASF318
 3084 0fba 01       		.byte	0x1
 3085 0fbb 0304     		.2byte	0x403
 3086 0fbd 390C0000 		.4byte	0xc39
 3087 0fc1 02       		.uleb128 0x2
 3088 0fc2 91       		.byte	0x91
 3089 0fc3 68       		.sleb128 -24
 3090 0fc4 19       		.uleb128 0x19
 3091 0fc5 710C0000 		.4byte	.LASF319
 3092 0fc9 01       		.byte	0x1
 3093 0fca 0404     		.2byte	0x404
 3094 0fcc 390C0000 		.4byte	0xc39
 3095 0fd0 02       		.uleb128 0x2
 3096 0fd1 91       		.byte	0x91
 3097 0fd2 58       		.sleb128 -40
 3098 0fd3 19       		.uleb128 0x19
 3099 0fd4 C40A0000 		.4byte	.LASF306
 3100 0fd8 01       		.byte	0x1
 3101 0fd9 0504     		.2byte	0x405
 3102 0fdb 330C0000 		.4byte	0xc33
 3103 0fdf 02       		.uleb128 0x2
 3104 0fe0 91       		.byte	0x91
 3105 0fe1 5C       		.sleb128 -36
 3106 0fe2 19       		.uleb128 0x19
 3107 0fe3 B6050000 		.4byte	.LASF300
 3108 0fe7 01       		.byte	0x1
 3109 0fe8 0604     		.2byte	0x406
 3110 0fea D2000000 		.4byte	0xd2
 3111 0fee 02       		.uleb128 0x2
 3112 0fef 91       		.byte	0x91
 3113 0ff0 64       		.sleb128 -28
 3114 0ff1 00       		.byte	0
 3115 0ff2 1D       		.uleb128 0x1d
 3116 0ff3 A30D0000 		.4byte	.LASF320
 3117 0ff7 05       		.byte	0x5
 3118 0ff8 2405     		.2byte	0x524
 3119 0ffa 36010000 		.4byte	0x136
 3120 0ffe 1D       		.uleb128 0x1d
 3121 0fff 35070000 		.4byte	.LASF321
 3122 1003 05       		.byte	0x5
 3123 1004 6405     		.2byte	0x564
 3124 1006 570C0000 		.4byte	0xc57
 3125 100a 1D       		.uleb128 0x1d
 3126 100b 430F0000 		.4byte	.LASF322
 3127 100f 05       		.byte	0x5
 3128 1010 6505     		.2byte	0x565
 3129 1012 41010000 		.4byte	0x141
 3130 1016 1D       		.uleb128 0x1d
 3131 1017 18110000 		.4byte	.LASF323
 3132 101b 05       		.byte	0x5
 3133 101c 7905     		.2byte	0x579
 3134 101e 36010000 		.4byte	0x136
ARM GAS  C:\Users\ADMINI~1\AppData\Local\Temp\ccKLo23z.s 			page 75


 3135 1022 1D       		.uleb128 0x1d
 3136 1023 1A020000 		.4byte	.LASF324
 3137 1027 05       		.byte	0x5
 3138 1028 D505     		.2byte	0x5d5
 3139 102a 330C0000 		.4byte	0xc33
 3140 102e 00       		.byte	0
 3141              		.section	.debug_abbrev,"",%progbits
 3142              	.Ldebug_abbrev0:
 3143 0000 01       		.uleb128 0x1
 3144 0001 11       		.uleb128 0x11
 3145 0002 01       		.byte	0x1
 3146 0003 25       		.uleb128 0x25
 3147 0004 0E       		.uleb128 0xe
 3148 0005 13       		.uleb128 0x13
 3149 0006 0B       		.uleb128 0xb
 3150 0007 03       		.uleb128 0x3
 3151 0008 0E       		.uleb128 0xe
 3152 0009 1B       		.uleb128 0x1b
 3153 000a 0E       		.uleb128 0xe
 3154 000b 55       		.uleb128 0x55
 3155 000c 17       		.uleb128 0x17
 3156 000d 11       		.uleb128 0x11
 3157 000e 01       		.uleb128 0x1
 3158 000f 10       		.uleb128 0x10
 3159 0010 17       		.uleb128 0x17
 3160 0011 00       		.byte	0
 3161 0012 00       		.byte	0
 3162 0013 02       		.uleb128 0x2
 3163 0014 16       		.uleb128 0x16
 3164 0015 00       		.byte	0
 3165 0016 03       		.uleb128 0x3
 3166 0017 0E       		.uleb128 0xe
 3167 0018 3A       		.uleb128 0x3a
 3168 0019 0B       		.uleb128 0xb
 3169 001a 3B       		.uleb128 0x3b
 3170 001b 0B       		.uleb128 0xb
 3171 001c 49       		.uleb128 0x49
 3172 001d 13       		.uleb128 0x13
 3173 001e 00       		.byte	0
 3174 001f 00       		.byte	0
 3175 0020 03       		.uleb128 0x3
 3176 0021 24       		.uleb128 0x24
 3177 0022 00       		.byte	0
 3178 0023 0B       		.uleb128 0xb
 3179 0024 0B       		.uleb128 0xb
 3180 0025 3E       		.uleb128 0x3e
 3181 0026 0B       		.uleb128 0xb
 3182 0027 03       		.uleb128 0x3
 3183 0028 0E       		.uleb128 0xe
 3184 0029 00       		.byte	0
 3185 002a 00       		.byte	0
 3186 002b 04       		.uleb128 0x4
 3187 002c 24       		.uleb128 0x24
 3188 002d 00       		.byte	0
 3189 002e 0B       		.uleb128 0xb
 3190 002f 0B       		.uleb128 0xb
 3191 0030 3E       		.uleb128 0x3e
ARM GAS  C:\Users\ADMINI~1\AppData\Local\Temp\ccKLo23z.s 			page 76


 3192 0031 0B       		.uleb128 0xb
 3193 0032 03       		.uleb128 0x3
 3194 0033 08       		.uleb128 0x8
 3195 0034 00       		.byte	0
 3196 0035 00       		.byte	0
 3197 0036 05       		.uleb128 0x5
 3198 0037 0F       		.uleb128 0xf
 3199 0038 00       		.byte	0
 3200 0039 0B       		.uleb128 0xb
 3201 003a 0B       		.uleb128 0xb
 3202 003b 49       		.uleb128 0x49
 3203 003c 13       		.uleb128 0x13
 3204 003d 00       		.byte	0
 3205 003e 00       		.byte	0
 3206 003f 06       		.uleb128 0x6
 3207 0040 15       		.uleb128 0x15
 3208 0041 01       		.byte	0x1
 3209 0042 27       		.uleb128 0x27
 3210 0043 19       		.uleb128 0x19
 3211 0044 01       		.uleb128 0x1
 3212 0045 13       		.uleb128 0x13
 3213 0046 00       		.byte	0
 3214 0047 00       		.byte	0
 3215 0048 07       		.uleb128 0x7
 3216 0049 05       		.uleb128 0x5
 3217 004a 00       		.byte	0
 3218 004b 49       		.uleb128 0x49
 3219 004c 13       		.uleb128 0x13
 3220 004d 00       		.byte	0
 3221 004e 00       		.byte	0
 3222 004f 08       		.uleb128 0x8
 3223 0050 0F       		.uleb128 0xf
 3224 0051 00       		.byte	0
 3225 0052 0B       		.uleb128 0xb
 3226 0053 0B       		.uleb128 0xb
 3227 0054 00       		.byte	0
 3228 0055 00       		.byte	0
 3229 0056 09       		.uleb128 0x9
 3230 0057 16       		.uleb128 0x16
 3231 0058 00       		.byte	0
 3232 0059 03       		.uleb128 0x3
 3233 005a 0E       		.uleb128 0xe
 3234 005b 3A       		.uleb128 0x3a
 3235 005c 0B       		.uleb128 0xb
 3236 005d 3B       		.uleb128 0x3b
 3237 005e 05       		.uleb128 0x5
 3238 005f 49       		.uleb128 0x49
 3239 0060 13       		.uleb128 0x13
 3240 0061 00       		.byte	0
 3241 0062 00       		.byte	0
 3242 0063 0A       		.uleb128 0xa
 3243 0064 04       		.uleb128 0x4
 3244 0065 01       		.byte	0x1
 3245 0066 03       		.uleb128 0x3
 3246 0067 0E       		.uleb128 0xe
 3247 0068 0B       		.uleb128 0xb
 3248 0069 0B       		.uleb128 0xb
ARM GAS  C:\Users\ADMINI~1\AppData\Local\Temp\ccKLo23z.s 			page 77


 3249 006a 49       		.uleb128 0x49
 3250 006b 13       		.uleb128 0x13
 3251 006c 3A       		.uleb128 0x3a
 3252 006d 0B       		.uleb128 0xb
 3253 006e 3B       		.uleb128 0x3b
 3254 006f 05       		.uleb128 0x5
 3255 0070 01       		.uleb128 0x1
 3256 0071 13       		.uleb128 0x13
 3257 0072 00       		.byte	0
 3258 0073 00       		.byte	0
 3259 0074 0B       		.uleb128 0xb
 3260 0075 28       		.uleb128 0x28
 3261 0076 00       		.byte	0
 3262 0077 03       		.uleb128 0x3
 3263 0078 0E       		.uleb128 0xe
 3264 0079 1C       		.uleb128 0x1c
 3265 007a 0B       		.uleb128 0xb
 3266 007b 00       		.byte	0
 3267 007c 00       		.byte	0
 3268 007d 0C       		.uleb128 0xc
 3269 007e 28       		.uleb128 0x28
 3270 007f 00       		.byte	0
 3271 0080 03       		.uleb128 0x3
 3272 0081 0E       		.uleb128 0xe
 3273 0082 1C       		.uleb128 0x1c
 3274 0083 05       		.uleb128 0x5
 3275 0084 00       		.byte	0
 3276 0085 00       		.byte	0
 3277 0086 0D       		.uleb128 0xd
 3278 0087 13       		.uleb128 0x13
 3279 0088 01       		.byte	0x1
 3280 0089 03       		.uleb128 0x3
 3281 008a 0E       		.uleb128 0xe
 3282 008b 0B       		.uleb128 0xb
 3283 008c 0B       		.uleb128 0xb
 3284 008d 3A       		.uleb128 0x3a
 3285 008e 0B       		.uleb128 0xb
 3286 008f 3B       		.uleb128 0x3b
 3287 0090 05       		.uleb128 0x5
 3288 0091 01       		.uleb128 0x1
 3289 0092 13       		.uleb128 0x13
 3290 0093 00       		.byte	0
 3291 0094 00       		.byte	0
 3292 0095 0E       		.uleb128 0xe
 3293 0096 0D       		.uleb128 0xd
 3294 0097 00       		.byte	0
 3295 0098 03       		.uleb128 0x3
 3296 0099 0E       		.uleb128 0xe
 3297 009a 3A       		.uleb128 0x3a
 3298 009b 0B       		.uleb128 0xb
 3299 009c 3B       		.uleb128 0x3b
 3300 009d 05       		.uleb128 0x5
 3301 009e 49       		.uleb128 0x49
 3302 009f 13       		.uleb128 0x13
 3303 00a0 38       		.uleb128 0x38
 3304 00a1 0B       		.uleb128 0xb
 3305 00a2 00       		.byte	0
ARM GAS  C:\Users\ADMINI~1\AppData\Local\Temp\ccKLo23z.s 			page 78


 3306 00a3 00       		.byte	0
 3307 00a4 0F       		.uleb128 0xf
 3308 00a5 0D       		.uleb128 0xd
 3309 00a6 00       		.byte	0
 3310 00a7 03       		.uleb128 0x3
 3311 00a8 08       		.uleb128 0x8
 3312 00a9 3A       		.uleb128 0x3a
 3313 00aa 0B       		.uleb128 0xb
 3314 00ab 3B       		.uleb128 0x3b
 3315 00ac 05       		.uleb128 0x5
 3316 00ad 49       		.uleb128 0x49
 3317 00ae 13       		.uleb128 0x13
 3318 00af 38       		.uleb128 0x38
 3319 00b0 0B       		.uleb128 0xb
 3320 00b1 00       		.byte	0
 3321 00b2 00       		.byte	0
 3322 00b3 10       		.uleb128 0x10
 3323 00b4 01       		.uleb128 0x1
 3324 00b5 01       		.byte	0x1
 3325 00b6 49       		.uleb128 0x49
 3326 00b7 13       		.uleb128 0x13
 3327 00b8 01       		.uleb128 0x1
 3328 00b9 13       		.uleb128 0x13
 3329 00ba 00       		.byte	0
 3330 00bb 00       		.byte	0
 3331 00bc 11       		.uleb128 0x11
 3332 00bd 21       		.uleb128 0x21
 3333 00be 00       		.byte	0
 3334 00bf 49       		.uleb128 0x49
 3335 00c0 13       		.uleb128 0x13
 3336 00c1 2F       		.uleb128 0x2f
 3337 00c2 0B       		.uleb128 0xb
 3338 00c3 00       		.byte	0
 3339 00c4 00       		.byte	0
 3340 00c5 12       		.uleb128 0x12
 3341 00c6 2E       		.uleb128 0x2e
 3342 00c7 01       		.byte	0x1
 3343 00c8 3F       		.uleb128 0x3f
 3344 00c9 19       		.uleb128 0x19
 3345 00ca 03       		.uleb128 0x3
 3346 00cb 0E       		.uleb128 0xe
 3347 00cc 3A       		.uleb128 0x3a
 3348 00cd 0B       		.uleb128 0xb
 3349 00ce 3B       		.uleb128 0x3b
 3350 00cf 0B       		.uleb128 0xb
 3351 00d0 27       		.uleb128 0x27
 3352 00d1 19       		.uleb128 0x19
 3353 00d2 11       		.uleb128 0x11
 3354 00d3 01       		.uleb128 0x1
 3355 00d4 12       		.uleb128 0x12
 3356 00d5 06       		.uleb128 0x6
 3357 00d6 40       		.uleb128 0x40
 3358 00d7 18       		.uleb128 0x18
 3359 00d8 9642     		.uleb128 0x2116
 3360 00da 19       		.uleb128 0x19
 3361 00db 01       		.uleb128 0x1
 3362 00dc 13       		.uleb128 0x13
ARM GAS  C:\Users\ADMINI~1\AppData\Local\Temp\ccKLo23z.s 			page 79


 3363 00dd 00       		.byte	0
 3364 00de 00       		.byte	0
 3365 00df 13       		.uleb128 0x13
 3366 00e0 05       		.uleb128 0x5
 3367 00e1 00       		.byte	0
 3368 00e2 03       		.uleb128 0x3
 3369 00e3 08       		.uleb128 0x8
 3370 00e4 3A       		.uleb128 0x3a
 3371 00e5 0B       		.uleb128 0xb
 3372 00e6 3B       		.uleb128 0x3b
 3373 00e7 0B       		.uleb128 0xb
 3374 00e8 49       		.uleb128 0x49
 3375 00e9 13       		.uleb128 0x13
 3376 00ea 02       		.uleb128 0x2
 3377 00eb 18       		.uleb128 0x18
 3378 00ec 00       		.byte	0
 3379 00ed 00       		.byte	0
 3380 00ee 14       		.uleb128 0x14
 3381 00ef 05       		.uleb128 0x5
 3382 00f0 00       		.byte	0
 3383 00f1 03       		.uleb128 0x3
 3384 00f2 0E       		.uleb128 0xe
 3385 00f3 3A       		.uleb128 0x3a
 3386 00f4 0B       		.uleb128 0xb
 3387 00f5 3B       		.uleb128 0x3b
 3388 00f6 0B       		.uleb128 0xb
 3389 00f7 49       		.uleb128 0x49
 3390 00f8 13       		.uleb128 0x13
 3391 00f9 02       		.uleb128 0x2
 3392 00fa 18       		.uleb128 0x18
 3393 00fb 00       		.byte	0
 3394 00fc 00       		.byte	0
 3395 00fd 15       		.uleb128 0x15
 3396 00fe 34       		.uleb128 0x34
 3397 00ff 00       		.byte	0
 3398 0100 03       		.uleb128 0x3
 3399 0101 0E       		.uleb128 0xe
 3400 0102 3A       		.uleb128 0x3a
 3401 0103 0B       		.uleb128 0xb
 3402 0104 3B       		.uleb128 0x3b
 3403 0105 0B       		.uleb128 0xb
 3404 0106 49       		.uleb128 0x49
 3405 0107 13       		.uleb128 0x13
 3406 0108 02       		.uleb128 0x2
 3407 0109 18       		.uleb128 0x18
 3408 010a 00       		.byte	0
 3409 010b 00       		.byte	0
 3410 010c 16       		.uleb128 0x16
 3411 010d 2E       		.uleb128 0x2e
 3412 010e 01       		.byte	0x1
 3413 010f 3F       		.uleb128 0x3f
 3414 0110 19       		.uleb128 0x19
 3415 0111 03       		.uleb128 0x3
 3416 0112 0E       		.uleb128 0xe
 3417 0113 3A       		.uleb128 0x3a
 3418 0114 0B       		.uleb128 0xb
 3419 0115 3B       		.uleb128 0x3b
ARM GAS  C:\Users\ADMINI~1\AppData\Local\Temp\ccKLo23z.s 			page 80


 3420 0116 05       		.uleb128 0x5
 3421 0117 27       		.uleb128 0x27
 3422 0118 19       		.uleb128 0x19
 3423 0119 49       		.uleb128 0x49
 3424 011a 13       		.uleb128 0x13
 3425 011b 11       		.uleb128 0x11
 3426 011c 01       		.uleb128 0x1
 3427 011d 12       		.uleb128 0x12
 3428 011e 06       		.uleb128 0x6
 3429 011f 40       		.uleb128 0x40
 3430 0120 18       		.uleb128 0x18
 3431 0121 9642     		.uleb128 0x2116
 3432 0123 19       		.uleb128 0x19
 3433 0124 01       		.uleb128 0x1
 3434 0125 13       		.uleb128 0x13
 3435 0126 00       		.byte	0
 3436 0127 00       		.byte	0
 3437 0128 17       		.uleb128 0x17
 3438 0129 05       		.uleb128 0x5
 3439 012a 00       		.byte	0
 3440 012b 03       		.uleb128 0x3
 3441 012c 08       		.uleb128 0x8
 3442 012d 3A       		.uleb128 0x3a
 3443 012e 0B       		.uleb128 0xb
 3444 012f 3B       		.uleb128 0x3b
 3445 0130 05       		.uleb128 0x5
 3446 0131 49       		.uleb128 0x49
 3447 0132 13       		.uleb128 0x13
 3448 0133 02       		.uleb128 0x2
 3449 0134 18       		.uleb128 0x18
 3450 0135 00       		.byte	0
 3451 0136 00       		.byte	0
 3452 0137 18       		.uleb128 0x18
 3453 0138 05       		.uleb128 0x5
 3454 0139 00       		.byte	0
 3455 013a 03       		.uleb128 0x3
 3456 013b 0E       		.uleb128 0xe
 3457 013c 3A       		.uleb128 0x3a
 3458 013d 0B       		.uleb128 0xb
 3459 013e 3B       		.uleb128 0x3b
 3460 013f 05       		.uleb128 0x5
 3461 0140 49       		.uleb128 0x49
 3462 0141 13       		.uleb128 0x13
 3463 0142 02       		.uleb128 0x2
 3464 0143 18       		.uleb128 0x18
 3465 0144 00       		.byte	0
 3466 0145 00       		.byte	0
 3467 0146 19       		.uleb128 0x19
 3468 0147 34       		.uleb128 0x34
 3469 0148 00       		.byte	0
 3470 0149 03       		.uleb128 0x3
 3471 014a 0E       		.uleb128 0xe
 3472 014b 3A       		.uleb128 0x3a
 3473 014c 0B       		.uleb128 0xb
 3474 014d 3B       		.uleb128 0x3b
 3475 014e 05       		.uleb128 0x5
 3476 014f 49       		.uleb128 0x49
ARM GAS  C:\Users\ADMINI~1\AppData\Local\Temp\ccKLo23z.s 			page 81


 3477 0150 13       		.uleb128 0x13
 3478 0151 02       		.uleb128 0x2
 3479 0152 18       		.uleb128 0x18
 3480 0153 00       		.byte	0
 3481 0154 00       		.byte	0
 3482 0155 1A       		.uleb128 0x1a
 3483 0156 34       		.uleb128 0x34
 3484 0157 00       		.byte	0
 3485 0158 03       		.uleb128 0x3
 3486 0159 08       		.uleb128 0x8
 3487 015a 3A       		.uleb128 0x3a
 3488 015b 0B       		.uleb128 0xb
 3489 015c 3B       		.uleb128 0x3b
 3490 015d 05       		.uleb128 0x5
 3491 015e 49       		.uleb128 0x49
 3492 015f 13       		.uleb128 0x13
 3493 0160 02       		.uleb128 0x2
 3494 0161 18       		.uleb128 0x18
 3495 0162 00       		.byte	0
 3496 0163 00       		.byte	0
 3497 0164 1B       		.uleb128 0x1b
 3498 0165 2E       		.uleb128 0x2e
 3499 0166 01       		.byte	0x1
 3500 0167 3F       		.uleb128 0x3f
 3501 0168 19       		.uleb128 0x19
 3502 0169 03       		.uleb128 0x3
 3503 016a 0E       		.uleb128 0xe
 3504 016b 3A       		.uleb128 0x3a
 3505 016c 0B       		.uleb128 0xb
 3506 016d 3B       		.uleb128 0x3b
 3507 016e 05       		.uleb128 0x5
 3508 016f 27       		.uleb128 0x27
 3509 0170 19       		.uleb128 0x19
 3510 0171 11       		.uleb128 0x11
 3511 0172 01       		.uleb128 0x1
 3512 0173 12       		.uleb128 0x12
 3513 0174 06       		.uleb128 0x6
 3514 0175 40       		.uleb128 0x40
 3515 0176 18       		.uleb128 0x18
 3516 0177 9642     		.uleb128 0x2116
 3517 0179 19       		.uleb128 0x19
 3518 017a 01       		.uleb128 0x1
 3519 017b 13       		.uleb128 0x13
 3520 017c 00       		.byte	0
 3521 017d 00       		.byte	0
 3522 017e 1C       		.uleb128 0x1c
 3523 017f 2E       		.uleb128 0x2e
 3524 0180 01       		.byte	0x1
 3525 0181 3F       		.uleb128 0x3f
 3526 0182 19       		.uleb128 0x19
 3527 0183 03       		.uleb128 0x3
 3528 0184 0E       		.uleb128 0xe
 3529 0185 3A       		.uleb128 0x3a
 3530 0186 0B       		.uleb128 0xb
 3531 0187 3B       		.uleb128 0x3b
 3532 0188 05       		.uleb128 0x5
 3533 0189 27       		.uleb128 0x27
ARM GAS  C:\Users\ADMINI~1\AppData\Local\Temp\ccKLo23z.s 			page 82


 3534 018a 19       		.uleb128 0x19
 3535 018b 11       		.uleb128 0x11
 3536 018c 01       		.uleb128 0x1
 3537 018d 12       		.uleb128 0x12
 3538 018e 06       		.uleb128 0x6
 3539 018f 40       		.uleb128 0x40
 3540 0190 18       		.uleb128 0x18
 3541 0191 9742     		.uleb128 0x2117
 3542 0193 19       		.uleb128 0x19
 3543 0194 01       		.uleb128 0x1
 3544 0195 13       		.uleb128 0x13
 3545 0196 00       		.byte	0
 3546 0197 00       		.byte	0
 3547 0198 1D       		.uleb128 0x1d
 3548 0199 34       		.uleb128 0x34
 3549 019a 00       		.byte	0
 3550 019b 03       		.uleb128 0x3
 3551 019c 0E       		.uleb128 0xe
 3552 019d 3A       		.uleb128 0x3a
 3553 019e 0B       		.uleb128 0xb
 3554 019f 3B       		.uleb128 0x3b
 3555 01a0 05       		.uleb128 0x5
 3556 01a1 49       		.uleb128 0x49
 3557 01a2 13       		.uleb128 0x13
 3558 01a3 3F       		.uleb128 0x3f
 3559 01a4 19       		.uleb128 0x19
 3560 01a5 3C       		.uleb128 0x3c
 3561 01a6 19       		.uleb128 0x19
 3562 01a7 00       		.byte	0
 3563 01a8 00       		.byte	0
 3564 01a9 00       		.byte	0
 3565              		.section	.debug_aranges,"",%progbits
 3566 0000 54000000 		.4byte	0x54
 3567 0004 0200     		.2byte	0x2
 3568 0006 00000000 		.4byte	.Ldebug_info0
 3569 000a 04       		.byte	0x4
 3570 000b 00       		.byte	0
 3571 000c 0000     		.2byte	0
 3572 000e 0000     		.2byte	0
 3573 0010 00000000 		.4byte	.LFB0
 3574 0014 BC000000 		.4byte	.LFE0-.LFB0
 3575 0018 00000000 		.4byte	.LFB1
 3576 001c 0C020000 		.4byte	.LFE1-.LFB1
 3577 0020 00000000 		.4byte	.LFB2
 3578 0024 34010000 		.4byte	.LFE2-.LFB2
 3579 0028 00000000 		.4byte	.LFB3
 3580 002c B0000000 		.4byte	.LFE3-.LFB3
 3581 0030 00000000 		.4byte	.LFB4
 3582 0034 44000000 		.4byte	.LFE4-.LFB4
 3583 0038 00000000 		.4byte	.LFB5
 3584 003c 4C000000 		.4byte	.LFE5-.LFB5
 3585 0040 00000000 		.4byte	.LFB6
 3586 0044 6C000000 		.4byte	.LFE6-.LFB6
 3587 0048 00000000 		.4byte	.LFB7
 3588 004c E6000000 		.4byte	.LFE7-.LFB7
 3589 0050 00000000 		.4byte	0
 3590 0054 00000000 		.4byte	0
ARM GAS  C:\Users\ADMINI~1\AppData\Local\Temp\ccKLo23z.s 			page 83


 3591              		.section	.debug_ranges,"",%progbits
 3592              	.Ldebug_ranges0:
 3593 0000 00000000 		.4byte	.LFB0
 3594 0004 BC000000 		.4byte	.LFE0
 3595 0008 00000000 		.4byte	.LFB1
 3596 000c 0C020000 		.4byte	.LFE1
 3597 0010 00000000 		.4byte	.LFB2
 3598 0014 34010000 		.4byte	.LFE2
 3599 0018 00000000 		.4byte	.LFB3
 3600 001c B0000000 		.4byte	.LFE3
 3601 0020 00000000 		.4byte	.LFB4
 3602 0024 44000000 		.4byte	.LFE4
 3603 0028 00000000 		.4byte	.LFB5
 3604 002c 4C000000 		.4byte	.LFE5
 3605 0030 00000000 		.4byte	.LFB6
 3606 0034 6C000000 		.4byte	.LFE6
 3607 0038 00000000 		.4byte	.LFB7
 3608 003c E6000000 		.4byte	.LFE7
 3609 0040 00000000 		.4byte	0
 3610 0044 00000000 		.4byte	0
 3611              		.section	.debug_line,"",%progbits
 3612              	.Ldebug_line0:
 3613 0000 31020000 		.section	.debug_str,"MS",%progbits,1
 3613      0200CA00 
 3613      00000201 
 3613      FB0E0D00 
 3613      01010101 
 3614              	.LASF233:
 3615 0000 6F735F74 		.ascii	"os_tcb\000"
 3615      636200
 3616              	.LASF108:
 3617 0007 4F535F45 		.ascii	"OS_ERR_PRIO_INVALID\000"
 3617      52525F50 
 3617      52494F5F 
 3617      494E5641 
 3617      4C494400 
 3618              	.LASF203:
 3619 001b 4F535F45 		.ascii	"OS_ERR\000"
 3619      525200
 3620              	.LASF21:
 3621 0022 4F535F43 		.ascii	"OS_CTX_SW_CTR\000"
 3621      54585F53 
 3621      575F4354 
 3621      5200
 3622              	.LASF188:
 3623 0030 4F535F45 		.ascii	"OS_ERR_TMR_ISR\000"
 3623      52525F54 
 3623      4D525F49 
 3623      535200
 3624              	.LASF175:
 3625 003f 4F535F45 		.ascii	"OS_ERR_TIME_INVALID_MINUTES\000"
 3625      52525F54 
 3625      494D455F 
 3625      494E5641 
 3625      4C49445F 
 3626              	.LASF37:
 3627 005b 4F535F45 		.ascii	"OS_ERR_A\000"
ARM GAS  C:\Users\ADMINI~1\AppData\Local\Temp\ccKLo23z.s 			page 84


 3627      52525F41 
 3627      00
 3628              	.LASF39:
 3629 0064 4F535F45 		.ascii	"OS_ERR_B\000"
 3629      52525F42 
 3629      00
 3630              	.LASF40:
 3631 006d 4F535F45 		.ascii	"OS_ERR_C\000"
 3631      52525F43 
 3631      00
 3632              	.LASF42:
 3633 0076 4F535F45 		.ascii	"OS_ERR_D\000"
 3633      52525F44 
 3633      00
 3634              	.LASF44:
 3635 007f 4F535F45 		.ascii	"OS_ERR_E\000"
 3635      52525F45 
 3635      00
 3636              	.LASF45:
 3637 0088 4F535F45 		.ascii	"OS_ERR_F\000"
 3637      52525F46 
 3637      00
 3638              	.LASF327:
 3639 0091 443A5C43 		.ascii	"D:\\CYTEST\\Micrium_CY8CKIT-044_OS3\\Examples\\Cypr"
 3639      59544553 
 3639      545C4D69 
 3639      63726975 
 3639      6D5F4359 
 3640 00c0 6573735C 		.ascii	"ess\\CY8CKIT-044\\OS3\\PSoC\\OS3.cydsn\000"
 3640      43593843 
 3640      4B49542D 
 3640      3034345C 
 3640      4F53335C 
 3641              	.LASF52:
 3642 00e3 4F535F45 		.ascii	"OS_ERR_H\000"
 3642      52525F48 
 3642      00
 3643              	.LASF53:
 3644 00ec 4F535F45 		.ascii	"OS_ERR_I\000"
 3644      52525F49 
 3644      00
 3645              	.LASF61:
 3646 00f5 4F535F45 		.ascii	"OS_ERR_J\000"
 3646      52525F4A 
 3646      00
 3647              	.LASF62:
 3648 00fe 4F535F45 		.ascii	"OS_ERR_K\000"
 3648      52525F4B 
 3648      00
 3649              	.LASF63:
 3650 0107 4F535F45 		.ascii	"OS_ERR_L\000"
 3650      52525F4C 
 3650      00
 3651              	.LASF65:
 3652 0110 4F535F45 		.ascii	"OS_ERR_M\000"
 3652      52525F4D 
 3652      00
ARM GAS  C:\Users\ADMINI~1\AppData\Local\Temp\ccKLo23z.s 			page 85


 3653              	.LASF82:
 3654 0119 4F535F45 		.ascii	"OS_ERR_N\000"
 3654      52525F4E 
 3654      00
 3655              	.LASF85:
 3656 0122 4F535F45 		.ascii	"OS_ERR_O\000"
 3656      52525F4F 
 3656      00
 3657              	.LASF95:
 3658 012b 4F535F45 		.ascii	"OS_ERR_P\000"
 3658      52525F50 
 3658      00
 3659              	.LASF110:
 3660 0134 4F535F45 		.ascii	"OS_ERR_Q\000"
 3660      52525F51 
 3660      00
 3661              	.LASF115:
 3662 013d 4F535F45 		.ascii	"OS_ERR_R\000"
 3662      52525F52 
 3662      00
 3663              	.LASF119:
 3664 0146 4F535F45 		.ascii	"OS_ERR_S\000"
 3664      52525F53 
 3664      00
 3665              	.LASF136:
 3666 014f 4F535F45 		.ascii	"OS_ERR_T\000"
 3666      52525F54 
 3666      00
 3667              	.LASF196:
 3668 0158 4F535F45 		.ascii	"OS_ERR_U\000"
 3668      52525F55 
 3668      00
 3669              	.LASF197:
 3670 0161 4F535F45 		.ascii	"OS_ERR_V\000"
 3670      52525F56 
 3670      00
 3671              	.LASF198:
 3672 016a 4F535F45 		.ascii	"OS_ERR_W\000"
 3672      52525F57 
 3672      00
 3673              	.LASF199:
 3674 0173 4F535F45 		.ascii	"OS_ERR_X\000"
 3674      52525F58 
 3674      00
 3675              	.LASF185:
 3676 017c 4F535F45 		.ascii	"OS_ERR_TMR_INVALID_PERIOD\000"
 3676      52525F54 
 3676      4D525F49 
 3676      4E56414C 
 3676      49445F50 
 3677              	.LASF328:
 3678 0196 6F735F65 		.ascii	"os_err\000"
 3678      727200
 3679              	.LASF215:
 3680 019d 4E627245 		.ascii	"NbrEntries\000"
 3680      6E747269 
 3680      657300
ARM GAS  C:\Users\ADMINI~1\AppData\Local\Temp\ccKLo23z.s 			page 86


 3681              	.LASF57:
 3682 01a8 4F535F45 		.ascii	"OS_ERR_INT_Q_SIZE\000"
 3682      52525F49 
 3682      4E545F51 
 3682      5F53495A 
 3682      4500
 3683              	.LASF41:
 3684 01ba 4F535F45 		.ascii	"OS_ERR_CREATE_ISR\000"
 3684      52525F43 
 3684      52454154 
 3684      455F4953 
 3684      5200
 3685              	.LASF227:
 3686 01cc 4F776E65 		.ascii	"OwnerNestingCtr\000"
 3686      724E6573 
 3686      74696E67 
 3686      43747200 
 3687              	.LASF316:
 3688 01dc 4F535F51 		.ascii	"OS_QPost\000"
 3688      506F7374 
 3688      00
 3689              	.LASF20:
 3690 01e5 4F535F43 		.ascii	"OS_CPU_USAGE\000"
 3690      50555F55 
 3690      53414745 
 3690      00
 3691              	.LASF169:
 3692 01f2 4F535F45 		.ascii	"OS_ERR_TICK_STK_SIZE_INVALID\000"
 3692      52525F54 
 3692      49434B5F 
 3692      53544B5F 
 3692      53495A45 
 3693              	.LASF8:
 3694 020f 4350555F 		.ascii	"CPU_INT32U\000"
 3694      494E5433 
 3694      325500
 3695              	.LASF324:
 3696 021a 4F535443 		.ascii	"OSTCBCurPtr\000"
 3696      42437572 
 3696      50747200 
 3697              	.LASF217:
 3698 0226 4F535F4D 		.ascii	"OS_MUTEX\000"
 3698      55544558 
 3698      00
 3699              	.LASF133:
 3700 022f 4F535F45 		.ascii	"OS_ERR_STK_INVALID\000"
 3700      52525F53 
 3700      544B5F49 
 3700      4E56414C 
 3700      494400
 3701              	.LASF260:
 3702 0242 466C6167 		.ascii	"FlagsOpt\000"
 3702      734F7074 
 3702      00
 3703              	.LASF149:
 3704 024b 4F535F45 		.ascii	"OS_ERR_TASK_RESUME_ISR\000"
 3704      52525F54 
ARM GAS  C:\Users\ADMINI~1\AppData\Local\Temp\ccKLo23z.s 			page 87


 3704      41534B5F 
 3704      52455355 
 3704      4D455F49 
 3705              	.LASF103:
 3706 0262 4F535F45 		.ascii	"OS_ERR_PEND_WOULD_BLOCK\000"
 3706      52525F50 
 3706      454E445F 
 3706      574F554C 
 3706      445F424C 
 3707              	.LASF137:
 3708 027a 4F535F45 		.ascii	"OS_ERR_TASK_CHANGE_PRIO_ISR\000"
 3708      52525F54 
 3708      41534B5F 
 3708      4348414E 
 3708      47455F50 
 3709              	.LASF250:
 3710 0296 4D757465 		.ascii	"MutexGrpHeadPtr\000"
 3710      78477270 
 3710      48656164 
 3710      50747200 
 3711              	.LASF60:
 3712 02a6 4F535F45 		.ascii	"OS_ERR_ILLEGAL_DEL_RUN_TIME\000"
 3712      52525F49 
 3712      4C4C4547 
 3712      414C5F44 
 3712      454C5F52 
 3713              	.LASF127:
 3714 02c2 4F535F45 		.ascii	"OS_ERR_STAT_RESET_ISR\000"
 3714      52525F53 
 3714      5441545F 
 3714      52455345 
 3714      545F4953 
 3715              	.LASF298:
 3716 02d8 705F6D73 		.ascii	"p_msg_size\000"
 3716      675F7369 
 3716      7A6500
 3717              	.LASF102:
 3718 02e3 4F535F45 		.ascii	"OS_ERR_PEND_LOCKED\000"
 3718      52525F50 
 3718      454E445F 
 3718      4C4F434B 
 3718      454400
 3719              	.LASF325:
 3720 02f6 474E5520 		.ascii	"GNU C11 5.4.1 20160609 (release) [ARM/embedded-5-br"
 3720      43313120 
 3720      352E342E 
 3720      31203230 
 3720      31363036 
 3721 0329 616E6368 		.ascii	"anch revision 237715] -mcpu=cortex-m0 -mthumb -g -O"
 3721      20726576 
 3721      6973696F 
 3721      6E203233 
 3721      37373135 
 3722 035c 30202D66 		.ascii	"0 -ffunction-sections -ffat-lto-objects\000"
 3722      66756E63 
 3722      74696F6E 
 3722      2D736563 
ARM GAS  C:\Users\ADMINI~1\AppData\Local\Temp\ccKLo23z.s 			page 88


 3722      74696F6E 
 3723              	.LASF147:
 3724 0384 4F535F45 		.ascii	"OS_ERR_TASK_NOT_SUSPENDED\000"
 3724      52525F54 
 3724      41534B5F 
 3724      4E4F545F 
 3724      53555350 
 3725              	.LASF81:
 3726 039e 4F535F45 		.ascii	"OS_ERR_MUTEX_OVF\000"
 3726      52525F4D 
 3726      55544558 
 3726      5F4F5646 
 3726      00
 3727              	.LASF145:
 3728 03af 4F535F45 		.ascii	"OS_ERR_TASK_NOT_DLY\000"
 3728      52525F54 
 3728      41534B5F 
 3728      4E4F545F 
 3728      444C5900 
 3729              	.LASF222:
 3730 03c3 44626750 		.ascii	"DbgPrevPtr\000"
 3730      72657650 
 3730      747200
 3731              	.LASF55:
 3732 03ce 4F535F45 		.ascii	"OS_ERR_INT_Q\000"
 3732      52525F49 
 3732      4E545F51 
 3732      00
 3733              	.LASF223:
 3734 03db 4462674E 		.ascii	"DbgNextPtr\000"
 3734      65787450 
 3734      747200
 3735              	.LASF274:
 3736 03e6 53636865 		.ascii	"SchedLockTimeMax\000"
 3736      644C6F63 
 3736      6B54696D 
 3736      654D6178 
 3736      00
 3737              	.LASF159:
 3738 03f7 4F535F45 		.ascii	"OS_ERR_TASK_WAITING\000"
 3738      52525F54 
 3738      41534B5F 
 3738      57414954 
 3738      494E4700 
 3739              	.LASF38:
 3740 040b 4F535F45 		.ascii	"OS_ERR_ACCEPT_ISR\000"
 3740      52525F41 
 3740      43434550 
 3740      545F4953 
 3740      5200
 3741              	.LASF157:
 3742 041d 4F535F45 		.ascii	"OS_ERR_TASK_SUSPEND_ISR\000"
 3742      52525F54 
 3742      41534B5F 
 3742      53555350 
 3742      454E445F 
 3743              	.LASF80:
ARM GAS  C:\Users\ADMINI~1\AppData\Local\Temp\ccKLo23z.s 			page 89


 3744 0435 4F535F45 		.ascii	"OS_ERR_MUTEX_NESTING\000"
 3744      52525F4D 
 3744      55544558 
 3744      5F4E4553 
 3744      54494E47 
 3745              	.LASF305:
 3746 044a 705F7065 		.ascii	"p_pend_list\000"
 3746      6E645F6C 
 3746      69737400 
 3747              	.LASF186:
 3748 0456 4F535F45 		.ascii	"OS_ERR_TMR_INVALID_STATE\000"
 3748      52525F54 
 3748      4D525F49 
 3748      4E56414C 
 3748      49445F53 
 3749              	.LASF245:
 3750 046f 50656E64 		.ascii	"PendOn\000"
 3750      4F6E00
 3751              	.LASF86:
 3752 0476 4F535F45 		.ascii	"OS_ERR_OBJ_CREATED\000"
 3752      52525F4F 
 3752      424A5F43 
 3752      52454154 
 3752      454400
 3753              	.LASF311:
 3754 0489 4F535F51 		.ascii	"OS_QClr\000"
 3754      436C7200 
 3755              	.LASF277:
 3756 0491 5443425F 		.ascii	"TCB_Ptr\000"
 3756      50747200 
 3757              	.LASF290:
 3758 0499 5461696C 		.ascii	"TailPtr\000"
 3758      50747200 
 3759              	.LASF302:
 3760 04a1 705F766F 		.ascii	"p_void\000"
 3760      696400
 3761              	.LASF155:
 3762 04a8 4F535F45 		.ascii	"OS_ERR_TASK_SUSPEND_IDLE\000"
 3762      52525F54 
 3762      41534B5F 
 3762      53555350 
 3762      454E445F 
 3763              	.LASF56:
 3764 04c1 4F535F45 		.ascii	"OS_ERR_INT_Q_FULL\000"
 3764      52525F49 
 3764      4E545F51 
 3764      5F46554C 
 3764      4C00
 3765              	.LASF284:
 3766 04d3 5264794D 		.ascii	"RdyMsgPtr\000"
 3766      73675074 
 3766      7200
 3767              	.LASF292:
 3768 04dd 6F735F70 		.ascii	"os_pend_obj\000"
 3768      656E645F 
 3768      6F626A00 
 3769              	.LASF54:
ARM GAS  C:\Users\ADMINI~1\AppData\Local\Temp\ccKLo23z.s 			page 90


 3770 04e9 4F535F45 		.ascii	"OS_ERR_ILLEGAL_CREATE_RUN_TIME\000"
 3770      52525F49 
 3770      4C4C4547 
 3770      414C5F43 
 3770      52454154 
 3771              	.LASF258:
 3772 0508 466C6167 		.ascii	"FlagsPend\000"
 3772      7350656E 
 3772      6400
 3773              	.LASF184:
 3774 0512 4F535F45 		.ascii	"OS_ERR_TMR_INVALID_DLY\000"
 3774      52525F54 
 3774      4D525F49 
 3774      4E56414C 
 3774      49445F44 
 3775              	.LASF27:
 3776 0529 4F535F4F 		.ascii	"OS_OBJ_QTY\000"
 3776      424A5F51 
 3776      545900
 3777              	.LASF226:
 3778 0534 4F776E65 		.ascii	"OwnerTCBPtr\000"
 3778      72544342 
 3778      50747200 
 3779              	.LASF264:
 3780 0540 43747853 		.ascii	"CtxSwCtr\000"
 3780      77437472 
 3780      00
 3781              	.LASF150:
 3782 0549 4F535F45 		.ascii	"OS_ERR_TASK_RESUME_PRIO\000"
 3782      52525F54 
 3782      41534B5F 
 3782      52455355 
 3782      4D455F50 
 3783              	.LASF30:
 3784 0561 4F535F50 		.ascii	"OS_PRIO\000"
 3784      52494F00 
 3785              	.LASF12:
 3786 0569 666C6F61 		.ascii	"float\000"
 3786      7400
 3787              	.LASF104:
 3788 056f 4F535F45 		.ascii	"OS_ERR_POST_NULL_PTR\000"
 3788      52525F50 
 3788      4F53545F 
 3788      4E554C4C 
 3788      5F505452 
 3789              	.LASF84:
 3790 0584 4F535F45 		.ascii	"OS_ERR_NO_MORE_ID_AVAIL\000"
 3790      52525F4E 
 3790      4F5F4D4F 
 3790      52455F49 
 3790      445F4156 
 3791              	.LASF73:
 3792 059c 4F535F45 		.ascii	"OS_ERR_MEM_INVALID_P_DATA\000"
 3792      52525F4D 
 3792      454D5F49 
 3792      4E56414C 
 3792      49445F50 
ARM GAS  C:\Users\ADMINI~1\AppData\Local\Temp\ccKLo23z.s 			page 91


 3793              	.LASF300:
 3794 05b6 6370755F 		.ascii	"cpu_sr\000"
 3794      737200
 3795              	.LASF189:
 3796 05bd 4F535F45 		.ascii	"OS_ERR_TMR_NO_CALLBACK\000"
 3796      52525F54 
 3796      4D525F4E 
 3796      4F5F4341 
 3796      4C4C4241 
 3797              	.LASF182:
 3798 05d4 4F535F45 		.ascii	"OS_ERR_TMR_INACTIVE\000"
 3798      52525F54 
 3798      4D525F49 
 3798      4E414354 
 3798      49564500 
 3799              	.LASF162:
 3800 05e8 4F535F45 		.ascii	"OS_ERR_TLS_ID_INVALID\000"
 3800      52525F54 
 3800      4C535F49 
 3800      445F494E 
 3800      56414C49 
 3801              	.LASF10:
 3802 05fe 6C6F6E67 		.ascii	"long long unsigned int\000"
 3802      206C6F6E 
 3802      6720756E 
 3802      7369676E 
 3802      65642069 
 3803              	.LASF312:
 3804 0615 4F535F51 		.ascii	"OS_QDbgListAdd\000"
 3804      4462674C 
 3804      69737441 
 3804      646400
 3805              	.LASF152:
 3806 0624 4F535F45 		.ascii	"OS_ERR_TASK_RUNNING\000"
 3806      52525F54 
 3806      41534B5F 
 3806      52554E4E 
 3806      494E4700 
 3807              	.LASF271:
 3808 0638 53746B55 		.ascii	"StkUsed\000"
 3808      73656400 
 3809              	.LASF187:
 3810 0640 4F535F45 		.ascii	"OS_ERR_TMR_INVALID\000"
 3810      52525F54 
 3810      4D525F49 
 3810      4E56414C 
 3810      494400
 3811              	.LASF279:
 3812 0653 4F535F50 		.ascii	"OS_PEND_DATA\000"
 3812      454E445F 
 3812      44415441 
 3812      00
 3813              	.LASF156:
 3814 0660 4F535F45 		.ascii	"OS_ERR_TASK_SUSPEND_INT_HANDLER\000"
 3814      52525F54 
 3814      41534B5F 
 3814      53555350 
ARM GAS  C:\Users\ADMINI~1\AppData\Local\Temp\ccKLo23z.s 			page 92


 3814      454E445F 
 3815              	.LASF141:
 3816 0680 4F535F45 		.ascii	"OS_ERR_TASK_DEL_INVALID\000"
 3816      52525F54 
 3816      41534B5F 
 3816      44454C5F 
 3816      494E5641 
 3817              	.LASF278:
 3818 0698 4E627255 		.ascii	"NbrUpdated\000"
 3818      70646174 
 3818      656400
 3819              	.LASF192:
 3820 06a3 4F535F45 		.ascii	"OS_ERR_TMR_STK_INVALID\000"
 3820      52525F54 
 3820      4D525F53 
 3820      544B5F49 
 3820      4E56414C 
 3821              	.LASF3:
 3822 06ba 4350555F 		.ascii	"CPU_INT08U\000"
 3822      494E5430 
 3822      385500
 3823              	.LASF210:
 3824 06c5 6F735F6D 		.ascii	"os_msg\000"
 3824      736700
 3825              	.LASF161:
 3826 06cc 4F535F45 		.ascii	"OS_ERR_TCB_INVALID\000"
 3826      52525F54 
 3826      43425F49 
 3826      4E56414C 
 3826      494400
 3827              	.LASF251:
 3828 06df 53746B53 		.ascii	"StkSize\000"
 3828      697A6500 
 3829              	.LASF241:
 3830 06e7 53746B42 		.ascii	"StkBasePtr\000"
 3830      61736550 
 3830      747200
 3831              	.LASF112:
 3832 06f2 4F535F45 		.ascii	"OS_ERR_Q_EMPTY\000"
 3832      52525F51 
 3832      5F454D50 
 3832      545900
 3833              	.LASF177:
 3834 0701 4F535F45 		.ascii	"OS_ERR_TIME_INVALID_MILLISECONDS\000"
 3834      52525F54 
 3834      494D455F 
 3834      494E5641 
 3834      4C49445F 
 3835              	.LASF31:
 3836 0722 4F535F52 		.ascii	"OS_REG\000"
 3836      454700
 3837              	.LASF83:
 3838 0729 4F535F45 		.ascii	"OS_ERR_NAME\000"
 3838      52525F4E 
 3838      414D4500 
 3839              	.LASF321:
 3840 0735 4F535144 		.ascii	"OSQDbgListPtr\000"
ARM GAS  C:\Users\ADMINI~1\AppData\Local\Temp\ccKLo23z.s 			page 93


 3840      62674C69 
 3840      73745074 
 3840      7200
 3841              	.LASF317:
 3842 0743 706F7374 		.ascii	"post_type\000"
 3842      5F747970 
 3842      6500
 3843              	.LASF34:
 3844 074d 4F535F53 		.ascii	"OS_STATUS\000"
 3844      54415455 
 3844      5300
 3845              	.LASF247:
 3846 0757 5461736B 		.ascii	"TaskState\000"
 3846      53746174 
 3846      6500
 3847              	.LASF166:
 3848 0761 4F535F45 		.ascii	"OS_ERR_TLS_DESTRUCT_ASSIGNED\000"
 3848      52525F54 
 3848      4C535F44 
 3848      45535452 
 3848      5543545F 
 3849              	.LASF309:
 3850 077e 4F535150 		.ascii	"OSQPost\000"
 3850      6F737400 
 3851              	.LASF78:
 3852 0786 4F535F45 		.ascii	"OS_ERR_MUTEX_NOT_OWNER\000"
 3852      52525F4D 
 3852      55544558 
 3852      5F4E4F54 
 3852      5F4F574E 
 3853              	.LASF25:
 3854 079d 4F535F4D 		.ascii	"OS_MSG_SIZE\000"
 3854      53475F53 
 3854      495A4500 
 3855              	.LASF174:
 3856 07a9 4F535F45 		.ascii	"OS_ERR_TIME_INVALID_HOURS\000"
 3856      52525F54 
 3856      494D455F 
 3856      494E5641 
 3856      4C49445F 
 3857              	.LASF190:
 3858 07c3 4F535F45 		.ascii	"OS_ERR_TMR_NON_AVAIL\000"
 3858      52525F54 
 3858      4D525F4E 
 3858      4F4E5F41 
 3858      5641494C 
 3859              	.LASF2:
 3860 07d8 4350555F 		.ascii	"CPU_CHAR\000"
 3860      43484152 
 3860      00
 3861              	.LASF138:
 3862 07e1 4F535F45 		.ascii	"OS_ERR_TASK_CREATE_ISR\000"
 3862      52525F54 
 3862      41534B5F 
 3862      43524541 
 3862      54455F49 
 3863              	.LASF16:
ARM GAS  C:\Users\ADMINI~1\AppData\Local\Temp\ccKLo23z.s 			page 94


 3864 07f8 4350555F 		.ascii	"CPU_STK_SIZE\000"
 3864      53544B5F 
 3864      53495A45 
 3864      00
 3865              	.LASF24:
 3866 0805 4F535F4D 		.ascii	"OS_MSG_QTY\000"
 3866      53475F51 
 3866      545900
 3867              	.LASF92:
 3868 0810 4F535F45 		.ascii	"OS_ERR_OS_RUNNING\000"
 3868      52525F4F 
 3868      535F5255 
 3868      4E4E494E 
 3868      4700
 3869              	.LASF272:
 3870 0822 53746B46 		.ascii	"StkFree\000"
 3870      72656500 
 3871              	.LASF254:
 3872 082a 5469636B 		.ascii	"TickCtrPrev\000"
 3872      43747250 
 3872      72657600 
 3873              	.LASF214:
 3874 0836 4E627245 		.ascii	"NbrEntriesSize\000"
 3874      6E747269 
 3874      65735369 
 3874      7A6500
 3875              	.LASF180:
 3876 0845 4F535F45 		.ascii	"OS_ERR_TIME_ZERO_DLY\000"
 3876      52525F54 
 3876      494D455F 
 3876      5A45524F 
 3876      5F444C59 
 3877              	.LASF239:
 3878 085a 5469636B 		.ascii	"TickPrevPtr\000"
 3878      50726576 
 3878      50747200 
 3879              	.LASF326:
 3880 0866 2E2E5C2E 		.ascii	"..\\..\\..\\..\\..\\..\\Software\\uCOS-III\\Source\\"
 3880      2E5C2E2E 
 3880      5C2E2E5C 
 3880      2E2E5C2E 
 3880      2E5C536F 
 3881 0891 6F735F71 		.ascii	"os_q.c\000"
 3881      2E6300
 3882              	.LASF259:
 3883 0898 466C6167 		.ascii	"FlagsRdy\000"
 3883      73526479 
 3883      00
 3884              	.LASF129:
 3885 08a1 4F535F45 		.ascii	"OS_ERR_STAT_STK_INVALID\000"
 3885      52525F53 
 3885      5441545F 
 3885      53544B5F 
 3885      494E5641 
 3886              	.LASF47:
 3887 08b9 4F535F45 		.ascii	"OS_ERR_FLAG_GRP_DEPLETED\000"
 3887      52525F46 
ARM GAS  C:\Users\ADMINI~1\AppData\Local\Temp\ccKLo23z.s 			page 95


 3887      4C41475F 
 3887      4752505F 
 3887      4445504C 
 3888              	.LASF69:
 3889 08d2 4F535F45 		.ascii	"OS_ERR_MEM_INVALID_BLKS\000"
 3889      52525F4D 
 3889      454D5F49 
 3889      4E56414C 
 3889      49445F42 
 3890              	.LASF249:
 3891 08ea 42617365 		.ascii	"BasePrio\000"
 3891      5072696F 
 3891      00
 3892              	.LASF228:
 3893 08f3 4F535F51 		.ascii	"OS_Q\000"
 3893      00
 3894              	.LASF256:
 3895 08f8 4D736751 		.ascii	"MsgQPendTimeMax\000"
 3895      50656E64 
 3895      54696D65 
 3895      4D617800 
 3896              	.LASF93:
 3897 0908 4F535F45 		.ascii	"OS_ERR_OS_NOT_INIT\000"
 3897      52525F4F 
 3897      535F4E4F 
 3897      545F494E 
 3897      495400
 3898              	.LASF204:
 3899 091b 4F535F4D 		.ascii	"OS_MSG\000"
 3899      534700
 3900              	.LASF294:
 3901 0922 705F6E61 		.ascii	"p_name\000"
 3901      6D6500
 3902              	.LASF183:
 3903 0929 4F535F45 		.ascii	"OS_ERR_TMR_INVALID_DEST\000"
 3903      52525F54 
 3903      4D525F49 
 3903      4E56414C 
 3903      49445F44 
 3904              	.LASF121:
 3905 0941 4F535F45 		.ascii	"OS_ERR_SCHED_LOCK_ISR\000"
 3905      52525F53 
 3905      43484544 
 3905      5F4C4F43 
 3905      4B5F4953 
 3906              	.LASF43:
 3907 0957 4F535F45 		.ascii	"OS_ERR_DEL_ISR\000"
 3907      52525F44 
 3907      454C5F49 
 3907      535200
 3908              	.LASF296:
 3909 0966 705F6572 		.ascii	"p_err\000"
 3909      7200
 3910              	.LASF113:
 3911 096c 4F535F45 		.ascii	"OS_ERR_Q_MAX\000"
 3911      52525F51 
 3911      5F4D4158 
ARM GAS  C:\Users\ADMINI~1\AppData\Local\Temp\ccKLo23z.s 			page 96


 3911      00
 3912              	.LASF318:
 3913 0979 705F7065 		.ascii	"p_pend_data\000"
 3913      6E645F64 
 3913      61746100 
 3914              	.LASF237:
 3915 0985 50726576 		.ascii	"PrevPtr\000"
 3915      50747200 
 3916              	.LASF0:
 3917 098d 63686172 		.ascii	"char\000"
 3917      00
 3918              	.LASF28:
 3919 0992 4F535F4F 		.ascii	"OS_OBJ_TYPE\000"
 3919      424A5F54 
 3919      59504500 
 3920              	.LASF165:
 3921 099e 4F535F45 		.ascii	"OS_ERR_TLS_NOT_EN\000"
 3921      52525F54 
 3921      4C535F4E 
 3921      4F545F45 
 3921      4E00
 3922              	.LASF90:
 3923 09b0 4F535F45 		.ascii	"OS_ERR_OPT_INVALID\000"
 3923      52525F4F 
 3923      50545F49 
 3923      4E56414C 
 3923      494400
 3924              	.LASF17:
 3925 09c3 4350555F 		.ascii	"CPU_SR\000"
 3925      535200
 3926              	.LASF120:
 3927 09ca 4F535F45 		.ascii	"OS_ERR_SCHED_INVALID_TIME_SLICE\000"
 3927      52525F53 
 3927      43484544 
 3927      5F494E56 
 3927      414C4944 
 3928              	.LASF94:
 3929 09ea 4F535F45 		.ascii	"OS_ERR_OS_NO_APP_TASK\000"
 3929      52525F4F 
 3929      535F4E4F 
 3929      5F415050 
 3929      5F544153 
 3930              	.LASF230:
 3931 0a00 4D736751 		.ascii	"MsgQ\000"
 3931      00
 3932              	.LASF242:
 3933 0a05 5461736B 		.ascii	"TaskEntryAddr\000"
 3933      456E7472 
 3933      79416464 
 3933      7200
 3934              	.LASF128:
 3935 0a13 4F535F45 		.ascii	"OS_ERR_STAT_PRIO_INVALID\000"
 3935      52525F53 
 3935      5441545F 
 3935      5052494F 
 3935      5F494E56 
 3936              	.LASF178:
ARM GAS  C:\Users\ADMINI~1\AppData\Local\Temp\ccKLo23z.s 			page 97


 3937 0a2c 4F535F45 		.ascii	"OS_ERR_TIME_NOT_DLY\000"
 3937      52525F54 
 3937      494D455F 
 3937      4E4F545F 
 3937      444C5900 
 3938              	.LASF220:
 3939 0a40 4E616D65 		.ascii	"NamePtr\000"
 3939      50747200 
 3940              	.LASF246:
 3941 0a48 50656E64 		.ascii	"PendStatus\000"
 3941      53746174 
 3941      757300
 3942              	.LASF209:
 3943 0a53 4F535F4D 		.ascii	"OS_MSG_Q\000"
 3943      53475F51 
 3943      00
 3944              	.LASF219:
 3945 0a5c 54797065 		.ascii	"Type\000"
 3945      00
 3946              	.LASF201:
 3947 0a61 4F535F45 		.ascii	"OS_ERR_YIELD_ISR\000"
 3947      52525F59 
 3947      49454C44 
 3947      5F495352 
 3947      00
 3948              	.LASF87:
 3949 0a72 4F535F45 		.ascii	"OS_ERR_OBJ_DEL\000"
 3949      52525F4F 
 3949      424A5F44 
 3949      454C00
 3950              	.LASF19:
 3951 0a81 4350555F 		.ascii	"CPU_TS\000"
 3951      545300
 3952              	.LASF11:
 3953 0a88 6C6F6E67 		.ascii	"long long int\000"
 3953      206C6F6E 
 3953      6720696E 
 3953      7400
 3954              	.LASF49:
 3955 0a96 4F535F45 		.ascii	"OS_ERR_FLAG_PEND_OPT\000"
 3955      52525F46 
 3955      4C41475F 
 3955      50454E44 
 3955      5F4F5054 
 3956              	.LASF234:
 3957 0aab 53746B50 		.ascii	"StkPtr\000"
 3957      747200
 3958              	.LASF313:
 3959 0ab2 4F535F51 		.ascii	"OS_QDbgListRemove\000"
 3959      4462674C 
 3959      69737452 
 3959      656D6F76 
 3959      6500
 3960              	.LASF306:
 3961 0ac4 705F7463 		.ascii	"p_tcb\000"
 3961      6200
 3962              	.LASF160:
ARM GAS  C:\Users\ADMINI~1\AppData\Local\Temp\ccKLo23z.s 			page 98


 3963 0aca 4F535F45 		.ascii	"OS_ERR_TASK_SUSPEND_CTR_OVF\000"
 3963      52525F54 
 3963      41534B5F 
 3963      53555350 
 3963      454E445F 
 3964              	.LASF114:
 3965 0ae6 4F535F45 		.ascii	"OS_ERR_Q_SIZE\000"
 3965      52525F51 
 3965      5F53495A 
 3965      4500
 3966              	.LASF266:
 3967 0af4 4379636C 		.ascii	"CyclesStart\000"
 3967      65735374 
 3967      61727400 
 3968              	.LASF301:
 3969 0b00 70656E64 		.ascii	"pend_data\000"
 3969      5F646174 
 3969      6100
 3970              	.LASF295:
 3971 0b0a 6D61785F 		.ascii	"max_qty\000"
 3971      71747900 
 3972              	.LASF281:
 3973 0b12 54434250 		.ascii	"TCBPtr\000"
 3973      747200
 3974              	.LASF99:
 3975 0b19 4F535F45 		.ascii	"OS_ERR_PEND_ABORT_SELF\000"
 3975      52525F50 
 3975      454E445F 
 3975      41424F52 
 3975      545F5345 
 3976              	.LASF5:
 3977 0b30 4350555F 		.ascii	"CPU_INT16U\000"
 3977      494E5431 
 3977      365500
 3978              	.LASF118:
 3979 0b3b 4F535F45 		.ascii	"OS_ERR_ROUND_ROBIN_DISABLED\000"
 3979      52525F52 
 3979      4F554E44 
 3979      5F524F42 
 3979      494E5F44 
 3980              	.LASF70:
 3981 0b57 4F535F45 		.ascii	"OS_ERR_MEM_INVALID_PART\000"
 3981      52525F4D 
 3981      454D5F49 
 3981      4E56414C 
 3981      49445F50 
 3982              	.LASF88:
 3983 0b6f 4F535F45 		.ascii	"OS_ERR_OBJ_PTR_NULL\000"
 3983      52525F4F 
 3983      424A5F50 
 3983      54525F4E 
 3983      554C4C00 
 3984              	.LASF116:
 3985 0b83 4F535F45 		.ascii	"OS_ERR_REG_ID_INVALID\000"
 3985      52525F52 
 3985      45475F49 
 3985      445F494E 
ARM GAS  C:\Users\ADMINI~1\AppData\Local\Temp\ccKLo23z.s 			page 99


 3985      56414C49 
 3986              	.LASF307:
 3987 0b99 6E62725F 		.ascii	"nbr_tasks\000"
 3987      7461736B 
 3987      7300
 3988              	.LASF35:
 3989 0ba3 4F535F54 		.ascii	"OS_TICK\000"
 3989      49434B00 
 3990              	.LASF67:
 3991 0bab 4F535F45 		.ascii	"OS_ERR_MEM_FULL\000"
 3991      52525F4D 
 3991      454D5F46 
 3991      554C4C00 
 3992              	.LASF144:
 3993 0bbb 4F535F45 		.ascii	"OS_ERR_TASK_NO_MORE_TCB\000"
 3993      52525F54 
 3993      41534B5F 
 3993      4E4F5F4D 
 3993      4F52455F 
 3994              	.LASF72:
 3995 0bd3 4F535F45 		.ascii	"OS_ERR_MEM_INVALID_P_MEM\000"
 3995      52525F4D 
 3995      454D5F49 
 3995      4E56414C 
 3995      49445F50 
 3996              	.LASF18:
 3997 0bec 4350555F 		.ascii	"CPU_TS32\000"
 3997      54533332 
 3997      00
 3998              	.LASF261:
 3999 0bf5 53757370 		.ascii	"SuspendCtr\000"
 3999      656E6443 
 3999      747200
 4000              	.LASF229:
 4001 0c00 6F735F71 		.ascii	"os_q\000"
 4001      00
 4002              	.LASF265:
 4003 0c05 4379636C 		.ascii	"CyclesDelta\000"
 4003      65734465 
 4003      6C746100 
 4004              	.LASF32:
 4005 0c11 4F535F53 		.ascii	"OS_SEM_CTR\000"
 4005      454D5F43 
 4005      545200
 4006              	.LASF193:
 4007 0c1c 4F535F45 		.ascii	"OS_ERR_TMR_STK_SIZE_INVALID\000"
 4007      52525F54 
 4007      4D525F53 
 4007      544B5F53 
 4007      495A455F 
 4008              	.LASF170:
 4009 0c38 4F535F45 		.ascii	"OS_ERR_TICK_WHEEL_SIZE\000"
 4009      52525F54 
 4009      49434B5F 
 4009      57484545 
 4009      4C5F5349 
 4010              	.LASF238:
ARM GAS  C:\Users\ADMINI~1\AppData\Local\Temp\ccKLo23z.s 			page 100


 4011 0c4f 5469636B 		.ascii	"TickNextPtr\000"
 4011      4E657874 
 4011      50747200 
 4012              	.LASF146:
 4013 0c5b 4F535F45 		.ascii	"OS_ERR_TASK_NOT_EXIST\000"
 4013      52525F54 
 4013      41534B5F 
 4013      4E4F545F 
 4013      45584953 
 4014              	.LASF319:
 4015 0c71 705F7065 		.ascii	"p_pend_data_next\000"
 4015      6E645F64 
 4015      6174615F 
 4015      6E657874 
 4015      00
 4016              	.LASF143:
 4017 0c82 4F535F45 		.ascii	"OS_ERR_TASK_INVALID\000"
 4017      52525F54 
 4017      41534B5F 
 4017      494E5641 
 4017      4C494400 
 4018              	.LASF191:
 4019 0c96 4F535F45 		.ascii	"OS_ERR_TMR_PRIO_INVALID\000"
 4019      52525F54 
 4019      4D525F50 
 4019      52494F5F 
 4019      494E5641 
 4020              	.LASF299:
 4021 0cae 705F7473 		.ascii	"p_ts\000"
 4021      00
 4022              	.LASF158:
 4023 0cb3 4F535F45 		.ascii	"OS_ERR_TASK_SUSPEND_PRIO\000"
 4023      52525F54 
 4023      41534B5F 
 4023      53555350 
 4023      454E445F 
 4024              	.LASF283:
 4025 0ccc 5264794F 		.ascii	"RdyObjPtr\000"
 4025      626A5074 
 4025      7200
 4026              	.LASF59:
 4027 0cd6 4F535F45 		.ascii	"OS_ERR_INT_Q_STK_SIZE_INVALID\000"
 4027      52525F49 
 4027      4E545F51 
 4027      5F53544B 
 4027      5F53495A 
 4028              	.LASF163:
 4029 0cf4 4F535F45 		.ascii	"OS_ERR_TLS_ISR\000"
 4029      52525F54 
 4029      4C535F49 
 4029      535200
 4030              	.LASF195:
 4031 0d03 4F535F45 		.ascii	"OS_ERR_TMR_INVALID_CALLBACK\000"
 4031      52525F54 
 4031      4D525F49 
 4031      4E56414C 
 4031      49445F43 
ARM GAS  C:\Users\ADMINI~1\AppData\Local\Temp\ccKLo23z.s 			page 101


 4032              	.LASF142:
 4033 0d1f 4F535F45 		.ascii	"OS_ERR_TASK_DEL_ISR\000"
 4033      52525F54 
 4033      41534B5F 
 4033      44454C5F 
 4033      49535200 
 4034              	.LASF269:
 4035 0d33 53656D50 		.ascii	"SemPendTime\000"
 4035      656E6454 
 4035      696D6500 
 4036              	.LASF303:
 4037 0d3f 4F535150 		.ascii	"OSQPend\000"
 4037      656E6400 
 4038              	.LASF109:
 4039 0d47 4F535F45 		.ascii	"OS_ERR_PTR_INVALID\000"
 4039      52525F50 
 4039      54525F49 
 4039      4E56414C 
 4039      494400
 4040              	.LASF131:
 4041 0d5a 4F535F45 		.ascii	"OS_ERR_STATE_INVALID\000"
 4041      52525F53 
 4041      54415445 
 4041      5F494E56 
 4041      414C4944 
 4042              	.LASF205:
 4043 0d6f 4E657874 		.ascii	"NextPtr\000"
 4043      50747200 
 4044              	.LASF91:
 4045 0d77 4F535F45 		.ascii	"OS_ERR_OS_NOT_RUNNING\000"
 4045      52525F4F 
 4045      535F4E4F 
 4045      545F5255 
 4045      4E4E494E 
 4046              	.LASF255:
 4047 0d8d 4D736751 		.ascii	"MsgQPendTime\000"
 4047      50656E64 
 4047      54696D65 
 4047      00
 4048              	.LASF218:
 4049 0d9a 6F735F6D 		.ascii	"os_mutex\000"
 4049      75746578 
 4049      00
 4050              	.LASF320:
 4051 0da3 4F53496E 		.ascii	"OSIntNestingCtr\000"
 4051      744E6573 
 4051      74696E67 
 4051      43747200 
 4052              	.LASF236:
 4053 0db3 53746B4C 		.ascii	"StkLimitPtr\000"
 4053      696D6974 
 4053      50747200 
 4054              	.LASF240:
 4055 0dbf 5469636B 		.ascii	"TickListPtr\000"
 4055      4C697374 
 4055      50747200 
 4056              	.LASF179:
ARM GAS  C:\Users\ADMINI~1\AppData\Local\Temp\ccKLo23z.s 			page 102


 4057 0dcb 4F535F45 		.ascii	"OS_ERR_TIME_SET_ISR\000"
 4057      52525F54 
 4057      494D455F 
 4057      5345545F 
 4057      49535200 
 4058              	.LASF117:
 4059 0ddf 4F535F45 		.ascii	"OS_ERR_ROUND_ROBIN_1\000"
 4059      52525F52 
 4059      4F554E44 
 4059      5F524F42 
 4059      494E5F31 
 4060              	.LASF71:
 4061 0df4 4F535F45 		.ascii	"OS_ERR_MEM_INVALID_P_BLK\000"
 4061      52525F4D 
 4061      454D5F49 
 4061      4E56414C 
 4061      49445F50 
 4062              	.LASF68:
 4063 0e0d 4F535F45 		.ascii	"OS_ERR_MEM_INVALID_P_ADDR\000"
 4063      52525F4D 
 4063      454D5F49 
 4063      4E56414C 
 4063      49445F50 
 4064              	.LASF286:
 4065 0e27 52647954 		.ascii	"RdyTS\000"
 4065      5300
 4066              	.LASF64:
 4067 0e2d 4F535F45 		.ascii	"OS_ERR_LOCK_NESTING_OVF\000"
 4067      52525F4C 
 4067      4F434B5F 
 4067      4E455354 
 4067      494E475F 
 4068              	.LASF153:
 4069 0e45 4F535F45 		.ascii	"OS_ERR_TASK_STK_CHK_ISR\000"
 4069      52525F54 
 4069      41534B5F 
 4069      53544B5F 
 4069      43484B5F 
 4070              	.LASF276:
 4071 0e5d 6F735F74 		.ascii	"os_tick_list\000"
 4071      69636B5F 
 4071      6C697374 
 4071      00
 4072              	.LASF7:
 4073 0e6a 73686F72 		.ascii	"short int\000"
 4073      7420696E 
 4073      7400
 4074              	.LASF285:
 4075 0e74 5264794D 		.ascii	"RdyMsgSize\000"
 4075      73675369 
 4075      7A6500
 4076              	.LASF76:
 4077 0e7f 4F535F45 		.ascii	"OS_ERR_MSG_POOL_EMPTY\000"
 4077      52525F4D 
 4077      53475F50 
 4077      4F4F4C5F 
 4077      454D5054 
ARM GAS  C:\Users\ADMINI~1\AppData\Local\Temp\ccKLo23z.s 			page 103


 4078              	.LASF273:
 4079 0e95 496E7444 		.ascii	"IntDisTimeMax\000"
 4079      69735469 
 4079      6D654D61 
 4079      7800
 4080              	.LASF124:
 4081 0ea3 4F535F45 		.ascii	"OS_ERR_SCHED_UNLOCK_ISR\000"
 4081      52525F53 
 4081      43484544 
 4081      5F554E4C 
 4081      4F434B5F 
 4082              	.LASF270:
 4083 0ebb 53656D50 		.ascii	"SemPendTimeMax\000"
 4083      656E6454 
 4083      696D654D 
 4083      617800
 4084              	.LASF268:
 4085 0eca 4379636C 		.ascii	"CyclesTotalPrev\000"
 4085      6573546F 
 4085      74616C50 
 4085      72657600 
 4086              	.LASF225:
 4087 0eda 4D757465 		.ascii	"MutexGrpNextPtr\000"
 4087      78477270 
 4087      4E657874 
 4087      50747200 
 4088              	.LASF275:
 4089 0eea 4F535F54 		.ascii	"OS_TICK_LIST\000"
 4089      49434B5F 
 4089      4C495354 
 4089      00
 4090              	.LASF168:
 4091 0ef7 4F535F45 		.ascii	"OS_ERR_TICK_STK_INVALID\000"
 4091      52525F54 
 4091      49434B5F 
 4091      53544B5F 
 4091      494E5641 
 4092              	.LASF77:
 4093 0f0f 4F535F45 		.ascii	"OS_ERR_MSG_POOL_NULL_PTR\000"
 4093      52525F4D 
 4093      53475F50 
 4093      4F4F4C5F 
 4093      4E554C4C 
 4094              	.LASF26:
 4095 0f28 4F535F4E 		.ascii	"OS_NESTING_CTR\000"
 4095      45535449 
 4095      4E475F43 
 4095      545200
 4096              	.LASF267:
 4097 0f37 4379636C 		.ascii	"CyclesTotal\000"
 4097      6573546F 
 4097      74616C00 
 4098              	.LASF322:
 4099 0f43 4F535151 		.ascii	"OSQQty\000"
 4099      747900
 4100              	.LASF291:
 4101 0f4a 4F535F50 		.ascii	"OS_PEND_OBJ\000"
ARM GAS  C:\Users\ADMINI~1\AppData\Local\Temp\ccKLo23z.s 			page 104


 4101      454E445F 
 4101      4F424A00 
 4102              	.LASF308:
 4103 0f56 4F535143 		.ascii	"OSQCreate\000"
 4103      72656174 
 4103      6500
 4104              	.LASF151:
 4105 0f60 4F535F45 		.ascii	"OS_ERR_TASK_RESUME_SELF\000"
 4105      52525F54 
 4105      41534B5F 
 4105      52455355 
 4105      4D455F53 
 4106              	.LASF263:
 4107 0f78 43505555 		.ascii	"CPUUsageMax\000"
 4107      73616765 
 4107      4D617800 
 4108              	.LASF221:
 4109 0f84 50656E64 		.ascii	"PendList\000"
 4109      4C697374 
 4109      00
 4110              	.LASF89:
 4111 0f8d 4F535F45 		.ascii	"OS_ERR_OBJ_TYPE\000"
 4111      52525F4F 
 4111      424A5F54 
 4111      59504500 
 4112              	.LASF244:
 4113 0f9d 50656E64 		.ascii	"PendDataTblPtr\000"
 4113      44617461 
 4113      54626C50 
 4113      747200
 4114              	.LASF252:
 4115 0fac 53656D43 		.ascii	"SemCtr\000"
 4115      747200
 4116              	.LASF212:
 4117 0fb3 496E5074 		.ascii	"InPtr\000"
 4117      7200
 4118              	.LASF253:
 4119 0fb9 5469636B 		.ascii	"TickRemain\000"
 4119      52656D61 
 4119      696E00
 4120              	.LASF289:
 4121 0fc4 48656164 		.ascii	"HeadPtr\000"
 4121      50747200 
 4122              	.LASF98:
 4123 0fcc 4F535F45 		.ascii	"OS_ERR_PEND_ABORT_NONE\000"
 4123      52525F50 
 4123      454E445F 
 4123      41424F52 
 4123      545F4E4F 
 4124              	.LASF9:
 4125 0fe3 756E7369 		.ascii	"unsigned int\000"
 4125      676E6564 
 4125      20696E74 
 4125      00
 4126              	.LASF207:
 4127 0ff0 4D736753 		.ascii	"MsgSize\000"
 4127      697A6500 
ARM GAS  C:\Users\ADMINI~1\AppData\Local\Temp\ccKLo23z.s 			page 105


 4128              	.LASF79:
 4129 0ff8 4F535F45 		.ascii	"OS_ERR_MUTEX_OWNER\000"
 4129      52525F4D 
 4129      55544558 
 4129      5F4F574E 
 4129      455200
 4130              	.LASF130:
 4131 100b 4F535F45 		.ascii	"OS_ERR_STAT_STK_SIZE_INVALID\000"
 4131      52525F53 
 4131      5441545F 
 4131      53544B5F 
 4131      53495A45 
 4132              	.LASF48:
 4133 1028 4F535F45 		.ascii	"OS_ERR_FLAG_NOT_RDY\000"
 4133      52525F46 
 4133      4C41475F 
 4133      4E4F545F 
 4133      52445900 
 4134              	.LASF235:
 4135 103c 45787450 		.ascii	"ExtPtr\000"
 4135      747200
 4136              	.LASF293:
 4137 1043 73697A65 		.ascii	"sizetype\000"
 4137      74797065 
 4137      00
 4138              	.LASF97:
 4139 104c 4F535F45 		.ascii	"OS_ERR_PEND_ABORT_ISR\000"
 4139      52525F50 
 4139      454E445F 
 4139      41424F52 
 4139      545F4953 
 4140              	.LASF14:
 4141 1062 4350555F 		.ascii	"CPU_ADDR\000"
 4141      41444452 
 4141      00
 4142              	.LASF304:
 4143 106b 4F535150 		.ascii	"OSQPendAbort\000"
 4143      656E6441 
 4143      626F7274 
 4143      00
 4144              	.LASF105:
 4145 1078 4F535F45 		.ascii	"OS_ERR_POST_ISR\000"
 4145      52525F50 
 4145      4F53545F 
 4145      49535200 
 4146              	.LASF171:
 4147 1088 4F535F45 		.ascii	"OS_ERR_TIME_DLY_ISR\000"
 4147      52525F54 
 4147      494D455F 
 4147      444C595F 
 4147      49535200 
 4148              	.LASF135:
 4149 109c 4F535F45 		.ascii	"OS_ERR_STK_LIMIT_INVALID\000"
 4149      52525F53 
 4149      544B5F4C 
 4149      494D4954 
 4149      5F494E56 
ARM GAS  C:\Users\ADMINI~1\AppData\Local\Temp\ccKLo23z.s 			page 106


 4150              	.LASF22:
 4151 10b5 4F535F43 		.ascii	"OS_CYCLES\000"
 4151      59434C45 
 4151      5300
 4152              	.LASF232:
 4153 10bf 4F535F54 		.ascii	"OS_TCB\000"
 4153      434200
 4154              	.LASF134:
 4155 10c6 4F535F45 		.ascii	"OS_ERR_STK_SIZE_INVALID\000"
 4155      52525F53 
 4155      544B5F53 
 4155      495A455F 
 4155      494E5641 
 4156              	.LASF51:
 4157 10de 4F535F45 		.ascii	"OS_ERR_G\000"
 4157      52525F47 
 4157      00
 4158              	.LASF194:
 4159 10e7 4F535F45 		.ascii	"OS_ERR_TMR_STOPPED\000"
 4159      52525F54 
 4159      4D525F53 
 4159      544F5050 
 4159      454400
 4160              	.LASF1:
 4161 10fa 756E7369 		.ascii	"unsigned char\000"
 4161      676E6564 
 4161      20636861 
 4161      7200
 4162              	.LASF148:
 4163 1108 4F535F45 		.ascii	"OS_ERR_TASK_OPT\000"
 4163      52525F54 
 4163      41534B5F 
 4163      4F505400 
 4164              	.LASF323:
 4165 1118 4F535363 		.ascii	"OSSchedLockNestingCtr\000"
 4165      6865644C 
 4165      6F636B4E 
 4165      65737469 
 4165      6E674374 
 4166              	.LASF181:
 4167 112e 4F535F45 		.ascii	"OS_ERR_TIMEOUT\000"
 4167      52525F54 
 4167      494D454F 
 4167      555400
 4168              	.LASF33:
 4169 113d 4F535F53 		.ascii	"OS_STATE\000"
 4169      54415445 
 4169      00
 4170              	.LASF297:
 4171 1146 74696D65 		.ascii	"timeout\000"
 4171      6F757400 
 4172              	.LASF29:
 4173 114e 4F535F4F 		.ascii	"OS_OPT\000"
 4173      505400
 4174              	.LASF231:
 4175 1155 4F535F54 		.ascii	"OS_TASK_PTR\000"
 4175      41534B5F 
ARM GAS  C:\Users\ADMINI~1\AppData\Local\Temp\ccKLo23z.s 			page 107


 4175      50545200 
 4176              	.LASF66:
 4177 1161 4F535F45 		.ascii	"OS_ERR_MEM_CREATE_ISR\000"
 4177      52525F4D 
 4177      454D5F43 
 4177      52454154 
 4177      455F4953 
 4178              	.LASF132:
 4179 1177 4F535F45 		.ascii	"OS_ERR_STATUS_INVALID\000"
 4179      52525F53 
 4179      54415455 
 4179      535F494E 
 4179      56414C49 
 4180              	.LASF200:
 4181 118d 4F535F45 		.ascii	"OS_ERR_Y\000"
 4181      52525F59 
 4181      00
 4182              	.LASF101:
 4183 1196 4F535F45 		.ascii	"OS_ERR_PEND_ISR\000"
 4183      52525F50 
 4183      454E445F 
 4183      49535200 
 4184              	.LASF202:
 4185 11a6 4F535F45 		.ascii	"OS_ERR_Z\000"
 4185      52525F5A 
 4185      00
 4186              	.LASF224:
 4187 11af 4462674E 		.ascii	"DbgNamePtr\000"
 4187      616D6550 
 4187      747200
 4188              	.LASF213:
 4189 11ba 4F757450 		.ascii	"OutPtr\000"
 4189      747200
 4190              	.LASF243:
 4191 11c1 5461736B 		.ascii	"TaskEntryArg\000"
 4191      456E7472 
 4191      79417267 
 4191      00
 4192              	.LASF111:
 4193 11ce 4F535F45 		.ascii	"OS_ERR_Q_FULL\000"
 4193      52525F51 
 4193      5F46554C 
 4193      4C00
 4194              	.LASF58:
 4195 11dc 4F535F45 		.ascii	"OS_ERR_INT_Q_STK_INVALID\000"
 4195      52525F49 
 4195      4E545F51 
 4195      5F53544B 
 4195      5F494E56 
 4196              	.LASF176:
 4197 11f5 4F535F45 		.ascii	"OS_ERR_TIME_INVALID_SECONDS\000"
 4197      52525F54 
 4197      494D455F 
 4197      494E5641 
 4197      4C49445F 
 4198              	.LASF315:
 4199 1211 705F715F 		.ascii	"p_q_prev\000"
ARM GAS  C:\Users\ADMINI~1\AppData\Local\Temp\ccKLo23z.s 			page 108


 4199      70726576 
 4199      00
 4200              	.LASF139:
 4201 121a 4F535F45 		.ascii	"OS_ERR_TASK_DEL\000"
 4201      52525F54 
 4201      41534B5F 
 4201      44454C00 
 4202              	.LASF287:
 4203 122a 4F535F50 		.ascii	"OS_PEND_LIST\000"
 4203      454E445F 
 4203      4C495354 
 4203      00
 4204              	.LASF310:
 4205 1237 6D73675F 		.ascii	"msg_size\000"
 4205      73697A65 
 4205      00
 4206              	.LASF4:
 4207 1240 7369676E 		.ascii	"signed char\000"
 4207      65642063 
 4207      68617200 
 4208              	.LASF208:
 4209 124c 4D736754 		.ascii	"MsgTS\000"
 4209      5300
 4210              	.LASF46:
 4211 1252 4F535F45 		.ascii	"OS_ERR_FATAL_RETURN\000"
 4211      52525F46 
 4211      4154414C 
 4211      5F524554 
 4211      55524E00 
 4212              	.LASF6:
 4213 1266 73686F72 		.ascii	"short unsigned int\000"
 4213      7420756E 
 4213      7369676E 
 4213      65642069 
 4213      6E7400
 4214              	.LASF23:
 4215 1279 4F535F46 		.ascii	"OS_FLAGS\000"
 4215      4C414753 
 4215      00
 4216              	.LASF206:
 4217 1282 4D736750 		.ascii	"MsgPtr\000"
 4217      747200
 4218              	.LASF164:
 4219 1289 4F535F45 		.ascii	"OS_ERR_TLS_NO_MORE_AVAIL\000"
 4219      52525F54 
 4219      4C535F4E 
 4219      4F5F4D4F 
 4219      52455F41 
 4220              	.LASF36:
 4221 12a2 4F535F45 		.ascii	"OS_ERR_NONE\000"
 4221      52525F4E 
 4221      4F4E4500 
 4222              	.LASF280:
 4223 12ae 6F735F70 		.ascii	"os_pend_data\000"
 4223      656E645F 
 4223      64617461 
 4223      00
ARM GAS  C:\Users\ADMINI~1\AppData\Local\Temp\ccKLo23z.s 			page 109


 4224              	.LASF314:
 4225 12bb 705F715F 		.ascii	"p_q_next\000"
 4225      6E657874 
 4225      00
 4226              	.LASF122:
 4227 12c4 4F535F45 		.ascii	"OS_ERR_SCHED_LOCKED\000"
 4227      52525F53 
 4227      43484544 
 4227      5F4C4F43 
 4227      4B454400 
 4228              	.LASF50:
 4229 12d8 4F535F45 		.ascii	"OS_ERR_FLUSH_ISR\000"
 4229      52525F46 
 4229      4C555348 
 4229      5F495352 
 4229      00
 4230              	.LASF248:
 4231 12e9 5072696F 		.ascii	"Prio\000"
 4231      00
 4232              	.LASF13:
 4233 12ee 646F7562 		.ascii	"double\000"
 4233      6C6500
 4234              	.LASF96:
 4235 12f5 4F535F45 		.ascii	"OS_ERR_PEND_ABORT\000"
 4235      52525F50 
 4235      454E445F 
 4235      41424F52 
 4235      5400
 4236              	.LASF262:
 4237 1307 43505555 		.ascii	"CPUUsage\000"
 4237      73616765 
 4237      00
 4238              	.LASF123:
 4239 1310 4F535F45 		.ascii	"OS_ERR_SCHED_NOT_LOCKED\000"
 4239      52525F53 
 4239      43484544 
 4239      5F4E4F54 
 4239      5F4C4F43 
 4240              	.LASF107:
 4241 1328 4F535F45 		.ascii	"OS_ERR_PRIO\000"
 4241      52525F50 
 4241      52494F00 
 4242              	.LASF100:
 4243 1334 4F535F45 		.ascii	"OS_ERR_PEND_DEL\000"
 4243      52525F50 
 4243      454E445F 
 4243      44454C00 
 4244              	.LASF282:
 4245 1344 50656E64 		.ascii	"PendObjPtr\000"
 4245      4F626A50 
 4245      747200
 4246              	.LASF216:
 4247 134f 4E627245 		.ascii	"NbrEntriesMax\000"
 4247      6E747269 
 4247      65734D61 
 4247      7800
 4248              	.LASF288:
ARM GAS  C:\Users\ADMINI~1\AppData\Local\Temp\ccKLo23z.s 			page 110


 4249 135d 6F735F70 		.ascii	"os_pend_list\000"
 4249      656E645F 
 4249      6C697374 
 4249      00
 4250              	.LASF74:
 4251 136a 4F535F45 		.ascii	"OS_ERR_MEM_INVALID_SIZE\000"
 4251      52525F4D 
 4251      454D5F49 
 4251      4E56414C 
 4251      49445F53 
 4252              	.LASF154:
 4253 1382 4F535F45 		.ascii	"OS_ERR_TASK_SUSPENDED\000"
 4253      52525F54 
 4253      41534B5F 
 4253      53555350 
 4253      454E4445 
 4254              	.LASF126:
 4255 1398 4F535F45 		.ascii	"OS_ERR_SET_ISR\000"
 4255      52525F53 
 4255      45545F49 
 4255      535200
 4256              	.LASF257:
 4257 13a7 52656754 		.ascii	"RegTbl\000"
 4257      626C00
 4258              	.LASF125:
 4259 13ae 4F535F45 		.ascii	"OS_ERR_SEM_OVF\000"
 4259      52525F53 
 4259      454D5F4F 
 4259      564600
 4260              	.LASF140:
 4261 13bd 4F535F45 		.ascii	"OS_ERR_TASK_DEL_IDLE\000"
 4261      52525F54 
 4261      41534B5F 
 4261      44454C5F 
 4261      49444C45 
 4262              	.LASF173:
 4263 13d2 4F535F45 		.ascii	"OS_ERR_TIME_GET_ISR\000"
 4263      52525F54 
 4263      494D455F 
 4263      4745545F 
 4263      49535200 
 4264              	.LASF172:
 4265 13e6 4F535F45 		.ascii	"OS_ERR_TIME_DLY_RESUME_ISR\000"
 4265      52525F54 
 4265      494D455F 
 4265      444C595F 
 4265      52455355 
 4266              	.LASF167:
 4267 1401 4F535F45 		.ascii	"OS_ERR_TICK_PRIO_INVALID\000"
 4267      52525F54 
 4267      49434B5F 
 4267      5052494F 
 4267      5F494E56 
 4268              	.LASF106:
 4269 141a 4F535F45 		.ascii	"OS_ERR_PRIO_EXIST\000"
 4269      52525F50 
 4269      52494F5F 
ARM GAS  C:\Users\ADMINI~1\AppData\Local\Temp\ccKLo23z.s 			page 111


 4269      45584953 
 4269      5400
 4270              	.LASF211:
 4271 142c 6F735F6D 		.ascii	"os_msg_q\000"
 4271      73675F71 
 4271      00
 4272              	.LASF75:
 4273 1435 4F535F45 		.ascii	"OS_ERR_MEM_NO_FREE_BLKS\000"
 4273      52525F4D 
 4273      454D5F4E 
 4273      4F5F4652 
 4273      45455F42 
 4274              	.LASF15:
 4275 144d 4350555F 		.ascii	"CPU_STK\000"
 4275      53544B00 
 4276              		.ident	"GCC: (GNU Tools for ARM Embedded Processors) 5.4.1 20160609 (release) [ARM/embedded-5-bran
