ARM GAS  C:\Users\ADMINI~1\AppData\Local\Temp\ccz9YpXg.s 			page 1


   1              		.syntax unified
   2              		.cpu cortex-m0
   3              		.fpu softvfp
   4              		.eabi_attribute 20, 1
   5              		.eabi_attribute 21, 1
   6              		.eabi_attribute 23, 3
   7              		.eabi_attribute 24, 1
   8              		.eabi_attribute 25, 1
   9              		.eabi_attribute 26, 1
  10              		.eabi_attribute 30, 6
  11              		.eabi_attribute 34, 0
  12              		.eabi_attribute 18, 4
  13              		.thumb
  14              		.syntax unified
  15              		.file	"os_stat.c"
  16              		.text
  17              	.Ltext0:
  18              		.cfi_sections	.debug_frame
  19              		.section	.text.OSStatReset,"ax",%progbits
  20              		.align	2
  21              		.global	OSStatReset
  22              		.code	16
  23              		.thumb_func
  24              		.type	OSStatReset, %function
  25              	OSStatReset:
  26              	.LFB0:
  27              		.file 1 "..\\..\\..\\..\\..\\..\\Software\\uCOS-III\\Source\\os_stat.c"
   1:..\..\..\..\..\..\Software\uCOS-III\Source/os_stat.c **** /*
   2:..\..\..\..\..\..\Software\uCOS-III\Source/os_stat.c **** ***************************************************************************************************
   3:..\..\..\..\..\..\Software\uCOS-III\Source/os_stat.c **** *                                                      uC/OS-III
   4:..\..\..\..\..\..\Software\uCOS-III\Source/os_stat.c **** *                                                 The Real-Time Kernel
   5:..\..\..\..\..\..\Software\uCOS-III\Source/os_stat.c **** *
   6:..\..\..\..\..\..\Software\uCOS-III\Source/os_stat.c **** *                                  (c) Copyright 2009-2015; Micrium, Inc.; Weston, FL
   7:..\..\..\..\..\..\Software\uCOS-III\Source/os_stat.c **** *                           All rights reserved.  Protected by international copyright laws.
   8:..\..\..\..\..\..\Software\uCOS-III\Source/os_stat.c **** *
   9:..\..\..\..\..\..\Software\uCOS-III\Source/os_stat.c **** *                                                  STATISTICS MODULE
  10:..\..\..\..\..\..\Software\uCOS-III\Source/os_stat.c **** *
  11:..\..\..\..\..\..\Software\uCOS-III\Source/os_stat.c **** * File    : OS_STAT.C
  12:..\..\..\..\..\..\Software\uCOS-III\Source/os_stat.c **** * By      : JJL
  13:..\..\..\..\..\..\Software\uCOS-III\Source/os_stat.c **** * Version : V3.05.01
  14:..\..\..\..\..\..\Software\uCOS-III\Source/os_stat.c **** *
  15:..\..\..\..\..\..\Software\uCOS-III\Source/os_stat.c **** * LICENSING TERMS:
  16:..\..\..\..\..\..\Software\uCOS-III\Source/os_stat.c **** * ---------------
  17:..\..\..\..\..\..\Software\uCOS-III\Source/os_stat.c **** *           uC/OS-III is provided in source form for FREE short-term evaluation, for educational us
  18:..\..\..\..\..\..\Software\uCOS-III\Source/os_stat.c **** *           for peaceful research.  If you plan or intend to use uC/OS-III in a commercial applicat
  19:..\..\..\..\..\..\Software\uCOS-III\Source/os_stat.c **** *           product then, you need to contact Micrium to properly license uC/OS-III for its use in 
  20:..\..\..\..\..\..\Software\uCOS-III\Source/os_stat.c **** *           application/product.   We provide ALL the source code for your convenience and to help 
  21:..\..\..\..\..\..\Software\uCOS-III\Source/os_stat.c **** *           experience uC/OS-III.  The fact that the source is provided does NOT mean that you can 
  22:..\..\..\..\..\..\Software\uCOS-III\Source/os_stat.c **** *           it commercially without paying a licensing fee.
  23:..\..\..\..\..\..\Software\uCOS-III\Source/os_stat.c **** *
  24:..\..\..\..\..\..\Software\uCOS-III\Source/os_stat.c **** *           Knowledge of the source code may NOT be used to develop a similar product.
  25:..\..\..\..\..\..\Software\uCOS-III\Source/os_stat.c **** *
  26:..\..\..\..\..\..\Software\uCOS-III\Source/os_stat.c **** *           Please help us continue to provide the embedded community with the finest software avai
  27:..\..\..\..\..\..\Software\uCOS-III\Source/os_stat.c **** *           Your honesty is greatly appreciated.
  28:..\..\..\..\..\..\Software\uCOS-III\Source/os_stat.c **** *
  29:..\..\..\..\..\..\Software\uCOS-III\Source/os_stat.c **** *           You can find our product's user manual, API reference, release notes and
  30:..\..\..\..\..\..\Software\uCOS-III\Source/os_stat.c **** *           more information at https://doc.micrium.com.
ARM GAS  C:\Users\ADMINI~1\AppData\Local\Temp\ccz9YpXg.s 			page 2


  31:..\..\..\..\..\..\Software\uCOS-III\Source/os_stat.c **** *           You can contact us at www.micrium.com.
  32:..\..\..\..\..\..\Software\uCOS-III\Source/os_stat.c **** ***************************************************************************************************
  33:..\..\..\..\..\..\Software\uCOS-III\Source/os_stat.c **** */
  34:..\..\..\..\..\..\Software\uCOS-III\Source/os_stat.c **** 
  35:..\..\..\..\..\..\Software\uCOS-III\Source/os_stat.c **** #define  MICRIUM_SOURCE
  36:..\..\..\..\..\..\Software\uCOS-III\Source/os_stat.c **** #include "os.h"
  37:..\..\..\..\..\..\Software\uCOS-III\Source/os_stat.c **** 
  38:..\..\..\..\..\..\Software\uCOS-III\Source/os_stat.c **** #ifdef VSC_INCLUDE_SOURCE_FILE_NAMES
  39:..\..\..\..\..\..\Software\uCOS-III\Source/os_stat.c **** const  CPU_CHAR  *os_stat__c = "$Id: $";
  40:..\..\..\..\..\..\Software\uCOS-III\Source/os_stat.c **** #endif
  41:..\..\..\..\..\..\Software\uCOS-III\Source/os_stat.c **** 
  42:..\..\..\..\..\..\Software\uCOS-III\Source/os_stat.c **** 
  43:..\..\..\..\..\..\Software\uCOS-III\Source/os_stat.c **** #if (OS_CFG_STAT_TASK_EN == DEF_ENABLED)
  44:..\..\..\..\..\..\Software\uCOS-III\Source/os_stat.c **** 
  45:..\..\..\..\..\..\Software\uCOS-III\Source/os_stat.c **** /*
  46:..\..\..\..\..\..\Software\uCOS-III\Source/os_stat.c **** ***************************************************************************************************
  47:..\..\..\..\..\..\Software\uCOS-III\Source/os_stat.c **** *                                                   RESET STATISTICS
  48:..\..\..\..\..\..\Software\uCOS-III\Source/os_stat.c **** *
  49:..\..\..\..\..\..\Software\uCOS-III\Source/os_stat.c **** * Description: This function is called by your application to reset the statistics.
  50:..\..\..\..\..\..\Software\uCOS-III\Source/os_stat.c **** *
  51:..\..\..\..\..\..\Software\uCOS-III\Source/os_stat.c **** * Argument(s): p_err      is a pointer to a variable that will contain an error code returned by th
  52:..\..\..\..\..\..\Software\uCOS-III\Source/os_stat.c **** *
  53:..\..\..\..\..\..\Software\uCOS-III\Source/os_stat.c **** *                             OS_ERR_NONE            The call succeeded
  54:..\..\..\..\..\..\Software\uCOS-III\Source/os_stat.c **** *
  55:..\..\..\..\..\..\Software\uCOS-III\Source/os_stat.c **** * Returns    : none
  56:..\..\..\..\..\..\Software\uCOS-III\Source/os_stat.c **** *
  57:..\..\..\..\..\..\Software\uCOS-III\Source/os_stat.c **** * Note(s)    : none
  58:..\..\..\..\..\..\Software\uCOS-III\Source/os_stat.c **** ***************************************************************************************************
  59:..\..\..\..\..\..\Software\uCOS-III\Source/os_stat.c **** */
  60:..\..\..\..\..\..\Software\uCOS-III\Source/os_stat.c **** 
  61:..\..\..\..\..\..\Software\uCOS-III\Source/os_stat.c **** void  OSStatReset (OS_ERR  *p_err)
  62:..\..\..\..\..\..\Software\uCOS-III\Source/os_stat.c **** {
  28              		.loc 1 62 0
  29              		.cfi_startproc
  30              		@ args = 0, pretend = 0, frame = 24
  31              		@ frame_needed = 1, uses_anonymous_args = 0
  32 0000 80B5     		push	{r7, lr}
  33              		.cfi_def_cfa_offset 8
  34              		.cfi_offset 7, -8
  35              		.cfi_offset 14, -4
  36 0002 86B0     		sub	sp, sp, #24
  37              		.cfi_def_cfa_offset 32
  38 0004 00AF     		add	r7, sp, #0
  39              		.cfi_def_cfa_register 7
  40 0006 7860     		str	r0, [r7, #4]
  63:..\..\..\..\..\..\Software\uCOS-III\Source/os_stat.c **** #if (OS_CFG_DBG_EN == DEF_ENABLED)
  64:..\..\..\..\..\..\Software\uCOS-III\Source/os_stat.c ****     OS_TCB      *p_tcb;
  65:..\..\..\..\..\..\Software\uCOS-III\Source/os_stat.c **** #if (OS_MSG_EN == DEF_ENABLED)
  66:..\..\..\..\..\..\Software\uCOS-III\Source/os_stat.c ****     OS_MSG_Q    *p_msg_q;
  67:..\..\..\..\..\..\Software\uCOS-III\Source/os_stat.c **** #endif
  68:..\..\..\..\..\..\Software\uCOS-III\Source/os_stat.c **** #if (OS_CFG_Q_EN == DEF_ENABLED)
  69:..\..\..\..\..\..\Software\uCOS-III\Source/os_stat.c ****     OS_Q        *p_q;
  70:..\..\..\..\..\..\Software\uCOS-III\Source/os_stat.c **** #endif
  71:..\..\..\..\..\..\Software\uCOS-III\Source/os_stat.c **** #endif
  72:..\..\..\..\..\..\Software\uCOS-III\Source/os_stat.c ****     CPU_SR_ALLOC();
  41              		.loc 1 72 0
  42 0008 0023     		movs	r3, #0
ARM GAS  C:\Users\ADMINI~1\AppData\Local\Temp\ccz9YpXg.s 			page 3


  43 000a FB60     		str	r3, [r7, #12]
  73:..\..\..\..\..\..\Software\uCOS-III\Source/os_stat.c **** 
  74:..\..\..\..\..\..\Software\uCOS-III\Source/os_stat.c **** 
  75:..\..\..\..\..\..\Software\uCOS-III\Source/os_stat.c **** 
  76:..\..\..\..\..\..\Software\uCOS-III\Source/os_stat.c **** #ifdef OS_SAFETY_CRITICAL
  77:..\..\..\..\..\..\Software\uCOS-III\Source/os_stat.c ****     if (p_err == DEF_NULL) {
  78:..\..\..\..\..\..\Software\uCOS-III\Source/os_stat.c ****         OS_SAFETY_CRITICAL_EXCEPTION();
  79:..\..\..\..\..\..\Software\uCOS-III\Source/os_stat.c ****         return;
  80:..\..\..\..\..\..\Software\uCOS-III\Source/os_stat.c ****     }
  81:..\..\..\..\..\..\Software\uCOS-III\Source/os_stat.c **** #endif
  82:..\..\..\..\..\..\Software\uCOS-III\Source/os_stat.c **** 
  83:..\..\..\..\..\..\Software\uCOS-III\Source/os_stat.c ****     CPU_CRITICAL_ENTER();
  44              		.loc 1 83 0
  45 000c FFF7FEFF 		bl	CPU_SR_Save
  46 0010 0300     		movs	r3, r0
  47 0012 FB60     		str	r3, [r7, #12]
  48 0014 FFF7FEFF 		bl	CPU_IntDisMeasStart
  84:..\..\..\..\..\..\Software\uCOS-III\Source/os_stat.c **** #if (OS_CFG_ISR_POST_DEFERRED_EN == DEF_ENABLED)
  85:..\..\..\..\..\..\Software\uCOS-III\Source/os_stat.c **** #if (OS_CFG_TS_EN == DEF_ENABLED)
  86:..\..\..\..\..\..\Software\uCOS-III\Source/os_stat.c ****     OSIntQTaskTimeMax     = 0u;                                 /* Reset the task execution times  
  87:..\..\..\..\..\..\Software\uCOS-III\Source/os_stat.c **** #endif
  88:..\..\..\..\..\..\Software\uCOS-III\Source/os_stat.c ****     OSIntQNbrEntriesMax   = 0u;                                 /* Reset the queue maximum number o
  89:..\..\..\..\..\..\Software\uCOS-III\Source/os_stat.c **** #endif
  90:..\..\..\..\..\..\Software\uCOS-III\Source/os_stat.c **** 
  91:..\..\..\..\..\..\Software\uCOS-III\Source/os_stat.c **** #if (OS_CFG_STAT_TASK_EN == DEF_ENABLED)
  92:..\..\..\..\..\..\Software\uCOS-III\Source/os_stat.c ****     OSStatTaskCPUUsageMax = 0u;
  49              		.loc 1 92 0
  50 0018 4D4B     		ldr	r3, .L6
  51 001a 0022     		movs	r2, #0
  52 001c 1A80     		strh	r2, [r3]
  93:..\..\..\..\..\..\Software\uCOS-III\Source/os_stat.c **** #if (OS_CFG_TS_EN == DEF_ENABLED)
  94:..\..\..\..\..\..\Software\uCOS-III\Source/os_stat.c ****     OSStatTaskTimeMax     = 0u;
  53              		.loc 1 94 0
  54 001e 4D4B     		ldr	r3, .L6+4
  55 0020 0022     		movs	r2, #0
  56 0022 1A60     		str	r2, [r3]
  95:..\..\..\..\..\..\Software\uCOS-III\Source/os_stat.c **** #endif
  96:..\..\..\..\..\..\Software\uCOS-III\Source/os_stat.c **** #endif
  97:..\..\..\..\..\..\Software\uCOS-III\Source/os_stat.c **** 
  98:..\..\..\..\..\..\Software\uCOS-III\Source/os_stat.c **** #if (OS_CFG_TS_EN == DEF_ENABLED)
  99:..\..\..\..\..\..\Software\uCOS-III\Source/os_stat.c ****     OSTickTaskTimeMax     = 0u;
  57              		.loc 1 99 0
  58 0024 4C4B     		ldr	r3, .L6+8
  59 0026 0022     		movs	r2, #0
  60 0028 1A60     		str	r2, [r3]
 100:..\..\..\..\..\..\Software\uCOS-III\Source/os_stat.c **** #endif
 101:..\..\..\..\..\..\Software\uCOS-III\Source/os_stat.c **** 
 102:..\..\..\..\..\..\Software\uCOS-III\Source/os_stat.c **** #if (OS_CFG_TMR_EN == DEF_ENABLED)
 103:..\..\..\..\..\..\Software\uCOS-III\Source/os_stat.c **** #if (OS_CFG_TS_EN == DEF_ENABLED)
 104:..\..\..\..\..\..\Software\uCOS-III\Source/os_stat.c ****     OSTmrTaskTimeMax      = 0u;
  61              		.loc 1 104 0
  62 002a 4C4B     		ldr	r3, .L6+12
  63 002c 0022     		movs	r2, #0
  64 002e 1A60     		str	r2, [r3]
 105:..\..\..\..\..\..\Software\uCOS-III\Source/os_stat.c **** #endif
 106:..\..\..\..\..\..\Software\uCOS-III\Source/os_stat.c **** #endif
 107:..\..\..\..\..\..\Software\uCOS-III\Source/os_stat.c **** 
ARM GAS  C:\Users\ADMINI~1\AppData\Local\Temp\ccz9YpXg.s 			page 4


 108:..\..\..\..\..\..\Software\uCOS-III\Source/os_stat.c **** #ifdef CPU_CFG_INT_DIS_MEAS_EN
 109:..\..\..\..\..\..\Software\uCOS-III\Source/os_stat.c **** #if (OS_CFG_TS_EN == DEF_ENABLED)
 110:..\..\..\..\..\..\Software\uCOS-III\Source/os_stat.c ****     OSIntDisTimeMax       = 0u;                                 /* Reset the maximum interrupt disa
  65              		.loc 1 110 0
  66 0030 4B4B     		ldr	r3, .L6+16
  67 0032 0022     		movs	r2, #0
  68 0034 1A60     		str	r2, [r3]
 111:..\..\..\..\..\..\Software\uCOS-III\Source/os_stat.c **** #endif
 112:..\..\..\..\..\..\Software\uCOS-III\Source/os_stat.c **** #endif
 113:..\..\..\..\..\..\Software\uCOS-III\Source/os_stat.c **** 
 114:..\..\..\..\..\..\Software\uCOS-III\Source/os_stat.c **** #if (OS_CFG_SCHED_LOCK_TIME_MEAS_EN == DEF_ENABLED)
 115:..\..\..\..\..\..\Software\uCOS-III\Source/os_stat.c ****     OSSchedLockTimeMax    = 0u;                                 /* Reset the maximum scheduler lock
  69              		.loc 1 115 0
  70 0036 4B4B     		ldr	r3, .L6+20
  71 0038 0022     		movs	r2, #0
  72 003a 1A60     		str	r2, [r3]
 116:..\..\..\..\..\..\Software\uCOS-III\Source/os_stat.c **** #endif
 117:..\..\..\..\..\..\Software\uCOS-III\Source/os_stat.c **** 
 118:..\..\..\..\..\..\Software\uCOS-III\Source/os_stat.c **** #if ((OS_MSG_EN == DEF_ENABLED) && (OS_CFG_DBG_EN == DEF_ENABLED))
 119:..\..\..\..\..\..\Software\uCOS-III\Source/os_stat.c ****     OSMsgPool.NbrUsedMax  = 0u;
  73              		.loc 1 119 0
  74 003c 4A4B     		ldr	r3, .L6+24
  75 003e 0022     		movs	r2, #0
  76 0040 1A81     		strh	r2, [r3, #8]
 120:..\..\..\..\..\..\Software\uCOS-III\Source/os_stat.c **** #endif
 121:..\..\..\..\..\..\Software\uCOS-III\Source/os_stat.c ****     CPU_CRITICAL_EXIT();
  77              		.loc 1 121 0
  78 0042 FFF7FEFF 		bl	CPU_IntDisMeasStop
  79 0046 FB68     		ldr	r3, [r7, #12]
  80 0048 1800     		movs	r0, r3
  81 004a FFF7FEFF 		bl	CPU_SR_Restore
 122:..\..\..\..\..\..\Software\uCOS-III\Source/os_stat.c **** 
 123:..\..\..\..\..\..\Software\uCOS-III\Source/os_stat.c **** #if (OS_CFG_DBG_EN == DEF_ENABLED)
 124:..\..\..\..\..\..\Software\uCOS-III\Source/os_stat.c ****     CPU_CRITICAL_ENTER();
  82              		.loc 1 124 0
  83 004e FFF7FEFF 		bl	CPU_SR_Save
  84 0052 0300     		movs	r3, r0
  85 0054 FB60     		str	r3, [r7, #12]
  86 0056 FFF7FEFF 		bl	CPU_IntDisMeasStart
 125:..\..\..\..\..\..\Software\uCOS-III\Source/os_stat.c ****     p_tcb = OSTaskDbgListPtr;
  87              		.loc 1 125 0
  88 005a 444B     		ldr	r3, .L6+28
  89 005c 1B68     		ldr	r3, [r3]
  90 005e 7B61     		str	r3, [r7, #20]
 126:..\..\..\..\..\..\Software\uCOS-III\Source/os_stat.c ****     CPU_CRITICAL_EXIT();
  91              		.loc 1 126 0
  92 0060 FFF7FEFF 		bl	CPU_IntDisMeasStop
  93 0064 FB68     		ldr	r3, [r7, #12]
  94 0066 1800     		movs	r0, r3
  95 0068 FFF7FEFF 		bl	CPU_SR_Restore
 127:..\..\..\..\..\..\Software\uCOS-III\Source/os_stat.c ****     while (p_tcb != DEF_NULL) {                                 /* Reset per-Task statistics       
  96              		.loc 1 127 0
  97 006c 3EE0     		b	.L2
  98              	.L3:
 128:..\..\..\..\..\..\Software\uCOS-III\Source/os_stat.c ****         CPU_CRITICAL_ENTER();
  99              		.loc 1 128 0
 100 006e FFF7FEFF 		bl	CPU_SR_Save
ARM GAS  C:\Users\ADMINI~1\AppData\Local\Temp\ccz9YpXg.s 			page 5


 101 0072 0300     		movs	r3, r0
 102 0074 FB60     		str	r3, [r7, #12]
 103 0076 FFF7FEFF 		bl	CPU_IntDisMeasStart
 129:..\..\..\..\..\..\Software\uCOS-III\Source/os_stat.c **** 
 130:..\..\..\..\..\..\Software\uCOS-III\Source/os_stat.c **** #ifdef CPU_CFG_INT_DIS_MEAS_EN
 131:..\..\..\..\..\..\Software\uCOS-III\Source/os_stat.c ****         p_tcb->IntDisTimeMax    = 0u;
 104              		.loc 1 131 0
 105 007a 7B69     		ldr	r3, [r7, #20]
 106 007c B022     		movs	r2, #176
 107 007e 0021     		movs	r1, #0
 108 0080 9950     		str	r1, [r3, r2]
 132:..\..\..\..\..\..\Software\uCOS-III\Source/os_stat.c **** #endif
 133:..\..\..\..\..\..\Software\uCOS-III\Source/os_stat.c **** 
 134:..\..\..\..\..\..\Software\uCOS-III\Source/os_stat.c **** #if (OS_CFG_SCHED_LOCK_TIME_MEAS_EN == DEF_ENABLED)
 135:..\..\..\..\..\..\Software\uCOS-III\Source/os_stat.c ****         p_tcb->SchedLockTimeMax = 0u;
 109              		.loc 1 135 0
 110 0082 7B69     		ldr	r3, [r7, #20]
 111 0084 B422     		movs	r2, #180
 112 0086 0021     		movs	r1, #0
 113 0088 9950     		str	r1, [r3, r2]
 136:..\..\..\..\..\..\Software\uCOS-III\Source/os_stat.c **** #endif
 137:..\..\..\..\..\..\Software\uCOS-III\Source/os_stat.c **** 
 138:..\..\..\..\..\..\Software\uCOS-III\Source/os_stat.c **** #if (OS_CFG_TASK_PROFILE_EN == DEF_ENABLED)
 139:..\..\..\..\..\..\Software\uCOS-III\Source/os_stat.c **** #if (OS_CFG_TASK_Q_EN == DEF_ENABLED)
 140:..\..\..\..\..\..\Software\uCOS-III\Source/os_stat.c ****         p_tcb->MsgQPendTimeMax  = 0u;
 114              		.loc 1 140 0
 115 008a 7B69     		ldr	r3, [r7, #20]
 116 008c 0022     		movs	r2, #0
 117 008e 5A67     		str	r2, [r3, #116]
 141:..\..\..\..\..\..\Software\uCOS-III\Source/os_stat.c **** #endif
 142:..\..\..\..\..\..\Software\uCOS-III\Source/os_stat.c ****         p_tcb->SemPendTimeMax   = 0u;
 118              		.loc 1 142 0
 119 0090 7B69     		ldr	r3, [r7, #20]
 120 0092 A422     		movs	r2, #164
 121 0094 0021     		movs	r1, #0
 122 0096 9950     		str	r1, [r3, r2]
 143:..\..\..\..\..\..\Software\uCOS-III\Source/os_stat.c ****         p_tcb->CtxSwCtr         = 0u;
 123              		.loc 1 143 0
 124 0098 7B69     		ldr	r3, [r7, #20]
 125 009a 8C22     		movs	r2, #140
 126 009c 0021     		movs	r1, #0
 127 009e 9950     		str	r1, [r3, r2]
 144:..\..\..\..\..\..\Software\uCOS-III\Source/os_stat.c ****         p_tcb->CPUUsage         = 0u;
 128              		.loc 1 144 0
 129 00a0 7B69     		ldr	r3, [r7, #20]
 130 00a2 8822     		movs	r2, #136
 131 00a4 0021     		movs	r1, #0
 132 00a6 9952     		strh	r1, [r3, r2]
 145:..\..\..\..\..\..\Software\uCOS-III\Source/os_stat.c ****         p_tcb->CPUUsageMax      = 0u;
 133              		.loc 1 145 0
 134 00a8 7B69     		ldr	r3, [r7, #20]
 135 00aa 8A22     		movs	r2, #138
 136 00ac 0021     		movs	r1, #0
 137 00ae 9952     		strh	r1, [r3, r2]
 146:..\..\..\..\..\..\Software\uCOS-III\Source/os_stat.c ****         p_tcb->CyclesTotal      = 0u;
 138              		.loc 1 146 0
 139 00b0 7B69     		ldr	r3, [r7, #20]
ARM GAS  C:\Users\ADMINI~1\AppData\Local\Temp\ccz9YpXg.s 			page 6


 140 00b2 9822     		movs	r2, #152
 141 00b4 0021     		movs	r1, #0
 142 00b6 9950     		str	r1, [r3, r2]
 147:..\..\..\..\..\..\Software\uCOS-III\Source/os_stat.c ****         p_tcb->CyclesTotalPrev  = 0u;
 143              		.loc 1 147 0
 144 00b8 7B69     		ldr	r3, [r7, #20]
 145 00ba 9C22     		movs	r2, #156
 146 00bc 0021     		movs	r1, #0
 147 00be 9950     		str	r1, [r3, r2]
 148:..\..\..\..\..\..\Software\uCOS-III\Source/os_stat.c **** #if (OS_CFG_TS_EN == DEF_ENABLED)
 149:..\..\..\..\..\..\Software\uCOS-III\Source/os_stat.c ****         p_tcb->CyclesStart      = OS_TS_GET();
 148              		.loc 1 149 0
 149 00c0 FFF7FEFF 		bl	CPU_TS_TmrRd
 150 00c4 0100     		movs	r1, r0
 151 00c6 7B69     		ldr	r3, [r7, #20]
 152 00c8 9422     		movs	r2, #148
 153 00ca 9950     		str	r1, [r3, r2]
 150:..\..\..\..\..\..\Software\uCOS-III\Source/os_stat.c **** #endif
 151:..\..\..\..\..\..\Software\uCOS-III\Source/os_stat.c **** #endif
 152:..\..\..\..\..\..\Software\uCOS-III\Source/os_stat.c **** 
 153:..\..\..\..\..\..\Software\uCOS-III\Source/os_stat.c **** #if (OS_CFG_TASK_Q_EN == DEF_ENABLED)
 154:..\..\..\..\..\..\Software\uCOS-III\Source/os_stat.c ****         p_msg_q                 = &p_tcb->MsgQ;
 154              		.loc 1 154 0
 155 00cc 7B69     		ldr	r3, [r7, #20]
 156 00ce 6033     		adds	r3, r3, #96
 157 00d0 BB60     		str	r3, [r7, #8]
 155:..\..\..\..\..\..\Software\uCOS-III\Source/os_stat.c ****         p_msg_q->NbrEntriesMax  = 0u;
 158              		.loc 1 155 0
 159 00d2 BB68     		ldr	r3, [r7, #8]
 160 00d4 0022     		movs	r2, #0
 161 00d6 9A81     		strh	r2, [r3, #12]
 156:..\..\..\..\..\..\Software\uCOS-III\Source/os_stat.c **** #endif
 157:..\..\..\..\..\..\Software\uCOS-III\Source/os_stat.c ****         p_tcb                   = p_tcb->DbgNextPtr;
 162              		.loc 1 157 0
 163 00d8 7B69     		ldr	r3, [r7, #20]
 164 00da BC22     		movs	r2, #188
 165 00dc 9B58     		ldr	r3, [r3, r2]
 166 00de 7B61     		str	r3, [r7, #20]
 158:..\..\..\..\..\..\Software\uCOS-III\Source/os_stat.c ****         CPU_CRITICAL_EXIT();
 167              		.loc 1 158 0
 168 00e0 FFF7FEFF 		bl	CPU_IntDisMeasStop
 169 00e4 FB68     		ldr	r3, [r7, #12]
 170 00e6 1800     		movs	r0, r3
 171 00e8 FFF7FEFF 		bl	CPU_SR_Restore
 172              	.L2:
 127:..\..\..\..\..\..\Software\uCOS-III\Source/os_stat.c ****         CPU_CRITICAL_ENTER();
 173              		.loc 1 127 0
 174 00ec 7B69     		ldr	r3, [r7, #20]
 175 00ee 002B     		cmp	r3, #0
 176 00f0 BDD1     		bne	.L3
 159:..\..\..\..\..\..\Software\uCOS-III\Source/os_stat.c ****     }
 160:..\..\..\..\..\..\Software\uCOS-III\Source/os_stat.c **** #endif
 161:..\..\..\..\..\..\Software\uCOS-III\Source/os_stat.c **** 
 162:..\..\..\..\..\..\Software\uCOS-III\Source/os_stat.c **** #if (OS_CFG_Q_EN == DEF_ENABLED) && (OS_CFG_DBG_EN == DEF_ENABLED)
 163:..\..\..\..\..\..\Software\uCOS-III\Source/os_stat.c ****     CPU_CRITICAL_ENTER();
 177              		.loc 1 163 0
 178 00f2 FFF7FEFF 		bl	CPU_SR_Save
ARM GAS  C:\Users\ADMINI~1\AppData\Local\Temp\ccz9YpXg.s 			page 7


 179 00f6 0300     		movs	r3, r0
 180 00f8 FB60     		str	r3, [r7, #12]
 181 00fa FFF7FEFF 		bl	CPU_IntDisMeasStart
 164:..\..\..\..\..\..\Software\uCOS-III\Source/os_stat.c ****     p_q = OSQDbgListPtr;
 182              		.loc 1 164 0
 183 00fe 1C4B     		ldr	r3, .L6+32
 184 0100 1B68     		ldr	r3, [r3]
 185 0102 3B61     		str	r3, [r7, #16]
 165:..\..\..\..\..\..\Software\uCOS-III\Source/os_stat.c ****     CPU_CRITICAL_EXIT();
 186              		.loc 1 165 0
 187 0104 FFF7FEFF 		bl	CPU_IntDisMeasStop
 188 0108 FB68     		ldr	r3, [r7, #12]
 189 010a 1800     		movs	r0, r3
 190 010c FFF7FEFF 		bl	CPU_SR_Restore
 166:..\..\..\..\..\..\Software\uCOS-III\Source/os_stat.c ****     while (p_q != DEF_NULL) {                                   /* Reset message queues statistics 
 191              		.loc 1 166 0
 192 0110 14E0     		b	.L4
 193              	.L5:
 167:..\..\..\..\..\..\Software\uCOS-III\Source/os_stat.c ****         CPU_CRITICAL_ENTER();
 194              		.loc 1 167 0
 195 0112 FFF7FEFF 		bl	CPU_SR_Save
 196 0116 0300     		movs	r3, r0
 197 0118 FB60     		str	r3, [r7, #12]
 198 011a FFF7FEFF 		bl	CPU_IntDisMeasStart
 168:..\..\..\..\..\..\Software\uCOS-III\Source/os_stat.c ****         p_msg_q                = &p_q->MsgQ;
 199              		.loc 1 168 0
 200 011e 3B69     		ldr	r3, [r7, #16]
 201 0120 2033     		adds	r3, r3, #32
 202 0122 BB60     		str	r3, [r7, #8]
 169:..\..\..\..\..\..\Software\uCOS-III\Source/os_stat.c ****         p_msg_q->NbrEntriesMax = 0u;
 203              		.loc 1 169 0
 204 0124 BB68     		ldr	r3, [r7, #8]
 205 0126 0022     		movs	r2, #0
 206 0128 9A81     		strh	r2, [r3, #12]
 170:..\..\..\..\..\..\Software\uCOS-III\Source/os_stat.c ****         p_q                    = p_q->DbgNextPtr;
 207              		.loc 1 170 0
 208 012a 3B69     		ldr	r3, [r7, #16]
 209 012c 9B69     		ldr	r3, [r3, #24]
 210 012e 3B61     		str	r3, [r7, #16]
 171:..\..\..\..\..\..\Software\uCOS-III\Source/os_stat.c ****         CPU_CRITICAL_EXIT();
 211              		.loc 1 171 0
 212 0130 FFF7FEFF 		bl	CPU_IntDisMeasStop
 213 0134 FB68     		ldr	r3, [r7, #12]
 214 0136 1800     		movs	r0, r3
 215 0138 FFF7FEFF 		bl	CPU_SR_Restore
 216              	.L4:
 166:..\..\..\..\..\..\Software\uCOS-III\Source/os_stat.c ****         CPU_CRITICAL_ENTER();
 217              		.loc 1 166 0
 218 013c 3B69     		ldr	r3, [r7, #16]
 219 013e 002B     		cmp	r3, #0
 220 0140 E7D1     		bne	.L5
 172:..\..\..\..\..\..\Software\uCOS-III\Source/os_stat.c ****     }
 173:..\..\..\..\..\..\Software\uCOS-III\Source/os_stat.c **** #endif
 174:..\..\..\..\..\..\Software\uCOS-III\Source/os_stat.c **** 
 175:..\..\..\..\..\..\Software\uCOS-III\Source/os_stat.c **** 
 176:..\..\..\..\..\..\Software\uCOS-III\Source/os_stat.c ****    *p_err = OS_ERR_NONE;
 221              		.loc 1 176 0
ARM GAS  C:\Users\ADMINI~1\AppData\Local\Temp\ccz9YpXg.s 			page 8


 222 0142 7B68     		ldr	r3, [r7, #4]
 223 0144 0022     		movs	r2, #0
 224 0146 1A80     		strh	r2, [r3]
 177:..\..\..\..\..\..\Software\uCOS-III\Source/os_stat.c **** }
 225              		.loc 1 177 0
 226 0148 C046     		nop
 227 014a BD46     		mov	sp, r7
 228 014c 06B0     		add	sp, sp, #24
 229              		@ sp needed
 230 014e 80BD     		pop	{r7, pc}
 231              	.L7:
 232              		.align	2
 233              	.L6:
 234 0150 00000000 		.word	OSStatTaskCPUUsageMax
 235 0154 00000000 		.word	OSStatTaskTimeMax
 236 0158 00000000 		.word	OSTickTaskTimeMax
 237 015c 00000000 		.word	OSTmrTaskTimeMax
 238 0160 00000000 		.word	OSIntDisTimeMax
 239 0164 00000000 		.word	OSSchedLockTimeMax
 240 0168 00000000 		.word	OSMsgPool
 241 016c 00000000 		.word	OSTaskDbgListPtr
 242 0170 00000000 		.word	OSQDbgListPtr
 243              		.cfi_endproc
 244              	.LFE0:
 245              		.size	OSStatReset, .-OSStatReset
 246              		.global	__aeabi_uidiv
 247              		.section	.text.OSStatTaskCPUUsageInit,"ax",%progbits
 248              		.align	2
 249              		.global	OSStatTaskCPUUsageInit
 250              		.code	16
 251              		.thumb_func
 252              		.type	OSStatTaskCPUUsageInit, %function
 253              	OSStatTaskCPUUsageInit:
 254              	.LFB1:
 178:..\..\..\..\..\..\Software\uCOS-III\Source/os_stat.c **** 
 179:..\..\..\..\..\..\Software\uCOS-III\Source/os_stat.c **** 
 180:..\..\..\..\..\..\Software\uCOS-III\Source/os_stat.c **** /*
 181:..\..\..\..\..\..\Software\uCOS-III\Source/os_stat.c **** ***************************************************************************************************
 182:..\..\..\..\..\..\Software\uCOS-III\Source/os_stat.c **** *                                                DETERMINE THE CPU CAPACITY
 183:..\..\..\..\..\..\Software\uCOS-III\Source/os_stat.c **** *
 184:..\..\..\..\..\..\Software\uCOS-III\Source/os_stat.c **** * Description: This function is called by your application to establish CPU usage by first determin
 185:..\..\..\..\..\..\Software\uCOS-III\Source/os_stat.c **** *              counter would count to in 1/10 second if no other tasks were to execute during that 
 186:..\..\..\..\..\..\Software\uCOS-III\Source/os_stat.c **** *              then determined by a low priority task which keeps track of this 32-bit counter ever
 187:..\..\..\..\..\..\Software\uCOS-III\Source/os_stat.c **** *              time, with other tasks running.  CPU usage is determined by:
 188:..\..\..\..\..\..\Software\uCOS-III\Source/os_stat.c **** *
 189:..\..\..\..\..\..\Software\uCOS-III\Source/os_stat.c **** *                                             OS_Stat_IdleCtr
 190:..\..\..\..\..\..\Software\uCOS-III\Source/os_stat.c **** *                 CPU Usage (%) = 100 * (1 - ------------------)
 191:..\..\..\..\..\..\Software\uCOS-III\Source/os_stat.c **** *                                            OS_Stat_IdleCtrMax
 192:..\..\..\..\..\..\Software\uCOS-III\Source/os_stat.c **** *
 193:..\..\..\..\..\..\Software\uCOS-III\Source/os_stat.c **** * Argument(s): p_err      is a pointer to a variable that will contain an error code returned by th
 194:..\..\..\..\..\..\Software\uCOS-III\Source/os_stat.c **** *
 195:..\..\..\..\..\..\Software\uCOS-III\Source/os_stat.c **** *                             OS_ERR_NONE              The call was successfu
 196:..\..\..\..\..\..\Software\uCOS-III\Source/os_stat.c **** *                             OS_ERR_OS_NOT_RUNNING    If uC/OS-III is not running yet
 197:..\..\..\..\..\..\Software\uCOS-III\Source/os_stat.c **** *
 198:..\..\..\..\..\..\Software\uCOS-III\Source/os_stat.c **** * Returns    : none
 199:..\..\..\..\..\..\Software\uCOS-III\Source/os_stat.c **** *
 200:..\..\..\..\..\..\Software\uCOS-III\Source/os_stat.c **** * Note(s)    : none
ARM GAS  C:\Users\ADMINI~1\AppData\Local\Temp\ccz9YpXg.s 			page 9


 201:..\..\..\..\..\..\Software\uCOS-III\Source/os_stat.c **** ***************************************************************************************************
 202:..\..\..\..\..\..\Software\uCOS-III\Source/os_stat.c **** */
 203:..\..\..\..\..\..\Software\uCOS-III\Source/os_stat.c **** 
 204:..\..\..\..\..\..\Software\uCOS-III\Source/os_stat.c **** void  OSStatTaskCPUUsageInit (OS_ERR  *p_err)
 205:..\..\..\..\..\..\Software\uCOS-III\Source/os_stat.c **** {
 255              		.loc 1 205 0
 256              		.cfi_startproc
 257              		@ args = 0, pretend = 0, frame = 24
 258              		@ frame_needed = 1, uses_anonymous_args = 0
 259 0000 80B5     		push	{r7, lr}
 260              		.cfi_def_cfa_offset 8
 261              		.cfi_offset 7, -8
 262              		.cfi_offset 14, -4
 263 0002 86B0     		sub	sp, sp, #24
 264              		.cfi_def_cfa_offset 32
 265 0004 00AF     		add	r7, sp, #0
 266              		.cfi_def_cfa_register 7
 267 0006 7860     		str	r0, [r7, #4]
 206:..\..\..\..\..\..\Software\uCOS-III\Source/os_stat.c ****     OS_ERR   err;
 207:..\..\..\..\..\..\Software\uCOS-III\Source/os_stat.c ****     OS_TICK  dly;
 208:..\..\..\..\..\..\Software\uCOS-III\Source/os_stat.c ****     CPU_SR_ALLOC();
 268              		.loc 1 208 0
 269 0008 0023     		movs	r3, #0
 270 000a 3B61     		str	r3, [r7, #16]
 209:..\..\..\..\..\..\Software\uCOS-III\Source/os_stat.c **** 
 210:..\..\..\..\..\..\Software\uCOS-III\Source/os_stat.c **** 
 211:..\..\..\..\..\..\Software\uCOS-III\Source/os_stat.c **** 
 212:..\..\..\..\..\..\Software\uCOS-III\Source/os_stat.c **** #ifdef OS_SAFETY_CRITICAL
 213:..\..\..\..\..\..\Software\uCOS-III\Source/os_stat.c ****     if (p_err == DEF_NULL) {
 214:..\..\..\..\..\..\Software\uCOS-III\Source/os_stat.c ****         OS_SAFETY_CRITICAL_EXCEPTION();
 215:..\..\..\..\..\..\Software\uCOS-III\Source/os_stat.c ****         return;
 216:..\..\..\..\..\..\Software\uCOS-III\Source/os_stat.c ****     }
 217:..\..\..\..\..\..\Software\uCOS-III\Source/os_stat.c **** #endif
 218:..\..\..\..\..\..\Software\uCOS-III\Source/os_stat.c **** 
 219:..\..\..\..\..\..\Software\uCOS-III\Source/os_stat.c **** #if (OS_CFG_INVALID_OS_CALLS_CHK_EN == DEF_ENABLED)             /* Is the kernel running?          
 220:..\..\..\..\..\..\Software\uCOS-III\Source/os_stat.c ****     if (OSRunning != OS_STATE_OS_RUNNING) {
 221:..\..\..\..\..\..\Software\uCOS-III\Source/os_stat.c ****        *p_err = OS_ERR_OS_NOT_RUNNING;
 222:..\..\..\..\..\..\Software\uCOS-III\Source/os_stat.c ****         return;
 223:..\..\..\..\..\..\Software\uCOS-III\Source/os_stat.c ****     }
 224:..\..\..\..\..\..\Software\uCOS-III\Source/os_stat.c **** #endif
 225:..\..\..\..\..\..\Software\uCOS-III\Source/os_stat.c **** 
 226:..\..\..\..\..\..\Software\uCOS-III\Source/os_stat.c **** #if ((OS_CFG_TMR_EN == DEF_ENABLED) && (OS_CFG_TASK_SUSPEND_EN == DEF_ENABLED))
 227:..\..\..\..\..\..\Software\uCOS-III\Source/os_stat.c ****     OSTaskSuspend(&OSTmrTaskTCB, &err);
 271              		.loc 1 227 0
 272 000c 0E23     		movs	r3, #14
 273 000e FA18     		adds	r2, r7, r3
 274 0010 414B     		ldr	r3, .L16
 275 0012 1100     		movs	r1, r2
 276 0014 1800     		movs	r0, r3
 277 0016 FFF7FEFF 		bl	OSTaskSuspend
 228:..\..\..\..\..\..\Software\uCOS-III\Source/os_stat.c ****     if (err != OS_ERR_NONE) {
 278              		.loc 1 228 0
 279 001a 0E23     		movs	r3, #14
 280 001c FB18     		adds	r3, r7, r3
 281 001e 1B88     		ldrh	r3, [r3]
 282 0020 002B     		cmp	r3, #0
 283 0022 05D0     		beq	.L9
ARM GAS  C:\Users\ADMINI~1\AppData\Local\Temp\ccz9YpXg.s 			page 10


 229:..\..\..\..\..\..\Software\uCOS-III\Source/os_stat.c ****        *p_err = err;
 284              		.loc 1 229 0
 285 0024 0E23     		movs	r3, #14
 286 0026 FB18     		adds	r3, r7, r3
 287 0028 1A88     		ldrh	r2, [r3]
 288 002a 7B68     		ldr	r3, [r7, #4]
 289 002c 1A80     		strh	r2, [r3]
 230:..\..\..\..\..\..\Software\uCOS-III\Source/os_stat.c ****         return;
 290              		.loc 1 230 0
 291 002e 6FE0     		b	.L8
 292              	.L9:
 231:..\..\..\..\..\..\Software\uCOS-III\Source/os_stat.c ****     }
 232:..\..\..\..\..\..\Software\uCOS-III\Source/os_stat.c **** #endif
 233:..\..\..\..\..\..\Software\uCOS-III\Source/os_stat.c **** 
 234:..\..\..\..\..\..\Software\uCOS-III\Source/os_stat.c ****     OSTimeDly(2u,                                               /* Synchronize with clock tick     
 293              		.loc 1 234 0
 294 0030 0E23     		movs	r3, #14
 295 0032 FB18     		adds	r3, r7, r3
 296 0034 1A00     		movs	r2, r3
 297 0036 0021     		movs	r1, #0
 298 0038 0220     		movs	r0, #2
 299 003a FFF7FEFF 		bl	OSTimeDly
 235:..\..\..\..\..\..\Software\uCOS-III\Source/os_stat.c ****               (OS_OPT  )OS_OPT_TIME_DLY,
 236:..\..\..\..\..\..\Software\uCOS-III\Source/os_stat.c ****               (OS_ERR *)&err);
 237:..\..\..\..\..\..\Software\uCOS-III\Source/os_stat.c ****     if (err != OS_ERR_NONE) {
 300              		.loc 1 237 0
 301 003e 0E23     		movs	r3, #14
 302 0040 FB18     		adds	r3, r7, r3
 303 0042 1B88     		ldrh	r3, [r3]
 304 0044 002B     		cmp	r3, #0
 305 0046 05D0     		beq	.L11
 238:..\..\..\..\..\..\Software\uCOS-III\Source/os_stat.c ****        *p_err = err;
 306              		.loc 1 238 0
 307 0048 0E23     		movs	r3, #14
 308 004a FB18     		adds	r3, r7, r3
 309 004c 1A88     		ldrh	r2, [r3]
 310 004e 7B68     		ldr	r3, [r7, #4]
 311 0050 1A80     		strh	r2, [r3]
 239:..\..\..\..\..\..\Software\uCOS-III\Source/os_stat.c ****         return;
 312              		.loc 1 239 0
 313 0052 5DE0     		b	.L8
 314              	.L11:
 240:..\..\..\..\..\..\Software\uCOS-III\Source/os_stat.c ****     }
 241:..\..\..\..\..\..\Software\uCOS-III\Source/os_stat.c ****     CPU_CRITICAL_ENTER();
 315              		.loc 1 241 0
 316 0054 FFF7FEFF 		bl	CPU_SR_Save
 317 0058 0300     		movs	r3, r0
 318 005a 3B61     		str	r3, [r7, #16]
 319 005c FFF7FEFF 		bl	CPU_IntDisMeasStart
 242:..\..\..\..\..\..\Software\uCOS-III\Source/os_stat.c ****     OSStatTaskCtr = 0u;                                         /* Clear idle counter              
 320              		.loc 1 242 0
 321 0060 2E4B     		ldr	r3, .L16+4
 322 0062 0022     		movs	r2, #0
 323 0064 1A60     		str	r2, [r3]
 243:..\..\..\..\..\..\Software\uCOS-III\Source/os_stat.c ****     CPU_CRITICAL_EXIT();
 324              		.loc 1 243 0
 325 0066 FFF7FEFF 		bl	CPU_IntDisMeasStop
ARM GAS  C:\Users\ADMINI~1\AppData\Local\Temp\ccz9YpXg.s 			page 11


 326 006a 3B69     		ldr	r3, [r7, #16]
 327 006c 1800     		movs	r0, r3
 328 006e FFF7FEFF 		bl	CPU_SR_Restore
 244:..\..\..\..\..\..\Software\uCOS-III\Source/os_stat.c **** 
 245:..\..\..\..\..\..\Software\uCOS-III\Source/os_stat.c ****     dly = 0u;
 329              		.loc 1 245 0
 330 0072 0023     		movs	r3, #0
 331 0074 7B61     		str	r3, [r7, #20]
 246:..\..\..\..\..\..\Software\uCOS-III\Source/os_stat.c ****     if (OSCfg_TickRate_Hz > OSCfg_StatTaskRate_Hz) {
 332              		.loc 1 246 0
 333 0076 2A4B     		ldr	r3, .L16+8
 334 0078 1A68     		ldr	r2, [r3]
 335 007a 2A4B     		ldr	r3, .L16+12
 336 007c 1B68     		ldr	r3, [r3]
 337 007e 9A42     		cmp	r2, r3
 338 0080 09D9     		bls	.L12
 247:..\..\..\..\..\..\Software\uCOS-III\Source/os_stat.c ****         dly = (OS_TICK)(OSCfg_TickRate_Hz / OSCfg_StatTaskRate_Hz);
 339              		.loc 1 247 0
 340 0082 274B     		ldr	r3, .L16+8
 341 0084 1A68     		ldr	r2, [r3]
 342 0086 274B     		ldr	r3, .L16+12
 343 0088 1B68     		ldr	r3, [r3]
 344 008a 1900     		movs	r1, r3
 345 008c 1000     		movs	r0, r2
 346 008e FFF7FEFF 		bl	__aeabi_uidiv
 347 0092 0300     		movs	r3, r0
 348 0094 7B61     		str	r3, [r7, #20]
 349              	.L12:
 248:..\..\..\..\..\..\Software\uCOS-III\Source/os_stat.c ****     }
 249:..\..\..\..\..\..\Software\uCOS-III\Source/os_stat.c ****     if (dly == 0u) {
 350              		.loc 1 249 0
 351 0096 7B69     		ldr	r3, [r7, #20]
 352 0098 002B     		cmp	r3, #0
 353 009a 07D1     		bne	.L13
 250:..\..\..\..\..\..\Software\uCOS-III\Source/os_stat.c ****         dly =  (OSCfg_TickRate_Hz / 10u);
 354              		.loc 1 250 0
 355 009c 204B     		ldr	r3, .L16+8
 356 009e 1B68     		ldr	r3, [r3]
 357 00a0 0A21     		movs	r1, #10
 358 00a2 1800     		movs	r0, r3
 359 00a4 FFF7FEFF 		bl	__aeabi_uidiv
 360 00a8 0300     		movs	r3, r0
 361 00aa 7B61     		str	r3, [r7, #20]
 362              	.L13:
 251:..\..\..\..\..\..\Software\uCOS-III\Source/os_stat.c ****     }
 252:..\..\..\..\..\..\Software\uCOS-III\Source/os_stat.c **** 
 253:..\..\..\..\..\..\Software\uCOS-III\Source/os_stat.c ****     OSTimeDly(dly,                                              /* Determine MAX. idle counter valu
 363              		.loc 1 253 0
 364 00ac 0E23     		movs	r3, #14
 365 00ae FA18     		adds	r2, r7, r3
 366 00b0 7B69     		ldr	r3, [r7, #20]
 367 00b2 0021     		movs	r1, #0
 368 00b4 1800     		movs	r0, r3
 369 00b6 FFF7FEFF 		bl	OSTimeDly
 254:..\..\..\..\..\..\Software\uCOS-III\Source/os_stat.c ****               OS_OPT_TIME_DLY,
 255:..\..\..\..\..\..\Software\uCOS-III\Source/os_stat.c ****               &err);
 256:..\..\..\..\..\..\Software\uCOS-III\Source/os_stat.c **** 
ARM GAS  C:\Users\ADMINI~1\AppData\Local\Temp\ccz9YpXg.s 			page 12


 257:..\..\..\..\..\..\Software\uCOS-III\Source/os_stat.c **** #if ((OS_CFG_TMR_EN == DEF_ENABLED) && (OS_CFG_TASK_SUSPEND_EN == DEF_ENABLED))
 258:..\..\..\..\..\..\Software\uCOS-III\Source/os_stat.c ****     OSTaskResume(&OSTmrTaskTCB, &err);
 370              		.loc 1 258 0
 371 00ba 0E23     		movs	r3, #14
 372 00bc FA18     		adds	r2, r7, r3
 373 00be 164B     		ldr	r3, .L16
 374 00c0 1100     		movs	r1, r2
 375 00c2 1800     		movs	r0, r3
 376 00c4 FFF7FEFF 		bl	OSTaskResume
 259:..\..\..\..\..\..\Software\uCOS-III\Source/os_stat.c ****     if (err != OS_ERR_NONE) {
 377              		.loc 1 259 0
 378 00c8 0E23     		movs	r3, #14
 379 00ca FB18     		adds	r3, r7, r3
 380 00cc 1B88     		ldrh	r3, [r3]
 381 00ce 002B     		cmp	r3, #0
 382 00d0 05D0     		beq	.L14
 260:..\..\..\..\..\..\Software\uCOS-III\Source/os_stat.c ****        *p_err = err;
 383              		.loc 1 260 0
 384 00d2 0E23     		movs	r3, #14
 385 00d4 FB18     		adds	r3, r7, r3
 386 00d6 1A88     		ldrh	r2, [r3]
 387 00d8 7B68     		ldr	r3, [r7, #4]
 388 00da 1A80     		strh	r2, [r3]
 261:..\..\..\..\..\..\Software\uCOS-III\Source/os_stat.c ****         return;
 389              		.loc 1 261 0
 390 00dc 18E0     		b	.L8
 391              	.L14:
 262:..\..\..\..\..\..\Software\uCOS-III\Source/os_stat.c ****     }
 263:..\..\..\..\..\..\Software\uCOS-III\Source/os_stat.c **** #endif
 264:..\..\..\..\..\..\Software\uCOS-III\Source/os_stat.c **** 
 265:..\..\..\..\..\..\Software\uCOS-III\Source/os_stat.c ****     CPU_CRITICAL_ENTER();
 392              		.loc 1 265 0
 393 00de FFF7FEFF 		bl	CPU_SR_Save
 394 00e2 0300     		movs	r3, r0
 395 00e4 3B61     		str	r3, [r7, #16]
 396 00e6 FFF7FEFF 		bl	CPU_IntDisMeasStart
 266:..\..\..\..\..\..\Software\uCOS-III\Source/os_stat.c **** #if (OS_CFG_TS_EN == DEF_ENABLED)
 267:..\..\..\..\..\..\Software\uCOS-III\Source/os_stat.c ****     OSStatTaskTimeMax = 0u;
 397              		.loc 1 267 0
 398 00ea 0F4B     		ldr	r3, .L16+16
 399 00ec 0022     		movs	r2, #0
 400 00ee 1A60     		str	r2, [r3]
 268:..\..\..\..\..\..\Software\uCOS-III\Source/os_stat.c **** #endif
 269:..\..\..\..\..\..\Software\uCOS-III\Source/os_stat.c **** 
 270:..\..\..\..\..\..\Software\uCOS-III\Source/os_stat.c ****     OSStatTaskCtrMax  = OSStatTaskCtr;                          /* Store maximum idle counter count
 401              		.loc 1 270 0
 402 00f0 0A4B     		ldr	r3, .L16+4
 403 00f2 1A68     		ldr	r2, [r3]
 404 00f4 0D4B     		ldr	r3, .L16+20
 405 00f6 1A60     		str	r2, [r3]
 271:..\..\..\..\..\..\Software\uCOS-III\Source/os_stat.c ****     OSStatTaskRdy     = OS_STATE_RDY;
 406              		.loc 1 271 0
 407 00f8 0D4B     		ldr	r3, .L16+24
 408 00fa 0122     		movs	r2, #1
 409 00fc 1A70     		strb	r2, [r3]
 272:..\..\..\..\..\..\Software\uCOS-III\Source/os_stat.c ****     CPU_CRITICAL_EXIT();
 410              		.loc 1 272 0
ARM GAS  C:\Users\ADMINI~1\AppData\Local\Temp\ccz9YpXg.s 			page 13


 411 00fe FFF7FEFF 		bl	CPU_IntDisMeasStop
 412 0102 3B69     		ldr	r3, [r7, #16]
 413 0104 1800     		movs	r0, r3
 414 0106 FFF7FEFF 		bl	CPU_SR_Restore
 273:..\..\..\..\..\..\Software\uCOS-III\Source/os_stat.c ****    *p_err             = OS_ERR_NONE;
 415              		.loc 1 273 0
 416 010a 7B68     		ldr	r3, [r7, #4]
 417 010c 0022     		movs	r2, #0
 418 010e 1A80     		strh	r2, [r3]
 419              	.L8:
 274:..\..\..\..\..\..\Software\uCOS-III\Source/os_stat.c **** }
 420              		.loc 1 274 0
 421 0110 BD46     		mov	sp, r7
 422 0112 06B0     		add	sp, sp, #24
 423              		@ sp needed
 424 0114 80BD     		pop	{r7, pc}
 425              	.L17:
 426 0116 C046     		.align	2
 427              	.L16:
 428 0118 00000000 		.word	OSTmrTaskTCB
 429 011c 00000000 		.word	OSStatTaskCtr
 430 0120 00000000 		.word	OSCfg_TickRate_Hz
 431 0124 00000000 		.word	OSCfg_StatTaskRate_Hz
 432 0128 00000000 		.word	OSStatTaskTimeMax
 433 012c 00000000 		.word	OSStatTaskCtrMax
 434 0130 00000000 		.word	OSStatTaskRdy
 435              		.cfi_endproc
 436              	.LFE1:
 437              		.size	OSStatTaskCPUUsageInit, .-OSStatTaskCPUUsageInit
 438              		.section	.text.OS_StatTask,"ax",%progbits
 439              		.align	2
 440              		.global	OS_StatTask
 441              		.code	16
 442              		.thumb_func
 443              		.type	OS_StatTask, %function
 444              	OS_StatTask:
 445              	.LFB2:
 275:..\..\..\..\..\..\Software\uCOS-III\Source/os_stat.c **** 
 276:..\..\..\..\..\..\Software\uCOS-III\Source/os_stat.c **** 
 277:..\..\..\..\..\..\Software\uCOS-III\Source/os_stat.c **** /*
 278:..\..\..\..\..\..\Software\uCOS-III\Source/os_stat.c **** ***************************************************************************************************
 279:..\..\..\..\..\..\Software\uCOS-III\Source/os_stat.c **** *                                                    STATISTICS TASK
 280:..\..\..\..\..\..\Software\uCOS-III\Source/os_stat.c **** *
 281:..\..\..\..\..\..\Software\uCOS-III\Source/os_stat.c **** * Description: This task is internal to uC/OS-III and is used to compute some statistics about the 
 282:..\..\..\..\..\..\Software\uCOS-III\Source/os_stat.c **** *              environment.  Specifically, OS_StatTask() computes the CPU usage.  CPU usage is dete
 283:..\..\..\..\..\..\Software\uCOS-III\Source/os_stat.c **** *
 284:..\..\..\..\..\..\Software\uCOS-III\Source/os_stat.c **** *                                                   OSStatTaskCtr
 285:..\..\..\..\..\..\Software\uCOS-III\Source/os_stat.c **** *                 OSStatTaskCPUUsage = 100 * (1 - ------------------)     (units are in %)
 286:..\..\..\..\..\..\Software\uCOS-III\Source/os_stat.c **** *                                                  OSStatTaskCtrMax
 287:..\..\..\..\..\..\Software\uCOS-III\Source/os_stat.c **** *
 288:..\..\..\..\..\..\Software\uCOS-III\Source/os_stat.c **** * Arguments  : p_arg     this pointer is not used at this time.
 289:..\..\..\..\..\..\Software\uCOS-III\Source/os_stat.c **** *
 290:..\..\..\..\..\..\Software\uCOS-III\Source/os_stat.c **** * Returns    : none
 291:..\..\..\..\..\..\Software\uCOS-III\Source/os_stat.c **** *
 292:..\..\..\..\..\..\Software\uCOS-III\Source/os_stat.c **** * Note(s)    : 1) This task runs at a priority level higher than the idle task.
 293:..\..\..\..\..\..\Software\uCOS-III\Source/os_stat.c **** *
 294:..\..\..\..\..\..\Software\uCOS-III\Source/os_stat.c **** *              2) You can disable this task by setting the configuration #define OS_CFG_STAT_TASK_E
ARM GAS  C:\Users\ADMINI~1\AppData\Local\Temp\ccz9YpXg.s 			page 14


 295:..\..\..\..\..\..\Software\uCOS-III\Source/os_stat.c **** *
 296:..\..\..\..\..\..\Software\uCOS-III\Source/os_stat.c **** *              3) You MUST have at least a delay of 2/10 seconds to allow for the system to establi
 297:..\..\..\..\..\..\Software\uCOS-III\Source/os_stat.c **** *                 for the idle counter.
 298:..\..\..\..\..\..\Software\uCOS-III\Source/os_stat.c **** *
 299:..\..\..\..\..\..\Software\uCOS-III\Source/os_stat.c **** *              4) This function is INTERNAL to uC/OS-III and your application should not call it.
 300:..\..\..\..\..\..\Software\uCOS-III\Source/os_stat.c **** ***************************************************************************************************
 301:..\..\..\..\..\..\Software\uCOS-III\Source/os_stat.c **** */
 302:..\..\..\..\..\..\Software\uCOS-III\Source/os_stat.c **** 
 303:..\..\..\..\..\..\Software\uCOS-III\Source/os_stat.c **** void  OS_StatTask (void  *p_arg)
 304:..\..\..\..\..\..\Software\uCOS-III\Source/os_stat.c **** {
 446              		.loc 1 304 0
 447              		.cfi_startproc
 448              		@ args = 0, pretend = 0, frame = 64
 449              		@ frame_needed = 1, uses_anonymous_args = 0
 450 0000 80B5     		push	{r7, lr}
 451              		.cfi_def_cfa_offset 8
 452              		.cfi_offset 7, -8
 453              		.cfi_offset 14, -4
 454 0002 90B0     		sub	sp, sp, #64
 455              		.cfi_def_cfa_offset 72
 456 0004 00AF     		add	r7, sp, #0
 457              		.cfi_def_cfa_register 7
 458 0006 7860     		str	r0, [r7, #4]
 305:..\..\..\..\..\..\Software\uCOS-III\Source/os_stat.c **** #if (OS_CFG_DBG_EN == DEF_ENABLED)
 306:..\..\..\..\..\..\Software\uCOS-III\Source/os_stat.c **** #if (OS_CFG_TASK_PROFILE_EN == DEF_ENABLED)
 307:..\..\..\..\..\..\Software\uCOS-III\Source/os_stat.c ****     OS_CPU_USAGE usage;
 308:..\..\..\..\..\..\Software\uCOS-III\Source/os_stat.c ****     OS_CYCLES    cycles_total;
 309:..\..\..\..\..\..\Software\uCOS-III\Source/os_stat.c ****     OS_CYCLES    cycles_div;
 310:..\..\..\..\..\..\Software\uCOS-III\Source/os_stat.c ****     OS_CYCLES    cycles_mult;
 311:..\..\..\..\..\..\Software\uCOS-III\Source/os_stat.c ****     OS_CYCLES    cycles_max;
 312:..\..\..\..\..\..\Software\uCOS-III\Source/os_stat.c **** #endif
 313:..\..\..\..\..\..\Software\uCOS-III\Source/os_stat.c ****     OS_TCB      *p_tcb;
 314:..\..\..\..\..\..\Software\uCOS-III\Source/os_stat.c **** #endif
 315:..\..\..\..\..\..\Software\uCOS-III\Source/os_stat.c ****     OS_TICK      ctr_max;
 316:..\..\..\..\..\..\Software\uCOS-III\Source/os_stat.c ****     OS_TICK      ctr_mult;
 317:..\..\..\..\..\..\Software\uCOS-III\Source/os_stat.c ****     OS_TICK      ctr_div;
 318:..\..\..\..\..\..\Software\uCOS-III\Source/os_stat.c ****     OS_ERR       err;
 319:..\..\..\..\..\..\Software\uCOS-III\Source/os_stat.c ****     OS_TICK      dly;
 320:..\..\..\..\..\..\Software\uCOS-III\Source/os_stat.c **** #if (OS_CFG_TS_EN == DEF_ENABLED)
 321:..\..\..\..\..\..\Software\uCOS-III\Source/os_stat.c ****     CPU_TS       ts_start;
 322:..\..\..\..\..\..\Software\uCOS-III\Source/os_stat.c ****     CPU_TS       ts_end;
 323:..\..\..\..\..\..\Software\uCOS-III\Source/os_stat.c **** #endif
 324:..\..\..\..\..\..\Software\uCOS-III\Source/os_stat.c ****     CPU_SR_ALLOC();
 459              		.loc 1 324 0
 460 0008 0023     		movs	r3, #0
 461 000a BB61     		str	r3, [r7, #24]
 325:..\..\..\..\..\..\Software\uCOS-III\Source/os_stat.c **** 
 326:..\..\..\..\..\..\Software\uCOS-III\Source/os_stat.c **** 
 327:..\..\..\..\..\..\Software\uCOS-III\Source/os_stat.c **** 
 328:..\..\..\..\..\..\Software\uCOS-III\Source/os_stat.c ****     (void)p_arg;                                                /* Prevent compiler warning for not
 329:..\..\..\..\..\..\Software\uCOS-III\Source/os_stat.c **** 
 330:..\..\..\..\..\..\Software\uCOS-III\Source/os_stat.c ****     while (OSStatTaskRdy != DEF_TRUE) {
 462              		.loc 1 330 0
 463 000c 08E0     		b	.L19
 464              	.L20:
 331:..\..\..\..\..\..\Software\uCOS-III\Source/os_stat.c ****         OSTimeDly(2u * OSCfg_StatTaskRate_Hz,                   /* Wait until statistic task is rea
 465              		.loc 1 331 0
ARM GAS  C:\Users\ADMINI~1\AppData\Local\Temp\ccz9YpXg.s 			page 15


 466 000e CD4B     		ldr	r3, .L46
 467 0010 1B68     		ldr	r3, [r3]
 468 0012 5B00     		lsls	r3, r3, #1
 469 0014 0A22     		movs	r2, #10
 470 0016 BA18     		adds	r2, r7, r2
 471 0018 0021     		movs	r1, #0
 472 001a 1800     		movs	r0, r3
 473 001c FFF7FEFF 		bl	OSTimeDly
 474              	.L19:
 330:..\..\..\..\..\..\Software\uCOS-III\Source/os_stat.c ****         OSTimeDly(2u * OSCfg_StatTaskRate_Hz,                   /* Wait until statistic task is rea
 475              		.loc 1 330 0
 476 0020 C94B     		ldr	r3, .L46+4
 477 0022 1B78     		ldrb	r3, [r3]
 478 0024 012B     		cmp	r3, #1
 479 0026 F2D1     		bne	.L20
 332:..\..\..\..\..\..\Software\uCOS-III\Source/os_stat.c ****                   OS_OPT_TIME_DLY,
 333:..\..\..\..\..\..\Software\uCOS-III\Source/os_stat.c ****                   &err);
 334:..\..\..\..\..\..\Software\uCOS-III\Source/os_stat.c ****     }
 335:..\..\..\..\..\..\Software\uCOS-III\Source/os_stat.c ****     OSStatReset(&err);                                          /* Reset statistics                
 480              		.loc 1 335 0
 481 0028 0A23     		movs	r3, #10
 482 002a FB18     		adds	r3, r7, r3
 483 002c 1800     		movs	r0, r3
 484 002e FFF7FEFF 		bl	OSStatReset
 336:..\..\..\..\..\..\Software\uCOS-III\Source/os_stat.c **** 
 337:..\..\..\..\..\..\Software\uCOS-III\Source/os_stat.c ****     dly = (OS_TICK)0;                                           /* Compute statistic task sleep del
 485              		.loc 1 337 0
 486 0032 0023     		movs	r3, #0
 487 0034 FB61     		str	r3, [r7, #28]
 338:..\..\..\..\..\..\Software\uCOS-III\Source/os_stat.c ****     if (OSCfg_TickRate_Hz > OSCfg_StatTaskRate_Hz) {
 488              		.loc 1 338 0
 489 0036 C54B     		ldr	r3, .L46+8
 490 0038 1A68     		ldr	r2, [r3]
 491 003a C24B     		ldr	r3, .L46
 492 003c 1B68     		ldr	r3, [r3]
 493 003e 9A42     		cmp	r2, r3
 494 0040 09D9     		bls	.L21
 339:..\..\..\..\..\..\Software\uCOS-III\Source/os_stat.c ****         dly = (OSCfg_TickRate_Hz / OSCfg_StatTaskRate_Hz);
 495              		.loc 1 339 0
 496 0042 C24B     		ldr	r3, .L46+8
 497 0044 1A68     		ldr	r2, [r3]
 498 0046 BF4B     		ldr	r3, .L46
 499 0048 1B68     		ldr	r3, [r3]
 500 004a 1900     		movs	r1, r3
 501 004c 1000     		movs	r0, r2
 502 004e FFF7FEFF 		bl	__aeabi_uidiv
 503 0052 0300     		movs	r3, r0
 504 0054 FB61     		str	r3, [r7, #28]
 505              	.L21:
 340:..\..\..\..\..\..\Software\uCOS-III\Source/os_stat.c ****     }
 341:..\..\..\..\..\..\Software\uCOS-III\Source/os_stat.c ****     if (dly == 0u) {
 506              		.loc 1 341 0
 507 0056 FB69     		ldr	r3, [r7, #28]
 508 0058 002B     		cmp	r3, #0
 509 005a 07D1     		bne	.L22
 342:..\..\..\..\..\..\Software\uCOS-III\Source/os_stat.c ****         dly =  (OSCfg_TickRate_Hz / 10u);
 510              		.loc 1 342 0
ARM GAS  C:\Users\ADMINI~1\AppData\Local\Temp\ccz9YpXg.s 			page 16


 511 005c BB4B     		ldr	r3, .L46+8
 512 005e 1B68     		ldr	r3, [r3]
 513 0060 0A21     		movs	r1, #10
 514 0062 1800     		movs	r0, r3
 515 0064 FFF7FEFF 		bl	__aeabi_uidiv
 516 0068 0300     		movs	r3, r0
 517 006a FB61     		str	r3, [r7, #28]
 518              	.L22:
 343:..\..\..\..\..\..\Software\uCOS-III\Source/os_stat.c ****     }
 344:..\..\..\..\..\..\Software\uCOS-III\Source/os_stat.c **** 
 345:..\..\..\..\..\..\Software\uCOS-III\Source/os_stat.c ****     while (DEF_ON) {
 346:..\..\..\..\..\..\Software\uCOS-III\Source/os_stat.c **** #if (OS_CFG_TS_EN == DEF_ENABLED)
 347:..\..\..\..\..\..\Software\uCOS-III\Source/os_stat.c ****         ts_start        = OS_TS_GET();
 519              		.loc 1 347 0
 520 006c FFF7FEFF 		bl	CPU_TS_TmrRd
 521 0070 0300     		movs	r3, r0
 522 0072 7B61     		str	r3, [r7, #20]
 348:..\..\..\..\..\..\Software\uCOS-III\Source/os_stat.c **** #endif
 349:..\..\..\..\..\..\Software\uCOS-III\Source/os_stat.c **** #ifdef  CPU_CFG_INT_DIS_MEAS_EN
 350:..\..\..\..\..\..\Software\uCOS-III\Source/os_stat.c ****         OSIntDisTimeMax = CPU_IntDisMeasMaxGet();
 523              		.loc 1 350 0
 524 0074 FFF7FEFF 		bl	CPU_IntDisMeasMaxGet
 525 0078 0200     		movs	r2, r0
 526 007a B54B     		ldr	r3, .L46+12
 527 007c 1A60     		str	r2, [r3]
 351:..\..\..\..\..\..\Software\uCOS-III\Source/os_stat.c **** #endif
 352:..\..\..\..\..\..\Software\uCOS-III\Source/os_stat.c **** 
 353:..\..\..\..\..\..\Software\uCOS-III\Source/os_stat.c ****         CPU_CRITICAL_ENTER();                                   /* ---------------- OVERALL CPU USA
 528              		.loc 1 353 0
 529 007e FFF7FEFF 		bl	CPU_SR_Save
 530 0082 0300     		movs	r3, r0
 531 0084 BB61     		str	r3, [r7, #24]
 532 0086 FFF7FEFF 		bl	CPU_IntDisMeasStart
 354:..\..\..\..\..\..\Software\uCOS-III\Source/os_stat.c ****         OSStatTaskCtrRun   = OSStatTaskCtr;                     /* Obtain the of the stat counter f
 533              		.loc 1 354 0
 534 008a B24B     		ldr	r3, .L46+16
 535 008c 1A68     		ldr	r2, [r3]
 536 008e B24B     		ldr	r3, .L46+20
 537 0090 1A60     		str	r2, [r3]
 355:..\..\..\..\..\..\Software\uCOS-III\Source/os_stat.c ****         OSStatTaskCtr      = 0u;                                /* Reset the stat counter for the n
 538              		.loc 1 355 0
 539 0092 B04B     		ldr	r3, .L46+16
 540 0094 0022     		movs	r2, #0
 541 0096 1A60     		str	r2, [r3]
 356:..\..\..\..\..\..\Software\uCOS-III\Source/os_stat.c ****         CPU_CRITICAL_EXIT();
 542              		.loc 1 356 0
 543 0098 FFF7FEFF 		bl	CPU_IntDisMeasStop
 544 009c BB69     		ldr	r3, [r7, #24]
 545 009e 1800     		movs	r0, r3
 546 00a0 FFF7FEFF 		bl	CPU_SR_Restore
 357:..\..\..\..\..\..\Software\uCOS-III\Source/os_stat.c **** 
 358:..\..\..\..\..\..\Software\uCOS-III\Source/os_stat.c ****         if (OSStatTaskCtrMax > OSStatTaskCtrRun) {              /* Compute CPU Usage with best reso
 547              		.loc 1 358 0
 548 00a4 AD4B     		ldr	r3, .L46+24
 549 00a6 1A68     		ldr	r2, [r3]
 550 00a8 AB4B     		ldr	r3, .L46+20
 551 00aa 1B68     		ldr	r3, [r3]
ARM GAS  C:\Users\ADMINI~1\AppData\Local\Temp\ccz9YpXg.s 			page 17


 552 00ac 9A42     		cmp	r2, r3
 553 00ae 4FD9     		bls	.L23
 359:..\..\..\..\..\..\Software\uCOS-III\Source/os_stat.c ****             if (OSStatTaskCtrMax < 400000u) {                   /* 1 to       400,000              
 554              		.loc 1 359 0
 555 00b0 AA4B     		ldr	r3, .L46+24
 556 00b2 1B68     		ldr	r3, [r3]
 557 00b4 AA4A     		ldr	r2, .L46+28
 558 00b6 9342     		cmp	r3, r2
 559 00b8 04D8     		bhi	.L24
 360:..\..\..\..\..\..\Software\uCOS-III\Source/os_stat.c ****                 ctr_mult = 10000u;
 560              		.loc 1 360 0
 561 00ba AA4B     		ldr	r3, .L46+32
 562 00bc 7B62     		str	r3, [r7, #36]
 361:..\..\..\..\..\..\Software\uCOS-III\Source/os_stat.c ****                 ctr_div  =     1u;
 563              		.loc 1 361 0
 564 00be 0123     		movs	r3, #1
 565 00c0 3B62     		str	r3, [r7, #32]
 566 00c2 23E0     		b	.L25
 567              	.L24:
 362:..\..\..\..\..\..\Software\uCOS-III\Source/os_stat.c ****             } else if (OSStatTaskCtrMax <   4000000u) {         /* 400,000 to     4,000,000        
 568              		.loc 1 362 0
 569 00c4 A54B     		ldr	r3, .L46+24
 570 00c6 1B68     		ldr	r3, [r3]
 571 00c8 A74A     		ldr	r2, .L46+36
 572 00ca 9342     		cmp	r3, r2
 573 00cc 05D8     		bhi	.L26
 363:..\..\..\..\..\..\Software\uCOS-III\Source/os_stat.c ****                 ctr_mult =  1000u;
 574              		.loc 1 363 0
 575 00ce FA23     		movs	r3, #250
 576 00d0 9B00     		lsls	r3, r3, #2
 577 00d2 7B62     		str	r3, [r7, #36]
 364:..\..\..\..\..\..\Software\uCOS-III\Source/os_stat.c ****                 ctr_div  =    10u;
 578              		.loc 1 364 0
 579 00d4 0A23     		movs	r3, #10
 580 00d6 3B62     		str	r3, [r7, #32]
 581 00d8 18E0     		b	.L25
 582              	.L26:
 365:..\..\..\..\..\..\Software\uCOS-III\Source/os_stat.c ****             } else if (OSStatTaskCtrMax <  40000000u) {         /* 4,000,000 to    40,000,000      
 583              		.loc 1 365 0
 584 00da A04B     		ldr	r3, .L46+24
 585 00dc 1B68     		ldr	r3, [r3]
 586 00de A34A     		ldr	r2, .L46+40
 587 00e0 9342     		cmp	r3, r2
 588 00e2 04D8     		bhi	.L27
 366:..\..\..\..\..\..\Software\uCOS-III\Source/os_stat.c ****                 ctr_mult =   100u;
 589              		.loc 1 366 0
 590 00e4 6423     		movs	r3, #100
 591 00e6 7B62     		str	r3, [r7, #36]
 367:..\..\..\..\..\..\Software\uCOS-III\Source/os_stat.c ****                 ctr_div  =   100u;
 592              		.loc 1 367 0
 593 00e8 6423     		movs	r3, #100
 594 00ea 3B62     		str	r3, [r7, #32]
 595 00ec 0EE0     		b	.L25
 596              	.L27:
 368:..\..\..\..\..\..\Software\uCOS-III\Source/os_stat.c ****             } else if (OSStatTaskCtrMax < 400000000u) {         /* 40,000,000 to   400,000,000     
 597              		.loc 1 368 0
 598 00ee 9B4B     		ldr	r3, .L46+24
ARM GAS  C:\Users\ADMINI~1\AppData\Local\Temp\ccz9YpXg.s 			page 18


 599 00f0 1B68     		ldr	r3, [r3]
 600 00f2 9F4A     		ldr	r2, .L46+44
 601 00f4 9342     		cmp	r3, r2
 602 00f6 05D8     		bhi	.L28
 369:..\..\..\..\..\..\Software\uCOS-III\Source/os_stat.c ****                 ctr_mult =    10u;
 603              		.loc 1 369 0
 604 00f8 0A23     		movs	r3, #10
 605 00fa 7B62     		str	r3, [r7, #36]
 370:..\..\..\..\..\..\Software\uCOS-III\Source/os_stat.c ****                 ctr_div  =  1000u;
 606              		.loc 1 370 0
 607 00fc FA23     		movs	r3, #250
 608 00fe 9B00     		lsls	r3, r3, #2
 609 0100 3B62     		str	r3, [r7, #32]
 610 0102 03E0     		b	.L25
 611              	.L28:
 371:..\..\..\..\..\..\Software\uCOS-III\Source/os_stat.c ****             } else {                                            /* 400,000,000 and up              
 372:..\..\..\..\..\..\Software\uCOS-III\Source/os_stat.c ****                 ctr_mult =     1u;
 612              		.loc 1 372 0
 613 0104 0123     		movs	r3, #1
 614 0106 7B62     		str	r3, [r7, #36]
 373:..\..\..\..\..\..\Software\uCOS-III\Source/os_stat.c ****                 ctr_div  = 10000u;
 615              		.loc 1 373 0
 616 0108 964B     		ldr	r3, .L46+32
 617 010a 3B62     		str	r3, [r7, #32]
 618              	.L25:
 374:..\..\..\..\..\..\Software\uCOS-III\Source/os_stat.c ****             }
 375:..\..\..\..\..\..\Software\uCOS-III\Source/os_stat.c ****             ctr_max            = OSStatTaskCtrMax / ctr_div;
 619              		.loc 1 375 0
 620 010c 934B     		ldr	r3, .L46+24
 621 010e 1B68     		ldr	r3, [r3]
 622 0110 396A     		ldr	r1, [r7, #32]
 623 0112 1800     		movs	r0, r3
 624 0114 FFF7FEFF 		bl	__aeabi_uidiv
 625 0118 0300     		movs	r3, r0
 626 011a 3B61     		str	r3, [r7, #16]
 376:..\..\..\..\..\..\Software\uCOS-III\Source/os_stat.c ****             OSStatTaskCPUUsage = (OS_CPU_USAGE)((OS_TICK)10000u - ctr_mult * OSStatTaskCtrRun / ctr
 627              		.loc 1 376 0
 628 011c 8E4B     		ldr	r3, .L46+20
 629 011e 1B68     		ldr	r3, [r3]
 630 0120 7A6A     		ldr	r2, [r7, #36]
 631 0122 5343     		muls	r3, r2
 632 0124 3969     		ldr	r1, [r7, #16]
 633 0126 1800     		movs	r0, r3
 634 0128 FFF7FEFF 		bl	__aeabi_uidiv
 635 012c 0300     		movs	r3, r0
 636 012e 9BB2     		uxth	r3, r3
 637 0130 8C4A     		ldr	r2, .L46+32
 638 0132 D31A     		subs	r3, r2, r3
 639 0134 9AB2     		uxth	r2, r3
 640 0136 8F4B     		ldr	r3, .L46+48
 641 0138 1A80     		strh	r2, [r3]
 377:..\..\..\..\..\..\Software\uCOS-III\Source/os_stat.c ****             if (OSStatTaskCPUUsageMax < OSStatTaskCPUUsage) {
 642              		.loc 1 377 0
 643 013a 8F4B     		ldr	r3, .L46+52
 644 013c 1A88     		ldrh	r2, [r3]
 645 013e 8D4B     		ldr	r3, .L46+48
 646 0140 1B88     		ldrh	r3, [r3]
ARM GAS  C:\Users\ADMINI~1\AppData\Local\Temp\ccz9YpXg.s 			page 19


 647 0142 9A42     		cmp	r2, r3
 648 0144 07D2     		bcs	.L30
 378:..\..\..\..\..\..\Software\uCOS-III\Source/os_stat.c ****                 OSStatTaskCPUUsageMax = OSStatTaskCPUUsage;
 649              		.loc 1 378 0
 650 0146 8B4B     		ldr	r3, .L46+48
 651 0148 1A88     		ldrh	r2, [r3]
 652 014a 8B4B     		ldr	r3, .L46+52
 653 014c 1A80     		strh	r2, [r3]
 654 014e 02E0     		b	.L30
 655              	.L23:
 379:..\..\..\..\..\..\Software\uCOS-III\Source/os_stat.c ****             }
 380:..\..\..\..\..\..\Software\uCOS-III\Source/os_stat.c ****         } else {
 381:..\..\..\..\..\..\Software\uCOS-III\Source/os_stat.c ****             OSStatTaskCPUUsage = 0u;
 656              		.loc 1 381 0
 657 0150 884B     		ldr	r3, .L46+48
 658 0152 0022     		movs	r2, #0
 659 0154 1A80     		strh	r2, [r3]
 660              	.L30:
 382:..\..\..\..\..\..\Software\uCOS-III\Source/os_stat.c ****         }
 383:..\..\..\..\..\..\Software\uCOS-III\Source/os_stat.c **** 
 384:..\..\..\..\..\..\Software\uCOS-III\Source/os_stat.c ****         OSStatTaskHook();                                       /* Invoke user definable hook      
 661              		.loc 1 384 0
 662 0156 FFF7FEFF 		bl	OSStatTaskHook
 385:..\..\..\..\..\..\Software\uCOS-III\Source/os_stat.c **** 
 386:..\..\..\..\..\..\Software\uCOS-III\Source/os_stat.c **** 
 387:..\..\..\..\..\..\Software\uCOS-III\Source/os_stat.c **** #if (OS_CFG_DBG_EN == DEF_ENABLED)
 388:..\..\..\..\..\..\Software\uCOS-III\Source/os_stat.c **** #if (OS_CFG_TASK_PROFILE_EN == DEF_ENABLED)
 389:..\..\..\..\..\..\Software\uCOS-III\Source/os_stat.c ****         cycles_total = 0u;
 663              		.loc 1 389 0
 664 015a 0023     		movs	r3, #0
 665 015c BB63     		str	r3, [r7, #56]
 390:..\..\..\..\..\..\Software\uCOS-III\Source/os_stat.c **** 
 391:..\..\..\..\..\..\Software\uCOS-III\Source/os_stat.c ****         CPU_CRITICAL_ENTER();
 666              		.loc 1 391 0
 667 015e FFF7FEFF 		bl	CPU_SR_Save
 668 0162 0300     		movs	r3, r0
 669 0164 BB61     		str	r3, [r7, #24]
 670 0166 FFF7FEFF 		bl	CPU_IntDisMeasStart
 392:..\..\..\..\..\..\Software\uCOS-III\Source/os_stat.c ****         p_tcb = OSTaskDbgListPtr;
 671              		.loc 1 392 0
 672 016a 844B     		ldr	r3, .L46+56
 673 016c 1B68     		ldr	r3, [r3]
 674 016e BB62     		str	r3, [r7, #40]
 393:..\..\..\..\..\..\Software\uCOS-III\Source/os_stat.c ****         CPU_CRITICAL_EXIT();
 675              		.loc 1 393 0
 676 0170 FFF7FEFF 		bl	CPU_IntDisMeasStop
 677 0174 BB69     		ldr	r3, [r7, #24]
 678 0176 1800     		movs	r0, r3
 679 0178 FFF7FEFF 		bl	CPU_SR_Restore
 394:..\..\..\..\..\..\Software\uCOS-III\Source/os_stat.c ****         while (p_tcb != DEF_NULL) {                             /* ---------------- TOTAL CYCLES CO
 680              		.loc 1 394 0
 681 017c 2BE0     		b	.L31
 682              	.L32:
 395:..\..\..\..\..\..\Software\uCOS-III\Source/os_stat.c ****             OS_CRITICAL_ENTER();
 683              		.loc 1 395 0
 684 017e FFF7FEFF 		bl	CPU_SR_Save
 685 0182 0300     		movs	r3, r0
ARM GAS  C:\Users\ADMINI~1\AppData\Local\Temp\ccz9YpXg.s 			page 20


 686 0184 BB61     		str	r3, [r7, #24]
 687 0186 FFF7FEFF 		bl	CPU_IntDisMeasStart
 396:..\..\..\..\..\..\Software\uCOS-III\Source/os_stat.c ****             p_tcb->CyclesTotalPrev = p_tcb->CyclesTotal;        /* Save accumulated # cycles into a
 688              		.loc 1 396 0
 689 018a BB6A     		ldr	r3, [r7, #40]
 690 018c 9822     		movs	r2, #152
 691 018e 9A58     		ldr	r2, [r3, r2]
 692 0190 BB6A     		ldr	r3, [r7, #40]
 693 0192 9C21     		movs	r1, #156
 694 0194 5A50     		str	r2, [r3, r1]
 397:..\..\..\..\..\..\Software\uCOS-III\Source/os_stat.c ****             p_tcb->CyclesTotal     = 0u;                        /* Reset total cycles for task for 
 695              		.loc 1 397 0
 696 0196 BB6A     		ldr	r3, [r7, #40]
 697 0198 9822     		movs	r2, #152
 698 019a 0021     		movs	r1, #0
 699 019c 9950     		str	r1, [r3, r2]
 398:..\..\..\..\..\..\Software\uCOS-III\Source/os_stat.c ****             OS_CRITICAL_EXIT();
 700              		.loc 1 398 0
 701 019e FFF7FEFF 		bl	CPU_IntDisMeasStop
 702 01a2 BB69     		ldr	r3, [r7, #24]
 703 01a4 1800     		movs	r0, r3
 704 01a6 FFF7FEFF 		bl	CPU_SR_Restore
 399:..\..\..\..\..\..\Software\uCOS-III\Source/os_stat.c **** 
 400:..\..\..\..\..\..\Software\uCOS-III\Source/os_stat.c ****             cycles_total          += p_tcb->CyclesTotalPrev;    /* Perform sum of all task # cycles
 705              		.loc 1 400 0
 706 01aa BB6A     		ldr	r3, [r7, #40]
 707 01ac 9C22     		movs	r2, #156
 708 01ae 9B58     		ldr	r3, [r3, r2]
 709 01b0 BA6B     		ldr	r2, [r7, #56]
 710 01b2 D318     		adds	r3, r2, r3
 711 01b4 BB63     		str	r3, [r7, #56]
 401:..\..\..\..\..\..\Software\uCOS-III\Source/os_stat.c **** 
 402:..\..\..\..\..\..\Software\uCOS-III\Source/os_stat.c ****             CPU_CRITICAL_ENTER();
 712              		.loc 1 402 0
 713 01b6 FFF7FEFF 		bl	CPU_SR_Save
 714 01ba 0300     		movs	r3, r0
 715 01bc BB61     		str	r3, [r7, #24]
 716 01be FFF7FEFF 		bl	CPU_IntDisMeasStart
 403:..\..\..\..\..\..\Software\uCOS-III\Source/os_stat.c ****             p_tcb                  = p_tcb->DbgNextPtr;
 717              		.loc 1 403 0
 718 01c2 BB6A     		ldr	r3, [r7, #40]
 719 01c4 BC22     		movs	r2, #188
 720 01c6 9B58     		ldr	r3, [r3, r2]
 721 01c8 BB62     		str	r3, [r7, #40]
 404:..\..\..\..\..\..\Software\uCOS-III\Source/os_stat.c ****             CPU_CRITICAL_EXIT();
 722              		.loc 1 404 0
 723 01ca FFF7FEFF 		bl	CPU_IntDisMeasStop
 724 01ce BB69     		ldr	r3, [r7, #24]
 725 01d0 1800     		movs	r0, r3
 726 01d2 FFF7FEFF 		bl	CPU_SR_Restore
 727              	.L31:
 394:..\..\..\..\..\..\Software\uCOS-III\Source/os_stat.c ****             OS_CRITICAL_ENTER();
 728              		.loc 1 394 0
 729 01d6 BB6A     		ldr	r3, [r7, #40]
 730 01d8 002B     		cmp	r3, #0
 731 01da D0D1     		bne	.L32
 405:..\..\..\..\..\..\Software\uCOS-III\Source/os_stat.c ****         }
ARM GAS  C:\Users\ADMINI~1\AppData\Local\Temp\ccz9YpXg.s 			page 21


 406:..\..\..\..\..\..\Software\uCOS-III\Source/os_stat.c **** #endif
 407:..\..\..\..\..\..\Software\uCOS-III\Source/os_stat.c **** 
 408:..\..\..\..\..\..\Software\uCOS-III\Source/os_stat.c **** 
 409:..\..\..\..\..\..\Software\uCOS-III\Source/os_stat.c **** #if (OS_CFG_TASK_PROFILE_EN == DEF_ENABLED)
 410:..\..\..\..\..\..\Software\uCOS-III\Source/os_stat.c ****                                                                 /* ------------ INDIVIDUAL TASK CPU
 411:..\..\..\..\..\..\Software\uCOS-III\Source/os_stat.c ****         if (cycles_total > 0u) {                                /* 'cycles_total' scaling ...      
 732              		.loc 1 411 0
 733 01dc BB6B     		ldr	r3, [r7, #56]
 734 01de 002B     		cmp	r3, #0
 735 01e0 30D0     		beq	.L33
 412:..\..\..\..\..\..\Software\uCOS-III\Source/os_stat.c ****             if (cycles_total < 400000u) {                       /* 1 to       400,000              
 736              		.loc 1 412 0
 737 01e2 BB6B     		ldr	r3, [r7, #56]
 738 01e4 5E4A     		ldr	r2, .L46+28
 739 01e6 9342     		cmp	r3, r2
 740 01e8 04D8     		bhi	.L34
 413:..\..\..\..\..\..\Software\uCOS-III\Source/os_stat.c ****                 cycles_mult = 10000u;
 741              		.loc 1 413 0
 742 01ea 5E4B     		ldr	r3, .L46+32
 743 01ec 3B63     		str	r3, [r7, #48]
 414:..\..\..\..\..\..\Software\uCOS-III\Source/os_stat.c ****                 cycles_div  =     1u;
 744              		.loc 1 414 0
 745 01ee 0123     		movs	r3, #1
 746 01f0 7B63     		str	r3, [r7, #52]
 747 01f2 20E0     		b	.L35
 748              	.L34:
 415:..\..\..\..\..\..\Software\uCOS-III\Source/os_stat.c ****             } else if (cycles_total <   4000000u) {             /* 400,000 to     4,000,000        
 749              		.loc 1 415 0
 750 01f4 BB6B     		ldr	r3, [r7, #56]
 751 01f6 5C4A     		ldr	r2, .L46+36
 752 01f8 9342     		cmp	r3, r2
 753 01fa 05D8     		bhi	.L36
 416:..\..\..\..\..\..\Software\uCOS-III\Source/os_stat.c ****                 cycles_mult =  1000u;
 754              		.loc 1 416 0
 755 01fc FA23     		movs	r3, #250
 756 01fe 9B00     		lsls	r3, r3, #2
 757 0200 3B63     		str	r3, [r7, #48]
 417:..\..\..\..\..\..\Software\uCOS-III\Source/os_stat.c ****                 cycles_div  =    10u;
 758              		.loc 1 417 0
 759 0202 0A23     		movs	r3, #10
 760 0204 7B63     		str	r3, [r7, #52]
 761 0206 16E0     		b	.L35
 762              	.L36:
 418:..\..\..\..\..\..\Software\uCOS-III\Source/os_stat.c ****             } else if (cycles_total <  40000000u) {             /* 4,000,000 to    40,000,000      
 763              		.loc 1 418 0
 764 0208 BB6B     		ldr	r3, [r7, #56]
 765 020a 584A     		ldr	r2, .L46+40
 766 020c 9342     		cmp	r3, r2
 767 020e 04D8     		bhi	.L37
 419:..\..\..\..\..\..\Software\uCOS-III\Source/os_stat.c ****                 cycles_mult =   100u;
 768              		.loc 1 419 0
 769 0210 6423     		movs	r3, #100
 770 0212 3B63     		str	r3, [r7, #48]
 420:..\..\..\..\..\..\Software\uCOS-III\Source/os_stat.c ****                 cycles_div  =   100u;
 771              		.loc 1 420 0
 772 0214 6423     		movs	r3, #100
 773 0216 7B63     		str	r3, [r7, #52]
ARM GAS  C:\Users\ADMINI~1\AppData\Local\Temp\ccz9YpXg.s 			page 22


 774 0218 0DE0     		b	.L35
 775              	.L37:
 421:..\..\..\..\..\..\Software\uCOS-III\Source/os_stat.c ****             } else if (cycles_total < 400000000u) {             /* 40,000,000 to   400,000,000     
 776              		.loc 1 421 0
 777 021a BB6B     		ldr	r3, [r7, #56]
 778 021c 544A     		ldr	r2, .L46+44
 779 021e 9342     		cmp	r3, r2
 780 0220 05D8     		bhi	.L38
 422:..\..\..\..\..\..\Software\uCOS-III\Source/os_stat.c ****                 cycles_mult =    10u;
 781              		.loc 1 422 0
 782 0222 0A23     		movs	r3, #10
 783 0224 3B63     		str	r3, [r7, #48]
 423:..\..\..\..\..\..\Software\uCOS-III\Source/os_stat.c ****                 cycles_div  =  1000u;
 784              		.loc 1 423 0
 785 0226 FA23     		movs	r3, #250
 786 0228 9B00     		lsls	r3, r3, #2
 787 022a 7B63     		str	r3, [r7, #52]
 788 022c 03E0     		b	.L35
 789              	.L38:
 424:..\..\..\..\..\..\Software\uCOS-III\Source/os_stat.c ****             } else {                                            /* 400,000,000 and up              
 425:..\..\..\..\..\..\Software\uCOS-III\Source/os_stat.c ****                 cycles_mult =     1u;
 790              		.loc 1 425 0
 791 022e 0123     		movs	r3, #1
 792 0230 3B63     		str	r3, [r7, #48]
 426:..\..\..\..\..\..\Software\uCOS-III\Source/os_stat.c ****                 cycles_div  = 10000u;
 793              		.loc 1 426 0
 794 0232 4C4B     		ldr	r3, .L46+32
 795 0234 7B63     		str	r3, [r7, #52]
 796              	.L35:
 427:..\..\..\..\..\..\Software\uCOS-III\Source/os_stat.c ****             }
 428:..\..\..\..\..\..\Software\uCOS-III\Source/os_stat.c ****             cycles_max  = cycles_total / cycles_div;
 797              		.loc 1 428 0
 798 0236 796B     		ldr	r1, [r7, #52]
 799 0238 B86B     		ldr	r0, [r7, #56]
 800 023a FFF7FEFF 		bl	__aeabi_uidiv
 801 023e 0300     		movs	r3, r0
 802 0240 FB62     		str	r3, [r7, #44]
 803 0242 03E0     		b	.L39
 804              	.L33:
 429:..\..\..\..\..\..\Software\uCOS-III\Source/os_stat.c ****         } else {
 430:..\..\..\..\..\..\Software\uCOS-III\Source/os_stat.c ****             cycles_mult = 0u;
 805              		.loc 1 430 0
 806 0244 0023     		movs	r3, #0
 807 0246 3B63     		str	r3, [r7, #48]
 431:..\..\..\..\..\..\Software\uCOS-III\Source/os_stat.c ****             cycles_max  = 1u;
 808              		.loc 1 431 0
 809 0248 0123     		movs	r3, #1
 810 024a FB62     		str	r3, [r7, #44]
 811              	.L39:
 432:..\..\..\..\..\..\Software\uCOS-III\Source/os_stat.c ****         }
 433:..\..\..\..\..\..\Software\uCOS-III\Source/os_stat.c **** #endif
 434:..\..\..\..\..\..\Software\uCOS-III\Source/os_stat.c ****         CPU_CRITICAL_ENTER();
 812              		.loc 1 434 0
 813 024c FFF7FEFF 		bl	CPU_SR_Save
 814 0250 0300     		movs	r3, r0
 815 0252 BB61     		str	r3, [r7, #24]
 816 0254 FFF7FEFF 		bl	CPU_IntDisMeasStart
ARM GAS  C:\Users\ADMINI~1\AppData\Local\Temp\ccz9YpXg.s 			page 23


 435:..\..\..\..\..\..\Software\uCOS-III\Source/os_stat.c ****         p_tcb = OSTaskDbgListPtr;
 817              		.loc 1 435 0
 818 0258 484B     		ldr	r3, .L46+56
 819 025a 1B68     		ldr	r3, [r3]
 820 025c BB62     		str	r3, [r7, #40]
 436:..\..\..\..\..\..\Software\uCOS-III\Source/os_stat.c ****         CPU_CRITICAL_EXIT();
 821              		.loc 1 436 0
 822 025e FFF7FEFF 		bl	CPU_IntDisMeasStop
 823 0262 BB69     		ldr	r3, [r7, #24]
 824 0264 1800     		movs	r0, r3
 825 0266 FFF7FEFF 		bl	CPU_SR_Restore
 437:..\..\..\..\..\..\Software\uCOS-III\Source/os_stat.c ****         while (p_tcb != DEF_NULL) {
 826              		.loc 1 437 0
 827 026a 46E0     		b	.L40
 828              	.L43:
 438:..\..\..\..\..\..\Software\uCOS-III\Source/os_stat.c **** #if (OS_CFG_TASK_PROFILE_EN == DEF_ENABLED)                     /* Compute execution time of each t
 439:..\..\..\..\..\..\Software\uCOS-III\Source/os_stat.c ****             usage = (OS_CPU_USAGE)(cycles_mult * p_tcb->CyclesTotalPrev / cycles_max);
 829              		.loc 1 439 0
 830 026c BB6A     		ldr	r3, [r7, #40]
 831 026e 9C22     		movs	r2, #156
 832 0270 9B58     		ldr	r3, [r3, r2]
 833 0272 3A6B     		ldr	r2, [r7, #48]
 834 0274 5343     		muls	r3, r2
 835 0276 F96A     		ldr	r1, [r7, #44]
 836 0278 1800     		movs	r0, r3
 837 027a FFF7FEFF 		bl	__aeabi_uidiv
 838 027e 0300     		movs	r3, r0
 839 0280 1A00     		movs	r2, r3
 840 0282 3E23     		movs	r3, #62
 841 0284 FB18     		adds	r3, r7, r3
 842 0286 1A80     		strh	r2, [r3]
 440:..\..\..\..\..\..\Software\uCOS-III\Source/os_stat.c ****             if (usage > 10000u) {
 843              		.loc 1 440 0
 844 0288 3E23     		movs	r3, #62
 845 028a FB18     		adds	r3, r7, r3
 846 028c 1B88     		ldrh	r3, [r3]
 847 028e 354A     		ldr	r2, .L46+32
 848 0290 9342     		cmp	r3, r2
 849 0292 03D9     		bls	.L41
 441:..\..\..\..\..\..\Software\uCOS-III\Source/os_stat.c ****                 usage = 10000u;
 850              		.loc 1 441 0
 851 0294 3E23     		movs	r3, #62
 852 0296 FB18     		adds	r3, r7, r3
 853 0298 324A     		ldr	r2, .L46+32
 854 029a 1A80     		strh	r2, [r3]
 855              	.L41:
 442:..\..\..\..\..\..\Software\uCOS-III\Source/os_stat.c ****             }
 443:..\..\..\..\..\..\Software\uCOS-III\Source/os_stat.c ****             p_tcb->CPUUsage = usage;
 856              		.loc 1 443 0
 857 029c BB6A     		ldr	r3, [r7, #40]
 858 029e 3E22     		movs	r2, #62
 859 02a0 BA18     		adds	r2, r7, r2
 860 02a2 8821     		movs	r1, #136
 861 02a4 1288     		ldrh	r2, [r2]
 862 02a6 5A52     		strh	r2, [r3, r1]
 444:..\..\..\..\..\..\Software\uCOS-III\Source/os_stat.c ****             if (p_tcb->CPUUsageMax < usage) {                   /* Detect peak CPU usage           
 863              		.loc 1 444 0
ARM GAS  C:\Users\ADMINI~1\AppData\Local\Temp\ccz9YpXg.s 			page 24


 864 02a8 BB6A     		ldr	r3, [r7, #40]
 865 02aa 8A22     		movs	r2, #138
 866 02ac 9B5A     		ldrh	r3, [r3, r2]
 867 02ae 3E22     		movs	r2, #62
 868 02b0 BA18     		adds	r2, r7, r2
 869 02b2 1288     		ldrh	r2, [r2]
 870 02b4 9A42     		cmp	r2, r3
 871 02b6 05D9     		bls	.L42
 445:..\..\..\..\..\..\Software\uCOS-III\Source/os_stat.c ****                 p_tcb->CPUUsageMax = usage;
 872              		.loc 1 445 0
 873 02b8 BB6A     		ldr	r3, [r7, #40]
 874 02ba 3E22     		movs	r2, #62
 875 02bc BA18     		adds	r2, r7, r2
 876 02be 8A21     		movs	r1, #138
 877 02c0 1288     		ldrh	r2, [r2]
 878 02c2 5A52     		strh	r2, [r3, r1]
 879              	.L42:
 446:..\..\..\..\..\..\Software\uCOS-III\Source/os_stat.c ****             }
 447:..\..\..\..\..\..\Software\uCOS-III\Source/os_stat.c **** #endif
 448:..\..\..\..\..\..\Software\uCOS-III\Source/os_stat.c **** 
 449:..\..\..\..\..\..\Software\uCOS-III\Source/os_stat.c **** #if (OS_CFG_STAT_TASK_STK_CHK_EN == DEF_ENABLED)
 450:..\..\..\..\..\..\Software\uCOS-III\Source/os_stat.c ****             OSTaskStkChk( p_tcb,                                /* Compute stack usage of active ta
 880              		.loc 1 450 0
 881 02c4 BB6A     		ldr	r3, [r7, #40]
 882 02c6 AC33     		adds	r3, r3, #172
 883 02c8 1900     		movs	r1, r3
 884 02ca BB6A     		ldr	r3, [r7, #40]
 885 02cc A833     		adds	r3, r3, #168
 886 02ce 1A00     		movs	r2, r3
 887 02d0 0A23     		movs	r3, #10
 888 02d2 FB18     		adds	r3, r7, r3
 889 02d4 B86A     		ldr	r0, [r7, #40]
 890 02d6 FFF7FEFF 		bl	OSTaskStkChk
 451:..\..\..\..\..\..\Software\uCOS-III\Source/os_stat.c ****                          &p_tcb->StkFree,
 452:..\..\..\..\..\..\Software\uCOS-III\Source/os_stat.c ****                          &p_tcb->StkUsed,
 453:..\..\..\..\..\..\Software\uCOS-III\Source/os_stat.c ****                          &err);
 454:..\..\..\..\..\..\Software\uCOS-III\Source/os_stat.c **** #endif
 455:..\..\..\..\..\..\Software\uCOS-III\Source/os_stat.c **** 
 456:..\..\..\..\..\..\Software\uCOS-III\Source/os_stat.c ****             CPU_CRITICAL_ENTER();
 891              		.loc 1 456 0
 892 02da FFF7FEFF 		bl	CPU_SR_Save
 893 02de 0300     		movs	r3, r0
 894 02e0 BB61     		str	r3, [r7, #24]
 895 02e2 FFF7FEFF 		bl	CPU_IntDisMeasStart
 457:..\..\..\..\..\..\Software\uCOS-III\Source/os_stat.c ****             p_tcb = p_tcb->DbgNextPtr;
 896              		.loc 1 457 0
 897 02e6 BB6A     		ldr	r3, [r7, #40]
 898 02e8 BC22     		movs	r2, #188
 899 02ea 9B58     		ldr	r3, [r3, r2]
 900 02ec BB62     		str	r3, [r7, #40]
 458:..\..\..\..\..\..\Software\uCOS-III\Source/os_stat.c ****             CPU_CRITICAL_EXIT();
 901              		.loc 1 458 0
 902 02ee FFF7FEFF 		bl	CPU_IntDisMeasStop
 903 02f2 BB69     		ldr	r3, [r7, #24]
 904 02f4 1800     		movs	r0, r3
 905 02f6 FFF7FEFF 		bl	CPU_SR_Restore
 906              	.L40:
ARM GAS  C:\Users\ADMINI~1\AppData\Local\Temp\ccz9YpXg.s 			page 25


 437:..\..\..\..\..\..\Software\uCOS-III\Source/os_stat.c **** #if (OS_CFG_TASK_PROFILE_EN == DEF_ENABLED)                     /* Compute execution time of each t
 907              		.loc 1 437 0
 908 02fa BB6A     		ldr	r3, [r7, #40]
 909 02fc 002B     		cmp	r3, #0
 910 02fe B5D1     		bne	.L43
 459:..\..\..\..\..\..\Software\uCOS-III\Source/os_stat.c ****         }
 460:..\..\..\..\..\..\Software\uCOS-III\Source/os_stat.c **** #endif
 461:..\..\..\..\..\..\Software\uCOS-III\Source/os_stat.c **** 
 462:..\..\..\..\..\..\Software\uCOS-III\Source/os_stat.c ****         if (OSStatResetFlag == DEF_TRUE) {                      /* Check if need to reset statistic
 911              		.loc 1 462 0
 912 0300 1F4B     		ldr	r3, .L46+60
 913 0302 1B78     		ldrb	r3, [r3]
 914 0304 012B     		cmp	r3, #1
 915 0306 07D1     		bne	.L44
 463:..\..\..\..\..\..\Software\uCOS-III\Source/os_stat.c ****             OSStatResetFlag  = DEF_FALSE;
 916              		.loc 1 463 0
 917 0308 1D4B     		ldr	r3, .L46+60
 918 030a 0022     		movs	r2, #0
 919 030c 1A70     		strb	r2, [r3]
 464:..\..\..\..\..\..\Software\uCOS-III\Source/os_stat.c ****             OSStatReset(&err);
 920              		.loc 1 464 0
 921 030e 0A23     		movs	r3, #10
 922 0310 FB18     		adds	r3, r7, r3
 923 0312 1800     		movs	r0, r3
 924 0314 FFF7FEFF 		bl	OSStatReset
 925              	.L44:
 465:..\..\..\..\..\..\Software\uCOS-III\Source/os_stat.c ****         }
 466:..\..\..\..\..\..\Software\uCOS-III\Source/os_stat.c **** 
 467:..\..\..\..\..\..\Software\uCOS-III\Source/os_stat.c **** #if (OS_CFG_TS_EN == DEF_ENABLED)
 468:..\..\..\..\..\..\Software\uCOS-III\Source/os_stat.c ****         ts_end = OS_TS_GET() - ts_start;                        /* Measure execution time of statis
 926              		.loc 1 468 0
 927 0318 FFF7FEFF 		bl	CPU_TS_TmrRd
 928 031c 0200     		movs	r2, r0
 929 031e 7B69     		ldr	r3, [r7, #20]
 930 0320 D31A     		subs	r3, r2, r3
 931 0322 FB60     		str	r3, [r7, #12]
 469:..\..\..\..\..\..\Software\uCOS-III\Source/os_stat.c ****         if (OSStatTaskTimeMax < ts_end) {
 932              		.loc 1 469 0
 933 0324 174B     		ldr	r3, .L46+64
 934 0326 1A68     		ldr	r2, [r3]
 935 0328 FB68     		ldr	r3, [r7, #12]
 936 032a 9A42     		cmp	r2, r3
 937 032c 02D2     		bcs	.L45
 470:..\..\..\..\..\..\Software\uCOS-III\Source/os_stat.c ****             OSStatTaskTimeMax = ts_end;
 938              		.loc 1 470 0
 939 032e 154B     		ldr	r3, .L46+64
 940 0330 FA68     		ldr	r2, [r7, #12]
 941 0332 1A60     		str	r2, [r3]
 942              	.L45:
 471:..\..\..\..\..\..\Software\uCOS-III\Source/os_stat.c ****         }
 472:..\..\..\..\..\..\Software\uCOS-III\Source/os_stat.c **** #endif
 473:..\..\..\..\..\..\Software\uCOS-III\Source/os_stat.c **** 
 474:..\..\..\..\..\..\Software\uCOS-III\Source/os_stat.c ****         OSTimeDly(dly,
 943              		.loc 1 474 0
 944 0334 0A23     		movs	r3, #10
 945 0336 FA18     		adds	r2, r7, r3
 946 0338 FB69     		ldr	r3, [r7, #28]
ARM GAS  C:\Users\ADMINI~1\AppData\Local\Temp\ccz9YpXg.s 			page 26


 947 033a 0021     		movs	r1, #0
 948 033c 1800     		movs	r0, r3
 949 033e FFF7FEFF 		bl	OSTimeDly
 475:..\..\..\..\..\..\Software\uCOS-III\Source/os_stat.c ****                   OS_OPT_TIME_DLY,
 476:..\..\..\..\..\..\Software\uCOS-III\Source/os_stat.c ****                   &err);
 477:..\..\..\..\..\..\Software\uCOS-III\Source/os_stat.c ****     }
 950              		.loc 1 477 0
 951 0342 93E6     		b	.L22
 952              	.L47:
 953              		.align	2
 954              	.L46:
 955 0344 00000000 		.word	OSCfg_StatTaskRate_Hz
 956 0348 00000000 		.word	OSStatTaskRdy
 957 034c 00000000 		.word	OSCfg_TickRate_Hz
 958 0350 00000000 		.word	OSIntDisTimeMax
 959 0354 00000000 		.word	OSStatTaskCtr
 960 0358 00000000 		.word	OSStatTaskCtrRun
 961 035c 00000000 		.word	OSStatTaskCtrMax
 962 0360 7F1A0600 		.word	399999
 963 0364 10270000 		.word	10000
 964 0368 FF083D00 		.word	3999999
 965 036c FF596202 		.word	39999999
 966 0370 FF83D717 		.word	399999999
 967 0374 00000000 		.word	OSStatTaskCPUUsage
 968 0378 00000000 		.word	OSStatTaskCPUUsageMax
 969 037c 00000000 		.word	OSTaskDbgListPtr
 970 0380 00000000 		.word	OSStatResetFlag
 971 0384 00000000 		.word	OSStatTaskTimeMax
 972              		.cfi_endproc
 973              	.LFE2:
 974              		.size	OS_StatTask, .-OS_StatTask
 975              		.section	.rodata
 976              		.align	2
 977              	.LC39:
 978 0000 75432F4F 		.ascii	"uC/OS-III Stat Task\000"
 978      532D4949 
 978      49205374 
 978      61742054 
 978      61736B00 
 979              		.section	.text.OS_StatTaskInit,"ax",%progbits
 980              		.align	2
 981              		.global	OS_StatTaskInit
 982              		.code	16
 983              		.thumb_func
 984              		.type	OS_StatTaskInit, %function
 985              	OS_StatTaskInit:
 986              	.LFB3:
 478:..\..\..\..\..\..\Software\uCOS-III\Source/os_stat.c **** }
 479:..\..\..\..\..\..\Software\uCOS-III\Source/os_stat.c **** 
 480:..\..\..\..\..\..\Software\uCOS-III\Source/os_stat.c **** 
 481:..\..\..\..\..\..\Software\uCOS-III\Source/os_stat.c **** /*
 482:..\..\..\..\..\..\Software\uCOS-III\Source/os_stat.c **** ***************************************************************************************************
 483:..\..\..\..\..\..\Software\uCOS-III\Source/os_stat.c **** *                                              INITIALIZE THE STATISTICS
 484:..\..\..\..\..\..\Software\uCOS-III\Source/os_stat.c **** *
 485:..\..\..\..\..\..\Software\uCOS-III\Source/os_stat.c **** * Description: This function is called by OSInit() to initialize the statistic task.
 486:..\..\..\..\..\..\Software\uCOS-III\Source/os_stat.c **** *
 487:..\..\..\..\..\..\Software\uCOS-III\Source/os_stat.c **** * Argument(s): p_err     is a pointer to a variable that will contain an error code returned by thi
ARM GAS  C:\Users\ADMINI~1\AppData\Local\Temp\ccz9YpXg.s 			page 27


 488:..\..\..\..\..\..\Software\uCOS-III\Source/os_stat.c **** *
 489:..\..\..\..\..\..\Software\uCOS-III\Source/os_stat.c **** *                            OS_ERR_STK_INVALID       If you specified a NULL stack pointer during 
 490:..\..\..\..\..\..\Software\uCOS-III\Source/os_stat.c **** *                            OS_ERR_STK_SIZE_INVALID  If you didn't specify a large enough stack.
 491:..\..\..\..\..\..\Software\uCOS-III\Source/os_stat.c **** *                            OS_ERR_PRIO_INVALID      If you specified a priority for the statistic
 492:..\..\..\..\..\..\Software\uCOS-III\Source/os_stat.c **** *                                                     lower (i.e. higher number) than the idle task
 493:..\..\..\..\..\..\Software\uCOS-III\Source/os_stat.c **** *                            OS_ERR_xxx               An error code returned by OSTaskCreate()
 494:..\..\..\..\..\..\Software\uCOS-III\Source/os_stat.c **** *
 495:..\..\..\..\..\..\Software\uCOS-III\Source/os_stat.c **** * Returns    : none
 496:..\..\..\..\..\..\Software\uCOS-III\Source/os_stat.c **** *
 497:..\..\..\..\..\..\Software\uCOS-III\Source/os_stat.c **** * Note(s)    : This function is INTERNAL to uC/OS-III and your application should not call it.
 498:..\..\..\..\..\..\Software\uCOS-III\Source/os_stat.c **** ***************************************************************************************************
 499:..\..\..\..\..\..\Software\uCOS-III\Source/os_stat.c **** */
 500:..\..\..\..\..\..\Software\uCOS-III\Source/os_stat.c **** 
 501:..\..\..\..\..\..\Software\uCOS-III\Source/os_stat.c **** void  OS_StatTaskInit (OS_ERR  *p_err)
 502:..\..\..\..\..\..\Software\uCOS-III\Source/os_stat.c **** {
 987              		.loc 1 502 0
 988              		.cfi_startproc
 989              		@ args = 0, pretend = 0, frame = 8
 990              		@ frame_needed = 1, uses_anonymous_args = 0
 991 0000 F0B5     		push	{r4, r5, r6, r7, lr}
 992              		.cfi_def_cfa_offset 20
 993              		.cfi_offset 4, -20
 994              		.cfi_offset 5, -16
 995              		.cfi_offset 6, -12
 996              		.cfi_offset 7, -8
 997              		.cfi_offset 14, -4
 998 0002 8DB0     		sub	sp, sp, #52
 999              		.cfi_def_cfa_offset 72
 1000 0004 0AAF     		add	r7, sp, #40
 1001              		.cfi_def_cfa 7, 32
 1002 0006 7860     		str	r0, [r7, #4]
 503:..\..\..\..\..\..\Software\uCOS-III\Source/os_stat.c ****     OSStatTaskCtr    = 0u;
 1003              		.loc 1 503 0
 1004 0008 254B     		ldr	r3, .L53
 1005 000a 0022     		movs	r2, #0
 1006 000c 1A60     		str	r2, [r3]
 504:..\..\..\..\..\..\Software\uCOS-III\Source/os_stat.c ****     OSStatTaskCtrRun = 0u;
 1007              		.loc 1 504 0
 1008 000e 254B     		ldr	r3, .L53+4
 1009 0010 0022     		movs	r2, #0
 1010 0012 1A60     		str	r2, [r3]
 505:..\..\..\..\..\..\Software\uCOS-III\Source/os_stat.c ****     OSStatTaskCtrMax = 0u;
 1011              		.loc 1 505 0
 1012 0014 244B     		ldr	r3, .L53+8
 1013 0016 0022     		movs	r2, #0
 1014 0018 1A60     		str	r2, [r3]
 506:..\..\..\..\..\..\Software\uCOS-III\Source/os_stat.c ****     OSStatTaskRdy    = OS_STATE_NOT_RDY;                        /* Statistic task is not ready     
 1015              		.loc 1 506 0
 1016 001a 244B     		ldr	r3, .L53+12
 1017 001c 0022     		movs	r2, #0
 1018 001e 1A70     		strb	r2, [r3]
 507:..\..\..\..\..\..\Software\uCOS-III\Source/os_stat.c ****     OSStatResetFlag  = DEF_FALSE;
 1019              		.loc 1 507 0
 1020 0020 234B     		ldr	r3, .L53+16
 1021 0022 0022     		movs	r2, #0
 1022 0024 1A70     		strb	r2, [r3]
 508:..\..\..\..\..\..\Software\uCOS-III\Source/os_stat.c **** 
ARM GAS  C:\Users\ADMINI~1\AppData\Local\Temp\ccz9YpXg.s 			page 28


 509:..\..\..\..\..\..\Software\uCOS-III\Source/os_stat.c ****                                                                 /* --------------- CREATE THE STAT 
 510:..\..\..\..\..\..\Software\uCOS-III\Source/os_stat.c ****     if (OSCfg_StatTaskStkBasePtr == DEF_NULL) {
 1023              		.loc 1 510 0
 1024 0026 234B     		ldr	r3, .L53+20
 1025 0028 1B68     		ldr	r3, [r3]
 1026 002a 002B     		cmp	r3, #0
 1027 002c 03D1     		bne	.L49
 511:..\..\..\..\..\..\Software\uCOS-III\Source/os_stat.c ****        *p_err = OS_ERR_STAT_STK_INVALID;
 1028              		.loc 1 511 0
 1029 002e 7B68     		ldr	r3, [r7, #4]
 1030 0030 214A     		ldr	r2, .L53+24
 1031 0032 1A80     		strh	r2, [r3]
 512:..\..\..\..\..\..\Software\uCOS-III\Source/os_stat.c ****         return;
 1032              		.loc 1 512 0
 1033 0034 31E0     		b	.L48
 1034              	.L49:
 513:..\..\..\..\..\..\Software\uCOS-III\Source/os_stat.c ****     }
 514:..\..\..\..\..\..\Software\uCOS-III\Source/os_stat.c **** 
 515:..\..\..\..\..\..\Software\uCOS-III\Source/os_stat.c ****     if (OSCfg_StatTaskStkSize < OSCfg_StkSizeMin) {
 1035              		.loc 1 515 0
 1036 0036 214B     		ldr	r3, .L53+28
 1037 0038 1A68     		ldr	r2, [r3]
 1038 003a 214B     		ldr	r3, .L53+32
 1039 003c 1B68     		ldr	r3, [r3]
 1040 003e 9A42     		cmp	r2, r3
 1041 0040 03D2     		bcs	.L51
 516:..\..\..\..\..\..\Software\uCOS-III\Source/os_stat.c ****        *p_err = OS_ERR_STAT_STK_SIZE_INVALID;
 1042              		.loc 1 516 0
 1043 0042 7B68     		ldr	r3, [r7, #4]
 1044 0044 1F4A     		ldr	r2, .L53+36
 1045 0046 1A80     		strh	r2, [r3]
 517:..\..\..\..\..\..\Software\uCOS-III\Source/os_stat.c ****         return;
 1046              		.loc 1 517 0
 1047 0048 27E0     		b	.L48
 1048              	.L51:
 518:..\..\..\..\..\..\Software\uCOS-III\Source/os_stat.c ****     }
 519:..\..\..\..\..\..\Software\uCOS-III\Source/os_stat.c **** 
 520:..\..\..\..\..\..\Software\uCOS-III\Source/os_stat.c ****     if (OSCfg_StatTaskPrio >= (OS_CFG_PRIO_MAX - 1u)) {
 1049              		.loc 1 520 0
 1050 004a 1F4B     		ldr	r3, .L53+40
 1051 004c 1B78     		ldrb	r3, [r3]
 1052 004e 1E2B     		cmp	r3, #30
 1053 0050 03D9     		bls	.L52
 521:..\..\..\..\..\..\Software\uCOS-III\Source/os_stat.c ****        *p_err = OS_ERR_STAT_PRIO_INVALID;
 1054              		.loc 1 521 0
 1055 0052 7B68     		ldr	r3, [r7, #4]
 1056 0054 1D4A     		ldr	r2, .L53+44
 1057 0056 1A80     		strh	r2, [r3]
 522:..\..\..\..\..\..\Software\uCOS-III\Source/os_stat.c ****         return;
 1058              		.loc 1 522 0
 1059 0058 1FE0     		b	.L48
 1060              	.L52:
 523:..\..\..\..\..\..\Software\uCOS-III\Source/os_stat.c ****     }
 524:..\..\..\..\..\..\Software\uCOS-III\Source/os_stat.c **** 
 525:..\..\..\..\..\..\Software\uCOS-III\Source/os_stat.c ****     OSTaskCreate(&OSStatTaskTCB,
 1061              		.loc 1 525 0
 1062 005a 1B4B     		ldr	r3, .L53+40
ARM GAS  C:\Users\ADMINI~1\AppData\Local\Temp\ccz9YpXg.s 			page 29


 1063 005c 1A78     		ldrb	r2, [r3]
 1064 005e 154B     		ldr	r3, .L53+20
 1065 0060 1968     		ldr	r1, [r3]
 1066 0062 1B4B     		ldr	r3, .L53+48
 1067 0064 1868     		ldr	r0, [r3]
 1068 0066 154B     		ldr	r3, .L53+28
 1069 0068 1B68     		ldr	r3, [r3]
 1070 006a 1A4C     		ldr	r4, .L53+52
 1071 006c A446     		mov	ip, r4
 1072 006e 1A4E     		ldr	r6, .L53+56
 1073 0070 1A4D     		ldr	r5, .L53+60
 1074 0072 7C68     		ldr	r4, [r7, #4]
 1075 0074 0894     		str	r4, [sp, #32]
 1076 0076 0324     		movs	r4, #3
 1077 0078 0794     		str	r4, [sp, #28]
 1078 007a 0024     		movs	r4, #0
 1079 007c 0694     		str	r4, [sp, #24]
 1080 007e 0024     		movs	r4, #0
 1081 0080 0594     		str	r4, [sp, #20]
 1082 0082 0024     		movs	r4, #0
 1083 0084 0494     		str	r4, [sp, #16]
 1084 0086 0393     		str	r3, [sp, #12]
 1085 0088 0290     		str	r0, [sp, #8]
 1086 008a 0191     		str	r1, [sp, #4]
 1087 008c 0092     		str	r2, [sp]
 1088 008e 0023     		movs	r3, #0
 1089 0090 6246     		mov	r2, ip
 1090 0092 3100     		movs	r1, r6
 1091 0094 2800     		movs	r0, r5
 1092 0096 FFF7FEFF 		bl	OSTaskCreate
 1093              	.L48:
 526:..\..\..\..\..\..\Software\uCOS-III\Source/os_stat.c ****                  (CPU_CHAR   *)((void *)"uC/OS-III Stat Task"),
 527:..\..\..\..\..\..\Software\uCOS-III\Source/os_stat.c ****                  OS_StatTask,
 528:..\..\..\..\..\..\Software\uCOS-III\Source/os_stat.c ****                  DEF_NULL,
 529:..\..\..\..\..\..\Software\uCOS-III\Source/os_stat.c ****                  OSCfg_StatTaskPrio,
 530:..\..\..\..\..\..\Software\uCOS-III\Source/os_stat.c ****                  OSCfg_StatTaskStkBasePtr,
 531:..\..\..\..\..\..\Software\uCOS-III\Source/os_stat.c ****                  OSCfg_StatTaskStkLimit,
 532:..\..\..\..\..\..\Software\uCOS-III\Source/os_stat.c ****                  OSCfg_StatTaskStkSize,
 533:..\..\..\..\..\..\Software\uCOS-III\Source/os_stat.c ****                  0u,
 534:..\..\..\..\..\..\Software\uCOS-III\Source/os_stat.c ****                  0u,
 535:..\..\..\..\..\..\Software\uCOS-III\Source/os_stat.c ****                  DEF_NULL,
 536:..\..\..\..\..\..\Software\uCOS-III\Source/os_stat.c ****                  (OS_OPT_TASK_STK_CHK | OS_OPT_TASK_STK_CLR),
 537:..\..\..\..\..\..\Software\uCOS-III\Source/os_stat.c ****                  p_err);
 538:..\..\..\..\..\..\Software\uCOS-III\Source/os_stat.c **** }
 1094              		.loc 1 538 0
 1095 009a BD46     		mov	sp, r7
 1096 009c 03B0     		add	sp, sp, #12
 1097              		@ sp needed
 1098 009e F0BD     		pop	{r4, r5, r6, r7, pc}
 1099              	.L54:
 1100              		.align	2
 1101              	.L53:
 1102 00a0 00000000 		.word	OSStatTaskCtr
 1103 00a4 00000000 		.word	OSStatTaskCtrRun
 1104 00a8 00000000 		.word	OSStatTaskCtrMax
 1105 00ac 00000000 		.word	OSStatTaskRdy
 1106 00b0 00000000 		.word	OSStatResetFlag
ARM GAS  C:\Users\ADMINI~1\AppData\Local\Temp\ccz9YpXg.s 			page 30


 1107 00b4 00000000 		.word	OSCfg_StatTaskStkBasePtr
 1108 00b8 2B6E0000 		.word	28203
 1109 00bc 00000000 		.word	OSCfg_StatTaskStkSize
 1110 00c0 00000000 		.word	OSCfg_StkSizeMin
 1111 00c4 2C6E0000 		.word	28204
 1112 00c8 00000000 		.word	OSCfg_StatTaskPrio
 1113 00cc 2A6E0000 		.word	28202
 1114 00d0 00000000 		.word	OSCfg_StatTaskStkLimit
 1115 00d4 00000000 		.word	OS_StatTask
 1116 00d8 00000000 		.word	.LC39
 1117 00dc 00000000 		.word	OSStatTaskTCB
 1118              		.cfi_endproc
 1119              	.LFE3:
 1120              		.size	OS_StatTaskInit, .-OS_StatTaskInit
 1121              		.text
 1122              	.Letext0:
 1123              		.file 2 "..\\..\\..\\..\\..\\..\\Software\\uC-CPU\\ARM-Cortex-M0\\GNU/cpu.h"
 1124              		.file 3 "..\\..\\..\\..\\..\\..\\Software\\uC-CPU/cpu_core.h"
 1125              		.file 4 "..\\..\\..\\..\\..\\..\\Software\\uCOS-III\\Source\\os_type.h"
 1126              		.file 5 "..\\..\\..\\..\\..\\..\\Software\\uCOS-III\\Source\\os.h"