ARM GAS  C:\Users\ADMINI~1\AppData\Local\Temp\ccvBRVNC.s 			page 1


   1              		.syntax unified
   2              		.cpu cortex-m0
   3              		.fpu softvfp
   4              		.eabi_attribute 20, 1
   5              		.eabi_attribute 21, 1
   6              		.eabi_attribute 23, 3
   7              		.eabi_attribute 24, 1
   8              		.eabi_attribute 25, 1
   9              		.eabi_attribute 26, 1
  10              		.eabi_attribute 30, 6
  11              		.eabi_attribute 34, 0
  12              		.eabi_attribute 18, 4
  13              		.thumb
  14              		.syntax unified
  15              		.file	"os_task.c"
  16              		.text
  17              	.Ltext0:
  18              		.cfi_sections	.debug_frame
  19              		.section	.text.OSTaskChangePrio,"ax",%progbits
  20              		.align	2
  21              		.global	OSTaskChangePrio
  22              		.code	16
  23              		.thumb_func
  24              		.type	OSTaskChangePrio, %function
  25              	OSTaskChangePrio:
  26              	.LFB0:
  27              		.file 1 "..\\..\\..\\..\\..\\..\\Software\\uCOS-III\\Source\\os_task.c"
   1:..\..\..\..\..\..\Software\uCOS-III\Source/os_task.c **** /*
   2:..\..\..\..\..\..\Software\uCOS-III\Source/os_task.c **** ***************************************************************************************************
   3:..\..\..\..\..\..\Software\uCOS-III\Source/os_task.c **** *                                                      uC/OS-III
   4:..\..\..\..\..\..\Software\uCOS-III\Source/os_task.c **** *                                                 The Real-Time Kernel
   5:..\..\..\..\..\..\Software\uCOS-III\Source/os_task.c **** *
   6:..\..\..\..\..\..\Software\uCOS-III\Source/os_task.c **** *                                  (c) Copyright 2009-2015; Micrium, Inc.; Weston, FL
   7:..\..\..\..\..\..\Software\uCOS-III\Source/os_task.c **** *                           All rights reserved.  Protected by international copyright laws.
   8:..\..\..\..\..\..\Software\uCOS-III\Source/os_task.c **** *
   9:..\..\..\..\..\..\Software\uCOS-III\Source/os_task.c **** *                                                   TASK MANAGEMENT
  10:..\..\..\..\..\..\Software\uCOS-III\Source/os_task.c **** *
  11:..\..\..\..\..\..\Software\uCOS-III\Source/os_task.c **** * File    : OS_TASK.C
  12:..\..\..\..\..\..\Software\uCOS-III\Source/os_task.c **** * By      : JJL
  13:..\..\..\..\..\..\Software\uCOS-III\Source/os_task.c **** * Version : V3.05.01
  14:..\..\..\..\..\..\Software\uCOS-III\Source/os_task.c **** *
  15:..\..\..\..\..\..\Software\uCOS-III\Source/os_task.c **** * LICENSING TERMS:
  16:..\..\..\..\..\..\Software\uCOS-III\Source/os_task.c **** * ---------------
  17:..\..\..\..\..\..\Software\uCOS-III\Source/os_task.c **** *           uC/OS-III is provided in source form for FREE short-term evaluation, for educational us
  18:..\..\..\..\..\..\Software\uCOS-III\Source/os_task.c **** *           for peaceful research.  If you plan or intend to use uC/OS-III in a commercial applicat
  19:..\..\..\..\..\..\Software\uCOS-III\Source/os_task.c **** *           product then, you need to contact Micrium to properly license uC/OS-III for its use in 
  20:..\..\..\..\..\..\Software\uCOS-III\Source/os_task.c **** *           application/product.   We provide ALL the source code for your convenience and to help 
  21:..\..\..\..\..\..\Software\uCOS-III\Source/os_task.c **** *           experience uC/OS-III.  The fact that the source is provided does NOT mean that you can 
  22:..\..\..\..\..\..\Software\uCOS-III\Source/os_task.c **** *           it commercially without paying a licensing fee.
  23:..\..\..\..\..\..\Software\uCOS-III\Source/os_task.c **** *
  24:..\..\..\..\..\..\Software\uCOS-III\Source/os_task.c **** *           Knowledge of the source code may NOT be used to develop a similar product.
  25:..\..\..\..\..\..\Software\uCOS-III\Source/os_task.c **** *
  26:..\..\..\..\..\..\Software\uCOS-III\Source/os_task.c **** *           Please help us continue to provide the embedded community with the finest software avai
  27:..\..\..\..\..\..\Software\uCOS-III\Source/os_task.c **** *           Your honesty is greatly appreciated.
  28:..\..\..\..\..\..\Software\uCOS-III\Source/os_task.c **** *
  29:..\..\..\..\..\..\Software\uCOS-III\Source/os_task.c **** *           You can find our product's user manual, API reference, release notes and
  30:..\..\..\..\..\..\Software\uCOS-III\Source/os_task.c **** *           more information at https://doc.micrium.com.
ARM GAS  C:\Users\ADMINI~1\AppData\Local\Temp\ccvBRVNC.s 			page 2


  31:..\..\..\..\..\..\Software\uCOS-III\Source/os_task.c **** *           You can contact us at www.micrium.com.
  32:..\..\..\..\..\..\Software\uCOS-III\Source/os_task.c **** ***************************************************************************************************
  33:..\..\..\..\..\..\Software\uCOS-III\Source/os_task.c **** */
  34:..\..\..\..\..\..\Software\uCOS-III\Source/os_task.c **** 
  35:..\..\..\..\..\..\Software\uCOS-III\Source/os_task.c **** #define  MICRIUM_SOURCE
  36:..\..\..\..\..\..\Software\uCOS-III\Source/os_task.c **** #include "os.h"
  37:..\..\..\..\..\..\Software\uCOS-III\Source/os_task.c **** 
  38:..\..\..\..\..\..\Software\uCOS-III\Source/os_task.c **** 
  39:..\..\..\..\..\..\Software\uCOS-III\Source/os_task.c **** #ifdef VSC_INCLUDE_SOURCE_FILE_NAMES
  40:..\..\..\..\..\..\Software\uCOS-III\Source/os_task.c **** const  CPU_CHAR  *os_task__c = "$Id: $";
  41:..\..\..\..\..\..\Software\uCOS-III\Source/os_task.c **** #endif
  42:..\..\..\..\..\..\Software\uCOS-III\Source/os_task.c **** 
  43:..\..\..\..\..\..\Software\uCOS-III\Source/os_task.c **** /*
  44:..\..\..\..\..\..\Software\uCOS-III\Source/os_task.c **** ***************************************************************************************************
  45:..\..\..\..\..\..\Software\uCOS-III\Source/os_task.c **** *                                                CHANGE PRIORITY OF A TASK
  46:..\..\..\..\..\..\Software\uCOS-III\Source/os_task.c **** *
  47:..\..\..\..\..\..\Software\uCOS-III\Source/os_task.c **** * Description: This function allows you to change the priority of a task dynamically.  Note that th
  48:..\..\..\..\..\..\Software\uCOS-III\Source/os_task.c **** *              priority MUST be available.
  49:..\..\..\..\..\..\Software\uCOS-III\Source/os_task.c **** *
  50:..\..\..\..\..\..\Software\uCOS-III\Source/os_task.c **** * Arguments  : p_tcb      is the TCB of the tack to change the priority for
  51:..\..\..\..\..\..\Software\uCOS-III\Source/os_task.c **** *
  52:..\..\..\..\..\..\Software\uCOS-III\Source/os_task.c **** *              prio_new   is the new priority
  53:..\..\..\..\..\..\Software\uCOS-III\Source/os_task.c **** *
  54:..\..\..\..\..\..\Software\uCOS-III\Source/os_task.c **** *              p_err      is a pointer to an error code returned by this function:
  55:..\..\..\..\..\..\Software\uCOS-III\Source/os_task.c **** *
  56:..\..\..\..\..\..\Software\uCOS-III\Source/os_task.c **** *                             OS_ERR_NONE                    Is the call was successful
  57:..\..\..\..\..\..\Software\uCOS-III\Source/os_task.c **** *                             OS_ERR_OS_NOT_RUNNING          If uC/OS-III is not running yet
  58:..\..\..\..\..\..\Software\uCOS-III\Source/os_task.c **** *                             OS_ERR_PRIO_INVALID            If the priority you specify is higher 
  59:..\..\..\..\..\..\Software\uCOS-III\Source/os_task.c **** *                                                              (i.e. >= (OS_CFG_PRIO_MAX-1)) or alr
  60:..\..\..\..\..\..\Software\uCOS-III\Source/os_task.c **** *                                                              task
  61:..\..\..\..\..\..\Software\uCOS-III\Source/os_task.c **** *                             OS_ERR_STATE_INVALID           If the task is in an invalid state
  62:..\..\..\..\..\..\Software\uCOS-III\Source/os_task.c **** *                             OS_ERR_TASK_CHANGE_PRIO_ISR    If you tried to change the task's prio
  63:..\..\..\..\..\..\Software\uCOS-III\Source/os_task.c **** *
  64:..\..\..\..\..\..\Software\uCOS-III\Source/os_task.c **** * Returns    : none
  65:..\..\..\..\..\..\Software\uCOS-III\Source/os_task.c **** *
  66:..\..\..\..\..\..\Software\uCOS-III\Source/os_task.c **** * Note(s)    : none
  67:..\..\..\..\..\..\Software\uCOS-III\Source/os_task.c **** ***************************************************************************************************
  68:..\..\..\..\..\..\Software\uCOS-III\Source/os_task.c **** */
  69:..\..\..\..\..\..\Software\uCOS-III\Source/os_task.c **** 
  70:..\..\..\..\..\..\Software\uCOS-III\Source/os_task.c **** #if (OS_CFG_TASK_CHANGE_PRIO_EN == DEF_ENABLED)
  71:..\..\..\..\..\..\Software\uCOS-III\Source/os_task.c **** void  OSTaskChangePrio (OS_TCB   *p_tcb,
  72:..\..\..\..\..\..\Software\uCOS-III\Source/os_task.c ****                         OS_PRIO   prio_new,
  73:..\..\..\..\..\..\Software\uCOS-III\Source/os_task.c ****                         OS_ERR   *p_err)
  74:..\..\..\..\..\..\Software\uCOS-III\Source/os_task.c **** {
  28              		.loc 1 74 0
  29              		.cfi_startproc
  30              		@ args = 0, pretend = 0, frame = 24
  31              		@ frame_needed = 1, uses_anonymous_args = 0
  32 0000 90B5     		push	{r4, r7, lr}
  33              		.cfi_def_cfa_offset 12
  34              		.cfi_offset 4, -12
  35              		.cfi_offset 7, -8
  36              		.cfi_offset 14, -4
  37 0002 87B0     		sub	sp, sp, #28
  38              		.cfi_def_cfa_offset 40
  39 0004 00AF     		add	r7, sp, #0
  40              		.cfi_def_cfa_register 7
ARM GAS  C:\Users\ADMINI~1\AppData\Local\Temp\ccvBRVNC.s 			page 3


  41 0006 F860     		str	r0, [r7, #12]
  42 0008 7A60     		str	r2, [r7, #4]
  43 000a 0B23     		movs	r3, #11
  44 000c FB18     		adds	r3, r7, r3
  45 000e 0A1C     		adds	r2, r1, #0
  46 0010 1A70     		strb	r2, [r3]
  75:..\..\..\..\..\..\Software\uCOS-III\Source/os_task.c **** #if (OS_CFG_MUTEX_EN == DEF_ENABLED)
  76:..\..\..\..\..\..\Software\uCOS-III\Source/os_task.c ****     OS_PRIO  prio_high;
  77:..\..\..\..\..\..\Software\uCOS-III\Source/os_task.c **** #endif
  78:..\..\..\..\..\..\Software\uCOS-III\Source/os_task.c ****     CPU_SR_ALLOC();
  47              		.loc 1 78 0
  48 0012 0023     		movs	r3, #0
  49 0014 7B61     		str	r3, [r7, #20]
  79:..\..\..\..\..\..\Software\uCOS-III\Source/os_task.c **** 
  80:..\..\..\..\..\..\Software\uCOS-III\Source/os_task.c **** 
  81:..\..\..\..\..\..\Software\uCOS-III\Source/os_task.c **** #ifdef OS_SAFETY_CRITICAL
  82:..\..\..\..\..\..\Software\uCOS-III\Source/os_task.c ****     if (p_err == DEF_NULL) {
  83:..\..\..\..\..\..\Software\uCOS-III\Source/os_task.c ****         OS_SAFETY_CRITICAL_EXCEPTION();
  84:..\..\..\..\..\..\Software\uCOS-III\Source/os_task.c ****         return;
  85:..\..\..\..\..\..\Software\uCOS-III\Source/os_task.c ****     }
  86:..\..\..\..\..\..\Software\uCOS-III\Source/os_task.c **** #endif
  87:..\..\..\..\..\..\Software\uCOS-III\Source/os_task.c **** 
  88:..\..\..\..\..\..\Software\uCOS-III\Source/os_task.c **** #if (OS_CFG_ARG_CHK_EN == DEF_ENABLED)
  89:..\..\..\..\..\..\Software\uCOS-III\Source/os_task.c ****     if ((p_tcb != DEF_NULL) && (p_tcb->TaskState == OS_TASK_STATE_DEL)) {
  50              		.loc 1 89 0
  51 0016 FB68     		ldr	r3, [r7, #12]
  52 0018 002B     		cmp	r3, #0
  53 001a 08D0     		beq	.L2
  54              		.loc 1 89 0 is_stmt 0 discriminator 1
  55 001c FB68     		ldr	r3, [r7, #12]
  56 001e 3622     		movs	r2, #54
  57 0020 9B5C     		ldrb	r3, [r3, r2]
  58 0022 FF2B     		cmp	r3, #255
  59 0024 03D1     		bne	.L2
  90:..\..\..\..\..\..\Software\uCOS-III\Source/os_task.c ****        *p_err = OS_ERR_STATE_INVALID;
  60              		.loc 1 90 0 is_stmt 1
  61 0026 7B68     		ldr	r3, [r7, #4]
  62 0028 374A     		ldr	r2, .L10
  63 002a 1A80     		strh	r2, [r3]
  91:..\..\..\..\..\..\Software\uCOS-III\Source/os_task.c ****         return;
  64              		.loc 1 91 0
  65 002c 69E0     		b	.L1
  66              	.L2:
  92:..\..\..\..\..\..\Software\uCOS-III\Source/os_task.c ****     }
  93:..\..\..\..\..\..\Software\uCOS-III\Source/os_task.c **** #endif
  94:..\..\..\..\..\..\Software\uCOS-III\Source/os_task.c **** 
  95:..\..\..\..\..\..\Software\uCOS-III\Source/os_task.c **** #if (OS_CFG_CALLED_FROM_ISR_CHK_EN == DEF_ENABLED)
  96:..\..\..\..\..\..\Software\uCOS-III\Source/os_task.c ****     if (OSIntNestingCtr > 0u) {                                 /* Not allowed to call from an ISR 
  67              		.loc 1 96 0
  68 002e 374B     		ldr	r3, .L10+4
  69 0030 1B78     		ldrb	r3, [r3]
  70 0032 002B     		cmp	r3, #0
  71 0034 03D0     		beq	.L4
  97:..\..\..\..\..\..\Software\uCOS-III\Source/os_task.c ****        *p_err = OS_ERR_TASK_CHANGE_PRIO_ISR;
  72              		.loc 1 97 0
  73 0036 7B68     		ldr	r3, [r7, #4]
  74 0038 354A     		ldr	r2, .L10+8
ARM GAS  C:\Users\ADMINI~1\AppData\Local\Temp\ccvBRVNC.s 			page 4


  75 003a 1A80     		strh	r2, [r3]
  98:..\..\..\..\..\..\Software\uCOS-III\Source/os_task.c ****         return;
  76              		.loc 1 98 0
  77 003c 61E0     		b	.L1
  78              	.L4:
  99:..\..\..\..\..\..\Software\uCOS-III\Source/os_task.c ****     }
 100:..\..\..\..\..\..\Software\uCOS-III\Source/os_task.c **** #endif
 101:..\..\..\..\..\..\Software\uCOS-III\Source/os_task.c **** 
 102:..\..\..\..\..\..\Software\uCOS-III\Source/os_task.c **** #if (OS_CFG_ISR_POST_DEFERRED_EN == DEF_ENABLED)
 103:..\..\..\..\..\..\Software\uCOS-III\Source/os_task.c ****     if (prio_new == 0u) {                                        /* Cannot set to IntQueue Task pri
 104:..\..\..\..\..\..\Software\uCOS-III\Source/os_task.c ****        *p_err = OS_ERR_PRIO_INVALID;
 105:..\..\..\..\..\..\Software\uCOS-III\Source/os_task.c ****         return;
 106:..\..\..\..\..\..\Software\uCOS-III\Source/os_task.c ****     }
 107:..\..\..\..\..\..\Software\uCOS-III\Source/os_task.c **** #endif
 108:..\..\..\..\..\..\Software\uCOS-III\Source/os_task.c **** 
 109:..\..\..\..\..\..\Software\uCOS-III\Source/os_task.c ****     if (prio_new >= (OS_CFG_PRIO_MAX - 1u)) {                   /* Cannot set to Idle Task priority
  79              		.loc 1 109 0
  80 003e 0B23     		movs	r3, #11
  81 0040 FB18     		adds	r3, r7, r3
  82 0042 1B78     		ldrb	r3, [r3]
  83 0044 1E2B     		cmp	r3, #30
  84 0046 03D9     		bls	.L5
 110:..\..\..\..\..\..\Software\uCOS-III\Source/os_task.c ****        *p_err = OS_ERR_PRIO_INVALID;
  85              		.loc 1 110 0
  86 0048 7B68     		ldr	r3, [r7, #4]
  87 004a 324A     		ldr	r2, .L10+12
  88 004c 1A80     		strh	r2, [r3]
 111:..\..\..\..\..\..\Software\uCOS-III\Source/os_task.c ****         return;
  89              		.loc 1 111 0
  90 004e 58E0     		b	.L1
  91              	.L5:
 112:..\..\..\..\..\..\Software\uCOS-III\Source/os_task.c ****     }
 113:..\..\..\..\..\..\Software\uCOS-III\Source/os_task.c **** 
 114:..\..\..\..\..\..\Software\uCOS-III\Source/os_task.c ****     OS_CRITICAL_ENTER();
  92              		.loc 1 114 0
  93 0050 FFF7FEFF 		bl	CPU_SR_Save
  94 0054 0300     		movs	r3, r0
  95 0056 7B61     		str	r3, [r7, #20]
  96 0058 FFF7FEFF 		bl	CPU_IntDisMeasStart
 115:..\..\..\..\..\..\Software\uCOS-III\Source/os_task.c **** 
 116:..\..\..\..\..\..\Software\uCOS-III\Source/os_task.c ****     if (p_tcb == DEF_NULL) {                                    /* Are we changing the priority of 
  97              		.loc 1 116 0
  98 005c FB68     		ldr	r3, [r7, #12]
  99 005e 002B     		cmp	r3, #0
 100 0060 10D1     		bne	.L6
 117:..\..\..\..\..\..\Software\uCOS-III\Source/os_task.c ****         if (OSRunning != OS_STATE_OS_RUNNING) {
 101              		.loc 1 117 0
 102 0062 2D4B     		ldr	r3, .L10+16
 103 0064 1B78     		ldrb	r3, [r3]
 104 0066 012B     		cmp	r3, #1
 105 0068 09D0     		beq	.L7
 118:..\..\..\..\..\..\Software\uCOS-III\Source/os_task.c ****             OS_CRITICAL_EXIT();
 106              		.loc 1 118 0
 107 006a FFF7FEFF 		bl	CPU_IntDisMeasStop
 108 006e 7B69     		ldr	r3, [r7, #20]
 109 0070 1800     		movs	r0, r3
 110 0072 FFF7FEFF 		bl	CPU_SR_Restore
ARM GAS  C:\Users\ADMINI~1\AppData\Local\Temp\ccvBRVNC.s 			page 5


 119:..\..\..\..\..\..\Software\uCOS-III\Source/os_task.c ****            *p_err = OS_ERR_OS_NOT_RUNNING;
 111              		.loc 1 119 0
 112 0076 7B68     		ldr	r3, [r7, #4]
 113 0078 284A     		ldr	r2, .L10+20
 114 007a 1A80     		strh	r2, [r3]
 120:..\..\..\..\..\..\Software\uCOS-III\Source/os_task.c ****             return;
 115              		.loc 1 120 0
 116 007c 41E0     		b	.L1
 117              	.L7:
 121:..\..\..\..\..\..\Software\uCOS-III\Source/os_task.c ****         }
 122:..\..\..\..\..\..\Software\uCOS-III\Source/os_task.c ****         p_tcb = OSTCBCurPtr;
 118              		.loc 1 122 0
 119 007e 284B     		ldr	r3, .L10+24
 120 0080 1B68     		ldr	r3, [r3]
 121 0082 FB60     		str	r3, [r7, #12]
 122              	.L6:
 123:..\..\..\..\..\..\Software\uCOS-III\Source/os_task.c ****     }
 124:..\..\..\..\..\..\Software\uCOS-III\Source/os_task.c **** 
 125:..\..\..\..\..\..\Software\uCOS-III\Source/os_task.c **** #if (OS_CFG_MUTEX_EN == DEF_ENABLED)
 126:..\..\..\..\..\..\Software\uCOS-III\Source/os_task.c ****     p_tcb->BasePrio = prio_new;                                 /* Update base priority            
 123              		.loc 1 126 0
 124 0084 FB68     		ldr	r3, [r7, #12]
 125 0086 0B22     		movs	r2, #11
 126 0088 BA18     		adds	r2, r7, r2
 127 008a 3821     		movs	r1, #56
 128 008c 1278     		ldrb	r2, [r2]
 129 008e 5A54     		strb	r2, [r3, r1]
 127:..\..\..\..\..\..\Software\uCOS-III\Source/os_task.c **** 
 128:..\..\..\..\..\..\Software\uCOS-III\Source/os_task.c ****     if (p_tcb->MutexGrpHeadPtr != DEF_NULL) {                   /* Owning a mutex?                 
 130              		.loc 1 128 0
 131 0090 FB68     		ldr	r3, [r7, #12]
 132 0092 DB6B     		ldr	r3, [r3, #60]
 133 0094 002B     		cmp	r3, #0
 134 0096 1DD0     		beq	.L8
 129:..\..\..\..\..\..\Software\uCOS-III\Source/os_task.c ****         if (prio_new > p_tcb->Prio) {
 135              		.loc 1 129 0
 136 0098 FB68     		ldr	r3, [r7, #12]
 137 009a 3722     		movs	r2, #55
 138 009c 9B5C     		ldrb	r3, [r3, r2]
 139 009e 0B22     		movs	r2, #11
 140 00a0 BA18     		adds	r2, r7, r2
 141 00a2 1278     		ldrb	r2, [r2]
 142 00a4 9A42     		cmp	r2, r3
 143 00a6 15D9     		bls	.L8
 130:..\..\..\..\..\..\Software\uCOS-III\Source/os_task.c ****             prio_high = OS_MutexGrpPrioFindHighest(p_tcb);
 144              		.loc 1 130 0
 145 00a8 1323     		movs	r3, #19
 146 00aa FC18     		adds	r4, r7, r3
 147 00ac FB68     		ldr	r3, [r7, #12]
 148 00ae 1800     		movs	r0, r3
 149 00b0 FFF7FEFF 		bl	OS_MutexGrpPrioFindHighest
 150 00b4 0300     		movs	r3, r0
 151 00b6 2370     		strb	r3, [r4]
 131:..\..\..\..\..\..\Software\uCOS-III\Source/os_task.c ****             if (prio_new > prio_high) {
 152              		.loc 1 131 0
 153 00b8 0B23     		movs	r3, #11
 154 00ba FA18     		adds	r2, r7, r3
ARM GAS  C:\Users\ADMINI~1\AppData\Local\Temp\ccvBRVNC.s 			page 6


 155 00bc 1323     		movs	r3, #19
 156 00be FB18     		adds	r3, r7, r3
 157 00c0 1278     		ldrb	r2, [r2]
 158 00c2 1B78     		ldrb	r3, [r3]
 159 00c4 9A42     		cmp	r2, r3
 160 00c6 05D9     		bls	.L8
 132:..\..\..\..\..\..\Software\uCOS-III\Source/os_task.c ****                 prio_new = prio_high;
 161              		.loc 1 132 0
 162 00c8 0B23     		movs	r3, #11
 163 00ca FB18     		adds	r3, r7, r3
 164 00cc 1322     		movs	r2, #19
 165 00ce BA18     		adds	r2, r7, r2
 166 00d0 1278     		ldrb	r2, [r2]
 167 00d2 1A70     		strb	r2, [r3]
 168              	.L8:
 133:..\..\..\..\..\..\Software\uCOS-III\Source/os_task.c ****             }
 134:..\..\..\..\..\..\Software\uCOS-III\Source/os_task.c ****         }
 135:..\..\..\..\..\..\Software\uCOS-III\Source/os_task.c ****     }
 136:..\..\..\..\..\..\Software\uCOS-III\Source/os_task.c **** #endif
 137:..\..\..\..\..\..\Software\uCOS-III\Source/os_task.c **** 
 138:..\..\..\..\..\..\Software\uCOS-III\Source/os_task.c ****     OS_TaskChangePrio(p_tcb, prio_new);
 169              		.loc 1 138 0
 170 00d4 0B23     		movs	r3, #11
 171 00d6 FB18     		adds	r3, r7, r3
 172 00d8 1A78     		ldrb	r2, [r3]
 173 00da FB68     		ldr	r3, [r7, #12]
 174 00dc 1100     		movs	r1, r2
 175 00de 1800     		movs	r0, r3
 176 00e0 FFF7FEFF 		bl	OS_TaskChangePrio
 139:..\..\..\..\..\..\Software\uCOS-III\Source/os_task.c **** 
 140:..\..\..\..\..\..\Software\uCOS-III\Source/os_task.c ****     OS_CRITICAL_EXIT_NO_SCHED();
 177              		.loc 1 140 0
 178 00e4 FFF7FEFF 		bl	CPU_IntDisMeasStop
 179 00e8 7B69     		ldr	r3, [r7, #20]
 180 00ea 1800     		movs	r0, r3
 181 00ec FFF7FEFF 		bl	CPU_SR_Restore
 141:..\..\..\..\..\..\Software\uCOS-III\Source/os_task.c **** 
 142:..\..\..\..\..\..\Software\uCOS-III\Source/os_task.c ****     if (OSRunning == OS_STATE_OS_RUNNING) {
 182              		.loc 1 142 0
 183 00f0 094B     		ldr	r3, .L10+16
 184 00f2 1B78     		ldrb	r3, [r3]
 185 00f4 012B     		cmp	r3, #1
 186 00f6 01D1     		bne	.L9
 143:..\..\..\..\..\..\Software\uCOS-III\Source/os_task.c ****         OSSched();                                              /* Run highest priority task ready 
 187              		.loc 1 143 0
 188 00f8 FFF7FEFF 		bl	OSSched
 189              	.L9:
 144:..\..\..\..\..\..\Software\uCOS-III\Source/os_task.c ****     }
 145:..\..\..\..\..\..\Software\uCOS-III\Source/os_task.c **** 
 146:..\..\..\..\..\..\Software\uCOS-III\Source/os_task.c ****    *p_err = OS_ERR_NONE;
 190              		.loc 1 146 0
 191 00fc 7B68     		ldr	r3, [r7, #4]
 192 00fe 0022     		movs	r2, #0
 193 0100 1A80     		strh	r2, [r3]
 194              	.L1:
 147:..\..\..\..\..\..\Software\uCOS-III\Source/os_task.c **** }
 195              		.loc 1 147 0
ARM GAS  C:\Users\ADMINI~1\AppData\Local\Temp\ccvBRVNC.s 			page 7


 196 0102 BD46     		mov	sp, r7
 197 0104 07B0     		add	sp, sp, #28
 198              		@ sp needed
 199 0106 90BD     		pop	{r4, r7, pc}
 200              	.L11:
 201              		.align	2
 202              	.L10:
 203 0108 2D6E0000 		.word	28205
 204 010c 00000000 		.word	OSIntNestingCtr
 205 0110 49710000 		.word	29001
 206 0114 73620000 		.word	25203
 207 0118 00000000 		.word	OSRunning
 208 011c 895E0000 		.word	24201
 209 0120 00000000 		.word	OSTCBCurPtr
 210              		.cfi_endproc
 211              	.LFE0:
 212              		.size	OSTaskChangePrio, .-OSTaskChangePrio
 213              		.section	.text.OSTaskCreate,"ax",%progbits
 214              		.align	2
 215              		.global	OSTaskCreate
 216              		.code	16
 217              		.thumb_func
 218              		.type	OSTaskCreate, %function
 219              	OSTaskCreate:
 220              	.LFB1:
 148:..\..\..\..\..\..\Software\uCOS-III\Source/os_task.c **** #endif
 149:..\..\..\..\..\..\Software\uCOS-III\Source/os_task.c **** 
 150:..\..\..\..\..\..\Software\uCOS-III\Source/os_task.c **** 
 151:..\..\..\..\..\..\Software\uCOS-III\Source/os_task.c **** /*
 152:..\..\..\..\..\..\Software\uCOS-III\Source/os_task.c **** ***************************************************************************************************
 153:..\..\..\..\..\..\Software\uCOS-III\Source/os_task.c **** *                                                    CREATE A TASK
 154:..\..\..\..\..\..\Software\uCOS-III\Source/os_task.c **** *
 155:..\..\..\..\..\..\Software\uCOS-III\Source/os_task.c **** * Description: This function is used to have uC/OS-III manage the execution of a task.  Tasks can e
 156:..\..\..\..\..\..\Software\uCOS-III\Source/os_task.c **** *              prior to the start of multitasking or by a running task.  A task cannot be created b
 157:..\..\..\..\..\..\Software\uCOS-III\Source/os_task.c **** *
 158:..\..\..\..\..\..\Software\uCOS-III\Source/os_task.c **** * Arguments  : p_tcb          is a pointer to the task's TCB
 159:..\..\..\..\..\..\Software\uCOS-III\Source/os_task.c **** *
 160:..\..\..\..\..\..\Software\uCOS-III\Source/os_task.c **** *              p_name         is a pointer to an ASCII string to provide a name to the task.
 161:..\..\..\..\..\..\Software\uCOS-III\Source/os_task.c **** *
 162:..\..\..\..\..\..\Software\uCOS-III\Source/os_task.c **** *              p_task         is a pointer to the task's code
 163:..\..\..\..\..\..\Software\uCOS-III\Source/os_task.c **** *
 164:..\..\..\..\..\..\Software\uCOS-III\Source/os_task.c **** *              p_arg          is a pointer to an optional data area which can be used to pass param
 165:..\..\..\..\..\..\Software\uCOS-III\Source/os_task.c **** *                             the task when the task first executes.  Where the task is concerned i
 166:..\..\..\..\..\..\Software\uCOS-III\Source/os_task.c **** *                             it was invoked and passed the argument 'p_arg' as follows:
 167:..\..\..\..\..\..\Software\uCOS-III\Source/os_task.c **** *
 168:..\..\..\..\..\..\Software\uCOS-III\Source/os_task.c **** *                                 void Task (void *p_arg)
 169:..\..\..\..\..\..\Software\uCOS-III\Source/os_task.c **** *                                 {
 170:..\..\..\..\..\..\Software\uCOS-III\Source/os_task.c **** *                                     for (;;) {
 171:..\..\..\..\..\..\Software\uCOS-III\Source/os_task.c **** *                                         Task code;
 172:..\..\..\..\..\..\Software\uCOS-III\Source/os_task.c **** *                                     }
 173:..\..\..\..\..\..\Software\uCOS-III\Source/os_task.c **** *                                 }
 174:..\..\..\..\..\..\Software\uCOS-III\Source/os_task.c **** *
 175:..\..\..\..\..\..\Software\uCOS-III\Source/os_task.c **** *              prio           is the task's priority.  A unique priority MUST be assigned to each t
 176:..\..\..\..\..\..\Software\uCOS-III\Source/os_task.c **** *                             lower the number, the higher the priority.
 177:..\..\..\..\..\..\Software\uCOS-III\Source/os_task.c **** *
 178:..\..\..\..\..\..\Software\uCOS-III\Source/os_task.c **** *              p_stk_base     is a pointer to the base address of the stack (i.e. low address).
 179:..\..\..\..\..\..\Software\uCOS-III\Source/os_task.c **** *
ARM GAS  C:\Users\ADMINI~1\AppData\Local\Temp\ccvBRVNC.s 			page 8


 180:..\..\..\..\..\..\Software\uCOS-III\Source/os_task.c **** *              stk_limit      is the number of stack elements to set as 'watermark' limit for the s
 181:..\..\..\..\..\..\Software\uCOS-III\Source/os_task.c **** *                             represents the number of CPU_STK entries left before the stack is ful
 182:..\..\..\..\..\..\Software\uCOS-III\Source/os_task.c **** *                             specifying 10% of the 'stk_size' value indicates that the stack limit
 183:..\..\..\..\..\..\Software\uCOS-III\Source/os_task.c **** *                             when the stack reaches 90% full.
 184:..\..\..\..\..\..\Software\uCOS-III\Source/os_task.c **** *
 185:..\..\..\..\..\..\Software\uCOS-III\Source/os_task.c **** *              stk_size       is the size of the stack in number of elements.  If CPU_STK is set to
 186:..\..\..\..\..\..\Software\uCOS-III\Source/os_task.c **** *                             'stk_size' corresponds to the number of bytes available.  If CPU_STK 
 187:..\..\..\..\..\..\Software\uCOS-III\Source/os_task.c **** *                             CPU_INT16U, 'stk_size' contains the number of 16-bit entries availabl
 188:..\..\..\..\..\..\Software\uCOS-III\Source/os_task.c **** *                             CPU_STK is set to CPU_INT32U, 'stk_size' contains the number of 32-bi
 189:..\..\..\..\..\..\Software\uCOS-III\Source/os_task.c **** *                             available on the stack.
 190:..\..\..\..\..\..\Software\uCOS-III\Source/os_task.c **** *
 191:..\..\..\..\..\..\Software\uCOS-III\Source/os_task.c **** *              q_size         is the maximum number of messages that can be sent to the task
 192:..\..\..\..\..\..\Software\uCOS-III\Source/os_task.c **** *
 193:..\..\..\..\..\..\Software\uCOS-III\Source/os_task.c **** *              time_quanta    amount of time (in ticks) for time slice when round-robin between tas
 194:..\..\..\..\..\..\Software\uCOS-III\Source/os_task.c **** *                             the default.
 195:..\..\..\..\..\..\Software\uCOS-III\Source/os_task.c **** *
 196:..\..\..\..\..\..\Software\uCOS-III\Source/os_task.c **** *              p_ext          is a pointer to a user supplied memory location which is used as a TC
 197:..\..\..\..\..\..\Software\uCOS-III\Source/os_task.c **** *                             For example, this user memory can hold the contents of floating-point
 198:..\..\..\..\..\..\Software\uCOS-III\Source/os_task.c **** *                             during a context switch, the time each task takes to execute, the num
 199:..\..\..\..\..\..\Software\uCOS-III\Source/os_task.c **** *                             the task has been switched-in, etc.
 200:..\..\..\..\..\..\Software\uCOS-III\Source/os_task.c **** *
 201:..\..\..\..\..\..\Software\uCOS-III\Source/os_task.c **** *              opt            contains additional information (or options) about the behavior of th
 202:..\..\..\..\..\..\Software\uCOS-III\Source/os_task.c **** *                             See OS_OPT_TASK_xxx in OS.H.  Current choices are:
 203:..\..\..\..\..\..\Software\uCOS-III\Source/os_task.c **** *
 204:..\..\..\..\..\..\Software\uCOS-III\Source/os_task.c **** *                                 OS_OPT_TASK_NONE            No option selected
 205:..\..\..\..\..\..\Software\uCOS-III\Source/os_task.c **** *                                 OS_OPT_TASK_STK_CHK         Stack checking to be allowed for the 
 206:..\..\..\..\..\..\Software\uCOS-III\Source/os_task.c **** *                                 OS_OPT_TASK_STK_CLR         Clear the stack when the task is crea
 207:..\..\..\..\..\..\Software\uCOS-III\Source/os_task.c **** *                                 OS_OPT_TASK_SAVE_FP         If the CPU has floating-point registe
 208:..\..\..\..\..\..\Software\uCOS-III\Source/os_task.c **** *                                                             during a context switch.
 209:..\..\..\..\..\..\Software\uCOS-III\Source/os_task.c **** *                                 OS_OPT_TASK_NO_TLS          If the caller doesn't want or need TL
 210:..\..\..\..\..\..\Software\uCOS-III\Source/os_task.c **** *                                                             Storage) support for the task.  If yo
 211:..\..\..\..\..\..\Software\uCOS-III\Source/os_task.c **** *                                                             option, TLS will be supported by defa
 212:..\..\..\..\..\..\Software\uCOS-III\Source/os_task.c **** *
 213:..\..\..\..\..\..\Software\uCOS-III\Source/os_task.c **** *              p_err          is a pointer to an error code that will be set during this call.  The
 214:..\..\..\..\..\..\Software\uCOS-III\Source/os_task.c **** *                             to by 'p_err' can be:
 215:..\..\..\..\..\..\Software\uCOS-III\Source/os_task.c **** *
 216:..\..\..\..\..\..\Software\uCOS-III\Source/os_task.c **** *                                 OS_ERR_NONE                    If the function was successful
 217:..\..\..\..\..\..\Software\uCOS-III\Source/os_task.c **** *                                 OS_ERR_ILLEGAL_CREATE_RUN_TIME If you are trying to create the ta
 218:..\..\..\..\..\..\Software\uCOS-III\Source/os_task.c **** *                                                                   OSStart()
 219:..\..\..\..\..\..\Software\uCOS-III\Source/os_task.c **** *                                 OS_ERR_PRIO_INVALID            If the priority you specify is hig
 220:..\..\..\..\..\..\Software\uCOS-III\Source/os_task.c **** *                                                                   allowed (i.e. >= OS_CFG_PRIO_MA
 221:..\..\..\..\..\..\Software\uCOS-III\Source/os_task.c **** *                                                                If OS_CFG_ISR_POST_DEFERRED_EN is 
 222:..\..\..\..\..\..\Software\uCOS-III\Source/os_task.c **** *                                                                   to use priority 0 which is rese
 223:..\..\..\..\..\..\Software\uCOS-III\Source/os_task.c **** *                                 OS_ERR_STAT_STK_SIZE_INVALID   If the stack was overflowed during
 224:..\..\..\..\..\..\Software\uCOS-III\Source/os_task.c **** *                                 OS_ERR_STK_INVALID             If you specified a NULL pointer fo
 225:..\..\..\..\..\..\Software\uCOS-III\Source/os_task.c **** *                                 OS_ERR_STK_SIZE_INVALID        If you specified zero for the 'stk
 226:..\..\..\..\..\..\Software\uCOS-III\Source/os_task.c **** *                                 OS_ERR_STK_LIMIT_INVALID       If you specified a 'stk_limit' gre
 227:..\..\..\..\..\..\Software\uCOS-III\Source/os_task.c **** *                                                                   to 'stk_size'
 228:..\..\..\..\..\..\Software\uCOS-III\Source/os_task.c **** *                                 OS_ERR_TASK_CREATE_ISR         If you tried to create a task from
 229:..\..\..\..\..\..\Software\uCOS-III\Source/os_task.c **** *                                 OS_ERR_TASK_INVALID            If you specified a NULL pointer fo
 230:..\..\..\..\..\..\Software\uCOS-III\Source/os_task.c **** *                                 OS_ERR_TCB_INVALID             If you specified a NULL pointer fo
 231:..\..\..\..\..\..\Software\uCOS-III\Source/os_task.c **** *
 232:..\..\..\..\..\..\Software\uCOS-III\Source/os_task.c **** * Returns    : none
 233:..\..\..\..\..\..\Software\uCOS-III\Source/os_task.c **** *
 234:..\..\..\..\..\..\Software\uCOS-III\Source/os_task.c **** * Note(s)    : 1) OSTaskCreate() will return with the error OS_ERR_STAT_STK_SIZE_INVALID when a sta
 235:..\..\..\..\..\..\Software\uCOS-III\Source/os_task.c **** *                 during stack initialization. In that specific case some memory may have been corr
 236:..\..\..\..\..\..\Software\uCOS-III\Source/os_task.c **** *                 therefore recommended to treat OS_ERR_STAT_STK_SIZE_INVALID as a fatal error.
ARM GAS  C:\Users\ADMINI~1\AppData\Local\Temp\ccvBRVNC.s 			page 9


 237:..\..\..\..\..\..\Software\uCOS-III\Source/os_task.c **** ***************************************************************************************************
 238:..\..\..\..\..\..\Software\uCOS-III\Source/os_task.c **** */
 239:..\..\..\..\..\..\Software\uCOS-III\Source/os_task.c **** 
 240:..\..\..\..\..\..\Software\uCOS-III\Source/os_task.c **** void  OSTaskCreate (OS_TCB        *p_tcb,
 241:..\..\..\..\..\..\Software\uCOS-III\Source/os_task.c ****                     CPU_CHAR      *p_name,
 242:..\..\..\..\..\..\Software\uCOS-III\Source/os_task.c ****                     OS_TASK_PTR    p_task,
 243:..\..\..\..\..\..\Software\uCOS-III\Source/os_task.c ****                     void          *p_arg,
 244:..\..\..\..\..\..\Software\uCOS-III\Source/os_task.c ****                     OS_PRIO        prio,
 245:..\..\..\..\..\..\Software\uCOS-III\Source/os_task.c ****                     CPU_STK       *p_stk_base,
 246:..\..\..\..\..\..\Software\uCOS-III\Source/os_task.c ****                     CPU_STK_SIZE   stk_limit,
 247:..\..\..\..\..\..\Software\uCOS-III\Source/os_task.c ****                     CPU_STK_SIZE   stk_size,
 248:..\..\..\..\..\..\Software\uCOS-III\Source/os_task.c ****                     OS_MSG_QTY     q_size,
 249:..\..\..\..\..\..\Software\uCOS-III\Source/os_task.c ****                     OS_TICK        time_quanta,
 250:..\..\..\..\..\..\Software\uCOS-III\Source/os_task.c ****                     void          *p_ext,
 251:..\..\..\..\..\..\Software\uCOS-III\Source/os_task.c ****                     OS_OPT         opt,
 252:..\..\..\..\..\..\Software\uCOS-III\Source/os_task.c ****                     OS_ERR        *p_err)
 253:..\..\..\..\..\..\Software\uCOS-III\Source/os_task.c **** {
 221              		.loc 1 253 0
 222              		.cfi_startproc
 223              		@ args = 36, pretend = 0, frame = 40
 224              		@ frame_needed = 1, uses_anonymous_args = 0
 225 0000 90B5     		push	{r4, r7, lr}
 226              		.cfi_def_cfa_offset 12
 227              		.cfi_offset 4, -12
 228              		.cfi_offset 7, -8
 229              		.cfi_offset 14, -4
 230 0002 8DB0     		sub	sp, sp, #52
 231              		.cfi_def_cfa_offset 64
 232 0004 02AF     		add	r7, sp, #8
 233              		.cfi_def_cfa 7, 56
 234 0006 F860     		str	r0, [r7, #12]
 235 0008 B960     		str	r1, [r7, #8]
 236 000a 7A60     		str	r2, [r7, #4]
 237 000c 3B60     		str	r3, [r7]
 254:..\..\..\..\..\..\Software\uCOS-III\Source/os_task.c ****     CPU_STK_SIZE   i;
 255:..\..\..\..\..\..\Software\uCOS-III\Source/os_task.c **** #if (OS_CFG_TASK_REG_TBL_SIZE > 0u)
 256:..\..\..\..\..\..\Software\uCOS-III\Source/os_task.c ****     OS_REG_ID      reg_nbr;
 257:..\..\..\..\..\..\Software\uCOS-III\Source/os_task.c **** #endif
 258:..\..\..\..\..\..\Software\uCOS-III\Source/os_task.c **** #if defined(OS_CFG_TLS_TBL_SIZE) && (OS_CFG_TLS_TBL_SIZE > 0u)
 259:..\..\..\..\..\..\Software\uCOS-III\Source/os_task.c ****     OS_TLS_ID      id;
 260:..\..\..\..\..\..\Software\uCOS-III\Source/os_task.c **** #endif
 261:..\..\..\..\..\..\Software\uCOS-III\Source/os_task.c **** 
 262:..\..\..\..\..\..\Software\uCOS-III\Source/os_task.c ****     CPU_STK       *p_sp;
 263:..\..\..\..\..\..\Software\uCOS-III\Source/os_task.c ****     CPU_STK       *p_stk_limit;
 264:..\..\..\..\..\..\Software\uCOS-III\Source/os_task.c ****     CPU_SR_ALLOC();
 238              		.loc 1 264 0
 239 000e 0023     		movs	r3, #0
 240 0010 BB61     		str	r3, [r7, #24]
 265:..\..\..\..\..\..\Software\uCOS-III\Source/os_task.c **** 
 266:..\..\..\..\..\..\Software\uCOS-III\Source/os_task.c **** 
 267:..\..\..\..\..\..\Software\uCOS-III\Source/os_task.c **** 
 268:..\..\..\..\..\..\Software\uCOS-III\Source/os_task.c **** #ifdef OS_SAFETY_CRITICAL
 269:..\..\..\..\..\..\Software\uCOS-III\Source/os_task.c ****     if (p_err == DEF_NULL) {
 270:..\..\..\..\..\..\Software\uCOS-III\Source/os_task.c ****         OS_SAFETY_CRITICAL_EXCEPTION();
 271:..\..\..\..\..\..\Software\uCOS-III\Source/os_task.c ****         return;
 272:..\..\..\..\..\..\Software\uCOS-III\Source/os_task.c ****     }
 273:..\..\..\..\..\..\Software\uCOS-III\Source/os_task.c **** #endif
ARM GAS  C:\Users\ADMINI~1\AppData\Local\Temp\ccvBRVNC.s 			page 10


 274:..\..\..\..\..\..\Software\uCOS-III\Source/os_task.c **** 
 275:..\..\..\..\..\..\Software\uCOS-III\Source/os_task.c **** #ifdef OS_SAFETY_CRITICAL_IEC61508
 276:..\..\..\..\..\..\Software\uCOS-III\Source/os_task.c ****     if (OSSafetyCriticalStartFlag == DEF_TRUE) {
 277:..\..\..\..\..\..\Software\uCOS-III\Source/os_task.c ****        *p_err = OS_ERR_ILLEGAL_CREATE_RUN_TIME;
 278:..\..\..\..\..\..\Software\uCOS-III\Source/os_task.c ****         return;
 279:..\..\..\..\..\..\Software\uCOS-III\Source/os_task.c ****     }
 280:..\..\..\..\..\..\Software\uCOS-III\Source/os_task.c **** #endif
 281:..\..\..\..\..\..\Software\uCOS-III\Source/os_task.c **** 
 282:..\..\..\..\..\..\Software\uCOS-III\Source/os_task.c **** #if (OS_CFG_CALLED_FROM_ISR_CHK_EN == DEF_ENABLED)
 283:..\..\..\..\..\..\Software\uCOS-III\Source/os_task.c ****     if (OSIntNestingCtr > 0u) {                                 /* --------- CANNOT CREATE A TASK F
 241              		.loc 1 283 0
 242 0012 864B     		ldr	r3, .L30
 243 0014 1B78     		ldrb	r3, [r3]
 244 0016 002B     		cmp	r3, #0
 245 0018 03D0     		beq	.L13
 284:..\..\..\..\..\..\Software\uCOS-III\Source/os_task.c **** #if (defined(TRACE_CFG_EN) && (TRACE_CFG_EN == DEF_ENABLED))
 285:..\..\..\..\..\..\Software\uCOS-III\Source/os_task.c ****         TRACE_OS_TASK_CREATE_FAILED(p_tcb);                     /* Record the event.               
 286:..\..\..\..\..\..\Software\uCOS-III\Source/os_task.c **** #endif
 287:..\..\..\..\..\..\Software\uCOS-III\Source/os_task.c ****        *p_err = OS_ERR_TASK_CREATE_ISR;
 246              		.loc 1 287 0
 247 001a BB6D     		ldr	r3, [r7, #88]
 248 001c 844A     		ldr	r2, .L30+4
 249 001e 1A80     		strh	r2, [r3]
 288:..\..\..\..\..\..\Software\uCOS-III\Source/os_task.c ****         return;
 250              		.loc 1 288 0
 251 0020 00E1     		b	.L12
 252              	.L13:
 289:..\..\..\..\..\..\Software\uCOS-III\Source/os_task.c ****     }
 290:..\..\..\..\..\..\Software\uCOS-III\Source/os_task.c **** #endif
 291:..\..\..\..\..\..\Software\uCOS-III\Source/os_task.c **** 
 292:..\..\..\..\..\..\Software\uCOS-III\Source/os_task.c **** #if (OS_CFG_ARG_CHK_EN == DEF_ENABLED)                          /* ---------------- VALIDATE ARGUME
 293:..\..\..\..\..\..\Software\uCOS-III\Source/os_task.c ****     if (p_tcb == DEF_NULL) {                                    /* User must supply a valid OS_TCB 
 253              		.loc 1 293 0
 254 0022 FB68     		ldr	r3, [r7, #12]
 255 0024 002B     		cmp	r3, #0
 256 0026 03D1     		bne	.L15
 294:..\..\..\..\..\..\Software\uCOS-III\Source/os_task.c **** #if (defined(TRACE_CFG_EN) && (TRACE_CFG_EN == DEF_ENABLED))
 295:..\..\..\..\..\..\Software\uCOS-III\Source/os_task.c ****         TRACE_OS_TASK_CREATE_FAILED(p_tcb);                     /* Record the event.               
 296:..\..\..\..\..\..\Software\uCOS-III\Source/os_task.c **** #endif
 297:..\..\..\..\..\..\Software\uCOS-III\Source/os_task.c ****        *p_err = OS_ERR_TCB_INVALID;
 257              		.loc 1 297 0
 258 0028 BB6D     		ldr	r3, [r7, #88]
 259 002a 824A     		ldr	r2, .L30+8
 260 002c 1A80     		strh	r2, [r3]
 298:..\..\..\..\..\..\Software\uCOS-III\Source/os_task.c ****         return;
 261              		.loc 1 298 0
 262 002e F9E0     		b	.L12
 263              	.L15:
 299:..\..\..\..\..\..\Software\uCOS-III\Source/os_task.c ****     }
 300:..\..\..\..\..\..\Software\uCOS-III\Source/os_task.c ****     if (p_task == 0u) {                                         /* User must supply a valid task   
 264              		.loc 1 300 0
 265 0030 7B68     		ldr	r3, [r7, #4]
 266 0032 002B     		cmp	r3, #0
 267 0034 03D1     		bne	.L16
 301:..\..\..\..\..\..\Software\uCOS-III\Source/os_task.c **** #if (defined(TRACE_CFG_EN) && (TRACE_CFG_EN == DEF_ENABLED))
 302:..\..\..\..\..\..\Software\uCOS-III\Source/os_task.c ****         TRACE_OS_TASK_CREATE_FAILED(p_tcb);                     /* Record the event.               
 303:..\..\..\..\..\..\Software\uCOS-III\Source/os_task.c **** #endif
ARM GAS  C:\Users\ADMINI~1\AppData\Local\Temp\ccvBRVNC.s 			page 11


 304:..\..\..\..\..\..\Software\uCOS-III\Source/os_task.c ****        *p_err = OS_ERR_TASK_INVALID;
 268              		.loc 1 304 0
 269 0036 BB6D     		ldr	r3, [r7, #88]
 270 0038 7F4A     		ldr	r2, .L30+12
 271 003a 1A80     		strh	r2, [r3]
 305:..\..\..\..\..\..\Software\uCOS-III\Source/os_task.c ****         return;
 272              		.loc 1 305 0
 273 003c F2E0     		b	.L12
 274              	.L16:
 306:..\..\..\..\..\..\Software\uCOS-III\Source/os_task.c ****     }
 307:..\..\..\..\..\..\Software\uCOS-III\Source/os_task.c ****     if (p_stk_base == DEF_NULL) {                               /* User must supply a valid stack b
 275              		.loc 1 307 0
 276 003e FB6B     		ldr	r3, [r7, #60]
 277 0040 002B     		cmp	r3, #0
 278 0042 03D1     		bne	.L17
 308:..\..\..\..\..\..\Software\uCOS-III\Source/os_task.c **** #if (defined(TRACE_CFG_EN) && (TRACE_CFG_EN == DEF_ENABLED))
 309:..\..\..\..\..\..\Software\uCOS-III\Source/os_task.c ****         TRACE_OS_TASK_CREATE_FAILED(p_tcb);                     /* Record the event.               
 310:..\..\..\..\..\..\Software\uCOS-III\Source/os_task.c **** #endif
 311:..\..\..\..\..\..\Software\uCOS-III\Source/os_task.c ****        *p_err = OS_ERR_STK_INVALID;
 279              		.loc 1 311 0
 280 0044 BB6D     		ldr	r3, [r7, #88]
 281 0046 7D4A     		ldr	r2, .L30+16
 282 0048 1A80     		strh	r2, [r3]
 312:..\..\..\..\..\..\Software\uCOS-III\Source/os_task.c ****         return;
 283              		.loc 1 312 0
 284 004a EBE0     		b	.L12
 285              	.L17:
 313:..\..\..\..\..\..\Software\uCOS-III\Source/os_task.c ****     }
 314:..\..\..\..\..\..\Software\uCOS-III\Source/os_task.c ****     if (stk_size < OSCfg_StkSizeMin) {                          /* User must supply a valid minimum
 286              		.loc 1 314 0
 287 004c 7C4B     		ldr	r3, .L30+20
 288 004e 1B68     		ldr	r3, [r3]
 289 0050 7A6C     		ldr	r2, [r7, #68]
 290 0052 9A42     		cmp	r2, r3
 291 0054 03D2     		bcs	.L18
 315:..\..\..\..\..\..\Software\uCOS-III\Source/os_task.c **** #if (defined(TRACE_CFG_EN) && (TRACE_CFG_EN == DEF_ENABLED))
 316:..\..\..\..\..\..\Software\uCOS-III\Source/os_task.c ****         TRACE_OS_TASK_CREATE_FAILED(p_tcb);                     /* Record the event.               
 317:..\..\..\..\..\..\Software\uCOS-III\Source/os_task.c **** #endif
 318:..\..\..\..\..\..\Software\uCOS-III\Source/os_task.c ****        *p_err = OS_ERR_STK_SIZE_INVALID;
 292              		.loc 1 318 0
 293 0056 BB6D     		ldr	r3, [r7, #88]
 294 0058 7A4A     		ldr	r2, .L30+24
 295 005a 1A80     		strh	r2, [r3]
 319:..\..\..\..\..\..\Software\uCOS-III\Source/os_task.c ****         return;
 296              		.loc 1 319 0
 297 005c E2E0     		b	.L12
 298              	.L18:
 320:..\..\..\..\..\..\Software\uCOS-III\Source/os_task.c ****     }
 321:..\..\..\..\..\..\Software\uCOS-III\Source/os_task.c ****     if (stk_limit >= stk_size) {                                /* User must supply a valid stack l
 299              		.loc 1 321 0
 300 005e 3A6C     		ldr	r2, [r7, #64]
 301 0060 7B6C     		ldr	r3, [r7, #68]
 302 0062 9A42     		cmp	r2, r3
 303 0064 03D3     		bcc	.L19
 322:..\..\..\..\..\..\Software\uCOS-III\Source/os_task.c **** #if (defined(TRACE_CFG_EN) && (TRACE_CFG_EN == DEF_ENABLED))
 323:..\..\..\..\..\..\Software\uCOS-III\Source/os_task.c ****         TRACE_OS_TASK_CREATE_FAILED(p_tcb);                     /* Record the event.               
 324:..\..\..\..\..\..\Software\uCOS-III\Source/os_task.c **** #endif
ARM GAS  C:\Users\ADMINI~1\AppData\Local\Temp\ccvBRVNC.s 			page 12


 325:..\..\..\..\..\..\Software\uCOS-III\Source/os_task.c ****        *p_err = OS_ERR_STK_LIMIT_INVALID;
 304              		.loc 1 325 0
 305 0066 BB6D     		ldr	r3, [r7, #88]
 306 0068 774A     		ldr	r2, .L30+28
 307 006a 1A80     		strh	r2, [r3]
 326:..\..\..\..\..\..\Software\uCOS-III\Source/os_task.c ****         return;
 308              		.loc 1 326 0
 309 006c DAE0     		b	.L12
 310              	.L19:
 327:..\..\..\..\..\..\Software\uCOS-III\Source/os_task.c ****     }
 328:..\..\..\..\..\..\Software\uCOS-III\Source/os_task.c ****     if (prio >= OS_CFG_PRIO_MAX) {                              /* Priority must be within 0 and OS
 311              		.loc 1 328 0
 312 006e 3823     		movs	r3, #56
 313 0070 FB18     		adds	r3, r7, r3
 314 0072 1B78     		ldrb	r3, [r3]
 315 0074 1F2B     		cmp	r3, #31
 316 0076 03D9     		bls	.L20
 329:..\..\..\..\..\..\Software\uCOS-III\Source/os_task.c **** #if (defined(TRACE_CFG_EN) && (TRACE_CFG_EN == DEF_ENABLED))
 330:..\..\..\..\..\..\Software\uCOS-III\Source/os_task.c ****         TRACE_OS_TASK_CREATE_FAILED(p_tcb);                     /* Record the event.               
 331:..\..\..\..\..\..\Software\uCOS-III\Source/os_task.c **** #endif
 332:..\..\..\..\..\..\Software\uCOS-III\Source/os_task.c ****        *p_err = OS_ERR_PRIO_INVALID;
 317              		.loc 1 332 0
 318 0078 BB6D     		ldr	r3, [r7, #88]
 319 007a 744A     		ldr	r2, .L30+32
 320 007c 1A80     		strh	r2, [r3]
 333:..\..\..\..\..\..\Software\uCOS-III\Source/os_task.c ****         return;
 321              		.loc 1 333 0
 322 007e D1E0     		b	.L12
 323              	.L20:
 334:..\..\..\..\..\..\Software\uCOS-III\Source/os_task.c ****     }
 335:..\..\..\..\..\..\Software\uCOS-III\Source/os_task.c **** #endif
 336:..\..\..\..\..\..\Software\uCOS-III\Source/os_task.c **** 
 337:..\..\..\..\..\..\Software\uCOS-III\Source/os_task.c **** #if (OS_CFG_ISR_POST_DEFERRED_EN == DEF_ENABLED)
 338:..\..\..\..\..\..\Software\uCOS-III\Source/os_task.c ****     if (prio == 0u) {
 339:..\..\..\..\..\..\Software\uCOS-III\Source/os_task.c ****         if (p_tcb != &OSIntQTaskTCB) {
 340:..\..\..\..\..\..\Software\uCOS-III\Source/os_task.c **** #if (defined(TRACE_CFG_EN) && (TRACE_CFG_EN == DEF_ENABLED))
 341:..\..\..\..\..\..\Software\uCOS-III\Source/os_task.c ****             TRACE_OS_TASK_CREATE_FAILED(p_tcb);                 /* Record the event.               
 342:..\..\..\..\..\..\Software\uCOS-III\Source/os_task.c **** #endif
 343:..\..\..\..\..\..\Software\uCOS-III\Source/os_task.c ****            *p_err = OS_ERR_PRIO_INVALID;                        /* Not allowed to use priority 0   
 344:..\..\..\..\..\..\Software\uCOS-III\Source/os_task.c ****             return;
 345:..\..\..\..\..\..\Software\uCOS-III\Source/os_task.c ****         }
 346:..\..\..\..\..\..\Software\uCOS-III\Source/os_task.c ****     }
 347:..\..\..\..\..\..\Software\uCOS-III\Source/os_task.c **** #endif
 348:..\..\..\..\..\..\Software\uCOS-III\Source/os_task.c **** 
 349:..\..\..\..\..\..\Software\uCOS-III\Source/os_task.c ****     if (prio == (OS_CFG_PRIO_MAX - 1u)) {
 324              		.loc 1 349 0
 325 0080 3823     		movs	r3, #56
 326 0082 FB18     		adds	r3, r7, r3
 327 0084 1B78     		ldrb	r3, [r3]
 328 0086 1F2B     		cmp	r3, #31
 329 0088 07D1     		bne	.L21
 350:..\..\..\..\..\..\Software\uCOS-III\Source/os_task.c **** #if (OS_CFG_TASK_IDLE_EN == DEF_ENABLED)
 351:..\..\..\..\..\..\Software\uCOS-III\Source/os_task.c ****         if (p_tcb != &OSIdleTaskTCB) {
 330              		.loc 1 351 0
 331 008a FA68     		ldr	r2, [r7, #12]
 332 008c 704B     		ldr	r3, .L30+36
 333 008e 9A42     		cmp	r2, r3
ARM GAS  C:\Users\ADMINI~1\AppData\Local\Temp\ccvBRVNC.s 			page 13


 334 0090 03D0     		beq	.L21
 352:..\..\..\..\..\..\Software\uCOS-III\Source/os_task.c **** #if (defined(TRACE_CFG_EN) && (TRACE_CFG_EN == DEF_ENABLED))
 353:..\..\..\..\..\..\Software\uCOS-III\Source/os_task.c ****             TRACE_OS_TASK_CREATE_FAILED(p_tcb);                 /* Record the event.               
 354:..\..\..\..\..\..\Software\uCOS-III\Source/os_task.c **** #endif
 355:..\..\..\..\..\..\Software\uCOS-III\Source/os_task.c ****            *p_err = OS_ERR_PRIO_INVALID;                        /* Not allowed to use same priority
 335              		.loc 1 355 0
 336 0092 BB6D     		ldr	r3, [r7, #88]
 337 0094 6D4A     		ldr	r2, .L30+32
 338 0096 1A80     		strh	r2, [r3]
 356:..\..\..\..\..\..\Software\uCOS-III\Source/os_task.c ****             return;
 339              		.loc 1 356 0
 340 0098 C4E0     		b	.L12
 341              	.L21:
 357:..\..\..\..\..\..\Software\uCOS-III\Source/os_task.c ****         }
 358:..\..\..\..\..\..\Software\uCOS-III\Source/os_task.c **** #else
 359:..\..\..\..\..\..\Software\uCOS-III\Source/os_task.c **** #if (defined(TRACE_CFG_EN) && (TRACE_CFG_EN == DEF_ENABLED))
 360:..\..\..\..\..\..\Software\uCOS-III\Source/os_task.c ****         TRACE_OS_TASK_CREATE_FAILED(p_tcb);                     /* Record the event.               
 361:..\..\..\..\..\..\Software\uCOS-III\Source/os_task.c **** #endif
 362:..\..\..\..\..\..\Software\uCOS-III\Source/os_task.c ****        *p_err = OS_ERR_PRIO_INVALID;                            /* Not allowed to use same priority
 363:..\..\..\..\..\..\Software\uCOS-III\Source/os_task.c ****         return;
 364:..\..\..\..\..\..\Software\uCOS-III\Source/os_task.c **** #endif
 365:..\..\..\..\..\..\Software\uCOS-III\Source/os_task.c ****     }
 366:..\..\..\..\..\..\Software\uCOS-III\Source/os_task.c **** 
 367:..\..\..\..\..\..\Software\uCOS-III\Source/os_task.c ****     OS_TaskInitTCB(p_tcb);                                      /* Initialize the TCB to default va
 342              		.loc 1 367 0
 343 009a FB68     		ldr	r3, [r7, #12]
 344 009c 1800     		movs	r0, r3
 345 009e FFF7FEFF 		bl	OS_TaskInitTCB
 368:..\..\..\..\..\..\Software\uCOS-III\Source/os_task.c **** 
 369:..\..\..\..\..\..\Software\uCOS-III\Source/os_task.c ****    *p_err = OS_ERR_NONE;
 346              		.loc 1 369 0
 347 00a2 BB6D     		ldr	r3, [r7, #88]
 348 00a4 0022     		movs	r2, #0
 349 00a6 1A80     		strh	r2, [r3]
 370:..\..\..\..\..\..\Software\uCOS-III\Source/os_task.c ****                                                                 /* -------------- CLEAR THE TASK'S 
 371:..\..\..\..\..\..\Software\uCOS-III\Source/os_task.c ****     if (((opt & OS_OPT_TASK_STK_CHK) != 0u) ||                  /* See if stack checking has been e
 350              		.loc 1 371 0
 351 00a8 5423     		movs	r3, #84
 352 00aa FB18     		adds	r3, r7, r3
 353 00ac 1B88     		ldrh	r3, [r3]
 354 00ae 0122     		movs	r2, #1
 355 00b0 1340     		ands	r3, r2
 356 00b2 05D1     		bne	.L22
 372:..\..\..\..\..\..\Software\uCOS-III\Source/os_task.c ****         ((opt & OS_OPT_TASK_STK_CLR) != 0u)) {                  /* See if stack needs to be cleared
 357              		.loc 1 372 0 discriminator 1
 358 00b4 5423     		movs	r3, #84
 359 00b6 FB18     		adds	r3, r7, r3
 360 00b8 1B88     		ldrh	r3, [r3]
 361 00ba 0222     		movs	r2, #2
 362 00bc 1340     		ands	r3, r2
 371:..\..\..\..\..\..\Software\uCOS-III\Source/os_task.c ****         ((opt & OS_OPT_TASK_STK_CLR) != 0u)) {                  /* See if stack needs to be cleared
 363              		.loc 1 371 0 discriminator 1
 364 00be 17D0     		beq	.L23
 365              	.L22:
 373:..\..\..\..\..\..\Software\uCOS-III\Source/os_task.c ****         if ((opt & OS_OPT_TASK_STK_CLR) != 0u) {
 366              		.loc 1 373 0
 367 00c0 5423     		movs	r3, #84
ARM GAS  C:\Users\ADMINI~1\AppData\Local\Temp\ccvBRVNC.s 			page 14


 368 00c2 FB18     		adds	r3, r7, r3
 369 00c4 1B88     		ldrh	r3, [r3]
 370 00c6 0222     		movs	r2, #2
 371 00c8 1340     		ands	r3, r2
 372 00ca 11D0     		beq	.L23
 374:..\..\..\..\..\..\Software\uCOS-III\Source/os_task.c ****             p_sp = p_stk_base;
 373              		.loc 1 374 0
 374 00cc FB6B     		ldr	r3, [r7, #60]
 375 00ce FB61     		str	r3, [r7, #28]
 375:..\..\..\..\..\..\Software\uCOS-III\Source/os_task.c ****             for (i = 0u; i < stk_size; i++) {                   /* Stack grows from HIGH to LOW mem
 376              		.loc 1 375 0
 377 00d0 0023     		movs	r3, #0
 378 00d2 7B62     		str	r3, [r7, #36]
 379 00d4 08E0     		b	.L24
 380              	.L25:
 376:..\..\..\..\..\..\Software\uCOS-III\Source/os_task.c ****                *p_sp = 0u;                                      /* Clear from bottom of stack and u
 381              		.loc 1 376 0 discriminator 3
 382 00d6 FB69     		ldr	r3, [r7, #28]
 383 00d8 0022     		movs	r2, #0
 384 00da 1A60     		str	r2, [r3]
 377:..\..\..\..\..\..\Software\uCOS-III\Source/os_task.c ****                 p_sp++;
 385              		.loc 1 377 0 discriminator 3
 386 00dc FB69     		ldr	r3, [r7, #28]
 387 00de 0433     		adds	r3, r3, #4
 388 00e0 FB61     		str	r3, [r7, #28]
 375:..\..\..\..\..\..\Software\uCOS-III\Source/os_task.c ****             for (i = 0u; i < stk_size; i++) {                   /* Stack grows from HIGH to LOW mem
 389              		.loc 1 375 0 discriminator 3
 390 00e2 7B6A     		ldr	r3, [r7, #36]
 391 00e4 0133     		adds	r3, r3, #1
 392 00e6 7B62     		str	r3, [r7, #36]
 393              	.L24:
 375:..\..\..\..\..\..\Software\uCOS-III\Source/os_task.c ****             for (i = 0u; i < stk_size; i++) {                   /* Stack grows from HIGH to LOW mem
 394              		.loc 1 375 0 is_stmt 0 discriminator 1
 395 00e8 7A6A     		ldr	r2, [r7, #36]
 396 00ea 7B6C     		ldr	r3, [r7, #68]
 397 00ec 9A42     		cmp	r2, r3
 398 00ee F2D3     		bcc	.L25
 399              	.L23:
 378:..\..\..\..\..\..\Software\uCOS-III\Source/os_task.c ****             }
 379:..\..\..\..\..\..\Software\uCOS-III\Source/os_task.c ****         }
 380:..\..\..\..\..\..\Software\uCOS-III\Source/os_task.c ****     }
 381:..\..\..\..\..\..\Software\uCOS-III\Source/os_task.c ****                                                                 /* ------ INITIALIZE THE STACK FRAM
 382:..\..\..\..\..\..\Software\uCOS-III\Source/os_task.c **** #if (CPU_CFG_STK_GROWTH == CPU_STK_GROWTH_HI_TO_LO)
 383:..\..\..\..\..\..\Software\uCOS-III\Source/os_task.c ****     p_stk_limit = p_stk_base + stk_limit;
 400              		.loc 1 383 0 is_stmt 1
 401 00f0 3B6C     		ldr	r3, [r7, #64]
 402 00f2 9B00     		lsls	r3, r3, #2
 403 00f4 FA6B     		ldr	r2, [r7, #60]
 404 00f6 D318     		adds	r3, r2, r3
 405 00f8 7B61     		str	r3, [r7, #20]
 384:..\..\..\..\..\..\Software\uCOS-III\Source/os_task.c **** #else
 385:..\..\..\..\..\..\Software\uCOS-III\Source/os_task.c ****     p_stk_limit = p_stk_base + (stk_size - 1u) - stk_limit;
 386:..\..\..\..\..\..\Software\uCOS-III\Source/os_task.c **** #endif
 387:..\..\..\..\..\..\Software\uCOS-III\Source/os_task.c **** 
 388:..\..\..\..\..\..\Software\uCOS-III\Source/os_task.c ****     p_sp = OSTaskStkInit(p_task,
 406              		.loc 1 388 0
 407 00fa 7C69     		ldr	r4, [r7, #20]
ARM GAS  C:\Users\ADMINI~1\AppData\Local\Temp\ccvBRVNC.s 			page 15


 408 00fc FA6B     		ldr	r2, [r7, #60]
 409 00fe 3968     		ldr	r1, [r7]
 410 0100 7868     		ldr	r0, [r7, #4]
 411 0102 5423     		movs	r3, #84
 412 0104 FB18     		adds	r3, r7, r3
 413 0106 1B88     		ldrh	r3, [r3]
 414 0108 0193     		str	r3, [sp, #4]
 415 010a 7B6C     		ldr	r3, [r7, #68]
 416 010c 0093     		str	r3, [sp]
 417 010e 2300     		movs	r3, r4
 418 0110 FFF7FEFF 		bl	OSTaskStkInit
 419 0114 0300     		movs	r3, r0
 420 0116 FB61     		str	r3, [r7, #28]
 389:..\..\..\..\..\..\Software\uCOS-III\Source/os_task.c ****                          p_arg,
 390:..\..\..\..\..\..\Software\uCOS-III\Source/os_task.c ****                          p_stk_base,
 391:..\..\..\..\..\..\Software\uCOS-III\Source/os_task.c ****                          p_stk_limit,
 392:..\..\..\..\..\..\Software\uCOS-III\Source/os_task.c ****                          stk_size,
 393:..\..\..\..\..\..\Software\uCOS-III\Source/os_task.c ****                          opt);
 394:..\..\..\..\..\..\Software\uCOS-III\Source/os_task.c **** 
 395:..\..\..\..\..\..\Software\uCOS-III\Source/os_task.c **** #if (CPU_CFG_STK_GROWTH == CPU_STK_GROWTH_HI_TO_LO)             /* Check if we overflown the stack 
 396:..\..\..\..\..\..\Software\uCOS-III\Source/os_task.c ****     if (p_sp < p_stk_base) {
 421              		.loc 1 396 0
 422 0118 FA69     		ldr	r2, [r7, #28]
 423 011a FB6B     		ldr	r3, [r7, #60]
 424 011c 9A42     		cmp	r2, r3
 425 011e 03D2     		bcs	.L26
 397:..\..\..\..\..\..\Software\uCOS-III\Source/os_task.c ****        *p_err = OS_ERR_STAT_STK_SIZE_INVALID;
 426              		.loc 1 397 0
 427 0120 BB6D     		ldr	r3, [r7, #88]
 428 0122 4C4A     		ldr	r2, .L30+40
 429 0124 1A80     		strh	r2, [r3]
 398:..\..\..\..\..\..\Software\uCOS-III\Source/os_task.c ****         return;
 430              		.loc 1 398 0
 431 0126 7DE0     		b	.L12
 432              	.L26:
 399:..\..\..\..\..\..\Software\uCOS-III\Source/os_task.c ****     }
 400:..\..\..\..\..\..\Software\uCOS-III\Source/os_task.c **** #else
 401:..\..\..\..\..\..\Software\uCOS-III\Source/os_task.c ****     if (p_sp > p_stk_base + stk_size) {
 402:..\..\..\..\..\..\Software\uCOS-III\Source/os_task.c ****        *p_err = OS_ERR_STAT_STK_SIZE_INVALID;
 403:..\..\..\..\..\..\Software\uCOS-III\Source/os_task.c ****         return;
 404:..\..\..\..\..\..\Software\uCOS-III\Source/os_task.c ****     }
 405:..\..\..\..\..\..\Software\uCOS-III\Source/os_task.c **** #endif
 406:..\..\..\..\..\..\Software\uCOS-III\Source/os_task.c **** 
 407:..\..\..\..\..\..\Software\uCOS-III\Source/os_task.c **** #if (OS_CFG_TASK_STK_REDZONE_EN == DEF_ENABLED)                 /* Initialize Redzoned stack       
 408:..\..\..\..\..\..\Software\uCOS-III\Source/os_task.c ****     OS_TaskStkRedzoneInit(p_stk_base, stk_size);
 409:..\..\..\..\..\..\Software\uCOS-III\Source/os_task.c **** #endif
 410:..\..\..\..\..\..\Software\uCOS-III\Source/os_task.c **** 
 411:..\..\..\..\..\..\Software\uCOS-III\Source/os_task.c ****                                                                 /* ------------ INITIALIZE THE TCB 
 412:..\..\..\..\..\..\Software\uCOS-III\Source/os_task.c **** #if (OS_CFG_DBG_EN == DEF_ENABLED)
 413:..\..\..\..\..\..\Software\uCOS-III\Source/os_task.c ****     p_tcb->TaskEntryAddr = p_task;                              /* Save task entry point address   
 433              		.loc 1 413 0
 434 0128 FB68     		ldr	r3, [r7, #12]
 435 012a 7A68     		ldr	r2, [r7, #4]
 436 012c 9A62     		str	r2, [r3, #40]
 414:..\..\..\..\..\..\Software\uCOS-III\Source/os_task.c ****     p_tcb->TaskEntryArg  = p_arg;                               /* Save task entry argument        
 437              		.loc 1 414 0
 438 012e FB68     		ldr	r3, [r7, #12]
ARM GAS  C:\Users\ADMINI~1\AppData\Local\Temp\ccvBRVNC.s 			page 16


 439 0130 3A68     		ldr	r2, [r7]
 440 0132 DA62     		str	r2, [r3, #44]
 415:..\..\..\..\..\..\Software\uCOS-III\Source/os_task.c **** #endif
 416:..\..\..\..\..\..\Software\uCOS-III\Source/os_task.c **** 
 417:..\..\..\..\..\..\Software\uCOS-III\Source/os_task.c **** #if (OS_CFG_DBG_EN == DEF_ENABLED)
 418:..\..\..\..\..\..\Software\uCOS-III\Source/os_task.c ****     p_tcb->NamePtr       = p_name;                              /* Save task name                  
 441              		.loc 1 418 0
 442 0134 FB68     		ldr	r3, [r7, #12]
 443 0136 BA68     		ldr	r2, [r7, #8]
 444 0138 9A60     		str	r2, [r3, #8]
 419:..\..\..\..\..\..\Software\uCOS-III\Source/os_task.c **** #else
 420:..\..\..\..\..\..\Software\uCOS-III\Source/os_task.c ****     (void)&p_name;
 421:..\..\..\..\..\..\Software\uCOS-III\Source/os_task.c **** #endif
 422:..\..\..\..\..\..\Software\uCOS-III\Source/os_task.c **** 
 423:..\..\..\..\..\..\Software\uCOS-III\Source/os_task.c ****     p_tcb->Prio          = prio;                                /* Save the task's priority        
 445              		.loc 1 423 0
 446 013a FB68     		ldr	r3, [r7, #12]
 447 013c 3822     		movs	r2, #56
 448 013e BA18     		adds	r2, r7, r2
 449 0140 3721     		movs	r1, #55
 450 0142 1278     		ldrb	r2, [r2]
 451 0144 5A54     		strb	r2, [r3, r1]
 424:..\..\..\..\..\..\Software\uCOS-III\Source/os_task.c **** 
 425:..\..\..\..\..\..\Software\uCOS-III\Source/os_task.c **** #if (OS_CFG_MUTEX_EN == DEF_ENABLED)
 426:..\..\..\..\..\..\Software\uCOS-III\Source/os_task.c ****     p_tcb->BasePrio      = prio;                                /* Set the base priority           
 452              		.loc 1 426 0
 453 0146 FB68     		ldr	r3, [r7, #12]
 454 0148 3822     		movs	r2, #56
 455 014a BA18     		adds	r2, r7, r2
 456 014c 3821     		movs	r1, #56
 457 014e 1278     		ldrb	r2, [r2]
 458 0150 5A54     		strb	r2, [r3, r1]
 427:..\..\..\..\..\..\Software\uCOS-III\Source/os_task.c **** #endif
 428:..\..\..\..\..\..\Software\uCOS-III\Source/os_task.c **** 
 429:..\..\..\..\..\..\Software\uCOS-III\Source/os_task.c ****     p_tcb->StkPtr        = p_sp;                                /* Save the new top-of-stack pointe
 459              		.loc 1 429 0
 460 0152 FB68     		ldr	r3, [r7, #12]
 461 0154 FA69     		ldr	r2, [r7, #28]
 462 0156 1A60     		str	r2, [r3]
 430:..\..\..\..\..\..\Software\uCOS-III\Source/os_task.c **** #if ((OS_CFG_DBG_EN == DEF_ENABLED) || (OS_CFG_STAT_TASK_STK_CHK_EN == DEF_ENABLED))
 431:..\..\..\..\..\..\Software\uCOS-III\Source/os_task.c ****     p_tcb->StkLimitPtr   = p_stk_limit;                         /* Save the stack limit pointer    
 463              		.loc 1 431 0
 464 0158 FB68     		ldr	r3, [r7, #12]
 465 015a 7A69     		ldr	r2, [r7, #20]
 466 015c DA60     		str	r2, [r3, #12]
 432:..\..\..\..\..\..\Software\uCOS-III\Source/os_task.c **** #endif
 433:..\..\..\..\..\..\Software\uCOS-III\Source/os_task.c **** 
 434:..\..\..\..\..\..\Software\uCOS-III\Source/os_task.c **** #if (OS_CFG_SCHED_ROUND_ROBIN_EN == DEF_ENABLED)
 435:..\..\..\..\..\..\Software\uCOS-III\Source/os_task.c ****     p_tcb->TimeQuanta    = time_quanta;                         /* Save the #ticks for time slice (
 436:..\..\..\..\..\..\Software\uCOS-III\Source/os_task.c ****     if (time_quanta == 0u) {
 437:..\..\..\..\..\..\Software\uCOS-III\Source/os_task.c ****         p_tcb->TimeQuantaCtr = OSSchedRoundRobinDfltTimeQuanta;
 438:..\..\..\..\..\..\Software\uCOS-III\Source/os_task.c ****     } else {
 439:..\..\..\..\..\..\Software\uCOS-III\Source/os_task.c ****         p_tcb->TimeQuantaCtr = time_quanta;
 440:..\..\..\..\..\..\Software\uCOS-III\Source/os_task.c ****     }
 441:..\..\..\..\..\..\Software\uCOS-III\Source/os_task.c **** #else
 442:..\..\..\..\..\..\Software\uCOS-III\Source/os_task.c ****     (void)&time_quanta;
 443:..\..\..\..\..\..\Software\uCOS-III\Source/os_task.c **** #endif
ARM GAS  C:\Users\ADMINI~1\AppData\Local\Temp\ccvBRVNC.s 			page 17


 444:..\..\..\..\..\..\Software\uCOS-III\Source/os_task.c **** 
 445:..\..\..\..\..\..\Software\uCOS-III\Source/os_task.c ****     p_tcb->ExtPtr        = p_ext;                               /* Save pointer to TCB extension   
 467              		.loc 1 445 0
 468 015e FB68     		ldr	r3, [r7, #12]
 469 0160 3A6D     		ldr	r2, [r7, #80]
 470 0162 5A60     		str	r2, [r3, #4]
 446:..\..\..\..\..\..\Software\uCOS-III\Source/os_task.c **** #if ((OS_CFG_DBG_EN == DEF_ENABLED) || (OS_CFG_STAT_TASK_STK_CHK_EN == DEF_ENABLED) || (OS_CFG_TASK
 447:..\..\..\..\..\..\Software\uCOS-III\Source/os_task.c ****     p_tcb->StkBasePtr    = p_stk_base;                          /* Save pointer to the base address
 471              		.loc 1 447 0
 472 0164 FB68     		ldr	r3, [r7, #12]
 473 0166 FA6B     		ldr	r2, [r7, #60]
 474 0168 5A62     		str	r2, [r3, #36]
 448:..\..\..\..\..\..\Software\uCOS-III\Source/os_task.c ****     p_tcb->StkSize       = stk_size;                            /* Save the stack size (in number o
 475              		.loc 1 448 0
 476 016a FB68     		ldr	r3, [r7, #12]
 477 016c 7A6C     		ldr	r2, [r7, #68]
 478 016e 1A64     		str	r2, [r3, #64]
 449:..\..\..\..\..\..\Software\uCOS-III\Source/os_task.c **** #endif
 450:..\..\..\..\..\..\Software\uCOS-III\Source/os_task.c ****     p_tcb->Opt           = opt;                                 /* Save task options               
 479              		.loc 1 450 0
 480 0170 FB68     		ldr	r3, [r7, #12]
 481 0172 5422     		movs	r2, #84
 482 0174 BA18     		adds	r2, r7, r2
 483 0176 4421     		movs	r1, #68
 484 0178 1288     		ldrh	r2, [r2]
 485 017a 5A52     		strh	r2, [r3, r1]
 451:..\..\..\..\..\..\Software\uCOS-III\Source/os_task.c **** 
 452:..\..\..\..\..\..\Software\uCOS-III\Source/os_task.c **** #if (OS_CFG_TASK_REG_TBL_SIZE > 0u)
 453:..\..\..\..\..\..\Software\uCOS-III\Source/os_task.c ****     for (reg_nbr = 0u; reg_nbr < OS_CFG_TASK_REG_TBL_SIZE; reg_nbr++) {
 486              		.loc 1 453 0
 487 017c 2323     		movs	r3, #35
 488 017e FB18     		adds	r3, r7, r3
 489 0180 0022     		movs	r2, #0
 490 0182 1A70     		strb	r2, [r3]
 491 0184 0EE0     		b	.L27
 492              	.L28:
 454:..\..\..\..\..\..\Software\uCOS-III\Source/os_task.c ****         p_tcb->RegTbl[reg_nbr] = 0u;
 493              		.loc 1 454 0 discriminator 3
 494 0186 2323     		movs	r3, #35
 495 0188 FB18     		adds	r3, r7, r3
 496 018a 1A78     		ldrb	r2, [r3]
 497 018c FB68     		ldr	r3, [r7, #12]
 498 018e 1E32     		adds	r2, r2, #30
 499 0190 9200     		lsls	r2, r2, #2
 500 0192 0021     		movs	r1, #0
 501 0194 D150     		str	r1, [r2, r3]
 453:..\..\..\..\..\..\Software\uCOS-III\Source/os_task.c ****         p_tcb->RegTbl[reg_nbr] = 0u;
 502              		.loc 1 453 0 discriminator 3
 503 0196 2323     		movs	r3, #35
 504 0198 FB18     		adds	r3, r7, r3
 505 019a 1A78     		ldrb	r2, [r3]
 506 019c 2323     		movs	r3, #35
 507 019e FB18     		adds	r3, r7, r3
 508 01a0 0132     		adds	r2, r2, #1
 509 01a2 1A70     		strb	r2, [r3]
 510              	.L27:
 453:..\..\..\..\..\..\Software\uCOS-III\Source/os_task.c ****         p_tcb->RegTbl[reg_nbr] = 0u;
ARM GAS  C:\Users\ADMINI~1\AppData\Local\Temp\ccvBRVNC.s 			page 18


 511              		.loc 1 453 0 is_stmt 0 discriminator 1
 512 01a4 2323     		movs	r3, #35
 513 01a6 FB18     		adds	r3, r7, r3
 514 01a8 1B78     		ldrb	r3, [r3]
 515 01aa 002B     		cmp	r3, #0
 516 01ac EBD0     		beq	.L28
 455:..\..\..\..\..\..\Software\uCOS-III\Source/os_task.c ****     }
 456:..\..\..\..\..\..\Software\uCOS-III\Source/os_task.c **** #endif
 457:..\..\..\..\..\..\Software\uCOS-III\Source/os_task.c **** 
 458:..\..\..\..\..\..\Software\uCOS-III\Source/os_task.c **** #if (OS_CFG_TASK_Q_EN == DEF_ENABLED)
 459:..\..\..\..\..\..\Software\uCOS-III\Source/os_task.c ****     OS_MsgQInit(&p_tcb->MsgQ,                                   /* Initialize the task's message qu
 517              		.loc 1 459 0 is_stmt 1
 518 01ae FB68     		ldr	r3, [r7, #12]
 519 01b0 6033     		adds	r3, r3, #96
 520 01b2 1A00     		movs	r2, r3
 521 01b4 4823     		movs	r3, #72
 522 01b6 FB18     		adds	r3, r7, r3
 523 01b8 1B88     		ldrh	r3, [r3]
 524 01ba 1900     		movs	r1, r3
 525 01bc 1000     		movs	r0, r2
 526 01be FFF7FEFF 		bl	OS_MsgQInit
 460:..\..\..\..\..\..\Software\uCOS-III\Source/os_task.c ****                 q_size);
 461:..\..\..\..\..\..\Software\uCOS-III\Source/os_task.c **** #else
 462:..\..\..\..\..\..\Software\uCOS-III\Source/os_task.c ****     (void)&q_size;
 463:..\..\..\..\..\..\Software\uCOS-III\Source/os_task.c **** #endif
 464:..\..\..\..\..\..\Software\uCOS-III\Source/os_task.c **** 
 465:..\..\..\..\..\..\Software\uCOS-III\Source/os_task.c ****     OSTaskCreateHook(p_tcb);                                    /* Call user defined hook          
 527              		.loc 1 465 0
 528 01c2 FB68     		ldr	r3, [r7, #12]
 529 01c4 1800     		movs	r0, r3
 530 01c6 FFF7FEFF 		bl	OSTaskCreateHook
 466:..\..\..\..\..\..\Software\uCOS-III\Source/os_task.c **** 
 467:..\..\..\..\..\..\Software\uCOS-III\Source/os_task.c **** #if (defined(TRACE_CFG_EN) && (TRACE_CFG_EN == DEF_ENABLED))
 468:..\..\..\..\..\..\Software\uCOS-III\Source/os_task.c ****     TRACE_OS_TASK_CREATE(p_tcb);                                /* Record the event.               
 469:..\..\..\..\..\..\Software\uCOS-III\Source/os_task.c ****     TRACE_OS_TASK_SEM_CREATE(p_tcb, p_name);                    /* Record the event.               
 470:..\..\..\..\..\..\Software\uCOS-III\Source/os_task.c **** #if (OS_CFG_TASK_Q_EN == DEF_ENABLED)
 471:..\..\..\..\..\..\Software\uCOS-III\Source/os_task.c ****     TRACE_OS_TASK_MSG_Q_CREATE(&p_tcb->MsgQ, p_name);           /* Record the event.               
 472:..\..\..\..\..\..\Software\uCOS-III\Source/os_task.c **** #endif
 473:..\..\..\..\..\..\Software\uCOS-III\Source/os_task.c **** #endif
 474:..\..\..\..\..\..\Software\uCOS-III\Source/os_task.c **** 
 475:..\..\..\..\..\..\Software\uCOS-III\Source/os_task.c **** #if defined(OS_CFG_TLS_TBL_SIZE) && (OS_CFG_TLS_TBL_SIZE > 0u)
 476:..\..\..\..\..\..\Software\uCOS-III\Source/os_task.c ****     for (id = 0u; id < OS_CFG_TLS_TBL_SIZE; id++) {
 477:..\..\..\..\..\..\Software\uCOS-III\Source/os_task.c ****         p_tcb->TLS_Tbl[id] = 0u;
 478:..\..\..\..\..\..\Software\uCOS-III\Source/os_task.c ****     }
 479:..\..\..\..\..\..\Software\uCOS-III\Source/os_task.c ****     OS_TLS_TaskCreate(p_tcb);                                   /* Call TLS hook                   
 480:..\..\..\..\..\..\Software\uCOS-III\Source/os_task.c **** #endif
 481:..\..\..\..\..\..\Software\uCOS-III\Source/os_task.c ****                                                                 /* -------------- ADD TASK TO READY
 482:..\..\..\..\..\..\Software\uCOS-III\Source/os_task.c ****     OS_CRITICAL_ENTER();
 531              		.loc 1 482 0
 532 01ca FFF7FEFF 		bl	CPU_SR_Save
 533 01ce 0300     		movs	r3, r0
 534 01d0 BB61     		str	r3, [r7, #24]
 535 01d2 FFF7FEFF 		bl	CPU_IntDisMeasStart
 483:..\..\..\..\..\..\Software\uCOS-III\Source/os_task.c ****     OS_PrioInsert(p_tcb->Prio);
 536              		.loc 1 483 0
 537 01d6 FB68     		ldr	r3, [r7, #12]
 538 01d8 3722     		movs	r2, #55
ARM GAS  C:\Users\ADMINI~1\AppData\Local\Temp\ccvBRVNC.s 			page 19


 539 01da 9B5C     		ldrb	r3, [r3, r2]
 540 01dc 1800     		movs	r0, r3
 541 01de FFF7FEFF 		bl	OS_PrioInsert
 484:..\..\..\..\..\..\Software\uCOS-III\Source/os_task.c ****     OS_RdyListInsertTail(p_tcb);
 542              		.loc 1 484 0
 543 01e2 FB68     		ldr	r3, [r7, #12]
 544 01e4 1800     		movs	r0, r3
 545 01e6 FFF7FEFF 		bl	OS_RdyListInsertTail
 485:..\..\..\..\..\..\Software\uCOS-III\Source/os_task.c **** 
 486:..\..\..\..\..\..\Software\uCOS-III\Source/os_task.c **** #if (OS_CFG_DBG_EN == DEF_ENABLED)
 487:..\..\..\..\..\..\Software\uCOS-III\Source/os_task.c ****     OS_TaskDbgListAdd(p_tcb);
 546              		.loc 1 487 0
 547 01ea FB68     		ldr	r3, [r7, #12]
 548 01ec 1800     		movs	r0, r3
 549 01ee FFF7FEFF 		bl	OS_TaskDbgListAdd
 488:..\..\..\..\..\..\Software\uCOS-III\Source/os_task.c **** #endif
 489:..\..\..\..\..\..\Software\uCOS-III\Source/os_task.c **** 
 490:..\..\..\..\..\..\Software\uCOS-III\Source/os_task.c ****     OSTaskQty++;                                                /* Increment the #tasks counter    
 550              		.loc 1 490 0
 551 01f2 194B     		ldr	r3, .L30+44
 552 01f4 1B88     		ldrh	r3, [r3]
 553 01f6 0133     		adds	r3, r3, #1
 554 01f8 9AB2     		uxth	r2, r3
 555 01fa 174B     		ldr	r3, .L30+44
 556 01fc 1A80     		strh	r2, [r3]
 491:..\..\..\..\..\..\Software\uCOS-III\Source/os_task.c **** 
 492:..\..\..\..\..\..\Software\uCOS-III\Source/os_task.c ****     if (OSRunning != OS_STATE_OS_RUNNING) {                     /* Return if multitasking has not s
 557              		.loc 1 492 0
 558 01fe 174B     		ldr	r3, .L30+48
 559 0200 1B78     		ldrb	r3, [r3]
 560 0202 012B     		cmp	r3, #1
 561 0204 06D0     		beq	.L29
 493:..\..\..\..\..\..\Software\uCOS-III\Source/os_task.c ****         OS_CRITICAL_EXIT();
 562              		.loc 1 493 0
 563 0206 FFF7FEFF 		bl	CPU_IntDisMeasStop
 564 020a BB69     		ldr	r3, [r7, #24]
 565 020c 1800     		movs	r0, r3
 566 020e FFF7FEFF 		bl	CPU_SR_Restore
 494:..\..\..\..\..\..\Software\uCOS-III\Source/os_task.c ****         return;
 567              		.loc 1 494 0
 568 0212 07E0     		b	.L12
 569              	.L29:
 495:..\..\..\..\..\..\Software\uCOS-III\Source/os_task.c ****     }
 496:..\..\..\..\..\..\Software\uCOS-III\Source/os_task.c **** 
 497:..\..\..\..\..\..\Software\uCOS-III\Source/os_task.c ****     OS_CRITICAL_EXIT_NO_SCHED();
 570              		.loc 1 497 0
 571 0214 FFF7FEFF 		bl	CPU_IntDisMeasStop
 572 0218 BB69     		ldr	r3, [r7, #24]
 573 021a 1800     		movs	r0, r3
 574 021c FFF7FEFF 		bl	CPU_SR_Restore
 498:..\..\..\..\..\..\Software\uCOS-III\Source/os_task.c **** 
 499:..\..\..\..\..\..\Software\uCOS-III\Source/os_task.c ****     OSSched();
 575              		.loc 1 499 0
 576 0220 FFF7FEFF 		bl	OSSched
 577              	.L12:
 500:..\..\..\..\..\..\Software\uCOS-III\Source/os_task.c **** }
 578              		.loc 1 500 0
ARM GAS  C:\Users\ADMINI~1\AppData\Local\Temp\ccvBRVNC.s 			page 20


 579 0224 BD46     		mov	sp, r7
 580 0226 0BB0     		add	sp, sp, #44
 581              		@ sp needed
 582 0228 90BD     		pop	{r4, r7, pc}
 583              	.L31:
 584 022a C046     		.align	2
 585              	.L30:
 586 022c 00000000 		.word	OSIntNestingCtr
 587 0230 4A710000 		.word	29002
 588 0234 AD710000 		.word	29101
 589 0238 4F710000 		.word	29007
 590 023c 2F6E0000 		.word	28207
 591 0240 00000000 		.word	OSCfg_StkSizeMin
 592 0244 306E0000 		.word	28208
 593 0248 316E0000 		.word	28209
 594 024c 73620000 		.word	25203
 595 0250 00000000 		.word	OSIdleTaskTCB
 596 0254 2C6E0000 		.word	28204
 597 0258 00000000 		.word	OSTaskQty
 598 025c 00000000 		.word	OSRunning
 599              		.cfi_endproc
 600              	.LFE1:
 601              		.size	OSTaskCreate, .-OSTaskCreate
 602              		.section	.text.OSTaskQFlush,"ax",%progbits
 603              		.align	2
 604              		.global	OSTaskQFlush
 605              		.code	16
 606              		.thumb_func
 607              		.type	OSTaskQFlush, %function
 608              	OSTaskQFlush:
 609              	.LFB2:
 501:..\..\..\..\..\..\Software\uCOS-III\Source/os_task.c **** 
 502:..\..\..\..\..\..\Software\uCOS-III\Source/os_task.c **** 
 503:..\..\..\..\..\..\Software\uCOS-III\Source/os_task.c **** /*
 504:..\..\..\..\..\..\Software\uCOS-III\Source/os_task.c **** ***************************************************************************************************
 505:..\..\..\..\..\..\Software\uCOS-III\Source/os_task.c **** *                                                     DELETE A TASK
 506:..\..\..\..\..\..\Software\uCOS-III\Source/os_task.c **** *
 507:..\..\..\..\..\..\Software\uCOS-III\Source/os_task.c **** * Description: This function allows you to delete a task.  The calling task can delete itself by sp
 508:..\..\..\..\..\..\Software\uCOS-III\Source/os_task.c **** *              pointer for 'p_tcb'.  The deleted task is returned to the dormant state and can be r
 509:..\..\..\..\..\..\Software\uCOS-III\Source/os_task.c **** *              creating the deleted task again.
 510:..\..\..\..\..\..\Software\uCOS-III\Source/os_task.c **** *
 511:..\..\..\..\..\..\Software\uCOS-III\Source/os_task.c **** * Arguments  : p_tcb      is the TCB of the tack to delete
 512:..\..\..\..\..\..\Software\uCOS-III\Source/os_task.c **** *
 513:..\..\..\..\..\..\Software\uCOS-III\Source/os_task.c **** *              p_err      is a pointer to an error code returned by this function:
 514:..\..\..\..\..\..\Software\uCOS-III\Source/os_task.c **** *
 515:..\..\..\..\..\..\Software\uCOS-III\Source/os_task.c **** *                             OS_ERR_NONE                    If the call is successful
 516:..\..\..\..\..\..\Software\uCOS-III\Source/os_task.c **** *                             OS_ERR_ILLEGAL_DEL_RUN_TIME    If you are trying to delete the task a
 517:..\..\..\..\..\..\Software\uCOS-III\Source/os_task.c **** *                                                              OSStart()
 518:..\..\..\..\..\..\Software\uCOS-III\Source/os_task.c **** *                             OS_ERR_OS_NOT_RUNNING          If uC/OS-III is not running yet
 519:..\..\..\..\..\..\Software\uCOS-III\Source/os_task.c **** *                             OS_ERR_STATE_INVALID           If the state of the task is invalid
 520:..\..\..\..\..\..\Software\uCOS-III\Source/os_task.c **** *                             OS_ERR_TASK_DEL_IDLE           If you attempted to delete uC/OS-III's
 521:..\..\..\..\..\..\Software\uCOS-III\Source/os_task.c **** *                             OS_ERR_TASK_DEL_INVALID        If you attempted to delete uC/OS-III's
 522:..\..\..\..\..\..\Software\uCOS-III\Source/os_task.c **** *                             OS_ERR_TASK_DEL_ISR            If you tried to delete a task from an 
 523:..\..\..\..\..\..\Software\uCOS-III\Source/os_task.c **** *
 524:..\..\..\..\..\..\Software\uCOS-III\Source/os_task.c **** * Returns    : none
 525:..\..\..\..\..\..\Software\uCOS-III\Source/os_task.c **** *
 526:..\..\..\..\..\..\Software\uCOS-III\Source/os_task.c **** * Note(s)    : 1) 'p_err' gets set to OS_ERR_NONE before OSSched() to allow the returned err or cod
ARM GAS  C:\Users\ADMINI~1\AppData\Local\Temp\ccvBRVNC.s 			page 21


 527:..\..\..\..\..\..\Software\uCOS-III\Source/os_task.c **** *                 for a task that is deleting itself. In this case, 'p_err' MUST point to a global 
 528:..\..\..\..\..\..\Software\uCOS-III\Source/os_task.c **** *                 accessed by another task.
 529:..\..\..\..\..\..\Software\uCOS-III\Source/os_task.c **** ***************************************************************************************************
 530:..\..\..\..\..\..\Software\uCOS-III\Source/os_task.c **** */
 531:..\..\..\..\..\..\Software\uCOS-III\Source/os_task.c **** 
 532:..\..\..\..\..\..\Software\uCOS-III\Source/os_task.c **** #if (OS_CFG_TASK_DEL_EN == DEF_ENABLED)
 533:..\..\..\..\..\..\Software\uCOS-III\Source/os_task.c **** void  OSTaskDel (OS_TCB  *p_tcb,
 534:..\..\..\..\..\..\Software\uCOS-III\Source/os_task.c ****                  OS_ERR  *p_err)
 535:..\..\..\..\..\..\Software\uCOS-III\Source/os_task.c **** {
 536:..\..\..\..\..\..\Software\uCOS-III\Source/os_task.c **** #if (OS_CFG_MUTEX_EN == DEF_ENABLED)
 537:..\..\..\..\..\..\Software\uCOS-III\Source/os_task.c ****     OS_TCB  *p_tcb_owner;
 538:..\..\..\..\..\..\Software\uCOS-III\Source/os_task.c ****     OS_PRIO  prio_new;
 539:..\..\..\..\..\..\Software\uCOS-III\Source/os_task.c **** #endif
 540:..\..\..\..\..\..\Software\uCOS-III\Source/os_task.c ****     CPU_SR_ALLOC();
 541:..\..\..\..\..\..\Software\uCOS-III\Source/os_task.c **** 
 542:..\..\..\..\..\..\Software\uCOS-III\Source/os_task.c **** 
 543:..\..\..\..\..\..\Software\uCOS-III\Source/os_task.c **** 
 544:..\..\..\..\..\..\Software\uCOS-III\Source/os_task.c **** #ifdef OS_SAFETY_CRITICAL
 545:..\..\..\..\..\..\Software\uCOS-III\Source/os_task.c ****     if (p_err == DEF_NULL) {
 546:..\..\..\..\..\..\Software\uCOS-III\Source/os_task.c ****         OS_SAFETY_CRITICAL_EXCEPTION();
 547:..\..\..\..\..\..\Software\uCOS-III\Source/os_task.c ****         return;
 548:..\..\..\..\..\..\Software\uCOS-III\Source/os_task.c ****     }
 549:..\..\..\..\..\..\Software\uCOS-III\Source/os_task.c **** #endif
 550:..\..\..\..\..\..\Software\uCOS-III\Source/os_task.c **** 
 551:..\..\..\..\..\..\Software\uCOS-III\Source/os_task.c **** #ifdef OS_SAFETY_CRITICAL_IEC61508
 552:..\..\..\..\..\..\Software\uCOS-III\Source/os_task.c ****     if (OSSafetyCriticalStartFlag == DEF_TRUE) {
 553:..\..\..\..\..\..\Software\uCOS-III\Source/os_task.c ****        *p_err = OS_ERR_ILLEGAL_DEL_RUN_TIME;
 554:..\..\..\..\..\..\Software\uCOS-III\Source/os_task.c ****         return;
 555:..\..\..\..\..\..\Software\uCOS-III\Source/os_task.c ****     }
 556:..\..\..\..\..\..\Software\uCOS-III\Source/os_task.c **** #endif
 557:..\..\..\..\..\..\Software\uCOS-III\Source/os_task.c **** 
 558:..\..\..\..\..\..\Software\uCOS-III\Source/os_task.c **** #if (OS_CFG_CALLED_FROM_ISR_CHK_EN == DEF_ENABLED)
 559:..\..\..\..\..\..\Software\uCOS-III\Source/os_task.c ****     if (OSIntNestingCtr > 0u) {                                 /* See if trying to delete from ISR
 560:..\..\..\..\..\..\Software\uCOS-III\Source/os_task.c ****        *p_err = OS_ERR_TASK_DEL_ISR;
 561:..\..\..\..\..\..\Software\uCOS-III\Source/os_task.c ****         return;
 562:..\..\..\..\..\..\Software\uCOS-III\Source/os_task.c ****     }
 563:..\..\..\..\..\..\Software\uCOS-III\Source/os_task.c **** #endif
 564:..\..\..\..\..\..\Software\uCOS-III\Source/os_task.c **** 
 565:..\..\..\..\..\..\Software\uCOS-III\Source/os_task.c **** #if (OS_CFG_INVALID_OS_CALLS_CHK_EN == DEF_ENABLED)             /* Is the kernel running?          
 566:..\..\..\..\..\..\Software\uCOS-III\Source/os_task.c ****     if (OSRunning != OS_STATE_OS_RUNNING) {
 567:..\..\..\..\..\..\Software\uCOS-III\Source/os_task.c ****        *p_err = OS_ERR_OS_NOT_RUNNING;
 568:..\..\..\..\..\..\Software\uCOS-III\Source/os_task.c ****         return;
 569:..\..\..\..\..\..\Software\uCOS-III\Source/os_task.c ****     }
 570:..\..\..\..\..\..\Software\uCOS-III\Source/os_task.c **** #endif
 571:..\..\..\..\..\..\Software\uCOS-III\Source/os_task.c **** 
 572:..\..\..\..\..\..\Software\uCOS-III\Source/os_task.c **** #if (OS_CFG_TASK_IDLE_EN == DEF_ENABLED)
 573:..\..\..\..\..\..\Software\uCOS-III\Source/os_task.c ****     if (p_tcb == &OSIdleTaskTCB) {                              /* Not allowed to delete the idle t
 574:..\..\..\..\..\..\Software\uCOS-III\Source/os_task.c ****        *p_err = OS_ERR_TASK_DEL_IDLE;
 575:..\..\..\..\..\..\Software\uCOS-III\Source/os_task.c ****         return;
 576:..\..\..\..\..\..\Software\uCOS-III\Source/os_task.c ****     }
 577:..\..\..\..\..\..\Software\uCOS-III\Source/os_task.c **** #endif
 578:..\..\..\..\..\..\Software\uCOS-III\Source/os_task.c **** 
 579:..\..\..\..\..\..\Software\uCOS-III\Source/os_task.c **** #if (OS_CFG_ISR_POST_DEFERRED_EN == DEF_ENABLED)
 580:..\..\..\..\..\..\Software\uCOS-III\Source/os_task.c ****     if (p_tcb == &OSIntQTaskTCB) {                              /* Cannot delete the ISR handler ta
 581:..\..\..\..\..\..\Software\uCOS-III\Source/os_task.c ****        *p_err = OS_ERR_TASK_DEL_INVALID;
 582:..\..\..\..\..\..\Software\uCOS-III\Source/os_task.c ****         return;
 583:..\..\..\..\..\..\Software\uCOS-III\Source/os_task.c ****     }
ARM GAS  C:\Users\ADMINI~1\AppData\Local\Temp\ccvBRVNC.s 			page 22


 584:..\..\..\..\..\..\Software\uCOS-III\Source/os_task.c **** #endif
 585:..\..\..\..\..\..\Software\uCOS-III\Source/os_task.c **** 
 586:..\..\..\..\..\..\Software\uCOS-III\Source/os_task.c ****     if (p_tcb == DEF_NULL) {                                    /* Delete 'Self'?                  
 587:..\..\..\..\..\..\Software\uCOS-III\Source/os_task.c ****         CPU_CRITICAL_ENTER();
 588:..\..\..\..\..\..\Software\uCOS-III\Source/os_task.c ****         p_tcb  = OSTCBCurPtr;                                   /* Yes.                            
 589:..\..\..\..\..\..\Software\uCOS-III\Source/os_task.c ****         CPU_CRITICAL_EXIT();
 590:..\..\..\..\..\..\Software\uCOS-III\Source/os_task.c ****     }
 591:..\..\..\..\..\..\Software\uCOS-III\Source/os_task.c **** 
 592:..\..\..\..\..\..\Software\uCOS-III\Source/os_task.c ****     OS_CRITICAL_ENTER();
 593:..\..\..\..\..\..\Software\uCOS-III\Source/os_task.c ****     switch (p_tcb->TaskState) {
 594:..\..\..\..\..\..\Software\uCOS-III\Source/os_task.c ****         case OS_TASK_STATE_RDY:
 595:..\..\..\..\..\..\Software\uCOS-III\Source/os_task.c ****              OS_RdyListRemove(p_tcb);
 596:..\..\..\..\..\..\Software\uCOS-III\Source/os_task.c ****              break;
 597:..\..\..\..\..\..\Software\uCOS-III\Source/os_task.c **** 
 598:..\..\..\..\..\..\Software\uCOS-III\Source/os_task.c ****         case OS_TASK_STATE_SUSPENDED:
 599:..\..\..\..\..\..\Software\uCOS-III\Source/os_task.c ****              break;
 600:..\..\..\..\..\..\Software\uCOS-III\Source/os_task.c **** 
 601:..\..\..\..\..\..\Software\uCOS-III\Source/os_task.c ****         case OS_TASK_STATE_DLY:                                 /* Task is only delayed, not on any
 602:..\..\..\..\..\..\Software\uCOS-III\Source/os_task.c ****         case OS_TASK_STATE_DLY_SUSPENDED:
 603:..\..\..\..\..\..\Software\uCOS-III\Source/os_task.c **** #if (OS_CFG_TASK_TICK_EN == DEF_ENABLED)
 604:..\..\..\..\..\..\Software\uCOS-III\Source/os_task.c ****              OS_TickListRemove(p_tcb);
 605:..\..\..\..\..\..\Software\uCOS-III\Source/os_task.c **** #endif
 606:..\..\..\..\..\..\Software\uCOS-III\Source/os_task.c ****              break;
 607:..\..\..\..\..\..\Software\uCOS-III\Source/os_task.c **** 
 608:..\..\..\..\..\..\Software\uCOS-III\Source/os_task.c ****         case OS_TASK_STATE_PEND:
 609:..\..\..\..\..\..\Software\uCOS-III\Source/os_task.c ****         case OS_TASK_STATE_PEND_SUSPENDED:
 610:..\..\..\..\..\..\Software\uCOS-III\Source/os_task.c ****         case OS_TASK_STATE_PEND_TIMEOUT:
 611:..\..\..\..\..\..\Software\uCOS-III\Source/os_task.c ****         case OS_TASK_STATE_PEND_TIMEOUT_SUSPENDED:
 612:..\..\..\..\..\..\Software\uCOS-III\Source/os_task.c ****              switch (p_tcb->PendOn) {                           /* See what we are pending on      
 613:..\..\..\..\..\..\Software\uCOS-III\Source/os_task.c ****                  case OS_TASK_PEND_ON_NOTHING:
 614:..\..\..\..\..\..\Software\uCOS-III\Source/os_task.c ****                  case OS_TASK_PEND_ON_TASK_Q:                   /* There is no wait list for these 
 615:..\..\..\..\..\..\Software\uCOS-III\Source/os_task.c ****                  case OS_TASK_PEND_ON_TASK_SEM:
 616:..\..\..\..\..\..\Software\uCOS-III\Source/os_task.c ****                       break;
 617:..\..\..\..\..\..\Software\uCOS-III\Source/os_task.c **** 
 618:..\..\..\..\..\..\Software\uCOS-III\Source/os_task.c ****                  case OS_TASK_PEND_ON_FLAG:                     /* Remove from wait list           
 619:..\..\..\..\..\..\Software\uCOS-III\Source/os_task.c **** #if (OS_CFG_PEND_MULTI_EN == DEF_ENABLED)
 620:..\..\..\..\..\..\Software\uCOS-III\Source/os_task.c ****                  case OS_TASK_PEND_ON_MULTI:
 621:..\..\..\..\..\..\Software\uCOS-III\Source/os_task.c **** #endif
 622:..\..\..\..\..\..\Software\uCOS-III\Source/os_task.c ****                  case OS_TASK_PEND_ON_Q:
 623:..\..\..\..\..\..\Software\uCOS-III\Source/os_task.c ****                  case OS_TASK_PEND_ON_SEM:
 624:..\..\..\..\..\..\Software\uCOS-III\Source/os_task.c ****                       OS_PendListRemove(p_tcb);
 625:..\..\..\..\..\..\Software\uCOS-III\Source/os_task.c ****                       break;
 626:..\..\..\..\..\..\Software\uCOS-III\Source/os_task.c **** 
 627:..\..\..\..\..\..\Software\uCOS-III\Source/os_task.c **** #if (OS_CFG_MUTEX_EN == DEF_ENABLED)
 628:..\..\..\..\..\..\Software\uCOS-III\Source/os_task.c ****                  case OS_TASK_PEND_ON_MUTEX:
 629:..\..\..\..\..\..\Software\uCOS-III\Source/os_task.c ****                       p_tcb_owner = ((OS_MUTEX *)p_tcb->PendDataTblPtr->PendObjPtr)->OwnerTCBPtr;
 630:..\..\..\..\..\..\Software\uCOS-III\Source/os_task.c ****                       prio_new = p_tcb_owner->Prio;
 631:..\..\..\..\..\..\Software\uCOS-III\Source/os_task.c ****                       OS_PendListRemove(p_tcb);
 632:..\..\..\..\..\..\Software\uCOS-III\Source/os_task.c ****                       if ((p_tcb_owner->Prio != p_tcb_owner->BasePrio) &&
 633:..\..\..\..\..\..\Software\uCOS-III\Source/os_task.c ****                           (p_tcb_owner->Prio == p_tcb->Prio)) { /* Has the owner inherited a priori
 634:..\..\..\..\..\..\Software\uCOS-III\Source/os_task.c ****                           prio_new = OS_MutexGrpPrioFindHighest(p_tcb_owner);
 635:..\..\..\..\..\..\Software\uCOS-III\Source/os_task.c ****                           prio_new = prio_new > p_tcb_owner->BasePrio ? p_tcb_owner->BasePrio : pri
 636:..\..\..\..\..\..\Software\uCOS-III\Source/os_task.c ****                       }
 637:..\..\..\..\..\..\Software\uCOS-III\Source/os_task.c ****                       p_tcb->PendOn = OS_TASK_PEND_ON_NOTHING;
 638:..\..\..\..\..\..\Software\uCOS-III\Source/os_task.c **** 
 639:..\..\..\..\..\..\Software\uCOS-III\Source/os_task.c ****                       if (prio_new != p_tcb_owner->Prio) {
 640:..\..\..\..\..\..\Software\uCOS-III\Source/os_task.c ****                           OS_TaskChangePrio(p_tcb_owner, prio_new);
ARM GAS  C:\Users\ADMINI~1\AppData\Local\Temp\ccvBRVNC.s 			page 23


 641:..\..\..\..\..\..\Software\uCOS-III\Source/os_task.c **** #if (defined(TRACE_CFG_EN) && (TRACE_CFG_EN == DEF_ENABLED))
 642:..\..\..\..\..\..\Software\uCOS-III\Source/os_task.c ****                           TRACE_OS_MUTEX_TASK_PRIO_DISINHERIT(p_tcb_owner, p_tcb_owner->Prio);
 643:..\..\..\..\..\..\Software\uCOS-III\Source/os_task.c **** #endif
 644:..\..\..\..\..\..\Software\uCOS-III\Source/os_task.c ****                       }
 645:..\..\..\..\..\..\Software\uCOS-III\Source/os_task.c ****                       break;
 646:..\..\..\..\..\..\Software\uCOS-III\Source/os_task.c **** #endif
 647:..\..\..\..\..\..\Software\uCOS-III\Source/os_task.c **** 
 648:..\..\..\..\..\..\Software\uCOS-III\Source/os_task.c ****                  default:
 649:..\..\..\..\..\..\Software\uCOS-III\Source/os_task.c ****                       break;
 650:..\..\..\..\..\..\Software\uCOS-III\Source/os_task.c ****              }
 651:..\..\..\..\..\..\Software\uCOS-III\Source/os_task.c **** #if (OS_CFG_TASK_TICK_EN == DEF_ENABLED)
 652:..\..\..\..\..\..\Software\uCOS-III\Source/os_task.c ****              if ((p_tcb->TaskState == OS_TASK_STATE_PEND_TIMEOUT) ||
 653:..\..\..\..\..\..\Software\uCOS-III\Source/os_task.c ****                  (p_tcb->TaskState == OS_TASK_STATE_PEND_TIMEOUT_SUSPENDED)) {
 654:..\..\..\..\..\..\Software\uCOS-III\Source/os_task.c ****                  OS_TickListRemove(p_tcb);
 655:..\..\..\..\..\..\Software\uCOS-III\Source/os_task.c ****              }
 656:..\..\..\..\..\..\Software\uCOS-III\Source/os_task.c **** #endif
 657:..\..\..\..\..\..\Software\uCOS-III\Source/os_task.c ****              break;
 658:..\..\..\..\..\..\Software\uCOS-III\Source/os_task.c **** 
 659:..\..\..\..\..\..\Software\uCOS-III\Source/os_task.c ****         default:
 660:..\..\..\..\..\..\Software\uCOS-III\Source/os_task.c ****             OS_CRITICAL_EXIT();
 661:..\..\..\..\..\..\Software\uCOS-III\Source/os_task.c ****            *p_err = OS_ERR_STATE_INVALID;
 662:..\..\..\..\..\..\Software\uCOS-III\Source/os_task.c ****             return;
 663:..\..\..\..\..\..\Software\uCOS-III\Source/os_task.c ****     }
 664:..\..\..\..\..\..\Software\uCOS-III\Source/os_task.c **** 
 665:..\..\..\..\..\..\Software\uCOS-III\Source/os_task.c **** #if (OS_CFG_MUTEX_EN == DEF_ENABLED)
 666:..\..\..\..\..\..\Software\uCOS-III\Source/os_task.c ****     if(p_tcb->MutexGrpHeadPtr != DEF_NULL) {
 667:..\..\..\..\..\..\Software\uCOS-III\Source/os_task.c ****         OS_MutexGrpPostAll(p_tcb);
 668:..\..\..\..\..\..\Software\uCOS-III\Source/os_task.c ****     }
 669:..\..\..\..\..\..\Software\uCOS-III\Source/os_task.c **** #endif
 670:..\..\..\..\..\..\Software\uCOS-III\Source/os_task.c **** 
 671:..\..\..\..\..\..\Software\uCOS-III\Source/os_task.c **** #if (OS_CFG_TASK_Q_EN == DEF_ENABLED)
 672:..\..\..\..\..\..\Software\uCOS-III\Source/os_task.c ****     (void)OS_MsgQFreeAll(&p_tcb->MsgQ);                         /* Free task's message queue messag
 673:..\..\..\..\..\..\Software\uCOS-III\Source/os_task.c **** #endif
 674:..\..\..\..\..\..\Software\uCOS-III\Source/os_task.c **** 
 675:..\..\..\..\..\..\Software\uCOS-III\Source/os_task.c ****     OSTaskDelHook(p_tcb);                                       /* Call user defined hook          
 676:..\..\..\..\..\..\Software\uCOS-III\Source/os_task.c **** 
 677:..\..\..\..\..\..\Software\uCOS-III\Source/os_task.c **** #if defined(OS_CFG_TLS_TBL_SIZE) && (OS_CFG_TLS_TBL_SIZE > 0u)
 678:..\..\..\..\..\..\Software\uCOS-III\Source/os_task.c ****     OS_TLS_TaskDel(p_tcb);                                      /* Call TLS hook                   
 679:..\..\..\..\..\..\Software\uCOS-III\Source/os_task.c **** #endif
 680:..\..\..\..\..\..\Software\uCOS-III\Source/os_task.c **** 
 681:..\..\..\..\..\..\Software\uCOS-III\Source/os_task.c **** #if (OS_CFG_DBG_EN == DEF_ENABLED)
 682:..\..\..\..\..\..\Software\uCOS-III\Source/os_task.c ****     OS_TaskDbgListRemove(p_tcb);
 683:..\..\..\..\..\..\Software\uCOS-III\Source/os_task.c **** #endif
 684:..\..\..\..\..\..\Software\uCOS-III\Source/os_task.c **** 
 685:..\..\..\..\..\..\Software\uCOS-III\Source/os_task.c ****     OSTaskQty--;                                                /* One less task being managed     
 686:..\..\..\..\..\..\Software\uCOS-III\Source/os_task.c **** 
 687:..\..\..\..\..\..\Software\uCOS-III\Source/os_task.c **** #if (defined(TRACE_CFG_EN) && (TRACE_CFG_EN == DEF_ENABLED))
 688:..\..\..\..\..\..\Software\uCOS-III\Source/os_task.c ****     TRACE_OS_TASK_DEL(p_tcb);                                   /* Record the event.               
 689:..\..\..\..\..\..\Software\uCOS-III\Source/os_task.c **** #endif
 690:..\..\..\..\..\..\Software\uCOS-III\Source/os_task.c **** #if (OS_CFG_TASK_STK_REDZONE_EN != DEF_ENABLED)                 /* Don't clear the TCB before check
 691:..\..\..\..\..\..\Software\uCOS-III\Source/os_task.c ****     OS_TaskInitTCB(p_tcb);                                      /* Initialize the TCB to default va
 692:..\..\..\..\..\..\Software\uCOS-III\Source/os_task.c **** #endif
 693:..\..\..\..\..\..\Software\uCOS-III\Source/os_task.c ****     p_tcb->TaskState = (OS_STATE)OS_TASK_STATE_DEL;             /* Indicate that the task was delet
 694:..\..\..\..\..\..\Software\uCOS-III\Source/os_task.c **** 
 695:..\..\..\..\..\..\Software\uCOS-III\Source/os_task.c ****     OS_CRITICAL_EXIT_NO_SCHED();
 696:..\..\..\..\..\..\Software\uCOS-III\Source/os_task.c **** 
 697:..\..\..\..\..\..\Software\uCOS-III\Source/os_task.c ****    *p_err = OS_ERR_NONE;                                        /* See Note #1.                    
ARM GAS  C:\Users\ADMINI~1\AppData\Local\Temp\ccvBRVNC.s 			page 24


 698:..\..\..\..\..\..\Software\uCOS-III\Source/os_task.c **** 
 699:..\..\..\..\..\..\Software\uCOS-III\Source/os_task.c ****     OSSched();                                                  /* Find new highest priority task  
 700:..\..\..\..\..\..\Software\uCOS-III\Source/os_task.c **** }
 701:..\..\..\..\..\..\Software\uCOS-III\Source/os_task.c **** #endif
 702:..\..\..\..\..\..\Software\uCOS-III\Source/os_task.c **** 
 703:..\..\..\..\..\..\Software\uCOS-III\Source/os_task.c **** 
 704:..\..\..\..\..\..\Software\uCOS-III\Source/os_task.c **** /*
 705:..\..\..\..\..\..\Software\uCOS-III\Source/os_task.c **** ***************************************************************************************************
 706:..\..\..\..\..\..\Software\uCOS-III\Source/os_task.c **** *                                                    FLUSH TASK's QUEUE
 707:..\..\..\..\..\..\Software\uCOS-III\Source/os_task.c **** *
 708:..\..\..\..\..\..\Software\uCOS-III\Source/os_task.c **** * Description: This function is used to flush the task's internal message queue.
 709:..\..\..\..\..\..\Software\uCOS-III\Source/os_task.c **** *
 710:..\..\..\..\..\..\Software\uCOS-III\Source/os_task.c **** * Arguments  : p_tcb       is a pointer to the task's OS_TCB.  Specifying a NULL pointer indicates 
 711:..\..\..\..\..\..\Software\uCOS-III\Source/os_task.c **** *                          flush the message queue of the calling task.
 712:..\..\..\..\..\..\Software\uCOS-III\Source/os_task.c **** *
 713:..\..\..\..\..\..\Software\uCOS-III\Source/os_task.c **** *              p_err       is a pointer to a variable that will contain an error code returned by t
 714:..\..\..\..\..\..\Software\uCOS-III\Source/os_task.c **** *
 715:..\..\..\..\..\..\Software\uCOS-III\Source/os_task.c **** *                              OS_ERR_NONE              Upon success
 716:..\..\..\..\..\..\Software\uCOS-III\Source/os_task.c **** *                              OS_ERR_FLUSH_ISR         If you called this function from an ISR
 717:..\..\..\..\..\..\Software\uCOS-III\Source/os_task.c **** *                              OS_ERR_OS_NOT_RUNNING    If uC/OS-III is not running yet
 718:..\..\..\..\..\..\Software\uCOS-III\Source/os_task.c **** *
 719:..\..\..\..\..\..\Software\uCOS-III\Source/os_task.c **** * Returns     : The number of entries freed from the queue
 720:..\..\..\..\..\..\Software\uCOS-III\Source/os_task.c **** *
 721:..\..\..\..\..\..\Software\uCOS-III\Source/os_task.c **** * Note(s)     : 1) You should use this function with great care because, when to flush the queue, y
 722:..\..\..\..\..\..\Software\uCOS-III\Source/os_task.c **** *                  references to what the queue entries are pointing to and thus, you could cause '
 723:..\..\..\..\..\..\Software\uCOS-III\Source/os_task.c **** *                  other words, the data you are pointing to that's being referenced by the queue e
 724:..\..\..\..\..\..\Software\uCOS-III\Source/os_task.c **** *                  likely, need to be de-allocated (i.e. freed).
 725:..\..\..\..\..\..\Software\uCOS-III\Source/os_task.c **** ***************************************************************************************************
 726:..\..\..\..\..\..\Software\uCOS-III\Source/os_task.c **** */
 727:..\..\..\..\..\..\Software\uCOS-III\Source/os_task.c **** 
 728:..\..\..\..\..\..\Software\uCOS-III\Source/os_task.c **** #if (OS_CFG_TASK_Q_EN == DEF_ENABLED)
 729:..\..\..\..\..\..\Software\uCOS-III\Source/os_task.c **** OS_MSG_QTY  OSTaskQFlush (OS_TCB  *p_tcb,
 730:..\..\..\..\..\..\Software\uCOS-III\Source/os_task.c ****                           OS_ERR  *p_err)
 731:..\..\..\..\..\..\Software\uCOS-III\Source/os_task.c **** {
 610              		.loc 1 731 0
 611              		.cfi_startproc
 612              		@ args = 0, pretend = 0, frame = 16
 613              		@ frame_needed = 1, uses_anonymous_args = 0
 614 0000 90B5     		push	{r4, r7, lr}
 615              		.cfi_def_cfa_offset 12
 616              		.cfi_offset 4, -12
 617              		.cfi_offset 7, -8
 618              		.cfi_offset 14, -4
 619 0002 85B0     		sub	sp, sp, #20
 620              		.cfi_def_cfa_offset 32
 621 0004 00AF     		add	r7, sp, #0
 622              		.cfi_def_cfa_register 7
 623 0006 7860     		str	r0, [r7, #4]
 624 0008 3960     		str	r1, [r7]
 732:..\..\..\..\..\..\Software\uCOS-III\Source/os_task.c ****     OS_MSG_QTY  entries;
 733:..\..\..\..\..\..\Software\uCOS-III\Source/os_task.c ****     CPU_SR_ALLOC();
 625              		.loc 1 733 0
 626 000a 0023     		movs	r3, #0
 627 000c FB60     		str	r3, [r7, #12]
 734:..\..\..\..\..\..\Software\uCOS-III\Source/os_task.c **** 
 735:..\..\..\..\..\..\Software\uCOS-III\Source/os_task.c **** 
 736:..\..\..\..\..\..\Software\uCOS-III\Source/os_task.c **** 
ARM GAS  C:\Users\ADMINI~1\AppData\Local\Temp\ccvBRVNC.s 			page 25


 737:..\..\..\..\..\..\Software\uCOS-III\Source/os_task.c **** #ifdef OS_SAFETY_CRITICAL
 738:..\..\..\..\..\..\Software\uCOS-III\Source/os_task.c ****     if (p_err == DEF_NULL) {
 739:..\..\..\..\..\..\Software\uCOS-III\Source/os_task.c ****         OS_SAFETY_CRITICAL_EXCEPTION();
 740:..\..\..\..\..\..\Software\uCOS-III\Source/os_task.c ****         return (0u);
 741:..\..\..\..\..\..\Software\uCOS-III\Source/os_task.c ****     }
 742:..\..\..\..\..\..\Software\uCOS-III\Source/os_task.c **** #endif
 743:..\..\..\..\..\..\Software\uCOS-III\Source/os_task.c **** 
 744:..\..\..\..\..\..\Software\uCOS-III\Source/os_task.c **** #if (OS_CFG_CALLED_FROM_ISR_CHK_EN == DEF_ENABLED)
 745:..\..\..\..\..\..\Software\uCOS-III\Source/os_task.c ****     if (OSIntNestingCtr > 0u) {                                 /* Can't flush a message queue from
 628              		.loc 1 745 0
 629 000e 1D4B     		ldr	r3, .L36
 630 0010 1B78     		ldrb	r3, [r3]
 631 0012 002B     		cmp	r3, #0
 632 0014 05D0     		beq	.L33
 746:..\..\..\..\..\..\Software\uCOS-III\Source/os_task.c ****        *p_err = OS_ERR_FLUSH_ISR;
 633              		.loc 1 746 0
 634 0016 3B68     		ldr	r3, [r7]
 635 0018 EC22     		movs	r2, #236
 636 001a 9201     		lsls	r2, r2, #6
 637 001c 1A80     		strh	r2, [r3]
 747:..\..\..\..\..\..\Software\uCOS-III\Source/os_task.c ****         return (0u);
 638              		.loc 1 747 0
 639 001e 0023     		movs	r3, #0
 640 0020 2CE0     		b	.L34
 641              	.L33:
 748:..\..\..\..\..\..\Software\uCOS-III\Source/os_task.c ****     }
 749:..\..\..\..\..\..\Software\uCOS-III\Source/os_task.c **** #endif
 750:..\..\..\..\..\..\Software\uCOS-III\Source/os_task.c **** 
 751:..\..\..\..\..\..\Software\uCOS-III\Source/os_task.c **** #if (OS_CFG_INVALID_OS_CALLS_CHK_EN == DEF_ENABLED)             /* Is the kernel running?          
 752:..\..\..\..\..\..\Software\uCOS-III\Source/os_task.c ****     if (OSRunning != OS_STATE_OS_RUNNING) {
 753:..\..\..\..\..\..\Software\uCOS-III\Source/os_task.c ****        *p_err = OS_ERR_OS_NOT_RUNNING;
 754:..\..\..\..\..\..\Software\uCOS-III\Source/os_task.c ****         return (0u);
 755:..\..\..\..\..\..\Software\uCOS-III\Source/os_task.c ****     }
 756:..\..\..\..\..\..\Software\uCOS-III\Source/os_task.c **** #endif
 757:..\..\..\..\..\..\Software\uCOS-III\Source/os_task.c **** 
 758:..\..\..\..\..\..\Software\uCOS-III\Source/os_task.c ****     if (p_tcb == DEF_NULL) {                                    /* Flush message queue of calling t
 642              		.loc 1 758 0
 643 0022 7B68     		ldr	r3, [r7, #4]
 644 0024 002B     		cmp	r3, #0
 645 0026 0ED1     		bne	.L35
 759:..\..\..\..\..\..\Software\uCOS-III\Source/os_task.c ****         CPU_CRITICAL_ENTER();
 646              		.loc 1 759 0
 647 0028 FFF7FEFF 		bl	CPU_SR_Save
 648 002c 0300     		movs	r3, r0
 649 002e FB60     		str	r3, [r7, #12]
 650 0030 FFF7FEFF 		bl	CPU_IntDisMeasStart
 760:..\..\..\..\..\..\Software\uCOS-III\Source/os_task.c ****         p_tcb = OSTCBCurPtr;
 651              		.loc 1 760 0
 652 0034 144B     		ldr	r3, .L36+4
 653 0036 1B68     		ldr	r3, [r3]
 654 0038 7B60     		str	r3, [r7, #4]
 761:..\..\..\..\..\..\Software\uCOS-III\Source/os_task.c ****         CPU_CRITICAL_EXIT();
 655              		.loc 1 761 0
 656 003a FFF7FEFF 		bl	CPU_IntDisMeasStop
 657 003e FB68     		ldr	r3, [r7, #12]
 658 0040 1800     		movs	r0, r3
 659 0042 FFF7FEFF 		bl	CPU_SR_Restore
ARM GAS  C:\Users\ADMINI~1\AppData\Local\Temp\ccvBRVNC.s 			page 26


 660              	.L35:
 762:..\..\..\..\..\..\Software\uCOS-III\Source/os_task.c ****     }
 763:..\..\..\..\..\..\Software\uCOS-III\Source/os_task.c **** 
 764:..\..\..\..\..\..\Software\uCOS-III\Source/os_task.c ****     OS_CRITICAL_ENTER();
 661              		.loc 1 764 0
 662 0046 FFF7FEFF 		bl	CPU_SR_Save
 663 004a 0300     		movs	r3, r0
 664 004c FB60     		str	r3, [r7, #12]
 665 004e FFF7FEFF 		bl	CPU_IntDisMeasStart
 765:..\..\..\..\..\..\Software\uCOS-III\Source/os_task.c ****     entries = OS_MsgQFreeAll(&p_tcb->MsgQ);                     /* Return all OS_MSGs to the OS_MSG
 666              		.loc 1 765 0
 667 0052 7B68     		ldr	r3, [r7, #4]
 668 0054 6033     		adds	r3, r3, #96
 669 0056 0A22     		movs	r2, #10
 670 0058 BC18     		adds	r4, r7, r2
 671 005a 1800     		movs	r0, r3
 672 005c FFF7FEFF 		bl	OS_MsgQFreeAll
 673 0060 0300     		movs	r3, r0
 674 0062 2380     		strh	r3, [r4]
 766:..\..\..\..\..\..\Software\uCOS-III\Source/os_task.c ****     OS_CRITICAL_EXIT();
 675              		.loc 1 766 0
 676 0064 FFF7FEFF 		bl	CPU_IntDisMeasStop
 677 0068 FB68     		ldr	r3, [r7, #12]
 678 006a 1800     		movs	r0, r3
 679 006c FFF7FEFF 		bl	CPU_SR_Restore
 767:..\..\..\..\..\..\Software\uCOS-III\Source/os_task.c ****    *p_err   = OS_ERR_NONE;
 680              		.loc 1 767 0
 681 0070 3B68     		ldr	r3, [r7]
 682 0072 0022     		movs	r2, #0
 683 0074 1A80     		strh	r2, [r3]
 768:..\..\..\..\..\..\Software\uCOS-III\Source/os_task.c ****     return (entries);
 684              		.loc 1 768 0
 685 0076 0A23     		movs	r3, #10
 686 0078 FB18     		adds	r3, r7, r3
 687 007a 1B88     		ldrh	r3, [r3]
 688              	.L34:
 769:..\..\..\..\..\..\Software\uCOS-III\Source/os_task.c **** }
 689              		.loc 1 769 0
 690 007c 1800     		movs	r0, r3
 691 007e BD46     		mov	sp, r7
 692 0080 05B0     		add	sp, sp, #20
 693              		@ sp needed
 694 0082 90BD     		pop	{r4, r7, pc}
 695              	.L37:
 696              		.align	2
 697              	.L36:
 698 0084 00000000 		.word	OSIntNestingCtr
 699 0088 00000000 		.word	OSTCBCurPtr
 700              		.cfi_endproc
 701              	.LFE2:
 702              		.size	OSTaskQFlush, .-OSTaskQFlush
 703              		.section	.text.OSTaskQPend,"ax",%progbits
 704              		.align	2
 705              		.global	OSTaskQPend
 706              		.code	16
 707              		.thumb_func
 708              		.type	OSTaskQPend, %function
ARM GAS  C:\Users\ADMINI~1\AppData\Local\Temp\ccvBRVNC.s 			page 27


 709              	OSTaskQPend:
 710              	.LFB3:
 770:..\..\..\..\..\..\Software\uCOS-III\Source/os_task.c **** #endif
 771:..\..\..\..\..\..\Software\uCOS-III\Source/os_task.c **** 
 772:..\..\..\..\..\..\Software\uCOS-III\Source/os_task.c **** 
 773:..\..\..\..\..\..\Software\uCOS-III\Source/os_task.c **** /*
 774:..\..\..\..\..\..\Software\uCOS-III\Source/os_task.c **** ***************************************************************************************************
 775:..\..\..\..\..\..\Software\uCOS-III\Source/os_task.c **** *                                                  WAIT FOR A MESSAGE
 776:..\..\..\..\..\..\Software\uCOS-III\Source/os_task.c **** *
 777:..\..\..\..\..\..\Software\uCOS-III\Source/os_task.c **** * Description: This function causes the current task to wait for a message to be posted to it.
 778:..\..\..\..\..\..\Software\uCOS-III\Source/os_task.c **** *
 779:..\..\..\..\..\..\Software\uCOS-III\Source/os_task.c **** * Arguments  : timeout       is an optional timeout period (in clock ticks).  If non-zero, your tas
 780:..\..\..\..\..\..\Software\uCOS-III\Source/os_task.c **** *                            message to arrive up to the amount of time specified by this argument.
 781:..\..\..\..\..\..\Software\uCOS-III\Source/os_task.c **** *                            If you specify 0, however, your task will wait forever or, until a mes
 782:..\..\..\..\..\..\Software\uCOS-III\Source/os_task.c **** *
 783:..\..\..\..\..\..\Software\uCOS-III\Source/os_task.c **** *              opt           determines whether the user wants to block if the task's queue is empt
 784:..\..\..\..\..\..\Software\uCOS-III\Source/os_task.c **** *
 785:..\..\..\..\..\..\Software\uCOS-III\Source/os_task.c **** *                                OS_OPT_PEND_BLOCKING
 786:..\..\..\..\..\..\Software\uCOS-III\Source/os_task.c **** *                                OS_OPT_PEND_NON_BLOCKING
 787:..\..\..\..\..\..\Software\uCOS-III\Source/os_task.c **** *
 788:..\..\..\..\..\..\Software\uCOS-III\Source/os_task.c **** *              p_msg_size    is a pointer to a variable that will receive the size of the message
 789:..\..\..\..\..\..\Software\uCOS-III\Source/os_task.c **** *
 790:..\..\..\..\..\..\Software\uCOS-III\Source/os_task.c **** *              p_ts          is a pointer to a variable that will receive the timestamp of when the
 791:..\..\..\..\..\..\Software\uCOS-III\Source/os_task.c **** *                            received.  If you pass a NULL pointer (i.e. (CPU_TS *)0) then you will
 792:..\..\..\..\..\..\Software\uCOS-III\Source/os_task.c **** *                            timestamp.  In other words, passing a NULL pointer is valid and indica
 793:..\..\..\..\..\..\Software\uCOS-III\Source/os_task.c **** *                            need the timestamp.
 794:..\..\..\..\..\..\Software\uCOS-III\Source/os_task.c **** *
 795:..\..\..\..\..\..\Software\uCOS-III\Source/os_task.c **** *              p_err         is a pointer to where an error message will be deposited.  Possible er
 796:..\..\..\..\..\..\Software\uCOS-III\Source/os_task.c **** *                            messages are:
 797:..\..\..\..\..\..\Software\uCOS-III\Source/os_task.c **** *
 798:..\..\..\..\..\..\Software\uCOS-III\Source/os_task.c **** *                                OS_ERR_NONE               The call was successful and your task re
 799:..\..\..\..\..\..\Software\uCOS-III\Source/os_task.c **** *                                OS_ERR_OPT_INVALID        If you specified an invalid option
 800:..\..\..\..\..\..\Software\uCOS-III\Source/os_task.c **** *                                OS_ERR_OS_NOT_RUNNING     If uC/OS-III is not running yet
 801:..\..\..\..\..\..\Software\uCOS-III\Source/os_task.c **** *                                OS_ERR_PEND_ABORT         If the pend was aborted
 802:..\..\..\..\..\..\Software\uCOS-III\Source/os_task.c **** *                                OS_ERR_PEND_ISR           If you called this function from an ISR 
 803:..\..\..\..\..\..\Software\uCOS-III\Source/os_task.c **** *                                OS_ERR_PEND_WOULD_BLOCK   If you specified non-blocking but the qu
 804:..\..\..\..\..\..\Software\uCOS-III\Source/os_task.c **** *                                OS_ERR_PTR_INVALID        If 'p_msg_size' is NULL
 805:..\..\..\..\..\..\Software\uCOS-III\Source/os_task.c **** *                                OS_ERR_SCHED_LOCKED       If the scheduler is locked
 806:..\..\..\..\..\..\Software\uCOS-III\Source/os_task.c **** *                                OS_ERR_TIMEOUT            A message was not received within the sp
 807:..\..\..\..\..\..\Software\uCOS-III\Source/os_task.c **** *                                                          would lead to a suspension
 808:..\..\..\..\..\..\Software\uCOS-III\Source/os_task.c **** *
 809:..\..\..\..\..\..\Software\uCOS-III\Source/os_task.c **** * Returns    : A pointer to the message received or a NULL pointer upon error.
 810:..\..\..\..\..\..\Software\uCOS-III\Source/os_task.c **** *
 811:..\..\..\..\..\..\Software\uCOS-III\Source/os_task.c **** * Note(s)    : 1) It is possible to receive NULL pointers when there are no errors.
 812:..\..\..\..\..\..\Software\uCOS-III\Source/os_task.c **** ***************************************************************************************************
 813:..\..\..\..\..\..\Software\uCOS-III\Source/os_task.c **** */
 814:..\..\..\..\..\..\Software\uCOS-III\Source/os_task.c **** 
 815:..\..\..\..\..\..\Software\uCOS-III\Source/os_task.c **** #if (OS_CFG_TASK_Q_EN == DEF_ENABLED)
 816:..\..\..\..\..\..\Software\uCOS-III\Source/os_task.c **** void  *OSTaskQPend (OS_TICK       timeout,
 817:..\..\..\..\..\..\Software\uCOS-III\Source/os_task.c ****                     OS_OPT        opt,
 818:..\..\..\..\..\..\Software\uCOS-III\Source/os_task.c ****                     OS_MSG_SIZE  *p_msg_size,
 819:..\..\..\..\..\..\Software\uCOS-III\Source/os_task.c ****                     CPU_TS       *p_ts,
 820:..\..\..\..\..\..\Software\uCOS-III\Source/os_task.c ****                     OS_ERR       *p_err)
 821:..\..\..\..\..\..\Software\uCOS-III\Source/os_task.c **** {
 711              		.loc 1 821 0
 712              		.cfi_startproc
 713              		@ args = 4, pretend = 0, frame = 32
ARM GAS  C:\Users\ADMINI~1\AppData\Local\Temp\ccvBRVNC.s 			page 28


 714              		@ frame_needed = 1, uses_anonymous_args = 0
 715 0000 90B5     		push	{r4, r7, lr}
 716              		.cfi_def_cfa_offset 12
 717              		.cfi_offset 4, -12
 718              		.cfi_offset 7, -8
 719              		.cfi_offset 14, -4
 720 0002 89B0     		sub	sp, sp, #36
 721              		.cfi_def_cfa_offset 48
 722 0004 00AF     		add	r7, sp, #0
 723              		.cfi_def_cfa_register 7
 724 0006 F860     		str	r0, [r7, #12]
 725 0008 7A60     		str	r2, [r7, #4]
 726 000a 3B60     		str	r3, [r7]
 727 000c 0A23     		movs	r3, #10
 728 000e FB18     		adds	r3, r7, r3
 729 0010 0A1C     		adds	r2, r1, #0
 730 0012 1A80     		strh	r2, [r3]
 822:..\..\..\..\..\..\Software\uCOS-III\Source/os_task.c ****     OS_MSG_Q     *p_msg_q;
 823:..\..\..\..\..\..\Software\uCOS-III\Source/os_task.c ****     void         *p_void;
 824:..\..\..\..\..\..\Software\uCOS-III\Source/os_task.c ****     CPU_SR_ALLOC();
 731              		.loc 1 824 0
 732 0014 0023     		movs	r3, #0
 733 0016 BB61     		str	r3, [r7, #24]
 825:..\..\..\..\..\..\Software\uCOS-III\Source/os_task.c **** 
 826:..\..\..\..\..\..\Software\uCOS-III\Source/os_task.c **** 
 827:..\..\..\..\..\..\Software\uCOS-III\Source/os_task.c **** #ifdef OS_SAFETY_CRITICAL
 828:..\..\..\..\..\..\Software\uCOS-III\Source/os_task.c ****     if (p_err == DEF_NULL) {
 829:..\..\..\..\..\..\Software\uCOS-III\Source/os_task.c ****         OS_SAFETY_CRITICAL_EXCEPTION();
 830:..\..\..\..\..\..\Software\uCOS-III\Source/os_task.c ****         return (DEF_NULL);
 831:..\..\..\..\..\..\Software\uCOS-III\Source/os_task.c ****     }
 832:..\..\..\..\..\..\Software\uCOS-III\Source/os_task.c **** #endif
 833:..\..\..\..\..\..\Software\uCOS-III\Source/os_task.c **** 
 834:..\..\..\..\..\..\Software\uCOS-III\Source/os_task.c **** #if (OS_CFG_CALLED_FROM_ISR_CHK_EN == DEF_ENABLED)
 835:..\..\..\..\..\..\Software\uCOS-III\Source/os_task.c ****     if (OSIntNestingCtr > 0u) {                                 /* Can't Pend from an ISR          
 734              		.loc 1 835 0
 735 0018 794B     		ldr	r3, .L59
 736 001a 1B78     		ldrb	r3, [r3]
 737 001c 002B     		cmp	r3, #0
 738 001e 04D0     		beq	.L39
 836:..\..\..\..\..\..\Software\uCOS-III\Source/os_task.c ****        *p_err = OS_ERR_PEND_ISR;
 739              		.loc 1 836 0
 740 0020 3B6B     		ldr	r3, [r7, #48]
 741 0022 784A     		ldr	r2, .L59+4
 742 0024 1A80     		strh	r2, [r3]
 837:..\..\..\..\..\..\Software\uCOS-III\Source/os_task.c ****         return (DEF_NULL);
 743              		.loc 1 837 0
 744 0026 0023     		movs	r3, #0
 745 0028 E6E0     		b	.L40
 746              	.L39:
 838:..\..\..\..\..\..\Software\uCOS-III\Source/os_task.c ****     }
 839:..\..\..\..\..\..\Software\uCOS-III\Source/os_task.c **** #endif
 840:..\..\..\..\..\..\Software\uCOS-III\Source/os_task.c **** 
 841:..\..\..\..\..\..\Software\uCOS-III\Source/os_task.c **** #if (OS_CFG_INVALID_OS_CALLS_CHK_EN == DEF_ENABLED)             /* Is the kernel running?          
 842:..\..\..\..\..\..\Software\uCOS-III\Source/os_task.c ****     if (OSRunning != OS_STATE_OS_RUNNING) {
 843:..\..\..\..\..\..\Software\uCOS-III\Source/os_task.c ****        *p_err = OS_ERR_OS_NOT_RUNNING;
 844:..\..\..\..\..\..\Software\uCOS-III\Source/os_task.c ****         return (DEF_NULL);
 845:..\..\..\..\..\..\Software\uCOS-III\Source/os_task.c ****     }
ARM GAS  C:\Users\ADMINI~1\AppData\Local\Temp\ccvBRVNC.s 			page 29


 846:..\..\..\..\..\..\Software\uCOS-III\Source/os_task.c **** #endif
 847:..\..\..\..\..\..\Software\uCOS-III\Source/os_task.c **** 
 848:..\..\..\..\..\..\Software\uCOS-III\Source/os_task.c **** #if (OS_CFG_ARG_CHK_EN == DEF_ENABLED)                          /* ---------------- VALIDATE ARGUME
 849:..\..\..\..\..\..\Software\uCOS-III\Source/os_task.c ****     if (p_msg_size == DEF_NULL) {                               /* User must supply a valid destina
 747              		.loc 1 849 0
 748 002a 7B68     		ldr	r3, [r7, #4]
 749 002c 002B     		cmp	r3, #0
 750 002e 04D1     		bne	.L41
 850:..\..\..\..\..\..\Software\uCOS-III\Source/os_task.c ****        *p_err = OS_ERR_PTR_INVALID;
 751              		.loc 1 850 0
 752 0030 3B6B     		ldr	r3, [r7, #48]
 753 0032 754A     		ldr	r2, .L59+8
 754 0034 1A80     		strh	r2, [r3]
 851:..\..\..\..\..\..\Software\uCOS-III\Source/os_task.c ****         return (DEF_NULL);
 755              		.loc 1 851 0
 756 0036 0023     		movs	r3, #0
 757 0038 DEE0     		b	.L40
 758              	.L41:
 852:..\..\..\..\..\..\Software\uCOS-III\Source/os_task.c ****     }
 853:..\..\..\..\..\..\Software\uCOS-III\Source/os_task.c ****     switch (opt) {                                              /* User must supply a valid option 
 759              		.loc 1 853 0
 760 003a 0A23     		movs	r3, #10
 761 003c FB18     		adds	r3, r7, r3
 762 003e 1B88     		ldrh	r3, [r3]
 763 0040 002B     		cmp	r3, #0
 764 0042 08D0     		beq	.L58
 765 0044 8022     		movs	r2, #128
 766 0046 1202     		lsls	r2, r2, #8
 767 0048 9342     		cmp	r3, r2
 768 004a 04D0     		beq	.L58
 854:..\..\..\..\..\..\Software\uCOS-III\Source/os_task.c ****         case OS_OPT_PEND_BLOCKING:
 855:..\..\..\..\..\..\Software\uCOS-III\Source/os_task.c ****         case OS_OPT_PEND_NON_BLOCKING:
 856:..\..\..\..\..\..\Software\uCOS-III\Source/os_task.c ****              break;
 857:..\..\..\..\..\..\Software\uCOS-III\Source/os_task.c **** 
 858:..\..\..\..\..\..\Software\uCOS-III\Source/os_task.c ****         default:
 859:..\..\..\..\..\..\Software\uCOS-III\Source/os_task.c ****             *p_err = OS_ERR_OPT_INVALID;
 769              		.loc 1 859 0
 770 004c 3B6B     		ldr	r3, [r7, #48]
 771 004e 6F4A     		ldr	r2, .L59+12
 772 0050 1A80     		strh	r2, [r3]
 860:..\..\..\..\..\..\Software\uCOS-III\Source/os_task.c ****              return (DEF_NULL);
 773              		.loc 1 860 0
 774 0052 0023     		movs	r3, #0
 775 0054 D0E0     		b	.L40
 776              	.L58:
 856:..\..\..\..\..\..\Software\uCOS-III\Source/os_task.c **** 
 777              		.loc 1 856 0
 778 0056 C046     		nop
 861:..\..\..\..\..\..\Software\uCOS-III\Source/os_task.c ****     }
 862:..\..\..\..\..\..\Software\uCOS-III\Source/os_task.c **** #endif
 863:..\..\..\..\..\..\Software\uCOS-III\Source/os_task.c **** 
 864:..\..\..\..\..\..\Software\uCOS-III\Source/os_task.c ****     if (p_ts != DEF_NULL) {
 779              		.loc 1 864 0
 780 0058 3B68     		ldr	r3, [r7]
 781 005a 002B     		cmp	r3, #0
 782 005c 02D0     		beq	.L45
 865:..\..\..\..\..\..\Software\uCOS-III\Source/os_task.c ****        *p_ts = 0u;                                              /* Initialize the returned timestam
ARM GAS  C:\Users\ADMINI~1\AppData\Local\Temp\ccvBRVNC.s 			page 30


 783              		.loc 1 865 0
 784 005e 3B68     		ldr	r3, [r7]
 785 0060 0022     		movs	r2, #0
 786 0062 1A60     		str	r2, [r3]
 787              	.L45:
 866:..\..\..\..\..\..\Software\uCOS-III\Source/os_task.c ****     }
 867:..\..\..\..\..\..\Software\uCOS-III\Source/os_task.c **** 
 868:..\..\..\..\..\..\Software\uCOS-III\Source/os_task.c ****     CPU_CRITICAL_ENTER();
 788              		.loc 1 868 0
 789 0064 FFF7FEFF 		bl	CPU_SR_Save
 790 0068 0300     		movs	r3, r0
 791 006a BB61     		str	r3, [r7, #24]
 792 006c FFF7FEFF 		bl	CPU_IntDisMeasStart
 869:..\..\..\..\..\..\Software\uCOS-III\Source/os_task.c ****     p_msg_q = &OSTCBCurPtr->MsgQ;                               /* Any message waiting in the messa
 793              		.loc 1 869 0
 794 0070 674B     		ldr	r3, .L59+16
 795 0072 1B68     		ldr	r3, [r3]
 796 0074 6033     		adds	r3, r3, #96
 797 0076 7B61     		str	r3, [r7, #20]
 870:..\..\..\..\..\..\Software\uCOS-III\Source/os_task.c ****     p_void  = OS_MsgQGet(p_msg_q,
 798              		.loc 1 870 0
 799 0078 3B6B     		ldr	r3, [r7, #48]
 800 007a 3A68     		ldr	r2, [r7]
 801 007c 7968     		ldr	r1, [r7, #4]
 802 007e 7869     		ldr	r0, [r7, #20]
 803 0080 FFF7FEFF 		bl	OS_MsgQGet
 804 0084 0300     		movs	r3, r0
 805 0086 FB61     		str	r3, [r7, #28]
 871:..\..\..\..\..\..\Software\uCOS-III\Source/os_task.c ****                          p_msg_size,
 872:..\..\..\..\..\..\Software\uCOS-III\Source/os_task.c ****                          p_ts,
 873:..\..\..\..\..\..\Software\uCOS-III\Source/os_task.c ****                          p_err);
 874:..\..\..\..\..\..\Software\uCOS-III\Source/os_task.c ****     if (*p_err == OS_ERR_NONE) {
 806              		.loc 1 874 0
 807 0088 3B6B     		ldr	r3, [r7, #48]
 808 008a 1B88     		ldrh	r3, [r3]
 809 008c 002B     		cmp	r3, #0
 810 008e 21D1     		bne	.L46
 875:..\..\..\..\..\..\Software\uCOS-III\Source/os_task.c **** #if (OS_CFG_TASK_PROFILE_EN == DEF_ENABLED)
 876:..\..\..\..\..\..\Software\uCOS-III\Source/os_task.c **** #if (OS_CFG_TS_EN == DEF_ENABLED)
 877:..\..\..\..\..\..\Software\uCOS-III\Source/os_task.c ****         if (p_ts != DEF_NULL) {
 811              		.loc 1 877 0
 812 0090 3B68     		ldr	r3, [r7]
 813 0092 002B     		cmp	r3, #0
 814 0094 16D0     		beq	.L47
 878:..\..\..\..\..\..\Software\uCOS-III\Source/os_task.c ****             OSTCBCurPtr->MsgQPendTime = OS_TS_GET() - *p_ts;
 815              		.loc 1 878 0
 816 0096 5E4B     		ldr	r3, .L59+16
 817 0098 1C68     		ldr	r4, [r3]
 818 009a FFF7FEFF 		bl	CPU_TS_TmrRd
 819 009e 0200     		movs	r2, r0
 820 00a0 3B68     		ldr	r3, [r7]
 821 00a2 1B68     		ldr	r3, [r3]
 822 00a4 D31A     		subs	r3, r2, r3
 823 00a6 2367     		str	r3, [r4, #112]
 879:..\..\..\..\..\..\Software\uCOS-III\Source/os_task.c ****             if (OSTCBCurPtr->MsgQPendTimeMax < OSTCBCurPtr->MsgQPendTime) {
 824              		.loc 1 879 0
 825 00a8 594B     		ldr	r3, .L59+16
ARM GAS  C:\Users\ADMINI~1\AppData\Local\Temp\ccvBRVNC.s 			page 31


 826 00aa 1B68     		ldr	r3, [r3]
 827 00ac 5A6F     		ldr	r2, [r3, #116]
 828 00ae 584B     		ldr	r3, .L59+16
 829 00b0 1B68     		ldr	r3, [r3]
 830 00b2 1B6F     		ldr	r3, [r3, #112]
 831 00b4 9A42     		cmp	r2, r3
 832 00b6 05D2     		bcs	.L47
 880:..\..\..\..\..\..\Software\uCOS-III\Source/os_task.c ****                 OSTCBCurPtr->MsgQPendTimeMax = OSTCBCurPtr->MsgQPendTime;
 833              		.loc 1 880 0
 834 00b8 554B     		ldr	r3, .L59+16
 835 00ba 1B68     		ldr	r3, [r3]
 836 00bc 544A     		ldr	r2, .L59+16
 837 00be 1268     		ldr	r2, [r2]
 838 00c0 126F     		ldr	r2, [r2, #112]
 839 00c2 5A67     		str	r2, [r3, #116]
 840              	.L47:
 881:..\..\..\..\..\..\Software\uCOS-III\Source/os_task.c ****             }
 882:..\..\..\..\..\..\Software\uCOS-III\Source/os_task.c ****         }
 883:..\..\..\..\..\..\Software\uCOS-III\Source/os_task.c **** #endif
 884:..\..\..\..\..\..\Software\uCOS-III\Source/os_task.c **** #endif
 885:..\..\..\..\..\..\Software\uCOS-III\Source/os_task.c ****         CPU_CRITICAL_EXIT();
 841              		.loc 1 885 0
 842 00c4 FFF7FEFF 		bl	CPU_IntDisMeasStop
 843 00c8 BB69     		ldr	r3, [r7, #24]
 844 00ca 1800     		movs	r0, r3
 845 00cc FFF7FEFF 		bl	CPU_SR_Restore
 886:..\..\..\..\..\..\Software\uCOS-III\Source/os_task.c **** #if (defined(TRACE_CFG_EN) && (TRACE_CFG_EN == DEF_ENABLED))
 887:..\..\..\..\..\..\Software\uCOS-III\Source/os_task.c ****         TRACE_OS_TASK_MSG_Q_PEND(p_msg_q);                      /* Record the event.               
 888:..\..\..\..\..\..\Software\uCOS-III\Source/os_task.c **** #endif
 889:..\..\..\..\..\..\Software\uCOS-III\Source/os_task.c ****         return (p_void);                                        /* Yes, Return oldest message recei
 846              		.loc 1 889 0
 847 00d0 FB69     		ldr	r3, [r7, #28]
 848 00d2 91E0     		b	.L40
 849              	.L46:
 890:..\..\..\..\..\..\Software\uCOS-III\Source/os_task.c ****     }
 891:..\..\..\..\..\..\Software\uCOS-III\Source/os_task.c **** 
 892:..\..\..\..\..\..\Software\uCOS-III\Source/os_task.c ****     if ((opt & OS_OPT_PEND_NON_BLOCKING) != 0u) {               /* Caller wants to block if not ava
 850              		.loc 1 892 0
 851 00d4 0A23     		movs	r3, #10
 852 00d6 FB18     		adds	r3, r7, r3
 853 00d8 0022     		movs	r2, #0
 854 00da 9B5E     		ldrsh	r3, [r3, r2]
 855 00dc 002B     		cmp	r3, #0
 856 00de 0ADA     		bge	.L48
 893:..\..\..\..\..\..\Software\uCOS-III\Source/os_task.c ****        *p_err = OS_ERR_PEND_WOULD_BLOCK;                        /* No                              
 857              		.loc 1 893 0
 858 00e0 3B6B     		ldr	r3, [r7, #48]
 859 00e2 4C4A     		ldr	r2, .L59+20
 860 00e4 1A80     		strh	r2, [r3]
 894:..\..\..\..\..\..\Software\uCOS-III\Source/os_task.c ****         CPU_CRITICAL_EXIT();
 861              		.loc 1 894 0
 862 00e6 FFF7FEFF 		bl	CPU_IntDisMeasStop
 863 00ea BB69     		ldr	r3, [r7, #24]
 864 00ec 1800     		movs	r0, r3
 865 00ee FFF7FEFF 		bl	CPU_SR_Restore
 895:..\..\..\..\..\..\Software\uCOS-III\Source/os_task.c **** #if (defined(TRACE_CFG_EN) && (TRACE_CFG_EN == DEF_ENABLED))
 896:..\..\..\..\..\..\Software\uCOS-III\Source/os_task.c ****         TRACE_OS_TASK_MSG_Q_PEND_FAILED(p_msg_q);               /* Record the event.               
ARM GAS  C:\Users\ADMINI~1\AppData\Local\Temp\ccvBRVNC.s 			page 32


 897:..\..\..\..\..\..\Software\uCOS-III\Source/os_task.c **** #endif
 898:..\..\..\..\..\..\Software\uCOS-III\Source/os_task.c ****         return (DEF_NULL);
 866              		.loc 1 898 0
 867 00f2 0023     		movs	r3, #0
 868 00f4 80E0     		b	.L40
 869              	.L48:
 899:..\..\..\..\..\..\Software\uCOS-III\Source/os_task.c ****     } else {                                                    /* Yes                             
 900:..\..\..\..\..\..\Software\uCOS-III\Source/os_task.c ****         if (OSSchedLockNestingCtr > 0u) {                       /* Can't block when the scheduler i
 870              		.loc 1 900 0
 871 00f6 484B     		ldr	r3, .L59+24
 872 00f8 1B78     		ldrb	r3, [r3]
 873 00fa 002B     		cmp	r3, #0
 874 00fc 0AD0     		beq	.L49
 901:..\..\..\..\..\..\Software\uCOS-III\Source/os_task.c ****             CPU_CRITICAL_EXIT();
 875              		.loc 1 901 0
 876 00fe FFF7FEFF 		bl	CPU_IntDisMeasStop
 877 0102 BB69     		ldr	r3, [r7, #24]
 878 0104 1800     		movs	r0, r3
 879 0106 FFF7FEFF 		bl	CPU_SR_Restore
 902:..\..\..\..\..\..\Software\uCOS-III\Source/os_task.c **** #if (defined(TRACE_CFG_EN) && (TRACE_CFG_EN == DEF_ENABLED))
 903:..\..\..\..\..\..\Software\uCOS-III\Source/os_task.c ****             TRACE_OS_TASK_MSG_Q_PEND_FAILED(p_msg_q);           /* Record the event.               
 904:..\..\..\..\..\..\Software\uCOS-III\Source/os_task.c **** #endif
 905:..\..\..\..\..\..\Software\uCOS-III\Source/os_task.c ****            *p_err = OS_ERR_SCHED_LOCKED;
 880              		.loc 1 905 0
 881 010a 3B6B     		ldr	r3, [r7, #48]
 882 010c 434A     		ldr	r2, .L59+28
 883 010e 1A80     		strh	r2, [r3]
 906:..\..\..\..\..\..\Software\uCOS-III\Source/os_task.c ****             return (DEF_NULL);
 884              		.loc 1 906 0
 885 0110 0023     		movs	r3, #0
 886 0112 71E0     		b	.L40
 887              	.L49:
 907:..\..\..\..\..\..\Software\uCOS-III\Source/os_task.c ****         }
 908:..\..\..\..\..\..\Software\uCOS-III\Source/os_task.c ****     }
 909:..\..\..\..\..\..\Software\uCOS-III\Source/os_task.c ****                                                                 /* Lock the scheduler/re-enable int
 910:..\..\..\..\..\..\Software\uCOS-III\Source/os_task.c ****     OS_CRITICAL_ENTER_CPU_EXIT();
 911:..\..\..\..\..\..\Software\uCOS-III\Source/os_task.c ****     OS_Pend(DEF_NULL,                                           /* Block task pending on Message   
 888              		.loc 1 911 0
 889 0114 FB68     		ldr	r3, [r7, #12]
 890 0116 0222     		movs	r2, #2
 891 0118 0021     		movs	r1, #0
 892 011a 0020     		movs	r0, #0
 893 011c FFF7FEFF 		bl	OS_Pend
 912:..\..\..\..\..\..\Software\uCOS-III\Source/os_task.c ****             DEF_NULL,
 913:..\..\..\..\..\..\Software\uCOS-III\Source/os_task.c ****             OS_TASK_PEND_ON_TASK_Q,
 914:..\..\..\..\..\..\Software\uCOS-III\Source/os_task.c ****             timeout);
 915:..\..\..\..\..\..\Software\uCOS-III\Source/os_task.c ****     OS_CRITICAL_EXIT_NO_SCHED();
 894              		.loc 1 915 0
 895 0120 FFF7FEFF 		bl	CPU_IntDisMeasStop
 896 0124 BB69     		ldr	r3, [r7, #24]
 897 0126 1800     		movs	r0, r3
 898 0128 FFF7FEFF 		bl	CPU_SR_Restore
 916:..\..\..\..\..\..\Software\uCOS-III\Source/os_task.c **** #if (defined(TRACE_CFG_EN) && (TRACE_CFG_EN == DEF_ENABLED))
 917:..\..\..\..\..\..\Software\uCOS-III\Source/os_task.c ****     TRACE_OS_TASK_MSG_Q_PEND_BLOCK(p_msg_q);                    /* Record the event.               
 918:..\..\..\..\..\..\Software\uCOS-III\Source/os_task.c **** #endif
 919:..\..\..\..\..\..\Software\uCOS-III\Source/os_task.c ****     OSSched();                                                  /* Find the next highest priority t
 899              		.loc 1 919 0
ARM GAS  C:\Users\ADMINI~1\AppData\Local\Temp\ccvBRVNC.s 			page 33


 900 012c FFF7FEFF 		bl	OSSched
 920:..\..\..\..\..\..\Software\uCOS-III\Source/os_task.c **** 
 921:..\..\..\..\..\..\Software\uCOS-III\Source/os_task.c ****     CPU_CRITICAL_ENTER();
 901              		.loc 1 921 0
 902 0130 FFF7FEFF 		bl	CPU_SR_Save
 903 0134 0300     		movs	r3, r0
 904 0136 BB61     		str	r3, [r7, #24]
 905 0138 FFF7FEFF 		bl	CPU_IntDisMeasStart
 922:..\..\..\..\..\..\Software\uCOS-III\Source/os_task.c ****     switch (OSTCBCurPtr->PendStatus) {
 906              		.loc 1 922 0
 907 013c 344B     		ldr	r3, .L59+16
 908 013e 1B68     		ldr	r3, [r3]
 909 0140 3522     		movs	r2, #53
 910 0142 9B5C     		ldrb	r3, [r3, r2]
 911 0144 002B     		cmp	r3, #0
 912 0146 02D0     		beq	.L51
 913 0148 012B     		cmp	r3, #1
 914 014a 2ED0     		beq	.L52
 915 014c 3CE0     		b	.L57
 916              	.L51:
 923:..\..\..\..\..\..\Software\uCOS-III\Source/os_task.c ****         case OS_STATUS_PEND_OK:                                 /* Extract message from TCB (Put th
 924:..\..\..\..\..\..\Software\uCOS-III\Source/os_task.c ****              p_void      = OSTCBCurPtr->MsgPtr;
 917              		.loc 1 924 0
 918 014e 304B     		ldr	r3, .L59+16
 919 0150 1B68     		ldr	r3, [r3]
 920 0152 9B6D     		ldr	r3, [r3, #88]
 921 0154 FB61     		str	r3, [r7, #28]
 925:..\..\..\..\..\..\Software\uCOS-III\Source/os_task.c ****             *p_msg_size  = OSTCBCurPtr->MsgSize;
 922              		.loc 1 925 0
 923 0156 2E4B     		ldr	r3, .L59+16
 924 0158 1B68     		ldr	r3, [r3]
 925 015a 5C22     		movs	r2, #92
 926 015c 9A5A     		ldrh	r2, [r3, r2]
 927 015e 7B68     		ldr	r3, [r7, #4]
 928 0160 1A80     		strh	r2, [r3]
 926:..\..\..\..\..\..\Software\uCOS-III\Source/os_task.c **** #if (OS_CFG_TS_EN == DEF_ENABLED)
 927:..\..\..\..\..\..\Software\uCOS-III\Source/os_task.c ****              if (p_ts != DEF_NULL) {
 929              		.loc 1 927 0
 930 0162 3B68     		ldr	r3, [r7]
 931 0164 002B     		cmp	r3, #0
 932 0166 1CD0     		beq	.L53
 928:..\..\..\..\..\..\Software\uCOS-III\Source/os_task.c ****                 *p_ts = OSTCBCurPtr->TS;
 933              		.loc 1 928 0
 934 0168 294B     		ldr	r3, .L59+16
 935 016a 1B68     		ldr	r3, [r3]
 936 016c 9A6C     		ldr	r2, [r3, #72]
 937 016e 3B68     		ldr	r3, [r7]
 938 0170 1A60     		str	r2, [r3]
 929:..\..\..\..\..\..\Software\uCOS-III\Source/os_task.c **** #if (OS_CFG_TASK_PROFILE_EN == DEF_ENABLED)
 930:..\..\..\..\..\..\Software\uCOS-III\Source/os_task.c ****                 OSTCBCurPtr->MsgQPendTime = OS_TS_GET() - OSTCBCurPtr->TS;
 939              		.loc 1 930 0
 940 0172 274B     		ldr	r3, .L59+16
 941 0174 1C68     		ldr	r4, [r3]
 942 0176 FFF7FEFF 		bl	CPU_TS_TmrRd
 943 017a 0200     		movs	r2, r0
 944 017c 244B     		ldr	r3, .L59+16
 945 017e 1B68     		ldr	r3, [r3]
ARM GAS  C:\Users\ADMINI~1\AppData\Local\Temp\ccvBRVNC.s 			page 34


 946 0180 9B6C     		ldr	r3, [r3, #72]
 947 0182 D31A     		subs	r3, r2, r3
 948 0184 2367     		str	r3, [r4, #112]
 931:..\..\..\..\..\..\Software\uCOS-III\Source/os_task.c ****                 if (OSTCBCurPtr->MsgQPendTimeMax < OSTCBCurPtr->MsgQPendTime) {
 949              		.loc 1 931 0
 950 0186 224B     		ldr	r3, .L59+16
 951 0188 1B68     		ldr	r3, [r3]
 952 018a 5A6F     		ldr	r2, [r3, #116]
 953 018c 204B     		ldr	r3, .L59+16
 954 018e 1B68     		ldr	r3, [r3]
 955 0190 1B6F     		ldr	r3, [r3, #112]
 956 0192 9A42     		cmp	r2, r3
 957 0194 05D2     		bcs	.L53
 932:..\..\..\..\..\..\Software\uCOS-III\Source/os_task.c ****                     OSTCBCurPtr->MsgQPendTimeMax = OSTCBCurPtr->MsgQPendTime;
 958              		.loc 1 932 0
 959 0196 1E4B     		ldr	r3, .L59+16
 960 0198 1B68     		ldr	r3, [r3]
 961 019a 1D4A     		ldr	r2, .L59+16
 962 019c 1268     		ldr	r2, [r2]
 963 019e 126F     		ldr	r2, [r2, #112]
 964 01a0 5A67     		str	r2, [r3, #116]
 965              	.L53:
 933:..\..\..\..\..\..\Software\uCOS-III\Source/os_task.c ****                 }
 934:..\..\..\..\..\..\Software\uCOS-III\Source/os_task.c **** #endif
 935:..\..\..\..\..\..\Software\uCOS-III\Source/os_task.c ****              }
 936:..\..\..\..\..\..\Software\uCOS-III\Source/os_task.c **** #endif
 937:..\..\..\..\..\..\Software\uCOS-III\Source/os_task.c **** #if (defined(TRACE_CFG_EN) && (TRACE_CFG_EN == DEF_ENABLED))
 938:..\..\..\..\..\..\Software\uCOS-III\Source/os_task.c ****              TRACE_OS_TASK_MSG_Q_PEND(p_msg_q);                 /* Record the event.               
 939:..\..\..\..\..\..\Software\uCOS-III\Source/os_task.c **** #endif
 940:..\..\..\..\..\..\Software\uCOS-III\Source/os_task.c ****             *p_err = OS_ERR_NONE;
 966              		.loc 1 940 0
 967 01a2 3B6B     		ldr	r3, [r7, #48]
 968 01a4 0022     		movs	r2, #0
 969 01a6 1A80     		strh	r2, [r3]
 941:..\..\..\..\..\..\Software\uCOS-III\Source/os_task.c ****              break;
 970              		.loc 1 941 0
 971 01a8 1FE0     		b	.L54
 972              	.L52:
 942:..\..\..\..\..\..\Software\uCOS-III\Source/os_task.c **** 
 943:..\..\..\..\..\..\Software\uCOS-III\Source/os_task.c ****         case OS_STATUS_PEND_ABORT:                              /* Indicate that we aborted        
 944:..\..\..\..\..\..\Software\uCOS-III\Source/os_task.c ****              p_void     = DEF_NULL;
 973              		.loc 1 944 0
 974 01aa 0023     		movs	r3, #0
 975 01ac FB61     		str	r3, [r7, #28]
 945:..\..\..\..\..\..\Software\uCOS-III\Source/os_task.c ****             *p_msg_size = 0u;
 976              		.loc 1 945 0
 977 01ae 7B68     		ldr	r3, [r7, #4]
 978 01b0 0022     		movs	r2, #0
 979 01b2 1A80     		strh	r2, [r3]
 946:..\..\..\..\..\..\Software\uCOS-III\Source/os_task.c ****              if (p_ts != DEF_NULL) {
 980              		.loc 1 946 0
 981 01b4 3B68     		ldr	r3, [r7]
 982 01b6 002B     		cmp	r3, #0
 983 01b8 02D0     		beq	.L55
 947:..\..\..\..\..\..\Software\uCOS-III\Source/os_task.c ****                 *p_ts = 0u;
 984              		.loc 1 947 0
 985 01ba 3B68     		ldr	r3, [r7]
ARM GAS  C:\Users\ADMINI~1\AppData\Local\Temp\ccvBRVNC.s 			page 35


 986 01bc 0022     		movs	r2, #0
 987 01be 1A60     		str	r2, [r3]
 988              	.L55:
 948:..\..\..\..\..\..\Software\uCOS-III\Source/os_task.c ****              }
 949:..\..\..\..\..\..\Software\uCOS-III\Source/os_task.c **** #if (defined(TRACE_CFG_EN) && (TRACE_CFG_EN == DEF_ENABLED))
 950:..\..\..\..\..\..\Software\uCOS-III\Source/os_task.c ****              TRACE_OS_TASK_MSG_Q_PEND_FAILED(p_msg_q);          /* Record the event.               
 951:..\..\..\..\..\..\Software\uCOS-III\Source/os_task.c **** #endif
 952:..\..\..\..\..\..\Software\uCOS-III\Source/os_task.c ****             *p_err      =  OS_ERR_PEND_ABORT;
 989              		.loc 1 952 0
 990 01c0 3B6B     		ldr	r3, [r7, #48]
 991 01c2 174A     		ldr	r2, .L59+32
 992 01c4 1A80     		strh	r2, [r3]
 953:..\..\..\..\..\..\Software\uCOS-III\Source/os_task.c ****              break;
 993              		.loc 1 953 0
 994 01c6 10E0     		b	.L54
 995              	.L57:
 954:..\..\..\..\..\..\Software\uCOS-III\Source/os_task.c **** 
 955:..\..\..\..\..\..\Software\uCOS-III\Source/os_task.c ****         case OS_STATUS_PEND_TIMEOUT:                            /* Indicate that we didn't get even
 956:..\..\..\..\..\..\Software\uCOS-III\Source/os_task.c ****         default:
 957:..\..\..\..\..\..\Software\uCOS-III\Source/os_task.c ****              p_void     = DEF_NULL;
 996              		.loc 1 957 0
 997 01c8 0023     		movs	r3, #0
 998 01ca FB61     		str	r3, [r7, #28]
 958:..\..\..\..\..\..\Software\uCOS-III\Source/os_task.c ****             *p_msg_size = 0u;
 999              		.loc 1 958 0
 1000 01cc 7B68     		ldr	r3, [r7, #4]
 1001 01ce 0022     		movs	r2, #0
 1002 01d0 1A80     		strh	r2, [r3]
 959:..\..\..\..\..\..\Software\uCOS-III\Source/os_task.c **** #if (OS_CFG_TS_EN == DEF_ENABLED)
 960:..\..\..\..\..\..\Software\uCOS-III\Source/os_task.c ****              if (p_ts  != DEF_NULL) {
 1003              		.loc 1 960 0
 1004 01d2 3B68     		ldr	r3, [r7]
 1005 01d4 002B     		cmp	r3, #0
 1006 01d6 04D0     		beq	.L56
 961:..\..\..\..\..\..\Software\uCOS-III\Source/os_task.c ****                 *p_ts = OSTCBCurPtr->TS;
 1007              		.loc 1 961 0
 1008 01d8 0D4B     		ldr	r3, .L59+16
 1009 01da 1B68     		ldr	r3, [r3]
 1010 01dc 9A6C     		ldr	r2, [r3, #72]
 1011 01de 3B68     		ldr	r3, [r7]
 1012 01e0 1A60     		str	r2, [r3]
 1013              	.L56:
 962:..\..\..\..\..\..\Software\uCOS-III\Source/os_task.c ****              }
 963:..\..\..\..\..\..\Software\uCOS-III\Source/os_task.c **** #endif
 964:..\..\..\..\..\..\Software\uCOS-III\Source/os_task.c **** #if (defined(TRACE_CFG_EN) && (TRACE_CFG_EN == DEF_ENABLED))
 965:..\..\..\..\..\..\Software\uCOS-III\Source/os_task.c ****              TRACE_OS_TASK_MSG_Q_PEND_FAILED(p_msg_q);          /* Record the event.               
 966:..\..\..\..\..\..\Software\uCOS-III\Source/os_task.c **** #endif
 967:..\..\..\..\..\..\Software\uCOS-III\Source/os_task.c ****             *p_err      =  OS_ERR_TIMEOUT;
 1014              		.loc 1 967 0
 1015 01e2 3B6B     		ldr	r3, [r7, #48]
 1016 01e4 0F4A     		ldr	r2, .L59+36
 1017 01e6 1A80     		strh	r2, [r3]
 968:..\..\..\..\..\..\Software\uCOS-III\Source/os_task.c ****              break;
 1018              		.loc 1 968 0
 1019 01e8 C046     		nop
 1020              	.L54:
 969:..\..\..\..\..\..\Software\uCOS-III\Source/os_task.c ****     }
ARM GAS  C:\Users\ADMINI~1\AppData\Local\Temp\ccvBRVNC.s 			page 36


 970:..\..\..\..\..\..\Software\uCOS-III\Source/os_task.c ****     CPU_CRITICAL_EXIT();
 1021              		.loc 1 970 0
 1022 01ea FFF7FEFF 		bl	CPU_IntDisMeasStop
 1023 01ee BB69     		ldr	r3, [r7, #24]
 1024 01f0 1800     		movs	r0, r3
 1025 01f2 FFF7FEFF 		bl	CPU_SR_Restore
 971:..\..\..\..\..\..\Software\uCOS-III\Source/os_task.c ****     return (p_void);                                            /* Return received message         
 1026              		.loc 1 971 0
 1027 01f6 FB69     		ldr	r3, [r7, #28]
 1028              	.L40:
 972:..\..\..\..\..\..\Software\uCOS-III\Source/os_task.c **** }
 1029              		.loc 1 972 0
 1030 01f8 1800     		movs	r0, r3
 1031 01fa BD46     		mov	sp, r7
 1032 01fc 09B0     		add	sp, sp, #36
 1033              		@ sp needed
 1034 01fe 90BD     		pop	{r4, r7, pc}
 1035              	.L60:
 1036              		.align	2
 1037              	.L59:
 1038 0200 00000000 		.word	OSIntNestingCtr
 1039 0204 AE610000 		.word	25006
 1040 0208 D5620000 		.word	25301
 1041 020c 255E0000 		.word	24101
 1042 0210 00000000 		.word	OSTCBCurPtr
 1043 0214 B0610000 		.word	25008
 1044 0218 00000000 		.word	OSSchedLockNestingCtr
 1045 021c 636D0000 		.word	28003
 1046 0220 A9610000 		.word	25001
 1047 0224 D9720000 		.word	29401
 1048              		.cfi_endproc
 1049              	.LFE3:
 1050              		.size	OSTaskQPend, .-OSTaskQPend
 1051              		.section	.text.OSTaskQPost,"ax",%progbits
 1052              		.align	2
 1053              		.global	OSTaskQPost
 1054              		.code	16
 1055              		.thumb_func
 1056              		.type	OSTaskQPost, %function
 1057              	OSTaskQPost:
 1058              	.LFB4:
 973:..\..\..\..\..\..\Software\uCOS-III\Source/os_task.c **** #endif
 974:..\..\..\..\..\..\Software\uCOS-III\Source/os_task.c **** 
 975:..\..\..\..\..\..\Software\uCOS-III\Source/os_task.c **** 
 976:..\..\..\..\..\..\Software\uCOS-III\Source/os_task.c **** /*
 977:..\..\..\..\..\..\Software\uCOS-III\Source/os_task.c **** ***************************************************************************************************
 978:..\..\..\..\..\..\Software\uCOS-III\Source/os_task.c **** *                                              ABORT WAITING FOR A MESSAGE
 979:..\..\..\..\..\..\Software\uCOS-III\Source/os_task.c **** *
 980:..\..\..\..\..\..\Software\uCOS-III\Source/os_task.c **** * Description: This function aborts & readies the task specified.  This function should be used to 
 981:..\..\..\..\..\..\Software\uCOS-III\Source/os_task.c **** *              for a message, rather than to normally post the message to the task via OSTaskQPost(
 982:..\..\..\..\..\..\Software\uCOS-III\Source/os_task.c **** *
 983:..\..\..\..\..\..\Software\uCOS-III\Source/os_task.c **** * Arguments  : p_tcb     is a pointer to the task to pend abort
 984:..\..\..\..\..\..\Software\uCOS-III\Source/os_task.c **** *
 985:..\..\..\..\..\..\Software\uCOS-III\Source/os_task.c **** *              opt       provides options for this function:
 986:..\..\..\..\..\..\Software\uCOS-III\Source/os_task.c **** *
 987:..\..\..\..\..\..\Software\uCOS-III\Source/os_task.c **** *                            OS_OPT_POST_NONE         No option specified
 988:..\..\..\..\..\..\Software\uCOS-III\Source/os_task.c **** *                            OS_OPT_POST_NO_SCHED     Indicates that the scheduler will not be call
ARM GAS  C:\Users\ADMINI~1\AppData\Local\Temp\ccvBRVNC.s 			page 37


 989:..\..\..\..\..\..\Software\uCOS-III\Source/os_task.c **** *
 990:..\..\..\..\..\..\Software\uCOS-III\Source/os_task.c **** *              p_err     is a pointer to a variable that will contain an error code returned by thi
 991:..\..\..\..\..\..\Software\uCOS-III\Source/os_task.c **** *
 992:..\..\..\..\..\..\Software\uCOS-III\Source/os_task.c **** *                            OS_ERR_NONE               If the task was readied and informed of the 
 993:..\..\..\..\..\..\Software\uCOS-III\Source/os_task.c **** *                            OS_ERR_OPT_INVALID        If you specified an invalid option
 994:..\..\..\..\..\..\Software\uCOS-III\Source/os_task.c **** *                            OS_ERR_OS_NOT_RUNNING     If uC/OS-III is not running yet
 995:..\..\..\..\..\..\Software\uCOS-III\Source/os_task.c **** *                            OS_ERR_PEND_ABORT_ISR     If you called this function from an ISR
 996:..\..\..\..\..\..\Software\uCOS-III\Source/os_task.c **** *                            OS_ERR_PEND_ABORT_NONE    If task was not pending on a message and thu
 997:..\..\..\..\..\..\Software\uCOS-III\Source/os_task.c **** *                                                      abort
 998:..\..\..\..\..\..\Software\uCOS-III\Source/os_task.c **** *                            OS_ERR_PEND_ABORT_SELF    If you passed a NULL pointer for 'p_tcb'
 999:..\..\..\..\..\..\Software\uCOS-III\Source/os_task.c **** *
1000:..\..\..\..\..\..\Software\uCOS-III\Source/os_task.c **** * Returns    : == DEF_FALSE   if task was not waiting for a message, or upon error.
1001:..\..\..\..\..\..\Software\uCOS-III\Source/os_task.c **** *              == DEF_TRUE    if task was waiting for a message and was readied and informed.
1002:..\..\..\..\..\..\Software\uCOS-III\Source/os_task.c **** *
1003:..\..\..\..\..\..\Software\uCOS-III\Source/os_task.c **** * Note(s)    : none
1004:..\..\..\..\..\..\Software\uCOS-III\Source/os_task.c **** ***************************************************************************************************
1005:..\..\..\..\..\..\Software\uCOS-III\Source/os_task.c **** */
1006:..\..\..\..\..\..\Software\uCOS-III\Source/os_task.c **** 
1007:..\..\..\..\..\..\Software\uCOS-III\Source/os_task.c **** #if (OS_CFG_TASK_Q_EN == DEF_ENABLED) && (OS_CFG_TASK_Q_PEND_ABORT_EN == DEF_ENABLED)
1008:..\..\..\..\..\..\Software\uCOS-III\Source/os_task.c **** CPU_BOOLEAN  OSTaskQPendAbort (OS_TCB  *p_tcb,
1009:..\..\..\..\..\..\Software\uCOS-III\Source/os_task.c ****                                OS_OPT   opt,
1010:..\..\..\..\..\..\Software\uCOS-III\Source/os_task.c ****                                OS_ERR  *p_err)
1011:..\..\..\..\..\..\Software\uCOS-III\Source/os_task.c **** {
1012:..\..\..\..\..\..\Software\uCOS-III\Source/os_task.c ****     CPU_TS         ts;
1013:..\..\..\..\..\..\Software\uCOS-III\Source/os_task.c ****     CPU_SR_ALLOC();
1014:..\..\..\..\..\..\Software\uCOS-III\Source/os_task.c **** 
1015:..\..\..\..\..\..\Software\uCOS-III\Source/os_task.c **** 
1016:..\..\..\..\..\..\Software\uCOS-III\Source/os_task.c **** 
1017:..\..\..\..\..\..\Software\uCOS-III\Source/os_task.c **** #ifdef OS_SAFETY_CRITICAL
1018:..\..\..\..\..\..\Software\uCOS-III\Source/os_task.c ****     if (p_err == DEF_NULL) {
1019:..\..\..\..\..\..\Software\uCOS-III\Source/os_task.c ****         OS_SAFETY_CRITICAL_EXCEPTION();
1020:..\..\..\..\..\..\Software\uCOS-III\Source/os_task.c ****         return (DEF_FALSE);
1021:..\..\..\..\..\..\Software\uCOS-III\Source/os_task.c ****     }
1022:..\..\..\..\..\..\Software\uCOS-III\Source/os_task.c **** #endif
1023:..\..\..\..\..\..\Software\uCOS-III\Source/os_task.c **** 
1024:..\..\..\..\..\..\Software\uCOS-III\Source/os_task.c **** #if (OS_CFG_CALLED_FROM_ISR_CHK_EN == DEF_ENABLED)
1025:..\..\..\..\..\..\Software\uCOS-III\Source/os_task.c ****     if (OSIntNestingCtr > 0u) {                                 /* See if called from ISR ...      
1026:..\..\..\..\..\..\Software\uCOS-III\Source/os_task.c ****        *p_err = OS_ERR_PEND_ABORT_ISR;                          /* ... can't Pend Abort from an ISR
1027:..\..\..\..\..\..\Software\uCOS-III\Source/os_task.c ****         return (DEF_FALSE);
1028:..\..\..\..\..\..\Software\uCOS-III\Source/os_task.c ****     }
1029:..\..\..\..\..\..\Software\uCOS-III\Source/os_task.c **** #endif
1030:..\..\..\..\..\..\Software\uCOS-III\Source/os_task.c **** 
1031:..\..\..\..\..\..\Software\uCOS-III\Source/os_task.c **** #if (OS_CFG_INVALID_OS_CALLS_CHK_EN == DEF_ENABLED)             /* Is the kernel running?          
1032:..\..\..\..\..\..\Software\uCOS-III\Source/os_task.c ****     if (OSRunning != OS_STATE_OS_RUNNING) {
1033:..\..\..\..\..\..\Software\uCOS-III\Source/os_task.c ****        *p_err = OS_ERR_OS_NOT_RUNNING;
1034:..\..\..\..\..\..\Software\uCOS-III\Source/os_task.c ****         return (DEF_FALSE);
1035:..\..\..\..\..\..\Software\uCOS-III\Source/os_task.c ****     }
1036:..\..\..\..\..\..\Software\uCOS-III\Source/os_task.c **** #endif
1037:..\..\..\..\..\..\Software\uCOS-III\Source/os_task.c **** 
1038:..\..\..\..\..\..\Software\uCOS-III\Source/os_task.c **** #if (OS_CFG_ARG_CHK_EN == DEF_ENABLED)                          /* ---------------- VALIDATE ARGUME
1039:..\..\..\..\..\..\Software\uCOS-III\Source/os_task.c ****     switch (opt) {                                              /* User must supply a valid option 
1040:..\..\..\..\..\..\Software\uCOS-III\Source/os_task.c ****         case OS_OPT_POST_NONE:
1041:..\..\..\..\..\..\Software\uCOS-III\Source/os_task.c ****         case OS_OPT_POST_NO_SCHED:
1042:..\..\..\..\..\..\Software\uCOS-III\Source/os_task.c ****              break;
1043:..\..\..\..\..\..\Software\uCOS-III\Source/os_task.c **** 
1044:..\..\..\..\..\..\Software\uCOS-III\Source/os_task.c ****         default:
1045:..\..\..\..\..\..\Software\uCOS-III\Source/os_task.c ****             *p_err = OS_ERR_OPT_INVALID;
ARM GAS  C:\Users\ADMINI~1\AppData\Local\Temp\ccvBRVNC.s 			page 38


1046:..\..\..\..\..\..\Software\uCOS-III\Source/os_task.c ****              return (DEF_FALSE);
1047:..\..\..\..\..\..\Software\uCOS-III\Source/os_task.c ****     }
1048:..\..\..\..\..\..\Software\uCOS-III\Source/os_task.c **** #endif
1049:..\..\..\..\..\..\Software\uCOS-III\Source/os_task.c **** 
1050:..\..\..\..\..\..\Software\uCOS-III\Source/os_task.c ****     CPU_CRITICAL_ENTER();
1051:..\..\..\..\..\..\Software\uCOS-III\Source/os_task.c **** #if (OS_CFG_ARG_CHK_EN == DEF_ENABLED)
1052:..\..\..\..\..\..\Software\uCOS-III\Source/os_task.c ****     if ((p_tcb == DEF_NULL) ||                                  /* Pend abort self?                
1053:..\..\..\..\..\..\Software\uCOS-III\Source/os_task.c ****         (p_tcb == OSTCBCurPtr)) {
1054:..\..\..\..\..\..\Software\uCOS-III\Source/os_task.c ****         CPU_CRITICAL_EXIT();
1055:..\..\..\..\..\..\Software\uCOS-III\Source/os_task.c ****        *p_err = OS_ERR_PEND_ABORT_SELF;                         /* ... doesn't make sense          
1056:..\..\..\..\..\..\Software\uCOS-III\Source/os_task.c ****         return (DEF_FALSE);
1057:..\..\..\..\..\..\Software\uCOS-III\Source/os_task.c ****     }
1058:..\..\..\..\..\..\Software\uCOS-III\Source/os_task.c **** #endif
1059:..\..\..\..\..\..\Software\uCOS-III\Source/os_task.c **** 
1060:..\..\..\..\..\..\Software\uCOS-III\Source/os_task.c ****     if (p_tcb->PendOn != OS_TASK_PEND_ON_TASK_Q) {              /* Is task waiting for a message?  
1061:..\..\..\..\..\..\Software\uCOS-III\Source/os_task.c ****         CPU_CRITICAL_EXIT();                                    /* No                              
1062:..\..\..\..\..\..\Software\uCOS-III\Source/os_task.c ****        *p_err = OS_ERR_PEND_ABORT_NONE;
1063:..\..\..\..\..\..\Software\uCOS-III\Source/os_task.c ****         return (DEF_FALSE);
1064:..\..\..\..\..\..\Software\uCOS-III\Source/os_task.c ****     }
1065:..\..\..\..\..\..\Software\uCOS-III\Source/os_task.c **** 
1066:..\..\..\..\..\..\Software\uCOS-III\Source/os_task.c ****     OS_CRITICAL_ENTER_CPU_EXIT();
1067:..\..\..\..\..\..\Software\uCOS-III\Source/os_task.c **** #if (OS_CFG_TS_EN == DEF_ENABLED)
1068:..\..\..\..\..\..\Software\uCOS-III\Source/os_task.c ****     ts = OS_TS_GET();                                           /* Get timestamp of when the abort 
1069:..\..\..\..\..\..\Software\uCOS-III\Source/os_task.c **** #else
1070:..\..\..\..\..\..\Software\uCOS-III\Source/os_task.c ****     ts = 0u;
1071:..\..\..\..\..\..\Software\uCOS-III\Source/os_task.c **** #endif
1072:..\..\..\..\..\..\Software\uCOS-III\Source/os_task.c ****     OS_PendAbort(DEF_NULL,                                      /* Abort the pend                  
1073:..\..\..\..\..\..\Software\uCOS-III\Source/os_task.c ****                  p_tcb,
1074:..\..\..\..\..\..\Software\uCOS-III\Source/os_task.c ****                  ts);
1075:..\..\..\..\..\..\Software\uCOS-III\Source/os_task.c ****     OS_CRITICAL_EXIT_NO_SCHED();
1076:..\..\..\..\..\..\Software\uCOS-III\Source/os_task.c ****     if ((opt & OS_OPT_POST_NO_SCHED) == 0u) {
1077:..\..\..\..\..\..\Software\uCOS-III\Source/os_task.c ****         OSSched();                                              /* Run the scheduler               
1078:..\..\..\..\..\..\Software\uCOS-III\Source/os_task.c ****     }
1079:..\..\..\..\..\..\Software\uCOS-III\Source/os_task.c ****    *p_err = OS_ERR_NONE;
1080:..\..\..\..\..\..\Software\uCOS-III\Source/os_task.c ****     return (DEF_TRUE);
1081:..\..\..\..\..\..\Software\uCOS-III\Source/os_task.c **** }
1082:..\..\..\..\..\..\Software\uCOS-III\Source/os_task.c **** #endif
1083:..\..\..\..\..\..\Software\uCOS-III\Source/os_task.c **** 
1084:..\..\..\..\..\..\Software\uCOS-III\Source/os_task.c **** 
1085:..\..\..\..\..\..\Software\uCOS-III\Source/os_task.c **** /*
1086:..\..\..\..\..\..\Software\uCOS-III\Source/os_task.c **** ***************************************************************************************************
1087:..\..\..\..\..\..\Software\uCOS-III\Source/os_task.c **** *                                               POST MESSAGE TO A TASK
1088:..\..\..\..\..\..\Software\uCOS-III\Source/os_task.c **** *
1089:..\..\..\..\..\..\Software\uCOS-III\Source/os_task.c **** * Description: This function sends a message to a task.
1090:..\..\..\..\..\..\Software\uCOS-III\Source/os_task.c **** *
1091:..\..\..\..\..\..\Software\uCOS-III\Source/os_task.c **** * Arguments  : p_tcb      is a pointer to the TCB of the task receiving a message.  If you specify 
1092:..\..\..\..\..\..\Software\uCOS-III\Source/os_task.c **** *                         the message will be posted to the task's queue of the calling task.  In o
1093:..\..\..\..\..\..\Software\uCOS-III\Source/os_task.c **** *                         posting a message to yourself.
1094:..\..\..\..\..\..\Software\uCOS-III\Source/os_task.c **** *
1095:..\..\..\..\..\..\Software\uCOS-III\Source/os_task.c **** *              p_void     is a pointer to the message to send.
1096:..\..\..\..\..\..\Software\uCOS-III\Source/os_task.c **** *
1097:..\..\..\..\..\..\Software\uCOS-III\Source/os_task.c **** *              msg_size   is the size of the message sent (in bytes)
1098:..\..\..\..\..\..\Software\uCOS-III\Source/os_task.c **** *
1099:..\..\..\..\..\..\Software\uCOS-III\Source/os_task.c **** *              opt        specifies whether the post will be FIFO or LIFO:
1100:..\..\..\..\..\..\Software\uCOS-III\Source/os_task.c **** *
1101:..\..\..\..\..\..\Software\uCOS-III\Source/os_task.c **** *                             OS_OPT_POST_FIFO       Post at the end   of the queue
1102:..\..\..\..\..\..\Software\uCOS-III\Source/os_task.c **** *                             OS_OPT_POST_LIFO       Post at the front of the queue
ARM GAS  C:\Users\ADMINI~1\AppData\Local\Temp\ccvBRVNC.s 			page 39


1103:..\..\..\..\..\..\Software\uCOS-III\Source/os_task.c **** *
1104:..\..\..\..\..\..\Software\uCOS-III\Source/os_task.c **** *                             OS_OPT_POST_NO_SCHED   Do not run the scheduler after the post
1105:..\..\..\..\..\..\Software\uCOS-III\Source/os_task.c **** *
1106:..\..\..\..\..\..\Software\uCOS-III\Source/os_task.c **** *                          Note(s): 1) OS_OPT_POST_NO_SCHED can be added with one of the other opti
1107:..\..\..\..\..\..\Software\uCOS-III\Source/os_task.c **** *
1108:..\..\..\..\..\..\Software\uCOS-III\Source/os_task.c **** *
1109:..\..\..\..\..\..\Software\uCOS-III\Source/os_task.c **** *              p_err      is a pointer to a variable that will hold the error code associated
1110:..\..\..\..\..\..\Software\uCOS-III\Source/os_task.c **** *                         with the outcome of this call.  Errors can be:
1111:..\..\..\..\..\..\Software\uCOS-III\Source/os_task.c **** *
1112:..\..\..\..\..\..\Software\uCOS-III\Source/os_task.c **** *                             OS_ERR_NONE              The call was successful and the message was 
1113:..\..\..\..\..\..\Software\uCOS-III\Source/os_task.c **** *                             OS_ERR_INT_Q_FULL        If the deferred interrupt post queue is full
1114:..\..\..\..\..\..\Software\uCOS-III\Source/os_task.c **** *                             OS_ERR_MSG_POOL_EMPTY    If there are no more OS_MSGs available from 
1115:..\..\..\..\..\..\Software\uCOS-III\Source/os_task.c **** *                             OS_ERR_OPT_INVALID       If you specified an invalid option
1116:..\..\..\..\..\..\Software\uCOS-III\Source/os_task.c **** *                             OS_ERR_OS_NOT_RUNNING    If uC/OS-III is not running yet
1117:..\..\..\..\..\..\Software\uCOS-III\Source/os_task.c **** *                             OS_ERR_Q_MAX             If the queue is full
1118:..\..\..\..\..\..\Software\uCOS-III\Source/os_task.c **** *                             OS_ERR_STATE_INVALID     If the task is in an invalid state.  This sh
1119:..\..\..\..\..\..\Software\uCOS-III\Source/os_task.c **** *                                                      and if it does, would be considered a system
1120:..\..\..\..\..\..\Software\uCOS-III\Source/os_task.c **** *
1121:..\..\..\..\..\..\Software\uCOS-III\Source/os_task.c **** * Returns    : none
1122:..\..\..\..\..\..\Software\uCOS-III\Source/os_task.c **** *
1123:..\..\..\..\..\..\Software\uCOS-III\Source/os_task.c **** * Note(s)    : none
1124:..\..\..\..\..\..\Software\uCOS-III\Source/os_task.c **** ***************************************************************************************************
1125:..\..\..\..\..\..\Software\uCOS-III\Source/os_task.c **** */
1126:..\..\..\..\..\..\Software\uCOS-III\Source/os_task.c **** 
1127:..\..\..\..\..\..\Software\uCOS-III\Source/os_task.c **** #if (OS_CFG_TASK_Q_EN == DEF_ENABLED)
1128:..\..\..\..\..\..\Software\uCOS-III\Source/os_task.c **** void  OSTaskQPost (OS_TCB       *p_tcb,
1129:..\..\..\..\..\..\Software\uCOS-III\Source/os_task.c ****                    void         *p_void,
1130:..\..\..\..\..\..\Software\uCOS-III\Source/os_task.c ****                    OS_MSG_SIZE   msg_size,
1131:..\..\..\..\..\..\Software\uCOS-III\Source/os_task.c ****                    OS_OPT        opt,
1132:..\..\..\..\..\..\Software\uCOS-III\Source/os_task.c ****                    OS_ERR       *p_err)
1133:..\..\..\..\..\..\Software\uCOS-III\Source/os_task.c **** {
 1059              		.loc 1 1133 0
 1060              		.cfi_startproc
 1061              		@ args = 4, pretend = 0, frame = 24
 1062              		@ frame_needed = 1, uses_anonymous_args = 0
 1063 0000 90B5     		push	{r4, r7, lr}
 1064              		.cfi_def_cfa_offset 12
 1065              		.cfi_offset 4, -12
 1066              		.cfi_offset 7, -8
 1067              		.cfi_offset 14, -4
 1068 0002 89B0     		sub	sp, sp, #36
 1069              		.cfi_def_cfa_offset 48
 1070 0004 02AF     		add	r7, sp, #8
 1071              		.cfi_def_cfa 7, 40
 1072 0006 F860     		str	r0, [r7, #12]
 1073 0008 B960     		str	r1, [r7, #8]
 1074 000a 1900     		movs	r1, r3
 1075 000c BB1D     		adds	r3, r7, #6
 1076 000e 1A80     		strh	r2, [r3]
 1077 0010 3B1D     		adds	r3, r7, #4
 1078 0012 0A1C     		adds	r2, r1, #0
 1079 0014 1A80     		strh	r2, [r3]
1134:..\..\..\..\..\..\Software\uCOS-III\Source/os_task.c ****     CPU_TS   ts;
1135:..\..\..\..\..\..\Software\uCOS-III\Source/os_task.c **** 
1136:..\..\..\..\..\..\Software\uCOS-III\Source/os_task.c **** 
1137:..\..\..\..\..\..\Software\uCOS-III\Source/os_task.c **** 
1138:..\..\..\..\..\..\Software\uCOS-III\Source/os_task.c **** #ifdef OS_SAFETY_CRITICAL
ARM GAS  C:\Users\ADMINI~1\AppData\Local\Temp\ccvBRVNC.s 			page 40


1139:..\..\..\..\..\..\Software\uCOS-III\Source/os_task.c ****     if (p_err == DEF_NULL) {
1140:..\..\..\..\..\..\Software\uCOS-III\Source/os_task.c ****         OS_SAFETY_CRITICAL_EXCEPTION();
1141:..\..\..\..\..\..\Software\uCOS-III\Source/os_task.c ****         return;
1142:..\..\..\..\..\..\Software\uCOS-III\Source/os_task.c ****     }
1143:..\..\..\..\..\..\Software\uCOS-III\Source/os_task.c **** #endif
1144:..\..\..\..\..\..\Software\uCOS-III\Source/os_task.c **** 
1145:..\..\..\..\..\..\Software\uCOS-III\Source/os_task.c **** #if (OS_CFG_INVALID_OS_CALLS_CHK_EN == DEF_ENABLED)             /* Is the kernel running?          
1146:..\..\..\..\..\..\Software\uCOS-III\Source/os_task.c ****     if (OSRunning != OS_STATE_OS_RUNNING) {
1147:..\..\..\..\..\..\Software\uCOS-III\Source/os_task.c ****        *p_err = OS_ERR_OS_NOT_RUNNING;
1148:..\..\..\..\..\..\Software\uCOS-III\Source/os_task.c ****         return;
1149:..\..\..\..\..\..\Software\uCOS-III\Source/os_task.c ****     }
1150:..\..\..\..\..\..\Software\uCOS-III\Source/os_task.c **** #endif
1151:..\..\..\..\..\..\Software\uCOS-III\Source/os_task.c **** 
1152:..\..\..\..\..\..\Software\uCOS-III\Source/os_task.c **** #if (OS_CFG_ARG_CHK_EN == DEF_ENABLED)                          /* ---------------- VALIDATE ARGUME
1153:..\..\..\..\..\..\Software\uCOS-III\Source/os_task.c ****     switch (opt) {                                              /* User must supply a valid option 
 1080              		.loc 1 1153 0
 1081 0016 3B1D     		adds	r3, r7, #4
 1082 0018 1B88     		ldrh	r3, [r3]
 1083 001a 102B     		cmp	r3, #16
 1084 001c 0ED0     		beq	.L67
 1085 001e 02DC     		bgt	.L64
 1086 0020 002B     		cmp	r3, #0
 1087 0022 0BD0     		beq	.L67
 1088 0024 06E0     		b	.L62
 1089              	.L64:
 1090 0026 8022     		movs	r2, #128
 1091 0028 1202     		lsls	r2, r2, #8
 1092 002a 9342     		cmp	r3, r2
 1093 002c 06D0     		beq	.L67
 1094 002e 0E4A     		ldr	r2, .L68
 1095 0030 9342     		cmp	r3, r2
 1096 0032 03D0     		beq	.L67
 1097              	.L62:
1154:..\..\..\..\..\..\Software\uCOS-III\Source/os_task.c ****         case OS_OPT_POST_FIFO:
1155:..\..\..\..\..\..\Software\uCOS-III\Source/os_task.c ****         case OS_OPT_POST_LIFO:
1156:..\..\..\..\..\..\Software\uCOS-III\Source/os_task.c ****         case OS_OPT_POST_FIFO | OS_OPT_POST_NO_SCHED:
1157:..\..\..\..\..\..\Software\uCOS-III\Source/os_task.c ****         case OS_OPT_POST_LIFO | OS_OPT_POST_NO_SCHED:
1158:..\..\..\..\..\..\Software\uCOS-III\Source/os_task.c ****              break;
1159:..\..\..\..\..\..\Software\uCOS-III\Source/os_task.c **** 
1160:..\..\..\..\..\..\Software\uCOS-III\Source/os_task.c ****         default:
1161:..\..\..\..\..\..\Software\uCOS-III\Source/os_task.c **** #if (defined(TRACE_CFG_EN) && (TRACE_CFG_EN == DEF_ENABLED))
1162:..\..\..\..\..\..\Software\uCOS-III\Source/os_task.c ****              TRACE_OS_TASK_MSG_Q_POST_FAILED(&p_tcb->MsgQ);     /* Record the event.               
1163:..\..\..\..\..\..\Software\uCOS-III\Source/os_task.c **** #endif
1164:..\..\..\..\..\..\Software\uCOS-III\Source/os_task.c ****             *p_err = OS_ERR_OPT_INVALID;
 1098              		.loc 1 1164 0
 1099 0034 BB6A     		ldr	r3, [r7, #40]
 1100 0036 0D4A     		ldr	r2, .L68+4
 1101 0038 1A80     		strh	r2, [r3]
1165:..\..\..\..\..\..\Software\uCOS-III\Source/os_task.c ****              return;
 1102              		.loc 1 1165 0
 1103 003a 11E0     		b	.L61
 1104              	.L67:
1158:..\..\..\..\..\..\Software\uCOS-III\Source/os_task.c **** 
 1105              		.loc 1 1158 0
 1106 003c C046     		nop
1166:..\..\..\..\..\..\Software\uCOS-III\Source/os_task.c ****     }
1167:..\..\..\..\..\..\Software\uCOS-III\Source/os_task.c **** #endif
ARM GAS  C:\Users\ADMINI~1\AppData\Local\Temp\ccvBRVNC.s 			page 41


1168:..\..\..\..\..\..\Software\uCOS-III\Source/os_task.c **** 
1169:..\..\..\..\..\..\Software\uCOS-III\Source/os_task.c **** #if (OS_CFG_TS_EN == DEF_ENABLED)
1170:..\..\..\..\..\..\Software\uCOS-III\Source/os_task.c ****     ts = OS_TS_GET();                                           /* Get timestamp                   
 1107              		.loc 1 1170 0
 1108 003e FFF7FEFF 		bl	CPU_TS_TmrRd
 1109 0042 0300     		movs	r3, r0
 1110 0044 7B61     		str	r3, [r7, #20]
1171:..\..\..\..\..\..\Software\uCOS-III\Source/os_task.c **** #else
1172:..\..\..\..\..\..\Software\uCOS-III\Source/os_task.c ****     ts = 0u;
1173:..\..\..\..\..\..\Software\uCOS-III\Source/os_task.c **** #endif
1174:..\..\..\..\..\..\Software\uCOS-III\Source/os_task.c **** 
1175:..\..\..\..\..\..\Software\uCOS-III\Source/os_task.c **** #if (OS_CFG_ISR_POST_DEFERRED_EN == DEF_ENABLED)
1176:..\..\..\..\..\..\Software\uCOS-III\Source/os_task.c ****     if (OSIntNestingCtr > 0u) {
1177:..\..\..\..\..\..\Software\uCOS-III\Source/os_task.c ****         OS_IntQPost(OS_OBJ_TYPE_TASK_MSG,                       /* Post to ISR queue               
1178:..\..\..\..\..\..\Software\uCOS-III\Source/os_task.c ****                     p_tcb,
1179:..\..\..\..\..\..\Software\uCOS-III\Source/os_task.c ****                     p_void,
1180:..\..\..\..\..\..\Software\uCOS-III\Source/os_task.c ****                     msg_size,
1181:..\..\..\..\..\..\Software\uCOS-III\Source/os_task.c ****                     0u,
1182:..\..\..\..\..\..\Software\uCOS-III\Source/os_task.c ****                     opt,
1183:..\..\..\..\..\..\Software\uCOS-III\Source/os_task.c ****                     ts,
1184:..\..\..\..\..\..\Software\uCOS-III\Source/os_task.c ****                     p_err);
1185:..\..\..\..\..\..\Software\uCOS-III\Source/os_task.c ****         return;
1186:..\..\..\..\..\..\Software\uCOS-III\Source/os_task.c ****     }
1187:..\..\..\..\..\..\Software\uCOS-III\Source/os_task.c **** #endif
1188:..\..\..\..\..\..\Software\uCOS-III\Source/os_task.c **** 
1189:..\..\..\..\..\..\Software\uCOS-III\Source/os_task.c **** #if (defined(TRACE_CFG_EN) && (TRACE_CFG_EN == DEF_ENABLED))
1190:..\..\..\..\..\..\Software\uCOS-III\Source/os_task.c ****     TRACE_OS_TASK_MSG_Q_POST(&p_tcb->MsgQ);                     /* Record the event.               
1191:..\..\..\..\..\..\Software\uCOS-III\Source/os_task.c **** #endif
1192:..\..\..\..\..\..\Software\uCOS-III\Source/os_task.c **** 
1193:..\..\..\..\..\..\Software\uCOS-III\Source/os_task.c ****     OS_TaskQPost(p_tcb,
 1111              		.loc 1 1193 0
 1112 0046 3B1D     		adds	r3, r7, #4
 1113 0048 1C88     		ldrh	r4, [r3]
 1114 004a BB1D     		adds	r3, r7, #6
 1115 004c 1A88     		ldrh	r2, [r3]
 1116 004e B968     		ldr	r1, [r7, #8]
 1117 0050 F868     		ldr	r0, [r7, #12]
 1118 0052 BB6A     		ldr	r3, [r7, #40]
 1119 0054 0193     		str	r3, [sp, #4]
 1120 0056 7B69     		ldr	r3, [r7, #20]
 1121 0058 0093     		str	r3, [sp]
 1122 005a 2300     		movs	r3, r4
 1123 005c FFF7FEFF 		bl	OS_TaskQPost
 1124              	.L61:
1194:..\..\..\..\..\..\Software\uCOS-III\Source/os_task.c ****                  p_void,
1195:..\..\..\..\..\..\Software\uCOS-III\Source/os_task.c ****                  msg_size,
1196:..\..\..\..\..\..\Software\uCOS-III\Source/os_task.c ****                  opt,
1197:..\..\..\..\..\..\Software\uCOS-III\Source/os_task.c ****                  ts,
1198:..\..\..\..\..\..\Software\uCOS-III\Source/os_task.c ****                  p_err);
1199:..\..\..\..\..\..\Software\uCOS-III\Source/os_task.c **** }
 1125              		.loc 1 1199 0
 1126 0060 BD46     		mov	sp, r7
 1127 0062 07B0     		add	sp, sp, #28
 1128              		@ sp needed
 1129 0064 90BD     		pop	{r4, r7, pc}
 1130              	.L69:
 1131 0066 C046     		.align	2
ARM GAS  C:\Users\ADMINI~1\AppData\Local\Temp\ccvBRVNC.s 			page 42


 1132              	.L68:
 1133 0068 10800000 		.word	32784
 1134 006c 255E0000 		.word	24101
 1135              		.cfi_endproc
 1136              	.LFE4:
 1137              		.size	OSTaskQPost, .-OSTaskQPost
 1138              		.section	.text.OSTaskRegGet,"ax",%progbits
 1139              		.align	2
 1140              		.global	OSTaskRegGet
 1141              		.code	16
 1142              		.thumb_func
 1143              		.type	OSTaskRegGet, %function
 1144              	OSTaskRegGet:
 1145              	.LFB5:
1200:..\..\..\..\..\..\Software\uCOS-III\Source/os_task.c **** #endif
1201:..\..\..\..\..\..\Software\uCOS-III\Source/os_task.c **** 
1202:..\..\..\..\..\..\Software\uCOS-III\Source/os_task.c **** 
1203:..\..\..\..\..\..\Software\uCOS-III\Source/os_task.c **** /*
1204:..\..\..\..\..\..\Software\uCOS-III\Source/os_task.c **** ***************************************************************************************************
1205:..\..\..\..\..\..\Software\uCOS-III\Source/os_task.c **** *                                       GET THE CURRENT VALUE OF A TASK REGISTER
1206:..\..\..\..\..\..\Software\uCOS-III\Source/os_task.c **** *
1207:..\..\..\..\..\..\Software\uCOS-III\Source/os_task.c **** * Description: This function is called to obtain the current value of a task register.  Task regist
1208:..\..\..\..\..\..\Software\uCOS-III\Source/os_task.c **** *              specific and can be used to store task specific values such as 'error numbers' (i.e.
1209:..\..\..\..\..\..\Software\uCOS-III\Source/os_task.c **** *              etc.
1210:..\..\..\..\..\..\Software\uCOS-III\Source/os_task.c **** *
1211:..\..\..\..\..\..\Software\uCOS-III\Source/os_task.c **** * Arguments  : p_tcb     is a pointer to the OS_TCB of the task you want to read the register from.
1212:..\..\..\..\..\..\Software\uCOS-III\Source/os_task.c **** *                        NULL pointer then you will get the register of the current task.
1213:..\..\..\..\..\..\Software\uCOS-III\Source/os_task.c **** *
1214:..\..\..\..\..\..\Software\uCOS-III\Source/os_task.c **** *              id        is the 'id' of the desired task variable.  Note that the 'id' must be less
1215:..\..\..\..\..\..\Software\uCOS-III\Source/os_task.c **** *                        OS_CFG_TASK_REG_TBL_SIZE
1216:..\..\..\..\..\..\Software\uCOS-III\Source/os_task.c **** *
1217:..\..\..\..\..\..\Software\uCOS-III\Source/os_task.c **** *              p_err     is a pointer to a variable that will hold an error code related to this ca
1218:..\..\..\..\..\..\Software\uCOS-III\Source/os_task.c **** *
1219:..\..\..\..\..\..\Software\uCOS-III\Source/os_task.c **** *                            OS_ERR_NONE               If the call was successful
1220:..\..\..\..\..\..\Software\uCOS-III\Source/os_task.c **** *                            OS_ERR_REG_ID_INVALID     If the 'id' is not between 0 and OS_CFG_TASK
1221:..\..\..\..\..\..\Software\uCOS-III\Source/os_task.c **** *
1222:..\..\..\..\..\..\Software\uCOS-III\Source/os_task.c **** * Returns    : The current value of the task's register or 0 if an error is detected.
1223:..\..\..\..\..\..\Software\uCOS-III\Source/os_task.c **** *
1224:..\..\..\..\..\..\Software\uCOS-III\Source/os_task.c **** * Note(s)    : none
1225:..\..\..\..\..\..\Software\uCOS-III\Source/os_task.c **** ***************************************************************************************************
1226:..\..\..\..\..\..\Software\uCOS-III\Source/os_task.c **** */
1227:..\..\..\..\..\..\Software\uCOS-III\Source/os_task.c **** 
1228:..\..\..\..\..\..\Software\uCOS-III\Source/os_task.c **** #if (OS_CFG_TASK_REG_TBL_SIZE > 0u)
1229:..\..\..\..\..\..\Software\uCOS-III\Source/os_task.c **** OS_REG  OSTaskRegGet (OS_TCB     *p_tcb,
1230:..\..\..\..\..\..\Software\uCOS-III\Source/os_task.c ****                       OS_REG_ID   id,
1231:..\..\..\..\..\..\Software\uCOS-III\Source/os_task.c ****                       OS_ERR     *p_err)
1232:..\..\..\..\..\..\Software\uCOS-III\Source/os_task.c **** {
 1146              		.loc 1 1232 0
 1147              		.cfi_startproc
 1148              		@ args = 0, pretend = 0, frame = 24
 1149              		@ frame_needed = 1, uses_anonymous_args = 0
 1150 0000 80B5     		push	{r7, lr}
 1151              		.cfi_def_cfa_offset 8
 1152              		.cfi_offset 7, -8
 1153              		.cfi_offset 14, -4
 1154 0002 86B0     		sub	sp, sp, #24
 1155              		.cfi_def_cfa_offset 32
ARM GAS  C:\Users\ADMINI~1\AppData\Local\Temp\ccvBRVNC.s 			page 43


 1156 0004 00AF     		add	r7, sp, #0
 1157              		.cfi_def_cfa_register 7
 1158 0006 F860     		str	r0, [r7, #12]
 1159 0008 7A60     		str	r2, [r7, #4]
 1160 000a 0B23     		movs	r3, #11
 1161 000c FB18     		adds	r3, r7, r3
 1162 000e 0A1C     		adds	r2, r1, #0
 1163 0010 1A70     		strb	r2, [r3]
1233:..\..\..\..\..\..\Software\uCOS-III\Source/os_task.c ****     OS_REG     value;
1234:..\..\..\..\..\..\Software\uCOS-III\Source/os_task.c ****     CPU_SR_ALLOC();
 1164              		.loc 1 1234 0
 1165 0012 0023     		movs	r3, #0
 1166 0014 7B61     		str	r3, [r7, #20]
1235:..\..\..\..\..\..\Software\uCOS-III\Source/os_task.c **** 
1236:..\..\..\..\..\..\Software\uCOS-III\Source/os_task.c **** 
1237:..\..\..\..\..\..\Software\uCOS-III\Source/os_task.c **** 
1238:..\..\..\..\..\..\Software\uCOS-III\Source/os_task.c **** #ifdef OS_SAFETY_CRITICAL
1239:..\..\..\..\..\..\Software\uCOS-III\Source/os_task.c ****     if (p_err == DEF_NULL) {
1240:..\..\..\..\..\..\Software\uCOS-III\Source/os_task.c ****         OS_SAFETY_CRITICAL_EXCEPTION();
1241:..\..\..\..\..\..\Software\uCOS-III\Source/os_task.c ****         return (0u);
1242:..\..\..\..\..\..\Software\uCOS-III\Source/os_task.c ****     }
1243:..\..\..\..\..\..\Software\uCOS-III\Source/os_task.c **** #endif
1244:..\..\..\..\..\..\Software\uCOS-III\Source/os_task.c **** 
1245:..\..\..\..\..\..\Software\uCOS-III\Source/os_task.c **** #if (OS_CFG_ARG_CHK_EN == DEF_ENABLED)
1246:..\..\..\..\..\..\Software\uCOS-III\Source/os_task.c ****     if (id >= OS_CFG_TASK_REG_TBL_SIZE) {
 1167              		.loc 1 1246 0
 1168 0016 0B23     		movs	r3, #11
 1169 0018 FB18     		adds	r3, r7, r3
 1170 001a 1B78     		ldrb	r3, [r3]
 1171 001c 002B     		cmp	r3, #0
 1172 001e 04D0     		beq	.L71
1247:..\..\..\..\..\..\Software\uCOS-III\Source/os_task.c ****        *p_err = OS_ERR_REG_ID_INVALID;
 1173              		.loc 1 1247 0
 1174 0020 7B68     		ldr	r3, [r7, #4]
 1175 0022 134A     		ldr	r2, .L74
 1176 0024 1A80     		strh	r2, [r3]
1248:..\..\..\..\..\..\Software\uCOS-III\Source/os_task.c ****         return (0u);
 1177              		.loc 1 1248 0
 1178 0026 0023     		movs	r3, #0
 1179 0028 1DE0     		b	.L72
 1180              	.L71:
1249:..\..\..\..\..\..\Software\uCOS-III\Source/os_task.c ****     }
1250:..\..\..\..\..\..\Software\uCOS-III\Source/os_task.c **** #endif
1251:..\..\..\..\..\..\Software\uCOS-III\Source/os_task.c **** 
1252:..\..\..\..\..\..\Software\uCOS-III\Source/os_task.c ****     CPU_CRITICAL_ENTER();
 1181              		.loc 1 1252 0
 1182 002a FFF7FEFF 		bl	CPU_SR_Save
 1183 002e 0300     		movs	r3, r0
 1184 0030 7B61     		str	r3, [r7, #20]
 1185 0032 FFF7FEFF 		bl	CPU_IntDisMeasStart
1253:..\..\..\..\..\..\Software\uCOS-III\Source/os_task.c ****     if (p_tcb == DEF_NULL) {
 1186              		.loc 1 1253 0
 1187 0036 FB68     		ldr	r3, [r7, #12]
 1188 0038 002B     		cmp	r3, #0
 1189 003a 02D1     		bne	.L73
1254:..\..\..\..\..\..\Software\uCOS-III\Source/os_task.c ****         p_tcb = OSTCBCurPtr;
 1190              		.loc 1 1254 0
ARM GAS  C:\Users\ADMINI~1\AppData\Local\Temp\ccvBRVNC.s 			page 44


 1191 003c 0D4B     		ldr	r3, .L74+4
 1192 003e 1B68     		ldr	r3, [r3]
 1193 0040 FB60     		str	r3, [r7, #12]
 1194              	.L73:
1255:..\..\..\..\..\..\Software\uCOS-III\Source/os_task.c ****     }
1256:..\..\..\..\..\..\Software\uCOS-III\Source/os_task.c ****     value = p_tcb->RegTbl[id];
 1195              		.loc 1 1256 0
 1196 0042 0B23     		movs	r3, #11
 1197 0044 FB18     		adds	r3, r7, r3
 1198 0046 1A78     		ldrb	r2, [r3]
 1199 0048 FB68     		ldr	r3, [r7, #12]
 1200 004a 1E32     		adds	r2, r2, #30
 1201 004c 9200     		lsls	r2, r2, #2
 1202 004e D358     		ldr	r3, [r2, r3]
 1203 0050 3B61     		str	r3, [r7, #16]
1257:..\..\..\..\..\..\Software\uCOS-III\Source/os_task.c ****     CPU_CRITICAL_EXIT();
 1204              		.loc 1 1257 0
 1205 0052 FFF7FEFF 		bl	CPU_IntDisMeasStop
 1206 0056 7B69     		ldr	r3, [r7, #20]
 1207 0058 1800     		movs	r0, r3
 1208 005a FFF7FEFF 		bl	CPU_SR_Restore
1258:..\..\..\..\..\..\Software\uCOS-III\Source/os_task.c ****    *p_err = OS_ERR_NONE;
 1209              		.loc 1 1258 0
 1210 005e 7B68     		ldr	r3, [r7, #4]
 1211 0060 0022     		movs	r2, #0
 1212 0062 1A80     		strh	r2, [r3]
1259:..\..\..\..\..\..\Software\uCOS-III\Source/os_task.c ****     return (value);
 1213              		.loc 1 1259 0
 1214 0064 3B69     		ldr	r3, [r7, #16]
 1215              	.L72:
1260:..\..\..\..\..\..\Software\uCOS-III\Source/os_task.c **** }
 1216              		.loc 1 1260 0
 1217 0066 1800     		movs	r0, r3
 1218 0068 BD46     		mov	sp, r7
 1219 006a 06B0     		add	sp, sp, #24
 1220              		@ sp needed
 1221 006c 80BD     		pop	{r7, pc}
 1222              	.L75:
 1223 006e C046     		.align	2
 1224              	.L74:
 1225 0070 79690000 		.word	27001
 1226 0074 00000000 		.word	OSTCBCurPtr
 1227              		.cfi_endproc
 1228              	.LFE5:
 1229              		.size	OSTaskRegGet, .-OSTaskRegGet
 1230              		.section	.text.OSTaskRegGetID,"ax",%progbits
 1231              		.align	2
 1232              		.global	OSTaskRegGetID
 1233              		.code	16
 1234              		.thumb_func
 1235              		.type	OSTaskRegGetID, %function
 1236              	OSTaskRegGetID:
 1237              	.LFB6:
1261:..\..\..\..\..\..\Software\uCOS-III\Source/os_task.c **** #endif
1262:..\..\..\..\..\..\Software\uCOS-III\Source/os_task.c **** 
1263:..\..\..\..\..\..\Software\uCOS-III\Source/os_task.c **** 
1264:..\..\..\..\..\..\Software\uCOS-III\Source/os_task.c **** /*
ARM GAS  C:\Users\ADMINI~1\AppData\Local\Temp\ccvBRVNC.s 			page 45


1265:..\..\..\..\..\..\Software\uCOS-III\Source/os_task.c **** ***************************************************************************************************
1266:..\..\..\..\..\..\Software\uCOS-III\Source/os_task.c **** *                                    ALLOCATE THE NEXT AVAILABLE TASK REGISTER ID
1267:..\..\..\..\..\..\Software\uCOS-III\Source/os_task.c **** *
1268:..\..\..\..\..\..\Software\uCOS-III\Source/os_task.c **** * Description: This function is called to obtain a task register ID.  This function thus allows tas
1269:..\..\..\..\..\..\Software\uCOS-III\Source/os_task.c **** *              allocated dynamically instead of statically.
1270:..\..\..\..\..\..\Software\uCOS-III\Source/os_task.c **** *
1271:..\..\..\..\..\..\Software\uCOS-III\Source/os_task.c **** * Arguments  : p_err       is a pointer to a variable that will hold an error code related to this 
1272:..\..\..\..\..\..\Software\uCOS-III\Source/os_task.c **** *
1273:..\..\..\..\..\..\Software\uCOS-III\Source/os_task.c **** *                            OS_ERR_NONE               If the call was successful
1274:..\..\..\..\..\..\Software\uCOS-III\Source/os_task.c **** *                            OS_ERR_NO_MORE_ID_AVAIL   If you are attempting to assign more task re
1275:..\..\..\..\..\..\Software\uCOS-III\Source/os_task.c **** *                                                          have available through OS_CFG_TASK_REG_T
1276:..\..\..\..\..\..\Software\uCOS-III\Source/os_task.c **** *
1277:..\..\..\..\..\..\Software\uCOS-III\Source/os_task.c **** * Returns    : The next available task register 'id' or OS_CFG_TASK_REG_TBL_SIZE if an error is det
1278:..\..\..\..\..\..\Software\uCOS-III\Source/os_task.c **** *
1279:..\..\..\..\..\..\Software\uCOS-III\Source/os_task.c **** * Note(s)    : none
1280:..\..\..\..\..\..\Software\uCOS-III\Source/os_task.c **** ***************************************************************************************************
1281:..\..\..\..\..\..\Software\uCOS-III\Source/os_task.c **** */
1282:..\..\..\..\..\..\Software\uCOS-III\Source/os_task.c **** 
1283:..\..\..\..\..\..\Software\uCOS-III\Source/os_task.c **** #if (OS_CFG_TASK_REG_TBL_SIZE > 0u)
1284:..\..\..\..\..\..\Software\uCOS-III\Source/os_task.c **** OS_REG_ID  OSTaskRegGetID (OS_ERR  *p_err)
1285:..\..\..\..\..\..\Software\uCOS-III\Source/os_task.c **** {
 1238              		.loc 1 1285 0
 1239              		.cfi_startproc
 1240              		@ args = 0, pretend = 0, frame = 16
 1241              		@ frame_needed = 1, uses_anonymous_args = 0
 1242 0000 80B5     		push	{r7, lr}
 1243              		.cfi_def_cfa_offset 8
 1244              		.cfi_offset 7, -8
 1245              		.cfi_offset 14, -4
 1246 0002 84B0     		sub	sp, sp, #16
 1247              		.cfi_def_cfa_offset 24
 1248 0004 00AF     		add	r7, sp, #0
 1249              		.cfi_def_cfa_register 7
 1250 0006 7860     		str	r0, [r7, #4]
1286:..\..\..\..\..\..\Software\uCOS-III\Source/os_task.c ****     OS_REG_ID  id;
1287:..\..\..\..\..\..\Software\uCOS-III\Source/os_task.c ****     CPU_SR_ALLOC();
 1251              		.loc 1 1287 0
 1252 0008 0023     		movs	r3, #0
 1253 000a FB60     		str	r3, [r7, #12]
1288:..\..\..\..\..\..\Software\uCOS-III\Source/os_task.c **** 
1289:..\..\..\..\..\..\Software\uCOS-III\Source/os_task.c **** 
1290:..\..\..\..\..\..\Software\uCOS-III\Source/os_task.c **** 
1291:..\..\..\..\..\..\Software\uCOS-III\Source/os_task.c **** #ifdef OS_SAFETY_CRITICAL
1292:..\..\..\..\..\..\Software\uCOS-III\Source/os_task.c ****     if (p_err == DEF_NULL) {
1293:..\..\..\..\..\..\Software\uCOS-III\Source/os_task.c ****         OS_SAFETY_CRITICAL_EXCEPTION();
1294:..\..\..\..\..\..\Software\uCOS-III\Source/os_task.c ****         return ((OS_REG_ID)OS_CFG_TASK_REG_TBL_SIZE);
1295:..\..\..\..\..\..\Software\uCOS-III\Source/os_task.c ****     }
1296:..\..\..\..\..\..\Software\uCOS-III\Source/os_task.c **** #endif
1297:..\..\..\..\..\..\Software\uCOS-III\Source/os_task.c **** 
1298:..\..\..\..\..\..\Software\uCOS-III\Source/os_task.c ****     CPU_CRITICAL_ENTER();
 1254              		.loc 1 1298 0
 1255 000c FFF7FEFF 		bl	CPU_SR_Save
 1256 0010 0300     		movs	r3, r0
 1257 0012 FB60     		str	r3, [r7, #12]
 1258 0014 FFF7FEFF 		bl	CPU_IntDisMeasStart
1299:..\..\..\..\..\..\Software\uCOS-III\Source/os_task.c ****     if (OSTaskRegNextAvailID >= OS_CFG_TASK_REG_TBL_SIZE) {     /* See if we exceeded the number of
 1259              		.loc 1 1299 0
ARM GAS  C:\Users\ADMINI~1\AppData\Local\Temp\ccvBRVNC.s 			page 46


 1260 0018 144B     		ldr	r3, .L79
 1261 001a 1B78     		ldrb	r3, [r3]
 1262 001c 002B     		cmp	r3, #0
 1263 001e 0AD0     		beq	.L77
1300:..\..\..\..\..\..\Software\uCOS-III\Source/os_task.c ****        *p_err = OS_ERR_NO_MORE_ID_AVAIL;                        /* Yes, cannot allocate more task r
 1264              		.loc 1 1300 0
 1265 0020 7B68     		ldr	r3, [r7, #4]
 1266 0022 134A     		ldr	r2, .L79+4
 1267 0024 1A80     		strh	r2, [r3]
1301:..\..\..\..\..\..\Software\uCOS-III\Source/os_task.c ****         CPU_CRITICAL_EXIT();
 1268              		.loc 1 1301 0
 1269 0026 FFF7FEFF 		bl	CPU_IntDisMeasStop
 1270 002a FB68     		ldr	r3, [r7, #12]
 1271 002c 1800     		movs	r0, r3
 1272 002e FFF7FEFF 		bl	CPU_SR_Restore
1302:..\..\..\..\..\..\Software\uCOS-III\Source/os_task.c ****         return (OS_CFG_TASK_REG_TBL_SIZE);
 1273              		.loc 1 1302 0
 1274 0032 0123     		movs	r3, #1
 1275 0034 16E0     		b	.L78
 1276              	.L77:
1303:..\..\..\..\..\..\Software\uCOS-III\Source/os_task.c ****     }
1304:..\..\..\..\..\..\Software\uCOS-III\Source/os_task.c **** 
1305:..\..\..\..\..\..\Software\uCOS-III\Source/os_task.c ****     id    = OSTaskRegNextAvailID;                               /* Assign the next available ID    
 1277              		.loc 1 1305 0
 1278 0036 0B23     		movs	r3, #11
 1279 0038 FB18     		adds	r3, r7, r3
 1280 003a 0C4A     		ldr	r2, .L79
 1281 003c 1278     		ldrb	r2, [r2]
 1282 003e 1A70     		strb	r2, [r3]
1306:..\..\..\..\..\..\Software\uCOS-III\Source/os_task.c ****     OSTaskRegNextAvailID++;                                     /* Increment available ID for next 
 1283              		.loc 1 1306 0
 1284 0040 0A4B     		ldr	r3, .L79
 1285 0042 1B78     		ldrb	r3, [r3]
 1286 0044 0133     		adds	r3, r3, #1
 1287 0046 DAB2     		uxtb	r2, r3
 1288 0048 084B     		ldr	r3, .L79
 1289 004a 1A70     		strb	r2, [r3]
1307:..\..\..\..\..\..\Software\uCOS-III\Source/os_task.c ****     CPU_CRITICAL_EXIT();
 1290              		.loc 1 1307 0
 1291 004c FFF7FEFF 		bl	CPU_IntDisMeasStop
 1292 0050 FB68     		ldr	r3, [r7, #12]
 1293 0052 1800     		movs	r0, r3
 1294 0054 FFF7FEFF 		bl	CPU_SR_Restore
1308:..\..\..\..\..\..\Software\uCOS-III\Source/os_task.c ****    *p_err = OS_ERR_NONE;
 1295              		.loc 1 1308 0
 1296 0058 7B68     		ldr	r3, [r7, #4]
 1297 005a 0022     		movs	r2, #0
 1298 005c 1A80     		strh	r2, [r3]
1309:..\..\..\..\..\..\Software\uCOS-III\Source/os_task.c ****     return (id);
 1299              		.loc 1 1309 0
 1300 005e 0B23     		movs	r3, #11
 1301 0060 FB18     		adds	r3, r7, r3
 1302 0062 1B78     		ldrb	r3, [r3]
 1303              	.L78:
1310:..\..\..\..\..\..\Software\uCOS-III\Source/os_task.c **** }
 1304              		.loc 1 1310 0
 1305 0064 1800     		movs	r0, r3
ARM GAS  C:\Users\ADMINI~1\AppData\Local\Temp\ccvBRVNC.s 			page 47


 1306 0066 BD46     		mov	sp, r7
 1307 0068 04B0     		add	sp, sp, #16
 1308              		@ sp needed
 1309 006a 80BD     		pop	{r7, pc}
 1310              	.L80:
 1311              		.align	2
 1312              	.L79:
 1313 006c 00000000 		.word	OSTaskRegNextAvailID
 1314 0070 DA590000 		.word	23002
 1315              		.cfi_endproc
 1316              	.LFE6:
 1317              		.size	OSTaskRegGetID, .-OSTaskRegGetID
 1318              		.section	.text.OSTaskRegSet,"ax",%progbits
 1319              		.align	2
 1320              		.global	OSTaskRegSet
 1321              		.code	16
 1322              		.thumb_func
 1323              		.type	OSTaskRegSet, %function
 1324              	OSTaskRegSet:
 1325              	.LFB7:
1311:..\..\..\..\..\..\Software\uCOS-III\Source/os_task.c **** #endif
1312:..\..\..\..\..\..\Software\uCOS-III\Source/os_task.c **** 
1313:..\..\..\..\..\..\Software\uCOS-III\Source/os_task.c **** 
1314:..\..\..\..\..\..\Software\uCOS-III\Source/os_task.c **** /*
1315:..\..\..\..\..\..\Software\uCOS-III\Source/os_task.c **** ***************************************************************************************************
1316:..\..\..\..\..\..\Software\uCOS-III\Source/os_task.c **** *                                       SET THE CURRENT VALUE OF A TASK REGISTER
1317:..\..\..\..\..\..\Software\uCOS-III\Source/os_task.c **** *
1318:..\..\..\..\..\..\Software\uCOS-III\Source/os_task.c **** * Description: This function is called to change the current value of a task register.  Task regist
1319:..\..\..\..\..\..\Software\uCOS-III\Source/os_task.c **** *              specific and can be used to store task specific values such as 'error numbers' (i.e.
1320:..\..\..\..\..\..\Software\uCOS-III\Source/os_task.c **** *              etc.
1321:..\..\..\..\..\..\Software\uCOS-III\Source/os_task.c **** *
1322:..\..\..\..\..\..\Software\uCOS-III\Source/os_task.c **** * Arguments  : p_tcb     is a pointer to the OS_TCB of the task you want to set the register for.  
1323:..\..\..\..\..\..\Software\uCOS-III\Source/os_task.c **** *                        pointer then you will change the register of the current task.
1324:..\..\..\..\..\..\Software\uCOS-III\Source/os_task.c **** *
1325:..\..\..\..\..\..\Software\uCOS-III\Source/os_task.c **** *              id        is the 'id' of the desired task register.  Note that the 'id' must be less
1326:..\..\..\..\..\..\Software\uCOS-III\Source/os_task.c **** *                        OS_CFG_TASK_REG_TBL_SIZE
1327:..\..\..\..\..\..\Software\uCOS-III\Source/os_task.c **** *
1328:..\..\..\..\..\..\Software\uCOS-III\Source/os_task.c **** *              value     is the desired value for the task register.
1329:..\..\..\..\..\..\Software\uCOS-III\Source/os_task.c **** *
1330:..\..\..\..\..\..\Software\uCOS-III\Source/os_task.c **** *              p_err     is a pointer to a variable that will hold an error code related to this ca
1331:..\..\..\..\..\..\Software\uCOS-III\Source/os_task.c **** *
1332:..\..\..\..\..\..\Software\uCOS-III\Source/os_task.c **** *                            OS_ERR_NONE               If the call was successful
1333:..\..\..\..\..\..\Software\uCOS-III\Source/os_task.c **** *                            OS_ERR_REG_ID_INVALID     If the 'id' is not between 0 and OS_CFG_TASK
1334:..\..\..\..\..\..\Software\uCOS-III\Source/os_task.c **** *
1335:..\..\..\..\..\..\Software\uCOS-III\Source/os_task.c **** * Returns    : none
1336:..\..\..\..\..\..\Software\uCOS-III\Source/os_task.c **** *
1337:..\..\..\..\..\..\Software\uCOS-III\Source/os_task.c **** * Note(s)    : none
1338:..\..\..\..\..\..\Software\uCOS-III\Source/os_task.c **** ***************************************************************************************************
1339:..\..\..\..\..\..\Software\uCOS-III\Source/os_task.c **** */
1340:..\..\..\..\..\..\Software\uCOS-III\Source/os_task.c **** 
1341:..\..\..\..\..\..\Software\uCOS-III\Source/os_task.c **** #if (OS_CFG_TASK_REG_TBL_SIZE > 0u)
1342:..\..\..\..\..\..\Software\uCOS-III\Source/os_task.c **** void  OSTaskRegSet (OS_TCB     *p_tcb,
1343:..\..\..\..\..\..\Software\uCOS-III\Source/os_task.c ****                     OS_REG_ID   id,
1344:..\..\..\..\..\..\Software\uCOS-III\Source/os_task.c ****                     OS_REG      value,
1345:..\..\..\..\..\..\Software\uCOS-III\Source/os_task.c ****                     OS_ERR     *p_err)
1346:..\..\..\..\..\..\Software\uCOS-III\Source/os_task.c **** {
 1326              		.loc 1 1346 0
ARM GAS  C:\Users\ADMINI~1\AppData\Local\Temp\ccvBRVNC.s 			page 48


 1327              		.cfi_startproc
 1328              		@ args = 0, pretend = 0, frame = 24
 1329              		@ frame_needed = 1, uses_anonymous_args = 0
 1330 0000 80B5     		push	{r7, lr}
 1331              		.cfi_def_cfa_offset 8
 1332              		.cfi_offset 7, -8
 1333              		.cfi_offset 14, -4
 1334 0002 86B0     		sub	sp, sp, #24
 1335              		.cfi_def_cfa_offset 32
 1336 0004 00AF     		add	r7, sp, #0
 1337              		.cfi_def_cfa_register 7
 1338 0006 F860     		str	r0, [r7, #12]
 1339 0008 7A60     		str	r2, [r7, #4]
 1340 000a 3B60     		str	r3, [r7]
 1341 000c 0B23     		movs	r3, #11
 1342 000e FB18     		adds	r3, r7, r3
 1343 0010 0A1C     		adds	r2, r1, #0
 1344 0012 1A70     		strb	r2, [r3]
1347:..\..\..\..\..\..\Software\uCOS-III\Source/os_task.c ****     CPU_SR_ALLOC();
 1345              		.loc 1 1347 0
 1346 0014 0023     		movs	r3, #0
 1347 0016 7B61     		str	r3, [r7, #20]
1348:..\..\..\..\..\..\Software\uCOS-III\Source/os_task.c **** 
1349:..\..\..\..\..\..\Software\uCOS-III\Source/os_task.c **** 
1350:..\..\..\..\..\..\Software\uCOS-III\Source/os_task.c **** 
1351:..\..\..\..\..\..\Software\uCOS-III\Source/os_task.c **** #ifdef OS_SAFETY_CRITICAL
1352:..\..\..\..\..\..\Software\uCOS-III\Source/os_task.c ****     if (p_err == DEF_NULL) {
1353:..\..\..\..\..\..\Software\uCOS-III\Source/os_task.c ****         OS_SAFETY_CRITICAL_EXCEPTION();
1354:..\..\..\..\..\..\Software\uCOS-III\Source/os_task.c ****         return;
1355:..\..\..\..\..\..\Software\uCOS-III\Source/os_task.c ****     }
1356:..\..\..\..\..\..\Software\uCOS-III\Source/os_task.c **** #endif
1357:..\..\..\..\..\..\Software\uCOS-III\Source/os_task.c **** 
1358:..\..\..\..\..\..\Software\uCOS-III\Source/os_task.c **** #if (OS_CFG_ARG_CHK_EN == DEF_ENABLED)
1359:..\..\..\..\..\..\Software\uCOS-III\Source/os_task.c ****     if (id >= OS_CFG_TASK_REG_TBL_SIZE) {
 1348              		.loc 1 1359 0
 1349 0018 0B23     		movs	r3, #11
 1350 001a FB18     		adds	r3, r7, r3
 1351 001c 1B78     		ldrb	r3, [r3]
 1352 001e 002B     		cmp	r3, #0
 1353 0020 03D0     		beq	.L82
1360:..\..\..\..\..\..\Software\uCOS-III\Source/os_task.c ****        *p_err = OS_ERR_REG_ID_INVALID;
 1354              		.loc 1 1360 0
 1355 0022 3B68     		ldr	r3, [r7]
 1356 0024 114A     		ldr	r2, .L85
 1357 0026 1A80     		strh	r2, [r3]
1361:..\..\..\..\..\..\Software\uCOS-III\Source/os_task.c ****         return;
 1358              		.loc 1 1361 0
 1359 0028 1CE0     		b	.L81
 1360              	.L82:
1362:..\..\..\..\..\..\Software\uCOS-III\Source/os_task.c ****     }
1363:..\..\..\..\..\..\Software\uCOS-III\Source/os_task.c **** #endif
1364:..\..\..\..\..\..\Software\uCOS-III\Source/os_task.c **** 
1365:..\..\..\..\..\..\Software\uCOS-III\Source/os_task.c ****     CPU_CRITICAL_ENTER();
 1361              		.loc 1 1365 0
 1362 002a FFF7FEFF 		bl	CPU_SR_Save
 1363 002e 0300     		movs	r3, r0
 1364 0030 7B61     		str	r3, [r7, #20]
ARM GAS  C:\Users\ADMINI~1\AppData\Local\Temp\ccvBRVNC.s 			page 49


 1365 0032 FFF7FEFF 		bl	CPU_IntDisMeasStart
1366:..\..\..\..\..\..\Software\uCOS-III\Source/os_task.c ****     if (p_tcb == DEF_NULL) {
 1366              		.loc 1 1366 0
 1367 0036 FB68     		ldr	r3, [r7, #12]
 1368 0038 002B     		cmp	r3, #0
 1369 003a 02D1     		bne	.L84
1367:..\..\..\..\..\..\Software\uCOS-III\Source/os_task.c ****         p_tcb = OSTCBCurPtr;
 1370              		.loc 1 1367 0
 1371 003c 0C4B     		ldr	r3, .L85+4
 1372 003e 1B68     		ldr	r3, [r3]
 1373 0040 FB60     		str	r3, [r7, #12]
 1374              	.L84:
1368:..\..\..\..\..\..\Software\uCOS-III\Source/os_task.c ****     }
1369:..\..\..\..\..\..\Software\uCOS-III\Source/os_task.c ****     p_tcb->RegTbl[id] = value;
 1375              		.loc 1 1369 0
 1376 0042 0B23     		movs	r3, #11
 1377 0044 FB18     		adds	r3, r7, r3
 1378 0046 1A78     		ldrb	r2, [r3]
 1379 0048 FB68     		ldr	r3, [r7, #12]
 1380 004a 1E32     		adds	r2, r2, #30
 1381 004c 9200     		lsls	r2, r2, #2
 1382 004e 7968     		ldr	r1, [r7, #4]
 1383 0050 D150     		str	r1, [r2, r3]
1370:..\..\..\..\..\..\Software\uCOS-III\Source/os_task.c ****     CPU_CRITICAL_EXIT();
 1384              		.loc 1 1370 0
 1385 0052 FFF7FEFF 		bl	CPU_IntDisMeasStop
 1386 0056 7B69     		ldr	r3, [r7, #20]
 1387 0058 1800     		movs	r0, r3
 1388 005a FFF7FEFF 		bl	CPU_SR_Restore
1371:..\..\..\..\..\..\Software\uCOS-III\Source/os_task.c ****    *p_err             = OS_ERR_NONE;
 1389              		.loc 1 1371 0
 1390 005e 3B68     		ldr	r3, [r7]
 1391 0060 0022     		movs	r2, #0
 1392 0062 1A80     		strh	r2, [r3]
 1393              	.L81:
1372:..\..\..\..\..\..\Software\uCOS-III\Source/os_task.c **** }
 1394              		.loc 1 1372 0
 1395 0064 BD46     		mov	sp, r7
 1396 0066 06B0     		add	sp, sp, #24
 1397              		@ sp needed
 1398 0068 80BD     		pop	{r7, pc}
 1399              	.L86:
 1400 006a C046     		.align	2
 1401              	.L85:
 1402 006c 79690000 		.word	27001
 1403 0070 00000000 		.word	OSTCBCurPtr
 1404              		.cfi_endproc
 1405              	.LFE7:
 1406              		.size	OSTaskRegSet, .-OSTaskRegSet
 1407              		.section	.text.OSTaskResume,"ax",%progbits
 1408              		.align	2
 1409              		.global	OSTaskResume
 1410              		.code	16
 1411              		.thumb_func
 1412              		.type	OSTaskResume, %function
 1413              	OSTaskResume:
 1414              	.LFB8:
ARM GAS  C:\Users\ADMINI~1\AppData\Local\Temp\ccvBRVNC.s 			page 50


1373:..\..\..\..\..\..\Software\uCOS-III\Source/os_task.c **** #endif
1374:..\..\..\..\..\..\Software\uCOS-III\Source/os_task.c **** 
1375:..\..\..\..\..\..\Software\uCOS-III\Source/os_task.c **** 
1376:..\..\..\..\..\..\Software\uCOS-III\Source/os_task.c **** /*
1377:..\..\..\..\..\..\Software\uCOS-III\Source/os_task.c **** ***************************************************************************************************
1378:..\..\..\..\..\..\Software\uCOS-III\Source/os_task.c **** *                                               RESUME A SUSPENDED TASK
1379:..\..\..\..\..\..\Software\uCOS-III\Source/os_task.c **** *
1380:..\..\..\..\..\..\Software\uCOS-III\Source/os_task.c **** * Description: This function is called to resume a previously suspended task.  This is the only cal
1381:..\..\..\..\..\..\Software\uCOS-III\Source/os_task.c **** *              explicit task suspension.
1382:..\..\..\..\..\..\Software\uCOS-III\Source/os_task.c **** *
1383:..\..\..\..\..\..\Software\uCOS-III\Source/os_task.c **** * Arguments  : p_tcb      Is a pointer to the task's OS_TCB to resume
1384:..\..\..\..\..\..\Software\uCOS-III\Source/os_task.c **** *
1385:..\..\..\..\..\..\Software\uCOS-III\Source/os_task.c **** *              p_err      Is a pointer to a variable that will contain an error code returned by th
1386:..\..\..\..\..\..\Software\uCOS-III\Source/os_task.c **** *
1387:..\..\..\..\..\..\Software\uCOS-III\Source/os_task.c **** *                             OS_ERR_NONE                  If the requested task is resumed
1388:..\..\..\..\..\..\Software\uCOS-III\Source/os_task.c **** *                             OS_ERR_INT_Q_FULL            If the deferred interrupt post queue is 
1389:..\..\..\..\..\..\Software\uCOS-III\Source/os_task.c **** *                             OS_ERR_OS_NOT_RUNNING        If uC/OS-III is not running yet
1390:..\..\..\..\..\..\Software\uCOS-III\Source/os_task.c **** *                             OS_ERR_STATE_INVALID         If the task is in an invalid state
1391:..\..\..\..\..\..\Software\uCOS-III\Source/os_task.c **** *                             OS_ERR_TASK_NOT_SUSPENDED    If the task to resume has not been suspe
1392:..\..\..\..\..\..\Software\uCOS-III\Source/os_task.c **** *                             OS_ERR_TASK_RESUME_ISR       If you called this function from an ISR
1393:..\..\..\..\..\..\Software\uCOS-III\Source/os_task.c **** *                             OS_ERR_TASK_RESUME_SELF      You cannot resume 'self'
1394:..\..\..\..\..\..\Software\uCOS-III\Source/os_task.c **** *
1395:..\..\..\..\..\..\Software\uCOS-III\Source/os_task.c **** * Returns    : none
1396:..\..\..\..\..\..\Software\uCOS-III\Source/os_task.c **** *
1397:..\..\..\..\..\..\Software\uCOS-III\Source/os_task.c **** * Note(s)    : none
1398:..\..\..\..\..\..\Software\uCOS-III\Source/os_task.c **** ***************************************************************************************************
1399:..\..\..\..\..\..\Software\uCOS-III\Source/os_task.c **** */
1400:..\..\..\..\..\..\Software\uCOS-III\Source/os_task.c **** 
1401:..\..\..\..\..\..\Software\uCOS-III\Source/os_task.c **** #if (OS_CFG_TASK_SUSPEND_EN == DEF_ENABLED)
1402:..\..\..\..\..\..\Software\uCOS-III\Source/os_task.c **** void  OSTaskResume (OS_TCB  *p_tcb,
1403:..\..\..\..\..\..\Software\uCOS-III\Source/os_task.c ****                     OS_ERR  *p_err)
1404:..\..\..\..\..\..\Software\uCOS-III\Source/os_task.c **** {
 1415              		.loc 1 1404 0
 1416              		.cfi_startproc
 1417              		@ args = 0, pretend = 0, frame = 16
 1418              		@ frame_needed = 1, uses_anonymous_args = 0
 1419 0000 80B5     		push	{r7, lr}
 1420              		.cfi_def_cfa_offset 8
 1421              		.cfi_offset 7, -8
 1422              		.cfi_offset 14, -4
 1423 0002 84B0     		sub	sp, sp, #16
 1424              		.cfi_def_cfa_offset 24
 1425 0004 00AF     		add	r7, sp, #0
 1426              		.cfi_def_cfa_register 7
 1427 0006 7860     		str	r0, [r7, #4]
 1428 0008 3960     		str	r1, [r7]
1405:..\..\..\..\..\..\Software\uCOS-III\Source/os_task.c ****     CPU_SR_ALLOC();
 1429              		.loc 1 1405 0
 1430 000a 0023     		movs	r3, #0
 1431 000c FB60     		str	r3, [r7, #12]
1406:..\..\..\..\..\..\Software\uCOS-III\Source/os_task.c **** 
1407:..\..\..\..\..\..\Software\uCOS-III\Source/os_task.c **** 
1408:..\..\..\..\..\..\Software\uCOS-III\Source/os_task.c **** 
1409:..\..\..\..\..\..\Software\uCOS-III\Source/os_task.c **** #ifdef OS_SAFETY_CRITICAL
1410:..\..\..\..\..\..\Software\uCOS-III\Source/os_task.c ****     if (p_err == DEF_NULL) {
1411:..\..\..\..\..\..\Software\uCOS-III\Source/os_task.c ****         OS_SAFETY_CRITICAL_EXCEPTION();
1412:..\..\..\..\..\..\Software\uCOS-III\Source/os_task.c ****         return;
ARM GAS  C:\Users\ADMINI~1\AppData\Local\Temp\ccvBRVNC.s 			page 51


1413:..\..\..\..\..\..\Software\uCOS-III\Source/os_task.c ****     }
1414:..\..\..\..\..\..\Software\uCOS-III\Source/os_task.c **** #endif
1415:..\..\..\..\..\..\Software\uCOS-III\Source/os_task.c **** 
1416:..\..\..\..\..\..\Software\uCOS-III\Source/os_task.c **** #if (OS_CFG_ISR_POST_DEFERRED_EN   == DEF_DISABLED) && \
1417:..\..\..\..\..\..\Software\uCOS-III\Source/os_task.c ****     (OS_CFG_CALLED_FROM_ISR_CHK_EN == DEF_ENABLED)
1418:..\..\..\..\..\..\Software\uCOS-III\Source/os_task.c ****     if (OSIntNestingCtr > 0u) {                                 /* Not allowed to call from an ISR 
 1432              		.loc 1 1418 0
 1433 000e 174B     		ldr	r3, .L92
 1434 0010 1B78     		ldrb	r3, [r3]
 1435 0012 002B     		cmp	r3, #0
 1436 0014 03D0     		beq	.L88
1419:..\..\..\..\..\..\Software\uCOS-III\Source/os_task.c ****        *p_err = OS_ERR_TASK_RESUME_ISR;
 1437              		.loc 1 1419 0
 1438 0016 3B68     		ldr	r3, [r7]
 1439 0018 154A     		ldr	r2, .L92+4
 1440 001a 1A80     		strh	r2, [r3]
1420:..\..\..\..\..\..\Software\uCOS-III\Source/os_task.c ****         return;
 1441              		.loc 1 1420 0
 1442 001c 23E0     		b	.L87
 1443              	.L88:
1421:..\..\..\..\..\..\Software\uCOS-III\Source/os_task.c ****     }
1422:..\..\..\..\..\..\Software\uCOS-III\Source/os_task.c **** #endif
1423:..\..\..\..\..\..\Software\uCOS-III\Source/os_task.c **** 
1424:..\..\..\..\..\..\Software\uCOS-III\Source/os_task.c **** #if (OS_CFG_INVALID_OS_CALLS_CHK_EN == DEF_ENABLED)             /* Is the kernel running?          
1425:..\..\..\..\..\..\Software\uCOS-III\Source/os_task.c ****     if (OSRunning != OS_STATE_OS_RUNNING) {
1426:..\..\..\..\..\..\Software\uCOS-III\Source/os_task.c ****        *p_err = OS_ERR_OS_NOT_RUNNING;
1427:..\..\..\..\..\..\Software\uCOS-III\Source/os_task.c ****         return;
1428:..\..\..\..\..\..\Software\uCOS-III\Source/os_task.c ****     }
1429:..\..\..\..\..\..\Software\uCOS-III\Source/os_task.c **** #endif
1430:..\..\..\..\..\..\Software\uCOS-III\Source/os_task.c **** 
1431:..\..\..\..\..\..\Software\uCOS-III\Source/os_task.c **** 
1432:..\..\..\..\..\..\Software\uCOS-III\Source/os_task.c ****     CPU_CRITICAL_ENTER();
 1444              		.loc 1 1432 0
 1445 001e FFF7FEFF 		bl	CPU_SR_Save
 1446 0022 0300     		movs	r3, r0
 1447 0024 FB60     		str	r3, [r7, #12]
 1448 0026 FFF7FEFF 		bl	CPU_IntDisMeasStart
1433:..\..\..\..\..\..\Software\uCOS-III\Source/os_task.c **** #if (OS_CFG_ARG_CHK_EN == DEF_ENABLED)
1434:..\..\..\..\..\..\Software\uCOS-III\Source/os_task.c ****     if ((p_tcb == DEF_NULL) ||                                  /* We cannot resume 'self'         
 1449              		.loc 1 1434 0
 1450 002a 7B68     		ldr	r3, [r7, #4]
 1451 002c 002B     		cmp	r3, #0
 1452 002e 04D0     		beq	.L90
1435:..\..\..\..\..\..\Software\uCOS-III\Source/os_task.c ****         (p_tcb == OSTCBCurPtr)) {
 1453              		.loc 1 1435 0 discriminator 1
 1454 0030 104B     		ldr	r3, .L92+8
 1455 0032 1B68     		ldr	r3, [r3]
1434:..\..\..\..\..\..\Software\uCOS-III\Source/os_task.c ****         (p_tcb == OSTCBCurPtr)) {
 1456              		.loc 1 1434 0 discriminator 1
 1457 0034 7A68     		ldr	r2, [r7, #4]
 1458 0036 9A42     		cmp	r2, r3
 1459 0038 09D1     		bne	.L91
 1460              	.L90:
1436:..\..\..\..\..\..\Software\uCOS-III\Source/os_task.c ****         CPU_CRITICAL_EXIT();
 1461              		.loc 1 1436 0
 1462 003a FFF7FEFF 		bl	CPU_IntDisMeasStop
 1463 003e FB68     		ldr	r3, [r7, #12]
ARM GAS  C:\Users\ADMINI~1\AppData\Local\Temp\ccvBRVNC.s 			page 52


 1464 0040 1800     		movs	r0, r3
 1465 0042 FFF7FEFF 		bl	CPU_SR_Restore
1437:..\..\..\..\..\..\Software\uCOS-III\Source/os_task.c ****        *p_err  = OS_ERR_TASK_RESUME_SELF;
 1466              		.loc 1 1437 0
 1467 0046 3B68     		ldr	r3, [r7]
 1468 0048 0B4A     		ldr	r2, .L92+12
 1469 004a 1A80     		strh	r2, [r3]
1438:..\..\..\..\..\..\Software\uCOS-III\Source/os_task.c ****         return;
 1470              		.loc 1 1438 0
 1471 004c 0BE0     		b	.L87
 1472              	.L91:
1439:..\..\..\..\..\..\Software\uCOS-III\Source/os_task.c ****     }
1440:..\..\..\..\..\..\Software\uCOS-III\Source/os_task.c **** #endif
1441:..\..\..\..\..\..\Software\uCOS-III\Source/os_task.c ****     CPU_CRITICAL_EXIT();
 1473              		.loc 1 1441 0
 1474 004e FFF7FEFF 		bl	CPU_IntDisMeasStop
 1475 0052 FB68     		ldr	r3, [r7, #12]
 1476 0054 1800     		movs	r0, r3
 1477 0056 FFF7FEFF 		bl	CPU_SR_Restore
1442:..\..\..\..\..\..\Software\uCOS-III\Source/os_task.c **** 
1443:..\..\..\..\..\..\Software\uCOS-III\Source/os_task.c **** #if (OS_CFG_ISR_POST_DEFERRED_EN == DEF_ENABLED)
1444:..\..\..\..\..\..\Software\uCOS-III\Source/os_task.c ****     if (OSIntNestingCtr > 0u) {                                 /* See if called from an ISR       
1445:..\..\..\..\..\..\Software\uCOS-III\Source/os_task.c ****         OS_IntQPost(OS_OBJ_TYPE_TASK_RESUME,                    /* Post to ISR queue               
1446:..\..\..\..\..\..\Software\uCOS-III\Source/os_task.c ****                     (void *)p_tcb,
1447:..\..\..\..\..\..\Software\uCOS-III\Source/os_task.c ****                     DEF_NULL,
1448:..\..\..\..\..\..\Software\uCOS-III\Source/os_task.c ****                     0u,
1449:..\..\..\..\..\..\Software\uCOS-III\Source/os_task.c ****                     0u,
1450:..\..\..\..\..\..\Software\uCOS-III\Source/os_task.c ****                     0u,
1451:..\..\..\..\..\..\Software\uCOS-III\Source/os_task.c ****                     0u,
1452:..\..\..\..\..\..\Software\uCOS-III\Source/os_task.c ****                     p_err);
1453:..\..\..\..\..\..\Software\uCOS-III\Source/os_task.c ****         return;
1454:..\..\..\..\..\..\Software\uCOS-III\Source/os_task.c ****     }
1455:..\..\..\..\..\..\Software\uCOS-III\Source/os_task.c **** #endif
1456:..\..\..\..\..\..\Software\uCOS-III\Source/os_task.c **** 
1457:..\..\..\..\..\..\Software\uCOS-III\Source/os_task.c ****     OS_TaskResume(p_tcb, p_err);
 1478              		.loc 1 1457 0
 1479 005a 3A68     		ldr	r2, [r7]
 1480 005c 7B68     		ldr	r3, [r7, #4]
 1481 005e 1100     		movs	r1, r2
 1482 0060 1800     		movs	r0, r3
 1483 0062 FFF7FEFF 		bl	OS_TaskResume
 1484              	.L87:
1458:..\..\..\..\..\..\Software\uCOS-III\Source/os_task.c **** 
1459:..\..\..\..\..\..\Software\uCOS-III\Source/os_task.c **** #if (defined(TRACE_CFG_EN) && (TRACE_CFG_EN == DEF_ENABLED))
1460:..\..\..\..\..\..\Software\uCOS-III\Source/os_task.c ****     TRACE_OS_TASK_RESUME(p_tcb);                                /* Record the event.               
1461:..\..\..\..\..\..\Software\uCOS-III\Source/os_task.c **** #endif
1462:..\..\..\..\..\..\Software\uCOS-III\Source/os_task.c **** }
 1485              		.loc 1 1462 0
 1486 0066 BD46     		mov	sp, r7
 1487 0068 04B0     		add	sp, sp, #16
 1488              		@ sp needed
 1489 006a 80BD     		pop	{r7, pc}
 1490              	.L93:
 1491              		.align	2
 1492              	.L92:
 1493 006c 00000000 		.word	OSIntNestingCtr
 1494 0070 55710000 		.word	29013
ARM GAS  C:\Users\ADMINI~1\AppData\Local\Temp\ccvBRVNC.s 			page 53


 1495 0074 00000000 		.word	OSTCBCurPtr
 1496 0078 57710000 		.word	29015
 1497              		.cfi_endproc
 1498              	.LFE8:
 1499              		.size	OSTaskResume, .-OSTaskResume
 1500              		.section	.text.OSTaskSemPend,"ax",%progbits
 1501              		.align	2
 1502              		.global	OSTaskSemPend
 1503              		.code	16
 1504              		.thumb_func
 1505              		.type	OSTaskSemPend, %function
 1506              	OSTaskSemPend:
 1507              	.LFB9:
1463:..\..\..\..\..\..\Software\uCOS-III\Source/os_task.c **** #endif
1464:..\..\..\..\..\..\Software\uCOS-III\Source/os_task.c **** 
1465:..\..\..\..\..\..\Software\uCOS-III\Source/os_task.c **** 
1466:..\..\..\..\..\..\Software\uCOS-III\Source/os_task.c **** /*
1467:..\..\..\..\..\..\Software\uCOS-III\Source/os_task.c **** ***************************************************************************************************
1468:..\..\..\..\..\..\Software\uCOS-III\Source/os_task.c **** *                                              WAIT FOR A TASK SEMAPHORE
1469:..\..\..\..\..\..\Software\uCOS-III\Source/os_task.c **** *
1470:..\..\..\..\..\..\Software\uCOS-III\Source/os_task.c **** * Description: This function is called to block the current task until a signal is sent by another 
1471:..\..\..\..\..\..\Software\uCOS-III\Source/os_task.c **** *
1472:..\..\..\..\..\..\Software\uCOS-III\Source/os_task.c **** * Arguments  : timeout       is the amount of time you are will to wait for the signal
1473:..\..\..\..\..\..\Software\uCOS-III\Source/os_task.c **** *
1474:..\..\..\..\..\..\Software\uCOS-III\Source/os_task.c **** *              opt           determines whether the user wants to block if a semaphore post was not
1475:..\..\..\..\..\..\Software\uCOS-III\Source/os_task.c **** *
1476:..\..\..\..\..\..\Software\uCOS-III\Source/os_task.c **** *                                OS_OPT_PEND_BLOCKING
1477:..\..\..\..\..\..\Software\uCOS-III\Source/os_task.c **** *                                OS_OPT_PEND_NON_BLOCKING
1478:..\..\..\..\..\..\Software\uCOS-III\Source/os_task.c **** *
1479:..\..\..\..\..\..\Software\uCOS-III\Source/os_task.c **** *              p_ts          is a pointer to a variable that will receive the timestamp of when the
1480:..\..\..\..\..\..\Software\uCOS-III\Source/os_task.c **** *                            or pend aborted.  If you pass a NULL pointer (i.e. (CPU_TS *)0) then y
1481:..\..\..\..\..\..\Software\uCOS-III\Source/os_task.c **** *                            timestamp.  In other words, passing a NULL pointer is valid and indica
1482:..\..\..\..\..\..\Software\uCOS-III\Source/os_task.c **** *                            need the timestamp.
1483:..\..\..\..\..\..\Software\uCOS-III\Source/os_task.c **** *
1484:..\..\..\..\..\..\Software\uCOS-III\Source/os_task.c **** *              p_err         is a pointer to an error code that will be set by this function
1485:..\..\..\..\..\..\Software\uCOS-III\Source/os_task.c **** *
1486:..\..\..\..\..\..\Software\uCOS-III\Source/os_task.c **** *                                OS_ERR_NONE                The call was successful and your task r
1487:..\..\..\..\..\..\Software\uCOS-III\Source/os_task.c **** *                                OS_ERR_OPT_INVALID         You specified an invalid option
1488:..\..\..\..\..\..\Software\uCOS-III\Source/os_task.c **** *                                OS_ERR_OS_NOT_RUNNING      If uC/OS-III is not running yet
1489:..\..\..\..\..\..\Software\uCOS-III\Source/os_task.c **** *                                OS_ERR_PEND_ABORT          If the pend was aborted
1490:..\..\..\..\..\..\Software\uCOS-III\Source/os_task.c **** *                                OS_ERR_PEND_ISR            If you called this function from an ISR
1491:..\..\..\..\..\..\Software\uCOS-III\Source/os_task.c **** *                                OS_ERR_PEND_WOULD_BLOCK    If you specified non-blocking but no si
1492:..\..\..\..\..\..\Software\uCOS-III\Source/os_task.c **** *                                OS_ERR_SCHED_LOCKED        If the scheduler is locked
1493:..\..\..\..\..\..\Software\uCOS-III\Source/os_task.c **** *                                OS_ERR_STATUS_INVALID      If the pend status is invalid
1494:..\..\..\..\..\..\Software\uCOS-III\Source/os_task.c **** *                                OS_ERR_TIMEOUT             A message was not received within the s
1495:..\..\..\..\..\..\Software\uCOS-III\Source/os_task.c **** *
1496:..\..\..\..\..\..\Software\uCOS-III\Source/os_task.c **** * Returns    : The current count of signals the task received, 0 if none.
1497:..\..\..\..\..\..\Software\uCOS-III\Source/os_task.c **** *
1498:..\..\..\..\..\..\Software\uCOS-III\Source/os_task.c **** * Note(s)    : none
1499:..\..\..\..\..\..\Software\uCOS-III\Source/os_task.c **** ***************************************************************************************************
1500:..\..\..\..\..\..\Software\uCOS-III\Source/os_task.c **** */
1501:..\..\..\..\..\..\Software\uCOS-III\Source/os_task.c **** 
1502:..\..\..\..\..\..\Software\uCOS-III\Source/os_task.c **** OS_SEM_CTR  OSTaskSemPend (OS_TICK   timeout,
1503:..\..\..\..\..\..\Software\uCOS-III\Source/os_task.c ****                            OS_OPT    opt,
1504:..\..\..\..\..\..\Software\uCOS-III\Source/os_task.c ****                            CPU_TS   *p_ts,
1505:..\..\..\..\..\..\Software\uCOS-III\Source/os_task.c ****                            OS_ERR   *p_err)
1506:..\..\..\..\..\..\Software\uCOS-III\Source/os_task.c **** {
ARM GAS  C:\Users\ADMINI~1\AppData\Local\Temp\ccvBRVNC.s 			page 54


 1508              		.loc 1 1506 0
 1509              		.cfi_startproc
 1510              		@ args = 0, pretend = 0, frame = 24
 1511              		@ frame_needed = 1, uses_anonymous_args = 0
 1512 0000 90B5     		push	{r4, r7, lr}
 1513              		.cfi_def_cfa_offset 12
 1514              		.cfi_offset 4, -12
 1515              		.cfi_offset 7, -8
 1516              		.cfi_offset 14, -4
 1517 0002 87B0     		sub	sp, sp, #28
 1518              		.cfi_def_cfa_offset 40
 1519 0004 00AF     		add	r7, sp, #0
 1520              		.cfi_def_cfa_register 7
 1521 0006 F860     		str	r0, [r7, #12]
 1522 0008 7A60     		str	r2, [r7, #4]
 1523 000a 3B60     		str	r3, [r7]
 1524 000c 0A23     		movs	r3, #10
 1525 000e FB18     		adds	r3, r7, r3
 1526 0010 0A1C     		adds	r2, r1, #0
 1527 0012 1A80     		strh	r2, [r3]
1507:..\..\..\..\..\..\Software\uCOS-III\Source/os_task.c ****     OS_SEM_CTR    ctr;
1508:..\..\..\..\..\..\Software\uCOS-III\Source/os_task.c ****     CPU_SR_ALLOC();
 1528              		.loc 1 1508 0
 1529 0014 0023     		movs	r3, #0
 1530 0016 7B61     		str	r3, [r7, #20]
1509:..\..\..\..\..\..\Software\uCOS-III\Source/os_task.c **** 
1510:..\..\..\..\..\..\Software\uCOS-III\Source/os_task.c **** 
1511:..\..\..\..\..\..\Software\uCOS-III\Source/os_task.c **** #if (OS_CFG_TS_EN == DEF_DISABLED)
1512:..\..\..\..\..\..\Software\uCOS-III\Source/os_task.c ****     (void)&p_ts;                                                /* Prevent compiler warning for not
1513:..\..\..\..\..\..\Software\uCOS-III\Source/os_task.c **** #endif
1514:..\..\..\..\..\..\Software\uCOS-III\Source/os_task.c **** 
1515:..\..\..\..\..\..\Software\uCOS-III\Source/os_task.c **** #ifdef OS_SAFETY_CRITICAL
1516:..\..\..\..\..\..\Software\uCOS-III\Source/os_task.c ****     if (p_err == DEF_NULL) {
1517:..\..\..\..\..\..\Software\uCOS-III\Source/os_task.c ****         OS_SAFETY_CRITICAL_EXCEPTION();
1518:..\..\..\..\..\..\Software\uCOS-III\Source/os_task.c ****         return (0u);
1519:..\..\..\..\..\..\Software\uCOS-III\Source/os_task.c ****     }
1520:..\..\..\..\..\..\Software\uCOS-III\Source/os_task.c **** #endif
1521:..\..\..\..\..\..\Software\uCOS-III\Source/os_task.c **** 
1522:..\..\..\..\..\..\Software\uCOS-III\Source/os_task.c **** #if (OS_CFG_CALLED_FROM_ISR_CHK_EN == DEF_ENABLED)
1523:..\..\..\..\..\..\Software\uCOS-III\Source/os_task.c ****     if (OSIntNestingCtr > 0u) {                                 /* Not allowed to call from an ISR 
 1531              		.loc 1 1523 0
 1532 0018 7B4B     		ldr	r3, .L117
 1533 001a 1B78     		ldrb	r3, [r3]
 1534 001c 002B     		cmp	r3, #0
 1535 001e 04D0     		beq	.L95
1524:..\..\..\..\..\..\Software\uCOS-III\Source/os_task.c **** #if (defined(TRACE_CFG_EN) && (TRACE_CFG_EN == DEF_ENABLED))
1525:..\..\..\..\..\..\Software\uCOS-III\Source/os_task.c ****         TRACE_OS_TASK_SEM_PEND_FAILED(OSTCBCurPtr);             /* Record the event.               
1526:..\..\..\..\..\..\Software\uCOS-III\Source/os_task.c **** #endif
1527:..\..\..\..\..\..\Software\uCOS-III\Source/os_task.c ****        *p_err = OS_ERR_PEND_ISR;
 1536              		.loc 1 1527 0
 1537 0020 3B68     		ldr	r3, [r7]
 1538 0022 7A4A     		ldr	r2, .L117+4
 1539 0024 1A80     		strh	r2, [r3]
1528:..\..\..\..\..\..\Software\uCOS-III\Source/os_task.c ****         return (0u);
 1540              		.loc 1 1528 0
 1541 0026 0023     		movs	r3, #0
 1542 0028 EAE0     		b	.L96
ARM GAS  C:\Users\ADMINI~1\AppData\Local\Temp\ccvBRVNC.s 			page 55


 1543              	.L95:
1529:..\..\..\..\..\..\Software\uCOS-III\Source/os_task.c ****     }
1530:..\..\..\..\..\..\Software\uCOS-III\Source/os_task.c **** #endif
1531:..\..\..\..\..\..\Software\uCOS-III\Source/os_task.c **** 
1532:..\..\..\..\..\..\Software\uCOS-III\Source/os_task.c **** #if (OS_CFG_INVALID_OS_CALLS_CHK_EN == DEF_ENABLED)             /* Is the kernel running?          
1533:..\..\..\..\..\..\Software\uCOS-III\Source/os_task.c ****     if (OSRunning != OS_STATE_OS_RUNNING) {
1534:..\..\..\..\..\..\Software\uCOS-III\Source/os_task.c ****        *p_err = OS_ERR_OS_NOT_RUNNING;
1535:..\..\..\..\..\..\Software\uCOS-III\Source/os_task.c ****         return (0u);
1536:..\..\..\..\..\..\Software\uCOS-III\Source/os_task.c ****     }
1537:..\..\..\..\..\..\Software\uCOS-III\Source/os_task.c **** #endif
1538:..\..\..\..\..\..\Software\uCOS-III\Source/os_task.c **** 
1539:..\..\..\..\..\..\Software\uCOS-III\Source/os_task.c **** #if (OS_CFG_ARG_CHK_EN == DEF_ENABLED)
1540:..\..\..\..\..\..\Software\uCOS-III\Source/os_task.c ****     switch (opt) {                                              /* Validate 'opt'                  
 1544              		.loc 1 1540 0
 1545 002a 0A23     		movs	r3, #10
 1546 002c FB18     		adds	r3, r7, r3
 1547 002e 1B88     		ldrh	r3, [r3]
 1548 0030 002B     		cmp	r3, #0
 1549 0032 08D0     		beq	.L116
 1550 0034 8022     		movs	r2, #128
 1551 0036 1202     		lsls	r2, r2, #8
 1552 0038 9342     		cmp	r3, r2
 1553 003a 04D0     		beq	.L116
1541:..\..\..\..\..\..\Software\uCOS-III\Source/os_task.c ****         case OS_OPT_PEND_BLOCKING:
1542:..\..\..\..\..\..\Software\uCOS-III\Source/os_task.c ****         case OS_OPT_PEND_NON_BLOCKING:
1543:..\..\..\..\..\..\Software\uCOS-III\Source/os_task.c ****              break;
1544:..\..\..\..\..\..\Software\uCOS-III\Source/os_task.c **** 
1545:..\..\..\..\..\..\Software\uCOS-III\Source/os_task.c ****         default:
1546:..\..\..\..\..\..\Software\uCOS-III\Source/os_task.c **** #if (defined(TRACE_CFG_EN) && (TRACE_CFG_EN == DEF_ENABLED))
1547:..\..\..\..\..\..\Software\uCOS-III\Source/os_task.c ****              TRACE_OS_TASK_SEM_PEND_FAILED(OSTCBCurPtr);        /* Record the event.               
1548:..\..\..\..\..\..\Software\uCOS-III\Source/os_task.c **** #endif
1549:..\..\..\..\..\..\Software\uCOS-III\Source/os_task.c ****             *p_err = OS_ERR_OPT_INVALID;
 1554              		.loc 1 1549 0
 1555 003c 3B68     		ldr	r3, [r7]
 1556 003e 744A     		ldr	r2, .L117+8
 1557 0040 1A80     		strh	r2, [r3]
1550:..\..\..\..\..\..\Software\uCOS-III\Source/os_task.c ****              return (0u);
 1558              		.loc 1 1550 0
 1559 0042 0023     		movs	r3, #0
 1560 0044 DCE0     		b	.L96
 1561              	.L116:
1543:..\..\..\..\..\..\Software\uCOS-III\Source/os_task.c **** 
 1562              		.loc 1 1543 0
 1563 0046 C046     		nop
1551:..\..\..\..\..\..\Software\uCOS-III\Source/os_task.c ****     }
1552:..\..\..\..\..\..\Software\uCOS-III\Source/os_task.c **** #endif
1553:..\..\..\..\..\..\Software\uCOS-III\Source/os_task.c **** 
1554:..\..\..\..\..\..\Software\uCOS-III\Source/os_task.c ****     CPU_CRITICAL_ENTER();
 1564              		.loc 1 1554 0
 1565 0048 FFF7FEFF 		bl	CPU_SR_Save
 1566 004c 0300     		movs	r3, r0
 1567 004e 7B61     		str	r3, [r7, #20]
 1568 0050 FFF7FEFF 		bl	CPU_IntDisMeasStart
1555:..\..\..\..\..\..\Software\uCOS-III\Source/os_task.c ****     if (OSTCBCurPtr->SemCtr > 0u) {                             /* See if task already been signale
 1569              		.loc 1 1555 0
 1570 0054 6F4B     		ldr	r3, .L117+12
 1571 0056 1B68     		ldr	r3, [r3]
ARM GAS  C:\Users\ADMINI~1\AppData\Local\Temp\ccvBRVNC.s 			page 56


 1572 0058 DB6C     		ldr	r3, [r3, #76]
 1573 005a 002B     		cmp	r3, #0
 1574 005c 38D0     		beq	.L100
1556:..\..\..\..\..\..\Software\uCOS-III\Source/os_task.c ****         OSTCBCurPtr->SemCtr--;
 1575              		.loc 1 1556 0
 1576 005e 6D4B     		ldr	r3, .L117+12
 1577 0060 1B68     		ldr	r3, [r3]
 1578 0062 DA6C     		ldr	r2, [r3, #76]
 1579 0064 013A     		subs	r2, r2, #1
 1580 0066 DA64     		str	r2, [r3, #76]
1557:..\..\..\..\..\..\Software\uCOS-III\Source/os_task.c ****         ctr = OSTCBCurPtr->SemCtr;
 1581              		.loc 1 1557 0
 1582 0068 6A4B     		ldr	r3, .L117+12
 1583 006a 1B68     		ldr	r3, [r3]
 1584 006c DB6C     		ldr	r3, [r3, #76]
 1585 006e 3B61     		str	r3, [r7, #16]
1558:..\..\..\..\..\..\Software\uCOS-III\Source/os_task.c **** #if (OS_CFG_TS_EN == DEF_ENABLED)
1559:..\..\..\..\..\..\Software\uCOS-III\Source/os_task.c ****         if (p_ts != DEF_NULL) {
 1586              		.loc 1 1559 0
 1587 0070 7B68     		ldr	r3, [r7, #4]
 1588 0072 002B     		cmp	r3, #0
 1589 0074 04D0     		beq	.L101
1560:..\..\..\..\..\..\Software\uCOS-III\Source/os_task.c ****            *p_ts  = OSTCBCurPtr->TS;
 1590              		.loc 1 1560 0
 1591 0076 674B     		ldr	r3, .L117+12
 1592 0078 1B68     		ldr	r3, [r3]
 1593 007a 9A6C     		ldr	r2, [r3, #72]
 1594 007c 7B68     		ldr	r3, [r7, #4]
 1595 007e 1A60     		str	r2, [r3]
 1596              	.L101:
1561:..\..\..\..\..\..\Software\uCOS-III\Source/os_task.c ****         }
1562:..\..\..\..\..\..\Software\uCOS-III\Source/os_task.c **** #if (OS_CFG_TASK_PROFILE_EN == DEF_ENABLED)
1563:..\..\..\..\..\..\Software\uCOS-III\Source/os_task.c **** #if (OS_CFG_TS_EN == DEF_ENABLED)
1564:..\..\..\..\..\..\Software\uCOS-III\Source/os_task.c ****         OSTCBCurPtr->SemPendTime = OS_TS_GET() - OSTCBCurPtr->TS;
 1597              		.loc 1 1564 0
 1598 0080 644B     		ldr	r3, .L117+12
 1599 0082 1C68     		ldr	r4, [r3]
 1600 0084 FFF7FEFF 		bl	CPU_TS_TmrRd
 1601 0088 0200     		movs	r2, r0
 1602 008a 624B     		ldr	r3, .L117+12
 1603 008c 1B68     		ldr	r3, [r3]
 1604 008e 9B6C     		ldr	r3, [r3, #72]
 1605 0090 D31A     		subs	r3, r2, r3
 1606 0092 A022     		movs	r2, #160
 1607 0094 A350     		str	r3, [r4, r2]
1565:..\..\..\..\..\..\Software\uCOS-III\Source/os_task.c ****         if (OSTCBCurPtr->SemPendTimeMax < OSTCBCurPtr->SemPendTime) {
 1608              		.loc 1 1565 0
 1609 0096 5F4B     		ldr	r3, .L117+12
 1610 0098 1B68     		ldr	r3, [r3]
 1611 009a A422     		movs	r2, #164
 1612 009c 9A58     		ldr	r2, [r3, r2]
 1613 009e 5D4B     		ldr	r3, .L117+12
 1614 00a0 1B68     		ldr	r3, [r3]
 1615 00a2 A021     		movs	r1, #160
 1616 00a4 5B58     		ldr	r3, [r3, r1]
 1617 00a6 9A42     		cmp	r2, r3
 1618 00a8 07D2     		bcs	.L102
ARM GAS  C:\Users\ADMINI~1\AppData\Local\Temp\ccvBRVNC.s 			page 57


1566:..\..\..\..\..\..\Software\uCOS-III\Source/os_task.c ****             OSTCBCurPtr->SemPendTimeMax = OSTCBCurPtr->SemPendTime;
 1619              		.loc 1 1566 0
 1620 00aa 5A4B     		ldr	r3, .L117+12
 1621 00ac 1A68     		ldr	r2, [r3]
 1622 00ae 594B     		ldr	r3, .L117+12
 1623 00b0 1B68     		ldr	r3, [r3]
 1624 00b2 A021     		movs	r1, #160
 1625 00b4 5B58     		ldr	r3, [r3, r1]
 1626 00b6 A421     		movs	r1, #164
 1627 00b8 5350     		str	r3, [r2, r1]
 1628              	.L102:
1567:..\..\..\..\..\..\Software\uCOS-III\Source/os_task.c ****         }
1568:..\..\..\..\..\..\Software\uCOS-III\Source/os_task.c **** #endif
1569:..\..\..\..\..\..\Software\uCOS-III\Source/os_task.c **** #endif
1570:..\..\..\..\..\..\Software\uCOS-III\Source/os_task.c **** #endif
1571:..\..\..\..\..\..\Software\uCOS-III\Source/os_task.c ****         CPU_CRITICAL_EXIT();
 1629              		.loc 1 1571 0
 1630 00ba FFF7FEFF 		bl	CPU_IntDisMeasStop
 1631 00be 7B69     		ldr	r3, [r7, #20]
 1632 00c0 1800     		movs	r0, r3
 1633 00c2 FFF7FEFF 		bl	CPU_SR_Restore
1572:..\..\..\..\..\..\Software\uCOS-III\Source/os_task.c **** #if (defined(TRACE_CFG_EN) && (TRACE_CFG_EN == DEF_ENABLED))
1573:..\..\..\..\..\..\Software\uCOS-III\Source/os_task.c ****         TRACE_OS_TASK_SEM_PEND(OSTCBCurPtr);                    /* Record the event.               
1574:..\..\..\..\..\..\Software\uCOS-III\Source/os_task.c **** #endif
1575:..\..\..\..\..\..\Software\uCOS-III\Source/os_task.c ****        *p_err = OS_ERR_NONE;
 1634              		.loc 1 1575 0
 1635 00c6 3B68     		ldr	r3, [r7]
 1636 00c8 0022     		movs	r2, #0
 1637 00ca 1A80     		strh	r2, [r3]
1576:..\..\..\..\..\..\Software\uCOS-III\Source/os_task.c ****         return (ctr);
 1638              		.loc 1 1576 0
 1639 00cc 3B69     		ldr	r3, [r7, #16]
 1640 00ce 97E0     		b	.L96
 1641              	.L100:
1577:..\..\..\..\..\..\Software\uCOS-III\Source/os_task.c ****     }
1578:..\..\..\..\..\..\Software\uCOS-III\Source/os_task.c **** 
1579:..\..\..\..\..\..\Software\uCOS-III\Source/os_task.c ****     if ((opt & OS_OPT_PEND_NON_BLOCKING) != 0u) {               /* Caller wants to block if not ava
 1642              		.loc 1 1579 0
 1643 00d0 0A23     		movs	r3, #10
 1644 00d2 FB18     		adds	r3, r7, r3
 1645 00d4 0022     		movs	r2, #0
 1646 00d6 9B5E     		ldrsh	r3, [r3, r2]
 1647 00d8 002B     		cmp	r3, #0
 1648 00da 10DA     		bge	.L103
1580:..\..\..\..\..\..\Software\uCOS-III\Source/os_task.c ****         CPU_CRITICAL_EXIT();
 1649              		.loc 1 1580 0
 1650 00dc FFF7FEFF 		bl	CPU_IntDisMeasStop
 1651 00e0 7B69     		ldr	r3, [r7, #20]
 1652 00e2 1800     		movs	r0, r3
 1653 00e4 FFF7FEFF 		bl	CPU_SR_Restore
1581:..\..\..\..\..\..\Software\uCOS-III\Source/os_task.c **** #if (OS_CFG_TS_EN == DEF_ENABLED)
1582:..\..\..\..\..\..\Software\uCOS-III\Source/os_task.c ****         if (p_ts != DEF_NULL) {
 1654              		.loc 1 1582 0
 1655 00e8 7B68     		ldr	r3, [r7, #4]
 1656 00ea 002B     		cmp	r3, #0
 1657 00ec 02D0     		beq	.L104
1583:..\..\..\..\..\..\Software\uCOS-III\Source/os_task.c ****             *p_ts  = 0u;
ARM GAS  C:\Users\ADMINI~1\AppData\Local\Temp\ccvBRVNC.s 			page 58


 1658              		.loc 1 1583 0
 1659 00ee 7B68     		ldr	r3, [r7, #4]
 1660 00f0 0022     		movs	r2, #0
 1661 00f2 1A60     		str	r2, [r3]
 1662              	.L104:
1584:..\..\..\..\..\..\Software\uCOS-III\Source/os_task.c ****         }
1585:..\..\..\..\..\..\Software\uCOS-III\Source/os_task.c **** #endif
1586:..\..\..\..\..\..\Software\uCOS-III\Source/os_task.c ****        *p_err = OS_ERR_PEND_WOULD_BLOCK;                        /* No                              
 1663              		.loc 1 1586 0
 1664 00f4 3B68     		ldr	r3, [r7]
 1665 00f6 484A     		ldr	r2, .L117+16
 1666 00f8 1A80     		strh	r2, [r3]
1587:..\..\..\..\..\..\Software\uCOS-III\Source/os_task.c **** #if (defined(TRACE_CFG_EN) && (TRACE_CFG_EN == DEF_ENABLED))
1588:..\..\..\..\..\..\Software\uCOS-III\Source/os_task.c ****         TRACE_OS_TASK_SEM_PEND_FAILED(OSTCBCurPtr);             /* Record the event.               
1589:..\..\..\..\..\..\Software\uCOS-III\Source/os_task.c **** #endif
1590:..\..\..\..\..\..\Software\uCOS-III\Source/os_task.c ****         return (0u);
 1667              		.loc 1 1590 0
 1668 00fa 0023     		movs	r3, #0
 1669 00fc 80E0     		b	.L96
 1670              	.L103:
1591:..\..\..\..\..\..\Software\uCOS-III\Source/os_task.c ****     } else {                                                    /* Yes                             
1592:..\..\..\..\..\..\Software\uCOS-III\Source/os_task.c ****         if (OSSchedLockNestingCtr > 0u) {                       /* Can't pend when the scheduler is
 1671              		.loc 1 1592 0
 1672 00fe 474B     		ldr	r3, .L117+20
 1673 0100 1B78     		ldrb	r3, [r3]
 1674 0102 002B     		cmp	r3, #0
 1675 0104 10D0     		beq	.L105
1593:..\..\..\..\..\..\Software\uCOS-III\Source/os_task.c **** #if (OS_CFG_TS_EN == DEF_ENABLED)
1594:..\..\..\..\..\..\Software\uCOS-III\Source/os_task.c ****             if (p_ts != DEF_NULL) {
 1676              		.loc 1 1594 0
 1677 0106 7B68     		ldr	r3, [r7, #4]
 1678 0108 002B     		cmp	r3, #0
 1679 010a 02D0     		beq	.L106
1595:..\..\..\..\..\..\Software\uCOS-III\Source/os_task.c ****                *p_ts  = 0u;
 1680              		.loc 1 1595 0
 1681 010c 7B68     		ldr	r3, [r7, #4]
 1682 010e 0022     		movs	r2, #0
 1683 0110 1A60     		str	r2, [r3]
 1684              	.L106:
1596:..\..\..\..\..\..\Software\uCOS-III\Source/os_task.c ****             }
1597:..\..\..\..\..\..\Software\uCOS-III\Source/os_task.c **** #endif
1598:..\..\..\..\..\..\Software\uCOS-III\Source/os_task.c ****             CPU_CRITICAL_EXIT();
 1685              		.loc 1 1598 0
 1686 0112 FFF7FEFF 		bl	CPU_IntDisMeasStop
 1687 0116 7B69     		ldr	r3, [r7, #20]
 1688 0118 1800     		movs	r0, r3
 1689 011a FFF7FEFF 		bl	CPU_SR_Restore
1599:..\..\..\..\..\..\Software\uCOS-III\Source/os_task.c **** #if (defined(TRACE_CFG_EN) && (TRACE_CFG_EN == DEF_ENABLED))
1600:..\..\..\..\..\..\Software\uCOS-III\Source/os_task.c ****             TRACE_OS_TASK_SEM_PEND_FAILED(OSTCBCurPtr);         /* Record the event.               
1601:..\..\..\..\..\..\Software\uCOS-III\Source/os_task.c **** #endif
1602:..\..\..\..\..\..\Software\uCOS-III\Source/os_task.c ****            *p_err = OS_ERR_SCHED_LOCKED;
 1690              		.loc 1 1602 0
 1691 011e 3B68     		ldr	r3, [r7]
 1692 0120 3F4A     		ldr	r2, .L117+24
 1693 0122 1A80     		strh	r2, [r3]
1603:..\..\..\..\..\..\Software\uCOS-III\Source/os_task.c ****             return (0u);
 1694              		.loc 1 1603 0
ARM GAS  C:\Users\ADMINI~1\AppData\Local\Temp\ccvBRVNC.s 			page 59


 1695 0124 0023     		movs	r3, #0
 1696 0126 6BE0     		b	.L96
 1697              	.L105:
1604:..\..\..\..\..\..\Software\uCOS-III\Source/os_task.c ****         }
1605:..\..\..\..\..\..\Software\uCOS-III\Source/os_task.c ****     }
1606:..\..\..\..\..\..\Software\uCOS-III\Source/os_task.c ****                                                                 /* Lock the scheduler/re-enable int
1607:..\..\..\..\..\..\Software\uCOS-III\Source/os_task.c ****     OS_CRITICAL_ENTER_CPU_EXIT();
1608:..\..\..\..\..\..\Software\uCOS-III\Source/os_task.c ****     OS_Pend(DEF_NULL,                                           /* Block task pending on Signal    
 1698              		.loc 1 1608 0
 1699 0128 FB68     		ldr	r3, [r7, #12]
 1700 012a 0722     		movs	r2, #7
 1701 012c 0021     		movs	r1, #0
 1702 012e 0020     		movs	r0, #0
 1703 0130 FFF7FEFF 		bl	OS_Pend
1609:..\..\..\..\..\..\Software\uCOS-III\Source/os_task.c ****             DEF_NULL,
1610:..\..\..\..\..\..\Software\uCOS-III\Source/os_task.c ****             OS_TASK_PEND_ON_TASK_SEM,
1611:..\..\..\..\..\..\Software\uCOS-III\Source/os_task.c ****             timeout);
1612:..\..\..\..\..\..\Software\uCOS-III\Source/os_task.c ****     OS_CRITICAL_EXIT_NO_SCHED();
 1704              		.loc 1 1612 0
 1705 0134 FFF7FEFF 		bl	CPU_IntDisMeasStop
 1706 0138 7B69     		ldr	r3, [r7, #20]
 1707 013a 1800     		movs	r0, r3
 1708 013c FFF7FEFF 		bl	CPU_SR_Restore
1613:..\..\..\..\..\..\Software\uCOS-III\Source/os_task.c **** #if (defined(TRACE_CFG_EN) && (TRACE_CFG_EN == DEF_ENABLED))
1614:..\..\..\..\..\..\Software\uCOS-III\Source/os_task.c ****     TRACE_OS_TASK_SEM_PEND_BLOCK(OSTCBCurPtr);                  /* Record the event.               
1615:..\..\..\..\..\..\Software\uCOS-III\Source/os_task.c **** #endif
1616:..\..\..\..\..\..\Software\uCOS-III\Source/os_task.c ****     OSSched();                                                  /* Find next highest priority task 
 1709              		.loc 1 1616 0
 1710 0140 FFF7FEFF 		bl	OSSched
1617:..\..\..\..\..\..\Software\uCOS-III\Source/os_task.c **** 
1618:..\..\..\..\..\..\Software\uCOS-III\Source/os_task.c ****     CPU_CRITICAL_ENTER();
 1711              		.loc 1 1618 0
 1712 0144 FFF7FEFF 		bl	CPU_SR_Save
 1713 0148 0300     		movs	r3, r0
 1714 014a 7B61     		str	r3, [r7, #20]
 1715 014c FFF7FEFF 		bl	CPU_IntDisMeasStart
1619:..\..\..\..\..\..\Software\uCOS-III\Source/os_task.c ****     switch (OSTCBCurPtr->PendStatus) {                          /* See if we timed-out or aborted  
 1716              		.loc 1 1619 0
 1717 0150 304B     		ldr	r3, .L117+12
 1718 0152 1B68     		ldr	r3, [r3]
 1719 0154 3522     		movs	r2, #53
 1720 0156 9B5C     		ldrb	r3, [r3, r2]
 1721 0158 012B     		cmp	r3, #1
 1722 015a 2CD0     		beq	.L108
 1723 015c 032B     		cmp	r3, #3
 1724 015e 36D0     		beq	.L109
 1725 0160 002B     		cmp	r3, #0
 1726 0162 3ED1     		bne	.L115
1620:..\..\..\..\..\..\Software\uCOS-III\Source/os_task.c ****         case OS_STATUS_PEND_OK:
1621:..\..\..\..\..\..\Software\uCOS-III\Source/os_task.c **** #if (OS_CFG_TS_EN == DEF_ENABLED)
1622:..\..\..\..\..\..\Software\uCOS-III\Source/os_task.c ****              if (p_ts != DEF_NULL) {
 1727              		.loc 1 1622 0
 1728 0164 7B68     		ldr	r3, [r7, #4]
 1729 0166 002B     		cmp	r3, #0
 1730 0168 21D0     		beq	.L111
1623:..\..\..\..\..\..\Software\uCOS-III\Source/os_task.c ****                 *p_ts                    =  OSTCBCurPtr->TS;
 1731              		.loc 1 1623 0
ARM GAS  C:\Users\ADMINI~1\AppData\Local\Temp\ccvBRVNC.s 			page 60


 1732 016a 2A4B     		ldr	r3, .L117+12
 1733 016c 1B68     		ldr	r3, [r3]
 1734 016e 9A6C     		ldr	r2, [r3, #72]
 1735 0170 7B68     		ldr	r3, [r7, #4]
 1736 0172 1A60     		str	r2, [r3]
1624:..\..\..\..\..\..\Software\uCOS-III\Source/os_task.c **** #if (OS_CFG_TASK_PROFILE_EN == DEF_ENABLED)
1625:..\..\..\..\..\..\Software\uCOS-III\Source/os_task.c **** #if (OS_CFG_TS_EN == DEF_ENABLED)
1626:..\..\..\..\..\..\Software\uCOS-III\Source/os_task.c ****                 OSTCBCurPtr->SemPendTime = OS_TS_GET() - OSTCBCurPtr->TS;
 1737              		.loc 1 1626 0
 1738 0174 274B     		ldr	r3, .L117+12
 1739 0176 1C68     		ldr	r4, [r3]
 1740 0178 FFF7FEFF 		bl	CPU_TS_TmrRd
 1741 017c 0200     		movs	r2, r0
 1742 017e 254B     		ldr	r3, .L117+12
 1743 0180 1B68     		ldr	r3, [r3]
 1744 0182 9B6C     		ldr	r3, [r3, #72]
 1745 0184 D31A     		subs	r3, r2, r3
 1746 0186 A022     		movs	r2, #160
 1747 0188 A350     		str	r3, [r4, r2]
1627:..\..\..\..\..\..\Software\uCOS-III\Source/os_task.c ****                 if (OSTCBCurPtr->SemPendTimeMax < OSTCBCurPtr->SemPendTime) {
 1748              		.loc 1 1627 0
 1749 018a 224B     		ldr	r3, .L117+12
 1750 018c 1B68     		ldr	r3, [r3]
 1751 018e A422     		movs	r2, #164
 1752 0190 9A58     		ldr	r2, [r3, r2]
 1753 0192 204B     		ldr	r3, .L117+12
 1754 0194 1B68     		ldr	r3, [r3]
 1755 0196 A021     		movs	r1, #160
 1756 0198 5B58     		ldr	r3, [r3, r1]
 1757 019a 9A42     		cmp	r2, r3
 1758 019c 07D2     		bcs	.L111
1628:..\..\..\..\..\..\Software\uCOS-III\Source/os_task.c ****                     OSTCBCurPtr->SemPendTimeMax = OSTCBCurPtr->SemPendTime;
 1759              		.loc 1 1628 0
 1760 019e 1D4B     		ldr	r3, .L117+12
 1761 01a0 1A68     		ldr	r2, [r3]
 1762 01a2 1C4B     		ldr	r3, .L117+12
 1763 01a4 1B68     		ldr	r3, [r3]
 1764 01a6 A021     		movs	r1, #160
 1765 01a8 5B58     		ldr	r3, [r3, r1]
 1766 01aa A421     		movs	r1, #164
 1767 01ac 5350     		str	r3, [r2, r1]
 1768              	.L111:
1629:..\..\..\..\..\..\Software\uCOS-III\Source/os_task.c ****                 }
1630:..\..\..\..\..\..\Software\uCOS-III\Source/os_task.c **** #endif
1631:..\..\..\..\..\..\Software\uCOS-III\Source/os_task.c **** #endif
1632:..\..\..\..\..\..\Software\uCOS-III\Source/os_task.c ****              }
1633:..\..\..\..\..\..\Software\uCOS-III\Source/os_task.c **** #endif
1634:..\..\..\..\..\..\Software\uCOS-III\Source/os_task.c **** #if (defined(TRACE_CFG_EN) && (TRACE_CFG_EN == DEF_ENABLED))
1635:..\..\..\..\..\..\Software\uCOS-III\Source/os_task.c ****              TRACE_OS_TASK_SEM_PEND(OSTCBCurPtr);               /* Record the event.               
1636:..\..\..\..\..\..\Software\uCOS-III\Source/os_task.c **** #endif
1637:..\..\..\..\..\..\Software\uCOS-III\Source/os_task.c ****             *p_err = OS_ERR_NONE;
 1769              		.loc 1 1637 0
 1770 01ae 3B68     		ldr	r3, [r7]
 1771 01b0 0022     		movs	r2, #0
 1772 01b2 1A80     		strh	r2, [r3]
1638:..\..\..\..\..\..\Software\uCOS-III\Source/os_task.c ****              break;
 1773              		.loc 1 1638 0
ARM GAS  C:\Users\ADMINI~1\AppData\Local\Temp\ccvBRVNC.s 			page 61


 1774 01b4 19E0     		b	.L112
 1775              	.L108:
1639:..\..\..\..\..\..\Software\uCOS-III\Source/os_task.c **** 
1640:..\..\..\..\..\..\Software\uCOS-III\Source/os_task.c ****         case OS_STATUS_PEND_ABORT:
1641:..\..\..\..\..\..\Software\uCOS-III\Source/os_task.c **** #if (OS_CFG_TS_EN == DEF_ENABLED)
1642:..\..\..\..\..\..\Software\uCOS-III\Source/os_task.c ****              if (p_ts != DEF_NULL) {
 1776              		.loc 1 1642 0
 1777 01b6 7B68     		ldr	r3, [r7, #4]
 1778 01b8 002B     		cmp	r3, #0
 1779 01ba 04D0     		beq	.L113
1643:..\..\..\..\..\..\Software\uCOS-III\Source/os_task.c ****                 *p_ts = OSTCBCurPtr->TS;
 1780              		.loc 1 1643 0
 1781 01bc 154B     		ldr	r3, .L117+12
 1782 01be 1B68     		ldr	r3, [r3]
 1783 01c0 9A6C     		ldr	r2, [r3, #72]
 1784 01c2 7B68     		ldr	r3, [r7, #4]
 1785 01c4 1A60     		str	r2, [r3]
 1786              	.L113:
1644:..\..\..\..\..\..\Software\uCOS-III\Source/os_task.c ****              }
1645:..\..\..\..\..\..\Software\uCOS-III\Source/os_task.c **** #endif
1646:..\..\..\..\..\..\Software\uCOS-III\Source/os_task.c **** #if (defined(TRACE_CFG_EN) && (TRACE_CFG_EN == DEF_ENABLED))
1647:..\..\..\..\..\..\Software\uCOS-III\Source/os_task.c ****              TRACE_OS_TASK_SEM_PEND_FAILED(OSTCBCurPtr);        /* Record the event.               
1648:..\..\..\..\..\..\Software\uCOS-III\Source/os_task.c **** #endif
1649:..\..\..\..\..\..\Software\uCOS-III\Source/os_task.c ****             *p_err = OS_ERR_PEND_ABORT;                         /* Indicate that we aborted        
 1787              		.loc 1 1649 0
 1788 01c6 3B68     		ldr	r3, [r7]
 1789 01c8 164A     		ldr	r2, .L117+28
 1790 01ca 1A80     		strh	r2, [r3]
1650:..\..\..\..\..\..\Software\uCOS-III\Source/os_task.c ****              break;
 1791              		.loc 1 1650 0
 1792 01cc 0DE0     		b	.L112
 1793              	.L109:
1651:..\..\..\..\..\..\Software\uCOS-III\Source/os_task.c **** 
1652:..\..\..\..\..\..\Software\uCOS-III\Source/os_task.c ****         case OS_STATUS_PEND_TIMEOUT:
1653:..\..\..\..\..\..\Software\uCOS-III\Source/os_task.c **** #if (OS_CFG_TS_EN == DEF_ENABLED)
1654:..\..\..\..\..\..\Software\uCOS-III\Source/os_task.c ****              if (p_ts != DEF_NULL) {
 1794              		.loc 1 1654 0
 1795 01ce 7B68     		ldr	r3, [r7, #4]
 1796 01d0 002B     		cmp	r3, #0
 1797 01d2 02D0     		beq	.L114
1655:..\..\..\..\..\..\Software\uCOS-III\Source/os_task.c ****                 *p_ts = 0u;
 1798              		.loc 1 1655 0
 1799 01d4 7B68     		ldr	r3, [r7, #4]
 1800 01d6 0022     		movs	r2, #0
 1801 01d8 1A60     		str	r2, [r3]
 1802              	.L114:
1656:..\..\..\..\..\..\Software\uCOS-III\Source/os_task.c ****              }
1657:..\..\..\..\..\..\Software\uCOS-III\Source/os_task.c **** #endif
1658:..\..\..\..\..\..\Software\uCOS-III\Source/os_task.c **** #if (defined(TRACE_CFG_EN) && (TRACE_CFG_EN == DEF_ENABLED))
1659:..\..\..\..\..\..\Software\uCOS-III\Source/os_task.c ****              TRACE_OS_TASK_SEM_PEND_FAILED(OSTCBCurPtr);        /* Record the event.               
1660:..\..\..\..\..\..\Software\uCOS-III\Source/os_task.c **** #endif
1661:..\..\..\..\..\..\Software\uCOS-III\Source/os_task.c ****             *p_err = OS_ERR_TIMEOUT;                            /* Indicate that we didn't get even
 1803              		.loc 1 1661 0
 1804 01da 3B68     		ldr	r3, [r7]
 1805 01dc 124A     		ldr	r2, .L117+32
 1806 01de 1A80     		strh	r2, [r3]
1662:..\..\..\..\..\..\Software\uCOS-III\Source/os_task.c ****              break;
ARM GAS  C:\Users\ADMINI~1\AppData\Local\Temp\ccvBRVNC.s 			page 62


 1807              		.loc 1 1662 0
 1808 01e0 03E0     		b	.L112
 1809              	.L115:
1663:..\..\..\..\..\..\Software\uCOS-III\Source/os_task.c **** 
1664:..\..\..\..\..\..\Software\uCOS-III\Source/os_task.c ****         default:
1665:..\..\..\..\..\..\Software\uCOS-III\Source/os_task.c **** #if (defined(TRACE_CFG_EN) && (TRACE_CFG_EN == DEF_ENABLED))
1666:..\..\..\..\..\..\Software\uCOS-III\Source/os_task.c ****              TRACE_OS_TASK_SEM_PEND_FAILED(OSTCBCurPtr);        /* Record the event.               
1667:..\..\..\..\..\..\Software\uCOS-III\Source/os_task.c **** #endif
1668:..\..\..\..\..\..\Software\uCOS-III\Source/os_task.c ****             *p_err = OS_ERR_STATUS_INVALID;
 1810              		.loc 1 1668 0
 1811 01e2 3B68     		ldr	r3, [r7]
 1812 01e4 114A     		ldr	r2, .L117+36
 1813 01e6 1A80     		strh	r2, [r3]
1669:..\..\..\..\..\..\Software\uCOS-III\Source/os_task.c ****              break;
 1814              		.loc 1 1669 0
 1815 01e8 C046     		nop
 1816              	.L112:
1670:..\..\..\..\..\..\Software\uCOS-III\Source/os_task.c ****     }
1671:..\..\..\..\..\..\Software\uCOS-III\Source/os_task.c ****     ctr = OSTCBCurPtr->SemCtr;
 1817              		.loc 1 1671 0
 1818 01ea 0A4B     		ldr	r3, .L117+12
 1819 01ec 1B68     		ldr	r3, [r3]
 1820 01ee DB6C     		ldr	r3, [r3, #76]
 1821 01f0 3B61     		str	r3, [r7, #16]
1672:..\..\..\..\..\..\Software\uCOS-III\Source/os_task.c ****     CPU_CRITICAL_EXIT();
 1822              		.loc 1 1672 0
 1823 01f2 FFF7FEFF 		bl	CPU_IntDisMeasStop
 1824 01f6 7B69     		ldr	r3, [r7, #20]
 1825 01f8 1800     		movs	r0, r3
 1826 01fa FFF7FEFF 		bl	CPU_SR_Restore
1673:..\..\..\..\..\..\Software\uCOS-III\Source/os_task.c ****     return (ctr);
 1827              		.loc 1 1673 0
 1828 01fe 3B69     		ldr	r3, [r7, #16]
 1829              	.L96:
1674:..\..\..\..\..\..\Software\uCOS-III\Source/os_task.c **** }
 1830              		.loc 1 1674 0
 1831 0200 1800     		movs	r0, r3
 1832 0202 BD46     		mov	sp, r7
 1833 0204 07B0     		add	sp, sp, #28
 1834              		@ sp needed
 1835 0206 90BD     		pop	{r4, r7, pc}
 1836              	.L118:
 1837              		.align	2
 1838              	.L117:
 1839 0208 00000000 		.word	OSIntNestingCtr
 1840 020c AE610000 		.word	25006
 1841 0210 255E0000 		.word	24101
 1842 0214 00000000 		.word	OSTCBCurPtr
 1843 0218 B0610000 		.word	25008
 1844 021c 00000000 		.word	OSSchedLockNestingCtr
 1845 0220 636D0000 		.word	28003
 1846 0224 A9610000 		.word	25001
 1847 0228 D9720000 		.word	29401
 1848 022c 2E6E0000 		.word	28206
 1849              		.cfi_endproc
 1850              	.LFE9:
 1851              		.size	OSTaskSemPend, .-OSTaskSemPend
ARM GAS  C:\Users\ADMINI~1\AppData\Local\Temp\ccvBRVNC.s 			page 63


 1852              		.section	.text.OSTaskSemPendAbort,"ax",%progbits
 1853              		.align	2
 1854              		.global	OSTaskSemPendAbort
 1855              		.code	16
 1856              		.thumb_func
 1857              		.type	OSTaskSemPendAbort, %function
 1858              	OSTaskSemPendAbort:
 1859              	.LFB10:
1675:..\..\..\..\..\..\Software\uCOS-III\Source/os_task.c **** 
1676:..\..\..\..\..\..\Software\uCOS-III\Source/os_task.c **** 
1677:..\..\..\..\..\..\Software\uCOS-III\Source/os_task.c **** /*
1678:..\..\..\..\..\..\Software\uCOS-III\Source/os_task.c **** ***************************************************************************************************
1679:..\..\..\..\..\..\Software\uCOS-III\Source/os_task.c **** *                                               ABORT WAITING FOR A SIGNAL
1680:..\..\..\..\..\..\Software\uCOS-III\Source/os_task.c **** *
1681:..\..\..\..\..\..\Software\uCOS-III\Source/os_task.c **** * Description: This function aborts & readies the task specified.  This function should be used to 
1682:..\..\..\..\..\..\Software\uCOS-III\Source/os_task.c **** *              for a signal, rather than to normally post the signal to the task via OSTaskSemPost(
1683:..\..\..\..\..\..\Software\uCOS-III\Source/os_task.c **** *
1684:..\..\..\..\..\..\Software\uCOS-III\Source/os_task.c **** * Arguments  : p_tcb     is a pointer to the task to pend abort
1685:..\..\..\..\..\..\Software\uCOS-III\Source/os_task.c **** *
1686:..\..\..\..\..\..\Software\uCOS-III\Source/os_task.c **** *              opt       provides options for this function:
1687:..\..\..\..\..\..\Software\uCOS-III\Source/os_task.c **** *
1688:..\..\..\..\..\..\Software\uCOS-III\Source/os_task.c **** *                            OS_OPT_POST_NONE         No option selected
1689:..\..\..\..\..\..\Software\uCOS-III\Source/os_task.c **** *                            OS_OPT_POST_NO_SCHED     Indicates that the scheduler will not be call
1690:..\..\..\..\..\..\Software\uCOS-III\Source/os_task.c **** *
1691:..\..\..\..\..\..\Software\uCOS-III\Source/os_task.c **** *              p_err     is a pointer to a variable that will contain an error code returned by thi
1692:..\..\..\..\..\..\Software\uCOS-III\Source/os_task.c **** *
1693:..\..\..\..\..\..\Software\uCOS-III\Source/os_task.c **** *                            OS_ERR_NONE               If the task was readied and informed of the 
1694:..\..\..\..\..\..\Software\uCOS-III\Source/os_task.c **** *                            OS_ERR_OPT_INVALID        You specified an invalid option
1695:..\..\..\..\..\..\Software\uCOS-III\Source/os_task.c **** *                            OS_ERR_OS_NOT_RUNNING     If uC/OS-III is not running yet
1696:..\..\..\..\..\..\Software\uCOS-III\Source/os_task.c **** *                            OS_ERR_PEND_ABORT_ISR     If you tried calling this function from an I
1697:..\..\..\..\..\..\Software\uCOS-III\Source/os_task.c **** *                            OS_ERR_PEND_ABORT_NONE    If the task was not waiting for a signal
1698:..\..\..\..\..\..\Software\uCOS-III\Source/os_task.c **** *                            OS_ERR_PEND_ABORT_SELF    If you attempted to pend abort the calling t
1699:..\..\..\..\..\..\Software\uCOS-III\Source/os_task.c **** *                                                      possible since the calling task cannot be pe
1700:..\..\..\..\..\..\Software\uCOS-III\Source/os_task.c **** *                                                      running
1701:..\..\..\..\..\..\Software\uCOS-III\Source/os_task.c **** *
1702:..\..\..\..\..\..\Software\uCOS-III\Source/os_task.c **** * Returns    : == DEF_FALSE   if task was not waiting for a message, or upon error.
1703:..\..\..\..\..\..\Software\uCOS-III\Source/os_task.c **** *              == DEF_TRUE    if task was waiting for a message and was readied and informed.
1704:..\..\..\..\..\..\Software\uCOS-III\Source/os_task.c **** *
1705:..\..\..\..\..\..\Software\uCOS-III\Source/os_task.c **** * Note(s)    : none
1706:..\..\..\..\..\..\Software\uCOS-III\Source/os_task.c **** ***************************************************************************************************
1707:..\..\..\..\..\..\Software\uCOS-III\Source/os_task.c **** */
1708:..\..\..\..\..\..\Software\uCOS-III\Source/os_task.c **** 
1709:..\..\..\..\..\..\Software\uCOS-III\Source/os_task.c **** #if (OS_CFG_TASK_SEM_PEND_ABORT_EN == DEF_ENABLED)
1710:..\..\..\..\..\..\Software\uCOS-III\Source/os_task.c **** CPU_BOOLEAN  OSTaskSemPendAbort (OS_TCB  *p_tcb,
1711:..\..\..\..\..\..\Software\uCOS-III\Source/os_task.c ****                                  OS_OPT   opt,
1712:..\..\..\..\..\..\Software\uCOS-III\Source/os_task.c ****                                  OS_ERR  *p_err)
1713:..\..\..\..\..\..\Software\uCOS-III\Source/os_task.c **** {
 1860              		.loc 1 1713 0
 1861              		.cfi_startproc
 1862              		@ args = 0, pretend = 0, frame = 24
 1863              		@ frame_needed = 1, uses_anonymous_args = 0
 1864 0000 80B5     		push	{r7, lr}
 1865              		.cfi_def_cfa_offset 8
 1866              		.cfi_offset 7, -8
 1867              		.cfi_offset 14, -4
 1868 0002 86B0     		sub	sp, sp, #24
 1869              		.cfi_def_cfa_offset 32
ARM GAS  C:\Users\ADMINI~1\AppData\Local\Temp\ccvBRVNC.s 			page 64


 1870 0004 00AF     		add	r7, sp, #0
 1871              		.cfi_def_cfa_register 7
 1872 0006 F860     		str	r0, [r7, #12]
 1873 0008 7A60     		str	r2, [r7, #4]
 1874 000a 0A23     		movs	r3, #10
 1875 000c FB18     		adds	r3, r7, r3
 1876 000e 0A1C     		adds	r2, r1, #0
 1877 0010 1A80     		strh	r2, [r3]
1714:..\..\..\..\..\..\Software\uCOS-III\Source/os_task.c ****     CPU_TS  ts;
1715:..\..\..\..\..\..\Software\uCOS-III\Source/os_task.c ****     CPU_SR_ALLOC();
 1878              		.loc 1 1715 0
 1879 0012 0023     		movs	r3, #0
 1880 0014 7B61     		str	r3, [r7, #20]
1716:..\..\..\..\..\..\Software\uCOS-III\Source/os_task.c **** 
1717:..\..\..\..\..\..\Software\uCOS-III\Source/os_task.c **** 
1718:..\..\..\..\..\..\Software\uCOS-III\Source/os_task.c **** 
1719:..\..\..\..\..\..\Software\uCOS-III\Source/os_task.c **** #ifdef OS_SAFETY_CRITICAL
1720:..\..\..\..\..\..\Software\uCOS-III\Source/os_task.c ****     if (p_err == DEF_NULL) {
1721:..\..\..\..\..\..\Software\uCOS-III\Source/os_task.c ****         OS_SAFETY_CRITICAL_EXCEPTION();
1722:..\..\..\..\..\..\Software\uCOS-III\Source/os_task.c ****         return (DEF_FALSE);
1723:..\..\..\..\..\..\Software\uCOS-III\Source/os_task.c ****     }
1724:..\..\..\..\..\..\Software\uCOS-III\Source/os_task.c **** #endif
1725:..\..\..\..\..\..\Software\uCOS-III\Source/os_task.c **** 
1726:..\..\..\..\..\..\Software\uCOS-III\Source/os_task.c **** #if (OS_CFG_CALLED_FROM_ISR_CHK_EN == DEF_ENABLED)
1727:..\..\..\..\..\..\Software\uCOS-III\Source/os_task.c ****     if (OSIntNestingCtr > 0u) {                                 /* See if called from ISR ...      
 1881              		.loc 1 1727 0
 1882 0016 364B     		ldr	r3, .L130
 1883 0018 1B78     		ldrb	r3, [r3]
 1884 001a 002B     		cmp	r3, #0
 1885 001c 04D0     		beq	.L120
1728:..\..\..\..\..\..\Software\uCOS-III\Source/os_task.c ****        *p_err = OS_ERR_PEND_ABORT_ISR;                          /* ... can't Pend Abort from an ISR
 1886              		.loc 1 1728 0
 1887 001e 7B68     		ldr	r3, [r7, #4]
 1888 0020 344A     		ldr	r2, .L130+4
 1889 0022 1A80     		strh	r2, [r3]
1729:..\..\..\..\..\..\Software\uCOS-III\Source/os_task.c ****         return (DEF_FALSE);
 1890              		.loc 1 1729 0
 1891 0024 0023     		movs	r3, #0
 1892 0026 5FE0     		b	.L121
 1893              	.L120:
1730:..\..\..\..\..\..\Software\uCOS-III\Source/os_task.c ****     }
1731:..\..\..\..\..\..\Software\uCOS-III\Source/os_task.c **** #endif
1732:..\..\..\..\..\..\Software\uCOS-III\Source/os_task.c **** 
1733:..\..\..\..\..\..\Software\uCOS-III\Source/os_task.c **** #if (OS_CFG_INVALID_OS_CALLS_CHK_EN == DEF_ENABLED)             /* Is the kernel running?          
1734:..\..\..\..\..\..\Software\uCOS-III\Source/os_task.c ****     if (OSRunning != OS_STATE_OS_RUNNING) {
1735:..\..\..\..\..\..\Software\uCOS-III\Source/os_task.c ****        *p_err = OS_ERR_OS_NOT_RUNNING;
1736:..\..\..\..\..\..\Software\uCOS-III\Source/os_task.c ****         return (DEF_FALSE);
1737:..\..\..\..\..\..\Software\uCOS-III\Source/os_task.c ****     }
1738:..\..\..\..\..\..\Software\uCOS-III\Source/os_task.c **** #endif
1739:..\..\..\..\..\..\Software\uCOS-III\Source/os_task.c **** 
1740:..\..\..\..\..\..\Software\uCOS-III\Source/os_task.c **** #if (OS_CFG_ARG_CHK_EN == DEF_ENABLED)
1741:..\..\..\..\..\..\Software\uCOS-III\Source/os_task.c ****     switch (opt) {                                              /* Validate 'opt'                  
 1894              		.loc 1 1741 0
 1895 0028 0A23     		movs	r3, #10
 1896 002a FB18     		adds	r3, r7, r3
 1897 002c 1B88     		ldrh	r3, [r3]
 1898 002e 002B     		cmp	r3, #0
ARM GAS  C:\Users\ADMINI~1\AppData\Local\Temp\ccvBRVNC.s 			page 65


 1899 0030 08D0     		beq	.L129
 1900 0032 8022     		movs	r2, #128
 1901 0034 1202     		lsls	r2, r2, #8
 1902 0036 9342     		cmp	r3, r2
 1903 0038 04D0     		beq	.L129
1742:..\..\..\..\..\..\Software\uCOS-III\Source/os_task.c ****         case OS_OPT_POST_NONE:
1743:..\..\..\..\..\..\Software\uCOS-III\Source/os_task.c ****         case OS_OPT_POST_NO_SCHED:
1744:..\..\..\..\..\..\Software\uCOS-III\Source/os_task.c ****              break;
1745:..\..\..\..\..\..\Software\uCOS-III\Source/os_task.c **** 
1746:..\..\..\..\..\..\Software\uCOS-III\Source/os_task.c ****         default:
1747:..\..\..\..\..\..\Software\uCOS-III\Source/os_task.c ****             *p_err = OS_ERR_OPT_INVALID;
 1904              		.loc 1 1747 0
 1905 003a 7B68     		ldr	r3, [r7, #4]
 1906 003c 2E4A     		ldr	r2, .L130+8
 1907 003e 1A80     		strh	r2, [r3]
1748:..\..\..\..\..\..\Software\uCOS-III\Source/os_task.c ****              return (DEF_FALSE);
 1908              		.loc 1 1748 0
 1909 0040 0023     		movs	r3, #0
 1910 0042 51E0     		b	.L121
 1911              	.L129:
1744:..\..\..\..\..\..\Software\uCOS-III\Source/os_task.c **** 
 1912              		.loc 1 1744 0
 1913 0044 C046     		nop
1749:..\..\..\..\..\..\Software\uCOS-III\Source/os_task.c ****     }
1750:..\..\..\..\..\..\Software\uCOS-III\Source/os_task.c **** #endif
1751:..\..\..\..\..\..\Software\uCOS-III\Source/os_task.c **** 
1752:..\..\..\..\..\..\Software\uCOS-III\Source/os_task.c ****     CPU_CRITICAL_ENTER();
 1914              		.loc 1 1752 0
 1915 0046 FFF7FEFF 		bl	CPU_SR_Save
 1916 004a 0300     		movs	r3, r0
 1917 004c 7B61     		str	r3, [r7, #20]
 1918 004e FFF7FEFF 		bl	CPU_IntDisMeasStart
1753:..\..\..\..\..\..\Software\uCOS-III\Source/os_task.c ****     if ((p_tcb == DEF_NULL) ||                                  /* Pend abort self?                
 1919              		.loc 1 1753 0
 1920 0052 FB68     		ldr	r3, [r7, #12]
 1921 0054 002B     		cmp	r3, #0
 1922 0056 04D0     		beq	.L125
1754:..\..\..\..\..\..\Software\uCOS-III\Source/os_task.c ****         (p_tcb == OSTCBCurPtr)) {
 1923              		.loc 1 1754 0 discriminator 1
 1924 0058 284B     		ldr	r3, .L130+12
 1925 005a 1B68     		ldr	r3, [r3]
1753:..\..\..\..\..\..\Software\uCOS-III\Source/os_task.c ****     if ((p_tcb == DEF_NULL) ||                                  /* Pend abort self?                
 1926              		.loc 1 1753 0 discriminator 1
 1927 005c FA68     		ldr	r2, [r7, #12]
 1928 005e 9A42     		cmp	r2, r3
 1929 0060 0AD1     		bne	.L126
 1930              	.L125:
1755:..\..\..\..\..\..\Software\uCOS-III\Source/os_task.c ****         CPU_CRITICAL_EXIT();                                    /* ... doesn't make sense!         
 1931              		.loc 1 1755 0
 1932 0062 FFF7FEFF 		bl	CPU_IntDisMeasStop
 1933 0066 7B69     		ldr	r3, [r7, #20]
 1934 0068 1800     		movs	r0, r3
 1935 006a FFF7FEFF 		bl	CPU_SR_Restore
1756:..\..\..\..\..\..\Software\uCOS-III\Source/os_task.c ****        *p_err = OS_ERR_PEND_ABORT_SELF;
 1936              		.loc 1 1756 0
 1937 006e 7B68     		ldr	r3, [r7, #4]
 1938 0070 234A     		ldr	r2, .L130+16
ARM GAS  C:\Users\ADMINI~1\AppData\Local\Temp\ccvBRVNC.s 			page 66


 1939 0072 1A80     		strh	r2, [r3]
1757:..\..\..\..\..\..\Software\uCOS-III\Source/os_task.c ****         return (DEF_FALSE);
 1940              		.loc 1 1757 0
 1941 0074 0023     		movs	r3, #0
 1942 0076 37E0     		b	.L121
 1943              	.L126:
1758:..\..\..\..\..\..\Software\uCOS-III\Source/os_task.c ****     }
1759:..\..\..\..\..\..\Software\uCOS-III\Source/os_task.c **** 
1760:..\..\..\..\..\..\Software\uCOS-III\Source/os_task.c ****     if (p_tcb->PendOn != OS_TASK_PEND_ON_TASK_SEM) {            /* Is task waiting for a signal?   
 1944              		.loc 1 1760 0
 1945 0078 FB68     		ldr	r3, [r7, #12]
 1946 007a 3422     		movs	r2, #52
 1947 007c 9B5C     		ldrb	r3, [r3, r2]
 1948 007e 072B     		cmp	r3, #7
 1949 0080 0AD0     		beq	.L127
1761:..\..\..\..\..\..\Software\uCOS-III\Source/os_task.c ****         CPU_CRITICAL_EXIT();
 1950              		.loc 1 1761 0
 1951 0082 FFF7FEFF 		bl	CPU_IntDisMeasStop
 1952 0086 7B69     		ldr	r3, [r7, #20]
 1953 0088 1800     		movs	r0, r3
 1954 008a FFF7FEFF 		bl	CPU_SR_Restore
1762:..\..\..\..\..\..\Software\uCOS-III\Source/os_task.c ****        *p_err = OS_ERR_PEND_ABORT_NONE;
 1955              		.loc 1 1762 0
 1956 008e 7B68     		ldr	r3, [r7, #4]
 1957 0090 1C4A     		ldr	r2, .L130+20
 1958 0092 1A80     		strh	r2, [r3]
1763:..\..\..\..\..\..\Software\uCOS-III\Source/os_task.c ****         return (DEF_FALSE);
 1959              		.loc 1 1763 0
 1960 0094 0023     		movs	r3, #0
 1961 0096 27E0     		b	.L121
 1962              	.L127:
1764:..\..\..\..\..\..\Software\uCOS-III\Source/os_task.c ****     }
1765:..\..\..\..\..\..\Software\uCOS-III\Source/os_task.c ****     CPU_CRITICAL_EXIT();
 1963              		.loc 1 1765 0
 1964 0098 FFF7FEFF 		bl	CPU_IntDisMeasStop
 1965 009c 7B69     		ldr	r3, [r7, #20]
 1966 009e 1800     		movs	r0, r3
 1967 00a0 FFF7FEFF 		bl	CPU_SR_Restore
1766:..\..\..\..\..\..\Software\uCOS-III\Source/os_task.c **** 
1767:..\..\..\..\..\..\Software\uCOS-III\Source/os_task.c ****     OS_CRITICAL_ENTER();
 1968              		.loc 1 1767 0
 1969 00a4 FFF7FEFF 		bl	CPU_SR_Save
 1970 00a8 0300     		movs	r3, r0
 1971 00aa 7B61     		str	r3, [r7, #20]
 1972 00ac FFF7FEFF 		bl	CPU_IntDisMeasStart
1768:..\..\..\..\..\..\Software\uCOS-III\Source/os_task.c **** #if (OS_CFG_TS_EN == DEF_ENABLED)
1769:..\..\..\..\..\..\Software\uCOS-III\Source/os_task.c ****     ts = OS_TS_GET();
 1973              		.loc 1 1769 0
 1974 00b0 FFF7FEFF 		bl	CPU_TS_TmrRd
 1975 00b4 0300     		movs	r3, r0
 1976 00b6 3B61     		str	r3, [r7, #16]
1770:..\..\..\..\..\..\Software\uCOS-III\Source/os_task.c **** #else
1771:..\..\..\..\..\..\Software\uCOS-III\Source/os_task.c ****     ts = 0u;
1772:..\..\..\..\..\..\Software\uCOS-III\Source/os_task.c **** #endif
1773:..\..\..\..\..\..\Software\uCOS-III\Source/os_task.c ****     OS_PendAbort(DEF_NULL,
 1977              		.loc 1 1773 0
 1978 00b8 3A69     		ldr	r2, [r7, #16]
ARM GAS  C:\Users\ADMINI~1\AppData\Local\Temp\ccvBRVNC.s 			page 67


 1979 00ba FB68     		ldr	r3, [r7, #12]
 1980 00bc 1900     		movs	r1, r3
 1981 00be 0020     		movs	r0, #0
 1982 00c0 FFF7FEFF 		bl	OS_PendAbort
1774:..\..\..\..\..\..\Software\uCOS-III\Source/os_task.c ****                  p_tcb,
1775:..\..\..\..\..\..\Software\uCOS-III\Source/os_task.c ****                  ts);
1776:..\..\..\..\..\..\Software\uCOS-III\Source/os_task.c ****     OS_CRITICAL_EXIT_NO_SCHED();
 1983              		.loc 1 1776 0
 1984 00c4 FFF7FEFF 		bl	CPU_IntDisMeasStop
 1985 00c8 7B69     		ldr	r3, [r7, #20]
 1986 00ca 1800     		movs	r0, r3
 1987 00cc FFF7FEFF 		bl	CPU_SR_Restore
1777:..\..\..\..\..\..\Software\uCOS-III\Source/os_task.c ****     if ((opt & OS_OPT_POST_NO_SCHED) == 0u) {
 1988              		.loc 1 1777 0
 1989 00d0 0A23     		movs	r3, #10
 1990 00d2 FB18     		adds	r3, r7, r3
 1991 00d4 0022     		movs	r2, #0
 1992 00d6 9B5E     		ldrsh	r3, [r3, r2]
 1993 00d8 002B     		cmp	r3, #0
 1994 00da 01DB     		blt	.L128
1778:..\..\..\..\..\..\Software\uCOS-III\Source/os_task.c ****         OSSched();                                              /* Run the scheduler               
 1995              		.loc 1 1778 0
 1996 00dc FFF7FEFF 		bl	OSSched
 1997              	.L128:
1779:..\..\..\..\..\..\Software\uCOS-III\Source/os_task.c ****     }
1780:..\..\..\..\..\..\Software\uCOS-III\Source/os_task.c ****    *p_err = OS_ERR_NONE;
 1998              		.loc 1 1780 0
 1999 00e0 7B68     		ldr	r3, [r7, #4]
 2000 00e2 0022     		movs	r2, #0
 2001 00e4 1A80     		strh	r2, [r3]
1781:..\..\..\..\..\..\Software\uCOS-III\Source/os_task.c ****     return (DEF_TRUE);
 2002              		.loc 1 1781 0
 2003 00e6 0123     		movs	r3, #1
 2004              	.L121:
1782:..\..\..\..\..\..\Software\uCOS-III\Source/os_task.c **** }
 2005              		.loc 1 1782 0
 2006 00e8 1800     		movs	r0, r3
 2007 00ea BD46     		mov	sp, r7
 2008 00ec 06B0     		add	sp, sp, #24
 2009              		@ sp needed
 2010 00ee 80BD     		pop	{r7, pc}
 2011              	.L131:
 2012              		.align	2
 2013              	.L130:
 2014 00f0 00000000 		.word	OSIntNestingCtr
 2015 00f4 AA610000 		.word	25002
 2016 00f8 255E0000 		.word	24101
 2017 00fc 00000000 		.word	OSTCBCurPtr
 2018 0100 AC610000 		.word	25004
 2019 0104 AB610000 		.word	25003
 2020              		.cfi_endproc
 2021              	.LFE10:
 2022              		.size	OSTaskSemPendAbort, .-OSTaskSemPendAbort
 2023              		.section	.text.OSTaskSemPost,"ax",%progbits
 2024              		.align	2
 2025              		.global	OSTaskSemPost
 2026              		.code	16
ARM GAS  C:\Users\ADMINI~1\AppData\Local\Temp\ccvBRVNC.s 			page 68


 2027              		.thumb_func
 2028              		.type	OSTaskSemPost, %function
 2029              	OSTaskSemPost:
 2030              	.LFB11:
1783:..\..\..\..\..\..\Software\uCOS-III\Source/os_task.c **** #endif
1784:..\..\..\..\..\..\Software\uCOS-III\Source/os_task.c **** 
1785:..\..\..\..\..\..\Software\uCOS-III\Source/os_task.c **** 
1786:..\..\..\..\..\..\Software\uCOS-III\Source/os_task.c **** /*
1787:..\..\..\..\..\..\Software\uCOS-III\Source/os_task.c **** ***************************************************************************************************
1788:..\..\..\..\..\..\Software\uCOS-III\Source/os_task.c **** *                                                    SIGNAL A TASK
1789:..\..\..\..\..\..\Software\uCOS-III\Source/os_task.c **** *
1790:..\..\..\..\..\..\Software\uCOS-III\Source/os_task.c **** * Description: This function is called to signal a task waiting for a signal.
1791:..\..\..\..\..\..\Software\uCOS-III\Source/os_task.c **** *
1792:..\..\..\..\..\..\Software\uCOS-III\Source/os_task.c **** * Arguments  : p_tcb     is the pointer to the TCB of the task to signal.  A NULL pointer indicates
1793:..\..\..\..\..\..\Software\uCOS-III\Source/os_task.c **** *                        a signal to yourself.
1794:..\..\..\..\..\..\Software\uCOS-III\Source/os_task.c **** *
1795:..\..\..\..\..\..\Software\uCOS-III\Source/os_task.c **** *              opt       determines the type of POST performed:
1796:..\..\..\..\..\..\Software\uCOS-III\Source/os_task.c **** *
1797:..\..\..\..\..\..\Software\uCOS-III\Source/os_task.c **** *                             OS_OPT_POST_NONE         No option
1798:..\..\..\..\..\..\Software\uCOS-III\Source/os_task.c **** *                             OS_OPT_POST_NO_SCHED     Do not call the scheduler
1799:..\..\..\..\..\..\Software\uCOS-III\Source/os_task.c **** *
1800:..\..\..\..\..\..\Software\uCOS-III\Source/os_task.c **** *              p_err     is a pointer to an error code returned by this function:
1801:..\..\..\..\..\..\Software\uCOS-III\Source/os_task.c **** *
1802:..\..\..\..\..\..\Software\uCOS-III\Source/os_task.c **** *                            OS_ERR_NONE              If the requested task is signaled
1803:..\..\..\..\..\..\Software\uCOS-III\Source/os_task.c **** *                            OS_ERR_INT_Q_FULL        If the deferred interrupt post queue is full
1804:..\..\..\..\..\..\Software\uCOS-III\Source/os_task.c **** *                            OS_ERR_OPT_INVALID       If you specified an invalid option
1805:..\..\..\..\..\..\Software\uCOS-III\Source/os_task.c **** *                            OS_ERR_OS_NOT_RUNNING    If uC/OS-III is not running yet
1806:..\..\..\..\..\..\Software\uCOS-III\Source/os_task.c **** *                            OS_ERR_SEM_OVF           If the post would cause the semaphore count t
1807:..\..\..\..\..\..\Software\uCOS-III\Source/os_task.c **** *                            OS_ERR_STATE_INVALID     If the task is in an invalid state.  This sho
1808:..\..\..\..\..\..\Software\uCOS-III\Source/os_task.c **** *                                                     and if it does, would be considered a system 
1809:..\..\..\..\..\..\Software\uCOS-III\Source/os_task.c **** *
1810:..\..\..\..\..\..\Software\uCOS-III\Source/os_task.c **** * Returns    : The current value of the task's signal counter or 0 if called from an ISR
1811:..\..\..\..\..\..\Software\uCOS-III\Source/os_task.c **** *
1812:..\..\..\..\..\..\Software\uCOS-III\Source/os_task.c **** * Note(s)    : none
1813:..\..\..\..\..\..\Software\uCOS-III\Source/os_task.c **** ***************************************************************************************************
1814:..\..\..\..\..\..\Software\uCOS-III\Source/os_task.c **** */
1815:..\..\..\..\..\..\Software\uCOS-III\Source/os_task.c **** 
1816:..\..\..\..\..\..\Software\uCOS-III\Source/os_task.c **** OS_SEM_CTR  OSTaskSemPost (OS_TCB  *p_tcb,
1817:..\..\..\..\..\..\Software\uCOS-III\Source/os_task.c ****                            OS_OPT   opt,
1818:..\..\..\..\..\..\Software\uCOS-III\Source/os_task.c ****                            OS_ERR  *p_err)
1819:..\..\..\..\..\..\Software\uCOS-III\Source/os_task.c **** {
 2031              		.loc 1 1819 0
 2032              		.cfi_startproc
 2033              		@ args = 0, pretend = 0, frame = 24
 2034              		@ frame_needed = 1, uses_anonymous_args = 0
 2035 0000 90B5     		push	{r4, r7, lr}
 2036              		.cfi_def_cfa_offset 12
 2037              		.cfi_offset 4, -12
 2038              		.cfi_offset 7, -8
 2039              		.cfi_offset 14, -4
 2040 0002 87B0     		sub	sp, sp, #28
 2041              		.cfi_def_cfa_offset 40
 2042 0004 00AF     		add	r7, sp, #0
 2043              		.cfi_def_cfa_register 7
 2044 0006 F860     		str	r0, [r7, #12]
 2045 0008 7A60     		str	r2, [r7, #4]
 2046 000a 0A23     		movs	r3, #10
ARM GAS  C:\Users\ADMINI~1\AppData\Local\Temp\ccvBRVNC.s 			page 69


 2047 000c FB18     		adds	r3, r7, r3
 2048 000e 0A1C     		adds	r2, r1, #0
 2049 0010 1A80     		strh	r2, [r3]
1820:..\..\..\..\..\..\Software\uCOS-III\Source/os_task.c ****     OS_SEM_CTR  ctr;
1821:..\..\..\..\..\..\Software\uCOS-III\Source/os_task.c ****     CPU_TS      ts;
1822:..\..\..\..\..\..\Software\uCOS-III\Source/os_task.c **** 
1823:..\..\..\..\..\..\Software\uCOS-III\Source/os_task.c **** 
1824:..\..\..\..\..\..\Software\uCOS-III\Source/os_task.c **** 
1825:..\..\..\..\..\..\Software\uCOS-III\Source/os_task.c **** #ifdef OS_SAFETY_CRITICAL
1826:..\..\..\..\..\..\Software\uCOS-III\Source/os_task.c ****     if (p_err == DEF_NULL) {
1827:..\..\..\..\..\..\Software\uCOS-III\Source/os_task.c ****         OS_SAFETY_CRITICAL_EXCEPTION();
1828:..\..\..\..\..\..\Software\uCOS-III\Source/os_task.c ****         return (0u);
1829:..\..\..\..\..\..\Software\uCOS-III\Source/os_task.c ****     }
1830:..\..\..\..\..\..\Software\uCOS-III\Source/os_task.c **** #endif
1831:..\..\..\..\..\..\Software\uCOS-III\Source/os_task.c **** 
1832:..\..\..\..\..\..\Software\uCOS-III\Source/os_task.c **** #if (OS_CFG_INVALID_OS_CALLS_CHK_EN == DEF_ENABLED)             /* Is the kernel running?          
1833:..\..\..\..\..\..\Software\uCOS-III\Source/os_task.c ****     if (OSRunning != OS_STATE_OS_RUNNING) {
1834:..\..\..\..\..\..\Software\uCOS-III\Source/os_task.c ****        *p_err = OS_ERR_OS_NOT_RUNNING;
1835:..\..\..\..\..\..\Software\uCOS-III\Source/os_task.c ****         return (0u);
1836:..\..\..\..\..\..\Software\uCOS-III\Source/os_task.c ****     }
1837:..\..\..\..\..\..\Software\uCOS-III\Source/os_task.c **** #endif
1838:..\..\..\..\..\..\Software\uCOS-III\Source/os_task.c **** 
1839:..\..\..\..\..\..\Software\uCOS-III\Source/os_task.c **** #if (OS_CFG_ARG_CHK_EN == DEF_ENABLED)
1840:..\..\..\..\..\..\Software\uCOS-III\Source/os_task.c ****     switch (opt) {                                              /* Validate 'opt'                  
 2050              		.loc 1 1840 0
 2051 0012 0A23     		movs	r3, #10
 2052 0014 FB18     		adds	r3, r7, r3
 2053 0016 1B88     		ldrh	r3, [r3]
 2054 0018 002B     		cmp	r3, #0
 2055 001a 08D0     		beq	.L137
 2056 001c 8022     		movs	r2, #128
 2057 001e 1202     		lsls	r2, r2, #8
 2058 0020 9342     		cmp	r3, r2
 2059 0022 04D0     		beq	.L137
1841:..\..\..\..\..\..\Software\uCOS-III\Source/os_task.c ****         case OS_OPT_POST_NONE:
1842:..\..\..\..\..\..\Software\uCOS-III\Source/os_task.c ****         case OS_OPT_POST_NO_SCHED:
1843:..\..\..\..\..\..\Software\uCOS-III\Source/os_task.c ****              break;
1844:..\..\..\..\..\..\Software\uCOS-III\Source/os_task.c **** 
1845:..\..\..\..\..\..\Software\uCOS-III\Source/os_task.c ****         default:
1846:..\..\..\..\..\..\Software\uCOS-III\Source/os_task.c **** #if (defined(TRACE_CFG_EN) && (TRACE_CFG_EN == DEF_ENABLED))
1847:..\..\..\..\..\..\Software\uCOS-III\Source/os_task.c ****              TRACE_OS_TASK_SEM_POST_FAILED(p_tcb);              /* Record the event.               
1848:..\..\..\..\..\..\Software\uCOS-III\Source/os_task.c **** #endif
1849:..\..\..\..\..\..\Software\uCOS-III\Source/os_task.c ****             *p_err =  OS_ERR_OPT_INVALID;
 2060              		.loc 1 1849 0
 2061 0024 7B68     		ldr	r3, [r7, #4]
 2062 0026 0C4A     		ldr	r2, .L138
 2063 0028 1A80     		strh	r2, [r3]
1850:..\..\..\..\..\..\Software\uCOS-III\Source/os_task.c ****              return (0u);
 2064              		.loc 1 1850 0
 2065 002a 0023     		movs	r3, #0
 2066 002c 10E0     		b	.L136
 2067              	.L137:
1843:..\..\..\..\..\..\Software\uCOS-III\Source/os_task.c **** 
 2068              		.loc 1 1843 0
 2069 002e C046     		nop
1851:..\..\..\..\..\..\Software\uCOS-III\Source/os_task.c ****     }
1852:..\..\..\..\..\..\Software\uCOS-III\Source/os_task.c **** #endif
ARM GAS  C:\Users\ADMINI~1\AppData\Local\Temp\ccvBRVNC.s 			page 70


1853:..\..\..\..\..\..\Software\uCOS-III\Source/os_task.c **** 
1854:..\..\..\..\..\..\Software\uCOS-III\Source/os_task.c **** #if (OS_CFG_TS_EN == DEF_ENABLED)
1855:..\..\..\..\..\..\Software\uCOS-III\Source/os_task.c ****     ts = OS_TS_GET();                                           /* Get timestamp                   
 2070              		.loc 1 1855 0
 2071 0030 FFF7FEFF 		bl	CPU_TS_TmrRd
 2072 0034 0300     		movs	r3, r0
 2073 0036 7B61     		str	r3, [r7, #20]
1856:..\..\..\..\..\..\Software\uCOS-III\Source/os_task.c **** #else
1857:..\..\..\..\..\..\Software\uCOS-III\Source/os_task.c ****     ts = 0u;
1858:..\..\..\..\..\..\Software\uCOS-III\Source/os_task.c **** #endif
1859:..\..\..\..\..\..\Software\uCOS-III\Source/os_task.c **** 
1860:..\..\..\..\..\..\Software\uCOS-III\Source/os_task.c **** #if (OS_CFG_ISR_POST_DEFERRED_EN == DEF_ENABLED)
1861:..\..\..\..\..\..\Software\uCOS-III\Source/os_task.c ****     if (OSIntNestingCtr > 0u) {                                 /* See if called from an ISR       
1862:..\..\..\..\..\..\Software\uCOS-III\Source/os_task.c ****         OS_IntQPost(OS_OBJ_TYPE_TASK_SIGNAL,                    /* Post to ISR queue               
1863:..\..\..\..\..\..\Software\uCOS-III\Source/os_task.c ****                     (void      *)p_tcb,
1864:..\..\..\..\..\..\Software\uCOS-III\Source/os_task.c ****                     DEF_NULL,
1865:..\..\..\..\..\..\Software\uCOS-III\Source/os_task.c ****                     0u,
1866:..\..\..\..\..\..\Software\uCOS-III\Source/os_task.c ****                     0u,
1867:..\..\..\..\..\..\Software\uCOS-III\Source/os_task.c ****                     0u,
1868:..\..\..\..\..\..\Software\uCOS-III\Source/os_task.c ****                     ts,
1869:..\..\..\..\..\..\Software\uCOS-III\Source/os_task.c ****                     p_err);
1870:..\..\..\..\..\..\Software\uCOS-III\Source/os_task.c ****         return (0u);
1871:..\..\..\..\..\..\Software\uCOS-III\Source/os_task.c ****     }
1872:..\..\..\..\..\..\Software\uCOS-III\Source/os_task.c **** #endif
1873:..\..\..\..\..\..\Software\uCOS-III\Source/os_task.c **** 
1874:..\..\..\..\..\..\Software\uCOS-III\Source/os_task.c **** #if (defined(TRACE_CFG_EN) && (TRACE_CFG_EN == DEF_ENABLED))
1875:..\..\..\..\..\..\Software\uCOS-III\Source/os_task.c ****     TRACE_OS_TASK_SEM_POST(p_tcb);                              /* Record the event.               
1876:..\..\..\..\..\..\Software\uCOS-III\Source/os_task.c **** #endif
1877:..\..\..\..\..\..\Software\uCOS-III\Source/os_task.c **** 
1878:..\..\..\..\..\..\Software\uCOS-III\Source/os_task.c ****     ctr = OS_TaskSemPost(p_tcb,
 2074              		.loc 1 1878 0
 2075 0038 7C68     		ldr	r4, [r7, #4]
 2076 003a 7A69     		ldr	r2, [r7, #20]
 2077 003c 0A23     		movs	r3, #10
 2078 003e FB18     		adds	r3, r7, r3
 2079 0040 1988     		ldrh	r1, [r3]
 2080 0042 F868     		ldr	r0, [r7, #12]
 2081 0044 2300     		movs	r3, r4
 2082 0046 FFF7FEFF 		bl	OS_TaskSemPost
 2083 004a 0300     		movs	r3, r0
 2084 004c 3B61     		str	r3, [r7, #16]
1879:..\..\..\..\..\..\Software\uCOS-III\Source/os_task.c ****                          opt,
1880:..\..\..\..\..\..\Software\uCOS-III\Source/os_task.c ****                          ts,
1881:..\..\..\..\..\..\Software\uCOS-III\Source/os_task.c ****                          p_err);
1882:..\..\..\..\..\..\Software\uCOS-III\Source/os_task.c **** 
1883:..\..\..\..\..\..\Software\uCOS-III\Source/os_task.c ****     return (ctr);
 2085              		.loc 1 1883 0
 2086 004e 3B69     		ldr	r3, [r7, #16]
 2087              	.L136:
1884:..\..\..\..\..\..\Software\uCOS-III\Source/os_task.c **** }
 2088              		.loc 1 1884 0
 2089 0050 1800     		movs	r0, r3
 2090 0052 BD46     		mov	sp, r7
 2091 0054 07B0     		add	sp, sp, #28
 2092              		@ sp needed
 2093 0056 90BD     		pop	{r4, r7, pc}
 2094              	.L139:
ARM GAS  C:\Users\ADMINI~1\AppData\Local\Temp\ccvBRVNC.s 			page 71


 2095              		.align	2
 2096              	.L138:
 2097 0058 255E0000 		.word	24101
 2098              		.cfi_endproc
 2099              	.LFE11:
 2100              		.size	OSTaskSemPost, .-OSTaskSemPost
 2101              		.section	.text.OSTaskSemSet,"ax",%progbits
 2102              		.align	2
 2103              		.global	OSTaskSemSet
 2104              		.code	16
 2105              		.thumb_func
 2106              		.type	OSTaskSemSet, %function
 2107              	OSTaskSemSet:
 2108              	.LFB12:
1885:..\..\..\..\..\..\Software\uCOS-III\Source/os_task.c **** 
1886:..\..\..\..\..\..\Software\uCOS-III\Source/os_task.c **** 
1887:..\..\..\..\..\..\Software\uCOS-III\Source/os_task.c **** /*
1888:..\..\..\..\..\..\Software\uCOS-III\Source/os_task.c **** ***************************************************************************************************
1889:..\..\..\..\..\..\Software\uCOS-III\Source/os_task.c **** *                                            SET THE SIGNAL COUNTER OF A TASK
1890:..\..\..\..\..\..\Software\uCOS-III\Source/os_task.c **** *
1891:..\..\..\..\..\..\Software\uCOS-III\Source/os_task.c **** * Description: This function is called to clear the signal counter
1892:..\..\..\..\..\..\Software\uCOS-III\Source/os_task.c **** *
1893:..\..\..\..\..\..\Software\uCOS-III\Source/os_task.c **** * Arguments  : p_tcb      is the pointer to the TCB of the task to clear the counter.  If you speci
1894:..\..\..\..\..\..\Software\uCOS-III\Source/os_task.c **** *                         then the signal counter of the current task will be cleared.
1895:..\..\..\..\..\..\Software\uCOS-III\Source/os_task.c **** *
1896:..\..\..\..\..\..\Software\uCOS-III\Source/os_task.c **** *              cnt        is the desired value of the semaphore counter
1897:..\..\..\..\..\..\Software\uCOS-III\Source/os_task.c **** *
1898:..\..\..\..\..\..\Software\uCOS-III\Source/os_task.c **** *              p_err      is a pointer to an error code returned by this function
1899:..\..\..\..\..\..\Software\uCOS-III\Source/os_task.c **** *
1900:..\..\..\..\..\..\Software\uCOS-III\Source/os_task.c **** *                             OS_ERR_NONE             If the signal counter of the requested task i
1901:..\..\..\..\..\..\Software\uCOS-III\Source/os_task.c **** *                             OS_ERR_SET_ISR          If the function was called from an ISR
1902:..\..\..\..\..\..\Software\uCOS-III\Source/os_task.c **** *                             OS_ERR_TASK_WAITING     One or more tasks were waiting on the semapho
1903:..\..\..\..\..\..\Software\uCOS-III\Source/os_task.c **** *
1904:..\..\..\..\..\..\Software\uCOS-III\Source/os_task.c **** * Returns    : none
1905:..\..\..\..\..\..\Software\uCOS-III\Source/os_task.c **** *
1906:..\..\..\..\..\..\Software\uCOS-III\Source/os_task.c **** * Note(s)    : none
1907:..\..\..\..\..\..\Software\uCOS-III\Source/os_task.c **** ***************************************************************************************************
1908:..\..\..\..\..\..\Software\uCOS-III\Source/os_task.c **** */
1909:..\..\..\..\..\..\Software\uCOS-III\Source/os_task.c **** 
1910:..\..\..\..\..\..\Software\uCOS-III\Source/os_task.c **** OS_SEM_CTR  OSTaskSemSet (OS_TCB      *p_tcb,
1911:..\..\..\..\..\..\Software\uCOS-III\Source/os_task.c ****                           OS_SEM_CTR   cnt,
1912:..\..\..\..\..\..\Software\uCOS-III\Source/os_task.c ****                           OS_ERR      *p_err)
1913:..\..\..\..\..\..\Software\uCOS-III\Source/os_task.c **** {
 2109              		.loc 1 1913 0
 2110              		.cfi_startproc
 2111              		@ args = 0, pretend = 0, frame = 24
 2112              		@ frame_needed = 1, uses_anonymous_args = 0
 2113 0000 80B5     		push	{r7, lr}
 2114              		.cfi_def_cfa_offset 8
 2115              		.cfi_offset 7, -8
 2116              		.cfi_offset 14, -4
 2117 0002 86B0     		sub	sp, sp, #24
 2118              		.cfi_def_cfa_offset 32
 2119 0004 00AF     		add	r7, sp, #0
 2120              		.cfi_def_cfa_register 7
 2121 0006 F860     		str	r0, [r7, #12]
 2122 0008 B960     		str	r1, [r7, #8]
ARM GAS  C:\Users\ADMINI~1\AppData\Local\Temp\ccvBRVNC.s 			page 72


 2123 000a 7A60     		str	r2, [r7, #4]
1914:..\..\..\..\..\..\Software\uCOS-III\Source/os_task.c ****     OS_SEM_CTR  ctr;
1915:..\..\..\..\..\..\Software\uCOS-III\Source/os_task.c ****     CPU_SR_ALLOC();
 2124              		.loc 1 1915 0
 2125 000c 0023     		movs	r3, #0
 2126 000e 7B61     		str	r3, [r7, #20]
1916:..\..\..\..\..\..\Software\uCOS-III\Source/os_task.c **** 
1917:..\..\..\..\..\..\Software\uCOS-III\Source/os_task.c **** 
1918:..\..\..\..\..\..\Software\uCOS-III\Source/os_task.c **** 
1919:..\..\..\..\..\..\Software\uCOS-III\Source/os_task.c **** #ifdef OS_SAFETY_CRITICAL
1920:..\..\..\..\..\..\Software\uCOS-III\Source/os_task.c ****     if (p_err == DEF_NULL) {
1921:..\..\..\..\..\..\Software\uCOS-III\Source/os_task.c ****         OS_SAFETY_CRITICAL_EXCEPTION();
1922:..\..\..\..\..\..\Software\uCOS-III\Source/os_task.c ****         return (0u);
1923:..\..\..\..\..\..\Software\uCOS-III\Source/os_task.c ****     }
1924:..\..\..\..\..\..\Software\uCOS-III\Source/os_task.c **** #endif
1925:..\..\..\..\..\..\Software\uCOS-III\Source/os_task.c **** 
1926:..\..\..\..\..\..\Software\uCOS-III\Source/os_task.c **** #if (OS_CFG_CALLED_FROM_ISR_CHK_EN == DEF_ENABLED)
1927:..\..\..\..\..\..\Software\uCOS-III\Source/os_task.c ****     if (OSIntNestingCtr > 0u) {                                 /* Not allowed to call from an ISR 
 2127              		.loc 1 1927 0
 2128 0010 1F4B     		ldr	r3, .L145
 2129 0012 1B78     		ldrb	r3, [r3]
 2130 0014 002B     		cmp	r3, #0
 2131 0016 04D0     		beq	.L141
1928:..\..\..\..\..\..\Software\uCOS-III\Source/os_task.c ****        *p_err = OS_ERR_SET_ISR;
 2132              		.loc 1 1928 0
 2133 0018 7B68     		ldr	r3, [r7, #4]
 2134 001a 1E4A     		ldr	r2, .L145+4
 2135 001c 1A80     		strh	r2, [r3]
1929:..\..\..\..\..\..\Software\uCOS-III\Source/os_task.c ****         return (0u);
 2136              		.loc 1 1929 0
 2137 001e 0023     		movs	r3, #0
 2138 0020 32E0     		b	.L142
 2139              	.L141:
1930:..\..\..\..\..\..\Software\uCOS-III\Source/os_task.c ****     }
1931:..\..\..\..\..\..\Software\uCOS-III\Source/os_task.c **** #endif
1932:..\..\..\..\..\..\Software\uCOS-III\Source/os_task.c **** 
1933:..\..\..\..\..\..\Software\uCOS-III\Source/os_task.c ****     CPU_CRITICAL_ENTER();
 2140              		.loc 1 1933 0
 2141 0022 FFF7FEFF 		bl	CPU_SR_Save
 2142 0026 0300     		movs	r3, r0
 2143 0028 7B61     		str	r3, [r7, #20]
 2144 002a FFF7FEFF 		bl	CPU_IntDisMeasStart
1934:..\..\..\..\..\..\Software\uCOS-III\Source/os_task.c ****     if (p_tcb == DEF_NULL) {
 2145              		.loc 1 1934 0
 2146 002e FB68     		ldr	r3, [r7, #12]
 2147 0030 002B     		cmp	r3, #0
 2148 0032 02D1     		bne	.L143
1935:..\..\..\..\..\..\Software\uCOS-III\Source/os_task.c ****         p_tcb = OSTCBCurPtr;
 2149              		.loc 1 1935 0
 2150 0034 184B     		ldr	r3, .L145+8
 2151 0036 1B68     		ldr	r3, [r3]
 2152 0038 FB60     		str	r3, [r7, #12]
 2153              	.L143:
1936:..\..\..\..\..\..\Software\uCOS-III\Source/os_task.c ****     }
1937:..\..\..\..\..\..\Software\uCOS-III\Source/os_task.c **** 
1938:..\..\..\..\..\..\Software\uCOS-III\Source/os_task.c ****     if (((p_tcb->TaskState   & OS_TASK_STATE_PEND) != 0u) &&    /* Not allowed when a task is waiti
 2154              		.loc 1 1938 0
ARM GAS  C:\Users\ADMINI~1\AppData\Local\Temp\ccvBRVNC.s 			page 73


 2155 003a FB68     		ldr	r3, [r7, #12]
 2156 003c 3622     		movs	r2, #54
 2157 003e 9B5C     		ldrb	r3, [r3, r2]
 2158 0040 1A00     		movs	r2, r3
 2159 0042 0223     		movs	r3, #2
 2160 0044 1340     		ands	r3, r2
 2161 0046 0FD0     		beq	.L144
1939:..\..\..\..\..\..\Software\uCOS-III\Source/os_task.c ****          (p_tcb->PendOn == OS_TASK_PEND_ON_TASK_SEM)) {
 2162              		.loc 1 1939 0 discriminator 1
 2163 0048 FB68     		ldr	r3, [r7, #12]
 2164 004a 3422     		movs	r2, #52
 2165 004c 9B5C     		ldrb	r3, [r3, r2]
1938:..\..\..\..\..\..\Software\uCOS-III\Source/os_task.c ****          (p_tcb->PendOn == OS_TASK_PEND_ON_TASK_SEM)) {
 2166              		.loc 1 1938 0 discriminator 1
 2167 004e 072B     		cmp	r3, #7
 2168 0050 0AD1     		bne	.L144
1940:..\..\..\..\..\..\Software\uCOS-III\Source/os_task.c ****         CPU_CRITICAL_EXIT();
 2169              		.loc 1 1940 0
 2170 0052 FFF7FEFF 		bl	CPU_IntDisMeasStop
 2171 0056 7B69     		ldr	r3, [r7, #20]
 2172 0058 1800     		movs	r0, r3
 2173 005a FFF7FEFF 		bl	CPU_SR_Restore
1941:..\..\..\..\..\..\Software\uCOS-III\Source/os_task.c ****        *p_err = OS_ERR_TASK_WAITING;
 2174              		.loc 1 1941 0
 2175 005e 7B68     		ldr	r3, [r7, #4]
 2176 0060 0E4A     		ldr	r2, .L145+12
 2177 0062 1A80     		strh	r2, [r3]
1942:..\..\..\..\..\..\Software\uCOS-III\Source/os_task.c ****         return (0u);
 2178              		.loc 1 1942 0
 2179 0064 0023     		movs	r3, #0
 2180 0066 0FE0     		b	.L142
 2181              	.L144:
1943:..\..\..\..\..\..\Software\uCOS-III\Source/os_task.c ****     }
1944:..\..\..\..\..\..\Software\uCOS-III\Source/os_task.c **** 
1945:..\..\..\..\..\..\Software\uCOS-III\Source/os_task.c ****     ctr           = p_tcb->SemCtr;
 2182              		.loc 1 1945 0
 2183 0068 FB68     		ldr	r3, [r7, #12]
 2184 006a DB6C     		ldr	r3, [r3, #76]
 2185 006c 3B61     		str	r3, [r7, #16]
1946:..\..\..\..\..\..\Software\uCOS-III\Source/os_task.c ****     p_tcb->SemCtr = (OS_SEM_CTR)cnt;
 2186              		.loc 1 1946 0
 2187 006e FB68     		ldr	r3, [r7, #12]
 2188 0070 BA68     		ldr	r2, [r7, #8]
 2189 0072 DA64     		str	r2, [r3, #76]
1947:..\..\..\..\..\..\Software\uCOS-III\Source/os_task.c ****     CPU_CRITICAL_EXIT();
 2190              		.loc 1 1947 0
 2191 0074 FFF7FEFF 		bl	CPU_IntDisMeasStop
 2192 0078 7B69     		ldr	r3, [r7, #20]
 2193 007a 1800     		movs	r0, r3
 2194 007c FFF7FEFF 		bl	CPU_SR_Restore
1948:..\..\..\..\..\..\Software\uCOS-III\Source/os_task.c ****    *p_err         =  OS_ERR_NONE;
 2195              		.loc 1 1948 0
 2196 0080 7B68     		ldr	r3, [r7, #4]
 2197 0082 0022     		movs	r2, #0
 2198 0084 1A80     		strh	r2, [r3]
1949:..\..\..\..\..\..\Software\uCOS-III\Source/os_task.c ****     return (ctr);
 2199              		.loc 1 1949 0
ARM GAS  C:\Users\ADMINI~1\AppData\Local\Temp\ccvBRVNC.s 			page 74


 2200 0086 3B69     		ldr	r3, [r7, #16]
 2201              	.L142:
1950:..\..\..\..\..\..\Software\uCOS-III\Source/os_task.c **** }
 2202              		.loc 1 1950 0
 2203 0088 1800     		movs	r0, r3
 2204 008a BD46     		mov	sp, r7
 2205 008c 06B0     		add	sp, sp, #24
 2206              		@ sp needed
 2207 008e 80BD     		pop	{r7, pc}
 2208              	.L146:
 2209              		.align	2
 2210              	.L145:
 2211 0090 00000000 		.word	OSIntNestingCtr
 2212 0094 C66D0000 		.word	28102
 2213 0098 00000000 		.word	OSTCBCurPtr
 2214 009c 5F710000 		.word	29023
 2215              		.cfi_endproc
 2216              	.LFE12:
 2217              		.size	OSTaskSemSet, .-OSTaskSemSet
 2218              		.section	.text.OSTaskStkChk,"ax",%progbits
 2219              		.align	2
 2220              		.global	OSTaskStkChk
 2221              		.code	16
 2222              		.thumb_func
 2223              		.type	OSTaskStkChk, %function
 2224              	OSTaskStkChk:
 2225              	.LFB13:
1951:..\..\..\..\..\..\Software\uCOS-III\Source/os_task.c **** 
1952:..\..\..\..\..\..\Software\uCOS-III\Source/os_task.c **** 
1953:..\..\..\..\..\..\Software\uCOS-III\Source/os_task.c **** /*
1954:..\..\..\..\..\..\Software\uCOS-III\Source/os_task.c **** ***************************************************************************************************
1955:..\..\..\..\..\..\Software\uCOS-III\Source/os_task.c **** *                                                    STACK CHECKING
1956:..\..\..\..\..\..\Software\uCOS-III\Source/os_task.c **** *
1957:..\..\..\..\..\..\Software\uCOS-III\Source/os_task.c **** * Description: This function is called to calculate the amount of free memory left on the specified
1958:..\..\..\..\..\..\Software\uCOS-III\Source/os_task.c **** *
1959:..\..\..\..\..\..\Software\uCOS-III\Source/os_task.c **** * Arguments  : p_tcb       is a pointer to the TCB of the task to check.  If you specify a NULL poi
1960:..\..\..\..\..\..\Software\uCOS-III\Source/os_task.c **** *                          you are specifying that you want to check the stack of the current task.
1961:..\..\..\..\..\..\Software\uCOS-III\Source/os_task.c **** *
1962:..\..\..\..\..\..\Software\uCOS-III\Source/os_task.c **** *              p_free      is a pointer to a variable that will receive the number of free 'entries
1963:..\..\..\..\..\..\Software\uCOS-III\Source/os_task.c **** *
1964:..\..\..\..\..\..\Software\uCOS-III\Source/os_task.c **** *              p_used      is a pointer to a variable that will receive the number of used 'entries
1965:..\..\..\..\..\..\Software\uCOS-III\Source/os_task.c **** *
1966:..\..\..\..\..\..\Software\uCOS-III\Source/os_task.c **** *              p_err       is a pointer to a variable that will contain an error code.
1967:..\..\..\..\..\..\Software\uCOS-III\Source/os_task.c **** *
1968:..\..\..\..\..\..\Software\uCOS-III\Source/os_task.c **** *                              OS_ERR_NONE               Upon success
1969:..\..\..\..\..\..\Software\uCOS-III\Source/os_task.c **** *                              OS_ERR_PTR_INVALID        If either 'p_free' or 'p_used' are NULL po
1970:..\..\..\..\..\..\Software\uCOS-III\Source/os_task.c **** *                              OS_ERR_TASK_NOT_EXIST     If the stack pointer of the task is a NULL
1971:..\..\..\..\..\..\Software\uCOS-III\Source/os_task.c **** *                              OS_ERR_TASK_OPT           If you did NOT specified OS_OPT_TASK_STK_C
1972:..\..\..\..\..\..\Software\uCOS-III\Source/os_task.c **** *                                                        was created
1973:..\..\..\..\..\..\Software\uCOS-III\Source/os_task.c **** *                              OS_ERR_TASK_STK_CHK_ISR   You called this function from an ISR
1974:..\..\..\..\..\..\Software\uCOS-III\Source/os_task.c **** *
1975:..\..\..\..\..\..\Software\uCOS-III\Source/os_task.c **** * Returns    : none
1976:..\..\..\..\..\..\Software\uCOS-III\Source/os_task.c **** *
1977:..\..\..\..\..\..\Software\uCOS-III\Source/os_task.c **** * Note(s)    : none
1978:..\..\..\..\..\..\Software\uCOS-III\Source/os_task.c **** ***************************************************************************************************
1979:..\..\..\..\..\..\Software\uCOS-III\Source/os_task.c **** */
1980:..\..\..\..\..\..\Software\uCOS-III\Source/os_task.c **** 
ARM GAS  C:\Users\ADMINI~1\AppData\Local\Temp\ccvBRVNC.s 			page 75


1981:..\..\..\..\..\..\Software\uCOS-III\Source/os_task.c **** #if (OS_CFG_STAT_TASK_STK_CHK_EN == DEF_ENABLED)
1982:..\..\..\..\..\..\Software\uCOS-III\Source/os_task.c **** void  OSTaskStkChk (OS_TCB        *p_tcb,
1983:..\..\..\..\..\..\Software\uCOS-III\Source/os_task.c ****                     CPU_STK_SIZE  *p_free,
1984:..\..\..\..\..\..\Software\uCOS-III\Source/os_task.c ****                     CPU_STK_SIZE  *p_used,
1985:..\..\..\..\..\..\Software\uCOS-III\Source/os_task.c ****                     OS_ERR        *p_err)
1986:..\..\..\..\..\..\Software\uCOS-III\Source/os_task.c **** {
 2226              		.loc 1 1986 0
 2227              		.cfi_startproc
 2228              		@ args = 0, pretend = 0, frame = 32
 2229              		@ frame_needed = 1, uses_anonymous_args = 0
 2230 0000 80B5     		push	{r7, lr}
 2231              		.cfi_def_cfa_offset 8
 2232              		.cfi_offset 7, -8
 2233              		.cfi_offset 14, -4
 2234 0002 88B0     		sub	sp, sp, #32
 2235              		.cfi_def_cfa_offset 40
 2236 0004 00AF     		add	r7, sp, #0
 2237              		.cfi_def_cfa_register 7
 2238 0006 F860     		str	r0, [r7, #12]
 2239 0008 B960     		str	r1, [r7, #8]
 2240 000a 7A60     		str	r2, [r7, #4]
 2241 000c 3B60     		str	r3, [r7]
1987:..\..\..\..\..\..\Software\uCOS-III\Source/os_task.c ****     CPU_STK_SIZE  free_stk;
1988:..\..\..\..\..\..\Software\uCOS-III\Source/os_task.c ****     CPU_STK      *p_stk;
1989:..\..\..\..\..\..\Software\uCOS-III\Source/os_task.c ****     CPU_SR_ALLOC();
 2242              		.loc 1 1989 0
 2243 000e 0023     		movs	r3, #0
 2244 0010 7B61     		str	r3, [r7, #20]
1990:..\..\..\..\..\..\Software\uCOS-III\Source/os_task.c **** 
1991:..\..\..\..\..\..\Software\uCOS-III\Source/os_task.c **** 
1992:..\..\..\..\..\..\Software\uCOS-III\Source/os_task.c **** #ifdef OS_SAFETY_CRITICAL
1993:..\..\..\..\..\..\Software\uCOS-III\Source/os_task.c ****     if (p_err == DEF_NULL) {
1994:..\..\..\..\..\..\Software\uCOS-III\Source/os_task.c ****         OS_SAFETY_CRITICAL_EXCEPTION();
1995:..\..\..\..\..\..\Software\uCOS-III\Source/os_task.c ****         return;
1996:..\..\..\..\..\..\Software\uCOS-III\Source/os_task.c ****     }
1997:..\..\..\..\..\..\Software\uCOS-III\Source/os_task.c **** #endif
1998:..\..\..\..\..\..\Software\uCOS-III\Source/os_task.c **** 
1999:..\..\..\..\..\..\Software\uCOS-III\Source/os_task.c **** #if (OS_CFG_CALLED_FROM_ISR_CHK_EN == DEF_ENABLED)
2000:..\..\..\..\..\..\Software\uCOS-III\Source/os_task.c ****     if (OSIntNestingCtr > 0u) {                                 /* See if trying to check stack fro
 2245              		.loc 1 2000 0
 2246 0012 394B     		ldr	r3, .L157
 2247 0014 1B78     		ldrb	r3, [r3]
 2248 0016 002B     		cmp	r3, #0
 2249 0018 03D0     		beq	.L148
2001:..\..\..\..\..\..\Software\uCOS-III\Source/os_task.c ****        *p_err = OS_ERR_TASK_STK_CHK_ISR;
 2250              		.loc 1 2001 0
 2251 001a 3B68     		ldr	r3, [r7]
 2252 001c 374A     		ldr	r2, .L157+4
 2253 001e 1A80     		strh	r2, [r3]
2002:..\..\..\..\..\..\Software\uCOS-III\Source/os_task.c ****         return;
 2254              		.loc 1 2002 0
 2255 0020 66E0     		b	.L147
 2256              	.L148:
2003:..\..\..\..\..\..\Software\uCOS-III\Source/os_task.c ****     }
2004:..\..\..\..\..\..\Software\uCOS-III\Source/os_task.c **** #endif
2005:..\..\..\..\..\..\Software\uCOS-III\Source/os_task.c **** 
2006:..\..\..\..\..\..\Software\uCOS-III\Source/os_task.c **** #if (OS_CFG_ARG_CHK_EN == DEF_ENABLED)
ARM GAS  C:\Users\ADMINI~1\AppData\Local\Temp\ccvBRVNC.s 			page 76


2007:..\..\..\..\..\..\Software\uCOS-III\Source/os_task.c ****     if (p_free == DEF_NULL) {                                   /* User must specify valid destinat
 2257              		.loc 1 2007 0
 2258 0022 BB68     		ldr	r3, [r7, #8]
 2259 0024 002B     		cmp	r3, #0
 2260 0026 03D1     		bne	.L150
2008:..\..\..\..\..\..\Software\uCOS-III\Source/os_task.c ****        *p_err = OS_ERR_PTR_INVALID;
 2261              		.loc 1 2008 0
 2262 0028 3B68     		ldr	r3, [r7]
 2263 002a 354A     		ldr	r2, .L157+8
 2264 002c 1A80     		strh	r2, [r3]
2009:..\..\..\..\..\..\Software\uCOS-III\Source/os_task.c ****         return;
 2265              		.loc 1 2009 0
 2266 002e 5FE0     		b	.L147
 2267              	.L150:
2010:..\..\..\..\..\..\Software\uCOS-III\Source/os_task.c ****     }
2011:..\..\..\..\..\..\Software\uCOS-III\Source/os_task.c **** 
2012:..\..\..\..\..\..\Software\uCOS-III\Source/os_task.c ****     if (p_used == DEF_NULL) {
 2268              		.loc 1 2012 0
 2269 0030 7B68     		ldr	r3, [r7, #4]
 2270 0032 002B     		cmp	r3, #0
 2271 0034 03D1     		bne	.L151
2013:..\..\..\..\..\..\Software\uCOS-III\Source/os_task.c ****        *p_err = OS_ERR_PTR_INVALID;
 2272              		.loc 1 2013 0
 2273 0036 3B68     		ldr	r3, [r7]
 2274 0038 314A     		ldr	r2, .L157+8
 2275 003a 1A80     		strh	r2, [r3]
2014:..\..\..\..\..\..\Software\uCOS-III\Source/os_task.c ****         return;
 2276              		.loc 1 2014 0
 2277 003c 58E0     		b	.L147
 2278              	.L151:
2015:..\..\..\..\..\..\Software\uCOS-III\Source/os_task.c ****     }
2016:..\..\..\..\..\..\Software\uCOS-III\Source/os_task.c **** #endif
2017:..\..\..\..\..\..\Software\uCOS-III\Source/os_task.c **** 
2018:..\..\..\..\..\..\Software\uCOS-III\Source/os_task.c ****     CPU_CRITICAL_ENTER();
 2279              		.loc 1 2018 0
 2280 003e FFF7FEFF 		bl	CPU_SR_Save
 2281 0042 0300     		movs	r3, r0
 2282 0044 7B61     		str	r3, [r7, #20]
 2283 0046 FFF7FEFF 		bl	CPU_IntDisMeasStart
2019:..\..\..\..\..\..\Software\uCOS-III\Source/os_task.c ****     if (p_tcb == DEF_NULL) {                                    /* Check the stack of the current t
 2284              		.loc 1 2019 0
 2285 004a FB68     		ldr	r3, [r7, #12]
 2286 004c 002B     		cmp	r3, #0
 2287 004e 02D1     		bne	.L152
2020:..\..\..\..\..\..\Software\uCOS-III\Source/os_task.c ****         p_tcb = OSTCBCurPtr;                                    /* Yes                             
 2288              		.loc 1 2020 0
 2289 0050 2C4B     		ldr	r3, .L157+12
 2290 0052 1B68     		ldr	r3, [r3]
 2291 0054 FB60     		str	r3, [r7, #12]
 2292              	.L152:
2021:..\..\..\..\..\..\Software\uCOS-III\Source/os_task.c ****     }
2022:..\..\..\..\..\..\Software\uCOS-III\Source/os_task.c **** 
2023:..\..\..\..\..\..\Software\uCOS-III\Source/os_task.c ****     if (p_tcb->StkPtr == DEF_NULL) {                            /* Make sure task exist            
 2293              		.loc 1 2023 0
 2294 0056 FB68     		ldr	r3, [r7, #12]
 2295 0058 1B68     		ldr	r3, [r3]
 2296 005a 002B     		cmp	r3, #0
ARM GAS  C:\Users\ADMINI~1\AppData\Local\Temp\ccvBRVNC.s 			page 77


 2297 005c 0FD1     		bne	.L153
2024:..\..\..\..\..\..\Software\uCOS-III\Source/os_task.c ****         CPU_CRITICAL_EXIT();
 2298              		.loc 1 2024 0
 2299 005e FFF7FEFF 		bl	CPU_IntDisMeasStop
 2300 0062 7B69     		ldr	r3, [r7, #20]
 2301 0064 1800     		movs	r0, r3
 2302 0066 FFF7FEFF 		bl	CPU_SR_Restore
2025:..\..\..\..\..\..\Software\uCOS-III\Source/os_task.c ****        *p_free = 0u;
 2303              		.loc 1 2025 0
 2304 006a BB68     		ldr	r3, [r7, #8]
 2305 006c 0022     		movs	r2, #0
 2306 006e 1A60     		str	r2, [r3]
2026:..\..\..\..\..\..\Software\uCOS-III\Source/os_task.c ****        *p_used = 0u;
 2307              		.loc 1 2026 0
 2308 0070 7B68     		ldr	r3, [r7, #4]
 2309 0072 0022     		movs	r2, #0
 2310 0074 1A60     		str	r2, [r3]
2027:..\..\..\..\..\..\Software\uCOS-III\Source/os_task.c ****        *p_err  = OS_ERR_TASK_NOT_EXIST;
 2311              		.loc 1 2027 0
 2312 0076 3B68     		ldr	r3, [r7]
 2313 0078 234A     		ldr	r2, .L157+16
 2314 007a 1A80     		strh	r2, [r3]
2028:..\..\..\..\..\..\Software\uCOS-III\Source/os_task.c ****         return;
 2315              		.loc 1 2028 0
 2316 007c 38E0     		b	.L147
 2317              	.L153:
2029:..\..\..\..\..\..\Software\uCOS-III\Source/os_task.c ****     }
2030:..\..\..\..\..\..\Software\uCOS-III\Source/os_task.c **** 
2031:..\..\..\..\..\..\Software\uCOS-III\Source/os_task.c ****     if ((p_tcb->Opt & OS_OPT_TASK_STK_CHK) == 0u) {             /* Make sure stack checking option 
 2318              		.loc 1 2031 0
 2319 007e FB68     		ldr	r3, [r7, #12]
 2320 0080 4422     		movs	r2, #68
 2321 0082 9B5A     		ldrh	r3, [r3, r2]
 2322 0084 1A00     		movs	r2, r3
 2323 0086 0123     		movs	r3, #1
 2324 0088 1340     		ands	r3, r2
 2325 008a 0FD1     		bne	.L154
2032:..\..\..\..\..\..\Software\uCOS-III\Source/os_task.c ****         CPU_CRITICAL_EXIT();
 2326              		.loc 1 2032 0
 2327 008c FFF7FEFF 		bl	CPU_IntDisMeasStop
 2328 0090 7B69     		ldr	r3, [r7, #20]
 2329 0092 1800     		movs	r0, r3
 2330 0094 FFF7FEFF 		bl	CPU_SR_Restore
2033:..\..\..\..\..\..\Software\uCOS-III\Source/os_task.c ****        *p_free = 0u;
 2331              		.loc 1 2033 0
 2332 0098 BB68     		ldr	r3, [r7, #8]
 2333 009a 0022     		movs	r2, #0
 2334 009c 1A60     		str	r2, [r3]
2034:..\..\..\..\..\..\Software\uCOS-III\Source/os_task.c ****        *p_used = 0u;
 2335              		.loc 1 2034 0
 2336 009e 7B68     		ldr	r3, [r7, #4]
 2337 00a0 0022     		movs	r2, #0
 2338 00a2 1A60     		str	r2, [r3]
2035:..\..\..\..\..\..\Software\uCOS-III\Source/os_task.c ****        *p_err  = OS_ERR_TASK_OPT;
 2339              		.loc 1 2035 0
 2340 00a4 3B68     		ldr	r3, [r7]
 2341 00a6 194A     		ldr	r2, .L157+20
ARM GAS  C:\Users\ADMINI~1\AppData\Local\Temp\ccvBRVNC.s 			page 78


 2342 00a8 1A80     		strh	r2, [r3]
2036:..\..\..\..\..\..\Software\uCOS-III\Source/os_task.c ****         return;
 2343              		.loc 1 2036 0
 2344 00aa 21E0     		b	.L147
 2345              	.L154:
2037:..\..\..\..\..\..\Software\uCOS-III\Source/os_task.c ****     }
2038:..\..\..\..\..\..\Software\uCOS-III\Source/os_task.c ****     CPU_CRITICAL_EXIT();
 2346              		.loc 1 2038 0
 2347 00ac FFF7FEFF 		bl	CPU_IntDisMeasStop
 2348 00b0 7B69     		ldr	r3, [r7, #20]
 2349 00b2 1800     		movs	r0, r3
 2350 00b4 FFF7FEFF 		bl	CPU_SR_Restore
2039:..\..\..\..\..\..\Software\uCOS-III\Source/os_task.c **** 
2040:..\..\..\..\..\..\Software\uCOS-III\Source/os_task.c ****     free_stk = 0u;
 2351              		.loc 1 2040 0
 2352 00b8 0023     		movs	r3, #0
 2353 00ba FB61     		str	r3, [r7, #28]
2041:..\..\..\..\..\..\Software\uCOS-III\Source/os_task.c **** #if (CPU_CFG_STK_GROWTH == CPU_STK_GROWTH_HI_TO_LO)
2042:..\..\..\..\..\..\Software\uCOS-III\Source/os_task.c ****     p_stk = p_tcb->StkBasePtr;                                  /* Start at the lowest memory and g
 2354              		.loc 1 2042 0
 2355 00bc FB68     		ldr	r3, [r7, #12]
 2356 00be 5B6A     		ldr	r3, [r3, #36]
 2357 00c0 BB61     		str	r3, [r7, #24]
2043:..\..\..\..\..\..\Software\uCOS-III\Source/os_task.c **** #if (OS_CFG_TASK_STK_REDZONE_EN == DEF_ENABLED)
2044:..\..\..\..\..\..\Software\uCOS-III\Source/os_task.c ****     p_stk += OS_CFG_TASK_STK_REDZONE_DEPTH;
2045:..\..\..\..\..\..\Software\uCOS-III\Source/os_task.c **** #endif
2046:..\..\..\..\..\..\Software\uCOS-III\Source/os_task.c ****     while (*p_stk == 0u) {                                      /* Compute the number of zero entri
 2358              		.loc 1 2046 0
 2359 00c2 05E0     		b	.L155
 2360              	.L156:
2047:..\..\..\..\..\..\Software\uCOS-III\Source/os_task.c ****         p_stk++;
 2361              		.loc 1 2047 0
 2362 00c4 BB69     		ldr	r3, [r7, #24]
 2363 00c6 0433     		adds	r3, r3, #4
 2364 00c8 BB61     		str	r3, [r7, #24]
2048:..\..\..\..\..\..\Software\uCOS-III\Source/os_task.c ****         free_stk++;
 2365              		.loc 1 2048 0
 2366 00ca FB69     		ldr	r3, [r7, #28]
 2367 00cc 0133     		adds	r3, r3, #1
 2368 00ce FB61     		str	r3, [r7, #28]
 2369              	.L155:
2046:..\..\..\..\..\..\Software\uCOS-III\Source/os_task.c ****         p_stk++;
 2370              		.loc 1 2046 0
 2371 00d0 BB69     		ldr	r3, [r7, #24]
 2372 00d2 1B68     		ldr	r3, [r3]
 2373 00d4 002B     		cmp	r3, #0
 2374 00d6 F5D0     		beq	.L156
2049:..\..\..\..\..\..\Software\uCOS-III\Source/os_task.c ****     }
2050:..\..\..\..\..\..\Software\uCOS-III\Source/os_task.c **** #else
2051:..\..\..\..\..\..\Software\uCOS-III\Source/os_task.c ****     p_stk = p_tcb->StkBasePtr + p_tcb->StkSize - 1u;            /* Start at the highest memory and 
2052:..\..\..\..\..\..\Software\uCOS-III\Source/os_task.c **** #if (OS_CFG_TASK_STK_REDZONE_EN == DEF_ENABLED)
2053:..\..\..\..\..\..\Software\uCOS-III\Source/os_task.c ****     p_stk -= OS_CFG_TASK_STK_REDZONE_DEPTH;
2054:..\..\..\..\..\..\Software\uCOS-III\Source/os_task.c **** #endif
2055:..\..\..\..\..\..\Software\uCOS-III\Source/os_task.c ****     while (*p_stk == 0u) {
2056:..\..\..\..\..\..\Software\uCOS-III\Source/os_task.c ****         free_stk++;
2057:..\..\..\..\..\..\Software\uCOS-III\Source/os_task.c ****         p_stk--;
2058:..\..\..\..\..\..\Software\uCOS-III\Source/os_task.c ****     }
ARM GAS  C:\Users\ADMINI~1\AppData\Local\Temp\ccvBRVNC.s 			page 79


2059:..\..\..\..\..\..\Software\uCOS-III\Source/os_task.c **** #endif
2060:..\..\..\..\..\..\Software\uCOS-III\Source/os_task.c **** #if (OS_CFG_TASK_STK_REDZONE_EN == DEF_ENABLED)
2061:..\..\..\..\..\..\Software\uCOS-III\Source/os_task.c ****     free_stk -= OS_CFG_TASK_STK_REDZONE_DEPTH;                  /* Compensate for stack elements us
2062:..\..\..\..\..\..\Software\uCOS-III\Source/os_task.c **** #endif
2063:..\..\..\..\..\..\Software\uCOS-III\Source/os_task.c ****    *p_free = free_stk;
 2375              		.loc 1 2063 0
 2376 00d8 BB68     		ldr	r3, [r7, #8]
 2377 00da FA69     		ldr	r2, [r7, #28]
 2378 00dc 1A60     		str	r2, [r3]
2064:..\..\..\..\..\..\Software\uCOS-III\Source/os_task.c ****    *p_used = (p_tcb->StkSize - free_stk);                       /* Compute number of entries used o
 2379              		.loc 1 2064 0
 2380 00de FB68     		ldr	r3, [r7, #12]
 2381 00e0 1A6C     		ldr	r2, [r3, #64]
 2382 00e2 FB69     		ldr	r3, [r7, #28]
 2383 00e4 D21A     		subs	r2, r2, r3
 2384 00e6 7B68     		ldr	r3, [r7, #4]
 2385 00e8 1A60     		str	r2, [r3]
2065:..\..\..\..\..\..\Software\uCOS-III\Source/os_task.c ****    *p_err  = OS_ERR_NONE;
 2386              		.loc 1 2065 0
 2387 00ea 3B68     		ldr	r3, [r7]
 2388 00ec 0022     		movs	r2, #0
 2389 00ee 1A80     		strh	r2, [r3]
 2390              	.L147:
2066:..\..\..\..\..\..\Software\uCOS-III\Source/os_task.c **** }
 2391              		.loc 1 2066 0
 2392 00f0 BD46     		mov	sp, r7
 2393 00f2 08B0     		add	sp, sp, #32
 2394              		@ sp needed
 2395 00f4 80BD     		pop	{r7, pc}
 2396              	.L158:
 2397 00f6 C046     		.align	2
 2398              	.L157:
 2399 00f8 00000000 		.word	OSIntNestingCtr
 2400 00fc 59710000 		.word	29017
 2401 0100 D5620000 		.word	25301
 2402 0104 00000000 		.word	OSTCBCurPtr
 2403 0108 52710000 		.word	29010
 2404 010c 54710000 		.word	29012
 2405              		.cfi_endproc
 2406              	.LFE13:
 2407              		.size	OSTaskStkChk, .-OSTaskStkChk
 2408              		.section	.text.OSTaskSuspend,"ax",%progbits
 2409              		.align	2
 2410              		.global	OSTaskSuspend
 2411              		.code	16
 2412              		.thumb_func
 2413              		.type	OSTaskSuspend, %function
 2414              	OSTaskSuspend:
 2415              	.LFB14:
2067:..\..\..\..\..\..\Software\uCOS-III\Source/os_task.c **** #endif
2068:..\..\..\..\..\..\Software\uCOS-III\Source/os_task.c **** 
2069:..\..\..\..\..\..\Software\uCOS-III\Source/os_task.c **** 
2070:..\..\..\..\..\..\Software\uCOS-III\Source/os_task.c **** /*
2071:..\..\..\..\..\..\Software\uCOS-III\Source/os_task.c **** ***************************************************************************************************
2072:..\..\..\..\..\..\Software\uCOS-III\Source/os_task.c **** *                                            CHECK THE STACK REDZONE OF A TASK
2073:..\..\..\..\..\..\Software\uCOS-III\Source/os_task.c **** *
2074:..\..\..\..\..\..\Software\uCOS-III\Source/os_task.c **** * Description: Verify a task's stack redzone.
ARM GAS  C:\Users\ADMINI~1\AppData\Local\Temp\ccvBRVNC.s 			page 80


2075:..\..\..\..\..\..\Software\uCOS-III\Source/os_task.c **** *
2076:..\..\..\..\..\..\Software\uCOS-III\Source/os_task.c **** * Arguments  : p_tcb     is a pointer to the TCB of the task to check or null for the current task.
2077:..\..\..\..\..\..\Software\uCOS-III\Source/os_task.c **** *
2078:..\..\..\..\..\..\Software\uCOS-III\Source/os_task.c **** * Returns    : If the stack is corrupted (DEF_FAIL) or not (DEF_OK).
2079:..\..\..\..\..\..\Software\uCOS-III\Source/os_task.c **** *
2080:..\..\..\..\..\..\Software\uCOS-III\Source/os_task.c **** * Note(s)    : These functions are INTERNAL to uC/OS-III and your application should not call it.
2081:..\..\..\..\..\..\Software\uCOS-III\Source/os_task.c **** ***************************************************************************************************
2082:..\..\..\..\..\..\Software\uCOS-III\Source/os_task.c **** */
2083:..\..\..\..\..\..\Software\uCOS-III\Source/os_task.c **** 
2084:..\..\..\..\..\..\Software\uCOS-III\Source/os_task.c **** #if (OS_CFG_TASK_STK_REDZONE_EN == DEF_ENABLED)
2085:..\..\..\..\..\..\Software\uCOS-III\Source/os_task.c **** CPU_BOOLEAN  OSTaskStkRedzoneChk (OS_TCB  *p_tcb)
2086:..\..\..\..\..\..\Software\uCOS-III\Source/os_task.c **** {
2087:..\..\..\..\..\..\Software\uCOS-III\Source/os_task.c ****     CPU_BOOLEAN  stk_status;
2088:..\..\..\..\..\..\Software\uCOS-III\Source/os_task.c **** 
2089:..\..\..\..\..\..\Software\uCOS-III\Source/os_task.c **** 
2090:..\..\..\..\..\..\Software\uCOS-III\Source/os_task.c ****     if (p_tcb == DEF_NULL) {
2091:..\..\..\..\..\..\Software\uCOS-III\Source/os_task.c ****         p_tcb = OSTCBCurPtr;
2092:..\..\..\..\..\..\Software\uCOS-III\Source/os_task.c ****     }
2093:..\..\..\..\..\..\Software\uCOS-III\Source/os_task.c ****                                                                 /* Check if SP is valid:           
2094:..\..\..\..\..\..\Software\uCOS-III\Source/os_task.c ****                                                                 /*   StkBase <= SP < (StkBase + Stk
2095:..\..\..\..\..\..\Software\uCOS-III\Source/os_task.c ****     if ((p_tcb->StkPtr <   p_tcb->StkBasePtr) ||
2096:..\..\..\..\..\..\Software\uCOS-III\Source/os_task.c ****         (p_tcb->StkPtr >= (p_tcb->StkBasePtr + p_tcb->StkSize))) {
2097:..\..\..\..\..\..\Software\uCOS-III\Source/os_task.c ****         return (DEF_FAIL);
2098:..\..\..\..\..\..\Software\uCOS-III\Source/os_task.c ****     }
2099:..\..\..\..\..\..\Software\uCOS-III\Source/os_task.c **** 
2100:..\..\..\..\..\..\Software\uCOS-III\Source/os_task.c ****     stk_status = OS_TaskStkRedzoneChk(p_tcb->StkBasePtr, p_tcb->StkSize);
2101:..\..\..\..\..\..\Software\uCOS-III\Source/os_task.c **** 
2102:..\..\..\..\..\..\Software\uCOS-III\Source/os_task.c ****     return (stk_status);
2103:..\..\..\..\..\..\Software\uCOS-III\Source/os_task.c **** }
2104:..\..\..\..\..\..\Software\uCOS-III\Source/os_task.c **** #endif
2105:..\..\..\..\..\..\Software\uCOS-III\Source/os_task.c **** 
2106:..\..\..\..\..\..\Software\uCOS-III\Source/os_task.c **** 
2107:..\..\..\..\..\..\Software\uCOS-III\Source/os_task.c **** /*
2108:..\..\..\..\..\..\Software\uCOS-III\Source/os_task.c **** ***************************************************************************************************
2109:..\..\..\..\..\..\Software\uCOS-III\Source/os_task.c **** *                                                   SUSPEND A TASK
2110:..\..\..\..\..\..\Software\uCOS-III\Source/os_task.c **** *
2111:..\..\..\..\..\..\Software\uCOS-III\Source/os_task.c **** * Description: This function is called to suspend a task.  The task can be the calling task if 'p_t
2112:..\..\..\..\..\..\Software\uCOS-III\Source/os_task.c **** *              or the pointer to the TCB of the calling task.
2113:..\..\..\..\..\..\Software\uCOS-III\Source/os_task.c **** *
2114:..\..\..\..\..\..\Software\uCOS-III\Source/os_task.c **** * Arguments  : p_tcb    is a pointer to the TCB to suspend.
2115:..\..\..\..\..\..\Software\uCOS-III\Source/os_task.c **** *                       If p_tcb is a NULL pointer then, suspend the current task.
2116:..\..\..\..\..\..\Software\uCOS-III\Source/os_task.c **** *
2117:..\..\..\..\..\..\Software\uCOS-III\Source/os_task.c **** *              p_err    is a pointer to a variable that will receive an error code from this functi
2118:..\..\..\..\..\..\Software\uCOS-III\Source/os_task.c **** *
2119:..\..\..\..\..\..\Software\uCOS-III\Source/os_task.c **** *                           OS_ERR_NONE                        If the requested task is suspended
2120:..\..\..\..\..\..\Software\uCOS-III\Source/os_task.c **** *                           OS_ERR_INT_Q_FULL                  If the deferred interrupt post queue
2121:..\..\..\..\..\..\Software\uCOS-III\Source/os_task.c **** *                           OS_ERR_OS_NOT_RUNNING              If uC/OS-III is not running yet
2122:..\..\..\..\..\..\Software\uCOS-III\Source/os_task.c **** *                           OS_ERR_SCHED_LOCKED                You can't suspend the current task i
2123:..\..\..\..\..\..\Software\uCOS-III\Source/os_task.c **** *                                                                  locked
2124:..\..\..\..\..\..\Software\uCOS-III\Source/os_task.c **** *                           OS_ERR_STATE_INVALID               If the task is in an invalid state
2125:..\..\..\..\..\..\Software\uCOS-III\Source/os_task.c **** *                           OS_ERR_TASK_SUSPEND_CTR_OVF        If the nesting counter overflowed.
2126:..\..\..\..\..\..\Software\uCOS-III\Source/os_task.c **** *                           OS_ERR_TASK_SUSPEND_ISR            If you called this function from an 
2127:..\..\..\..\..\..\Software\uCOS-III\Source/os_task.c **** *                           OS_ERR_TASK_SUSPEND_IDLE           If you attempted to suspend the idle
2128:..\..\..\..\..\..\Software\uCOS-III\Source/os_task.c **** *                                                                  allowed
2129:..\..\..\..\..\..\Software\uCOS-III\Source/os_task.c **** *                           OS_ERR_TASK_SUSPEND_INT_HANDLER    If you attempted to suspend the idle
2130:..\..\..\..\..\..\Software\uCOS-III\Source/os_task.c **** *                                                                  allowed
2131:..\..\..\..\..\..\Software\uCOS-III\Source/os_task.c **** *
ARM GAS  C:\Users\ADMINI~1\AppData\Local\Temp\ccvBRVNC.s 			page 81


2132:..\..\..\..\..\..\Software\uCOS-III\Source/os_task.c **** * Returns    : none
2133:..\..\..\..\..\..\Software\uCOS-III\Source/os_task.c **** *
2134:..\..\..\..\..\..\Software\uCOS-III\Source/os_task.c **** * Note(s)    : 1) You should use this function with great care.  If you suspend a task that is wait
2135:..\..\..\..\..\..\Software\uCOS-III\Source/os_task.c **** *                 (i.e. a message, a semaphore, a queue ...) you will prevent this task from runnin
2136:..\..\..\..\..\..\Software\uCOS-III\Source/os_task.c **** *                 arrives.
2137:..\..\..\..\..\..\Software\uCOS-III\Source/os_task.c **** ***************************************************************************************************
2138:..\..\..\..\..\..\Software\uCOS-III\Source/os_task.c **** */
2139:..\..\..\..\..\..\Software\uCOS-III\Source/os_task.c **** 
2140:..\..\..\..\..\..\Software\uCOS-III\Source/os_task.c **** #if (OS_CFG_TASK_SUSPEND_EN == DEF_ENABLED)
2141:..\..\..\..\..\..\Software\uCOS-III\Source/os_task.c **** void   OSTaskSuspend (OS_TCB  *p_tcb,
2142:..\..\..\..\..\..\Software\uCOS-III\Source/os_task.c ****                       OS_ERR  *p_err)
2143:..\..\..\..\..\..\Software\uCOS-III\Source/os_task.c **** {
 2416              		.loc 1 2143 0
 2417              		.cfi_startproc
 2418              		@ args = 0, pretend = 0, frame = 8
 2419              		@ frame_needed = 1, uses_anonymous_args = 0
 2420 0000 80B5     		push	{r7, lr}
 2421              		.cfi_def_cfa_offset 8
 2422              		.cfi_offset 7, -8
 2423              		.cfi_offset 14, -4
 2424 0002 82B0     		sub	sp, sp, #8
 2425              		.cfi_def_cfa_offset 16
 2426 0004 00AF     		add	r7, sp, #0
 2427              		.cfi_def_cfa_register 7
 2428 0006 7860     		str	r0, [r7, #4]
 2429 0008 3960     		str	r1, [r7]
2144:..\..\..\..\..\..\Software\uCOS-III\Source/os_task.c **** #ifdef OS_SAFETY_CRITICAL
2145:..\..\..\..\..\..\Software\uCOS-III\Source/os_task.c ****     if (p_err == DEF_NULL) {
2146:..\..\..\..\..\..\Software\uCOS-III\Source/os_task.c ****         OS_SAFETY_CRITICAL_EXCEPTION();
2147:..\..\..\..\..\..\Software\uCOS-III\Source/os_task.c ****         return;
2148:..\..\..\..\..\..\Software\uCOS-III\Source/os_task.c ****     }
2149:..\..\..\..\..\..\Software\uCOS-III\Source/os_task.c **** #endif
2150:..\..\..\..\..\..\Software\uCOS-III\Source/os_task.c **** 
2151:..\..\..\..\..\..\Software\uCOS-III\Source/os_task.c **** #if (OS_CFG_ISR_POST_DEFERRED_EN   == DEF_DISABLED) && \
2152:..\..\..\..\..\..\Software\uCOS-III\Source/os_task.c ****     (OS_CFG_CALLED_FROM_ISR_CHK_EN == DEF_ENABLED)
2153:..\..\..\..\..\..\Software\uCOS-III\Source/os_task.c ****     if (OSIntNestingCtr > 0u) {                                 /* Not allowed to call from an ISR 
 2430              		.loc 1 2153 0
 2431 000a 0C4B     		ldr	r3, .L163
 2432 000c 1B78     		ldrb	r3, [r3]
 2433 000e 002B     		cmp	r3, #0
 2434 0010 03D0     		beq	.L160
2154:..\..\..\..\..\..\Software\uCOS-III\Source/os_task.c ****        *p_err = OS_ERR_TASK_SUSPEND_ISR;
 2435              		.loc 1 2154 0
 2436 0012 3B68     		ldr	r3, [r7]
 2437 0014 0A4A     		ldr	r2, .L163+4
 2438 0016 1A80     		strh	r2, [r3]
2155:..\..\..\..\..\..\Software\uCOS-III\Source/os_task.c ****         return;
 2439              		.loc 1 2155 0
 2440 0018 0DE0     		b	.L159
 2441              	.L160:
2156:..\..\..\..\..\..\Software\uCOS-III\Source/os_task.c ****     }
2157:..\..\..\..\..\..\Software\uCOS-III\Source/os_task.c **** #endif
2158:..\..\..\..\..\..\Software\uCOS-III\Source/os_task.c **** 
2159:..\..\..\..\..\..\Software\uCOS-III\Source/os_task.c **** #if (OS_CFG_TASK_IDLE_EN == DEF_ENABLED)
2160:..\..\..\..\..\..\Software\uCOS-III\Source/os_task.c ****     if (p_tcb == &OSIdleTaskTCB) {                              /* Make sure not suspending the idl
 2442              		.loc 1 2160 0
 2443 001a 7A68     		ldr	r2, [r7, #4]
ARM GAS  C:\Users\ADMINI~1\AppData\Local\Temp\ccvBRVNC.s 			page 82


 2444 001c 094B     		ldr	r3, .L163+8
 2445 001e 9A42     		cmp	r2, r3
 2446 0020 03D1     		bne	.L162
2161:..\..\..\..\..\..\Software\uCOS-III\Source/os_task.c ****        *p_err = OS_ERR_TASK_SUSPEND_IDLE;
 2447              		.loc 1 2161 0
 2448 0022 3B68     		ldr	r3, [r7]
 2449 0024 084A     		ldr	r2, .L163+12
 2450 0026 1A80     		strh	r2, [r3]
2162:..\..\..\..\..\..\Software\uCOS-III\Source/os_task.c ****         return;
 2451              		.loc 1 2162 0
 2452 0028 05E0     		b	.L159
 2453              	.L162:
2163:..\..\..\..\..\..\Software\uCOS-III\Source/os_task.c ****     }
2164:..\..\..\..\..\..\Software\uCOS-III\Source/os_task.c **** #endif
2165:..\..\..\..\..\..\Software\uCOS-III\Source/os_task.c **** 
2166:..\..\..\..\..\..\Software\uCOS-III\Source/os_task.c **** #if (OS_CFG_ISR_POST_DEFERRED_EN == DEF_ENABLED)
2167:..\..\..\..\..\..\Software\uCOS-III\Source/os_task.c ****     if (p_tcb == &OSIntQTaskTCB) {                              /* Not allowed to suspend the ISR h
2168:..\..\..\..\..\..\Software\uCOS-III\Source/os_task.c ****        *p_err = OS_ERR_TASK_SUSPEND_INT_HANDLER;
2169:..\..\..\..\..\..\Software\uCOS-III\Source/os_task.c ****         return;
2170:..\..\..\..\..\..\Software\uCOS-III\Source/os_task.c ****     }
2171:..\..\..\..\..\..\Software\uCOS-III\Source/os_task.c **** 
2172:..\..\..\..\..\..\Software\uCOS-III\Source/os_task.c ****     if (OSIntNestingCtr > 0u) {                                 /* See if called from an ISR       
2173:..\..\..\..\..\..\Software\uCOS-III\Source/os_task.c ****         OS_IntQPost(OS_OBJ_TYPE_TASK_SUSPEND,                   /* Post to ISR queue               
2174:..\..\..\..\..\..\Software\uCOS-III\Source/os_task.c ****                     (void *)p_tcb,
2175:..\..\..\..\..\..\Software\uCOS-III\Source/os_task.c ****                     DEF_NULL,
2176:..\..\..\..\..\..\Software\uCOS-III\Source/os_task.c ****                     0u,
2177:..\..\..\..\..\..\Software\uCOS-III\Source/os_task.c ****                     0u,
2178:..\..\..\..\..\..\Software\uCOS-III\Source/os_task.c ****                     0u,
2179:..\..\..\..\..\..\Software\uCOS-III\Source/os_task.c ****                     0u,
2180:..\..\..\..\..\..\Software\uCOS-III\Source/os_task.c ****                     p_err);
2181:..\..\..\..\..\..\Software\uCOS-III\Source/os_task.c ****         return;
2182:..\..\..\..\..\..\Software\uCOS-III\Source/os_task.c ****     }
2183:..\..\..\..\..\..\Software\uCOS-III\Source/os_task.c **** #endif
2184:..\..\..\..\..\..\Software\uCOS-III\Source/os_task.c **** 
2185:..\..\..\..\..\..\Software\uCOS-III\Source/os_task.c ****     OS_TaskSuspend(p_tcb, p_err);
 2454              		.loc 1 2185 0
 2455 002a 3A68     		ldr	r2, [r7]
 2456 002c 7B68     		ldr	r3, [r7, #4]
 2457 002e 1100     		movs	r1, r2
 2458 0030 1800     		movs	r0, r3
 2459 0032 FFF7FEFF 		bl	OS_TaskSuspend
 2460              	.L159:
2186:..\..\..\..\..\..\Software\uCOS-III\Source/os_task.c **** }
 2461              		.loc 1 2186 0
 2462 0036 BD46     		mov	sp, r7
 2463 0038 02B0     		add	sp, sp, #8
 2464              		@ sp needed
 2465 003a 80BD     		pop	{r7, pc}
 2466              	.L164:
 2467              		.align	2
 2468              	.L163:
 2469 003c 00000000 		.word	OSIntNestingCtr
 2470 0040 5D710000 		.word	29021
 2471 0044 00000000 		.word	OSIdleTaskTCB
 2472 0048 5B710000 		.word	29019
 2473              		.cfi_endproc
 2474              	.LFE14:
ARM GAS  C:\Users\ADMINI~1\AppData\Local\Temp\ccvBRVNC.s 			page 83


 2475              		.size	OSTaskSuspend, .-OSTaskSuspend
 2476              		.section	.text.OS_TaskDbgListAdd,"ax",%progbits
 2477              		.align	2
 2478              		.global	OS_TaskDbgListAdd
 2479              		.code	16
 2480              		.thumb_func
 2481              		.type	OS_TaskDbgListAdd, %function
 2482              	OS_TaskDbgListAdd:
 2483              	.LFB15:
2187:..\..\..\..\..\..\Software\uCOS-III\Source/os_task.c **** #endif
2188:..\..\..\..\..\..\Software\uCOS-III\Source/os_task.c **** 
2189:..\..\..\..\..\..\Software\uCOS-III\Source/os_task.c **** 
2190:..\..\..\..\..\..\Software\uCOS-III\Source/os_task.c **** /*
2191:..\..\..\..\..\..\Software\uCOS-III\Source/os_task.c **** ***************************************************************************************************
2192:..\..\..\..\..\..\Software\uCOS-III\Source/os_task.c **** *                                                CHANGE A TASK'S TIME SLICE
2193:..\..\..\..\..\..\Software\uCOS-III\Source/os_task.c **** *
2194:..\..\..\..\..\..\Software\uCOS-III\Source/os_task.c **** * Description: This function is called to change the value of the task's specific time slice.
2195:..\..\..\..\..\..\Software\uCOS-III\Source/os_task.c **** *
2196:..\..\..\..\..\..\Software\uCOS-III\Source/os_task.c **** * Arguments  : p_tcb        is the pointer to the TCB of the task to change. If you specify an NULL
2197:..\..\..\..\..\..\Software\uCOS-III\Source/os_task.c **** *                           task is assumed.
2198:..\..\..\..\..\..\Software\uCOS-III\Source/os_task.c **** *
2199:..\..\..\..\..\..\Software\uCOS-III\Source/os_task.c **** *              time_quanta  is the number of ticks before the CPU is taken away when round-robin sc
2200:..\..\..\..\..\..\Software\uCOS-III\Source/os_task.c **** *
2201:..\..\..\..\..\..\Software\uCOS-III\Source/os_task.c **** *              p_err        is a pointer to an error code returned by this function:
2202:..\..\..\..\..\..\Software\uCOS-III\Source/os_task.c **** *
2203:..\..\..\..\..\..\Software\uCOS-III\Source/os_task.c **** *                               OS_ERR_NONE       Upon success
2204:..\..\..\..\..\..\Software\uCOS-III\Source/os_task.c **** *                               OS_ERR_SET_ISR    If you called this function from an ISR
2205:..\..\..\..\..\..\Software\uCOS-III\Source/os_task.c **** *
2206:..\..\..\..\..\..\Software\uCOS-III\Source/os_task.c **** * Returns    : none
2207:..\..\..\..\..\..\Software\uCOS-III\Source/os_task.c **** *
2208:..\..\..\..\..\..\Software\uCOS-III\Source/os_task.c **** * Note(s)    : none
2209:..\..\..\..\..\..\Software\uCOS-III\Source/os_task.c **** ***************************************************************************************************
2210:..\..\..\..\..\..\Software\uCOS-III\Source/os_task.c **** */
2211:..\..\..\..\..\..\Software\uCOS-III\Source/os_task.c **** 
2212:..\..\..\..\..\..\Software\uCOS-III\Source/os_task.c **** #if (OS_CFG_SCHED_ROUND_ROBIN_EN == DEF_ENABLED)
2213:..\..\..\..\..\..\Software\uCOS-III\Source/os_task.c **** void  OSTaskTimeQuantaSet (OS_TCB   *p_tcb,
2214:..\..\..\..\..\..\Software\uCOS-III\Source/os_task.c ****                            OS_TICK   time_quanta,
2215:..\..\..\..\..\..\Software\uCOS-III\Source/os_task.c ****                            OS_ERR   *p_err)
2216:..\..\..\..\..\..\Software\uCOS-III\Source/os_task.c **** {
2217:..\..\..\..\..\..\Software\uCOS-III\Source/os_task.c ****     CPU_SR_ALLOC();
2218:..\..\..\..\..\..\Software\uCOS-III\Source/os_task.c **** 
2219:..\..\..\..\..\..\Software\uCOS-III\Source/os_task.c **** 
2220:..\..\..\..\..\..\Software\uCOS-III\Source/os_task.c **** 
2221:..\..\..\..\..\..\Software\uCOS-III\Source/os_task.c **** #ifdef OS_SAFETY_CRITICAL
2222:..\..\..\..\..\..\Software\uCOS-III\Source/os_task.c ****     if (p_err == DEF_NULL) {
2223:..\..\..\..\..\..\Software\uCOS-III\Source/os_task.c ****         OS_SAFETY_CRITICAL_EXCEPTION();
2224:..\..\..\..\..\..\Software\uCOS-III\Source/os_task.c ****         return;
2225:..\..\..\..\..\..\Software\uCOS-III\Source/os_task.c ****     }
2226:..\..\..\..\..\..\Software\uCOS-III\Source/os_task.c **** #endif
2227:..\..\..\..\..\..\Software\uCOS-III\Source/os_task.c **** 
2228:..\..\..\..\..\..\Software\uCOS-III\Source/os_task.c **** #if (OS_CFG_CALLED_FROM_ISR_CHK_EN == DEF_ENABLED)
2229:..\..\..\..\..\..\Software\uCOS-III\Source/os_task.c ****     if (OSIntNestingCtr > 0u) {                                 /* Can't call this function from an
2230:..\..\..\..\..\..\Software\uCOS-III\Source/os_task.c ****        *p_err = OS_ERR_SET_ISR;
2231:..\..\..\..\..\..\Software\uCOS-III\Source/os_task.c ****         return;
2232:..\..\..\..\..\..\Software\uCOS-III\Source/os_task.c ****     }
2233:..\..\..\..\..\..\Software\uCOS-III\Source/os_task.c **** #endif
2234:..\..\..\..\..\..\Software\uCOS-III\Source/os_task.c **** 
ARM GAS  C:\Users\ADMINI~1\AppData\Local\Temp\ccvBRVNC.s 			page 84


2235:..\..\..\..\..\..\Software\uCOS-III\Source/os_task.c ****     CPU_CRITICAL_ENTER();
2236:..\..\..\..\..\..\Software\uCOS-III\Source/os_task.c ****     if (p_tcb == DEF_NULL) {
2237:..\..\..\..\..\..\Software\uCOS-III\Source/os_task.c ****         p_tcb = OSTCBCurPtr;
2238:..\..\..\..\..\..\Software\uCOS-III\Source/os_task.c ****     }
2239:..\..\..\..\..\..\Software\uCOS-III\Source/os_task.c **** 
2240:..\..\..\..\..\..\Software\uCOS-III\Source/os_task.c ****     if (time_quanta == 0u) {
2241:..\..\..\..\..\..\Software\uCOS-III\Source/os_task.c ****         p_tcb->TimeQuanta    = OSSchedRoundRobinDfltTimeQuanta;
2242:..\..\..\..\..\..\Software\uCOS-III\Source/os_task.c ****     } else {
2243:..\..\..\..\..\..\Software\uCOS-III\Source/os_task.c ****         p_tcb->TimeQuanta    = time_quanta;
2244:..\..\..\..\..\..\Software\uCOS-III\Source/os_task.c ****     }
2245:..\..\..\..\..\..\Software\uCOS-III\Source/os_task.c ****     if (p_tcb->TimeQuanta > p_tcb->TimeQuantaCtr) {
2246:..\..\..\..\..\..\Software\uCOS-III\Source/os_task.c ****         p_tcb->TimeQuantaCtr = p_tcb->TimeQuanta;
2247:..\..\..\..\..\..\Software\uCOS-III\Source/os_task.c ****     }
2248:..\..\..\..\..\..\Software\uCOS-III\Source/os_task.c ****     CPU_CRITICAL_EXIT();
2249:..\..\..\..\..\..\Software\uCOS-III\Source/os_task.c ****    *p_err = OS_ERR_NONE;
2250:..\..\..\..\..\..\Software\uCOS-III\Source/os_task.c **** }
2251:..\..\..\..\..\..\Software\uCOS-III\Source/os_task.c **** #endif
2252:..\..\..\..\..\..\Software\uCOS-III\Source/os_task.c **** 
2253:..\..\..\..\..\..\Software\uCOS-III\Source/os_task.c **** 
2254:..\..\..\..\..\..\Software\uCOS-III\Source/os_task.c **** /*
2255:..\..\..\..\..\..\Software\uCOS-III\Source/os_task.c **** ***************************************************************************************************
2256:..\..\..\..\..\..\Software\uCOS-III\Source/os_task.c **** *                                            ADD/REMOVE TASK TO/FROM DEBUG LIST
2257:..\..\..\..\..\..\Software\uCOS-III\Source/os_task.c **** *
2258:..\..\..\..\..\..\Software\uCOS-III\Source/os_task.c **** * Description: These functions are called by uC/OS-III to add or remove an OS_TCB from the debug li
2259:..\..\..\..\..\..\Software\uCOS-III\Source/os_task.c **** *
2260:..\..\..\..\..\..\Software\uCOS-III\Source/os_task.c **** * Arguments  : p_tcb     is a pointer to the OS_TCB to add/remove
2261:..\..\..\..\..\..\Software\uCOS-III\Source/os_task.c **** *
2262:..\..\..\..\..\..\Software\uCOS-III\Source/os_task.c **** * Returns    : none
2263:..\..\..\..\..\..\Software\uCOS-III\Source/os_task.c **** *
2264:..\..\..\..\..\..\Software\uCOS-III\Source/os_task.c **** * Note(s)    : These functions are INTERNAL to uC/OS-III and your application should not call it.
2265:..\..\..\..\..\..\Software\uCOS-III\Source/os_task.c **** ***************************************************************************************************
2266:..\..\..\..\..\..\Software\uCOS-III\Source/os_task.c **** */
2267:..\..\..\..\..\..\Software\uCOS-III\Source/os_task.c **** 
2268:..\..\..\..\..\..\Software\uCOS-III\Source/os_task.c **** #if (OS_CFG_DBG_EN == DEF_ENABLED)
2269:..\..\..\..\..\..\Software\uCOS-III\Source/os_task.c **** void  OS_TaskDbgListAdd (OS_TCB  *p_tcb)
2270:..\..\..\..\..\..\Software\uCOS-III\Source/os_task.c **** {
 2484              		.loc 1 2270 0
 2485              		.cfi_startproc
 2486              		@ args = 0, pretend = 0, frame = 8
 2487              		@ frame_needed = 1, uses_anonymous_args = 0
 2488 0000 80B5     		push	{r7, lr}
 2489              		.cfi_def_cfa_offset 8
 2490              		.cfi_offset 7, -8
 2491              		.cfi_offset 14, -4
 2492 0002 82B0     		sub	sp, sp, #8
 2493              		.cfi_def_cfa_offset 16
 2494 0004 00AF     		add	r7, sp, #0
 2495              		.cfi_def_cfa_register 7
 2496 0006 7860     		str	r0, [r7, #4]
2271:..\..\..\..\..\..\Software\uCOS-III\Source/os_task.c ****     p_tcb->DbgPrevPtr                = DEF_NULL;
 2497              		.loc 1 2271 0
 2498 0008 7B68     		ldr	r3, [r7, #4]
 2499 000a B822     		movs	r2, #184
 2500 000c 0021     		movs	r1, #0
 2501 000e 9950     		str	r1, [r3, r2]
2272:..\..\..\..\..\..\Software\uCOS-III\Source/os_task.c ****     if (OSTaskDbgListPtr == DEF_NULL) {
 2502              		.loc 1 2272 0
ARM GAS  C:\Users\ADMINI~1\AppData\Local\Temp\ccvBRVNC.s 			page 85


 2503 0010 0C4B     		ldr	r3, .L168
 2504 0012 1B68     		ldr	r3, [r3]
 2505 0014 002B     		cmp	r3, #0
 2506 0016 04D1     		bne	.L166
2273:..\..\..\..\..\..\Software\uCOS-III\Source/os_task.c ****         p_tcb->DbgNextPtr            = DEF_NULL;
 2507              		.loc 1 2273 0
 2508 0018 7B68     		ldr	r3, [r7, #4]
 2509 001a BC22     		movs	r2, #188
 2510 001c 0021     		movs	r1, #0
 2511 001e 9950     		str	r1, [r3, r2]
 2512 0020 09E0     		b	.L167
 2513              	.L166:
2274:..\..\..\..\..\..\Software\uCOS-III\Source/os_task.c ****     } else {
2275:..\..\..\..\..\..\Software\uCOS-III\Source/os_task.c ****         p_tcb->DbgNextPtr            =  OSTaskDbgListPtr;
 2514              		.loc 1 2275 0
 2515 0022 084B     		ldr	r3, .L168
 2516 0024 1A68     		ldr	r2, [r3]
 2517 0026 7B68     		ldr	r3, [r7, #4]
 2518 0028 BC21     		movs	r1, #188
 2519 002a 5A50     		str	r2, [r3, r1]
2276:..\..\..\..\..\..\Software\uCOS-III\Source/os_task.c ****         OSTaskDbgListPtr->DbgPrevPtr =  p_tcb;
 2520              		.loc 1 2276 0
 2521 002c 054B     		ldr	r3, .L168
 2522 002e 1B68     		ldr	r3, [r3]
 2523 0030 B821     		movs	r1, #184
 2524 0032 7A68     		ldr	r2, [r7, #4]
 2525 0034 5A50     		str	r2, [r3, r1]
 2526              	.L167:
2277:..\..\..\..\..\..\Software\uCOS-III\Source/os_task.c ****     }
2278:..\..\..\..\..\..\Software\uCOS-III\Source/os_task.c ****     OSTaskDbgListPtr                 =  p_tcb;
 2527              		.loc 1 2278 0
 2528 0036 034B     		ldr	r3, .L168
 2529 0038 7A68     		ldr	r2, [r7, #4]
 2530 003a 1A60     		str	r2, [r3]
2279:..\..\..\..\..\..\Software\uCOS-III\Source/os_task.c **** }
 2531              		.loc 1 2279 0
 2532 003c C046     		nop
 2533 003e BD46     		mov	sp, r7
 2534 0040 02B0     		add	sp, sp, #8
 2535              		@ sp needed
 2536 0042 80BD     		pop	{r7, pc}
 2537              	.L169:
 2538              		.align	2
 2539              	.L168:
 2540 0044 00000000 		.word	OSTaskDbgListPtr
 2541              		.cfi_endproc
 2542              	.LFE15:
 2543              		.size	OS_TaskDbgListAdd, .-OS_TaskDbgListAdd
 2544              		.section	.text.OS_TaskDbgListRemove,"ax",%progbits
 2545              		.align	2
 2546              		.global	OS_TaskDbgListRemove
 2547              		.code	16
 2548              		.thumb_func
 2549              		.type	OS_TaskDbgListRemove, %function
 2550              	OS_TaskDbgListRemove:
 2551              	.LFB16:
2280:..\..\..\..\..\..\Software\uCOS-III\Source/os_task.c **** 
ARM GAS  C:\Users\ADMINI~1\AppData\Local\Temp\ccvBRVNC.s 			page 86


2281:..\..\..\..\..\..\Software\uCOS-III\Source/os_task.c **** 
2282:..\..\..\..\..\..\Software\uCOS-III\Source/os_task.c **** 
2283:..\..\..\..\..\..\Software\uCOS-III\Source/os_task.c **** void  OS_TaskDbgListRemove (OS_TCB  *p_tcb)
2284:..\..\..\..\..\..\Software\uCOS-III\Source/os_task.c **** {
 2552              		.loc 1 2284 0
 2553              		.cfi_startproc
 2554              		@ args = 0, pretend = 0, frame = 16
 2555              		@ frame_needed = 1, uses_anonymous_args = 0
 2556 0000 80B5     		push	{r7, lr}
 2557              		.cfi_def_cfa_offset 8
 2558              		.cfi_offset 7, -8
 2559              		.cfi_offset 14, -4
 2560 0002 84B0     		sub	sp, sp, #16
 2561              		.cfi_def_cfa_offset 24
 2562 0004 00AF     		add	r7, sp, #0
 2563              		.cfi_def_cfa_register 7
 2564 0006 7860     		str	r0, [r7, #4]
2285:..\..\..\..\..\..\Software\uCOS-III\Source/os_task.c ****     OS_TCB  *p_tcb_next;
2286:..\..\..\..\..\..\Software\uCOS-III\Source/os_task.c ****     OS_TCB  *p_tcb_prev;
2287:..\..\..\..\..\..\Software\uCOS-III\Source/os_task.c **** 
2288:..\..\..\..\..\..\Software\uCOS-III\Source/os_task.c **** 
2289:..\..\..\..\..\..\Software\uCOS-III\Source/os_task.c ****     p_tcb_prev = p_tcb->DbgPrevPtr;
 2565              		.loc 1 2289 0
 2566 0008 7B68     		ldr	r3, [r7, #4]
 2567 000a B822     		movs	r2, #184
 2568 000c 9B58     		ldr	r3, [r3, r2]
 2569 000e FB60     		str	r3, [r7, #12]
2290:..\..\..\..\..\..\Software\uCOS-III\Source/os_task.c ****     p_tcb_next = p_tcb->DbgNextPtr;
 2570              		.loc 1 2290 0
 2571 0010 7B68     		ldr	r3, [r7, #4]
 2572 0012 BC22     		movs	r2, #188
 2573 0014 9B58     		ldr	r3, [r3, r2]
 2574 0016 BB60     		str	r3, [r7, #8]
2291:..\..\..\..\..\..\Software\uCOS-III\Source/os_task.c **** 
2292:..\..\..\..\..\..\Software\uCOS-III\Source/os_task.c ****     if (p_tcb_prev == DEF_NULL) {
 2575              		.loc 1 2292 0
 2576 0018 FB68     		ldr	r3, [r7, #12]
 2577 001a 002B     		cmp	r3, #0
 2578 001c 0ED1     		bne	.L171
2293:..\..\..\..\..\..\Software\uCOS-III\Source/os_task.c ****         OSTaskDbgListPtr = p_tcb_next;
 2579              		.loc 1 2293 0
 2580 001e 174B     		ldr	r3, .L176
 2581 0020 BA68     		ldr	r2, [r7, #8]
 2582 0022 1A60     		str	r2, [r3]
2294:..\..\..\..\..\..\Software\uCOS-III\Source/os_task.c ****         if (p_tcb_next != DEF_NULL) {
 2583              		.loc 1 2294 0
 2584 0024 BB68     		ldr	r3, [r7, #8]
 2585 0026 002B     		cmp	r3, #0
 2586 0028 03D0     		beq	.L172
2295:..\..\..\..\..\..\Software\uCOS-III\Source/os_task.c ****             p_tcb_next->DbgPrevPtr = DEF_NULL;
 2587              		.loc 1 2295 0
 2588 002a BB68     		ldr	r3, [r7, #8]
 2589 002c B822     		movs	r2, #184
 2590 002e 0021     		movs	r1, #0
 2591 0030 9950     		str	r1, [r3, r2]
 2592              	.L172:
2296:..\..\..\..\..\..\Software\uCOS-III\Source/os_task.c ****         }
ARM GAS  C:\Users\ADMINI~1\AppData\Local\Temp\ccvBRVNC.s 			page 87


2297:..\..\..\..\..\..\Software\uCOS-III\Source/os_task.c ****         p_tcb->DbgNextPtr = DEF_NULL;
 2593              		.loc 1 2297 0
 2594 0032 7B68     		ldr	r3, [r7, #4]
 2595 0034 BC22     		movs	r2, #188
 2596 0036 0021     		movs	r1, #0
 2597 0038 9950     		str	r1, [r3, r2]
2298:..\..\..\..\..\..\Software\uCOS-III\Source/os_task.c **** 
2299:..\..\..\..\..\..\Software\uCOS-III\Source/os_task.c ****     } else if (p_tcb_next == DEF_NULL) {
2300:..\..\..\..\..\..\Software\uCOS-III\Source/os_task.c ****         p_tcb_prev->DbgNextPtr = DEF_NULL;
2301:..\..\..\..\..\..\Software\uCOS-III\Source/os_task.c ****         p_tcb->DbgPrevPtr      = DEF_NULL;
2302:..\..\..\..\..\..\Software\uCOS-III\Source/os_task.c **** 
2303:..\..\..\..\..\..\Software\uCOS-III\Source/os_task.c ****     } else {
2304:..\..\..\..\..\..\Software\uCOS-III\Source/os_task.c ****         p_tcb_prev->DbgNextPtr =  p_tcb_next;
2305:..\..\..\..\..\..\Software\uCOS-III\Source/os_task.c ****         p_tcb_next->DbgPrevPtr =  p_tcb_prev;
2306:..\..\..\..\..\..\Software\uCOS-III\Source/os_task.c ****         p_tcb->DbgNextPtr      = DEF_NULL;
2307:..\..\..\..\..\..\Software\uCOS-III\Source/os_task.c ****         p_tcb->DbgPrevPtr      = DEF_NULL;
2308:..\..\..\..\..\..\Software\uCOS-III\Source/os_task.c ****     }
2309:..\..\..\..\..\..\Software\uCOS-III\Source/os_task.c **** }
 2598              		.loc 1 2309 0
 2599 003a 1BE0     		b	.L175
 2600              	.L171:
2299:..\..\..\..\..\..\Software\uCOS-III\Source/os_task.c ****         p_tcb_prev->DbgNextPtr = DEF_NULL;
 2601              		.loc 1 2299 0
 2602 003c BB68     		ldr	r3, [r7, #8]
 2603 003e 002B     		cmp	r3, #0
 2604 0040 08D1     		bne	.L174
2300:..\..\..\..\..\..\Software\uCOS-III\Source/os_task.c ****         p_tcb->DbgPrevPtr      = DEF_NULL;
 2605              		.loc 1 2300 0
 2606 0042 FB68     		ldr	r3, [r7, #12]
 2607 0044 BC22     		movs	r2, #188
 2608 0046 0021     		movs	r1, #0
 2609 0048 9950     		str	r1, [r3, r2]
2301:..\..\..\..\..\..\Software\uCOS-III\Source/os_task.c **** 
 2610              		.loc 1 2301 0
 2611 004a 7B68     		ldr	r3, [r7, #4]
 2612 004c B822     		movs	r2, #184
 2613 004e 0021     		movs	r1, #0
 2614 0050 9950     		str	r1, [r3, r2]
 2615              		.loc 1 2309 0
 2616 0052 0FE0     		b	.L175
 2617              	.L174:
2304:..\..\..\..\..\..\Software\uCOS-III\Source/os_task.c ****         p_tcb_next->DbgPrevPtr =  p_tcb_prev;
 2618              		.loc 1 2304 0
 2619 0054 FB68     		ldr	r3, [r7, #12]
 2620 0056 BC21     		movs	r1, #188
 2621 0058 BA68     		ldr	r2, [r7, #8]
 2622 005a 5A50     		str	r2, [r3, r1]
2305:..\..\..\..\..\..\Software\uCOS-III\Source/os_task.c ****         p_tcb->DbgNextPtr      = DEF_NULL;
 2623              		.loc 1 2305 0
 2624 005c BB68     		ldr	r3, [r7, #8]
 2625 005e B821     		movs	r1, #184
 2626 0060 FA68     		ldr	r2, [r7, #12]
 2627 0062 5A50     		str	r2, [r3, r1]
2306:..\..\..\..\..\..\Software\uCOS-III\Source/os_task.c ****         p_tcb->DbgPrevPtr      = DEF_NULL;
 2628              		.loc 1 2306 0
 2629 0064 7B68     		ldr	r3, [r7, #4]
 2630 0066 BC22     		movs	r2, #188
ARM GAS  C:\Users\ADMINI~1\AppData\Local\Temp\ccvBRVNC.s 			page 88


 2631 0068 0021     		movs	r1, #0
 2632 006a 9950     		str	r1, [r3, r2]
2307:..\..\..\..\..\..\Software\uCOS-III\Source/os_task.c ****     }
 2633              		.loc 1 2307 0
 2634 006c 7B68     		ldr	r3, [r7, #4]
 2635 006e B822     		movs	r2, #184
 2636 0070 0021     		movs	r1, #0
 2637 0072 9950     		str	r1, [r3, r2]
 2638              	.L175:
 2639              		.loc 1 2309 0
 2640 0074 C046     		nop
 2641 0076 BD46     		mov	sp, r7
 2642 0078 04B0     		add	sp, sp, #16
 2643              		@ sp needed
 2644 007a 80BD     		pop	{r7, pc}
 2645              	.L177:
 2646              		.align	2
 2647              	.L176:
 2648 007c 00000000 		.word	OSTaskDbgListPtr
 2649              		.cfi_endproc
 2650              	.LFE16:
 2651              		.size	OS_TaskDbgListRemove, .-OS_TaskDbgListRemove
 2652              		.section	.text.OS_TaskInit,"ax",%progbits
 2653              		.align	2
 2654              		.global	OS_TaskInit
 2655              		.code	16
 2656              		.thumb_func
 2657              		.type	OS_TaskInit, %function
 2658              	OS_TaskInit:
 2659              	.LFB17:
2310:..\..\..\..\..\..\Software\uCOS-III\Source/os_task.c **** #endif
2311:..\..\..\..\..\..\Software\uCOS-III\Source/os_task.c **** 
2312:..\..\..\..\..\..\Software\uCOS-III\Source/os_task.c **** 
2313:..\..\..\..\..\..\Software\uCOS-III\Source/os_task.c **** /*
2314:..\..\..\..\..\..\Software\uCOS-III\Source/os_task.c **** ***************************************************************************************************
2315:..\..\..\..\..\..\Software\uCOS-III\Source/os_task.c **** *                                             TASK MANAGER INITIALIZATION
2316:..\..\..\..\..\..\Software\uCOS-III\Source/os_task.c **** *
2317:..\..\..\..\..\..\Software\uCOS-III\Source/os_task.c **** * Description: This function is called by OSInit() to initialize the task management.
2318:..\..\..\..\..\..\Software\uCOS-III\Source/os_task.c **** *
2319:..\..\..\..\..\..\Software\uCOS-III\Source/os_task.c **** 
2320:..\..\..\..\..\..\Software\uCOS-III\Source/os_task.c **** * Argument(s): p_err        is a pointer to a variable that will contain an error code returned by 
2321:..\..\..\..\..\..\Software\uCOS-III\Source/os_task.c **** *
2322:..\..\..\..\..\..\Software\uCOS-III\Source/os_task.c **** *                                OS_ERR_NONE     the call was successful
2323:..\..\..\..\..\..\Software\uCOS-III\Source/os_task.c **** *
2324:..\..\..\..\..\..\Software\uCOS-III\Source/os_task.c **** * Returns    : none
2325:..\..\..\..\..\..\Software\uCOS-III\Source/os_task.c **** *
2326:..\..\..\..\..\..\Software\uCOS-III\Source/os_task.c **** * Note(s)    : This function is INTERNAL to uC/OS-III and your application should not call it.
2327:..\..\..\..\..\..\Software\uCOS-III\Source/os_task.c **** ***************************************************************************************************
2328:..\..\..\..\..\..\Software\uCOS-III\Source/os_task.c **** */
2329:..\..\..\..\..\..\Software\uCOS-III\Source/os_task.c **** 
2330:..\..\..\..\..\..\Software\uCOS-III\Source/os_task.c **** void  OS_TaskInit (OS_ERR  *p_err)
2331:..\..\..\..\..\..\Software\uCOS-III\Source/os_task.c **** {
 2660              		.loc 1 2331 0
 2661              		.cfi_startproc
 2662              		@ args = 0, pretend = 0, frame = 8
 2663              		@ frame_needed = 1, uses_anonymous_args = 0
 2664 0000 80B5     		push	{r7, lr}
ARM GAS  C:\Users\ADMINI~1\AppData\Local\Temp\ccvBRVNC.s 			page 89


 2665              		.cfi_def_cfa_offset 8
 2666              		.cfi_offset 7, -8
 2667              		.cfi_offset 14, -4
 2668 0002 82B0     		sub	sp, sp, #8
 2669              		.cfi_def_cfa_offset 16
 2670 0004 00AF     		add	r7, sp, #0
 2671              		.cfi_def_cfa_register 7
 2672 0006 7860     		str	r0, [r7, #4]
2332:..\..\..\..\..\..\Software\uCOS-III\Source/os_task.c **** #if (OS_CFG_DBG_EN == DEF_ENABLED)
2333:..\..\..\..\..\..\Software\uCOS-III\Source/os_task.c ****     OSTaskDbgListPtr = DEF_NULL;
 2673              		.loc 1 2333 0
 2674 0008 074B     		ldr	r3, .L179
 2675 000a 0022     		movs	r2, #0
 2676 000c 1A60     		str	r2, [r3]
2334:..\..\..\..\..\..\Software\uCOS-III\Source/os_task.c **** #endif
2335:..\..\..\..\..\..\Software\uCOS-III\Source/os_task.c **** 
2336:..\..\..\..\..\..\Software\uCOS-III\Source/os_task.c ****     OSTaskQty        = 0u;                                      /* Clear the number of tasks       
 2677              		.loc 1 2336 0
 2678 000e 074B     		ldr	r3, .L179+4
 2679 0010 0022     		movs	r2, #0
 2680 0012 1A80     		strh	r2, [r3]
2337:..\..\..\..\..\..\Software\uCOS-III\Source/os_task.c **** 
2338:..\..\..\..\..\..\Software\uCOS-III\Source/os_task.c **** #if ((OS_CFG_TASK_PROFILE_EN == DEF_ENABLED) || (OS_CFG_DBG_EN == DEF_ENABLED))
2339:..\..\..\..\..\..\Software\uCOS-III\Source/os_task.c ****     OSTaskCtxSwCtr   = 0u;                                      /* Clear the context switch counter
 2681              		.loc 1 2339 0
 2682 0014 064B     		ldr	r3, .L179+8
 2683 0016 0022     		movs	r2, #0
 2684 0018 1A60     		str	r2, [r3]
2340:..\..\..\..\..\..\Software\uCOS-III\Source/os_task.c **** #endif
2341:..\..\..\..\..\..\Software\uCOS-III\Source/os_task.c **** 
2342:..\..\..\..\..\..\Software\uCOS-III\Source/os_task.c ****    *p_err            = OS_ERR_NONE;
 2685              		.loc 1 2342 0
 2686 001a 7B68     		ldr	r3, [r7, #4]
 2687 001c 0022     		movs	r2, #0
 2688 001e 1A80     		strh	r2, [r3]
2343:..\..\..\..\..\..\Software\uCOS-III\Source/os_task.c **** }
 2689              		.loc 1 2343 0
 2690 0020 C046     		nop
 2691 0022 BD46     		mov	sp, r7
 2692 0024 02B0     		add	sp, sp, #8
 2693              		@ sp needed
 2694 0026 80BD     		pop	{r7, pc}
 2695              	.L180:
 2696              		.align	2
 2697              	.L179:
 2698 0028 00000000 		.word	OSTaskDbgListPtr
 2699 002c 00000000 		.word	OSTaskQty
 2700 0030 00000000 		.word	OSTaskCtxSwCtr
 2701              		.cfi_endproc
 2702              	.LFE17:
 2703              		.size	OS_TaskInit, .-OS_TaskInit
 2704              		.section	.rodata
 2705              		.align	2
 2706              	.LC34:
 2707 0000 3F546173 		.ascii	"?Task\000"
 2707      6B00
 2708 0006 0000     		.align	2
ARM GAS  C:\Users\ADMINI~1\AppData\Local\Temp\ccvBRVNC.s 			page 90


 2709              	.LC36:
 2710 0008 2000     		.ascii	" \000"
 2711              		.section	.text.OS_TaskInitTCB,"ax",%progbits
 2712              		.align	2
 2713              		.global	OS_TaskInitTCB
 2714              		.code	16
 2715              		.thumb_func
 2716              		.type	OS_TaskInitTCB, %function
 2717              	OS_TaskInitTCB:
 2718              	.LFB18:
2344:..\..\..\..\..\..\Software\uCOS-III\Source/os_task.c **** 
2345:..\..\..\..\..\..\Software\uCOS-III\Source/os_task.c **** 
2346:..\..\..\..\..\..\Software\uCOS-III\Source/os_task.c **** /*
2347:..\..\..\..\..\..\Software\uCOS-III\Source/os_task.c **** ***************************************************************************************************
2348:..\..\..\..\..\..\Software\uCOS-III\Source/os_task.c **** *                                               INITIALIZE TCB FIELDS
2349:..\..\..\..\..\..\Software\uCOS-III\Source/os_task.c **** *
2350:..\..\..\..\..\..\Software\uCOS-III\Source/os_task.c **** * Description: This function is called to initialize a TCB to default values
2351:..\..\..\..\..\..\Software\uCOS-III\Source/os_task.c **** *
2352:..\..\..\..\..\..\Software\uCOS-III\Source/os_task.c **** * Arguments  : p_tcb    is a pointer to the TCB to initialize
2353:..\..\..\..\..\..\Software\uCOS-III\Source/os_task.c **** *
2354:..\..\..\..\..\..\Software\uCOS-III\Source/os_task.c **** * Returns    : none
2355:..\..\..\..\..\..\Software\uCOS-III\Source/os_task.c **** *
2356:..\..\..\..\..\..\Software\uCOS-III\Source/os_task.c **** * Note(s)    : This function is INTERNAL to uC/OS-III and your application should not call it.
2357:..\..\..\..\..\..\Software\uCOS-III\Source/os_task.c **** ***************************************************************************************************
2358:..\..\..\..\..\..\Software\uCOS-III\Source/os_task.c **** */
2359:..\..\..\..\..\..\Software\uCOS-III\Source/os_task.c **** 
2360:..\..\..\..\..\..\Software\uCOS-III\Source/os_task.c **** void  OS_TaskInitTCB (OS_TCB  *p_tcb)
2361:..\..\..\..\..\..\Software\uCOS-III\Source/os_task.c **** {
 2719              		.loc 1 2361 0
 2720              		.cfi_startproc
 2721              		@ args = 0, pretend = 0, frame = 16
 2722              		@ frame_needed = 1, uses_anonymous_args = 0
 2723 0000 80B5     		push	{r7, lr}
 2724              		.cfi_def_cfa_offset 8
 2725              		.cfi_offset 7, -8
 2726              		.cfi_offset 14, -4
 2727 0002 84B0     		sub	sp, sp, #16
 2728              		.cfi_def_cfa_offset 24
 2729 0004 00AF     		add	r7, sp, #0
 2730              		.cfi_def_cfa_register 7
 2731 0006 7860     		str	r0, [r7, #4]
2362:..\..\..\..\..\..\Software\uCOS-III\Source/os_task.c **** #if (OS_CFG_TASK_REG_TBL_SIZE > 0u)
2363:..\..\..\..\..\..\Software\uCOS-III\Source/os_task.c ****     OS_REG_ID   reg_id;
2364:..\..\..\..\..\..\Software\uCOS-III\Source/os_task.c **** #endif
2365:..\..\..\..\..\..\Software\uCOS-III\Source/os_task.c **** #if defined(OS_CFG_TLS_TBL_SIZE) && (OS_CFG_TLS_TBL_SIZE > 0u)
2366:..\..\..\..\..\..\Software\uCOS-III\Source/os_task.c ****     OS_TLS_ID   id;
2367:..\..\..\..\..\..\Software\uCOS-III\Source/os_task.c **** #endif
2368:..\..\..\..\..\..\Software\uCOS-III\Source/os_task.c **** 
2369:..\..\..\..\..\..\Software\uCOS-III\Source/os_task.c **** 
2370:..\..\..\..\..\..\Software\uCOS-III\Source/os_task.c ****     p_tcb->StkPtr             = DEF_NULL;
 2732              		.loc 1 2370 0
 2733 0008 7B68     		ldr	r3, [r7, #4]
 2734 000a 0022     		movs	r2, #0
 2735 000c 1A60     		str	r2, [r3]
2371:..\..\..\..\..\..\Software\uCOS-III\Source/os_task.c **** #if ((OS_CFG_DBG_EN == DEF_ENABLED) || (OS_CFG_STAT_TASK_STK_CHK_EN == DEF_ENABLED))
2372:..\..\..\..\..\..\Software\uCOS-III\Source/os_task.c ****     p_tcb->StkLimitPtr        = DEF_NULL;
 2736              		.loc 1 2372 0
ARM GAS  C:\Users\ADMINI~1\AppData\Local\Temp\ccvBRVNC.s 			page 91


 2737 000e 7B68     		ldr	r3, [r7, #4]
 2738 0010 0022     		movs	r2, #0
 2739 0012 DA60     		str	r2, [r3, #12]
2373:..\..\..\..\..\..\Software\uCOS-III\Source/os_task.c **** #endif
2374:..\..\..\..\..\..\Software\uCOS-III\Source/os_task.c **** 
2375:..\..\..\..\..\..\Software\uCOS-III\Source/os_task.c ****     p_tcb->ExtPtr             = DEF_NULL;
 2740              		.loc 1 2375 0
 2741 0014 7B68     		ldr	r3, [r7, #4]
 2742 0016 0022     		movs	r2, #0
 2743 0018 5A60     		str	r2, [r3, #4]
2376:..\..\..\..\..\..\Software\uCOS-III\Source/os_task.c **** 
2377:..\..\..\..\..\..\Software\uCOS-III\Source/os_task.c ****     p_tcb->NextPtr            = DEF_NULL;
 2744              		.loc 1 2377 0
 2745 001a 7B68     		ldr	r3, [r7, #4]
 2746 001c 0022     		movs	r2, #0
 2747 001e 1A61     		str	r2, [r3, #16]
2378:..\..\..\..\..\..\Software\uCOS-III\Source/os_task.c ****     p_tcb->PrevPtr            = DEF_NULL;
 2748              		.loc 1 2378 0
 2749 0020 7B68     		ldr	r3, [r7, #4]
 2750 0022 0022     		movs	r2, #0
 2751 0024 5A61     		str	r2, [r3, #20]
2379:..\..\..\..\..\..\Software\uCOS-III\Source/os_task.c **** 
2380:..\..\..\..\..\..\Software\uCOS-III\Source/os_task.c **** #if (OS_CFG_TASK_TICK_EN == DEF_ENABLED)
2381:..\..\..\..\..\..\Software\uCOS-III\Source/os_task.c ****     p_tcb->TickNextPtr        = DEF_NULL;
 2752              		.loc 1 2381 0
 2753 0026 7B68     		ldr	r3, [r7, #4]
 2754 0028 0022     		movs	r2, #0
 2755 002a 9A61     		str	r2, [r3, #24]
2382:..\..\..\..\..\..\Software\uCOS-III\Source/os_task.c ****     p_tcb->TickPrevPtr        = DEF_NULL;
 2756              		.loc 1 2382 0
 2757 002c 7B68     		ldr	r3, [r7, #4]
 2758 002e 0022     		movs	r2, #0
 2759 0030 DA61     		str	r2, [r3, #28]
2383:..\..\..\..\..\..\Software\uCOS-III\Source/os_task.c ****     p_tcb->TickListPtr        = DEF_NULL;
 2760              		.loc 1 2383 0
 2761 0032 7B68     		ldr	r3, [r7, #4]
 2762 0034 0022     		movs	r2, #0
 2763 0036 1A62     		str	r2, [r3, #32]
2384:..\..\..\..\..\..\Software\uCOS-III\Source/os_task.c **** #endif
2385:..\..\..\..\..\..\Software\uCOS-III\Source/os_task.c **** 
2386:..\..\..\..\..\..\Software\uCOS-III\Source/os_task.c **** #if (OS_CFG_DBG_EN == DEF_ENABLED)
2387:..\..\..\..\..\..\Software\uCOS-III\Source/os_task.c ****     p_tcb->NamePtr            = (CPU_CHAR *)((void *)"?Task");
 2764              		.loc 1 2387 0
 2765 0038 7B68     		ldr	r3, [r7, #4]
 2766 003a 594A     		ldr	r2, .L184
 2767 003c 9A60     		str	r2, [r3, #8]
2388:..\..\..\..\..\..\Software\uCOS-III\Source/os_task.c **** #endif
2389:..\..\..\..\..\..\Software\uCOS-III\Source/os_task.c **** 
2390:..\..\..\..\..\..\Software\uCOS-III\Source/os_task.c **** #if ((OS_CFG_DBG_EN == DEF_ENABLED) || (OS_CFG_STAT_TASK_STK_CHK_EN == DEF_ENABLED))
2391:..\..\..\..\..\..\Software\uCOS-III\Source/os_task.c ****     p_tcb->StkBasePtr         = DEF_NULL;
 2768              		.loc 1 2391 0
 2769 003e 7B68     		ldr	r3, [r7, #4]
 2770 0040 0022     		movs	r2, #0
 2771 0042 5A62     		str	r2, [r3, #36]
2392:..\..\..\..\..\..\Software\uCOS-III\Source/os_task.c **** #endif
2393:..\..\..\..\..\..\Software\uCOS-III\Source/os_task.c **** 
2394:..\..\..\..\..\..\Software\uCOS-III\Source/os_task.c **** #if (OS_CFG_DBG_EN == DEF_ENABLED)
ARM GAS  C:\Users\ADMINI~1\AppData\Local\Temp\ccvBRVNC.s 			page 92


2395:..\..\..\..\..\..\Software\uCOS-III\Source/os_task.c ****     p_tcb->TaskEntryAddr      = 0u;
 2772              		.loc 1 2395 0
 2773 0044 7B68     		ldr	r3, [r7, #4]
 2774 0046 0022     		movs	r2, #0
 2775 0048 9A62     		str	r2, [r3, #40]
2396:..\..\..\..\..\..\Software\uCOS-III\Source/os_task.c ****     p_tcb->TaskEntryArg       = DEF_NULL;
 2776              		.loc 1 2396 0
 2777 004a 7B68     		ldr	r3, [r7, #4]
 2778 004c 0022     		movs	r2, #0
 2779 004e DA62     		str	r2, [r3, #44]
2397:..\..\..\..\..\..\Software\uCOS-III\Source/os_task.c **** #endif
2398:..\..\..\..\..\..\Software\uCOS-III\Source/os_task.c **** 
2399:..\..\..\..\..\..\Software\uCOS-III\Source/os_task.c **** #if (OS_CFG_PEND_MULTI_EN == DEF_ENABLED)
2400:..\..\..\..\..\..\Software\uCOS-III\Source/os_task.c ****     p_tcb->PendDataTblPtr     = DEF_NULL;
2401:..\..\..\..\..\..\Software\uCOS-III\Source/os_task.c ****     p_tcb->PendDataTblEntries = 0u;
2402:..\..\..\..\..\..\Software\uCOS-III\Source/os_task.c **** #endif
2403:..\..\..\..\..\..\Software\uCOS-III\Source/os_task.c **** 
2404:..\..\..\..\..\..\Software\uCOS-III\Source/os_task.c **** #if (OS_CFG_TS_EN == DEF_ENABLED)
2405:..\..\..\..\..\..\Software\uCOS-III\Source/os_task.c ****     p_tcb->TS                 = 0u;
 2780              		.loc 1 2405 0
 2781 0050 7B68     		ldr	r3, [r7, #4]
 2782 0052 0022     		movs	r2, #0
 2783 0054 9A64     		str	r2, [r3, #72]
2406:..\..\..\..\..\..\Software\uCOS-III\Source/os_task.c **** #endif
2407:..\..\..\..\..\..\Software\uCOS-III\Source/os_task.c **** 
2408:..\..\..\..\..\..\Software\uCOS-III\Source/os_task.c **** #if (OS_MSG_EN == DEF_ENABLED)
2409:..\..\..\..\..\..\Software\uCOS-III\Source/os_task.c ****     p_tcb->MsgPtr             = DEF_NULL;
 2784              		.loc 1 2409 0
 2785 0056 7B68     		ldr	r3, [r7, #4]
 2786 0058 0022     		movs	r2, #0
 2787 005a 9A65     		str	r2, [r3, #88]
2410:..\..\..\..\..\..\Software\uCOS-III\Source/os_task.c ****     p_tcb->MsgSize            = 0u;
 2788              		.loc 1 2410 0
 2789 005c 7B68     		ldr	r3, [r7, #4]
 2790 005e 5C22     		movs	r2, #92
 2791 0060 0021     		movs	r1, #0
 2792 0062 9952     		strh	r1, [r3, r2]
2411:..\..\..\..\..\..\Software\uCOS-III\Source/os_task.c **** #endif
2412:..\..\..\..\..\..\Software\uCOS-III\Source/os_task.c **** 
2413:..\..\..\..\..\..\Software\uCOS-III\Source/os_task.c **** #if (OS_CFG_TASK_Q_EN == DEF_ENABLED)
2414:..\..\..\..\..\..\Software\uCOS-III\Source/os_task.c ****     OS_MsgQInit(&p_tcb->MsgQ,
 2793              		.loc 1 2414 0
 2794 0064 7B68     		ldr	r3, [r7, #4]
 2795 0066 6033     		adds	r3, r3, #96
 2796 0068 0021     		movs	r1, #0
 2797 006a 1800     		movs	r0, r3
 2798 006c FFF7FEFF 		bl	OS_MsgQInit
2415:..\..\..\..\..\..\Software\uCOS-III\Source/os_task.c ****                  0u);
2416:..\..\..\..\..\..\Software\uCOS-III\Source/os_task.c **** #if (OS_CFG_TASK_PROFILE_EN == DEF_ENABLED)
2417:..\..\..\..\..\..\Software\uCOS-III\Source/os_task.c ****     p_tcb->MsgQPendTime       = 0u;
 2799              		.loc 1 2417 0
 2800 0070 7B68     		ldr	r3, [r7, #4]
 2801 0072 0022     		movs	r2, #0
 2802 0074 1A67     		str	r2, [r3, #112]
2418:..\..\..\..\..\..\Software\uCOS-III\Source/os_task.c ****     p_tcb->MsgQPendTimeMax    = 0u;
 2803              		.loc 1 2418 0
 2804 0076 7B68     		ldr	r3, [r7, #4]
ARM GAS  C:\Users\ADMINI~1\AppData\Local\Temp\ccvBRVNC.s 			page 93


 2805 0078 0022     		movs	r2, #0
 2806 007a 5A67     		str	r2, [r3, #116]
2419:..\..\..\..\..\..\Software\uCOS-III\Source/os_task.c **** #endif
2420:..\..\..\..\..\..\Software\uCOS-III\Source/os_task.c **** #endif
2421:..\..\..\..\..\..\Software\uCOS-III\Source/os_task.c **** 
2422:..\..\..\..\..\..\Software\uCOS-III\Source/os_task.c **** #if (OS_CFG_FLAG_EN == DEF_ENABLED)
2423:..\..\..\..\..\..\Software\uCOS-III\Source/os_task.c ****     p_tcb->FlagsPend          = 0u;
 2807              		.loc 1 2423 0
 2808 007c 7B68     		ldr	r3, [r7, #4]
 2809 007e 0022     		movs	r2, #0
 2810 0080 DA67     		str	r2, [r3, #124]
2424:..\..\..\..\..\..\Software\uCOS-III\Source/os_task.c ****     p_tcb->FlagsOpt           = 0u;
 2811              		.loc 1 2424 0
 2812 0082 7B68     		ldr	r3, [r7, #4]
 2813 0084 8422     		movs	r2, #132
 2814 0086 0021     		movs	r1, #0
 2815 0088 9952     		strh	r1, [r3, r2]
2425:..\..\..\..\..\..\Software\uCOS-III\Source/os_task.c ****     p_tcb->FlagsRdy           = 0u;
 2816              		.loc 1 2425 0
 2817 008a 7B68     		ldr	r3, [r7, #4]
 2818 008c 8022     		movs	r2, #128
 2819 008e 0021     		movs	r1, #0
 2820 0090 9950     		str	r1, [r3, r2]
2426:..\..\..\..\..\..\Software\uCOS-III\Source/os_task.c **** #endif
2427:..\..\..\..\..\..\Software\uCOS-III\Source/os_task.c **** 
2428:..\..\..\..\..\..\Software\uCOS-III\Source/os_task.c **** #if (OS_CFG_TASK_REG_TBL_SIZE > 0u)
2429:..\..\..\..\..\..\Software\uCOS-III\Source/os_task.c ****     for (reg_id = 0u; reg_id < OS_CFG_TASK_REG_TBL_SIZE; reg_id++) {
 2821              		.loc 1 2429 0
 2822 0092 0F23     		movs	r3, #15
 2823 0094 FB18     		adds	r3, r7, r3
 2824 0096 0022     		movs	r2, #0
 2825 0098 1A70     		strb	r2, [r3]
 2826 009a 0EE0     		b	.L182
 2827              	.L183:
2430:..\..\..\..\..\..\Software\uCOS-III\Source/os_task.c ****         p_tcb->RegTbl[reg_id] = 0u;
 2828              		.loc 1 2430 0 discriminator 3
 2829 009c 0F23     		movs	r3, #15
 2830 009e FB18     		adds	r3, r7, r3
 2831 00a0 1A78     		ldrb	r2, [r3]
 2832 00a2 7B68     		ldr	r3, [r7, #4]
 2833 00a4 1E32     		adds	r2, r2, #30
 2834 00a6 9200     		lsls	r2, r2, #2
 2835 00a8 0021     		movs	r1, #0
 2836 00aa D150     		str	r1, [r2, r3]
2429:..\..\..\..\..\..\Software\uCOS-III\Source/os_task.c ****         p_tcb->RegTbl[reg_id] = 0u;
 2837              		.loc 1 2429 0 discriminator 3
 2838 00ac 0F23     		movs	r3, #15
 2839 00ae FB18     		adds	r3, r7, r3
 2840 00b0 1A78     		ldrb	r2, [r3]
 2841 00b2 0F23     		movs	r3, #15
 2842 00b4 FB18     		adds	r3, r7, r3
 2843 00b6 0132     		adds	r2, r2, #1
 2844 00b8 1A70     		strb	r2, [r3]
 2845              	.L182:
2429:..\..\..\..\..\..\Software\uCOS-III\Source/os_task.c ****         p_tcb->RegTbl[reg_id] = 0u;
 2846              		.loc 1 2429 0 is_stmt 0 discriminator 1
 2847 00ba 0F23     		movs	r3, #15
ARM GAS  C:\Users\ADMINI~1\AppData\Local\Temp\ccvBRVNC.s 			page 94


 2848 00bc FB18     		adds	r3, r7, r3
 2849 00be 1B78     		ldrb	r3, [r3]
 2850 00c0 002B     		cmp	r3, #0
 2851 00c2 EBD0     		beq	.L183
2431:..\..\..\..\..\..\Software\uCOS-III\Source/os_task.c ****     }
2432:..\..\..\..\..\..\Software\uCOS-III\Source/os_task.c **** #endif
2433:..\..\..\..\..\..\Software\uCOS-III\Source/os_task.c **** 
2434:..\..\..\..\..\..\Software\uCOS-III\Source/os_task.c **** #if defined(OS_CFG_TLS_TBL_SIZE) && (OS_CFG_TLS_TBL_SIZE > 0u)
2435:..\..\..\..\..\..\Software\uCOS-III\Source/os_task.c ****     for (id = 0u; id < OS_CFG_TLS_TBL_SIZE; id++) {
2436:..\..\..\..\..\..\Software\uCOS-III\Source/os_task.c ****         p_tcb->TLS_Tbl[id]    = 0u;
2437:..\..\..\..\..\..\Software\uCOS-III\Source/os_task.c ****     }
2438:..\..\..\..\..\..\Software\uCOS-III\Source/os_task.c **** #endif
2439:..\..\..\..\..\..\Software\uCOS-III\Source/os_task.c **** 
2440:..\..\..\..\..\..\Software\uCOS-III\Source/os_task.c ****     p_tcb->SemCtr             = 0u;
 2852              		.loc 1 2440 0 is_stmt 1
 2853 00c4 7B68     		ldr	r3, [r7, #4]
 2854 00c6 0022     		movs	r2, #0
 2855 00c8 DA64     		str	r2, [r3, #76]
2441:..\..\..\..\..\..\Software\uCOS-III\Source/os_task.c **** #if (OS_CFG_TASK_PROFILE_EN == DEF_ENABLED)
2442:..\..\..\..\..\..\Software\uCOS-III\Source/os_task.c ****     p_tcb->SemPendTime        = 0u;
 2856              		.loc 1 2442 0
 2857 00ca 7B68     		ldr	r3, [r7, #4]
 2858 00cc A022     		movs	r2, #160
 2859 00ce 0021     		movs	r1, #0
 2860 00d0 9950     		str	r1, [r3, r2]
2443:..\..\..\..\..\..\Software\uCOS-III\Source/os_task.c ****     p_tcb->SemPendTimeMax     = 0u;
 2861              		.loc 1 2443 0
 2862 00d2 7B68     		ldr	r3, [r7, #4]
 2863 00d4 A422     		movs	r2, #164
 2864 00d6 0021     		movs	r1, #0
 2865 00d8 9950     		str	r1, [r3, r2]
2444:..\..\..\..\..\..\Software\uCOS-III\Source/os_task.c **** #endif
2445:..\..\..\..\..\..\Software\uCOS-III\Source/os_task.c **** 
2446:..\..\..\..\..\..\Software\uCOS-III\Source/os_task.c **** #if ((OS_CFG_DBG_EN == DEF_ENABLED) || (OS_CFG_STAT_TASK_STK_CHK_EN == DEF_ENABLED))
2447:..\..\..\..\..\..\Software\uCOS-III\Source/os_task.c ****     p_tcb->StkSize            = 0u;
 2866              		.loc 1 2447 0
 2867 00da 7B68     		ldr	r3, [r7, #4]
 2868 00dc 0022     		movs	r2, #0
 2869 00de 1A64     		str	r2, [r3, #64]
2448:..\..\..\..\..\..\Software\uCOS-III\Source/os_task.c **** #endif
2449:..\..\..\..\..\..\Software\uCOS-III\Source/os_task.c **** 
2450:..\..\..\..\..\..\Software\uCOS-III\Source/os_task.c **** 
2451:..\..\..\..\..\..\Software\uCOS-III\Source/os_task.c **** #if (OS_CFG_TASK_SUSPEND_EN == DEF_ENABLED)
2452:..\..\..\..\..\..\Software\uCOS-III\Source/os_task.c ****     p_tcb->SuspendCtr         = 0u;
 2870              		.loc 1 2452 0
 2871 00e0 7B68     		ldr	r3, [r7, #4]
 2872 00e2 8622     		movs	r2, #134
 2873 00e4 0021     		movs	r1, #0
 2874 00e6 9954     		strb	r1, [r3, r2]
2453:..\..\..\..\..\..\Software\uCOS-III\Source/os_task.c **** #endif
2454:..\..\..\..\..\..\Software\uCOS-III\Source/os_task.c **** 
2455:..\..\..\..\..\..\Software\uCOS-III\Source/os_task.c **** #if (OS_CFG_STAT_TASK_STK_CHK_EN == DEF_ENABLED)
2456:..\..\..\..\..\..\Software\uCOS-III\Source/os_task.c ****     p_tcb->StkFree            = 0u;
 2875              		.loc 1 2456 0
 2876 00e8 7B68     		ldr	r3, [r7, #4]
 2877 00ea AC22     		movs	r2, #172
 2878 00ec 0021     		movs	r1, #0
ARM GAS  C:\Users\ADMINI~1\AppData\Local\Temp\ccvBRVNC.s 			page 95


 2879 00ee 9950     		str	r1, [r3, r2]
2457:..\..\..\..\..\..\Software\uCOS-III\Source/os_task.c ****     p_tcb->StkUsed            = 0u;
 2880              		.loc 1 2457 0
 2881 00f0 7B68     		ldr	r3, [r7, #4]
 2882 00f2 A822     		movs	r2, #168
 2883 00f4 0021     		movs	r1, #0
 2884 00f6 9950     		str	r1, [r3, r2]
2458:..\..\..\..\..\..\Software\uCOS-III\Source/os_task.c **** #endif
2459:..\..\..\..\..\..\Software\uCOS-III\Source/os_task.c **** 
2460:..\..\..\..\..\..\Software\uCOS-III\Source/os_task.c ****     p_tcb->Opt                = 0u;
 2885              		.loc 1 2460 0
 2886 00f8 7B68     		ldr	r3, [r7, #4]
 2887 00fa 4422     		movs	r2, #68
 2888 00fc 0021     		movs	r1, #0
 2889 00fe 9952     		strh	r1, [r3, r2]
2461:..\..\..\..\..\..\Software\uCOS-III\Source/os_task.c **** 
2462:..\..\..\..\..\..\Software\uCOS-III\Source/os_task.c **** #if (OS_CFG_TASK_TICK_EN == DEF_ENABLED)
2463:..\..\..\..\..\..\Software\uCOS-III\Source/os_task.c ****     p_tcb->TickRemain         = 0u;
 2890              		.loc 1 2463 0
 2891 0100 7B68     		ldr	r3, [r7, #4]
 2892 0102 0022     		movs	r2, #0
 2893 0104 1A65     		str	r2, [r3, #80]
2464:..\..\..\..\..\..\Software\uCOS-III\Source/os_task.c ****     p_tcb->TickCtrPrev        = 0u;
 2894              		.loc 1 2464 0
 2895 0106 7B68     		ldr	r3, [r7, #4]
 2896 0108 0022     		movs	r2, #0
 2897 010a 5A65     		str	r2, [r3, #84]
2465:..\..\..\..\..\..\Software\uCOS-III\Source/os_task.c **** #endif
2466:..\..\..\..\..\..\Software\uCOS-III\Source/os_task.c **** 
2467:..\..\..\..\..\..\Software\uCOS-III\Source/os_task.c **** #if (OS_CFG_SCHED_ROUND_ROBIN_EN == DEF_ENABLED)
2468:..\..\..\..\..\..\Software\uCOS-III\Source/os_task.c ****     p_tcb->TimeQuanta         = 0u;
2469:..\..\..\..\..\..\Software\uCOS-III\Source/os_task.c ****     p_tcb->TimeQuantaCtr      = 0u;
2470:..\..\..\..\..\..\Software\uCOS-III\Source/os_task.c **** #endif
2471:..\..\..\..\..\..\Software\uCOS-III\Source/os_task.c **** 
2472:..\..\..\..\..\..\Software\uCOS-III\Source/os_task.c **** #if (OS_CFG_TASK_PROFILE_EN == DEF_ENABLED)
2473:..\..\..\..\..\..\Software\uCOS-III\Source/os_task.c ****     p_tcb->CPUUsage           = 0u;
 2898              		.loc 1 2473 0
 2899 010c 7B68     		ldr	r3, [r7, #4]
 2900 010e 8822     		movs	r2, #136
 2901 0110 0021     		movs	r1, #0
 2902 0112 9952     		strh	r1, [r3, r2]
2474:..\..\..\..\..\..\Software\uCOS-III\Source/os_task.c ****     p_tcb->CPUUsageMax        = 0u;
 2903              		.loc 1 2474 0
 2904 0114 7B68     		ldr	r3, [r7, #4]
 2905 0116 8A22     		movs	r2, #138
 2906 0118 0021     		movs	r1, #0
 2907 011a 9952     		strh	r1, [r3, r2]
2475:..\..\..\..\..\..\Software\uCOS-III\Source/os_task.c ****     p_tcb->CtxSwCtr           = 0u;
 2908              		.loc 1 2475 0
 2909 011c 7B68     		ldr	r3, [r7, #4]
 2910 011e 8C22     		movs	r2, #140
 2911 0120 0021     		movs	r1, #0
 2912 0122 9950     		str	r1, [r3, r2]
2476:..\..\..\..\..\..\Software\uCOS-III\Source/os_task.c ****     p_tcb->CyclesDelta        = 0u;
 2913              		.loc 1 2476 0
 2914 0124 7B68     		ldr	r3, [r7, #4]
 2915 0126 9022     		movs	r2, #144
ARM GAS  C:\Users\ADMINI~1\AppData\Local\Temp\ccvBRVNC.s 			page 96


 2916 0128 0021     		movs	r1, #0
 2917 012a 9950     		str	r1, [r3, r2]
2477:..\..\..\..\..\..\Software\uCOS-III\Source/os_task.c **** #if (OS_CFG_TS_EN == DEF_ENABLED)
2478:..\..\..\..\..\..\Software\uCOS-III\Source/os_task.c ****     p_tcb->CyclesStart        = OS_TS_GET();                    /* Read the current timestamp and s
 2918              		.loc 1 2478 0
 2919 012c FFF7FEFF 		bl	CPU_TS_TmrRd
 2920 0130 0100     		movs	r1, r0
 2921 0132 7B68     		ldr	r3, [r7, #4]
 2922 0134 9422     		movs	r2, #148
 2923 0136 9950     		str	r1, [r3, r2]
2479:..\..\..\..\..\..\Software\uCOS-III\Source/os_task.c **** #else
2480:..\..\..\..\..\..\Software\uCOS-III\Source/os_task.c ****     p_tcb->CyclesStart        = 0u;
2481:..\..\..\..\..\..\Software\uCOS-III\Source/os_task.c **** #endif
2482:..\..\..\..\..\..\Software\uCOS-III\Source/os_task.c ****     p_tcb->CyclesTotal        = 0u;
 2924              		.loc 1 2482 0
 2925 0138 7B68     		ldr	r3, [r7, #4]
 2926 013a 9822     		movs	r2, #152
 2927 013c 0021     		movs	r1, #0
 2928 013e 9950     		str	r1, [r3, r2]
2483:..\..\..\..\..\..\Software\uCOS-III\Source/os_task.c **** #endif
2484:..\..\..\..\..\..\Software\uCOS-III\Source/os_task.c **** 
2485:..\..\..\..\..\..\Software\uCOS-III\Source/os_task.c **** #ifdef CPU_CFG_INT_DIS_MEAS_EN
2486:..\..\..\..\..\..\Software\uCOS-III\Source/os_task.c ****     p_tcb->IntDisTimeMax      = 0u;
 2929              		.loc 1 2486 0
 2930 0140 7B68     		ldr	r3, [r7, #4]
 2931 0142 B022     		movs	r2, #176
 2932 0144 0021     		movs	r1, #0
 2933 0146 9950     		str	r1, [r3, r2]
2487:..\..\..\..\..\..\Software\uCOS-III\Source/os_task.c **** #endif
2488:..\..\..\..\..\..\Software\uCOS-III\Source/os_task.c **** #if (OS_CFG_SCHED_LOCK_TIME_MEAS_EN == DEF_ENABLED)
2489:..\..\..\..\..\..\Software\uCOS-III\Source/os_task.c ****     p_tcb->SchedLockTimeMax   = 0u;
 2934              		.loc 1 2489 0
 2935 0148 7B68     		ldr	r3, [r7, #4]
 2936 014a B422     		movs	r2, #180
 2937 014c 0021     		movs	r1, #0
 2938 014e 9950     		str	r1, [r3, r2]
2490:..\..\..\..\..\..\Software\uCOS-III\Source/os_task.c **** #endif
2491:..\..\..\..\..\..\Software\uCOS-III\Source/os_task.c **** 
2492:..\..\..\..\..\..\Software\uCOS-III\Source/os_task.c ****     p_tcb->PendOn             = OS_TASK_PEND_ON_NOTHING;
 2939              		.loc 1 2492 0
 2940 0150 7B68     		ldr	r3, [r7, #4]
 2941 0152 3422     		movs	r2, #52
 2942 0154 0021     		movs	r1, #0
 2943 0156 9954     		strb	r1, [r3, r2]
2493:..\..\..\..\..\..\Software\uCOS-III\Source/os_task.c ****     p_tcb->PendStatus         = OS_STATUS_PEND_OK;
 2944              		.loc 1 2493 0
 2945 0158 7B68     		ldr	r3, [r7, #4]
 2946 015a 3522     		movs	r2, #53
 2947 015c 0021     		movs	r1, #0
 2948 015e 9954     		strb	r1, [r3, r2]
2494:..\..\..\..\..\..\Software\uCOS-III\Source/os_task.c ****     p_tcb->TaskState          = OS_TASK_STATE_RDY;
 2949              		.loc 1 2494 0
 2950 0160 7B68     		ldr	r3, [r7, #4]
 2951 0162 3622     		movs	r2, #54
 2952 0164 0021     		movs	r1, #0
 2953 0166 9954     		strb	r1, [r3, r2]
2495:..\..\..\..\..\..\Software\uCOS-III\Source/os_task.c **** 
ARM GAS  C:\Users\ADMINI~1\AppData\Local\Temp\ccvBRVNC.s 			page 97


2496:..\..\..\..\..\..\Software\uCOS-III\Source/os_task.c ****     p_tcb->Prio               = OS_PRIO_INIT;
 2954              		.loc 1 2496 0
 2955 0168 7B68     		ldr	r3, [r7, #4]
 2956 016a 3722     		movs	r2, #55
 2957 016c 2021     		movs	r1, #32
 2958 016e 9954     		strb	r1, [r3, r2]
2497:..\..\..\..\..\..\Software\uCOS-III\Source/os_task.c **** #if (OS_CFG_MUTEX_EN == DEF_ENABLED)
2498:..\..\..\..\..\..\Software\uCOS-III\Source/os_task.c ****     p_tcb->BasePrio           = OS_PRIO_INIT;
 2959              		.loc 1 2498 0
 2960 0170 7B68     		ldr	r3, [r7, #4]
 2961 0172 3822     		movs	r2, #56
 2962 0174 2021     		movs	r1, #32
 2963 0176 9954     		strb	r1, [r3, r2]
2499:..\..\..\..\..\..\Software\uCOS-III\Source/os_task.c ****     p_tcb->MutexGrpHeadPtr    = DEF_NULL;
 2964              		.loc 1 2499 0
 2965 0178 7B68     		ldr	r3, [r7, #4]
 2966 017a 0022     		movs	r2, #0
 2967 017c DA63     		str	r2, [r3, #60]
2500:..\..\..\..\..\..\Software\uCOS-III\Source/os_task.c **** #endif
2501:..\..\..\..\..\..\Software\uCOS-III\Source/os_task.c **** 
2502:..\..\..\..\..\..\Software\uCOS-III\Source/os_task.c **** #if (OS_CFG_DBG_EN == DEF_ENABLED)
2503:..\..\..\..\..\..\Software\uCOS-III\Source/os_task.c ****     p_tcb->DbgPrevPtr         = DEF_NULL;
 2968              		.loc 1 2503 0
 2969 017e 7B68     		ldr	r3, [r7, #4]
 2970 0180 B822     		movs	r2, #184
 2971 0182 0021     		movs	r1, #0
 2972 0184 9950     		str	r1, [r3, r2]
2504:..\..\..\..\..\..\Software\uCOS-III\Source/os_task.c ****     p_tcb->DbgNextPtr         = DEF_NULL;
 2973              		.loc 1 2504 0
 2974 0186 7B68     		ldr	r3, [r7, #4]
 2975 0188 BC22     		movs	r2, #188
 2976 018a 0021     		movs	r1, #0
 2977 018c 9950     		str	r1, [r3, r2]
2505:..\..\..\..\..\..\Software\uCOS-III\Source/os_task.c ****     p_tcb->DbgNamePtr         = (CPU_CHAR *)((void *)" ");
 2978              		.loc 1 2505 0
 2979 018e 7B68     		ldr	r3, [r7, #4]
 2980 0190 C021     		movs	r1, #192
 2981 0192 044A     		ldr	r2, .L184+4
 2982 0194 5A50     		str	r2, [r3, r1]
2506:..\..\..\..\..\..\Software\uCOS-III\Source/os_task.c **** #endif
2507:..\..\..\..\..\..\Software\uCOS-III\Source/os_task.c **** }
 2983              		.loc 1 2507 0
 2984 0196 C046     		nop
 2985 0198 BD46     		mov	sp, r7
 2986 019a 04B0     		add	sp, sp, #16
 2987              		@ sp needed
 2988 019c 80BD     		pop	{r7, pc}
 2989              	.L185:
 2990 019e C046     		.align	2
 2991              	.L184:
 2992 01a0 00000000 		.word	.LC34
 2993 01a4 08000000 		.word	.LC36
 2994              		.cfi_endproc
 2995              	.LFE18:
 2996              		.size	OS_TaskInitTCB, .-OS_TaskInitTCB
 2997              		.section	.text.OS_TaskQPost,"ax",%progbits
 2998              		.align	2
ARM GAS  C:\Users\ADMINI~1\AppData\Local\Temp\ccvBRVNC.s 			page 98


 2999              		.global	OS_TaskQPost
 3000              		.code	16
 3001              		.thumb_func
 3002              		.type	OS_TaskQPost, %function
 3003              	OS_TaskQPost:
 3004              	.LFB19:
2508:..\..\..\..\..\..\Software\uCOS-III\Source/os_task.c **** 
2509:..\..\..\..\..\..\Software\uCOS-III\Source/os_task.c **** 
2510:..\..\..\..\..\..\Software\uCOS-III\Source/os_task.c **** /*
2511:..\..\..\..\..\..\Software\uCOS-III\Source/os_task.c **** ***************************************************************************************************
2512:..\..\..\..\..\..\Software\uCOS-III\Source/os_task.c **** *                                               POST MESSAGE TO A TASK
2513:..\..\..\..\..\..\Software\uCOS-III\Source/os_task.c **** *
2514:..\..\..\..\..\..\Software\uCOS-III\Source/os_task.c **** * Description: This function sends a message to a task
2515:..\..\..\..\..\..\Software\uCOS-III\Source/os_task.c **** *
2516:..\..\..\..\..\..\Software\uCOS-III\Source/os_task.c **** * Arguments  : p_tcb      is a pointer to the TCB of the task receiving a message.  If you specify 
2517:..\..\..\..\..\..\Software\uCOS-III\Source/os_task.c **** *                         the message will be posted to the task's queue of the calling task.  In o
2518:..\..\..\..\..\..\Software\uCOS-III\Source/os_task.c **** *                         posting a message to yourself.
2519:..\..\..\..\..\..\Software\uCOS-III\Source/os_task.c **** *
2520:..\..\..\..\..\..\Software\uCOS-III\Source/os_task.c **** *              p_void     is a pointer to the message to send.
2521:..\..\..\..\..\..\Software\uCOS-III\Source/os_task.c **** *
2522:..\..\..\..\..\..\Software\uCOS-III\Source/os_task.c **** *              msg_size   is the size of the message sent (in #bytes)
2523:..\..\..\..\..\..\Software\uCOS-III\Source/os_task.c **** *
2524:..\..\..\..\..\..\Software\uCOS-III\Source/os_task.c **** *              opt        specifies whether the post will be FIFO or LIFO:
2525:..\..\..\..\..\..\Software\uCOS-III\Source/os_task.c **** *
2526:..\..\..\..\..\..\Software\uCOS-III\Source/os_task.c **** *                             OS_OPT_POST_FIFO       Post at the end   of the queue
2527:..\..\..\..\..\..\Software\uCOS-III\Source/os_task.c **** *                             OS_OPT_POST_LIFO       Post at the front of the queue
2528:..\..\..\..\..\..\Software\uCOS-III\Source/os_task.c **** *
2529:..\..\..\..\..\..\Software\uCOS-III\Source/os_task.c **** *                             OS_OPT_POST_NO_SCHED   Do not run the scheduler after the post
2530:..\..\..\..\..\..\Software\uCOS-III\Source/os_task.c **** *
2531:..\..\..\..\..\..\Software\uCOS-III\Source/os_task.c **** *                          Note(s): 1) OS_OPT_POST_NO_SCHED can be added with one of the other opti
2532:..\..\..\..\..\..\Software\uCOS-III\Source/os_task.c **** *
2533:..\..\..\..\..\..\Software\uCOS-III\Source/os_task.c **** *
2534:..\..\..\..\..\..\Software\uCOS-III\Source/os_task.c **** *              ts         is a timestamp indicating when the post occurred.
2535:..\..\..\..\..\..\Software\uCOS-III\Source/os_task.c **** *
2536:..\..\..\..\..\..\Software\uCOS-III\Source/os_task.c **** *              p_err      is a pointer to a variable that will hold the error code associated
2537:..\..\..\..\..\..\Software\uCOS-III\Source/os_task.c **** *                         with the outcome of this call.  Errors can be:
2538:..\..\..\..\..\..\Software\uCOS-III\Source/os_task.c **** *
2539:..\..\..\..\..\..\Software\uCOS-III\Source/os_task.c **** *                             OS_ERR_NONE            The call was successful and the message was se
2540:..\..\..\..\..\..\Software\uCOS-III\Source/os_task.c **** *                             OS_ERR_MSG_POOL_EMPTY  If there are no more OS_MSGs available from th
2541:..\..\..\..\..\..\Software\uCOS-III\Source/os_task.c **** *                             OS_ERR_Q_MAX           If the queue is full
2542:..\..\..\..\..\..\Software\uCOS-III\Source/os_task.c **** *                             OS_ERR_STATE_INVALID   If the task is in an invalid state.  This shou
2543:..\..\..\..\..\..\Software\uCOS-III\Source/os_task.c **** *                                                    and if it does, would be considered a system f
2544:..\..\..\..\..\..\Software\uCOS-III\Source/os_task.c **** *
2545:..\..\..\..\..\..\Software\uCOS-III\Source/os_task.c **** * Returns    : none
2546:..\..\..\..\..\..\Software\uCOS-III\Source/os_task.c **** *
2547:..\..\..\..\..\..\Software\uCOS-III\Source/os_task.c **** * Note(s)    : This function is INTERNAL to uC/OS-III and your application should not call it.
2548:..\..\..\..\..\..\Software\uCOS-III\Source/os_task.c **** ***************************************************************************************************
2549:..\..\..\..\..\..\Software\uCOS-III\Source/os_task.c **** */
2550:..\..\..\..\..\..\Software\uCOS-III\Source/os_task.c **** 
2551:..\..\..\..\..\..\Software\uCOS-III\Source/os_task.c **** #if (OS_CFG_TASK_Q_EN == DEF_ENABLED)
2552:..\..\..\..\..\..\Software\uCOS-III\Source/os_task.c **** void  OS_TaskQPost (OS_TCB       *p_tcb,
2553:..\..\..\..\..\..\Software\uCOS-III\Source/os_task.c ****                     void         *p_void,
2554:..\..\..\..\..\..\Software\uCOS-III\Source/os_task.c ****                     OS_MSG_SIZE   msg_size,
2555:..\..\..\..\..\..\Software\uCOS-III\Source/os_task.c ****                     OS_OPT        opt,
2556:..\..\..\..\..\..\Software\uCOS-III\Source/os_task.c ****                     CPU_TS        ts,
2557:..\..\..\..\..\..\Software\uCOS-III\Source/os_task.c ****                     OS_ERR       *p_err)
2558:..\..\..\..\..\..\Software\uCOS-III\Source/os_task.c **** {
ARM GAS  C:\Users\ADMINI~1\AppData\Local\Temp\ccvBRVNC.s 			page 99


 3005              		.loc 1 2558 0
 3006              		.cfi_startproc
 3007              		@ args = 8, pretend = 0, frame = 24
 3008              		@ frame_needed = 1, uses_anonymous_args = 0
 3009 0000 90B5     		push	{r4, r7, lr}
 3010              		.cfi_def_cfa_offset 12
 3011              		.cfi_offset 4, -12
 3012              		.cfi_offset 7, -8
 3013              		.cfi_offset 14, -4
 3014 0002 89B0     		sub	sp, sp, #36
 3015              		.cfi_def_cfa_offset 48
 3016 0004 02AF     		add	r7, sp, #8
 3017              		.cfi_def_cfa 7, 40
 3018 0006 F860     		str	r0, [r7, #12]
 3019 0008 B960     		str	r1, [r7, #8]
 3020 000a 1900     		movs	r1, r3
 3021 000c BB1D     		adds	r3, r7, #6
 3022 000e 1A80     		strh	r2, [r3]
 3023 0010 3B1D     		adds	r3, r7, #4
 3024 0012 0A1C     		adds	r2, r1, #0
 3025 0014 1A80     		strh	r2, [r3]
2559:..\..\..\..\..\..\Software\uCOS-III\Source/os_task.c ****     CPU_SR_ALLOC();
 3026              		.loc 1 2559 0
 3027 0016 0023     		movs	r3, #0
 3028 0018 7B61     		str	r3, [r7, #20]
2560:..\..\..\..\..\..\Software\uCOS-III\Source/os_task.c **** 
2561:..\..\..\..\..\..\Software\uCOS-III\Source/os_task.c **** 
2562:..\..\..\..\..\..\Software\uCOS-III\Source/os_task.c **** 
2563:..\..\..\..\..\..\Software\uCOS-III\Source/os_task.c ****    *p_err = OS_ERR_NONE;                                        /* Assume we won't have any errors 
 3029              		.loc 1 2563 0
 3030 001a FB6A     		ldr	r3, [r7, #44]
 3031 001c 0022     		movs	r2, #0
 3032 001e 1A80     		strh	r2, [r3]
2564:..\..\..\..\..\..\Software\uCOS-III\Source/os_task.c ****     OS_CRITICAL_ENTER();
 3033              		.loc 1 2564 0
 3034 0020 FFF7FEFF 		bl	CPU_SR_Save
 3035 0024 0300     		movs	r3, r0
 3036 0026 7B61     		str	r3, [r7, #20]
 3037 0028 FFF7FEFF 		bl	CPU_IntDisMeasStart
2565:..\..\..\..\..\..\Software\uCOS-III\Source/os_task.c ****     if (p_tcb == DEF_NULL) {                                    /* Post msg to 'self'?             
 3038              		.loc 1 2565 0
 3039 002c FB68     		ldr	r3, [r7, #12]
 3040 002e 002B     		cmp	r3, #0
 3041 0030 02D1     		bne	.L187
2566:..\..\..\..\..\..\Software\uCOS-III\Source/os_task.c ****         p_tcb = OSTCBCurPtr;
 3042              		.loc 1 2566 0
 3043 0032 324B     		ldr	r3, .L197
 3044 0034 1B68     		ldr	r3, [r3]
 3045 0036 FB60     		str	r3, [r7, #12]
 3046              	.L187:
2567:..\..\..\..\..\..\Software\uCOS-III\Source/os_task.c ****     }
2568:..\..\..\..\..\..\Software\uCOS-III\Source/os_task.c ****     switch (p_tcb->TaskState) {
 3047              		.loc 1 2568 0
 3048 0038 FB68     		ldr	r3, [r7, #12]
 3049 003a 3622     		movs	r2, #54
 3050 003c 9B5C     		ldrb	r3, [r3, r2]
 3051 003e 072B     		cmp	r3, #7
ARM GAS  C:\Users\ADMINI~1\AppData\Local\Temp\ccvBRVNC.s 			page 100


 3052 0040 4DD8     		bhi	.L188
 3053 0042 9A00     		lsls	r2, r3, #2
 3054 0044 2E4B     		ldr	r3, .L197+4
 3055 0046 D318     		adds	r3, r2, r3
 3056 0048 1B68     		ldr	r3, [r3]
 3057 004a 9F46     		mov	pc, r3
 3058              		.section	.rodata
 3059 000a 0000     		.align	2
 3060              	.L190:
 3061 000c 4C000000 		.word	.L189
 3062 0010 4C000000 		.word	.L189
 3063 0014 78000000 		.word	.L191
 3064 0018 78000000 		.word	.L191
 3065 001c 4C000000 		.word	.L189
 3066 0020 4C000000 		.word	.L189
 3067 0024 78000000 		.word	.L191
 3068 0028 78000000 		.word	.L191
 3069              		.section	.text.OS_TaskQPost
 3070              	.L189:
2569:..\..\..\..\..\..\Software\uCOS-III\Source/os_task.c ****         case OS_TASK_STATE_RDY:
2570:..\..\..\..\..\..\Software\uCOS-III\Source/os_task.c ****         case OS_TASK_STATE_DLY:
2571:..\..\..\..\..\..\Software\uCOS-III\Source/os_task.c ****         case OS_TASK_STATE_SUSPENDED:
2572:..\..\..\..\..\..\Software\uCOS-III\Source/os_task.c ****         case OS_TASK_STATE_DLY_SUSPENDED:
2573:..\..\..\..\..\..\Software\uCOS-III\Source/os_task.c ****              OS_MsgQPut(&p_tcb->MsgQ,                           /* Deposit the message in the queue
 3071              		.loc 1 2573 0
 3072 004c FB68     		ldr	r3, [r7, #12]
 3073 004e 6033     		adds	r3, r3, #96
 3074 0050 1800     		movs	r0, r3
 3075 0052 3B1D     		adds	r3, r7, #4
 3076 0054 1C88     		ldrh	r4, [r3]
 3077 0056 BB1D     		adds	r3, r7, #6
 3078 0058 1A88     		ldrh	r2, [r3]
 3079 005a B968     		ldr	r1, [r7, #8]
 3080 005c FB6A     		ldr	r3, [r7, #44]
 3081 005e 0193     		str	r3, [sp, #4]
 3082 0060 BB6A     		ldr	r3, [r7, #40]
 3083 0062 0093     		str	r3, [sp]
 3084 0064 2300     		movs	r3, r4
 3085 0066 FFF7FEFF 		bl	OS_MsgQPut
2574:..\..\..\..\..\..\Software\uCOS-III\Source/os_task.c ****                         p_void,
2575:..\..\..\..\..\..\Software\uCOS-III\Source/os_task.c ****                         msg_size,
2576:..\..\..\..\..\..\Software\uCOS-III\Source/os_task.c ****                         opt,
2577:..\..\..\..\..\..\Software\uCOS-III\Source/os_task.c ****                         ts,
2578:..\..\..\..\..\..\Software\uCOS-III\Source/os_task.c ****                         p_err);
2579:..\..\..\..\..\..\Software\uCOS-III\Source/os_task.c ****              OS_CRITICAL_EXIT();
 3086              		.loc 1 2579 0
 3087 006a FFF7FEFF 		bl	CPU_IntDisMeasStop
 3088 006e 7B69     		ldr	r3, [r7, #20]
 3089 0070 1800     		movs	r0, r3
 3090 0072 FFF7FEFF 		bl	CPU_SR_Restore
2580:..\..\..\..\..\..\Software\uCOS-III\Source/os_task.c ****              break;
 3091              		.loc 1 2580 0
 3092 0076 3DE0     		b	.L192
 3093              	.L191:
2581:..\..\..\..\..\..\Software\uCOS-III\Source/os_task.c **** 
2582:..\..\..\..\..\..\Software\uCOS-III\Source/os_task.c ****         case OS_TASK_STATE_PEND:
2583:..\..\..\..\..\..\Software\uCOS-III\Source/os_task.c ****         case OS_TASK_STATE_PEND_TIMEOUT:
ARM GAS  C:\Users\ADMINI~1\AppData\Local\Temp\ccvBRVNC.s 			page 101


2584:..\..\..\..\..\..\Software\uCOS-III\Source/os_task.c ****         case OS_TASK_STATE_PEND_SUSPENDED:
2585:..\..\..\..\..\..\Software\uCOS-III\Source/os_task.c ****         case OS_TASK_STATE_PEND_TIMEOUT_SUSPENDED:
2586:..\..\..\..\..\..\Software\uCOS-III\Source/os_task.c ****              if (p_tcb->PendOn == OS_TASK_PEND_ON_TASK_Q) {     /* Is task waiting for a message to
 3094              		.loc 1 2586 0
 3095 0078 FB68     		ldr	r3, [r7, #12]
 3096 007a 3422     		movs	r2, #52
 3097 007c 9B5C     		ldrb	r3, [r3, r2]
 3098 007e 022B     		cmp	r3, #2
 3099 0080 17D1     		bne	.L193
2587:..\..\..\..\..\..\Software\uCOS-III\Source/os_task.c ****                  OS_Post(DEF_NULL,
 3100              		.loc 1 2587 0
 3101 0082 BB1D     		adds	r3, r7, #6
 3102 0084 1888     		ldrh	r0, [r3]
 3103 0086 BA68     		ldr	r2, [r7, #8]
 3104 0088 F968     		ldr	r1, [r7, #12]
 3105 008a BB6A     		ldr	r3, [r7, #40]
 3106 008c 0093     		str	r3, [sp]
 3107 008e 0300     		movs	r3, r0
 3108 0090 0020     		movs	r0, #0
 3109 0092 FFF7FEFF 		bl	OS_Post
2588:..\..\..\..\..\..\Software\uCOS-III\Source/os_task.c ****                          p_tcb,
2589:..\..\..\..\..\..\Software\uCOS-III\Source/os_task.c ****                          p_void,
2590:..\..\..\..\..\..\Software\uCOS-III\Source/os_task.c ****                          msg_size,
2591:..\..\..\..\..\..\Software\uCOS-III\Source/os_task.c ****                          ts);
2592:..\..\..\..\..\..\Software\uCOS-III\Source/os_task.c ****                  OS_CRITICAL_EXIT_NO_SCHED();
 3110              		.loc 1 2592 0
 3111 0096 FFF7FEFF 		bl	CPU_IntDisMeasStop
 3112 009a 7B69     		ldr	r3, [r7, #20]
 3113 009c 1800     		movs	r0, r3
 3114 009e FFF7FEFF 		bl	CPU_SR_Restore
2593:..\..\..\..\..\..\Software\uCOS-III\Source/os_task.c ****                  if ((opt & OS_OPT_POST_NO_SCHED) == 0u) {
 3115              		.loc 1 2593 0
 3116 00a2 3B1D     		adds	r3, r7, #4
 3117 00a4 0022     		movs	r2, #0
 3118 00a6 9B5E     		ldrsh	r3, [r3, r2]
 3119 00a8 002B     		cmp	r3, #0
 3120 00aa 22DB     		blt	.L196
2594:..\..\..\..\..\..\Software\uCOS-III\Source/os_task.c ****                      OSSched();                                 /* Run the scheduler               
 3121              		.loc 1 2594 0
 3122 00ac FFF7FEFF 		bl	OSSched
2595:..\..\..\..\..\..\Software\uCOS-III\Source/os_task.c ****                  }
2596:..\..\..\..\..\..\Software\uCOS-III\Source/os_task.c ****              } else {
2597:..\..\..\..\..\..\Software\uCOS-III\Source/os_task.c ****                  OS_MsgQPut(&p_tcb->MsgQ,                       /* No,  Task is pending on somethin
2598:..\..\..\..\..\..\Software\uCOS-III\Source/os_task.c ****                             p_void,                             /* ... Deposit the message in the t
2599:..\..\..\..\..\..\Software\uCOS-III\Source/os_task.c ****                             msg_size,
2600:..\..\..\..\..\..\Software\uCOS-III\Source/os_task.c ****                             opt,
2601:..\..\..\..\..\..\Software\uCOS-III\Source/os_task.c ****                             ts,
2602:..\..\..\..\..\..\Software\uCOS-III\Source/os_task.c ****                             p_err);
2603:..\..\..\..\..\..\Software\uCOS-III\Source/os_task.c ****                  OS_CRITICAL_EXIT();
2604:..\..\..\..\..\..\Software\uCOS-III\Source/os_task.c ****              }
2605:..\..\..\..\..\..\Software\uCOS-III\Source/os_task.c ****              break;
 3123              		.loc 1 2605 0
 3124 00b0 1FE0     		b	.L196
 3125              	.L193:
2597:..\..\..\..\..\..\Software\uCOS-III\Source/os_task.c ****                             p_void,                             /* ... Deposit the message in the t
 3126              		.loc 1 2597 0
 3127 00b2 FB68     		ldr	r3, [r7, #12]
ARM GAS  C:\Users\ADMINI~1\AppData\Local\Temp\ccvBRVNC.s 			page 102


 3128 00b4 6033     		adds	r3, r3, #96
 3129 00b6 1800     		movs	r0, r3
 3130 00b8 3B1D     		adds	r3, r7, #4
 3131 00ba 1C88     		ldrh	r4, [r3]
 3132 00bc BB1D     		adds	r3, r7, #6
 3133 00be 1A88     		ldrh	r2, [r3]
 3134 00c0 B968     		ldr	r1, [r7, #8]
 3135 00c2 FB6A     		ldr	r3, [r7, #44]
 3136 00c4 0193     		str	r3, [sp, #4]
 3137 00c6 BB6A     		ldr	r3, [r7, #40]
 3138 00c8 0093     		str	r3, [sp]
 3139 00ca 2300     		movs	r3, r4
 3140 00cc FFF7FEFF 		bl	OS_MsgQPut
2603:..\..\..\..\..\..\Software\uCOS-III\Source/os_task.c ****              }
 3141              		.loc 1 2603 0
 3142 00d0 FFF7FEFF 		bl	CPU_IntDisMeasStop
 3143 00d4 7B69     		ldr	r3, [r7, #20]
 3144 00d6 1800     		movs	r0, r3
 3145 00d8 FFF7FEFF 		bl	CPU_SR_Restore
 3146              		.loc 1 2605 0
 3147 00dc 09E0     		b	.L196
 3148              	.L188:
2606:..\..\..\..\..\..\Software\uCOS-III\Source/os_task.c **** 
2607:..\..\..\..\..\..\Software\uCOS-III\Source/os_task.c ****         default:
2608:..\..\..\..\..\..\Software\uCOS-III\Source/os_task.c ****              OS_CRITICAL_EXIT();
 3149              		.loc 1 2608 0
 3150 00de FFF7FEFF 		bl	CPU_IntDisMeasStop
 3151 00e2 7B69     		ldr	r3, [r7, #20]
 3152 00e4 1800     		movs	r0, r3
 3153 00e6 FFF7FEFF 		bl	CPU_SR_Restore
2609:..\..\..\..\..\..\Software\uCOS-III\Source/os_task.c ****             *p_err = OS_ERR_STATE_INVALID;
 3154              		.loc 1 2609 0
 3155 00ea FB6A     		ldr	r3, [r7, #44]
 3156 00ec 054A     		ldr	r2, .L197+8
 3157 00ee 1A80     		strh	r2, [r3]
2610:..\..\..\..\..\..\Software\uCOS-III\Source/os_task.c ****              break;
 3158              		.loc 1 2610 0
 3159 00f0 00E0     		b	.L192
 3160              	.L196:
2605:..\..\..\..\..\..\Software\uCOS-III\Source/os_task.c **** 
 3161              		.loc 1 2605 0
 3162 00f2 C046     		nop
 3163              	.L192:
2611:..\..\..\..\..\..\Software\uCOS-III\Source/os_task.c ****     }
2612:..\..\..\..\..\..\Software\uCOS-III\Source/os_task.c **** }
 3164              		.loc 1 2612 0
 3165 00f4 C046     		nop
 3166 00f6 BD46     		mov	sp, r7
 3167 00f8 07B0     		add	sp, sp, #28
 3168              		@ sp needed
 3169 00fa 90BD     		pop	{r4, r7, pc}
 3170              	.L198:
 3171              		.align	2
 3172              	.L197:
 3173 00fc 00000000 		.word	OSTCBCurPtr
 3174 0100 0C000000 		.word	.L190
 3175 0104 2D6E0000 		.word	28205
ARM GAS  C:\Users\ADMINI~1\AppData\Local\Temp\ccvBRVNC.s 			page 103


 3176              		.cfi_endproc
 3177              	.LFE19:
 3178              		.size	OS_TaskQPost, .-OS_TaskQPost
 3179              		.section	.text.OS_TaskResume,"ax",%progbits
 3180              		.align	2
 3181              		.global	OS_TaskResume
 3182              		.code	16
 3183              		.thumb_func
 3184              		.type	OS_TaskResume, %function
 3185              	OS_TaskResume:
 3186              	.LFB20:
2613:..\..\..\..\..\..\Software\uCOS-III\Source/os_task.c **** #endif
2614:..\..\..\..\..\..\Software\uCOS-III\Source/os_task.c **** 
2615:..\..\..\..\..\..\Software\uCOS-III\Source/os_task.c **** 
2616:..\..\..\..\..\..\Software\uCOS-III\Source/os_task.c **** /*
2617:..\..\..\..\..\..\Software\uCOS-III\Source/os_task.c **** ***************************************************************************************************
2618:..\..\..\..\..\..\Software\uCOS-III\Source/os_task.c **** *                                               RESUME A SUSPENDED TASK
2619:..\..\..\..\..\..\Software\uCOS-III\Source/os_task.c **** *
2620:..\..\..\..\..\..\Software\uCOS-III\Source/os_task.c **** * Description: This function is called to resume a previously suspended task.  This is the only cal
2621:..\..\..\..\..\..\Software\uCOS-III\Source/os_task.c **** *              explicit task suspension.
2622:..\..\..\..\..\..\Software\uCOS-III\Source/os_task.c **** *
2623:..\..\..\..\..\..\Software\uCOS-III\Source/os_task.c **** * Arguments  : p_tcb      Is a pointer to the task's OS_TCB to resume
2624:..\..\..\..\..\..\Software\uCOS-III\Source/os_task.c **** *
2625:..\..\..\..\..\..\Software\uCOS-III\Source/os_task.c **** *              p_err      Is a pointer to a variable that will contain an error code returned by th
2626:..\..\..\..\..\..\Software\uCOS-III\Source/os_task.c **** *
2627:..\..\..\..\..\..\Software\uCOS-III\Source/os_task.c **** *                             OS_ERR_NONE                  if the requested task is resumed
2628:..\..\..\..\..\..\Software\uCOS-III\Source/os_task.c **** *                             OS_ERR_STATE_INVALID         if the task is in an invalid state
2629:..\..\..\..\..\..\Software\uCOS-III\Source/os_task.c **** *                             OS_ERR_TASK_NOT_SUSPENDED    if the task to resume has not been suspe
2630:..\..\..\..\..\..\Software\uCOS-III\Source/os_task.c **** *
2631:..\..\..\..\..\..\Software\uCOS-III\Source/os_task.c **** * Returns    : none
2632:..\..\..\..\..\..\Software\uCOS-III\Source/os_task.c **** *
2633:..\..\..\..\..\..\Software\uCOS-III\Source/os_task.c **** * Note(s)    : This function is INTERNAL to uC/OS-III and your application should not call it.
2634:..\..\..\..\..\..\Software\uCOS-III\Source/os_task.c **** ***************************************************************************************************
2635:..\..\..\..\..\..\Software\uCOS-III\Source/os_task.c **** */
2636:..\..\..\..\..\..\Software\uCOS-III\Source/os_task.c **** 
2637:..\..\..\..\..\..\Software\uCOS-III\Source/os_task.c **** #if (OS_CFG_TASK_SUSPEND_EN == DEF_ENABLED)
2638:..\..\..\..\..\..\Software\uCOS-III\Source/os_task.c **** void  OS_TaskResume (OS_TCB  *p_tcb,
2639:..\..\..\..\..\..\Software\uCOS-III\Source/os_task.c ****                      OS_ERR  *p_err)
2640:..\..\..\..\..\..\Software\uCOS-III\Source/os_task.c **** {
 3187              		.loc 1 2640 0
 3188              		.cfi_startproc
 3189              		@ args = 0, pretend = 0, frame = 16
 3190              		@ frame_needed = 1, uses_anonymous_args = 0
 3191 0000 80B5     		push	{r7, lr}
 3192              		.cfi_def_cfa_offset 8
 3193              		.cfi_offset 7, -8
 3194              		.cfi_offset 14, -4
 3195 0002 84B0     		sub	sp, sp, #16
 3196              		.cfi_def_cfa_offset 24
 3197 0004 00AF     		add	r7, sp, #0
 3198              		.cfi_def_cfa_register 7
 3199 0006 7860     		str	r0, [r7, #4]
 3200 0008 3960     		str	r1, [r7]
2641:..\..\..\..\..\..\Software\uCOS-III\Source/os_task.c ****     CPU_SR_ALLOC();
 3201              		.loc 1 2641 0
 3202 000a 0023     		movs	r3, #0
 3203 000c FB60     		str	r3, [r7, #12]
ARM GAS  C:\Users\ADMINI~1\AppData\Local\Temp\ccvBRVNC.s 			page 104


2642:..\..\..\..\..\..\Software\uCOS-III\Source/os_task.c **** 
2643:..\..\..\..\..\..\Software\uCOS-III\Source/os_task.c **** 
2644:..\..\..\..\..\..\Software\uCOS-III\Source/os_task.c ****     CPU_CRITICAL_ENTER();
 3204              		.loc 1 2644 0
 3205 000e FFF7FEFF 		bl	CPU_SR_Save
 3206 0012 0300     		movs	r3, r0
 3207 0014 FB60     		str	r3, [r7, #12]
 3208 0016 FFF7FEFF 		bl	CPU_IntDisMeasStart
2645:..\..\..\..\..\..\Software\uCOS-III\Source/os_task.c ****    *p_err  = OS_ERR_NONE;
 3209              		.loc 1 2645 0
 3210 001a 3B68     		ldr	r3, [r7]
 3211 001c 0022     		movs	r2, #0
 3212 001e 1A80     		strh	r2, [r3]
2646:..\..\..\..\..\..\Software\uCOS-III\Source/os_task.c ****     switch (p_tcb->TaskState) {
 3213              		.loc 1 2646 0
 3214 0020 7B68     		ldr	r3, [r7, #4]
 3215 0022 3622     		movs	r2, #54
 3216 0024 9B5C     		ldrb	r3, [r3, r2]
 3217 0026 072B     		cmp	r3, #7
 3218 0028 72D8     		bhi	.L200
 3219 002a 9A00     		lsls	r2, r3, #2
 3220 002c 404B     		ldr	r3, .L213
 3221 002e D318     		adds	r3, r2, r3
 3222 0030 1B68     		ldr	r3, [r3]
 3223 0032 9F46     		mov	pc, r3
 3224              		.section	.rodata
 3225              		.align	2
 3226              	.L202:
 3227 002c 34000000 		.word	.L201
 3228 0030 34000000 		.word	.L201
 3229 0034 34000000 		.word	.L201
 3230 0038 34000000 		.word	.L201
 3231 003c 48000000 		.word	.L203
 3232 0040 80000000 		.word	.L204
 3233 0044 B0000000 		.word	.L205
 3234 0048 E0000000 		.word	.L206
 3235              		.section	.text.OS_TaskResume
 3236              	.L201:
2647:..\..\..\..\..\..\Software\uCOS-III\Source/os_task.c ****         case OS_TASK_STATE_RDY:
2648:..\..\..\..\..\..\Software\uCOS-III\Source/os_task.c ****         case OS_TASK_STATE_DLY:
2649:..\..\..\..\..\..\Software\uCOS-III\Source/os_task.c ****         case OS_TASK_STATE_PEND:
2650:..\..\..\..\..\..\Software\uCOS-III\Source/os_task.c ****         case OS_TASK_STATE_PEND_TIMEOUT:
2651:..\..\..\..\..\..\Software\uCOS-III\Source/os_task.c ****              CPU_CRITICAL_EXIT();
 3237              		.loc 1 2651 0
 3238 0034 FFF7FEFF 		bl	CPU_IntDisMeasStop
 3239 0038 FB68     		ldr	r3, [r7, #12]
 3240 003a 1800     		movs	r0, r3
 3241 003c FFF7FEFF 		bl	CPU_SR_Restore
2652:..\..\..\..\..\..\Software\uCOS-III\Source/os_task.c ****             *p_err = OS_ERR_TASK_NOT_SUSPENDED;
 3242              		.loc 1 2652 0
 3243 0040 3B68     		ldr	r3, [r7]
 3244 0042 3C4A     		ldr	r2, .L213+4
 3245 0044 1A80     		strh	r2, [r3]
2653:..\..\..\..\..\..\Software\uCOS-III\Source/os_task.c ****              break;
 3246              		.loc 1 2653 0
 3247 0046 6DE0     		b	.L207
 3248              	.L203:
ARM GAS  C:\Users\ADMINI~1\AppData\Local\Temp\ccvBRVNC.s 			page 105


2654:..\..\..\..\..\..\Software\uCOS-III\Source/os_task.c **** 
2655:..\..\..\..\..\..\Software\uCOS-III\Source/os_task.c ****         case OS_TASK_STATE_SUSPENDED:
2656:..\..\..\..\..\..\Software\uCOS-III\Source/os_task.c ****              OS_CRITICAL_ENTER_CPU_EXIT();
2657:..\..\..\..\..\..\Software\uCOS-III\Source/os_task.c ****              p_tcb->SuspendCtr--;
 3249              		.loc 1 2657 0
 3250 0048 7B68     		ldr	r3, [r7, #4]
 3251 004a 8622     		movs	r2, #134
 3252 004c 9B5C     		ldrb	r3, [r3, r2]
 3253 004e 013B     		subs	r3, r3, #1
 3254 0050 D9B2     		uxtb	r1, r3
 3255 0052 7B68     		ldr	r3, [r7, #4]
 3256 0054 8622     		movs	r2, #134
 3257 0056 9954     		strb	r1, [r3, r2]
2658:..\..\..\..\..\..\Software\uCOS-III\Source/os_task.c ****              if (p_tcb->SuspendCtr == 0u) {
 3258              		.loc 1 2658 0
 3259 0058 7B68     		ldr	r3, [r7, #4]
 3260 005a 8622     		movs	r2, #134
 3261 005c 9B5C     		ldrb	r3, [r3, r2]
 3262 005e 002B     		cmp	r3, #0
 3263 0060 07D1     		bne	.L208
2659:..\..\..\..\..\..\Software\uCOS-III\Source/os_task.c ****                  p_tcb->TaskState = OS_TASK_STATE_RDY;
 3264              		.loc 1 2659 0
 3265 0062 7B68     		ldr	r3, [r7, #4]
 3266 0064 3622     		movs	r2, #54
 3267 0066 0021     		movs	r1, #0
 3268 0068 9954     		strb	r1, [r3, r2]
2660:..\..\..\..\..\..\Software\uCOS-III\Source/os_task.c ****                  OS_RdyListInsert(p_tcb);                       /* Insert the task in the ready lis
 3269              		.loc 1 2660 0
 3270 006a 7B68     		ldr	r3, [r7, #4]
 3271 006c 1800     		movs	r0, r3
 3272 006e FFF7FEFF 		bl	OS_RdyListInsert
 3273              	.L208:
2661:..\..\..\..\..\..\Software\uCOS-III\Source/os_task.c ****              }
2662:..\..\..\..\..\..\Software\uCOS-III\Source/os_task.c ****              OS_CRITICAL_EXIT_NO_SCHED();
 3274              		.loc 1 2662 0
 3275 0072 FFF7FEFF 		bl	CPU_IntDisMeasStop
 3276 0076 FB68     		ldr	r3, [r7, #12]
 3277 0078 1800     		movs	r0, r3
 3278 007a FFF7FEFF 		bl	CPU_SR_Restore
2663:..\..\..\..\..\..\Software\uCOS-III\Source/os_task.c ****              break;
 3279              		.loc 1 2663 0
 3280 007e 51E0     		b	.L207
 3281              	.L204:
2664:..\..\..\..\..\..\Software\uCOS-III\Source/os_task.c **** 
2665:..\..\..\..\..\..\Software\uCOS-III\Source/os_task.c ****         case OS_TASK_STATE_DLY_SUSPENDED:
2666:..\..\..\..\..\..\Software\uCOS-III\Source/os_task.c ****              p_tcb->SuspendCtr--;
 3282              		.loc 1 2666 0
 3283 0080 7B68     		ldr	r3, [r7, #4]
 3284 0082 8622     		movs	r2, #134
 3285 0084 9B5C     		ldrb	r3, [r3, r2]
 3286 0086 013B     		subs	r3, r3, #1
 3287 0088 D9B2     		uxtb	r1, r3
 3288 008a 7B68     		ldr	r3, [r7, #4]
 3289 008c 8622     		movs	r2, #134
 3290 008e 9954     		strb	r1, [r3, r2]
2667:..\..\..\..\..\..\Software\uCOS-III\Source/os_task.c ****              if (p_tcb->SuspendCtr == 0u) {
 3291              		.loc 1 2667 0
ARM GAS  C:\Users\ADMINI~1\AppData\Local\Temp\ccvBRVNC.s 			page 106


 3292 0090 7B68     		ldr	r3, [r7, #4]
 3293 0092 8622     		movs	r2, #134
 3294 0094 9B5C     		ldrb	r3, [r3, r2]
 3295 0096 002B     		cmp	r3, #0
 3296 0098 03D1     		bne	.L209
2668:..\..\..\..\..\..\Software\uCOS-III\Source/os_task.c ****                  p_tcb->TaskState = OS_TASK_STATE_DLY;
 3297              		.loc 1 2668 0
 3298 009a 7B68     		ldr	r3, [r7, #4]
 3299 009c 3622     		movs	r2, #54
 3300 009e 0121     		movs	r1, #1
 3301 00a0 9954     		strb	r1, [r3, r2]
 3302              	.L209:
2669:..\..\..\..\..\..\Software\uCOS-III\Source/os_task.c ****              }
2670:..\..\..\..\..\..\Software\uCOS-III\Source/os_task.c ****              CPU_CRITICAL_EXIT();
 3303              		.loc 1 2670 0
 3304 00a2 FFF7FEFF 		bl	CPU_IntDisMeasStop
 3305 00a6 FB68     		ldr	r3, [r7, #12]
 3306 00a8 1800     		movs	r0, r3
 3307 00aa FFF7FEFF 		bl	CPU_SR_Restore
2671:..\..\..\..\..\..\Software\uCOS-III\Source/os_task.c ****              break;
 3308              		.loc 1 2671 0
 3309 00ae 39E0     		b	.L207
 3310              	.L205:
2672:..\..\..\..\..\..\Software\uCOS-III\Source/os_task.c **** 
2673:..\..\..\..\..\..\Software\uCOS-III\Source/os_task.c ****         case OS_TASK_STATE_PEND_SUSPENDED:
2674:..\..\..\..\..\..\Software\uCOS-III\Source/os_task.c ****              p_tcb->SuspendCtr--;
 3311              		.loc 1 2674 0
 3312 00b0 7B68     		ldr	r3, [r7, #4]
 3313 00b2 8622     		movs	r2, #134
 3314 00b4 9B5C     		ldrb	r3, [r3, r2]
 3315 00b6 013B     		subs	r3, r3, #1
 3316 00b8 D9B2     		uxtb	r1, r3
 3317 00ba 7B68     		ldr	r3, [r7, #4]
 3318 00bc 8622     		movs	r2, #134
 3319 00be 9954     		strb	r1, [r3, r2]
2675:..\..\..\..\..\..\Software\uCOS-III\Source/os_task.c ****              if (p_tcb->SuspendCtr == 0u) {
 3320              		.loc 1 2675 0
 3321 00c0 7B68     		ldr	r3, [r7, #4]
 3322 00c2 8622     		movs	r2, #134
 3323 00c4 9B5C     		ldrb	r3, [r3, r2]
 3324 00c6 002B     		cmp	r3, #0
 3325 00c8 03D1     		bne	.L210
2676:..\..\..\..\..\..\Software\uCOS-III\Source/os_task.c ****                  p_tcb->TaskState = OS_TASK_STATE_PEND;
 3326              		.loc 1 2676 0
 3327 00ca 7B68     		ldr	r3, [r7, #4]
 3328 00cc 3622     		movs	r2, #54
 3329 00ce 0221     		movs	r1, #2
 3330 00d0 9954     		strb	r1, [r3, r2]
 3331              	.L210:
2677:..\..\..\..\..\..\Software\uCOS-III\Source/os_task.c ****              }
2678:..\..\..\..\..\..\Software\uCOS-III\Source/os_task.c ****              CPU_CRITICAL_EXIT();
 3332              		.loc 1 2678 0
 3333 00d2 FFF7FEFF 		bl	CPU_IntDisMeasStop
 3334 00d6 FB68     		ldr	r3, [r7, #12]
 3335 00d8 1800     		movs	r0, r3
 3336 00da FFF7FEFF 		bl	CPU_SR_Restore
2679:..\..\..\..\..\..\Software\uCOS-III\Source/os_task.c ****              break;
ARM GAS  C:\Users\ADMINI~1\AppData\Local\Temp\ccvBRVNC.s 			page 107


 3337              		.loc 1 2679 0
 3338 00de 21E0     		b	.L207
 3339              	.L206:
2680:..\..\..\..\..\..\Software\uCOS-III\Source/os_task.c **** 
2681:..\..\..\..\..\..\Software\uCOS-III\Source/os_task.c ****         case OS_TASK_STATE_PEND_TIMEOUT_SUSPENDED:
2682:..\..\..\..\..\..\Software\uCOS-III\Source/os_task.c ****              p_tcb->SuspendCtr--;
 3340              		.loc 1 2682 0
 3341 00e0 7B68     		ldr	r3, [r7, #4]
 3342 00e2 8622     		movs	r2, #134
 3343 00e4 9B5C     		ldrb	r3, [r3, r2]
 3344 00e6 013B     		subs	r3, r3, #1
 3345 00e8 D9B2     		uxtb	r1, r3
 3346 00ea 7B68     		ldr	r3, [r7, #4]
 3347 00ec 8622     		movs	r2, #134
 3348 00ee 9954     		strb	r1, [r3, r2]
2683:..\..\..\..\..\..\Software\uCOS-III\Source/os_task.c ****              if (p_tcb->SuspendCtr == 0u) {
 3349              		.loc 1 2683 0
 3350 00f0 7B68     		ldr	r3, [r7, #4]
 3351 00f2 8622     		movs	r2, #134
 3352 00f4 9B5C     		ldrb	r3, [r3, r2]
 3353 00f6 002B     		cmp	r3, #0
 3354 00f8 03D1     		bne	.L211
2684:..\..\..\..\..\..\Software\uCOS-III\Source/os_task.c ****                  p_tcb->TaskState = OS_TASK_STATE_PEND_TIMEOUT;
 3355              		.loc 1 2684 0
 3356 00fa 7B68     		ldr	r3, [r7, #4]
 3357 00fc 3622     		movs	r2, #54
 3358 00fe 0321     		movs	r1, #3
 3359 0100 9954     		strb	r1, [r3, r2]
 3360              	.L211:
2685:..\..\..\..\..\..\Software\uCOS-III\Source/os_task.c ****              }
2686:..\..\..\..\..\..\Software\uCOS-III\Source/os_task.c ****              CPU_CRITICAL_EXIT();
 3361              		.loc 1 2686 0
 3362 0102 FFF7FEFF 		bl	CPU_IntDisMeasStop
 3363 0106 FB68     		ldr	r3, [r7, #12]
 3364 0108 1800     		movs	r0, r3
 3365 010a FFF7FEFF 		bl	CPU_SR_Restore
2687:..\..\..\..\..\..\Software\uCOS-III\Source/os_task.c ****              break;
 3366              		.loc 1 2687 0
 3367 010e 09E0     		b	.L207
 3368              	.L200:
2688:..\..\..\..\..\..\Software\uCOS-III\Source/os_task.c **** 
2689:..\..\..\..\..\..\Software\uCOS-III\Source/os_task.c ****         default:
2690:..\..\..\..\..\..\Software\uCOS-III\Source/os_task.c ****              CPU_CRITICAL_EXIT();
 3369              		.loc 1 2690 0
 3370 0110 FFF7FEFF 		bl	CPU_IntDisMeasStop
 3371 0114 FB68     		ldr	r3, [r7, #12]
 3372 0116 1800     		movs	r0, r3
 3373 0118 FFF7FEFF 		bl	CPU_SR_Restore
2691:..\..\..\..\..\..\Software\uCOS-III\Source/os_task.c ****             *p_err = OS_ERR_STATE_INVALID;
 3374              		.loc 1 2691 0
 3375 011c 3B68     		ldr	r3, [r7]
 3376 011e 064A     		ldr	r2, .L213+8
 3377 0120 1A80     		strh	r2, [r3]
2692:..\..\..\..\..\..\Software\uCOS-III\Source/os_task.c ****              return;
 3378              		.loc 1 2692 0
 3379 0122 01E0     		b	.L199
 3380              	.L207:
ARM GAS  C:\Users\ADMINI~1\AppData\Local\Temp\ccvBRVNC.s 			page 108


2693:..\..\..\..\..\..\Software\uCOS-III\Source/os_task.c ****     }
2694:..\..\..\..\..\..\Software\uCOS-III\Source/os_task.c **** 
2695:..\..\..\..\..\..\Software\uCOS-III\Source/os_task.c ****     OSSched();
 3381              		.loc 1 2695 0
 3382 0124 FFF7FEFF 		bl	OSSched
 3383              	.L199:
2696:..\..\..\..\..\..\Software\uCOS-III\Source/os_task.c **** }
 3384              		.loc 1 2696 0
 3385 0128 BD46     		mov	sp, r7
 3386 012a 04B0     		add	sp, sp, #16
 3387              		@ sp needed
 3388 012c 80BD     		pop	{r7, pc}
 3389              	.L214:
 3390 012e C046     		.align	2
 3391              	.L213:
 3392 0130 2C000000 		.word	.L202
 3393 0134 53710000 		.word	29011
 3394 0138 2D6E0000 		.word	28205
 3395              		.cfi_endproc
 3396              	.LFE20:
 3397              		.size	OS_TaskResume, .-OS_TaskResume
 3398              		.section	.text.OS_TaskReturn,"ax",%progbits
 3399              		.align	2
 3400              		.global	OS_TaskReturn
 3401              		.code	16
 3402              		.thumb_func
 3403              		.type	OS_TaskReturn, %function
 3404              	OS_TaskReturn:
 3405              	.LFB21:
2697:..\..\..\..\..\..\Software\uCOS-III\Source/os_task.c **** #endif
2698:..\..\..\..\..\..\Software\uCOS-III\Source/os_task.c **** 
2699:..\..\..\..\..\..\Software\uCOS-III\Source/os_task.c **** 
2700:..\..\..\..\..\..\Software\uCOS-III\Source/os_task.c **** /*
2701:..\..\..\..\..\..\Software\uCOS-III\Source/os_task.c **** ***************************************************************************************************
2702:..\..\..\..\..\..\Software\uCOS-III\Source/os_task.c **** *                                              CATCH ACCIDENTAL TASK RETURN
2703:..\..\..\..\..\..\Software\uCOS-III\Source/os_task.c **** *
2704:..\..\..\..\..\..\Software\uCOS-III\Source/os_task.c **** * Description: This function is called if a task accidentally returns without deleting itself.  In 
2705:..\..\..\..\..\..\Software\uCOS-III\Source/os_task.c **** *              should either be an infinite loop or delete itself if it's done.
2706:..\..\..\..\..\..\Software\uCOS-III\Source/os_task.c **** *
2707:..\..\..\..\..\..\Software\uCOS-III\Source/os_task.c **** * Arguments  : none
2708:..\..\..\..\..\..\Software\uCOS-III\Source/os_task.c **** *
2709:..\..\..\..\..\..\Software\uCOS-III\Source/os_task.c **** * Returns    : none
2710:..\..\..\..\..\..\Software\uCOS-III\Source/os_task.c **** *
2711:..\..\..\..\..\..\Software\uCOS-III\Source/os_task.c **** * Note(s)    : This function is INTERNAL to uC/OS-III and your application should not call it.
2712:..\..\..\..\..\..\Software\uCOS-III\Source/os_task.c **** ***************************************************************************************************
2713:..\..\..\..\..\..\Software\uCOS-III\Source/os_task.c **** */
2714:..\..\..\..\..\..\Software\uCOS-III\Source/os_task.c **** 
2715:..\..\..\..\..\..\Software\uCOS-III\Source/os_task.c **** void  OS_TaskReturn (void)
2716:..\..\..\..\..\..\Software\uCOS-III\Source/os_task.c **** {
 3406              		.loc 1 2716 0
 3407              		.cfi_startproc
 3408              		@ args = 0, pretend = 0, frame = 8
 3409              		@ frame_needed = 1, uses_anonymous_args = 0
 3410 0000 80B5     		push	{r7, lr}
 3411              		.cfi_def_cfa_offset 8
 3412              		.cfi_offset 7, -8
 3413              		.cfi_offset 14, -4
ARM GAS  C:\Users\ADMINI~1\AppData\Local\Temp\ccvBRVNC.s 			page 109


 3414 0002 82B0     		sub	sp, sp, #8
 3415              		.cfi_def_cfa_offset 16
 3416 0004 00AF     		add	r7, sp, #0
 3417              		.cfi_def_cfa_register 7
2717:..\..\..\..\..\..\Software\uCOS-III\Source/os_task.c ****     OS_ERR  err;
2718:..\..\..\..\..\..\Software\uCOS-III\Source/os_task.c **** 
2719:..\..\..\..\..\..\Software\uCOS-III\Source/os_task.c **** 
2720:..\..\..\..\..\..\Software\uCOS-III\Source/os_task.c **** 
2721:..\..\..\..\..\..\Software\uCOS-III\Source/os_task.c ****     OSTaskReturnHook(OSTCBCurPtr);                              /* Call hook to let user decide on 
 3418              		.loc 1 2721 0
 3419 0006 064B     		ldr	r3, .L217
 3420 0008 1B68     		ldr	r3, [r3]
 3421 000a 1800     		movs	r0, r3
 3422 000c FFF7FEFF 		bl	OSTaskReturnHook
 3423              	.L216:
2722:..\..\..\..\..\..\Software\uCOS-III\Source/os_task.c **** #if (OS_CFG_TASK_DEL_EN == DEF_ENABLED)
2723:..\..\..\..\..\..\Software\uCOS-III\Source/os_task.c ****     OSTaskDel( DEF_NULL,                                        /* Delete task if it accidentally r
2724:..\..\..\..\..\..\Software\uCOS-III\Source/os_task.c ****               &err);
2725:..\..\..\..\..\..\Software\uCOS-III\Source/os_task.c **** #else
2726:..\..\..\..\..\..\Software\uCOS-III\Source/os_task.c ****     while (DEF_TRUE) {
2727:..\..\..\..\..\..\Software\uCOS-III\Source/os_task.c ****         OSTimeDly(OSCfg_TickRate_Hz,
 3424              		.loc 1 2727 0 discriminator 1
 3425 0010 044B     		ldr	r3, .L217+4
 3426 0012 1B68     		ldr	r3, [r3]
 3427 0014 BA1D     		adds	r2, r7, #6
 3428 0016 0021     		movs	r1, #0
 3429 0018 1800     		movs	r0, r3
 3430 001a FFF7FEFF 		bl	OSTimeDly
2728:..\..\..\..\..\..\Software\uCOS-III\Source/os_task.c ****                   OS_OPT_TIME_DLY,
2729:..\..\..\..\..\..\Software\uCOS-III\Source/os_task.c ****                   &err);
2730:..\..\..\..\..\..\Software\uCOS-III\Source/os_task.c ****         (void)err;
2731:..\..\..\..\..\..\Software\uCOS-III\Source/os_task.c ****     }
 3431              		.loc 1 2731 0 discriminator 1
 3432 001e F7E7     		b	.L216
 3433              	.L218:
 3434              		.align	2
 3435              	.L217:
 3436 0020 00000000 		.word	OSTCBCurPtr
 3437 0024 00000000 		.word	OSCfg_TickRate_Hz
 3438              		.cfi_endproc
 3439              	.LFE21:
 3440              		.size	OS_TaskReturn, .-OS_TaskReturn
 3441              		.section	.text.OS_TaskSemPost,"ax",%progbits
 3442              		.align	2
 3443              		.global	OS_TaskSemPost
 3444              		.code	16
 3445              		.thumb_func
 3446              		.type	OS_TaskSemPost, %function
 3447              	OS_TaskSemPost:
 3448              	.LFB22:
2732:..\..\..\..\..\..\Software\uCOS-III\Source/os_task.c **** #endif
2733:..\..\..\..\..\..\Software\uCOS-III\Source/os_task.c **** }
2734:..\..\..\..\..\..\Software\uCOS-III\Source/os_task.c **** 
2735:..\..\..\..\..\..\Software\uCOS-III\Source/os_task.c **** 
2736:..\..\..\..\..\..\Software\uCOS-III\Source/os_task.c **** /*
2737:..\..\..\..\..\..\Software\uCOS-III\Source/os_task.c **** ***************************************************************************************************
2738:..\..\..\..\..\..\Software\uCOS-III\Source/os_task.c **** *                                                    SIGNAL A TASK
ARM GAS  C:\Users\ADMINI~1\AppData\Local\Temp\ccvBRVNC.s 			page 110


2739:..\..\..\..\..\..\Software\uCOS-III\Source/os_task.c **** *
2740:..\..\..\..\..\..\Software\uCOS-III\Source/os_task.c **** * Description: This function is called to signal a task waiting for a signal.
2741:..\..\..\..\..\..\Software\uCOS-III\Source/os_task.c **** *
2742:..\..\..\..\..\..\Software\uCOS-III\Source/os_task.c **** * Arguments  : p_tcb     is the pointer to the TCB of the task to signal.  A NULL pointer indicates
2743:..\..\..\..\..\..\Software\uCOS-III\Source/os_task.c **** *                        a signal to yourself.
2744:..\..\..\..\..\..\Software\uCOS-III\Source/os_task.c **** *
2745:..\..\..\..\..\..\Software\uCOS-III\Source/os_task.c **** *              opt       determines the type of POST performed:
2746:..\..\..\..\..\..\Software\uCOS-III\Source/os_task.c **** *
2747:..\..\..\..\..\..\Software\uCOS-III\Source/os_task.c **** *                             OS_OPT_POST_NONE         No option
2748:..\..\..\..\..\..\Software\uCOS-III\Source/os_task.c **** *
2749:..\..\..\..\..\..\Software\uCOS-III\Source/os_task.c **** *                             OS_OPT_POST_NO_SCHED     Do not call the scheduler
2750:..\..\..\..\..\..\Software\uCOS-III\Source/os_task.c **** *
2751:..\..\..\..\..\..\Software\uCOS-III\Source/os_task.c **** *              ts        is a timestamp indicating when the post occurred.
2752:..\..\..\..\..\..\Software\uCOS-III\Source/os_task.c **** *
2753:..\..\..\..\..\..\Software\uCOS-III\Source/os_task.c **** *              p_err     is a pointer to an error code returned by this function:
2754:..\..\..\..\..\..\Software\uCOS-III\Source/os_task.c **** *
2755:..\..\..\..\..\..\Software\uCOS-III\Source/os_task.c **** *                            OS_ERR_NONE           If the requested task is signaled
2756:..\..\..\..\..\..\Software\uCOS-III\Source/os_task.c **** *                            OS_ERR_SEM_OVF        If the post would cause the semaphore count to o
2757:..\..\..\..\..\..\Software\uCOS-III\Source/os_task.c **** *                            OS_ERR_STATE_INVALID  If the task is in an invalid state.  This should
2758:..\..\..\..\..\..\Software\uCOS-III\Source/os_task.c **** *                                                  and if it does, would be considered a system fai
2759:..\..\..\..\..\..\Software\uCOS-III\Source/os_task.c **** *
2760:..\..\..\..\..\..\Software\uCOS-III\Source/os_task.c **** * Returns    : The current value of the task's signal counter or 0 if called from an ISR
2761:..\..\..\..\..\..\Software\uCOS-III\Source/os_task.c **** *
2762:..\..\..\..\..\..\Software\uCOS-III\Source/os_task.c **** * Note(s)    : This function is INTERNAL to uC/OS-III and your application should not call it.
2763:..\..\..\..\..\..\Software\uCOS-III\Source/os_task.c **** ***************************************************************************************************
2764:..\..\..\..\..\..\Software\uCOS-III\Source/os_task.c **** */
2765:..\..\..\..\..\..\Software\uCOS-III\Source/os_task.c **** 
2766:..\..\..\..\..\..\Software\uCOS-III\Source/os_task.c **** OS_SEM_CTR  OS_TaskSemPost (OS_TCB  *p_tcb,
2767:..\..\..\..\..\..\Software\uCOS-III\Source/os_task.c ****                             OS_OPT   opt,
2768:..\..\..\..\..\..\Software\uCOS-III\Source/os_task.c ****                             CPU_TS   ts,
2769:..\..\..\..\..\..\Software\uCOS-III\Source/os_task.c ****                             OS_ERR  *p_err)
2770:..\..\..\..\..\..\Software\uCOS-III\Source/os_task.c **** {
 3449              		.loc 1 2770 0
 3450              		.cfi_startproc
 3451              		@ args = 0, pretend = 0, frame = 24
 3452              		@ frame_needed = 1, uses_anonymous_args = 0
 3453 0000 80B5     		push	{r7, lr}
 3454              		.cfi_def_cfa_offset 8
 3455              		.cfi_offset 7, -8
 3456              		.cfi_offset 14, -4
 3457 0002 88B0     		sub	sp, sp, #32
 3458              		.cfi_def_cfa_offset 40
 3459 0004 02AF     		add	r7, sp, #8
 3460              		.cfi_def_cfa 7, 32
 3461 0006 F860     		str	r0, [r7, #12]
 3462 0008 7A60     		str	r2, [r7, #4]
 3463 000a 3B60     		str	r3, [r7]
 3464 000c 0A23     		movs	r3, #10
 3465 000e FB18     		adds	r3, r7, r3
 3466 0010 0A1C     		adds	r2, r1, #0
 3467 0012 1A80     		strh	r2, [r3]
2771:..\..\..\..\..\..\Software\uCOS-III\Source/os_task.c ****     OS_SEM_CTR  ctr;
2772:..\..\..\..\..\..\Software\uCOS-III\Source/os_task.c ****     CPU_SR_ALLOC();
 3468              		.loc 1 2772 0
 3469 0014 0023     		movs	r3, #0
 3470 0016 3B61     		str	r3, [r7, #16]
2773:..\..\..\..\..\..\Software\uCOS-III\Source/os_task.c **** 
ARM GAS  C:\Users\ADMINI~1\AppData\Local\Temp\ccvBRVNC.s 			page 111


2774:..\..\..\..\..\..\Software\uCOS-III\Source/os_task.c **** 
2775:..\..\..\..\..\..\Software\uCOS-III\Source/os_task.c **** #if (OS_CFG_TS_EN == DEF_DISABLED)
2776:..\..\..\..\..\..\Software\uCOS-III\Source/os_task.c ****     (void)ts;                                                   /* Prevent compiler warning for not
2777:..\..\..\..\..\..\Software\uCOS-III\Source/os_task.c **** #endif
2778:..\..\..\..\..\..\Software\uCOS-III\Source/os_task.c **** 
2779:..\..\..\..\..\..\Software\uCOS-III\Source/os_task.c ****     OS_CRITICAL_ENTER();
 3471              		.loc 1 2779 0
 3472 0018 FFF7FEFF 		bl	CPU_SR_Save
 3473 001c 0300     		movs	r3, r0
 3474 001e 3B61     		str	r3, [r7, #16]
 3475 0020 FFF7FEFF 		bl	CPU_IntDisMeasStart
2780:..\..\..\..\..\..\Software\uCOS-III\Source/os_task.c ****     if (p_tcb == DEF_NULL) {                                    /* Post signal to 'self'?          
 3476              		.loc 1 2780 0
 3477 0024 FB68     		ldr	r3, [r7, #12]
 3478 0026 002B     		cmp	r3, #0
 3479 0028 02D1     		bne	.L220
2781:..\..\..\..\..\..\Software\uCOS-III\Source/os_task.c ****         p_tcb = OSTCBCurPtr;
 3480              		.loc 1 2781 0
 3481 002a 414B     		ldr	r3, .L237
 3482 002c 1B68     		ldr	r3, [r3]
 3483 002e FB60     		str	r3, [r7, #12]
 3484              	.L220:
2782:..\..\..\..\..\..\Software\uCOS-III\Source/os_task.c ****     }
2783:..\..\..\..\..\..\Software\uCOS-III\Source/os_task.c **** #if (OS_CFG_TS_EN == DEF_ENABLED)
2784:..\..\..\..\..\..\Software\uCOS-III\Source/os_task.c ****     p_tcb->TS = ts;
 3485              		.loc 1 2784 0
 3486 0030 FB68     		ldr	r3, [r7, #12]
 3487 0032 7A68     		ldr	r2, [r7, #4]
 3488 0034 9A64     		str	r2, [r3, #72]
2785:..\..\..\..\..\..\Software\uCOS-III\Source/os_task.c **** #endif
2786:..\..\..\..\..\..\Software\uCOS-III\Source/os_task.c ****    *p_err     = OS_ERR_NONE;                                    /* Assume we won't have any errors 
 3489              		.loc 1 2786 0
 3490 0036 3B68     		ldr	r3, [r7]
 3491 0038 0022     		movs	r2, #0
 3492 003a 1A80     		strh	r2, [r3]
2787:..\..\..\..\..\..\Software\uCOS-III\Source/os_task.c ****     switch (p_tcb->TaskState) {
 3493              		.loc 1 2787 0
 3494 003c FB68     		ldr	r3, [r7, #12]
 3495 003e 3622     		movs	r2, #54
 3496 0040 9B5C     		ldrb	r3, [r3, r2]
 3497 0042 072B     		cmp	r3, #7
 3498 0044 61D8     		bhi	.L221
 3499 0046 9A00     		lsls	r2, r3, #2
 3500 0048 3A4B     		ldr	r3, .L237+4
 3501 004a D318     		adds	r3, r2, r3
 3502 004c 1B68     		ldr	r3, [r3]
 3503 004e 9F46     		mov	pc, r3
 3504              		.section	.rodata
 3505              		.align	2
 3506              	.L223:
 3507 004c 50000000 		.word	.L222
 3508 0050 50000000 		.word	.L222
 3509 0054 8E000000 		.word	.L224
 3510 0058 8E000000 		.word	.L224
 3511 005c 50000000 		.word	.L222
 3512 0060 50000000 		.word	.L222
 3513 0064 8E000000 		.word	.L224
ARM GAS  C:\Users\ADMINI~1\AppData\Local\Temp\ccvBRVNC.s 			page 112


 3514 0068 8E000000 		.word	.L224
 3515              		.section	.text.OS_TaskSemPost
 3516              	.L222:
2788:..\..\..\..\..\..\Software\uCOS-III\Source/os_task.c ****         case OS_TASK_STATE_RDY:
2789:..\..\..\..\..\..\Software\uCOS-III\Source/os_task.c ****         case OS_TASK_STATE_DLY:
2790:..\..\..\..\..\..\Software\uCOS-III\Source/os_task.c ****         case OS_TASK_STATE_SUSPENDED:
2791:..\..\..\..\..\..\Software\uCOS-III\Source/os_task.c ****         case OS_TASK_STATE_DLY_SUSPENDED:
2792:..\..\..\..\..\..\Software\uCOS-III\Source/os_task.c ****              switch (sizeof(OS_SEM_CTR)) {
2793:..\..\..\..\..\..\Software\uCOS-III\Source/os_task.c ****                  case 1u:
2794:..\..\..\..\..\..\Software\uCOS-III\Source/os_task.c ****                       if (p_tcb->SemCtr == DEF_INT_08U_MAX_VAL) {
2795:..\..\..\..\..\..\Software\uCOS-III\Source/os_task.c ****                           OS_CRITICAL_EXIT();
2796:..\..\..\..\..\..\Software\uCOS-III\Source/os_task.c ****                          *p_err = OS_ERR_SEM_OVF;
2797:..\..\..\..\..\..\Software\uCOS-III\Source/os_task.c ****                           return (0u);
2798:..\..\..\..\..\..\Software\uCOS-III\Source/os_task.c ****                       }
2799:..\..\..\..\..\..\Software\uCOS-III\Source/os_task.c ****                       break;
2800:..\..\..\..\..\..\Software\uCOS-III\Source/os_task.c **** 
2801:..\..\..\..\..\..\Software\uCOS-III\Source/os_task.c ****                  case 2u:
2802:..\..\..\..\..\..\Software\uCOS-III\Source/os_task.c ****                       if (p_tcb->SemCtr == DEF_INT_16U_MAX_VAL) {
2803:..\..\..\..\..\..\Software\uCOS-III\Source/os_task.c ****                           OS_CRITICAL_EXIT();
2804:..\..\..\..\..\..\Software\uCOS-III\Source/os_task.c ****                          *p_err = OS_ERR_SEM_OVF;
2805:..\..\..\..\..\..\Software\uCOS-III\Source/os_task.c ****                           return (0u);
2806:..\..\..\..\..\..\Software\uCOS-III\Source/os_task.c ****                       }
2807:..\..\..\..\..\..\Software\uCOS-III\Source/os_task.c ****                       break;
2808:..\..\..\..\..\..\Software\uCOS-III\Source/os_task.c **** 
2809:..\..\..\..\..\..\Software\uCOS-III\Source/os_task.c ****                  case 4u:
2810:..\..\..\..\..\..\Software\uCOS-III\Source/os_task.c ****                       if (p_tcb->SemCtr == DEF_INT_32U_MAX_VAL) {
 3517              		.loc 1 2810 0
 3518 0050 FB68     		ldr	r3, [r7, #12]
 3519 0052 DB6C     		ldr	r3, [r3, #76]
 3520 0054 0133     		adds	r3, r3, #1
 3521 0056 0AD1     		bne	.L234
2811:..\..\..\..\..\..\Software\uCOS-III\Source/os_task.c ****                           OS_CRITICAL_EXIT();
 3522              		.loc 1 2811 0
 3523 0058 FFF7FEFF 		bl	CPU_IntDisMeasStop
 3524 005c 3B69     		ldr	r3, [r7, #16]
 3525 005e 1800     		movs	r0, r3
 3526 0060 FFF7FEFF 		bl	CPU_SR_Restore
2812:..\..\..\..\..\..\Software\uCOS-III\Source/os_task.c ****                          *p_err = OS_ERR_SEM_OVF;
 3527              		.loc 1 2812 0
 3528 0064 3B68     		ldr	r3, [r7]
 3529 0066 344A     		ldr	r2, .L237+8
 3530 0068 1A80     		strh	r2, [r3]
2813:..\..\..\..\..\..\Software\uCOS-III\Source/os_task.c ****                           return (0u);
 3531              		.loc 1 2813 0
 3532 006a 0023     		movs	r3, #0
 3533 006c 5BE0     		b	.L226
 3534              	.L234:
2814:..\..\..\..\..\..\Software\uCOS-III\Source/os_task.c ****                       }
2815:..\..\..\..\..\..\Software\uCOS-III\Source/os_task.c ****                       break;
 3535              		.loc 1 2815 0
 3536 006e C046     		nop
2816:..\..\..\..\..\..\Software\uCOS-III\Source/os_task.c **** 
2817:..\..\..\..\..\..\Software\uCOS-III\Source/os_task.c ****                  default:
2818:..\..\..\..\..\..\Software\uCOS-III\Source/os_task.c ****                       break;
2819:..\..\..\..\..\..\Software\uCOS-III\Source/os_task.c ****              }
2820:..\..\..\..\..\..\Software\uCOS-III\Source/os_task.c ****              p_tcb->SemCtr++;                                   /* Task signaled is not pending on 
 3537              		.loc 1 2820 0
ARM GAS  C:\Users\ADMINI~1\AppData\Local\Temp\ccvBRVNC.s 			page 113


 3538 0070 FB68     		ldr	r3, [r7, #12]
 3539 0072 DB6C     		ldr	r3, [r3, #76]
 3540 0074 5A1C     		adds	r2, r3, #1
 3541 0076 FB68     		ldr	r3, [r7, #12]
 3542 0078 DA64     		str	r2, [r3, #76]
2821:..\..\..\..\..\..\Software\uCOS-III\Source/os_task.c ****              ctr = p_tcb->SemCtr;
 3543              		.loc 1 2821 0
 3544 007a FB68     		ldr	r3, [r7, #12]
 3545 007c DB6C     		ldr	r3, [r3, #76]
 3546 007e 7B61     		str	r3, [r7, #20]
2822:..\..\..\..\..\..\Software\uCOS-III\Source/os_task.c ****              OS_CRITICAL_EXIT();
 3547              		.loc 1 2822 0
 3548 0080 FFF7FEFF 		bl	CPU_IntDisMeasStop
 3549 0084 3B69     		ldr	r3, [r7, #16]
 3550 0086 1800     		movs	r0, r3
 3551 0088 FFF7FEFF 		bl	CPU_SR_Restore
2823:..\..\..\..\..\..\Software\uCOS-III\Source/os_task.c ****              break;
 3552              		.loc 1 2823 0
 3553 008c 4AE0     		b	.L227
 3554              	.L224:
2824:..\..\..\..\..\..\Software\uCOS-III\Source/os_task.c **** 
2825:..\..\..\..\..\..\Software\uCOS-III\Source/os_task.c ****         case OS_TASK_STATE_PEND:
2826:..\..\..\..\..\..\Software\uCOS-III\Source/os_task.c ****         case OS_TASK_STATE_PEND_TIMEOUT:
2827:..\..\..\..\..\..\Software\uCOS-III\Source/os_task.c ****         case OS_TASK_STATE_PEND_SUSPENDED:
2828:..\..\..\..\..\..\Software\uCOS-III\Source/os_task.c ****         case OS_TASK_STATE_PEND_TIMEOUT_SUSPENDED:
2829:..\..\..\..\..\..\Software\uCOS-III\Source/os_task.c ****              if (p_tcb->PendOn == OS_TASK_PEND_ON_TASK_SEM) {   /* Is task signaled waiting for a s
 3555              		.loc 1 2829 0
 3556 008e FB68     		ldr	r3, [r7, #12]
 3557 0090 3422     		movs	r2, #52
 3558 0092 9B5C     		ldrb	r3, [r3, r2]
 3559 0094 072B     		cmp	r3, #7
 3560 0096 19D1     		bne	.L228
2830:..\..\..\..\..\..\Software\uCOS-III\Source/os_task.c ****                  OS_Post(DEF_NULL,                              /* Task is pending on signal       
 3561              		.loc 1 2830 0
 3562 0098 F968     		ldr	r1, [r7, #12]
 3563 009a 7B68     		ldr	r3, [r7, #4]
 3564 009c 0093     		str	r3, [sp]
 3565 009e 0023     		movs	r3, #0
 3566 00a0 0022     		movs	r2, #0
 3567 00a2 0020     		movs	r0, #0
 3568 00a4 FFF7FEFF 		bl	OS_Post
2831:..\..\..\..\..\..\Software\uCOS-III\Source/os_task.c ****                          p_tcb,
2832:..\..\..\..\..\..\Software\uCOS-III\Source/os_task.c ****                          DEF_NULL,
2833:..\..\..\..\..\..\Software\uCOS-III\Source/os_task.c ****                          0u,
2834:..\..\..\..\..\..\Software\uCOS-III\Source/os_task.c ****                          ts);
2835:..\..\..\..\..\..\Software\uCOS-III\Source/os_task.c ****                  ctr = p_tcb->SemCtr;
 3569              		.loc 1 2835 0
 3570 00a8 FB68     		ldr	r3, [r7, #12]
 3571 00aa DB6C     		ldr	r3, [r3, #76]
 3572 00ac 7B61     		str	r3, [r7, #20]
2836:..\..\..\..\..\..\Software\uCOS-III\Source/os_task.c ****                  OS_CRITICAL_EXIT_NO_SCHED();
 3573              		.loc 1 2836 0
 3574 00ae FFF7FEFF 		bl	CPU_IntDisMeasStop
 3575 00b2 3B69     		ldr	r3, [r7, #16]
 3576 00b4 1800     		movs	r0, r3
 3577 00b6 FFF7FEFF 		bl	CPU_SR_Restore
2837:..\..\..\..\..\..\Software\uCOS-III\Source/os_task.c ****                  if ((opt & OS_OPT_POST_NO_SCHED) == 0u) {
ARM GAS  C:\Users\ADMINI~1\AppData\Local\Temp\ccvBRVNC.s 			page 114


 3578              		.loc 1 2837 0
 3579 00ba 0A23     		movs	r3, #10
 3580 00bc FB18     		adds	r3, r7, r3
 3581 00be 0022     		movs	r2, #0
 3582 00c0 9B5E     		ldrsh	r3, [r3, r2]
 3583 00c2 002B     		cmp	r3, #0
 3584 00c4 2DDB     		blt	.L235
2838:..\..\..\..\..\..\Software\uCOS-III\Source/os_task.c ****                      OSSched();                                 /* Run the scheduler               
 3585              		.loc 1 2838 0
 3586 00c6 FFF7FEFF 		bl	OSSched
2839:..\..\..\..\..\..\Software\uCOS-III\Source/os_task.c ****                  }
2840:..\..\..\..\..\..\Software\uCOS-III\Source/os_task.c ****              } else {
2841:..\..\..\..\..\..\Software\uCOS-III\Source/os_task.c ****                  switch (sizeof(OS_SEM_CTR)) {
2842:..\..\..\..\..\..\Software\uCOS-III\Source/os_task.c ****                      case 1u:
2843:..\..\..\..\..\..\Software\uCOS-III\Source/os_task.c ****                           if (p_tcb->SemCtr == DEF_INT_08U_MAX_VAL) {
2844:..\..\..\..\..\..\Software\uCOS-III\Source/os_task.c ****                               OS_CRITICAL_EXIT();
2845:..\..\..\..\..\..\Software\uCOS-III\Source/os_task.c ****                              *p_err = OS_ERR_SEM_OVF;
2846:..\..\..\..\..\..\Software\uCOS-III\Source/os_task.c ****                               return (0u);
2847:..\..\..\..\..\..\Software\uCOS-III\Source/os_task.c ****                           }
2848:..\..\..\..\..\..\Software\uCOS-III\Source/os_task.c ****                           break;
2849:..\..\..\..\..\..\Software\uCOS-III\Source/os_task.c **** 
2850:..\..\..\..\..\..\Software\uCOS-III\Source/os_task.c ****                      case 2u:
2851:..\..\..\..\..\..\Software\uCOS-III\Source/os_task.c ****                           if (p_tcb->SemCtr == DEF_INT_16U_MAX_VAL) {
2852:..\..\..\..\..\..\Software\uCOS-III\Source/os_task.c ****                               OS_CRITICAL_EXIT();
2853:..\..\..\..\..\..\Software\uCOS-III\Source/os_task.c ****                              *p_err = OS_ERR_SEM_OVF;
2854:..\..\..\..\..\..\Software\uCOS-III\Source/os_task.c ****                               return (0u);
2855:..\..\..\..\..\..\Software\uCOS-III\Source/os_task.c ****                           }
2856:..\..\..\..\..\..\Software\uCOS-III\Source/os_task.c ****                           break;
2857:..\..\..\..\..\..\Software\uCOS-III\Source/os_task.c **** 
2858:..\..\..\..\..\..\Software\uCOS-III\Source/os_task.c ****                      case 4u:
2859:..\..\..\..\..\..\Software\uCOS-III\Source/os_task.c ****                           if (p_tcb->SemCtr == DEF_INT_32U_MAX_VAL) {
2860:..\..\..\..\..\..\Software\uCOS-III\Source/os_task.c ****                               OS_CRITICAL_EXIT();
2861:..\..\..\..\..\..\Software\uCOS-III\Source/os_task.c ****                              *p_err = OS_ERR_SEM_OVF;
2862:..\..\..\..\..\..\Software\uCOS-III\Source/os_task.c ****                               return (0u);
2863:..\..\..\..\..\..\Software\uCOS-III\Source/os_task.c ****                           }
2864:..\..\..\..\..\..\Software\uCOS-III\Source/os_task.c ****                           break;
2865:..\..\..\..\..\..\Software\uCOS-III\Source/os_task.c **** 
2866:..\..\..\..\..\..\Software\uCOS-III\Source/os_task.c ****                      default:
2867:..\..\..\..\..\..\Software\uCOS-III\Source/os_task.c ****                           break;
2868:..\..\..\..\..\..\Software\uCOS-III\Source/os_task.c ****                  }
2869:..\..\..\..\..\..\Software\uCOS-III\Source/os_task.c ****                  p_tcb->SemCtr++;                               /* No,  Task signaled is NOT pendin
2870:..\..\..\..\..\..\Software\uCOS-III\Source/os_task.c ****                  ctr = p_tcb->SemCtr;                           /* ... it must be waiting on someth
2871:..\..\..\..\..\..\Software\uCOS-III\Source/os_task.c ****                  OS_CRITICAL_EXIT();
2872:..\..\..\..\..\..\Software\uCOS-III\Source/os_task.c ****              }
2873:..\..\..\..\..\..\Software\uCOS-III\Source/os_task.c ****              break;
 3587              		.loc 1 2873 0
 3588 00ca 2AE0     		b	.L235
 3589              	.L228:
2859:..\..\..\..\..\..\Software\uCOS-III\Source/os_task.c ****                               OS_CRITICAL_EXIT();
 3590              		.loc 1 2859 0
 3591 00cc FB68     		ldr	r3, [r7, #12]
 3592 00ce DB6C     		ldr	r3, [r3, #76]
 3593 00d0 0133     		adds	r3, r3, #1
 3594 00d2 0AD1     		bne	.L236
2860:..\..\..\..\..\..\Software\uCOS-III\Source/os_task.c ****                              *p_err = OS_ERR_SEM_OVF;
 3595              		.loc 1 2860 0
 3596 00d4 FFF7FEFF 		bl	CPU_IntDisMeasStop
ARM GAS  C:\Users\ADMINI~1\AppData\Local\Temp\ccvBRVNC.s 			page 115


 3597 00d8 3B69     		ldr	r3, [r7, #16]
 3598 00da 1800     		movs	r0, r3
 3599 00dc FFF7FEFF 		bl	CPU_SR_Restore
2861:..\..\..\..\..\..\Software\uCOS-III\Source/os_task.c ****                               return (0u);
 3600              		.loc 1 2861 0
 3601 00e0 3B68     		ldr	r3, [r7]
 3602 00e2 154A     		ldr	r2, .L237+8
 3603 00e4 1A80     		strh	r2, [r3]
2862:..\..\..\..\..\..\Software\uCOS-III\Source/os_task.c ****                           }
 3604              		.loc 1 2862 0
 3605 00e6 0023     		movs	r3, #0
 3606 00e8 1DE0     		b	.L226
 3607              	.L236:
2864:..\..\..\..\..\..\Software\uCOS-III\Source/os_task.c **** 
 3608              		.loc 1 2864 0
 3609 00ea C046     		nop
2869:..\..\..\..\..\..\Software\uCOS-III\Source/os_task.c ****                  ctr = p_tcb->SemCtr;                           /* ... it must be waiting on someth
 3610              		.loc 1 2869 0
 3611 00ec FB68     		ldr	r3, [r7, #12]
 3612 00ee DB6C     		ldr	r3, [r3, #76]
 3613 00f0 5A1C     		adds	r2, r3, #1
 3614 00f2 FB68     		ldr	r3, [r7, #12]
 3615 00f4 DA64     		str	r2, [r3, #76]
2870:..\..\..\..\..\..\Software\uCOS-III\Source/os_task.c ****                  OS_CRITICAL_EXIT();
 3616              		.loc 1 2870 0
 3617 00f6 FB68     		ldr	r3, [r7, #12]
 3618 00f8 DB6C     		ldr	r3, [r3, #76]
 3619 00fa 7B61     		str	r3, [r7, #20]
2871:..\..\..\..\..\..\Software\uCOS-III\Source/os_task.c ****              }
 3620              		.loc 1 2871 0
 3621 00fc FFF7FEFF 		bl	CPU_IntDisMeasStop
 3622 0100 3B69     		ldr	r3, [r7, #16]
 3623 0102 1800     		movs	r0, r3
 3624 0104 FFF7FEFF 		bl	CPU_SR_Restore
 3625              		.loc 1 2873 0
 3626 0108 0BE0     		b	.L235
 3627              	.L221:
2874:..\..\..\..\..\..\Software\uCOS-III\Source/os_task.c **** 
2875:..\..\..\..\..\..\Software\uCOS-III\Source/os_task.c ****         default:
2876:..\..\..\..\..\..\Software\uCOS-III\Source/os_task.c ****              OS_CRITICAL_EXIT();
 3628              		.loc 1 2876 0
 3629 010a FFF7FEFF 		bl	CPU_IntDisMeasStop
 3630 010e 3B69     		ldr	r3, [r7, #16]
 3631 0110 1800     		movs	r0, r3
 3632 0112 FFF7FEFF 		bl	CPU_SR_Restore
2877:..\..\..\..\..\..\Software\uCOS-III\Source/os_task.c ****             *p_err = OS_ERR_STATE_INVALID;
 3633              		.loc 1 2877 0
 3634 0116 3B68     		ldr	r3, [r7]
 3635 0118 084A     		ldr	r2, .L237+12
 3636 011a 1A80     		strh	r2, [r3]
2878:..\..\..\..\..\..\Software\uCOS-III\Source/os_task.c ****              ctr   = 0u;
 3637              		.loc 1 2878 0
 3638 011c 0023     		movs	r3, #0
 3639 011e 7B61     		str	r3, [r7, #20]
2879:..\..\..\..\..\..\Software\uCOS-III\Source/os_task.c ****              break;
 3640              		.loc 1 2879 0
 3641 0120 00E0     		b	.L227
ARM GAS  C:\Users\ADMINI~1\AppData\Local\Temp\ccvBRVNC.s 			page 116


 3642              	.L235:
2873:..\..\..\..\..\..\Software\uCOS-III\Source/os_task.c **** 
 3643              		.loc 1 2873 0
 3644 0122 C046     		nop
 3645              	.L227:
2880:..\..\..\..\..\..\Software\uCOS-III\Source/os_task.c ****     }
2881:..\..\..\..\..\..\Software\uCOS-III\Source/os_task.c ****     return (ctr);
 3646              		.loc 1 2881 0
 3647 0124 7B69     		ldr	r3, [r7, #20]
 3648              	.L226:
2882:..\..\..\..\..\..\Software\uCOS-III\Source/os_task.c **** }
 3649              		.loc 1 2882 0
 3650 0126 1800     		movs	r0, r3
 3651 0128 BD46     		mov	sp, r7
 3652 012a 06B0     		add	sp, sp, #24
 3653              		@ sp needed
 3654 012c 80BD     		pop	{r7, pc}
 3655              	.L238:
 3656 012e C046     		.align	2
 3657              	.L237:
 3658 0130 00000000 		.word	OSTCBCurPtr
 3659 0134 4C000000 		.word	.L223
 3660 0138 C56D0000 		.word	28101
 3661 013c 2D6E0000 		.word	28205
 3662              		.cfi_endproc
 3663              	.LFE22:
 3664              		.size	OS_TaskSemPost, .-OS_TaskSemPost
 3665              		.section	.text.OS_TaskSuspend,"ax",%progbits
 3666              		.align	2
 3667              		.global	OS_TaskSuspend
 3668              		.code	16
 3669              		.thumb_func
 3670              		.type	OS_TaskSuspend, %function
 3671              	OS_TaskSuspend:
 3672              	.LFB23:
2883:..\..\..\..\..\..\Software\uCOS-III\Source/os_task.c **** 
2884:..\..\..\..\..\..\Software\uCOS-III\Source/os_task.c **** 
2885:..\..\..\..\..\..\Software\uCOS-III\Source/os_task.c **** /*
2886:..\..\..\..\..\..\Software\uCOS-III\Source/os_task.c **** ***************************************************************************************************
2887:..\..\..\..\..\..\Software\uCOS-III\Source/os_task.c **** *                                          CHECK THE STACK REDZONE OF A TASK
2888:..\..\..\..\..\..\Software\uCOS-III\Source/os_task.c **** *
2889:..\..\..\..\..\..\Software\uCOS-III\Source/os_task.c **** * Description: Verify a task's stack redzone.
2890:..\..\..\..\..\..\Software\uCOS-III\Source/os_task.c **** *
2891:..\..\..\..\..\..\Software\uCOS-III\Source/os_task.c **** * Arguments  : p_tcb        is a pointer to the base of the stack.
2892:..\..\..\..\..\..\Software\uCOS-III\Source/os_task.c **** *
2893:..\..\..\..\..\..\Software\uCOS-III\Source/os_task.c **** *              stk_size     is the size of the stack.
2894:..\..\..\..\..\..\Software\uCOS-III\Source/os_task.c **** *
2895:..\..\..\..\..\..\Software\uCOS-III\Source/os_task.c **** * Returns    : none
2896:..\..\..\..\..\..\Software\uCOS-III\Source/os_task.c **** *
2897:..\..\..\..\..\..\Software\uCOS-III\Source/os_task.c **** * Caller(s)  : OSTaskStkRedzoneChk() and OSIntExit().
2898:..\..\..\..\..\..\Software\uCOS-III\Source/os_task.c **** *
2899:..\..\..\..\..\..\Software\uCOS-III\Source/os_task.c **** * Note(s)    : 1) This function is INTERNAL to uC/OS-III and your application should not call it.
2900:..\..\..\..\..\..\Software\uCOS-III\Source/os_task.c **** ***************************************************************************************************
2901:..\..\..\..\..\..\Software\uCOS-III\Source/os_task.c **** */
2902:..\..\..\..\..\..\Software\uCOS-III\Source/os_task.c **** 
2903:..\..\..\..\..\..\Software\uCOS-III\Source/os_task.c **** #if (OS_CFG_TASK_STK_REDZONE_EN == DEF_ENABLED)
2904:..\..\..\..\..\..\Software\uCOS-III\Source/os_task.c **** CPU_BOOLEAN   OS_TaskStkRedzoneChk (CPU_STK       *p_base,
ARM GAS  C:\Users\ADMINI~1\AppData\Local\Temp\ccvBRVNC.s 			page 117


2905:..\..\..\..\..\..\Software\uCOS-III\Source/os_task.c ****                                     CPU_STK_SIZE   stk_size)
2906:..\..\..\..\..\..\Software\uCOS-III\Source/os_task.c **** {
2907:..\..\..\..\..\..\Software\uCOS-III\Source/os_task.c ****     CPU_INT32U  i;
2908:..\..\..\..\..\..\Software\uCOS-III\Source/os_task.c **** 
2909:..\..\..\..\..\..\Software\uCOS-III\Source/os_task.c **** 
2910:..\..\..\..\..\..\Software\uCOS-III\Source/os_task.c **** #if (CPU_CFG_STK_GROWTH == CPU_STK_GROWTH_HI_TO_LO)
2911:..\..\..\..\..\..\Software\uCOS-III\Source/os_task.c ****    (void)&stk_size;                                             /* Prevent compiler warning for not
2912:..\..\..\..\..\..\Software\uCOS-III\Source/os_task.c **** 
2913:..\..\..\..\..\..\Software\uCOS-III\Source/os_task.c ****     for (i = 0u; i < OS_CFG_TASK_STK_REDZONE_DEPTH; i++) {
2914:..\..\..\..\..\..\Software\uCOS-III\Source/os_task.c ****         if (*p_base != (CPU_DATA)OS_STACK_CHECK_VAL) {
2915:..\..\..\..\..\..\Software\uCOS-III\Source/os_task.c ****             return (DEF_FAIL);
2916:..\..\..\..\..\..\Software\uCOS-III\Source/os_task.c ****         }
2917:..\..\..\..\..\..\Software\uCOS-III\Source/os_task.c ****         p_base++;
2918:..\..\..\..\..\..\Software\uCOS-III\Source/os_task.c ****     }
2919:..\..\..\..\..\..\Software\uCOS-III\Source/os_task.c **** #else
2920:..\..\..\..\..\..\Software\uCOS-III\Source/os_task.c ****     p_base = p_base + stk_size - 1u;
2921:..\..\..\..\..\..\Software\uCOS-III\Source/os_task.c ****     for (i = 0u; i < OS_CFG_TASK_STK_REDZONE_DEPTH; i++) {
2922:..\..\..\..\..\..\Software\uCOS-III\Source/os_task.c ****         if (*p_base != (CPU_DATA)OS_STACK_CHECK_VAL) {
2923:..\..\..\..\..\..\Software\uCOS-III\Source/os_task.c ****             return (DEF_FAIL);
2924:..\..\..\..\..\..\Software\uCOS-III\Source/os_task.c ****         }
2925:..\..\..\..\..\..\Software\uCOS-III\Source/os_task.c ****         p_base--;
2926:..\..\..\..\..\..\Software\uCOS-III\Source/os_task.c ****     }
2927:..\..\..\..\..\..\Software\uCOS-III\Source/os_task.c **** #endif
2928:..\..\..\..\..\..\Software\uCOS-III\Source/os_task.c **** 
2929:..\..\..\..\..\..\Software\uCOS-III\Source/os_task.c ****     return (DEF_OK);
2930:..\..\..\..\..\..\Software\uCOS-III\Source/os_task.c **** }
2931:..\..\..\..\..\..\Software\uCOS-III\Source/os_task.c **** #endif
2932:..\..\..\..\..\..\Software\uCOS-III\Source/os_task.c **** 
2933:..\..\..\..\..\..\Software\uCOS-III\Source/os_task.c **** 
2934:..\..\..\..\..\..\Software\uCOS-III\Source/os_task.c **** /*
2935:..\..\..\..\..\..\Software\uCOS-III\Source/os_task.c **** ***************************************************************************************************
2936:..\..\..\..\..\..\Software\uCOS-III\Source/os_task.c **** *                                          INITIALIZE A REDZONE ENABLED STACK
2937:..\..\..\..\..\..\Software\uCOS-III\Source/os_task.c **** *
2938:..\..\..\..\..\..\Software\uCOS-III\Source/os_task.c **** * Description: This functions is used to initialize a stack with Redzone checking.
2939:..\..\..\..\..\..\Software\uCOS-III\Source/os_task.c **** *
2940:..\..\..\..\..\..\Software\uCOS-III\Source/os_task.c **** * Arguments  : p_tcb        is a pointer to the base of the stack.
2941:..\..\..\..\..\..\Software\uCOS-III\Source/os_task.c **** *
2942:..\..\..\..\..\..\Software\uCOS-III\Source/os_task.c **** *              stk_size     is the size of the stack.
2943:..\..\..\..\..\..\Software\uCOS-III\Source/os_task.c **** *
2944:..\..\..\..\..\..\Software\uCOS-III\Source/os_task.c **** * Returns    : If the stack is corrupted (DEF_FAIL) or not (DEF_OK).
2945:..\..\..\..\..\..\Software\uCOS-III\Source/os_task.c **** *
2946:..\..\..\..\..\..\Software\uCOS-III\Source/os_task.c **** * Caller(s)  : OSTaskCreate() and OSInit().
2947:..\..\..\..\..\..\Software\uCOS-III\Source/os_task.c **** *
2948:..\..\..\..\..\..\Software\uCOS-III\Source/os_task.c **** * Note(s)    : 1) This function is INTERNAL to uC/OS-III and your application should not call it.
2949:..\..\..\..\..\..\Software\uCOS-III\Source/os_task.c **** ***************************************************************************************************
2950:..\..\..\..\..\..\Software\uCOS-III\Source/os_task.c **** */
2951:..\..\..\..\..\..\Software\uCOS-III\Source/os_task.c **** 
2952:..\..\..\..\..\..\Software\uCOS-III\Source/os_task.c **** #if (OS_CFG_TASK_STK_REDZONE_EN == DEF_ENABLED)
2953:..\..\..\..\..\..\Software\uCOS-III\Source/os_task.c **** void  OS_TaskStkRedzoneInit (CPU_STK       *p_base,
2954:..\..\..\..\..\..\Software\uCOS-III\Source/os_task.c ****                              CPU_STK_SIZE   stk_size)
2955:..\..\..\..\..\..\Software\uCOS-III\Source/os_task.c **** {
2956:..\..\..\..\..\..\Software\uCOS-III\Source/os_task.c ****     CPU_STK_SIZE   i;
2957:..\..\..\..\..\..\Software\uCOS-III\Source/os_task.c **** 
2958:..\..\..\..\..\..\Software\uCOS-III\Source/os_task.c **** 
2959:..\..\..\..\..\..\Software\uCOS-III\Source/os_task.c **** #if (CPU_CFG_STK_GROWTH == CPU_STK_GROWTH_HI_TO_LO)
2960:..\..\..\..\..\..\Software\uCOS-III\Source/os_task.c ****    (void)&stk_size;                                             /* Prevent compiler warning for not
2961:..\..\..\..\..\..\Software\uCOS-III\Source/os_task.c **** 
ARM GAS  C:\Users\ADMINI~1\AppData\Local\Temp\ccvBRVNC.s 			page 118


2962:..\..\..\..\..\..\Software\uCOS-III\Source/os_task.c ****     for (i = 0u; i < OS_CFG_TASK_STK_REDZONE_DEPTH; i++) {
2963:..\..\..\..\..\..\Software\uCOS-III\Source/os_task.c ****         *(p_base + i) = (CPU_DATA)OS_STACK_CHECK_VAL;
2964:..\..\..\..\..\..\Software\uCOS-III\Source/os_task.c ****     }
2965:..\..\..\..\..\..\Software\uCOS-III\Source/os_task.c **** #else
2966:..\..\..\..\..\..\Software\uCOS-III\Source/os_task.c ****     for (i = 0u; i < OS_CFG_TASK_STK_REDZONE_DEPTH; i++) {
2967:..\..\..\..\..\..\Software\uCOS-III\Source/os_task.c ****         *(p_base + stk_size - 1u - i) = (CPU_DATA)OS_STACK_CHECK_VAL;
2968:..\..\..\..\..\..\Software\uCOS-III\Source/os_task.c ****     }
2969:..\..\..\..\..\..\Software\uCOS-III\Source/os_task.c **** #endif
2970:..\..\..\..\..\..\Software\uCOS-III\Source/os_task.c **** }
2971:..\..\..\..\..\..\Software\uCOS-III\Source/os_task.c **** #endif
2972:..\..\..\..\..\..\Software\uCOS-III\Source/os_task.c **** 
2973:..\..\..\..\..\..\Software\uCOS-III\Source/os_task.c **** 
2974:..\..\..\..\..\..\Software\uCOS-III\Source/os_task.c **** /*
2975:..\..\..\..\..\..\Software\uCOS-III\Source/os_task.c **** ***************************************************************************************************
2976:..\..\..\..\..\..\Software\uCOS-III\Source/os_task.c **** *                                                   SUSPEND A TASK
2977:..\..\..\..\..\..\Software\uCOS-III\Source/os_task.c **** *
2978:..\..\..\..\..\..\Software\uCOS-III\Source/os_task.c **** * Description: This function is called to suspend a task.  The task can be the calling task if 'p_t
2979:..\..\..\..\..\..\Software\uCOS-III\Source/os_task.c **** *              or the pointer to the TCB of the calling task.
2980:..\..\..\..\..\..\Software\uCOS-III\Source/os_task.c **** *
2981:..\..\..\..\..\..\Software\uCOS-III\Source/os_task.c **** * Arguments  : p_tcb    is a pointer to the TCB to suspend.
2982:..\..\..\..\..\..\Software\uCOS-III\Source/os_task.c **** *                       If p_tcb is a NULL pointer then, suspend the current task.
2983:..\..\..\..\..\..\Software\uCOS-III\Source/os_task.c **** *
2984:..\..\..\..\..\..\Software\uCOS-III\Source/os_task.c **** *              p_err    is a pointer to a variable that will receive an error code from this functi
2985:..\..\..\..\..\..\Software\uCOS-III\Source/os_task.c **** *
2986:..\..\..\..\..\..\Software\uCOS-III\Source/os_task.c **** *                           OS_ERR_NONE                        If the requested task is suspended
2987:..\..\..\..\..\..\Software\uCOS-III\Source/os_task.c **** *                           OS_ERR_OS_NOT_RUNNING              If uC/OS-III is not running yet
2988:..\..\..\..\..\..\Software\uCOS-III\Source/os_task.c **** *                           OS_ERR_SCHED_LOCKED                You can't suspend the current task i
2989:..\..\..\..\..\..\Software\uCOS-III\Source/os_task.c **** *                                                                locked
2990:..\..\..\..\..\..\Software\uCOS-III\Source/os_task.c **** *                           OS_ERR_STATE_INVALID               If the task is in an invalid state
2991:..\..\..\..\..\..\Software\uCOS-III\Source/os_task.c **** *                           OS_ERR_TASK_SUSPEND_CTR_OVF        If the nesting counter overflowed.
2992:..\..\..\..\..\..\Software\uCOS-III\Source/os_task.c **** *
2993:..\..\..\..\..\..\Software\uCOS-III\Source/os_task.c **** * Returns    : none
2994:..\..\..\..\..\..\Software\uCOS-III\Source/os_task.c **** *
2995:..\..\..\..\..\..\Software\uCOS-III\Source/os_task.c **** * Note(s)    : 1) This function is INTERNAL to uC/OS-III and your application should not call it.
2996:..\..\..\..\..\..\Software\uCOS-III\Source/os_task.c **** *
2997:..\..\..\..\..\..\Software\uCOS-III\Source/os_task.c **** *              2) You should use this function with great care.  If you suspend a task that is wait
2998:..\..\..\..\..\..\Software\uCOS-III\Source/os_task.c **** *                 (i.e. a message, a semaphore, a queue ...) you will prevent this task from runnin
2999:..\..\..\..\..\..\Software\uCOS-III\Source/os_task.c **** *                 arrives.
3000:..\..\..\..\..\..\Software\uCOS-III\Source/os_task.c **** ***************************************************************************************************
3001:..\..\..\..\..\..\Software\uCOS-III\Source/os_task.c **** */
3002:..\..\..\..\..\..\Software\uCOS-III\Source/os_task.c **** 
3003:..\..\..\..\..\..\Software\uCOS-III\Source/os_task.c **** #if (OS_CFG_TASK_SUSPEND_EN == DEF_ENABLED)
3004:..\..\..\..\..\..\Software\uCOS-III\Source/os_task.c **** void  OS_TaskSuspend (OS_TCB  *p_tcb,
3005:..\..\..\..\..\..\Software\uCOS-III\Source/os_task.c ****                       OS_ERR  *p_err)
3006:..\..\..\..\..\..\Software\uCOS-III\Source/os_task.c **** {
 3673              		.loc 1 3006 0
 3674              		.cfi_startproc
 3675              		@ args = 0, pretend = 0, frame = 16
 3676              		@ frame_needed = 1, uses_anonymous_args = 0
 3677 0000 80B5     		push	{r7, lr}
 3678              		.cfi_def_cfa_offset 8
 3679              		.cfi_offset 7, -8
 3680              		.cfi_offset 14, -4
 3681 0002 84B0     		sub	sp, sp, #16
 3682              		.cfi_def_cfa_offset 24
 3683 0004 00AF     		add	r7, sp, #0
 3684              		.cfi_def_cfa_register 7
ARM GAS  C:\Users\ADMINI~1\AppData\Local\Temp\ccvBRVNC.s 			page 119


 3685 0006 7860     		str	r0, [r7, #4]
 3686 0008 3960     		str	r1, [r7]
3007:..\..\..\..\..\..\Software\uCOS-III\Source/os_task.c ****     CPU_SR_ALLOC();
 3687              		.loc 1 3007 0
 3688 000a 0023     		movs	r3, #0
 3689 000c FB60     		str	r3, [r7, #12]
3008:..\..\..\..\..\..\Software\uCOS-III\Source/os_task.c **** 
3009:..\..\..\..\..\..\Software\uCOS-III\Source/os_task.c **** 
3010:..\..\..\..\..\..\Software\uCOS-III\Source/os_task.c ****     CPU_CRITICAL_ENTER();
 3690              		.loc 1 3010 0
 3691 000e FFF7FEFF 		bl	CPU_SR_Save
 3692 0012 0300     		movs	r3, r0
 3693 0014 FB60     		str	r3, [r7, #12]
 3694 0016 FFF7FEFF 		bl	CPU_IntDisMeasStart
3011:..\..\..\..\..\..\Software\uCOS-III\Source/os_task.c ****     if (p_tcb == DEF_NULL) {                                    /* See if specified to suspend self
 3695              		.loc 1 3011 0
 3696 001a 7B68     		ldr	r3, [r7, #4]
 3697 001c 002B     		cmp	r3, #0
 3698 001e 10D1     		bne	.L240
3012:..\..\..\..\..\..\Software\uCOS-III\Source/os_task.c ****         if (OSRunning != OS_STATE_OS_RUNNING) {                 /* Can't suspend self when the kern
 3699              		.loc 1 3012 0
 3700 0020 504B     		ldr	r3, .L253
 3701 0022 1B78     		ldrb	r3, [r3]
 3702 0024 012B     		cmp	r3, #1
 3703 0026 09D0     		beq	.L241
3013:..\..\..\..\..\..\Software\uCOS-III\Source/os_task.c ****             CPU_CRITICAL_EXIT();
 3704              		.loc 1 3013 0
 3705 0028 FFF7FEFF 		bl	CPU_IntDisMeasStop
 3706 002c FB68     		ldr	r3, [r7, #12]
 3707 002e 1800     		movs	r0, r3
 3708 0030 FFF7FEFF 		bl	CPU_SR_Restore
3014:..\..\..\..\..\..\Software\uCOS-III\Source/os_task.c ****            *p_err = OS_ERR_OS_NOT_RUNNING;
 3709              		.loc 1 3014 0
 3710 0034 3B68     		ldr	r3, [r7]
 3711 0036 4C4A     		ldr	r2, .L253+4
 3712 0038 1A80     		strh	r2, [r3]
3015:..\..\..\..\..\..\Software\uCOS-III\Source/os_task.c ****             return;
 3713              		.loc 1 3015 0
 3714 003a 90E0     		b	.L239
 3715              	.L241:
3016:..\..\..\..\..\..\Software\uCOS-III\Source/os_task.c ****         }
3017:..\..\..\..\..\..\Software\uCOS-III\Source/os_task.c ****         p_tcb = OSTCBCurPtr;
 3716              		.loc 1 3017 0
 3717 003c 4B4B     		ldr	r3, .L253+8
 3718 003e 1B68     		ldr	r3, [r3]
 3719 0040 7B60     		str	r3, [r7, #4]
 3720              	.L240:
3018:..\..\..\..\..\..\Software\uCOS-III\Source/os_task.c ****     }
3019:..\..\..\..\..\..\Software\uCOS-III\Source/os_task.c **** 
3020:..\..\..\..\..\..\Software\uCOS-III\Source/os_task.c ****     if (p_tcb == OSTCBCurPtr) {
 3721              		.loc 1 3020 0
 3722 0042 4A4B     		ldr	r3, .L253+8
 3723 0044 1B68     		ldr	r3, [r3]
 3724 0046 7A68     		ldr	r2, [r7, #4]
 3725 0048 9A42     		cmp	r2, r3
 3726 004a 0DD1     		bne	.L243
3021:..\..\..\..\..\..\Software\uCOS-III\Source/os_task.c ****         if (OSSchedLockNestingCtr > 0u) {                       /* Can't suspend when the scheduler
ARM GAS  C:\Users\ADMINI~1\AppData\Local\Temp\ccvBRVNC.s 			page 120


 3727              		.loc 1 3021 0
 3728 004c 484B     		ldr	r3, .L253+12
 3729 004e 1B78     		ldrb	r3, [r3]
 3730 0050 002B     		cmp	r3, #0
 3731 0052 09D0     		beq	.L243
3022:..\..\..\..\..\..\Software\uCOS-III\Source/os_task.c ****             CPU_CRITICAL_EXIT();
 3732              		.loc 1 3022 0
 3733 0054 FFF7FEFF 		bl	CPU_IntDisMeasStop
 3734 0058 FB68     		ldr	r3, [r7, #12]
 3735 005a 1800     		movs	r0, r3
 3736 005c FFF7FEFF 		bl	CPU_SR_Restore
3023:..\..\..\..\..\..\Software\uCOS-III\Source/os_task.c ****            *p_err = OS_ERR_SCHED_LOCKED;
 3737              		.loc 1 3023 0
 3738 0060 3B68     		ldr	r3, [r7]
 3739 0062 444A     		ldr	r2, .L253+16
 3740 0064 1A80     		strh	r2, [r3]
3024:..\..\..\..\..\..\Software\uCOS-III\Source/os_task.c ****             return;
 3741              		.loc 1 3024 0
 3742 0066 7AE0     		b	.L239
 3743              	.L243:
3025:..\..\..\..\..\..\Software\uCOS-III\Source/os_task.c ****         }
3026:..\..\..\..\..\..\Software\uCOS-III\Source/os_task.c ****     }
3027:..\..\..\..\..\..\Software\uCOS-III\Source/os_task.c **** 
3028:..\..\..\..\..\..\Software\uCOS-III\Source/os_task.c ****    *p_err = OS_ERR_NONE;
 3744              		.loc 1 3028 0
 3745 0068 3B68     		ldr	r3, [r7]
 3746 006a 0022     		movs	r2, #0
 3747 006c 1A80     		strh	r2, [r3]
3029:..\..\..\..\..\..\Software\uCOS-III\Source/os_task.c ****     switch (p_tcb->TaskState) {
 3748              		.loc 1 3029 0
 3749 006e 7B68     		ldr	r3, [r7, #4]
 3750 0070 3622     		movs	r2, #54
 3751 0072 9B5C     		ldrb	r3, [r3, r2]
 3752 0074 072B     		cmp	r3, #7
 3753 0076 62D8     		bhi	.L244
 3754 0078 9A00     		lsls	r2, r3, #2
 3755 007a 3F4B     		ldr	r3, .L253+20
 3756 007c D318     		adds	r3, r2, r3
 3757 007e 1B68     		ldr	r3, [r3]
 3758 0080 9F46     		mov	pc, r3
 3759              		.section	.rodata
 3760              		.align	2
 3761              	.L246:
 3762 006c 82000000 		.word	.L245
 3763 0070 A8000000 		.word	.L247
 3764 0074 C6000000 		.word	.L248
 3765 0078 E4000000 		.word	.L249
 3766 007c 02010000 		.word	.L250
 3767 0080 02010000 		.word	.L250
 3768 0084 02010000 		.word	.L250
 3769 0088 02010000 		.word	.L250
 3770              		.section	.text.OS_TaskSuspend
 3771              	.L245:
3030:..\..\..\..\..\..\Software\uCOS-III\Source/os_task.c ****         case OS_TASK_STATE_RDY:
3031:..\..\..\..\..\..\Software\uCOS-III\Source/os_task.c ****              OS_CRITICAL_ENTER_CPU_EXIT();
3032:..\..\..\..\..\..\Software\uCOS-III\Source/os_task.c ****              p_tcb->TaskState  =  OS_TASK_STATE_SUSPENDED;
 3772              		.loc 1 3032 0
ARM GAS  C:\Users\ADMINI~1\AppData\Local\Temp\ccvBRVNC.s 			page 121


 3773 0082 7B68     		ldr	r3, [r7, #4]
 3774 0084 3622     		movs	r2, #54
 3775 0086 0421     		movs	r1, #4
 3776 0088 9954     		strb	r1, [r3, r2]
3033:..\..\..\..\..\..\Software\uCOS-III\Source/os_task.c ****              p_tcb->SuspendCtr = 1u;
 3777              		.loc 1 3033 0
 3778 008a 7B68     		ldr	r3, [r7, #4]
 3779 008c 8622     		movs	r2, #134
 3780 008e 0121     		movs	r1, #1
 3781 0090 9954     		strb	r1, [r3, r2]
3034:..\..\..\..\..\..\Software\uCOS-III\Source/os_task.c ****              OS_RdyListRemove(p_tcb);
 3782              		.loc 1 3034 0
 3783 0092 7B68     		ldr	r3, [r7, #4]
 3784 0094 1800     		movs	r0, r3
 3785 0096 FFF7FEFF 		bl	OS_RdyListRemove
3035:..\..\..\..\..\..\Software\uCOS-III\Source/os_task.c ****              OS_CRITICAL_EXIT_NO_SCHED();
 3786              		.loc 1 3035 0
 3787 009a FFF7FEFF 		bl	CPU_IntDisMeasStop
 3788 009e FB68     		ldr	r3, [r7, #12]
 3789 00a0 1800     		movs	r0, r3
 3790 00a2 FFF7FEFF 		bl	CPU_SR_Restore
3036:..\..\..\..\..\..\Software\uCOS-III\Source/os_task.c ****              break;
 3791              		.loc 1 3036 0
 3792 00a6 54E0     		b	.L251
 3793              	.L247:
3037:..\..\..\..\..\..\Software\uCOS-III\Source/os_task.c **** 
3038:..\..\..\..\..\..\Software\uCOS-III\Source/os_task.c ****         case OS_TASK_STATE_DLY:
3039:..\..\..\..\..\..\Software\uCOS-III\Source/os_task.c ****              p_tcb->TaskState  = OS_TASK_STATE_DLY_SUSPENDED;
 3794              		.loc 1 3039 0
 3795 00a8 7B68     		ldr	r3, [r7, #4]
 3796 00aa 3622     		movs	r2, #54
 3797 00ac 0521     		movs	r1, #5
 3798 00ae 9954     		strb	r1, [r3, r2]
3040:..\..\..\..\..\..\Software\uCOS-III\Source/os_task.c ****              p_tcb->SuspendCtr = 1u;
 3799              		.loc 1 3040 0
 3800 00b0 7B68     		ldr	r3, [r7, #4]
 3801 00b2 8622     		movs	r2, #134
 3802 00b4 0121     		movs	r1, #1
 3803 00b6 9954     		strb	r1, [r3, r2]
3041:..\..\..\..\..\..\Software\uCOS-III\Source/os_task.c ****              CPU_CRITICAL_EXIT();
 3804              		.loc 1 3041 0
 3805 00b8 FFF7FEFF 		bl	CPU_IntDisMeasStop
 3806 00bc FB68     		ldr	r3, [r7, #12]
 3807 00be 1800     		movs	r0, r3
 3808 00c0 FFF7FEFF 		bl	CPU_SR_Restore
3042:..\..\..\..\..\..\Software\uCOS-III\Source/os_task.c ****              break;
 3809              		.loc 1 3042 0
 3810 00c4 45E0     		b	.L251
 3811              	.L248:
3043:..\..\..\..\..\..\Software\uCOS-III\Source/os_task.c **** 
3044:..\..\..\..\..\..\Software\uCOS-III\Source/os_task.c ****         case OS_TASK_STATE_PEND:
3045:..\..\..\..\..\..\Software\uCOS-III\Source/os_task.c ****              p_tcb->TaskState  = OS_TASK_STATE_PEND_SUSPENDED;
 3812              		.loc 1 3045 0
 3813 00c6 7B68     		ldr	r3, [r7, #4]
 3814 00c8 3622     		movs	r2, #54
 3815 00ca 0621     		movs	r1, #6
 3816 00cc 9954     		strb	r1, [r3, r2]
ARM GAS  C:\Users\ADMINI~1\AppData\Local\Temp\ccvBRVNC.s 			page 122


3046:..\..\..\..\..\..\Software\uCOS-III\Source/os_task.c ****              p_tcb->SuspendCtr = 1u;
 3817              		.loc 1 3046 0
 3818 00ce 7B68     		ldr	r3, [r7, #4]
 3819 00d0 8622     		movs	r2, #134
 3820 00d2 0121     		movs	r1, #1
 3821 00d4 9954     		strb	r1, [r3, r2]
3047:..\..\..\..\..\..\Software\uCOS-III\Source/os_task.c ****              CPU_CRITICAL_EXIT();
 3822              		.loc 1 3047 0
 3823 00d6 FFF7FEFF 		bl	CPU_IntDisMeasStop
 3824 00da FB68     		ldr	r3, [r7, #12]
 3825 00dc 1800     		movs	r0, r3
 3826 00de FFF7FEFF 		bl	CPU_SR_Restore
3048:..\..\..\..\..\..\Software\uCOS-III\Source/os_task.c ****              break;
 3827              		.loc 1 3048 0
 3828 00e2 36E0     		b	.L251
 3829              	.L249:
3049:..\..\..\..\..\..\Software\uCOS-III\Source/os_task.c **** 
3050:..\..\..\..\..\..\Software\uCOS-III\Source/os_task.c ****         case OS_TASK_STATE_PEND_TIMEOUT:
3051:..\..\..\..\..\..\Software\uCOS-III\Source/os_task.c ****              p_tcb->TaskState  = OS_TASK_STATE_PEND_TIMEOUT_SUSPENDED;
 3830              		.loc 1 3051 0
 3831 00e4 7B68     		ldr	r3, [r7, #4]
 3832 00e6 3622     		movs	r2, #54
 3833 00e8 0721     		movs	r1, #7
 3834 00ea 9954     		strb	r1, [r3, r2]
3052:..\..\..\..\..\..\Software\uCOS-III\Source/os_task.c ****              p_tcb->SuspendCtr = 1u;
 3835              		.loc 1 3052 0
 3836 00ec 7B68     		ldr	r3, [r7, #4]
 3837 00ee 8622     		movs	r2, #134
 3838 00f0 0121     		movs	r1, #1
 3839 00f2 9954     		strb	r1, [r3, r2]
3053:..\..\..\..\..\..\Software\uCOS-III\Source/os_task.c ****              CPU_CRITICAL_EXIT();
 3840              		.loc 1 3053 0
 3841 00f4 FFF7FEFF 		bl	CPU_IntDisMeasStop
 3842 00f8 FB68     		ldr	r3, [r7, #12]
 3843 00fa 1800     		movs	r0, r3
 3844 00fc FFF7FEFF 		bl	CPU_SR_Restore
3054:..\..\..\..\..\..\Software\uCOS-III\Source/os_task.c ****              break;
 3845              		.loc 1 3054 0
 3846 0100 27E0     		b	.L251
 3847              	.L250:
3055:..\..\..\..\..\..\Software\uCOS-III\Source/os_task.c **** 
3056:..\..\..\..\..\..\Software\uCOS-III\Source/os_task.c ****         case OS_TASK_STATE_SUSPENDED:
3057:..\..\..\..\..\..\Software\uCOS-III\Source/os_task.c ****         case OS_TASK_STATE_DLY_SUSPENDED:
3058:..\..\..\..\..\..\Software\uCOS-III\Source/os_task.c ****         case OS_TASK_STATE_PEND_SUSPENDED:
3059:..\..\..\..\..\..\Software\uCOS-III\Source/os_task.c ****         case OS_TASK_STATE_PEND_TIMEOUT_SUSPENDED:
3060:..\..\..\..\..\..\Software\uCOS-III\Source/os_task.c **** 			if (p_tcb->SuspendCtr == (OS_NESTING_CTR)-1) {
 3848              		.loc 1 3060 0
 3849 0102 7B68     		ldr	r3, [r7, #4]
 3850 0104 8622     		movs	r2, #134
 3851 0106 9B5C     		ldrb	r3, [r3, r2]
 3852 0108 FF2B     		cmp	r3, #255
 3853 010a 09D1     		bne	.L252
3061:..\..\..\..\..\..\Software\uCOS-III\Source/os_task.c ****                  CPU_CRITICAL_EXIT();
 3854              		.loc 1 3061 0
 3855 010c FFF7FEFF 		bl	CPU_IntDisMeasStop
 3856 0110 FB68     		ldr	r3, [r7, #12]
 3857 0112 1800     		movs	r0, r3
ARM GAS  C:\Users\ADMINI~1\AppData\Local\Temp\ccvBRVNC.s 			page 123


 3858 0114 FFF7FEFF 		bl	CPU_SR_Restore
3062:..\..\..\..\..\..\Software\uCOS-III\Source/os_task.c ****                 *p_err = OS_ERR_TASK_SUSPEND_CTR_OVF;
 3859              		.loc 1 3062 0
 3860 0118 3B68     		ldr	r3, [r7]
 3861 011a 184A     		ldr	r2, .L253+24
 3862 011c 1A80     		strh	r2, [r3]
3063:..\..\..\..\..\..\Software\uCOS-III\Source/os_task.c ****                  return;
 3863              		.loc 1 3063 0
 3864 011e 1EE0     		b	.L239
 3865              	.L252:
3064:..\..\..\..\..\..\Software\uCOS-III\Source/os_task.c ****              }
3065:..\..\..\..\..\..\Software\uCOS-III\Source/os_task.c ****              p_tcb->SuspendCtr++;
 3866              		.loc 1 3065 0
 3867 0120 7B68     		ldr	r3, [r7, #4]
 3868 0122 8622     		movs	r2, #134
 3869 0124 9B5C     		ldrb	r3, [r3, r2]
 3870 0126 0133     		adds	r3, r3, #1
 3871 0128 D9B2     		uxtb	r1, r3
 3872 012a 7B68     		ldr	r3, [r7, #4]
 3873 012c 8622     		movs	r2, #134
 3874 012e 9954     		strb	r1, [r3, r2]
3066:..\..\..\..\..\..\Software\uCOS-III\Source/os_task.c ****              CPU_CRITICAL_EXIT();
 3875              		.loc 1 3066 0
 3876 0130 FFF7FEFF 		bl	CPU_IntDisMeasStop
 3877 0134 FB68     		ldr	r3, [r7, #12]
 3878 0136 1800     		movs	r0, r3
 3879 0138 FFF7FEFF 		bl	CPU_SR_Restore
3067:..\..\..\..\..\..\Software\uCOS-III\Source/os_task.c ****              break;
 3880              		.loc 1 3067 0
 3881 013c 09E0     		b	.L251
 3882              	.L244:
3068:..\..\..\..\..\..\Software\uCOS-III\Source/os_task.c **** 
3069:..\..\..\..\..\..\Software\uCOS-III\Source/os_task.c ****         default:
3070:..\..\..\..\..\..\Software\uCOS-III\Source/os_task.c ****              CPU_CRITICAL_EXIT();
 3883              		.loc 1 3070 0
 3884 013e FFF7FEFF 		bl	CPU_IntDisMeasStop
 3885 0142 FB68     		ldr	r3, [r7, #12]
 3886 0144 1800     		movs	r0, r3
 3887 0146 FFF7FEFF 		bl	CPU_SR_Restore
3071:..\..\..\..\..\..\Software\uCOS-III\Source/os_task.c ****             *p_err = OS_ERR_STATE_INVALID;
 3888              		.loc 1 3071 0
 3889 014a 3B68     		ldr	r3, [r7]
 3890 014c 0C4A     		ldr	r2, .L253+28
 3891 014e 1A80     		strh	r2, [r3]
3072:..\..\..\..\..\..\Software\uCOS-III\Source/os_task.c ****              return;
 3892              		.loc 1 3072 0
 3893 0150 05E0     		b	.L239
 3894              	.L251:
3073:..\..\..\..\..\..\Software\uCOS-III\Source/os_task.c ****     }
3074:..\..\..\..\..\..\Software\uCOS-III\Source/os_task.c **** 
3075:..\..\..\..\..\..\Software\uCOS-III\Source/os_task.c ****     if (OSRunning == OS_STATE_OS_RUNNING) {                     /* Only schedule when the kernel is
 3895              		.loc 1 3075 0
 3896 0152 044B     		ldr	r3, .L253
 3897 0154 1B78     		ldrb	r3, [r3]
 3898 0156 012B     		cmp	r3, #1
 3899 0158 01D1     		bne	.L239
3076:..\..\..\..\..\..\Software\uCOS-III\Source/os_task.c ****         OSSched();
ARM GAS  C:\Users\ADMINI~1\AppData\Local\Temp\ccvBRVNC.s 			page 124


 3900              		.loc 1 3076 0
 3901 015a FFF7FEFF 		bl	OSSched
 3902              	.L239:
3077:..\..\..\..\..\..\Software\uCOS-III\Source/os_task.c ****     }
3078:..\..\..\..\..\..\Software\uCOS-III\Source/os_task.c **** }
 3903              		.loc 1 3078 0
 3904 015e BD46     		mov	sp, r7
 3905 0160 04B0     		add	sp, sp, #16
 3906              		@ sp needed
 3907 0162 80BD     		pop	{r7, pc}
 3908              	.L254:
 3909              		.align	2
 3910              	.L253:
 3911 0164 00000000 		.word	OSRunning
 3912 0168 895E0000 		.word	24201
 3913 016c 00000000 		.word	OSTCBCurPtr
 3914 0170 00000000 		.word	OSSchedLockNestingCtr
 3915 0174 636D0000 		.word	28003
 3916 0178 6C000000 		.word	.L246
 3917 017c 60710000 		.word	29024
 3918 0180 2D6E0000 		.word	28205
 3919              		.cfi_endproc
 3920              	.LFE23:
 3921              		.size	OS_TaskSuspend, .-OS_TaskSuspend
 3922              		.section	.text.OS_TaskChangePrio,"ax",%progbits
 3923              		.align	2
 3924              		.global	OS_TaskChangePrio
 3925              		.code	16
 3926              		.thumb_func
 3927              		.type	OS_TaskChangePrio, %function
 3928              	OS_TaskChangePrio:
 3929              	.LFB24:
3079:..\..\..\..\..\..\Software\uCOS-III\Source/os_task.c **** #endif
3080:..\..\..\..\..\..\Software\uCOS-III\Source/os_task.c **** 
3081:..\..\..\..\..\..\Software\uCOS-III\Source/os_task.c **** 
3082:..\..\..\..\..\..\Software\uCOS-III\Source/os_task.c **** /*
3083:..\..\..\..\..\..\Software\uCOS-III\Source/os_task.c **** ***************************************************************************************************
3084:..\..\..\..\..\..\Software\uCOS-III\Source/os_task.c **** *                                               CHANGE PRIORITY OF A TASK
3085:..\..\..\..\..\..\Software\uCOS-III\Source/os_task.c **** *
3086:..\..\..\..\..\..\Software\uCOS-III\Source/os_task.c **** * Description: This function is called by the kernel to perform the actual operation of changing a 
3087:..\..\..\..\..\..\Software\uCOS-III\Source/os_task.c **** *              Priority inheritance is updated if necessary.
3088:..\..\..\..\..\..\Software\uCOS-III\Source/os_task.c **** *
3089:..\..\..\..\..\..\Software\uCOS-III\Source/os_task.c **** *
3090:..\..\..\..\..\..\Software\uCOS-III\Source/os_task.c **** *
3091:..\..\..\..\..\..\Software\uCOS-III\Source/os_task.c **** * Argument(s): p_tcb        is a pointer to the tcb of the task to change the priority.
3092:..\..\..\..\..\..\Software\uCOS-III\Source/os_task.c **** *
3093:..\..\..\..\..\..\Software\uCOS-III\Source/os_task.c **** *              prio_new     is the new priority to give to the task.
3094:..\..\..\..\..\..\Software\uCOS-III\Source/os_task.c **** *
3095:..\..\..\..\..\..\Software\uCOS-III\Source/os_task.c **** *
3096:..\..\..\..\..\..\Software\uCOS-III\Source/os_task.c **** * Returns    : none.
3097:..\..\..\..\..\..\Software\uCOS-III\Source/os_task.c **** *
3098:..\..\..\..\..\..\Software\uCOS-III\Source/os_task.c **** * Note(s)    : 1) This function is INTERNAL to uC/OS-III and your application MUST NOT call it.
3099:..\..\..\..\..\..\Software\uCOS-III\Source/os_task.c **** ***************************************************************************************************
3100:..\..\..\..\..\..\Software\uCOS-III\Source/os_task.c **** */
3101:..\..\..\..\..\..\Software\uCOS-III\Source/os_task.c **** 
3102:..\..\..\..\..\..\Software\uCOS-III\Source/os_task.c **** void  OS_TaskChangePrio(OS_TCB  *p_tcb,
3103:..\..\..\..\..\..\Software\uCOS-III\Source/os_task.c ****                         OS_PRIO  prio_new)
ARM GAS  C:\Users\ADMINI~1\AppData\Local\Temp\ccvBRVNC.s 			page 125


3104:..\..\..\..\..\..\Software\uCOS-III\Source/os_task.c **** {
 3930              		.loc 1 3104 0
 3931              		.cfi_startproc
 3932              		@ args = 0, pretend = 0, frame = 16
 3933              		@ frame_needed = 1, uses_anonymous_args = 0
 3934 0000 90B5     		push	{r4, r7, lr}
 3935              		.cfi_def_cfa_offset 12
 3936              		.cfi_offset 4, -12
 3937              		.cfi_offset 7, -8
 3938              		.cfi_offset 14, -4
 3939 0002 85B0     		sub	sp, sp, #20
 3940              		.cfi_def_cfa_offset 32
 3941 0004 00AF     		add	r7, sp, #0
 3942              		.cfi_def_cfa_register 7
 3943 0006 7860     		str	r0, [r7, #4]
 3944 0008 0A00     		movs	r2, r1
 3945 000a FB1C     		adds	r3, r7, #3
 3946 000c 1A70     		strb	r2, [r3]
 3947              	.L273:
3105:..\..\..\..\..\..\Software\uCOS-III\Source/os_task.c ****     OS_TCB  *p_tcb_owner;
3106:..\..\..\..\..\..\Software\uCOS-III\Source/os_task.c **** #if (OS_CFG_MUTEX_EN == DEF_ENABLED)
3107:..\..\..\..\..\..\Software\uCOS-III\Source/os_task.c ****     OS_PRIO  prio_cur;
3108:..\..\..\..\..\..\Software\uCOS-III\Source/os_task.c **** #endif
3109:..\..\..\..\..\..\Software\uCOS-III\Source/os_task.c **** 
3110:..\..\..\..\..\..\Software\uCOS-III\Source/os_task.c **** 
3111:..\..\..\..\..\..\Software\uCOS-III\Source/os_task.c ****     do {
3112:..\..\..\..\..\..\Software\uCOS-III\Source/os_task.c ****         p_tcb_owner = DEF_NULL;
 3948              		.loc 1 3112 0
 3949 000e 0023     		movs	r3, #0
 3950 0010 FB60     		str	r3, [r7, #12]
3113:..\..\..\..\..\..\Software\uCOS-III\Source/os_task.c **** #if (OS_CFG_MUTEX_EN == DEF_ENABLED)
3114:..\..\..\..\..\..\Software\uCOS-III\Source/os_task.c ****         prio_cur    = p_tcb->Prio;
 3951              		.loc 1 3114 0
 3952 0012 0B23     		movs	r3, #11
 3953 0014 FB18     		adds	r3, r7, r3
 3954 0016 7A68     		ldr	r2, [r7, #4]
 3955 0018 3721     		movs	r1, #55
 3956 001a 525C     		ldrb	r2, [r2, r1]
 3957 001c 1A70     		strb	r2, [r3]
3115:..\..\..\..\..\..\Software\uCOS-III\Source/os_task.c **** #endif
3116:..\..\..\..\..\..\Software\uCOS-III\Source/os_task.c ****         switch (p_tcb->TaskState) {
 3958              		.loc 1 3116 0
 3959 001e 7B68     		ldr	r3, [r7, #4]
 3960 0020 3622     		movs	r2, #54
 3961 0022 9B5C     		ldrb	r3, [r3, r2]
 3962 0024 072B     		cmp	r3, #7
 3963 0026 00D9     		bls	.LCB3434
 3964 0028 88E0     		b	.L274	@long jump
 3965              	.LCB3434:
 3966 002a 9A00     		lsls	r2, r3, #2
 3967 002c 454B     		ldr	r3, .L278
 3968 002e D318     		adds	r3, r2, r3
 3969 0030 1B68     		ldr	r3, [r3]
 3970 0032 9F46     		mov	pc, r3
 3971              		.section	.rodata
 3972              		.align	2
 3973              	.L258:
ARM GAS  C:\Users\ADMINI~1\AppData\Local\Temp\ccvBRVNC.s 			page 126


 3974 008c 34000000 		.word	.L257
 3975 0090 70000000 		.word	.L259
 3976 0094 7C000000 		.word	.L260
 3977 0098 7C000000 		.word	.L260
 3978 009c 70000000 		.word	.L259
 3979 00a0 70000000 		.word	.L259
 3980 00a4 7C000000 		.word	.L260
 3981 00a8 7C000000 		.word	.L260
 3982              		.section	.text.OS_TaskChangePrio
 3983              	.L257:
3117:..\..\..\..\..\..\Software\uCOS-III\Source/os_task.c ****             case OS_TASK_STATE_RDY:
3118:..\..\..\..\..\..\Software\uCOS-III\Source/os_task.c ****                  OS_RdyListRemove(p_tcb);                       /* Remove from current priority    
 3984              		.loc 1 3118 0
 3985 0034 7B68     		ldr	r3, [r7, #4]
 3986 0036 1800     		movs	r0, r3
 3987 0038 FFF7FEFF 		bl	OS_RdyListRemove
3119:..\..\..\..\..\..\Software\uCOS-III\Source/os_task.c ****                  p_tcb->Prio = prio_new;                        /* Set new task priority           
 3988              		.loc 1 3119 0
 3989 003c 7B68     		ldr	r3, [r7, #4]
 3990 003e FA1C     		adds	r2, r7, #3
 3991 0040 3721     		movs	r1, #55
 3992 0042 1278     		ldrb	r2, [r2]
 3993 0044 5A54     		strb	r2, [r3, r1]
3120:..\..\..\..\..\..\Software\uCOS-III\Source/os_task.c ****                  OS_PrioInsert(p_tcb->Prio);
 3994              		.loc 1 3120 0
 3995 0046 7B68     		ldr	r3, [r7, #4]
 3996 0048 3722     		movs	r2, #55
 3997 004a 9B5C     		ldrb	r3, [r3, r2]
 3998 004c 1800     		movs	r0, r3
 3999 004e FFF7FEFF 		bl	OS_PrioInsert
3121:..\..\..\..\..\..\Software\uCOS-III\Source/os_task.c ****                  if (p_tcb == OSTCBCurPtr) {
 4000              		.loc 1 3121 0
 4001 0052 3D4B     		ldr	r3, .L278+4
 4002 0054 1B68     		ldr	r3, [r3]
 4003 0056 7A68     		ldr	r2, [r7, #4]
 4004 0058 9A42     		cmp	r2, r3
 4005 005a 04D1     		bne	.L261
3122:..\..\..\..\..\..\Software\uCOS-III\Source/os_task.c ****                      OS_RdyListInsertHead(p_tcb);
 4006              		.loc 1 3122 0
 4007 005c 7B68     		ldr	r3, [r7, #4]
 4008 005e 1800     		movs	r0, r3
 4009 0060 FFF7FEFF 		bl	OS_RdyListInsertHead
3123:..\..\..\..\..\..\Software\uCOS-III\Source/os_task.c ****                  } else {
3124:..\..\..\..\..\..\Software\uCOS-III\Source/os_task.c ****                      OS_RdyListInsertTail(p_tcb);
3125:..\..\..\..\..\..\Software\uCOS-III\Source/os_task.c ****                  }
3126:..\..\..\..\..\..\Software\uCOS-III\Source/os_task.c ****                  break;
 4010              		.loc 1 3126 0
 4011 0064 63E0     		b	.L263
 4012              	.L261:
3124:..\..\..\..\..\..\Software\uCOS-III\Source/os_task.c ****                  }
 4013              		.loc 1 3124 0
 4014 0066 7B68     		ldr	r3, [r7, #4]
 4015 0068 1800     		movs	r0, r3
 4016 006a FFF7FEFF 		bl	OS_RdyListInsertTail
 4017              		.loc 1 3126 0
 4018 006e 5EE0     		b	.L263
 4019              	.L259:
ARM GAS  C:\Users\ADMINI~1\AppData\Local\Temp\ccvBRVNC.s 			page 127


3127:..\..\..\..\..\..\Software\uCOS-III\Source/os_task.c **** 
3128:..\..\..\..\..\..\Software\uCOS-III\Source/os_task.c ****             case OS_TASK_STATE_DLY:                             /* Nothing to do except change the 
3129:..\..\..\..\..\..\Software\uCOS-III\Source/os_task.c ****             case OS_TASK_STATE_SUSPENDED:
3130:..\..\..\..\..\..\Software\uCOS-III\Source/os_task.c ****             case OS_TASK_STATE_DLY_SUSPENDED:
3131:..\..\..\..\..\..\Software\uCOS-III\Source/os_task.c ****                  p_tcb->Prio = prio_new;                        /* Set new task priority           
 4020              		.loc 1 3131 0
 4021 0070 7B68     		ldr	r3, [r7, #4]
 4022 0072 FA1C     		adds	r2, r7, #3
 4023 0074 3721     		movs	r1, #55
 4024 0076 1278     		ldrb	r2, [r2]
 4025 0078 5A54     		strb	r2, [r3, r1]
3132:..\..\..\..\..\..\Software\uCOS-III\Source/os_task.c ****                  break;
 4026              		.loc 1 3132 0
 4027 007a 58E0     		b	.L263
 4028              	.L260:
3133:..\..\..\..\..\..\Software\uCOS-III\Source/os_task.c **** 
3134:..\..\..\..\..\..\Software\uCOS-III\Source/os_task.c ****             case OS_TASK_STATE_PEND:
3135:..\..\..\..\..\..\Software\uCOS-III\Source/os_task.c ****             case OS_TASK_STATE_PEND_TIMEOUT:
3136:..\..\..\..\..\..\Software\uCOS-III\Source/os_task.c ****             case OS_TASK_STATE_PEND_SUSPENDED:
3137:..\..\..\..\..\..\Software\uCOS-III\Source/os_task.c ****             case OS_TASK_STATE_PEND_TIMEOUT_SUSPENDED:
3138:..\..\..\..\..\..\Software\uCOS-III\Source/os_task.c ****                  p_tcb->Prio = prio_new;                        /* Set new task priority           
 4029              		.loc 1 3138 0
 4030 007c 7B68     		ldr	r3, [r7, #4]
 4031 007e FA1C     		adds	r2, r7, #3
 4032 0080 3721     		movs	r1, #55
 4033 0082 1278     		ldrb	r2, [r2]
 4034 0084 5A54     		strb	r2, [r3, r1]
3139:..\..\..\..\..\..\Software\uCOS-III\Source/os_task.c ****                  switch (p_tcb->PendOn) {                       /* What to do depends on what we ar
 4035              		.loc 1 3139 0
 4036 0086 7B68     		ldr	r3, [r7, #4]
 4037 0088 3422     		movs	r2, #52
 4038 008a 9B5C     		ldrb	r3, [r3, r2]
 4039 008c 042B     		cmp	r3, #4
 4040 008e 0AD0     		beq	.L265
 4041 0090 02DC     		bgt	.L266
 4042 0092 012B     		cmp	r3, #1
 4043 0094 02D0     		beq	.L267
3140:..\..\..\..\..\..\Software\uCOS-III\Source/os_task.c ****                      case OS_TASK_PEND_ON_FLAG:
3141:..\..\..\..\..\..\Software\uCOS-III\Source/os_task.c **** #if (OS_CFG_PEND_MULTI_EN == DEF_ENABLED)
3142:..\..\..\..\..\..\Software\uCOS-III\Source/os_task.c ****                      case OS_TASK_PEND_ON_MULTI:
3143:..\..\..\..\..\..\Software\uCOS-III\Source/os_task.c **** #endif
3144:..\..\..\..\..\..\Software\uCOS-III\Source/os_task.c ****                      case OS_TASK_PEND_ON_Q:
3145:..\..\..\..\..\..\Software\uCOS-III\Source/os_task.c ****                      case OS_TASK_PEND_ON_SEM:
3146:..\..\..\..\..\..\Software\uCOS-III\Source/os_task.c ****                           OS_PendListChangePrio(p_tcb);
3147:..\..\..\..\..\..\Software\uCOS-III\Source/os_task.c ****                           break;
3148:..\..\..\..\..\..\Software\uCOS-III\Source/os_task.c **** 
3149:..\..\..\..\..\..\Software\uCOS-III\Source/os_task.c ****                      case OS_TASK_PEND_ON_MUTEX:
3150:..\..\..\..\..\..\Software\uCOS-III\Source/os_task.c **** #if (OS_CFG_MUTEX_EN == DEF_ENABLED)
3151:..\..\..\..\..\..\Software\uCOS-III\Source/os_task.c ****                           OS_PendListChangePrio(p_tcb);
3152:..\..\..\..\..\..\Software\uCOS-III\Source/os_task.c ****                           p_tcb_owner = ((OS_MUTEX *)p_tcb->PendDataTblPtr->PendObjPtr)->OwnerTCBPt
3153:..\..\..\..\..\..\Software\uCOS-III\Source/os_task.c ****                           if (prio_cur > prio_new) {            /* Are we increasing the priority? 
3154:..\..\..\..\..\..\Software\uCOS-III\Source/os_task.c ****                               if (p_tcb_owner->Prio <= prio_new) { /* Yes, do we need to give this 
3155:..\..\..\..\..\..\Software\uCOS-III\Source/os_task.c ****                                   p_tcb_owner = DEF_NULL;
3156:..\..\..\..\..\..\Software\uCOS-III\Source/os_task.c ****                               } else {
3157:..\..\..\..\..\..\Software\uCOS-III\Source/os_task.c **** #if (defined(TRACE_CFG_EN) && (TRACE_CFG_EN == DEF_ENABLED))
3158:..\..\..\..\..\..\Software\uCOS-III\Source/os_task.c ****                                  TRACE_OS_MUTEX_TASK_PRIO_INHERIT(p_tcb_owner, prio_new);
3159:..\..\..\..\..\..\Software\uCOS-III\Source/os_task.c **** #endif
ARM GAS  C:\Users\ADMINI~1\AppData\Local\Temp\ccvBRVNC.s 			page 128


3160:..\..\..\..\..\..\Software\uCOS-III\Source/os_task.c ****                               }
3161:..\..\..\..\..\..\Software\uCOS-III\Source/os_task.c ****                           } else {
3162:..\..\..\..\..\..\Software\uCOS-III\Source/os_task.c ****                               if (p_tcb_owner->Prio == prio_cur) { /* No, is it required to check f
3163:..\..\..\..\..\..\Software\uCOS-III\Source/os_task.c ****                                   prio_new = OS_MutexGrpPrioFindHighest(p_tcb_owner);
3164:..\..\..\..\..\..\Software\uCOS-III\Source/os_task.c ****                                   prio_new = prio_new > p_tcb_owner->BasePrio ? p_tcb_owner->BasePr
3165:..\..\..\..\..\..\Software\uCOS-III\Source/os_task.c ****                                   if (prio_new == p_tcb_owner->Prio) {
3166:..\..\..\..\..\..\Software\uCOS-III\Source/os_task.c ****                                       p_tcb_owner = DEF_NULL;
3167:..\..\..\..\..\..\Software\uCOS-III\Source/os_task.c ****                                   } else {
3168:..\..\..\..\..\..\Software\uCOS-III\Source/os_task.c **** #if (defined(TRACE_CFG_EN) && (TRACE_CFG_EN == DEF_ENABLED))
3169:..\..\..\..\..\..\Software\uCOS-III\Source/os_task.c ****                                      TRACE_OS_MUTEX_TASK_PRIO_DISINHERIT(p_tcb_owner, prio_new);
3170:..\..\..\..\..\..\Software\uCOS-III\Source/os_task.c **** #endif
3171:..\..\..\..\..\..\Software\uCOS-III\Source/os_task.c ****                                   }
3172:..\..\..\..\..\..\Software\uCOS-III\Source/os_task.c ****                               }
3173:..\..\..\..\..\..\Software\uCOS-III\Source/os_task.c ****                           }
3174:..\..\..\..\..\..\Software\uCOS-III\Source/os_task.c **** #endif
3175:..\..\..\..\..\..\Software\uCOS-III\Source/os_task.c ****                          break;
3176:..\..\..\..\..\..\Software\uCOS-III\Source/os_task.c **** 
3177:..\..\..\..\..\..\Software\uCOS-III\Source/os_task.c ****                      case OS_TASK_PEND_ON_TASK_Q:
3178:..\..\..\..\..\..\Software\uCOS-III\Source/os_task.c ****                      case OS_TASK_PEND_ON_TASK_SEM:
3179:..\..\..\..\..\..\Software\uCOS-III\Source/os_task.c ****                      default:
3180:..\..\..\..\..\..\Software\uCOS-III\Source/os_task.c ****                           break;
 4044              		.loc 1 3180 0
 4045 0096 46E0     		b	.L275
 4046              	.L266:
3139:..\..\..\..\..\..\Software\uCOS-III\Source/os_task.c ****                  switch (p_tcb->PendOn) {                       /* What to do depends on what we ar
 4047              		.loc 1 3139 0
 4048 0098 062B     		cmp	r3, #6
 4049 009a 44DC     		bgt	.L275
 4050              	.L267:
3146:..\..\..\..\..\..\Software\uCOS-III\Source/os_task.c ****                           break;
 4051              		.loc 1 3146 0
 4052 009c 7B68     		ldr	r3, [r7, #4]
 4053 009e 1800     		movs	r0, r3
 4054 00a0 FFF7FEFF 		bl	OS_PendListChangePrio
3147:..\..\..\..\..\..\Software\uCOS-III\Source/os_task.c **** 
 4055              		.loc 1 3147 0
 4056 00a4 42E0     		b	.L268
 4057              	.L265:
3151:..\..\..\..\..\..\Software\uCOS-III\Source/os_task.c ****                           p_tcb_owner = ((OS_MUTEX *)p_tcb->PendDataTblPtr->PendObjPtr)->OwnerTCBPt
 4058              		.loc 1 3151 0
 4059 00a6 7B68     		ldr	r3, [r7, #4]
 4060 00a8 1800     		movs	r0, r3
 4061 00aa FFF7FEFF 		bl	OS_PendListChangePrio
3152:..\..\..\..\..\..\Software\uCOS-III\Source/os_task.c ****                           if (prio_cur > prio_new) {            /* Are we increasing the priority? 
 4062              		.loc 1 3152 0
 4063 00ae 7B68     		ldr	r3, [r7, #4]
 4064 00b0 1B6B     		ldr	r3, [r3, #48]
 4065 00b2 DB68     		ldr	r3, [r3, #12]
 4066 00b4 5B6A     		ldr	r3, [r3, #36]
 4067 00b6 FB60     		str	r3, [r7, #12]
3153:..\..\..\..\..\..\Software\uCOS-III\Source/os_task.c ****                               if (p_tcb_owner->Prio <= prio_new) { /* Yes, do we need to give this 
 4068              		.loc 1 3153 0
 4069 00b8 0B23     		movs	r3, #11
 4070 00ba FA18     		adds	r2, r7, r3
 4071 00bc FB1C     		adds	r3, r7, #3
 4072 00be 1278     		ldrb	r2, [r2]
 4073 00c0 1B78     		ldrb	r3, [r3]
ARM GAS  C:\Users\ADMINI~1\AppData\Local\Temp\ccvBRVNC.s 			page 129


 4074 00c2 9A42     		cmp	r2, r3
 4075 00c4 09D9     		bls	.L269
3154:..\..\..\..\..\..\Software\uCOS-III\Source/os_task.c ****                                   p_tcb_owner = DEF_NULL;
 4076              		.loc 1 3154 0
 4077 00c6 FB68     		ldr	r3, [r7, #12]
 4078 00c8 3722     		movs	r2, #55
 4079 00ca 9B5C     		ldrb	r3, [r3, r2]
 4080 00cc FA1C     		adds	r2, r7, #3
 4081 00ce 1278     		ldrb	r2, [r2]
 4082 00d0 9A42     		cmp	r2, r3
 4083 00d2 2AD3     		bcc	.L276
3155:..\..\..\..\..\..\Software\uCOS-III\Source/os_task.c ****                               } else {
 4084              		.loc 1 3155 0
 4085 00d4 0023     		movs	r3, #0
 4086 00d6 FB60     		str	r3, [r7, #12]
3175:..\..\..\..\..\..\Software\uCOS-III\Source/os_task.c **** 
 4087              		.loc 1 3175 0
 4088 00d8 27E0     		b	.L276
 4089              	.L269:
3162:..\..\..\..\..\..\Software\uCOS-III\Source/os_task.c ****                                   prio_new = OS_MutexGrpPrioFindHighest(p_tcb_owner);
 4090              		.loc 1 3162 0
 4091 00da FB68     		ldr	r3, [r7, #12]
 4092 00dc 3722     		movs	r2, #55
 4093 00de 9B5C     		ldrb	r3, [r3, r2]
 4094 00e0 0B22     		movs	r2, #11
 4095 00e2 BA18     		adds	r2, r7, r2
 4096 00e4 1278     		ldrb	r2, [r2]
 4097 00e6 9A42     		cmp	r2, r3
 4098 00e8 1FD1     		bne	.L276
3163:..\..\..\..\..\..\Software\uCOS-III\Source/os_task.c ****                                   prio_new = prio_new > p_tcb_owner->BasePrio ? p_tcb_owner->BasePr
 4099              		.loc 1 3163 0
 4100 00ea FC1C     		adds	r4, r7, #3
 4101 00ec FB68     		ldr	r3, [r7, #12]
 4102 00ee 1800     		movs	r0, r3
 4103 00f0 FFF7FEFF 		bl	OS_MutexGrpPrioFindHighest
 4104 00f4 0300     		movs	r3, r0
 4105 00f6 2370     		strb	r3, [r4]
3164:..\..\..\..\..\..\Software\uCOS-III\Source/os_task.c ****                                   if (prio_new == p_tcb_owner->Prio) {
 4106              		.loc 1 3164 0
 4107 00f8 FB68     		ldr	r3, [r7, #12]
 4108 00fa 3822     		movs	r2, #56
 4109 00fc 995C     		ldrb	r1, [r3, r2]
 4110 00fe FA1C     		adds	r2, r7, #3
 4111 0100 FB1C     		adds	r3, r7, #3
 4112 0102 1C78     		ldrb	r4, [r3]
 4113 0104 0B1C     		adds	r3, r1, #0
 4114 0106 D8B2     		uxtb	r0, r3
 4115 0108 E1B2     		uxtb	r1, r4
 4116 010a 8842     		cmp	r0, r1
 4117 010c 00D9     		bls	.L271
 4118 010e 231C     		adds	r3, r4, #0
 4119              	.L271:
 4120 0110 1370     		strb	r3, [r2]
3165:..\..\..\..\..\..\Software\uCOS-III\Source/os_task.c ****                                       p_tcb_owner = DEF_NULL;
 4121              		.loc 1 3165 0
 4122 0112 FB68     		ldr	r3, [r7, #12]
 4123 0114 3722     		movs	r2, #55
ARM GAS  C:\Users\ADMINI~1\AppData\Local\Temp\ccvBRVNC.s 			page 130


 4124 0116 9B5C     		ldrb	r3, [r3, r2]
 4125 0118 FA1C     		adds	r2, r7, #3
 4126 011a 1278     		ldrb	r2, [r2]
 4127 011c 9A42     		cmp	r2, r3
 4128 011e 04D1     		bne	.L276
3166:..\..\..\..\..\..\Software\uCOS-III\Source/os_task.c ****                                   } else {
 4129              		.loc 1 3166 0
 4130 0120 0023     		movs	r3, #0
 4131 0122 FB60     		str	r3, [r7, #12]
3175:..\..\..\..\..\..\Software\uCOS-III\Source/os_task.c **** 
 4132              		.loc 1 3175 0
 4133 0124 01E0     		b	.L276
 4134              	.L275:
 4135              		.loc 1 3180 0
 4136 0126 C046     		nop
 4137 0128 00E0     		b	.L277
 4138              	.L276:
3175:..\..\..\..\..\..\Software\uCOS-III\Source/os_task.c **** 
 4139              		.loc 1 3175 0
 4140 012a C046     		nop
 4141              	.L268:
 4142              	.L277:
3181:..\..\..\..\..\..\Software\uCOS-III\Source/os_task.c ****                  }
3182:..\..\..\..\..\..\Software\uCOS-III\Source/os_task.c ****                  break;
 4143              		.loc 1 3182 0
 4144 012c C046     		nop
 4145              	.L263:
3183:..\..\..\..\..\..\Software\uCOS-III\Source/os_task.c **** 
3184:..\..\..\..\..\..\Software\uCOS-III\Source/os_task.c ****             default:
3185:..\..\..\..\..\..\Software\uCOS-III\Source/os_task.c ****                  return;
3186:..\..\..\..\..\..\Software\uCOS-III\Source/os_task.c ****         }
3187:..\..\..\..\..\..\Software\uCOS-III\Source/os_task.c ****         p_tcb = p_tcb_owner;
 4146              		.loc 1 3187 0
 4147 012e FB68     		ldr	r3, [r7, #12]
 4148 0130 7B60     		str	r3, [r7, #4]
3188:..\..\..\..\..\..\Software\uCOS-III\Source/os_task.c ****     } while (p_tcb != DEF_NULL);
 4149              		.loc 1 3188 0
 4150 0132 7B68     		ldr	r3, [r7, #4]
 4151 0134 002B     		cmp	r3, #0
 4152 0136 00D0     		beq	.LCB3602
 4153 0138 69E7     		b	.L273	@long jump
 4154              	.LCB3602:
 4155 013a 00E0     		b	.L255
 4156              	.L274:
3185:..\..\..\..\..\..\Software\uCOS-III\Source/os_task.c ****         }
 4157              		.loc 1 3185 0
 4158 013c C046     		nop
 4159              	.L255:
3189:..\..\..\..\..\..\Software\uCOS-III\Source/os_task.c **** }
 4160              		.loc 1 3189 0
 4161 013e BD46     		mov	sp, r7
 4162 0140 05B0     		add	sp, sp, #20
 4163              		@ sp needed
 4164 0142 90BD     		pop	{r4, r7, pc}
 4165              	.L279:
 4166              		.align	2
 4167              	.L278:
ARM GAS  C:\Users\ADMINI~1\AppData\Local\Temp\ccvBRVNC.s 			page 131


 4168 0144 8C000000 		.word	.L258
 4169 0148 00000000 		.word	OSTCBCurPtr
 4170              		.cfi_endproc
 4171              	.LFE24:
 4172              		.size	OS_TaskChangePrio, .-OS_TaskChangePrio
 4173              		.text
 4174              	.Letext0:
 4175              		.file 2 "..\\..\\..\\..\\..\\..\\Software\\uC-CPU\\ARM-Cortex-M0\\GNU/cpu.h"
 4176              		.file 3 "..\\..\\..\\..\\..\\..\\Software\\uC-CPU/cpu_core.h"
 4177              		.file 4 "..\\..\\..\\..\\..\\..\\Software\\uCOS-III\\Source\\os_type.h"
 4178              		.file 5 "..\\..\\..\\..\\..\\..\\Software\\uCOS-III\\Source\\os.h"
 4179              		.section	.debug_info,"",%progbits
 4180              	.Ldebug_info0:
 4181 0000 FD150000 		.4byte	0x15fd
 4182 0004 0400     		.2byte	0x4
 4183 0006 00000000 		.4byte	.Ldebug_abbrev0
 4184 000a 04       		.byte	0x4
 4185 000b 01       		.uleb128 0x1
 4186 000c 08030000 		.4byte	.LASF366
 4187 0010 0C       		.byte	0xc
 4188 0011 B5130000 		.4byte	.LASF367
 4189 0015 9E000000 		.4byte	.LASF368
 4190 0019 00000000 		.4byte	.Ldebug_ranges0+0
 4191 001d 00000000 		.4byte	0
 4192 0021 00000000 		.4byte	.Ldebug_line0
 4193 0025 02       		.uleb128 0x2
 4194 0026 1C080000 		.4byte	.LASF0
 4195 002a 02       		.byte	0x2
 4196 002b 7C       		.byte	0x7c
 4197 002c 30000000 		.4byte	0x30
 4198 0030 03       		.uleb128 0x3
 4199 0031 01       		.byte	0x1
 4200 0032 08       		.byte	0x8
 4201 0033 D9090000 		.4byte	.LASF2
 4202 0037 02       		.uleb128 0x2
 4203 0038 FC110000 		.4byte	.LASF1
 4204 003c 02       		.byte	0x2
 4205 003d 7D       		.byte	0x7d
 4206 003e 42000000 		.4byte	0x42
 4207 0042 03       		.uleb128 0x3
 4208 0043 01       		.byte	0x1
 4209 0044 08       		.byte	0x8
 4210 0045 70120000 		.4byte	.LASF3
 4211 0049 02       		.uleb128 0x2
 4212 004a FD060000 		.4byte	.LASF4
 4213 004e 02       		.byte	0x2
 4214 004f 7E       		.byte	0x7e
 4215 0050 42000000 		.4byte	0x42
 4216 0054 03       		.uleb128 0x3
 4217 0055 01       		.byte	0x1
 4218 0056 06       		.byte	0x6
 4219 0057 F3130000 		.4byte	.LASF5
 4220 005b 02       		.uleb128 0x2
 4221 005c D70B0000 		.4byte	.LASF6
 4222 0060 02       		.byte	0x2
 4223 0061 80       		.byte	0x80
 4224 0062 66000000 		.4byte	0x66
ARM GAS  C:\Users\ADMINI~1\AppData\Local\Temp\ccvBRVNC.s 			page 132


 4225 0066 03       		.uleb128 0x3
 4226 0067 02       		.byte	0x2
 4227 0068 07       		.byte	0x7
 4228 0069 26140000 		.4byte	.LASF7
 4229 006d 03       		.uleb128 0x3
 4230 006e 02       		.byte	0x2
 4231 006f 05       		.byte	0x5
 4232 0070 2C0F0000 		.4byte	.LASF8
 4233 0074 02       		.uleb128 0x2
 4234 0075 19020000 		.4byte	.LASF9
 4235 0079 02       		.byte	0x2
 4236 007a 82       		.byte	0x82
 4237 007b 7F000000 		.4byte	0x7f
 4238 007f 03       		.uleb128 0x3
 4239 0080 04       		.byte	0x4
 4240 0081 07       		.byte	0x7
 4241 0082 16110000 		.4byte	.LASF10
 4242 0086 04       		.uleb128 0x4
 4243 0087 04       		.byte	0x4
 4244 0088 05       		.byte	0x5
 4245 0089 696E7400 		.ascii	"int\000"
 4246 008d 03       		.uleb128 0x3
 4247 008e 08       		.byte	0x8
 4248 008f 07       		.byte	0x7
 4249 0090 50060000 		.4byte	.LASF11
 4250 0094 03       		.uleb128 0x3
 4251 0095 08       		.byte	0x8
 4252 0096 05       		.byte	0x5
 4253 0097 2F0B0000 		.4byte	.LASF12
 4254 009b 03       		.uleb128 0x3
 4255 009c 04       		.byte	0x4
 4256 009d 04       		.byte	0x4
 4257 009e A1050000 		.4byte	.LASF13
 4258 00a2 03       		.uleb128 0x3
 4259 00a3 08       		.byte	0x8
 4260 00a4 04       		.byte	0x4
 4261 00a5 CD140000 		.4byte	.LASF14
 4262 00a9 05       		.uleb128 0x5
 4263 00aa 04       		.byte	0x4
 4264 00ab AF000000 		.4byte	0xaf
 4265 00af 06       		.uleb128 0x6
 4266 00b0 BA000000 		.4byte	0xba
 4267 00b4 07       		.uleb128 0x7
 4268 00b5 BA000000 		.4byte	0xba
 4269 00b9 00       		.byte	0
 4270 00ba 08       		.uleb128 0x8
 4271 00bb 04       		.byte	0x4
 4272 00bc 02       		.uleb128 0x2
 4273 00bd A8110000 		.4byte	.LASF15
 4274 00c1 02       		.byte	0x2
 4275 00c2 BA       		.byte	0xba
 4276 00c3 74000000 		.4byte	0x74
 4277 00c7 02       		.uleb128 0x2
 4278 00c8 57160000 		.4byte	.LASF16
 4279 00cc 02       		.byte	0x2
 4280 00cd E5       		.byte	0xe5
 4281 00ce 74000000 		.4byte	0x74
ARM GAS  C:\Users\ADMINI~1\AppData\Local\Temp\ccvBRVNC.s 			page 133


 4282 00d2 02       		.uleb128 0x2
 4283 00d3 3C080000 		.4byte	.LASF17
 4284 00d7 02       		.byte	0x2
 4285 00d8 E6       		.byte	0xe6
 4286 00d9 BC000000 		.4byte	0xbc
 4287 00dd 09       		.uleb128 0x9
 4288 00de 240A0000 		.4byte	.LASF18
 4289 00e2 02       		.byte	0x2
 4290 00e3 3301     		.2byte	0x133
 4291 00e5 74000000 		.4byte	0x74
 4292 00e9 02       		.uleb128 0x2
 4293 00ea 890C0000 		.4byte	.LASF19
 4294 00ee 03       		.byte	0x3
 4295 00ef C3       		.byte	0xc3
 4296 00f0 74000000 		.4byte	0x74
 4297 00f4 02       		.uleb128 0x2
 4298 00f5 280B0000 		.4byte	.LASF20
 4299 00f9 03       		.byte	0x3
 4300 00fa C6       		.byte	0xc6
 4301 00fb E9000000 		.4byte	0xe9
 4302 00ff 02       		.uleb128 0x2
 4303 0100 EF010000 		.4byte	.LASF21
 4304 0104 04       		.byte	0x4
 4305 0105 32       		.byte	0x32
 4306 0106 5B000000 		.4byte	0x5b
 4307 010a 02       		.uleb128 0x2
 4308 010b 2F000000 		.4byte	.LASF22
 4309 010f 04       		.byte	0x4
 4310 0110 36       		.byte	0x36
 4311 0111 74000000 		.4byte	0x74
 4312 0115 02       		.uleb128 0x2
 4313 0116 16120000 		.4byte	.LASF23
 4314 011a 04       		.byte	0x4
 4315 011b 38       		.byte	0x38
 4316 011c 74000000 		.4byte	0x74
 4317 0120 02       		.uleb128 0x2
 4318 0121 39140000 		.4byte	.LASF24
 4319 0125 04       		.byte	0x4
 4320 0126 3A       		.byte	0x3a
 4321 0127 74000000 		.4byte	0x74
 4322 012b 02       		.uleb128 0x2
 4323 012c 50080000 		.4byte	.LASF25
 4324 0130 04       		.byte	0x4
 4325 0131 41       		.byte	0x41
 4326 0132 5B000000 		.4byte	0x5b
 4327 0136 02       		.uleb128 0x2
 4328 0137 E1070000 		.4byte	.LASF26
 4329 013b 04       		.byte	0x4
 4330 013c 42       		.byte	0x42
 4331 013d 5B000000 		.4byte	0x5b
 4332 0141 02       		.uleb128 0x2
 4333 0142 2C100000 		.4byte	.LASF27
 4334 0146 04       		.byte	0x4
 4335 0147 44       		.byte	0x44
 4336 0148 49000000 		.4byte	0x49
 4337 014c 02       		.uleb128 0x2
 4338 014d 48050000 		.4byte	.LASF28
ARM GAS  C:\Users\ADMINI~1\AppData\Local\Temp\ccvBRVNC.s 			page 134


 4339 0151 04       		.byte	0x4
 4340 0152 46       		.byte	0x46
 4341 0153 5B000000 		.4byte	0x5b
 4342 0157 02       		.uleb128 0x2
 4343 0158 DE090000 		.4byte	.LASF29
 4344 015c 04       		.byte	0x4
 4345 015d 47       		.byte	0x47
 4346 015e 74000000 		.4byte	0x74
 4347 0162 02       		.uleb128 0x2
 4348 0163 C4120000 		.4byte	.LASF30
 4349 0167 04       		.byte	0x4
 4350 0168 49       		.byte	0x49
 4351 0169 5B000000 		.4byte	0x5b
 4352 016d 02       		.uleb128 0x2
 4353 016e 8B050000 		.4byte	.LASF31
 4354 0172 04       		.byte	0x4
 4355 0173 4D       		.byte	0x4d
 4356 0174 49000000 		.4byte	0x49
 4357 0178 02       		.uleb128 0x2
 4358 0179 8A0A0000 		.4byte	.LASF32
 4359 017d 04       		.byte	0x4
 4360 017e 51       		.byte	0x51
 4361 017f 74000000 		.4byte	0x74
 4362 0183 02       		.uleb128 0x2
 4363 0184 6B070000 		.4byte	.LASF33
 4364 0188 04       		.byte	0x4
 4365 0189 56       		.byte	0x56
 4366 018a 74000000 		.4byte	0x74
 4367 018e 02       		.uleb128 0x2
 4368 018f 92140000 		.4byte	.LASF34
 4369 0193 04       		.byte	0x4
 4370 0194 58       		.byte	0x58
 4371 0195 49000000 		.4byte	0x49
 4372 0199 02       		.uleb128 0x2
 4373 019a C40C0000 		.4byte	.LASF35
 4374 019e 04       		.byte	0x4
 4375 019f 5A       		.byte	0x5a
 4376 01a0 74000000 		.4byte	0x74
 4377 01a4 02       		.uleb128 0x2
 4378 01a5 B3120000 		.4byte	.LASF36
 4379 01a9 04       		.byte	0x4
 4380 01aa 5C       		.byte	0x5c
 4381 01ab 49000000 		.4byte	0x49
 4382 01af 02       		.uleb128 0x2
 4383 01b0 8C070000 		.4byte	.LASF37
 4384 01b4 04       		.byte	0x4
 4385 01b5 5E       		.byte	0x5e
 4386 01b6 49000000 		.4byte	0x49
 4387 01ba 02       		.uleb128 0x2
 4388 01bb 400C0000 		.4byte	.LASF38
 4389 01bf 04       		.byte	0x4
 4390 01c0 60       		.byte	0x60
 4391 01c1 74000000 		.4byte	0x74
 4392 01c5 0A       		.uleb128 0xa
 4393 01c6 A3010000 		.4byte	.LASF369
 4394 01ca 02       		.byte	0x2
 4395 01cb 66000000 		.4byte	0x66
ARM GAS  C:\Users\ADMINI~1\AppData\Local\Temp\ccvBRVNC.s 			page 135


 4396 01cf 05       		.byte	0x5
 4397 01d0 E201     		.2byte	0x1e2
 4398 01d2 67060000 		.4byte	0x667
 4399 01d6 0B       		.uleb128 0xb
 4400 01d7 71140000 		.4byte	.LASF39
 4401 01db 00       		.byte	0
 4402 01dc 0C       		.uleb128 0xc
 4403 01dd 68000000 		.4byte	.LASF40
 4404 01e1 1027     		.2byte	0x2710
 4405 01e3 0C       		.uleb128 0xc
 4406 01e4 32040000 		.4byte	.LASF41
 4407 01e8 1127     		.2byte	0x2711
 4408 01ea 0C       		.uleb128 0xc
 4409 01eb 71000000 		.4byte	.LASF42
 4410 01ef F82A     		.2byte	0x2af8
 4411 01f1 0C       		.uleb128 0xc
 4412 01f2 7A000000 		.4byte	.LASF43
 4413 01f6 E02E     		.2byte	0x2ee0
 4414 01f8 0C       		.uleb128 0xc
 4415 01f9 CD010000 		.4byte	.LASF44
 4416 01fd E12E     		.2byte	0x2ee1
 4417 01ff 0C       		.uleb128 0xc
 4418 0200 83000000 		.4byte	.LASF45
 4419 0204 C832     		.2byte	0x32c8
 4420 0206 0C       		.uleb128 0xc
 4421 0207 AF090000 		.4byte	.LASF46
 4422 020b C932     		.2byte	0x32c9
 4423 020d 0C       		.uleb128 0xc
 4424 020e 8C000000 		.4byte	.LASF47
 4425 0212 B036     		.2byte	0x36b0
 4426 0214 0C       		.uleb128 0xc
 4427 0215 95000000 		.4byte	.LASF48
 4428 0219 983A     		.2byte	0x3a98
 4429 021b 0C       		.uleb128 0xc
 4430 021c 12140000 		.4byte	.LASF49
 4431 0220 993A     		.2byte	0x3a99
 4432 0222 0C       		.uleb128 0xc
 4433 0223 F8080000 		.4byte	.LASF50
 4434 0227 FD3A     		.2byte	0x3afd
 4435 0229 0C       		.uleb128 0xc
 4436 022a 5B110000 		.4byte	.LASF51
 4437 022e FE3A     		.2byte	0x3afe
 4438 0230 0C       		.uleb128 0xc
 4439 0231 3D0B0000 		.4byte	.LASF52
 4440 0235 FF3A     		.2byte	0x3aff
 4441 0237 0C       		.uleb128 0xc
 4442 0238 B0140000 		.4byte	.LASF53
 4443 023c 003B     		.2byte	0x3b00
 4444 023e 0C       		.uleb128 0xc
 4445 023f 54120000 		.4byte	.LASF54
 4446 0243 803E     		.2byte	0x3e80
 4447 0245 0C       		.uleb128 0xc
 4448 0246 F0000000 		.4byte	.LASF55
 4449 024a 6842     		.2byte	0x4268
 4450 024c 0C       		.uleb128 0xc
 4451 024d F9000000 		.4byte	.LASF56
 4452 0251 5046     		.2byte	0x4650
ARM GAS  C:\Users\ADMINI~1\AppData\Local\Temp\ccvBRVNC.s 			page 136


 4453 0253 0C       		.uleb128 0xc
 4454 0254 08050000 		.4byte	.LASF57
 4455 0258 5146     		.2byte	0x4651
 4456 025a 0C       		.uleb128 0xc
 4457 025b EE030000 		.4byte	.LASF58
 4458 025f 5246     		.2byte	0x4652
 4459 0261 0C       		.uleb128 0xc
 4460 0262 D4040000 		.4byte	.LASF59
 4461 0266 5346     		.2byte	0x4653
 4462 0268 0C       		.uleb128 0xc
 4463 0269 BB010000 		.4byte	.LASF60
 4464 026d 5446     		.2byte	0x4654
 4465 026f 0C       		.uleb128 0xc
 4466 0270 63130000 		.4byte	.LASF61
 4467 0274 5546     		.2byte	0x4655
 4468 0276 0C       		.uleb128 0xc
 4469 0277 890D0000 		.4byte	.LASF62
 4470 027b 5646     		.2byte	0x4656
 4471 027d 0C       		.uleb128 0xc
 4472 027e B8020000 		.4byte	.LASF63
 4473 0282 5746     		.2byte	0x4657
 4474 0284 0C       		.uleb128 0xc
 4475 0285 02010000 		.4byte	.LASF64
 4476 0289 384A     		.2byte	0x4a38
 4477 028b 0C       		.uleb128 0xc
 4478 028c 0B010000 		.4byte	.LASF65
 4479 0290 204E     		.2byte	0x4e20
 4480 0292 0C       		.uleb128 0xc
 4481 0293 14010000 		.4byte	.LASF66
 4482 0297 0852     		.2byte	0x5208
 4483 0299 0C       		.uleb128 0xc
 4484 029a E00E0000 		.4byte	.LASF67
 4485 029e 0952     		.2byte	0x5209
 4486 02a0 0C       		.uleb128 0xc
 4487 02a1 1D010000 		.4byte	.LASF68
 4488 02a5 F055     		.2byte	0x55f0
 4489 02a7 0C       		.uleb128 0xc
 4490 02a8 D7120000 		.4byte	.LASF69
 4491 02ac B956     		.2byte	0x56b9
 4492 02ae 0C       		.uleb128 0xc
 4493 02af 480C0000 		.4byte	.LASF70
 4494 02b3 BA56     		.2byte	0x56ba
 4495 02b5 0C       		.uleb128 0xc
 4496 02b6 B70E0000 		.4byte	.LASF71
 4497 02ba BB56     		.2byte	0x56bb
 4498 02bc 0C       		.uleb128 0xc
 4499 02bd 11090000 		.4byte	.LASF72
 4500 02c1 BC56     		.2byte	0x56bc
 4501 02c3 0C       		.uleb128 0xc
 4502 02c4 FE0B0000 		.4byte	.LASF73
 4503 02c8 BD56     		.2byte	0x56bd
 4504 02ca 0C       		.uleb128 0xc
 4505 02cb 9E0E0000 		.4byte	.LASF74
 4506 02cf BE56     		.2byte	0x56be
 4507 02d1 0C       		.uleb128 0xc
 4508 02d2 700C0000 		.4byte	.LASF75
 4509 02d6 BF56     		.2byte	0x56bf
ARM GAS  C:\Users\ADMINI~1\AppData\Local\Temp\ccvBRVNC.s 			page 137


 4510 02d8 0C       		.uleb128 0xc
 4511 02d9 EE050000 		.4byte	.LASF76
 4512 02dd C056     		.2byte	0x56c0
 4513 02df 0C       		.uleb128 0xc
 4514 02e0 5A150000 		.4byte	.LASF77
 4515 02e4 C156     		.2byte	0x56c1
 4516 02e6 0C       		.uleb128 0xc
 4517 02e7 3F160000 		.4byte	.LASF78
 4518 02eb C256     		.2byte	0x56c2
 4519 02ed 0C       		.uleb128 0xc
 4520 02ee 410F0000 		.4byte	.LASF79
 4521 02f2 1D57     		.2byte	0x571d
 4522 02f4 0C       		.uleb128 0xc
 4523 02f5 13100000 		.4byte	.LASF80
 4524 02f9 1E57     		.2byte	0x571e
 4525 02fb 0C       		.uleb128 0xc
 4526 02fc CA070000 		.4byte	.LASF81
 4527 0300 8157     		.2byte	0x5781
 4528 0302 0C       		.uleb128 0xc
 4529 0303 2B110000 		.4byte	.LASF82
 4530 0307 8257     		.2byte	0x5782
 4531 0309 0C       		.uleb128 0xc
 4532 030a 5C040000 		.4byte	.LASF83
 4533 030e 8357     		.2byte	0x5783
 4534 0310 0C       		.uleb128 0xc
 4535 0311 BE030000 		.4byte	.LASF84
 4536 0315 8457     		.2byte	0x5784
 4537 0317 0C       		.uleb128 0xc
 4538 0318 26010000 		.4byte	.LASF85
 4539 031c D859     		.2byte	0x59d8
 4540 031e 0C       		.uleb128 0xc
 4541 031f 72070000 		.4byte	.LASF86
 4542 0323 D959     		.2byte	0x59d9
 4543 0325 0C       		.uleb128 0xc
 4544 0326 D6050000 		.4byte	.LASF87
 4545 032a DA59     		.2byte	0x59da
 4546 032c 0C       		.uleb128 0xc
 4547 032d 2F010000 		.4byte	.LASF88
 4548 0331 C05D     		.2byte	0x5dc0
 4549 0333 0C       		.uleb128 0xc
 4550 0334 91040000 		.4byte	.LASF89
 4551 0338 C15D     		.2byte	0x5dc1
 4552 033a 0C       		.uleb128 0xc
 4553 033b 190B0000 		.4byte	.LASF90
 4554 033f C25D     		.2byte	0x5dc2
 4555 0341 0C       		.uleb128 0xc
 4556 0342 160C0000 		.4byte	.LASF91
 4557 0346 C35D     		.2byte	0x5dc3
 4558 0348 0C       		.uleb128 0xc
 4559 0349 80100000 		.4byte	.LASF92
 4560 034d C45D     		.2byte	0x5dc4
 4561 034f 0C       		.uleb128 0xc
 4562 0350 110A0000 		.4byte	.LASF93
 4563 0354 255E     		.2byte	0x5e25
 4564 0356 0C       		.uleb128 0xc
 4565 0357 2D0E0000 		.4byte	.LASF94
 4566 035b 895E     		.2byte	0x5e89
ARM GAS  C:\Users\ADMINI~1\AppData\Local\Temp\ccvBRVNC.s 			page 138


 4567 035d 0C       		.uleb128 0xc
 4568 035e 5B080000 		.4byte	.LASF95
 4569 0362 8A5E     		.2byte	0x5e8a
 4570 0364 0C       		.uleb128 0xc
 4571 0365 4C090000 		.4byte	.LASF96
 4572 0369 8B5E     		.2byte	0x5e8b
 4573 036b 0C       		.uleb128 0xc
 4574 036c 570A0000 		.4byte	.LASF97
 4575 0370 8C5E     		.2byte	0x5e8c
 4576 0372 0C       		.uleb128 0xc
 4577 0373 38010000 		.4byte	.LASF98
 4578 0377 A861     		.2byte	0x61a8
 4579 0379 0C       		.uleb128 0xc
 4580 037a D4140000 		.4byte	.LASF99
 4581 037e A961     		.2byte	0x61a9
 4582 0380 0C       		.uleb128 0xc
 4583 0381 92110000 		.4byte	.LASF100
 4584 0385 AA61     		.2byte	0x61aa
 4585 0387 0C       		.uleb128 0xc
 4586 0388 F3100000 		.4byte	.LASF101
 4587 038c AB61     		.2byte	0x61ab
 4588 038e 0C       		.uleb128 0xc
 4589 038f C00B0000 		.4byte	.LASF102
 4590 0393 AC61     		.2byte	0x61ac
 4591 0395 0C       		.uleb128 0xc
 4592 0396 13150000 		.4byte	.LASF103
 4593 039a AD61     		.2byte	0x61ad
 4594 039c 0C       		.uleb128 0xc
 4595 039d 0C130000 		.4byte	.LASF104
 4596 03a1 AE61     		.2byte	0x61ae
 4597 03a3 0C       		.uleb128 0xc
 4598 03a4 F5020000 		.4byte	.LASF105
 4599 03a8 AF61     		.2byte	0x61af
 4600 03aa 0C       		.uleb128 0xc
 4601 03ab 74020000 		.4byte	.LASF106
 4602 03af B061     		.2byte	0x61b0
 4603 03b1 0C       		.uleb128 0xc
 4604 03b2 C1050000 		.4byte	.LASF107
 4605 03b6 0D62     		.2byte	0x620d
 4606 03b8 0C       		.uleb128 0xc
 4607 03b9 B1110000 		.4byte	.LASF108
 4608 03bd 0E62     		.2byte	0x620e
 4609 03bf 0C       		.uleb128 0xc
 4610 03c0 12160000 		.4byte	.LASF109
 4611 03c4 7162     		.2byte	0x6271
 4612 03c6 0C       		.uleb128 0xc
 4613 03c7 07150000 		.4byte	.LASF110
 4614 03cb 7262     		.2byte	0x6272
 4615 03cd 0C       		.uleb128 0xc
 4616 03ce 14000000 		.4byte	.LASF111
 4617 03d2 7362     		.2byte	0x6273
 4618 03d4 0C       		.uleb128 0xc
 4619 03d5 FD0D0000 		.4byte	.LASF112
 4620 03d9 D562     		.2byte	0x62d5
 4621 03db 0C       		.uleb128 0xc
 4622 03dc 41010000 		.4byte	.LASF113
 4623 03e0 9065     		.2byte	0x6590
ARM GAS  C:\Users\ADMINI~1\AppData\Local\Temp\ccvBRVNC.s 			page 139


 4624 03e2 0C       		.uleb128 0xc
 4625 03e3 44130000 		.4byte	.LASF114
 4626 03e7 9165     		.2byte	0x6591
 4627 03e9 0C       		.uleb128 0xc
 4628 03ea 3B070000 		.4byte	.LASF115
 4629 03ee 9265     		.2byte	0x6592
 4630 03f0 0C       		.uleb128 0xc
 4631 03f1 C4090000 		.4byte	.LASF116
 4632 03f5 9365     		.2byte	0x6593
 4633 03f7 0C       		.uleb128 0xc
 4634 03f8 800B0000 		.4byte	.LASF117
 4635 03fc 9465     		.2byte	0x6594
 4636 03fe 0C       		.uleb128 0xc
 4637 03ff 4A010000 		.4byte	.LASF118
 4638 0403 7869     		.2byte	0x6978
 4639 0405 0C       		.uleb128 0xc
 4640 0406 2A0C0000 		.4byte	.LASF119
 4641 040a 7969     		.2byte	0x6979
 4642 040c 0C       		.uleb128 0xc
 4643 040d 890E0000 		.4byte	.LASF120
 4644 0411 7A69     		.2byte	0x697a
 4645 0413 0C       		.uleb128 0xc
 4646 0414 E20B0000 		.4byte	.LASF121
 4647 0418 7B69     		.2byte	0x697b
 4648 041a 0C       		.uleb128 0xc
 4649 041b 53010000 		.4byte	.LASF122
 4650 041f 606D     		.2byte	0x6d60
 4651 0421 0C       		.uleb128 0xc
 4652 0422 370A0000 		.4byte	.LASF123
 4653 0426 616D     		.2byte	0x6d61
 4654 0428 0C       		.uleb128 0xc
 4655 0429 99090000 		.4byte	.LASF124
 4656 042d 626D     		.2byte	0x6d62
 4657 042f 0C       		.uleb128 0xc
 4658 0430 9C140000 		.4byte	.LASF125
 4659 0434 636D     		.2byte	0x6d63
 4660 0436 0C       		.uleb128 0xc
 4661 0437 EF140000 		.4byte	.LASF126
 4662 043b 646D     		.2byte	0x6d64
 4663 043d 0C       		.uleb128 0xc
 4664 043e 8A0F0000 		.4byte	.LASF127
 4665 0442 656D     		.2byte	0x6d65
 4666 0444 0C       		.uleb128 0xc
 4667 0445 A6150000 		.4byte	.LASF128
 4668 0449 C56D     		.2byte	0x6dc5
 4669 044b 0C       		.uleb128 0xc
 4670 044c 88150000 		.4byte	.LASF129
 4671 0450 C66D     		.2byte	0x6dc6
 4672 0452 0C       		.uleb128 0xc
 4673 0453 D4020000 		.4byte	.LASF130
 4674 0457 296E     		.2byte	0x6e29
 4675 0459 0C       		.uleb128 0xc
 4676 045a A30A0000 		.4byte	.LASF131
 4677 045e 2A6E     		.2byte	0x6e2a
 4678 0460 0C       		.uleb128 0xc
 4679 0461 C1080000 		.4byte	.LASF132
 4680 0465 2B6E     		.2byte	0x6e2b
ARM GAS  C:\Users\ADMINI~1\AppData\Local\Temp\ccvBRVNC.s 			page 140


 4681 0467 0C       		.uleb128 0xc
 4682 0468 3E110000 		.4byte	.LASF133
 4683 046c 2C6E     		.2byte	0x6e2c
 4684 046e 0C       		.uleb128 0xc
 4685 046f 100E0000 		.4byte	.LASF134
 4686 0473 2D6E     		.2byte	0x6e2d
 4687 0475 0C       		.uleb128 0xc
 4688 0476 ED120000 		.4byte	.LASF135
 4689 047a 2E6E     		.2byte	0x6e2e
 4690 047c 0C       		.uleb128 0xc
 4691 047d 39020000 		.4byte	.LASF136
 4692 0481 2F6E     		.2byte	0x6e2f
 4693 0483 0C       		.uleb128 0xc
 4694 0484 3C120000 		.4byte	.LASF137
 4695 0488 306E     		.2byte	0x6e30
 4696 048a 0C       		.uleb128 0xc
 4697 048b D5110000 		.4byte	.LASF138
 4698 048f 316E     		.2byte	0x6e31
 4699 0491 0C       		.uleb128 0xc
 4700 0492 5C010000 		.4byte	.LASF139
 4701 0496 4871     		.2byte	0x7148
 4702 0498 0C       		.uleb128 0xc
 4703 0499 8C020000 		.4byte	.LASF140
 4704 049d 4971     		.2byte	0x7149
 4705 049f 0C       		.uleb128 0xc
 4706 04a0 25080000 		.4byte	.LASF141
 4707 04a4 4A71     		.2byte	0x714a
 4708 04a6 0C       		.uleb128 0xc
 4709 04a7 98130000 		.4byte	.LASF142
 4710 04ab 4B71     		.2byte	0x714b
 4711 04ad 0C       		.uleb128 0xc
 4712 04ae B5150000 		.4byte	.LASF143
 4713 04b2 4C71     		.2byte	0x714c
 4714 04b4 0C       		.uleb128 0xc
 4715 04b5 C3060000 		.4byte	.LASF144
 4716 04b9 4D71     		.2byte	0x714d
 4717 04bb 0C       		.uleb128 0xc
 4718 04bc DD0D0000 		.4byte	.LASF145
 4719 04c0 4E71     		.2byte	0x714e
 4720 04c2 0C       		.uleb128 0xc
 4721 04c3 350D0000 		.4byte	.LASF146
 4722 04c7 4F71     		.2byte	0x714f
 4723 04c9 0C       		.uleb128 0xc
 4724 04ca 580C0000 		.4byte	.LASF147
 4725 04ce 5071     		.2byte	0x7150
 4726 04d0 0C       		.uleb128 0xc
 4727 04d1 CF030000 		.4byte	.LASF148
 4728 04d5 5171     		.2byte	0x7151
 4729 04d7 0C       		.uleb128 0xc
 4730 04d8 0E0D0000 		.4byte	.LASF149
 4731 04dc 5271     		.2byte	0x7152
 4732 04de 0C       		.uleb128 0xc
 4733 04df A4030000 		.4byte	.LASF150
 4734 04e3 5371     		.2byte	0x7153
 4735 04e5 0C       		.uleb128 0xc
 4736 04e6 7E120000 		.4byte	.LASF151
 4737 04ea 5471     		.2byte	0x7154
ARM GAS  C:\Users\ADMINI~1\AppData\Local\Temp\ccvBRVNC.s 			page 141


 4738 04ec 0C       		.uleb128 0xc
 4739 04ed 5D020000 		.4byte	.LASF152
 4740 04f1 5571     		.2byte	0x7155
 4741 04f3 0C       		.uleb128 0xc
 4742 04f4 68050000 		.4byte	.LASF153
 4743 04f8 5671     		.2byte	0x7156
 4744 04fa 0C       		.uleb128 0xc
 4745 04fb 53100000 		.4byte	.LASF154
 4746 04ff 5771     		.2byte	0x7157
 4747 0501 0C       		.uleb128 0xc
 4748 0502 67060000 		.4byte	.LASF155
 4749 0506 5871     		.2byte	0x7158
 4750 0508 0C       		.uleb128 0xc
 4751 0509 F80E0000 		.4byte	.LASF156
 4752 050d 5971     		.2byte	0x7159
 4753 050f 0C       		.uleb128 0xc
 4754 0510 72150000 		.4byte	.LASF157
 4755 0514 5A71     		.2byte	0x715a
 4756 0516 0C       		.uleb128 0xc
 4757 0517 BB040000 		.4byte	.LASF158
 4758 051b 5B71     		.2byte	0x715b
 4759 051d 0C       		.uleb128 0xc
 4760 051e A3060000 		.4byte	.LASF159
 4761 0522 5C71     		.2byte	0x715c
 4762 0524 0C       		.uleb128 0xc
 4763 0525 44040000 		.4byte	.LASF160
 4764 0529 5D71     		.2byte	0x715d
 4765 052b 0C       		.uleb128 0xc
 4766 052c 660D0000 		.4byte	.LASF161
 4767 0530 5E71     		.2byte	0x715e
 4768 0532 0C       		.uleb128 0xc
 4769 0533 1E040000 		.4byte	.LASF162
 4770 0537 5F71     		.2byte	0x715f
 4771 0539 0C       		.uleb128 0xc
 4772 053a 5F0B0000 		.4byte	.LASF163
 4773 053e 6071     		.2byte	0x7160
 4774 0540 0C       		.uleb128 0xc
 4775 0541 0F070000 		.4byte	.LASF164
 4776 0545 AD71     		.2byte	0x71ad
 4777 0547 0C       		.uleb128 0xc
 4778 0548 3A060000 		.4byte	.LASF165
 4779 054c C071     		.2byte	0x71c0
 4780 054e 0C       		.uleb128 0xc
 4781 054f A70D0000 		.4byte	.LASF166
 4782 0553 C171     		.2byte	0x71c1
 4783 0555 0C       		.uleb128 0xc
 4784 0556 58140000 		.4byte	.LASF167
 4785 055a C271     		.2byte	0x71c2
 4786 055c 0C       		.uleb128 0xc
 4787 055d F6090000 		.4byte	.LASF168
 4788 0561 C371     		.2byte	0x71c3
 4789 0563 0C       		.uleb128 0xc
 4790 0564 AD070000 		.4byte	.LASF169
 4791 0568 C471     		.2byte	0x71c4
 4792 056a 0C       		.uleb128 0xc
 4793 056b F9150000 		.4byte	.LASF170
 4794 056f 1172     		.2byte	0x7211
ARM GAS  C:\Users\ADMINI~1\AppData\Local\Temp\ccvBRVNC.s 			page 142


 4795 0571 0C       		.uleb128 0xc
 4796 0572 FB0F0000 		.4byte	.LASF171
 4797 0576 1272     		.2byte	0x7212
 4798 0578 0C       		.uleb128 0xc
 4799 0579 FC010000 		.4byte	.LASF172
 4800 057d 1372     		.2byte	0x7213
 4801 057f 0C       		.uleb128 0xc
 4802 0580 EB0C0000 		.4byte	.LASF173
 4803 0584 1472     		.2byte	0x7214
 4804 0586 0C       		.uleb128 0xc
 4805 0587 C1110000 		.4byte	.LASF174
 4806 058b 7572     		.2byte	0x7275
 4807 058d 0C       		.uleb128 0xc
 4808 058e DE150000 		.4byte	.LASF175
 4809 0592 7672     		.2byte	0x7276
 4810 0594 0C       		.uleb128 0xc
 4811 0595 CA150000 		.4byte	.LASF176
 4812 0599 7772     		.2byte	0x7277
 4813 059b 0C       		.uleb128 0xc
 4814 059c ED070000 		.4byte	.LASF177
 4815 05a0 7872     		.2byte	0x7278
 4816 05a2 0C       		.uleb128 0xc
 4817 05a3 4C000000 		.4byte	.LASF178
 4818 05a7 7972     		.2byte	0x7279
 4819 05a9 0C       		.uleb128 0xc
 4820 05aa 7C130000 		.4byte	.LASF179
 4821 05ae 7A72     		.2byte	0x727a
 4822 05b0 0C       		.uleb128 0xc
 4823 05b1 4A070000 		.4byte	.LASF180
 4824 05b5 7B72     		.2byte	0x727b
 4825 05b7 0C       		.uleb128 0xc
 4826 05b8 BC0A0000 		.4byte	.LASF181
 4827 05bc 7C72     		.2byte	0x727c
 4828 05be 0C       		.uleb128 0xc
 4829 05bf 750E0000 		.4byte	.LASF182
 4830 05c3 7D72     		.2byte	0x727d
 4831 05c5 0C       		.uleb128 0xc
 4832 05c6 90080000 		.4byte	.LASF183
 4833 05ca 7E72     		.2byte	0x727e
 4834 05cc 0C       		.uleb128 0xc
 4835 05cd A4120000 		.4byte	.LASF184
 4836 05d1 D972     		.2byte	0x72d9
 4837 05d3 0C       		.uleb128 0xc
 4838 05d4 26060000 		.4byte	.LASF185
 4839 05d8 3D73     		.2byte	0x733d
 4840 05da 0C       		.uleb128 0xc
 4841 05db 6D090000 		.4byte	.LASF186
 4842 05df 3E73     		.2byte	0x733e
 4843 05e1 0C       		.uleb128 0xc
 4844 05e2 31050000 		.4byte	.LASF187
 4845 05e6 3F73     		.2byte	0x733f
 4846 05e8 0C       		.uleb128 0xc
 4847 05e9 89010000 		.4byte	.LASF188
 4848 05ed 4073     		.2byte	0x7340
 4849 05ef 0C       		.uleb128 0xc
 4850 05f0 71040000 		.4byte	.LASF189
 4851 05f4 4173     		.2byte	0x7341
ARM GAS  C:\Users\ADMINI~1\AppData\Local\Temp\ccvBRVNC.s 			page 143


 4852 05f6 0C       		.uleb128 0xc
 4853 05f7 83060000 		.4byte	.LASF190
 4854 05fb 4273     		.2byte	0x7342
 4855 05fd 0C       		.uleb128 0xc
 4856 05fe 3D000000 		.4byte	.LASF191
 4857 0602 4373     		.2byte	0x7343
 4858 0604 0C       		.uleb128 0xc
 4859 0605 0F060000 		.4byte	.LASF192
 4860 0609 4473     		.2byte	0x7344
 4861 060b 0C       		.uleb128 0xc
 4862 060c 07080000 		.4byte	.LASF193
 4863 0610 4573     		.2byte	0x7345
 4864 0612 0C       		.uleb128 0xc
 4865 0613 490D0000 		.4byte	.LASF194
 4866 0617 4673     		.2byte	0x7346
 4867 0619 0C       		.uleb128 0xc
 4868 061a E6060000 		.4byte	.LASF195
 4869 061e 4773     		.2byte	0x7347
 4870 0620 0C       		.uleb128 0xc
 4871 0621 CF0C0000 		.4byte	.LASF196
 4872 0625 4873     		.2byte	0x7348
 4873 0627 0C       		.uleb128 0xc
 4874 0628 5D120000 		.4byte	.LASF197
 4875 062c 4973     		.2byte	0x7349
 4876 062e 0C       		.uleb128 0xc
 4877 062f C10D0000 		.4byte	.LASF198
 4878 0633 4A73     		.2byte	0x734a
 4879 0635 0C       		.uleb128 0xc
 4880 0636 65010000 		.4byte	.LASF199
 4881 063a 3075     		.2byte	0x7530
 4882 063c 0C       		.uleb128 0xc
 4883 063d 6E010000 		.4byte	.LASF200
 4884 0641 1879     		.2byte	0x7918
 4885 0643 0C       		.uleb128 0xc
 4886 0644 77010000 		.4byte	.LASF201
 4887 0648 007D     		.2byte	0x7d00
 4888 064a 0C       		.uleb128 0xc
 4889 064b 80010000 		.4byte	.LASF202
 4890 064f E880     		.2byte	0x80e8
 4891 0651 0C       		.uleb128 0xc
 4892 0652 03130000 		.4byte	.LASF203
 4893 0656 D084     		.2byte	0x84d0
 4894 0658 0C       		.uleb128 0xc
 4895 0659 080B0000 		.4byte	.LASF204
 4896 065d D184     		.2byte	0x84d1
 4897 065f 0C       		.uleb128 0xc
 4898 0660 1C130000 		.4byte	.LASF205
 4899 0664 B888     		.2byte	0x88b8
 4900 0666 00       		.byte	0
 4901 0667 09       		.uleb128 0x9
 4902 0668 28000000 		.4byte	.LASF206
 4903 066c 05       		.byte	0x5
 4904 066d B502     		.2byte	0x2b5
 4905 066f C5010000 		.4byte	0x1c5
 4906 0673 09       		.uleb128 0x9
 4907 0674 5F090000 		.4byte	.LASF207
 4908 0678 05       		.byte	0x5
ARM GAS  C:\Users\ADMINI~1\AppData\Local\Temp\ccvBRVNC.s 			page 144


 4909 0679 C402     		.2byte	0x2c4
 4910 067b 7F060000 		.4byte	0x67f
 4911 067f 0D       		.uleb128 0xd
 4912 0680 08070000 		.4byte	.LASF213
 4913 0684 10       		.byte	0x10
 4914 0685 05       		.byte	0x5
 4915 0686 A303     		.2byte	0x3a3
 4916 0688 C1060000 		.4byte	0x6c1
 4917 068c 0E       		.uleb128 0xe
 4918 068d 250E0000 		.4byte	.LASF208
 4919 0691 05       		.byte	0x5
 4920 0692 A403     		.2byte	0x3a4
 4921 0694 F70B0000 		.4byte	0xbf7
 4922 0698 00       		.byte	0
 4923 0699 0E       		.uleb128 0xe
 4924 069a 51140000 		.4byte	.LASF209
 4925 069e 05       		.byte	0x5
 4926 069f A503     		.2byte	0x3a5
 4927 06a1 BA000000 		.4byte	0xba
 4928 06a5 04       		.byte	0x4
 4929 06a6 0E       		.uleb128 0xe
 4930 06a7 23110000 		.4byte	.LASF210
 4931 06ab 05       		.byte	0x5
 4932 06ac A603     		.2byte	0x3a6
 4933 06ae 36010000 		.4byte	0x136
 4934 06b2 08       		.byte	0x8
 4935 06b3 0E       		.uleb128 0xe
 4936 06b4 FF130000 		.4byte	.LASF211
 4937 06b8 05       		.byte	0x5
 4938 06b9 A803     		.2byte	0x3a8
 4939 06bb F4000000 		.4byte	0xf4
 4940 06bf 0C       		.byte	0xc
 4941 06c0 00       		.byte	0
 4942 06c1 09       		.uleb128 0x9
 4943 06c2 F00A0000 		.4byte	.LASF212
 4944 06c6 05       		.byte	0x5
 4945 06c7 C602     		.2byte	0x2c6
 4946 06c9 CD060000 		.4byte	0x6cd
 4947 06cd 0D       		.uleb128 0xd
 4948 06ce 24160000 		.4byte	.LASF214
 4949 06d2 10       		.byte	0x10
 4950 06d3 05       		.byte	0x5
 4951 06d4 BA03     		.2byte	0x3ba
 4952 06d6 1C070000 		.4byte	0x71c
 4953 06da 0E       		.uleb128 0xe
 4954 06db C7100000 		.4byte	.LASF215
 4955 06df 05       		.byte	0x5
 4956 06e0 BB03     		.2byte	0x3bb
 4957 06e2 F70B0000 		.4byte	0xbf7
 4958 06e6 00       		.byte	0
 4959 06e7 0E       		.uleb128 0xe
 4960 06e8 30130000 		.4byte	.LASF216
 4961 06ec 05       		.byte	0x5
 4962 06ed BC03     		.2byte	0x3bc
 4963 06ef F70B0000 		.4byte	0xbf7
 4964 06f3 04       		.byte	0x4
 4965 06f4 0E       		.uleb128 0xe
ARM GAS  C:\Users\ADMINI~1\AppData\Local\Temp\ccvBRVNC.s 			page 145


 4966 06f5 81080000 		.4byte	.LASF217
 4967 06f9 05       		.byte	0x5
 4968 06fa BD03     		.2byte	0x3bd
 4969 06fc 2B010000 		.4byte	0x12b
 4970 0700 08       		.byte	0x8
 4971 0701 0E       		.uleb128 0xe
 4972 0702 B0010000 		.4byte	.LASF218
 4973 0706 05       		.byte	0x5
 4974 0707 BE03     		.2byte	0x3be
 4975 0709 2B010000 		.4byte	0x12b
 4976 070d 0A       		.byte	0xa
 4977 070e 0E       		.uleb128 0xe
 4978 070f 2E150000 		.4byte	.LASF219
 4979 0713 05       		.byte	0x5
 4980 0714 C003     		.2byte	0x3c0
 4981 0716 2B010000 		.4byte	0x12b
 4982 071a 0C       		.byte	0xc
 4983 071b 00       		.byte	0
 4984 071c 09       		.uleb128 0x9
 4985 071d 30020000 		.4byte	.LASF220
 4986 0721 05       		.byte	0x5
 4987 0722 C802     		.2byte	0x2c8
 4988 0724 28070000 		.4byte	0x728
 4989 0728 0D       		.uleb128 0xd
 4990 0729 500E0000 		.4byte	.LASF221
 4991 072d 30       		.byte	0x30
 4992 072e 05       		.byte	0x5
 4993 072f D003     		.2byte	0x3d0
 4994 0731 B7070000 		.4byte	0x7b7
 4995 0735 0E       		.uleb128 0xe
 4996 0736 F90A0000 		.4byte	.LASF222
 4997 073a 05       		.byte	0x5
 4998 073b D303     		.2byte	0x3d3
 4999 073d 57010000 		.4byte	0x157
 5000 0741 00       		.byte	0
 5001 0742 0E       		.uleb128 0xe
 5002 0743 DD0A0000 		.4byte	.LASF223
 5003 0747 05       		.byte	0x5
 5004 0748 D603     		.2byte	0x3d6
 5005 074a F10B0000 		.4byte	0xbf1
 5006 074e 04       		.byte	0x4
 5007 074f 0E       		.uleb128 0xe
 5008 0750 77100000 		.4byte	.LASF224
 5009 0754 05       		.byte	0x5
 5010 0755 D803     		.2byte	0x3d8
 5011 0757 360B0000 		.4byte	0xb36
 5012 075b 08       		.byte	0x8
 5013 075c 0E       		.uleb128 0xe
 5014 075d E3030000 		.4byte	.LASF225
 5015 0761 05       		.byte	0x5
 5016 0762 DA03     		.2byte	0x3da
 5017 0764 FD0B0000 		.4byte	0xbfd
 5018 0768 14       		.byte	0x14
 5019 0769 0E       		.uleb128 0xe
 5020 076a FB030000 		.4byte	.LASF226
 5021 076e 05       		.byte	0x5
 5022 076f DB03     		.2byte	0x3db
ARM GAS  C:\Users\ADMINI~1\AppData\Local\Temp\ccvBRVNC.s 			page 146


 5023 0771 FD0B0000 		.4byte	0xbfd
 5024 0775 18       		.byte	0x18
 5025 0776 0E       		.uleb128 0xe
 5026 0777 25130000 		.4byte	.LASF227
 5027 077b 05       		.byte	0x5
 5028 077c DC03     		.2byte	0x3dc
 5029 077e F10B0000 		.4byte	0xbf1
 5030 0782 1C       		.byte	0x1c
 5031 0783 0E       		.uleb128 0xe
 5032 0784 DE0F0000 		.4byte	.LASF228
 5033 0788 05       		.byte	0x5
 5034 0789 DF03     		.2byte	0x3df
 5035 078b FD0B0000 		.4byte	0xbfd
 5036 078f 20       		.byte	0x20
 5037 0790 0E       		.uleb128 0xe
 5038 0791 53050000 		.4byte	.LASF229
 5039 0795 05       		.byte	0x5
 5040 0796 E003     		.2byte	0x3e0
 5041 0798 DF0B0000 		.4byte	0xbdf
 5042 079c 24       		.byte	0x24
 5043 079d 0E       		.uleb128 0xe
 5044 079e DF010000 		.4byte	.LASF230
 5045 07a2 05       		.byte	0x5
 5046 07a3 E103     		.2byte	0x3e1
 5047 07a5 41010000 		.4byte	0x141
 5048 07a9 28       		.byte	0x28
 5049 07aa 0F       		.uleb128 0xf
 5050 07ab 545300   		.ascii	"TS\000"
 5051 07ae 05       		.byte	0x5
 5052 07af E303     		.2byte	0x3e3
 5053 07b1 F4000000 		.4byte	0xf4
 5054 07b5 2C       		.byte	0x2c
 5055 07b6 00       		.byte	0
 5056 07b7 09       		.uleb128 0x9
 5057 07b8 CB120000 		.4byte	.LASF231
 5058 07bc 05       		.byte	0x5
 5059 07bd D402     		.2byte	0x2d4
 5060 07bf A9000000 		.4byte	0xa9
 5061 07c3 09       		.uleb128 0x9
 5062 07c4 20120000 		.4byte	.LASF232
 5063 07c8 05       		.byte	0x5
 5064 07c9 D902     		.2byte	0x2d9
 5065 07cb CF070000 		.4byte	0x7cf
 5066 07cf 0D       		.uleb128 0xd
 5067 07d0 00000000 		.4byte	.LASF233
 5068 07d4 C4       		.byte	0xc4
 5069 07d5 05       		.byte	0x5
 5070 07d6 5004     		.2byte	0x450
 5071 07d8 730A0000 		.4byte	0xa73
 5072 07dc 0E       		.uleb128 0xe
 5073 07dd 520B0000 		.4byte	.LASF234
 5074 07e1 05       		.byte	0x5
 5075 07e2 5104     		.2byte	0x451
 5076 07e4 030C0000 		.4byte	0xc03
 5077 07e8 00       		.byte	0
 5078 07e9 0E       		.uleb128 0xe
 5079 07ea 82110000 		.4byte	.LASF235
ARM GAS  C:\Users\ADMINI~1\AppData\Local\Temp\ccvBRVNC.s 			page 147


 5080 07ee 05       		.byte	0x5
 5081 07ef 5304     		.2byte	0x453
 5082 07f1 BA000000 		.4byte	0xba
 5083 07f5 04       		.byte	0x4
 5084 07f6 0E       		.uleb128 0xe
 5085 07f7 DD0A0000 		.4byte	.LASF223
 5086 07fb 05       		.byte	0x5
 5087 07fc 5604     		.2byte	0x456
 5088 07fe F10B0000 		.4byte	0xbf1
 5089 0802 08       		.byte	0x8
 5090 0803 0E       		.uleb128 0xe
 5091 0804 9D0C0000 		.4byte	.LASF236
 5092 0808 05       		.byte	0x5
 5093 0809 5A04     		.2byte	0x45a
 5094 080b 030C0000 		.4byte	0xc03
 5095 080f 0C       		.byte	0xc
 5096 0810 0E       		.uleb128 0xe
 5097 0811 250E0000 		.4byte	.LASF208
 5098 0815 05       		.byte	0x5
 5099 0816 5D04     		.2byte	0x45d
 5100 0818 DF0B0000 		.4byte	0xbdf
 5101 081c 10       		.byte	0x10
 5102 081d 0E       		.uleb128 0xe
 5103 081e D1090000 		.4byte	.LASF237
 5104 0822 05       		.byte	0x5
 5105 0823 5E04     		.2byte	0x45e
 5106 0825 DF0B0000 		.4byte	0xbdf
 5107 0829 14       		.byte	0x14
 5108 082a 0E       		.uleb128 0xe
 5109 082b 020D0000 		.4byte	.LASF238
 5110 082f 05       		.byte	0x5
 5111 0830 6104     		.2byte	0x461
 5112 0832 DF0B0000 		.4byte	0xbdf
 5113 0836 18       		.byte	0x18
 5114 0837 0E       		.uleb128 0xe
 5115 0838 AC080000 		.4byte	.LASF239
 5116 083c 05       		.byte	0x5
 5117 083d 6204     		.2byte	0x462
 5118 083f DF0B0000 		.4byte	0xbdf
 5119 0843 1C       		.byte	0x1c
 5120 0844 0E       		.uleb128 0xe
 5121 0845 690E0000 		.4byte	.LASF240
 5122 0849 05       		.byte	0x5
 5123 084a 6404     		.2byte	0x464
 5124 084c 090C0000 		.4byte	0xc09
 5125 0850 20       		.byte	0x20
 5126 0851 0E       		.uleb128 0xe
 5127 0852 2A070000 		.4byte	.LASF241
 5128 0856 05       		.byte	0x5
 5129 0857 6804     		.2byte	0x468
 5130 0859 030C0000 		.4byte	0xc03
 5131 085d 24       		.byte	0x24
 5132 085e 0E       		.uleb128 0xe
 5133 085f 950A0000 		.4byte	.LASF242
 5134 0863 05       		.byte	0x5
 5135 0864 7004     		.2byte	0x470
 5136 0866 B7070000 		.4byte	0x7b7
ARM GAS  C:\Users\ADMINI~1\AppData\Local\Temp\ccvBRVNC.s 			page 148


 5137 086a 28       		.byte	0x28
 5138 086b 0E       		.uleb128 0xe
 5139 086c 37130000 		.4byte	.LASF243
 5140 0870 05       		.byte	0x5
 5141 0871 7104     		.2byte	0x471
 5142 0873 BA000000 		.4byte	0xba
 5143 0877 2C       		.byte	0x2c
 5144 0878 0E       		.uleb128 0xe
 5145 0879 90100000 		.4byte	.LASF244
 5146 087d 05       		.byte	0x5
 5147 087e 7404     		.2byte	0x474
 5148 0880 E50B0000 		.4byte	0xbe5
 5149 0884 30       		.byte	0x30
 5150 0885 0E       		.uleb128 0xe
 5151 0886 8A040000 		.4byte	.LASF245
 5152 088a 05       		.byte	0x5
 5153 088b 7504     		.2byte	0x475
 5154 088d A4010000 		.4byte	0x1a4
 5155 0891 34       		.byte	0x34
 5156 0892 0E       		.uleb128 0xe
 5157 0893 E50A0000 		.4byte	.LASF246
 5158 0897 05       		.byte	0x5
 5159 0898 7604     		.2byte	0x476
 5160 089a AF010000 		.4byte	0x1af
 5161 089e 35       		.byte	0x35
 5162 089f 0E       		.uleb128 0xe
 5163 08a0 96070000 		.4byte	.LASF247
 5164 08a4 05       		.byte	0x5
 5165 08a5 7804     		.2byte	0x478
 5166 08a7 A4010000 		.4byte	0x1a4
 5167 08ab 36       		.byte	0x36
 5168 08ac 0E       		.uleb128 0xe
 5169 08ad C1140000 		.4byte	.LASF248
 5170 08b1 05       		.byte	0x5
 5171 08b2 7904     		.2byte	0x479
 5172 08b4 6D010000 		.4byte	0x16d
 5173 08b8 37       		.byte	0x37
 5174 08b9 0E       		.uleb128 0xe
 5175 08ba 29090000 		.4byte	.LASF249
 5176 08be 05       		.byte	0x5
 5177 08bf 7B04     		.2byte	0x47b
 5178 08c1 6D010000 		.4byte	0x16d
 5179 08c5 38       		.byte	0x38
 5180 08c6 0E       		.uleb128 0xe
 5181 08c7 A8020000 		.4byte	.LASF250
 5182 08cb 05       		.byte	0x5
 5183 08cc 7C04     		.2byte	0x47c
 5184 08ce FD0B0000 		.4byte	0xbfd
 5185 08d2 3C       		.byte	0x3c
 5186 08d3 0E       		.uleb128 0xe
 5187 08d4 22070000 		.4byte	.LASF251
 5188 08d8 05       		.byte	0x5
 5189 08d9 8004     		.2byte	0x480
 5190 08db D2000000 		.4byte	0xd2
 5191 08df 40       		.byte	0x40
 5192 08e0 0F       		.uleb128 0xf
 5193 08e1 4F707400 		.ascii	"Opt\000"
ARM GAS  C:\Users\ADMINI~1\AppData\Local\Temp\ccvBRVNC.s 			page 149


 5194 08e5 05       		.byte	0x5
 5195 08e6 8204     		.2byte	0x482
 5196 08e8 62010000 		.4byte	0x162
 5197 08ec 44       		.byte	0x44
 5198 08ed 0F       		.uleb128 0xf
 5199 08ee 545300   		.ascii	"TS\000"
 5200 08f1 05       		.byte	0x5
 5201 08f2 8804     		.2byte	0x488
 5202 08f4 F4000000 		.4byte	0xf4
 5203 08f8 48       		.byte	0x48
 5204 08f9 0E       		.uleb128 0xe
 5205 08fa B4100000 		.4byte	.LASF252
 5206 08fe 05       		.byte	0x5
 5207 08ff 8D04     		.2byte	0x48d
 5208 0901 99010000 		.4byte	0x199
 5209 0905 4C       		.byte	0x4c
 5210 0906 0E       		.uleb128 0xe
 5211 0907 D6100000 		.4byte	.LASF253
 5212 090b 05       		.byte	0x5
 5213 090c 9104     		.2byte	0x491
 5214 090e BA010000 		.4byte	0x1ba
 5215 0912 50       		.byte	0x50
 5216 0913 0E       		.uleb128 0xe
 5217 0914 75080000 		.4byte	.LASF254
 5218 0918 05       		.byte	0x5
 5219 0919 9204     		.2byte	0x492
 5220 091b BA010000 		.4byte	0x1ba
 5221 091f 54       		.byte	0x54
 5222 0920 0E       		.uleb128 0xe
 5223 0921 51140000 		.4byte	.LASF209
 5224 0925 05       		.byte	0x5
 5225 0926 9B04     		.2byte	0x49b
 5226 0928 BA000000 		.4byte	0xba
 5227 092c 58       		.byte	0x58
 5228 092d 0E       		.uleb128 0xe
 5229 092e 23110000 		.4byte	.LASF210
 5230 0932 05       		.byte	0x5
 5231 0933 9C04     		.2byte	0x49c
 5232 0935 36010000 		.4byte	0x136
 5233 0939 5C       		.byte	0x5c
 5234 093a 0E       		.uleb128 0xe
 5235 093b 850A0000 		.4byte	.LASF255
 5236 093f 05       		.byte	0x5
 5237 0940 A004     		.2byte	0x4a0
 5238 0942 C1060000 		.4byte	0x6c1
 5239 0946 60       		.byte	0x60
 5240 0947 0E       		.uleb128 0xe
 5241 0948 430E0000 		.4byte	.LASF256
 5242 094c 05       		.byte	0x5
 5243 094d A204     		.2byte	0x4a2
 5244 094f F4000000 		.4byte	0xf4
 5245 0953 70       		.byte	0x70
 5246 0954 0E       		.uleb128 0xe
 5247 0955 3C090000 		.4byte	.LASF257
 5248 0959 05       		.byte	0x5
 5249 095a A304     		.2byte	0x4a3
 5250 095c F4000000 		.4byte	0xf4
ARM GAS  C:\Users\ADMINI~1\AppData\Local\Temp\ccvBRVNC.s 			page 150


 5251 0960 74       		.byte	0x74
 5252 0961 0E       		.uleb128 0xe
 5253 0962 97150000 		.4byte	.LASF258
 5254 0966 05       		.byte	0x5
 5255 0967 A804     		.2byte	0x4a8
 5256 0969 0F0C0000 		.4byte	0xc0f
 5257 096d 78       		.byte	0x78
 5258 096e 0E       		.uleb128 0xe
 5259 096f 27050000 		.4byte	.LASF259
 5260 0973 05       		.byte	0x5
 5261 0974 AC04     		.2byte	0x4ac
 5262 0976 20010000 		.4byte	0x120
 5263 097a 7C       		.byte	0x7c
 5264 097b 0E       		.uleb128 0xe
 5265 097c B8080000 		.4byte	.LASF260
 5266 0980 05       		.byte	0x5
 5267 0981 AD04     		.2byte	0x4ad
 5268 0983 20010000 		.4byte	0x120
 5269 0987 80       		.byte	0x80
 5270 0988 0E       		.uleb128 0xe
 5271 0989 54020000 		.4byte	.LASF261
 5272 098d 05       		.byte	0x5
 5273 098e AE04     		.2byte	0x4ae
 5274 0990 62010000 		.4byte	0x162
 5275 0994 84       		.byte	0x84
 5276 0995 0E       		.uleb128 0xe
 5277 0996 920C0000 		.4byte	.LASF262
 5278 099a 05       		.byte	0x5
 5279 099b B204     		.2byte	0x4b2
 5280 099d 41010000 		.4byte	0x141
 5281 09a1 86       		.byte	0x86
 5282 09a2 0E       		.uleb128 0xe
 5283 09a3 E6140000 		.4byte	.LASF263
 5284 09a7 05       		.byte	0x5
 5285 09a8 B604     		.2byte	0x4b6
 5286 09aa FF000000 		.4byte	0xff
 5287 09ae 88       		.byte	0x88
 5288 09af 0E       		.uleb128 0xe
 5289 09b0 6B100000 		.4byte	.LASF264
 5290 09b4 05       		.byte	0x5
 5291 09b5 B704     		.2byte	0x4b7
 5292 09b7 FF000000 		.4byte	0xff
 5293 09bb 8A       		.byte	0x8a
 5294 09bc 0E       		.uleb128 0xe
 5295 09bd 5F050000 		.4byte	.LASF265
 5296 09c1 05       		.byte	0x5
 5297 09c2 B804     		.2byte	0x4b8
 5298 09c4 0A010000 		.4byte	0x10a
 5299 09c8 8C       		.byte	0x8c
 5300 09c9 0E       		.uleb128 0xe
 5301 09ca B80C0000 		.4byte	.LASF266
 5302 09ce 05       		.byte	0x5
 5303 09cf B904     		.2byte	0x4b9
 5304 09d1 F4000000 		.4byte	0xf4
 5305 09d5 90       		.byte	0x90
 5306 09d6 0E       		.uleb128 0xe
 5307 09d7 8E0B0000 		.4byte	.LASF267
ARM GAS  C:\Users\ADMINI~1\AppData\Local\Temp\ccvBRVNC.s 			page 151


 5308 09db 05       		.byte	0x5
 5309 09dc BA04     		.2byte	0x4ba
 5310 09de F4000000 		.4byte	0xf4
 5311 09e2 94       		.byte	0x94
 5312 09e3 0E       		.uleb128 0xe
 5313 09e4 3B100000 		.4byte	.LASF268
 5314 09e8 05       		.byte	0x5
 5315 09e9 BB04     		.2byte	0x4bb
 5316 09eb 15010000 		.4byte	0x115
 5317 09ef 98       		.byte	0x98
 5318 09f0 0E       		.uleb128 0xe
 5319 09f1 CE0F0000 		.4byte	.LASF269
 5320 09f5 05       		.byte	0x5
 5321 09f6 BC04     		.2byte	0x4bc
 5322 09f8 15010000 		.4byte	0x115
 5323 09fc 9C       		.byte	0x9c
 5324 09fd 0E       		.uleb128 0xe
 5325 09fe F10D0000 		.4byte	.LASF270
 5326 0a02 05       		.byte	0x5
 5327 0a03 BE04     		.2byte	0x4be
 5328 0a05 F4000000 		.4byte	0xf4
 5329 0a09 A0       		.byte	0xa0
 5330 0a0a 0E       		.uleb128 0xe
 5331 0a0b A20F0000 		.4byte	.LASF271
 5332 0a0f 05       		.byte	0x5
 5333 0a10 BF04     		.2byte	0x4bf
 5334 0a12 F4000000 		.4byte	0xf4
 5335 0a16 A4       		.byte	0xa4
 5336 0a17 0E       		.uleb128 0xe
 5337 0a18 7B060000 		.4byte	.LASF272
 5338 0a1c 05       		.byte	0x5
 5339 0a1d C304     		.2byte	0x4c3
 5340 0a1f D2000000 		.4byte	0xd2
 5341 0a23 A8       		.byte	0xa8
 5342 0a24 0E       		.uleb128 0xe
 5343 0a25 6D080000 		.4byte	.LASF273
 5344 0a29 05       		.byte	0x5
 5345 0a2a C404     		.2byte	0x4c4
 5346 0a2c D2000000 		.4byte	0xd2
 5347 0a30 AC       		.byte	0xac
 5348 0a31 0E       		.uleb128 0xe
 5349 0a32 570F0000 		.4byte	.LASF274
 5350 0a36 05       		.byte	0x5
 5351 0a37 C804     		.2byte	0x4c8
 5352 0a39 F4000000 		.4byte	0xf4
 5353 0a3d B0       		.byte	0xb0
 5354 0a3e 0E       		.uleb128 0xe
 5355 0a3f 0D040000 		.4byte	.LASF275
 5356 0a43 05       		.byte	0x5
 5357 0a44 CB04     		.2byte	0x4cb
 5358 0a46 F4000000 		.4byte	0xf4
 5359 0a4a B4       		.byte	0xb4
 5360 0a4b 0E       		.uleb128 0xe
 5361 0a4c E3030000 		.4byte	.LASF225
 5362 0a50 05       		.byte	0x5
 5363 0a51 CF04     		.2byte	0x4cf
 5364 0a53 DF0B0000 		.4byte	0xbdf
ARM GAS  C:\Users\ADMINI~1\AppData\Local\Temp\ccvBRVNC.s 			page 152


 5365 0a57 B8       		.byte	0xb8
 5366 0a58 0E       		.uleb128 0xe
 5367 0a59 FB030000 		.4byte	.LASF226
 5368 0a5d 05       		.byte	0x5
 5369 0a5e D004     		.2byte	0x4d0
 5370 0a60 DF0B0000 		.4byte	0xbdf
 5371 0a64 BC       		.byte	0xbc
 5372 0a65 0E       		.uleb128 0xe
 5373 0a66 25130000 		.4byte	.LASF227
 5374 0a6a 05       		.byte	0x5
 5375 0a6b D104     		.2byte	0x4d1
 5376 0a6d F10B0000 		.4byte	0xbf1
 5377 0a71 C0       		.byte	0xc0
 5378 0a72 00       		.byte	0
 5379 0a73 09       		.uleb128 0x9
 5380 0a74 EE0F0000 		.4byte	.LASF276
 5381 0a78 05       		.byte	0x5
 5382 0a79 E702     		.2byte	0x2e7
 5383 0a7b 7F0A0000 		.4byte	0xa7f
 5384 0a7f 0D       		.uleb128 0xd
 5385 0a80 100F0000 		.4byte	.LASF277
 5386 0a84 08       		.byte	0x8
 5387 0a85 05       		.byte	0x5
 5388 0a86 DF04     		.2byte	0x4df
 5389 0a88 B40A0000 		.4byte	0xab4
 5390 0a8c 0E       		.uleb128 0xe
 5391 0a8d A4040000 		.4byte	.LASF278
 5392 0a91 05       		.byte	0x5
 5393 0a92 E004     		.2byte	0x4e0
 5394 0a94 DF0B0000 		.4byte	0xbdf
 5395 0a98 00       		.byte	0
 5396 0a99 0E       		.uleb128 0xe
 5397 0a9a B0010000 		.4byte	.LASF218
 5398 0a9e 05       		.byte	0x5
 5399 0a9f E204     		.2byte	0x4e2
 5400 0aa1 4C010000 		.4byte	0x14c
 5401 0aa5 04       		.byte	0x4
 5402 0aa6 0E       		.uleb128 0xe
 5403 0aa7 DB060000 		.4byte	.LASF279
 5404 0aab 05       		.byte	0x5
 5405 0aac E304     		.2byte	0x4e3
 5406 0aae 4C010000 		.4byte	0x14c
 5407 0ab2 06       		.byte	0x6
 5408 0ab3 00       		.byte	0
 5409 0ab4 09       		.uleb128 0x9
 5410 0ab5 96060000 		.4byte	.LASF280
 5411 0ab9 05       		.byte	0x5
 5412 0aba EC02     		.2byte	0x2ec
 5413 0abc C00A0000 		.4byte	0xac0
 5414 0ac0 0D       		.uleb128 0xd
 5415 0ac1 85140000 		.4byte	.LASF281
 5416 0ac5 20       		.byte	0x20
 5417 0ac6 05       		.byte	0x5
 5418 0ac7 2803     		.2byte	0x328
 5419 0ac9 360B0000 		.4byte	0xb36
 5420 0acd 0E       		.uleb128 0xe
 5421 0ace D1090000 		.4byte	.LASF237
ARM GAS  C:\Users\ADMINI~1\AppData\Local\Temp\ccvBRVNC.s 			page 153


 5422 0ad2 05       		.byte	0x5
 5423 0ad3 2903     		.2byte	0x329
 5424 0ad5 E50B0000 		.4byte	0xbe5
 5425 0ad9 00       		.byte	0
 5426 0ada 0E       		.uleb128 0xe
 5427 0adb 250E0000 		.4byte	.LASF208
 5428 0adf 05       		.byte	0x5
 5429 0ae0 2A03     		.2byte	0x32a
 5430 0ae2 E50B0000 		.4byte	0xbe5
 5431 0ae6 04       		.byte	0x4
 5432 0ae7 0E       		.uleb128 0xe
 5433 0ae8 B90B0000 		.4byte	.LASF282
 5434 0aec 05       		.byte	0x5
 5435 0aed 2B03     		.2byte	0x32b
 5436 0aef DF0B0000 		.4byte	0xbdf
 5437 0af3 08       		.byte	0x8
 5438 0af4 0E       		.uleb128 0xe
 5439 0af5 23150000 		.4byte	.LASF283
 5440 0af9 05       		.byte	0x5
 5441 0afa 2C03     		.2byte	0x32c
 5442 0afc EB0B0000 		.4byte	0xbeb
 5443 0b00 0C       		.byte	0xc
 5444 0b01 0E       		.uleb128 0xe
 5445 0b02 7F0D0000 		.4byte	.LASF284
 5446 0b06 05       		.byte	0x5
 5447 0b07 2D03     		.2byte	0x32d
 5448 0b09 EB0B0000 		.4byte	0xbeb
 5449 0b0d 10       		.byte	0x10
 5450 0b0e 0E       		.uleb128 0xe
 5451 0b0f E6040000 		.4byte	.LASF285
 5452 0b13 05       		.byte	0x5
 5453 0b14 2E03     		.2byte	0x32e
 5454 0b16 BA000000 		.4byte	0xba
 5455 0b1a 14       		.byte	0x14
 5456 0b1b 0E       		.uleb128 0xe
 5457 0b1c 360F0000 		.4byte	.LASF286
 5458 0b20 05       		.byte	0x5
 5459 0b21 2F03     		.2byte	0x32f
 5460 0b23 36010000 		.4byte	0x136
 5461 0b27 18       		.byte	0x18
 5462 0b28 0E       		.uleb128 0xe
 5463 0b29 D10E0000 		.4byte	.LASF287
 5464 0b2d 05       		.byte	0x5
 5465 0b2e 3103     		.2byte	0x331
 5466 0b30 F4000000 		.4byte	0xf4
 5467 0b34 1C       		.byte	0x1c
 5468 0b35 00       		.byte	0
 5469 0b36 09       		.uleb128 0x9
 5470 0b37 A8130000 		.4byte	.LASF288
 5471 0b3b 05       		.byte	0x5
 5472 0b3c ED02     		.2byte	0x2ed
 5473 0b3e 420B0000 		.4byte	0xb42
 5474 0b42 0D       		.uleb128 0xd
 5475 0b43 4D150000 		.4byte	.LASF289
 5476 0b47 0C       		.byte	0xc
 5477 0b48 05       		.byte	0x5
 5478 0b49 3603     		.2byte	0x336
ARM GAS  C:\Users\ADMINI~1\AppData\Local\Temp\ccvBRVNC.s 			page 154


 5479 0b4b 770B0000 		.4byte	0xb77
 5480 0b4f 0E       		.uleb128 0xe
 5481 0b50 E1100000 		.4byte	.LASF290
 5482 0b54 05       		.byte	0x5
 5483 0b55 3703     		.2byte	0x337
 5484 0b57 E50B0000 		.4byte	0xbe5
 5485 0b5b 00       		.byte	0
 5486 0b5c 0E       		.uleb128 0xe
 5487 0b5d AC040000 		.4byte	.LASF291
 5488 0b61 05       		.byte	0x5
 5489 0b62 3803     		.2byte	0x338
 5490 0b64 E50B0000 		.4byte	0xbe5
 5491 0b68 04       		.byte	0x4
 5492 0b69 0E       		.uleb128 0xe
 5493 0b6a B0010000 		.4byte	.LASF218
 5494 0b6e 05       		.byte	0x5
 5495 0b6f 3A03     		.2byte	0x33a
 5496 0b71 4C010000 		.4byte	0x14c
 5497 0b75 08       		.byte	0x8
 5498 0b76 00       		.byte	0
 5499 0b77 09       		.uleb128 0x9
 5500 0b78 47100000 		.4byte	.LASF292
 5501 0b7c 05       		.byte	0x5
 5502 0b7d EE02     		.2byte	0x2ee
 5503 0b7f 830B0000 		.4byte	0xb83
 5504 0b83 0D       		.uleb128 0xd
 5505 0b84 F0040000 		.4byte	.LASF293
 5506 0b88 20       		.byte	0x20
 5507 0b89 05       		.byte	0x5
 5508 0b8a 4E03     		.2byte	0x34e
 5509 0b8c DF0B0000 		.4byte	0xbdf
 5510 0b90 0E       		.uleb128 0xe
 5511 0b91 F90A0000 		.4byte	.LASF222
 5512 0b95 05       		.byte	0x5
 5513 0b96 5003     		.2byte	0x350
 5514 0b98 57010000 		.4byte	0x157
 5515 0b9c 00       		.byte	0
 5516 0b9d 0E       		.uleb128 0xe
 5517 0b9e DD0A0000 		.4byte	.LASF223
 5518 0ba2 05       		.byte	0x5
 5519 0ba3 5303     		.2byte	0x353
 5520 0ba5 F10B0000 		.4byte	0xbf1
 5521 0ba9 04       		.byte	0x4
 5522 0baa 0E       		.uleb128 0xe
 5523 0bab 77100000 		.4byte	.LASF224
 5524 0baf 05       		.byte	0x5
 5525 0bb0 5503     		.2byte	0x355
 5526 0bb2 360B0000 		.4byte	0xb36
 5527 0bb6 08       		.byte	0x8
 5528 0bb7 0E       		.uleb128 0xe
 5529 0bb8 E3030000 		.4byte	.LASF225
 5530 0bbc 05       		.byte	0x5
 5531 0bbd 5703     		.2byte	0x357
 5532 0bbf BA000000 		.4byte	0xba
 5533 0bc3 14       		.byte	0x14
 5534 0bc4 0E       		.uleb128 0xe
 5535 0bc5 FB030000 		.4byte	.LASF226
ARM GAS  C:\Users\ADMINI~1\AppData\Local\Temp\ccvBRVNC.s 			page 155


 5536 0bc9 05       		.byte	0x5
 5537 0bca 5803     		.2byte	0x358
 5538 0bcc BA000000 		.4byte	0xba
 5539 0bd0 18       		.byte	0x18
 5540 0bd1 0E       		.uleb128 0xe
 5541 0bd2 25130000 		.4byte	.LASF227
 5542 0bd6 05       		.byte	0x5
 5543 0bd7 5903     		.2byte	0x359
 5544 0bd9 F10B0000 		.4byte	0xbf1
 5545 0bdd 1C       		.byte	0x1c
 5546 0bde 00       		.byte	0
 5547 0bdf 05       		.uleb128 0x5
 5548 0be0 04       		.byte	0x4
 5549 0be1 C3070000 		.4byte	0x7c3
 5550 0be5 05       		.uleb128 0x5
 5551 0be6 04       		.byte	0x4
 5552 0be7 B40A0000 		.4byte	0xab4
 5553 0beb 05       		.uleb128 0x5
 5554 0bec 04       		.byte	0x4
 5555 0bed 770B0000 		.4byte	0xb77
 5556 0bf1 05       		.uleb128 0x5
 5557 0bf2 04       		.byte	0x4
 5558 0bf3 25000000 		.4byte	0x25
 5559 0bf7 05       		.uleb128 0x5
 5560 0bf8 04       		.byte	0x4
 5561 0bf9 73060000 		.4byte	0x673
 5562 0bfd 05       		.uleb128 0x5
 5563 0bfe 04       		.byte	0x4
 5564 0bff 1C070000 		.4byte	0x71c
 5565 0c03 05       		.uleb128 0x5
 5566 0c04 04       		.byte	0x4
 5567 0c05 C7000000 		.4byte	0xc7
 5568 0c09 05       		.uleb128 0x5
 5569 0c0a 04       		.byte	0x4
 5570 0c0b 730A0000 		.4byte	0xa73
 5571 0c0f 10       		.uleb128 0x10
 5572 0c10 83010000 		.4byte	0x183
 5573 0c14 1F0C0000 		.4byte	0xc1f
 5574 0c18 11       		.uleb128 0x11
 5575 0c19 1F0C0000 		.4byte	0xc1f
 5576 0c1d 00       		.byte	0
 5577 0c1e 00       		.byte	0
 5578 0c1f 03       		.uleb128 0x3
 5579 0c20 04       		.byte	0x4
 5580 0c21 07       		.byte	0x7
 5581 0c22 89110000 		.4byte	.LASF294
 5582 0c26 12       		.uleb128 0x12
 5583 0c27 52130000 		.4byte	.LASF300
 5584 0c2b 01       		.byte	0x1
 5585 0c2c 47       		.byte	0x47
 5586 0c2d 00000000 		.4byte	.LFB0
 5587 0c31 24010000 		.4byte	.LFE0-.LFB0
 5588 0c35 01       		.uleb128 0x1
 5589 0c36 9C       		.byte	0x9c
 5590 0c37 820C0000 		.4byte	0xc82
 5591 0c3b 13       		.uleb128 0x13
 5592 0c3c 590B0000 		.4byte	.LASF295
ARM GAS  C:\Users\ADMINI~1\AppData\Local\Temp\ccvBRVNC.s 			page 156


 5593 0c40 01       		.byte	0x1
 5594 0c41 47       		.byte	0x47
 5595 0c42 DF0B0000 		.4byte	0xbdf
 5596 0c46 02       		.uleb128 0x2
 5597 0c47 91       		.byte	0x91
 5598 0c48 64       		.sleb128 -28
 5599 0c49 13       		.uleb128 0x13
 5600 0c4a CD100000 		.4byte	.LASF296
 5601 0c4e 01       		.byte	0x1
 5602 0c4f 48       		.byte	0x48
 5603 0c50 6D010000 		.4byte	0x16d
 5604 0c54 02       		.uleb128 0x2
 5605 0c55 91       		.byte	0x91
 5606 0c56 63       		.sleb128 -29
 5607 0c57 13       		.uleb128 0x13
 5608 0c58 BE090000 		.4byte	.LASF297
 5609 0c5c 01       		.byte	0x1
 5610 0c5d 49       		.byte	0x49
 5611 0c5e 820C0000 		.4byte	0xc82
 5612 0c62 02       		.uleb128 0x2
 5613 0c63 91       		.byte	0x91
 5614 0c64 5C       		.sleb128 -36
 5615 0c65 14       		.uleb128 0x14
 5616 0c66 E9100000 		.4byte	.LASF298
 5617 0c6a 01       		.byte	0x1
 5618 0c6b 4C       		.byte	0x4c
 5619 0c6c 6D010000 		.4byte	0x16d
 5620 0c70 02       		.uleb128 0x2
 5621 0c71 91       		.byte	0x91
 5622 0c72 6B       		.sleb128 -21
 5623 0c73 14       		.uleb128 0x14
 5624 0c74 08060000 		.4byte	.LASF299
 5625 0c78 01       		.byte	0x1
 5626 0c79 4E       		.byte	0x4e
 5627 0c7a DD000000 		.4byte	0xdd
 5628 0c7e 02       		.uleb128 0x2
 5629 0c7f 91       		.byte	0x91
 5630 0c80 6C       		.sleb128 -20
 5631 0c81 00       		.byte	0
 5632 0c82 05       		.uleb128 0x5
 5633 0c83 04       		.byte	0x4
 5634 0c84 67060000 		.4byte	0x667
 5635 0c88 12       		.uleb128 0x12
 5636 0c89 07000000 		.4byte	.LASF301
 5637 0c8d 01       		.byte	0x1
 5638 0c8e F0       		.byte	0xf0
 5639 0c8f 00000000 		.4byte	.LFB1
 5640 0c93 60020000 		.4byte	.LFE1-.LFB1
 5641 0c97 01       		.uleb128 0x1
 5642 0c98 9C       		.byte	0x9c
 5643 0c99 9C0D0000 		.4byte	0xd9c
 5644 0c9d 13       		.uleb128 0x13
 5645 0c9e 590B0000 		.4byte	.LASF295
 5646 0ca2 01       		.byte	0x1
 5647 0ca3 F0       		.byte	0xf0
 5648 0ca4 DF0B0000 		.4byte	0xbdf
 5649 0ca8 02       		.uleb128 0x2
ARM GAS  C:\Users\ADMINI~1\AppData\Local\Temp\ccvBRVNC.s 			page 157


 5650 0ca9 91       		.byte	0x91
 5651 0caa 54       		.sleb128 -44
 5652 0cab 13       		.uleb128 0x13
 5653 0cac 66090000 		.4byte	.LASF302
 5654 0cb0 01       		.byte	0x1
 5655 0cb1 F1       		.byte	0xf1
 5656 0cb2 F10B0000 		.4byte	0xbf1
 5657 0cb6 02       		.uleb128 0x2
 5658 0cb7 91       		.byte	0x91
 5659 0cb8 50       		.sleb128 -48
 5660 0cb9 13       		.uleb128 0x13
 5661 0cba 27120000 		.4byte	.LASF303
 5662 0cbe 01       		.byte	0x1
 5663 0cbf F2       		.byte	0xf2
 5664 0cc0 B7070000 		.4byte	0x7b7
 5665 0cc4 02       		.uleb128 0x2
 5666 0cc5 91       		.byte	0x91
 5667 0cc6 4C       		.sleb128 -52
 5668 0cc7 13       		.uleb128 0x13
 5669 0cc8 7C110000 		.4byte	.LASF304
 5670 0ccc 01       		.byte	0x1
 5671 0ccd F3       		.byte	0xf3
 5672 0cce BA000000 		.4byte	0xba
 5673 0cd2 02       		.uleb128 0x2
 5674 0cd3 91       		.byte	0x91
 5675 0cd4 48       		.sleb128 -56
 5676 0cd5 13       		.uleb128 0x13
 5677 0cd6 94090000 		.4byte	.LASF305
 5678 0cda 01       		.byte	0x1
 5679 0cdb F4       		.byte	0xf4
 5680 0cdc 6D010000 		.4byte	0x16d
 5681 0ce0 02       		.uleb128 0x2
 5682 0ce1 91       		.byte	0x91
 5683 0ce2 00       		.sleb128 0
 5684 0ce3 13       		.uleb128 0x13
 5685 0ce4 C30F0000 		.4byte	.LASF306
 5686 0ce8 01       		.byte	0x1
 5687 0ce9 F5       		.byte	0xf5
 5688 0cea 030C0000 		.4byte	0xc03
 5689 0cee 02       		.uleb128 0x2
 5690 0cef 91       		.byte	0x91
 5691 0cf0 04       		.sleb128 4
 5692 0cf1 13       		.uleb128 0x13
 5693 0cf2 FE0A0000 		.4byte	.LASF307
 5694 0cf6 01       		.byte	0x1
 5695 0cf7 F6       		.byte	0xf6
 5696 0cf8 D2000000 		.4byte	0xd2
 5697 0cfc 02       		.uleb128 0x2
 5698 0cfd 91       		.byte	0x91
 5699 0cfe 08       		.sleb128 8
 5700 0cff 13       		.uleb128 0x13
 5701 0d00 D70E0000 		.4byte	.LASF308
 5702 0d04 01       		.byte	0x1
 5703 0d05 F7       		.byte	0xf7
 5704 0d06 D2000000 		.4byte	0xd2
 5705 0d0a 02       		.uleb128 0x2
 5706 0d0b 91       		.byte	0x91
ARM GAS  C:\Users\ADMINI~1\AppData\Local\Temp\ccvBRVNC.s 			page 158


 5707 0d0c 0C       		.sleb128 12
 5708 0d0d 13       		.uleb128 0x13
 5709 0d0e C6140000 		.4byte	.LASF309
 5710 0d12 01       		.byte	0x1
 5711 0d13 F8       		.byte	0xf8
 5712 0d14 2B010000 		.4byte	0x12b
 5713 0d18 02       		.uleb128 0x2
 5714 0d19 91       		.byte	0x91
 5715 0d1a 10       		.sleb128 16
 5716 0d1b 13       		.uleb128 0x13
 5717 0d1c 2B0A0000 		.4byte	.LASF310
 5718 0d20 01       		.byte	0x1
 5719 0d21 F9       		.byte	0xf9
 5720 0d22 BA010000 		.4byte	0x1ba
 5721 0d26 02       		.uleb128 0x2
 5722 0d27 91       		.byte	0x91
 5723 0d28 14       		.sleb128 20
 5724 0d29 13       		.uleb128 0x13
 5725 0d2a 840F0000 		.4byte	.LASF311
 5726 0d2e 01       		.byte	0x1
 5727 0d2f FA       		.byte	0xfa
 5728 0d30 BA000000 		.4byte	0xba
 5729 0d34 02       		.uleb128 0x2
 5730 0d35 91       		.byte	0x91
 5731 0d36 18       		.sleb128 24
 5732 0d37 15       		.uleb128 0x15
 5733 0d38 6F707400 		.ascii	"opt\000"
 5734 0d3c 01       		.byte	0x1
 5735 0d3d FB       		.byte	0xfb
 5736 0d3e 62010000 		.4byte	0x162
 5737 0d42 02       		.uleb128 0x2
 5738 0d43 91       		.byte	0x91
 5739 0d44 1C       		.sleb128 28
 5740 0d45 13       		.uleb128 0x13
 5741 0d46 BE090000 		.4byte	.LASF297
 5742 0d4a 01       		.byte	0x1
 5743 0d4b FC       		.byte	0xfc
 5744 0d4c 820C0000 		.4byte	0xc82
 5745 0d50 02       		.uleb128 0x2
 5746 0d51 91       		.byte	0x91
 5747 0d52 20       		.sleb128 32
 5748 0d53 16       		.uleb128 0x16
 5749 0d54 6900     		.ascii	"i\000"
 5750 0d56 01       		.byte	0x1
 5751 0d57 FE       		.byte	0xfe
 5752 0d58 D2000000 		.4byte	0xd2
 5753 0d5c 02       		.uleb128 0x2
 5754 0d5d 91       		.byte	0x91
 5755 0d5e 6C       		.sleb128 -20
 5756 0d5f 17       		.uleb128 0x17
 5757 0d60 4C020000 		.4byte	.LASF312
 5758 0d64 01       		.byte	0x1
 5759 0d65 0001     		.2byte	0x100
 5760 0d67 8E010000 		.4byte	0x18e
 5761 0d6b 02       		.uleb128 0x2
 5762 0d6c 91       		.byte	0x91
 5763 0d6d 6B       		.sleb128 -21
ARM GAS  C:\Users\ADMINI~1\AppData\Local\Temp\ccvBRVNC.s 			page 159


 5764 0d6e 17       		.uleb128 0x17
 5765 0d6f 7B0B0000 		.4byte	.LASF313
 5766 0d73 01       		.byte	0x1
 5767 0d74 0601     		.2byte	0x106
 5768 0d76 030C0000 		.4byte	0xc03
 5769 0d7a 02       		.uleb128 0x2
 5770 0d7b 91       		.byte	0x91
 5771 0d7c 64       		.sleb128 -28
 5772 0d7d 17       		.uleb128 0x17
 5773 0d7e EA090000 		.4byte	.LASF314
 5774 0d82 01       		.byte	0x1
 5775 0d83 0701     		.2byte	0x107
 5776 0d85 030C0000 		.4byte	0xc03
 5777 0d89 02       		.uleb128 0x2
 5778 0d8a 91       		.byte	0x91
 5779 0d8b 5C       		.sleb128 -36
 5780 0d8c 17       		.uleb128 0x17
 5781 0d8d 08060000 		.4byte	.LASF299
 5782 0d91 01       		.byte	0x1
 5783 0d92 0801     		.2byte	0x108
 5784 0d94 DD000000 		.4byte	0xdd
 5785 0d98 02       		.uleb128 0x2
 5786 0d99 91       		.byte	0x91
 5787 0d9a 60       		.sleb128 -32
 5788 0d9b 00       		.byte	0
 5789 0d9c 18       		.uleb128 0x18
 5790 0d9d EB080000 		.4byte	.LASF316
 5791 0da1 01       		.byte	0x1
 5792 0da2 D902     		.2byte	0x2d9
 5793 0da4 2B010000 		.4byte	0x12b
 5794 0da8 00000000 		.4byte	.LFB2
 5795 0dac 8C000000 		.4byte	.LFE2-.LFB2
 5796 0db0 01       		.uleb128 0x1
 5797 0db1 9C       		.byte	0x9c
 5798 0db2 F30D0000 		.4byte	0xdf3
 5799 0db6 19       		.uleb128 0x19
 5800 0db7 590B0000 		.4byte	.LASF295
 5801 0dbb 01       		.byte	0x1
 5802 0dbc D902     		.2byte	0x2d9
 5803 0dbe DF0B0000 		.4byte	0xbdf
 5804 0dc2 02       		.uleb128 0x2
 5805 0dc3 91       		.byte	0x91
 5806 0dc4 64       		.sleb128 -28
 5807 0dc5 19       		.uleb128 0x19
 5808 0dc6 BE090000 		.4byte	.LASF297
 5809 0dca 01       		.byte	0x1
 5810 0dcb DA02     		.2byte	0x2da
 5811 0dcd 820C0000 		.4byte	0xc82
 5812 0dd1 02       		.uleb128 0x2
 5813 0dd2 91       		.byte	0x91
 5814 0dd3 60       		.sleb128 -32
 5815 0dd4 17       		.uleb128 0x17
 5816 0dd5 7D140000 		.4byte	.LASF315
 5817 0dd9 01       		.byte	0x1
 5818 0dda DC02     		.2byte	0x2dc
 5819 0ddc 2B010000 		.4byte	0x12b
 5820 0de0 02       		.uleb128 0x2
ARM GAS  C:\Users\ADMINI~1\AppData\Local\Temp\ccvBRVNC.s 			page 160


 5821 0de1 91       		.byte	0x91
 5822 0de2 6A       		.sleb128 -22
 5823 0de3 17       		.uleb128 0x17
 5824 0de4 08060000 		.4byte	.LASF299
 5825 0de8 01       		.byte	0x1
 5826 0de9 DD02     		.2byte	0x2dd
 5827 0deb DD000000 		.4byte	0xdd
 5828 0def 02       		.uleb128 0x2
 5829 0df0 91       		.byte	0x91
 5830 0df1 6C       		.sleb128 -20
 5831 0df2 00       		.byte	0
 5832 0df3 18       		.uleb128 0x18
 5833 0df4 FC040000 		.4byte	.LASF317
 5834 0df8 01       		.byte	0x1
 5835 0df9 3003     		.2byte	0x330
 5836 0dfb BA000000 		.4byte	0xba
 5837 0dff 00000000 		.4byte	.LFB3
 5838 0e03 28020000 		.4byte	.LFE3-.LFB3
 5839 0e07 01       		.uleb128 0x1
 5840 0e08 9C       		.byte	0x9c
 5841 0e09 860E0000 		.4byte	0xe86
 5842 0e0d 19       		.uleb128 0x19
 5843 0e0e BC120000 		.4byte	.LASF318
 5844 0e12 01       		.byte	0x1
 5845 0e13 3003     		.2byte	0x330
 5846 0e15 BA010000 		.4byte	0x1ba
 5847 0e19 02       		.uleb128 0x2
 5848 0e1a 91       		.byte	0x91
 5849 0e1b 5C       		.sleb128 -36
 5850 0e1c 1A       		.uleb128 0x1a
 5851 0e1d 6F707400 		.ascii	"opt\000"
 5852 0e21 01       		.byte	0x1
 5853 0e22 3103     		.2byte	0x331
 5854 0e24 62010000 		.4byte	0x162
 5855 0e28 02       		.uleb128 0x2
 5856 0e29 91       		.byte	0x91
 5857 0e2a 5A       		.sleb128 -38
 5858 0e2b 19       		.uleb128 0x19
 5859 0e2c EA020000 		.4byte	.LASF319
 5860 0e30 01       		.byte	0x1
 5861 0e31 3203     		.2byte	0x332
 5862 0e33 860E0000 		.4byte	0xe86
 5863 0e37 02       		.uleb128 0x2
 5864 0e38 91       		.byte	0x91
 5865 0e39 54       		.sleb128 -44
 5866 0e3a 19       		.uleb128 0x19
 5867 0e3b 610D0000 		.4byte	.LASF320
 5868 0e3f 01       		.byte	0x1
 5869 0e40 3303     		.2byte	0x333
 5870 0e42 8C0E0000 		.4byte	0xe8c
 5871 0e46 02       		.uleb128 0x2
 5872 0e47 91       		.byte	0x91
 5873 0e48 50       		.sleb128 -48
 5874 0e49 19       		.uleb128 0x19
 5875 0e4a BE090000 		.4byte	.LASF297
 5876 0e4e 01       		.byte	0x1
 5877 0e4f 3403     		.2byte	0x334
ARM GAS  C:\Users\ADMINI~1\AppData\Local\Temp\ccvBRVNC.s 			page 161


 5878 0e51 820C0000 		.4byte	0xc82
 5879 0e55 02       		.uleb128 0x2
 5880 0e56 91       		.byte	0x91
 5881 0e57 00       		.sleb128 0
 5882 0e58 17       		.uleb128 0x17
 5883 0e59 9E150000 		.4byte	.LASF321
 5884 0e5d 01       		.byte	0x1
 5885 0e5e 3603     		.2byte	0x336
 5886 0e60 920E0000 		.4byte	0xe92
 5887 0e64 02       		.uleb128 0x2
 5888 0e65 91       		.byte	0x91
 5889 0e66 64       		.sleb128 -28
 5890 0e67 17       		.uleb128 0x17
 5891 0e68 B4040000 		.4byte	.LASF322
 5892 0e6c 01       		.byte	0x1
 5893 0e6d 3703     		.2byte	0x337
 5894 0e6f BA000000 		.4byte	0xba
 5895 0e73 02       		.uleb128 0x2
 5896 0e74 91       		.byte	0x91
 5897 0e75 6C       		.sleb128 -20
 5898 0e76 17       		.uleb128 0x17
 5899 0e77 08060000 		.4byte	.LASF299
 5900 0e7b 01       		.byte	0x1
 5901 0e7c 3803     		.2byte	0x338
 5902 0e7e DD000000 		.4byte	0xdd
 5903 0e82 02       		.uleb128 0x2
 5904 0e83 91       		.byte	0x91
 5905 0e84 68       		.sleb128 -24
 5906 0e85 00       		.byte	0
 5907 0e86 05       		.uleb128 0x5
 5908 0e87 04       		.byte	0x4
 5909 0e88 36010000 		.4byte	0x136
 5910 0e8c 05       		.uleb128 0x5
 5911 0e8d 04       		.byte	0x4
 5912 0e8e F4000000 		.4byte	0xf4
 5913 0e92 05       		.uleb128 0x5
 5914 0e93 04       		.byte	0x4
 5915 0e94 C1060000 		.4byte	0x6c1
 5916 0e98 1B       		.uleb128 0x1b
 5917 0e99 780F0000 		.4byte	.LASF323
 5918 0e9d 01       		.byte	0x1
 5919 0e9e 6804     		.2byte	0x468
 5920 0ea0 00000000 		.4byte	.LFB4
 5921 0ea4 70000000 		.4byte	.LFE4-.LFB4
 5922 0ea8 01       		.uleb128 0x1
 5923 0ea9 9C       		.byte	0x9c
 5924 0eaa 080F0000 		.4byte	0xf08
 5925 0eae 19       		.uleb128 0x19
 5926 0eaf 590B0000 		.4byte	.LASF295
 5927 0eb3 01       		.byte	0x1
 5928 0eb4 6804     		.2byte	0x468
 5929 0eb6 DF0B0000 		.4byte	0xbdf
 5930 0eba 02       		.uleb128 0x2
 5931 0ebb 91       		.byte	0x91
 5932 0ebc 64       		.sleb128 -28
 5933 0ebd 19       		.uleb128 0x19
 5934 0ebe B4040000 		.4byte	.LASF322
ARM GAS  C:\Users\ADMINI~1\AppData\Local\Temp\ccvBRVNC.s 			page 162


 5935 0ec2 01       		.byte	0x1
 5936 0ec3 6904     		.2byte	0x469
 5937 0ec5 BA000000 		.4byte	0xba
 5938 0ec9 02       		.uleb128 0x2
 5939 0eca 91       		.byte	0x91
 5940 0ecb 60       		.sleb128 -32
 5941 0ecc 19       		.uleb128 0x19
 5942 0ecd EA130000 		.4byte	.LASF324
 5943 0ed1 01       		.byte	0x1
 5944 0ed2 6A04     		.2byte	0x46a
 5945 0ed4 36010000 		.4byte	0x136
 5946 0ed8 02       		.uleb128 0x2
 5947 0ed9 91       		.byte	0x91
 5948 0eda 5E       		.sleb128 -34
 5949 0edb 1A       		.uleb128 0x1a
 5950 0edc 6F707400 		.ascii	"opt\000"
 5951 0ee0 01       		.byte	0x1
 5952 0ee1 6B04     		.2byte	0x46b
 5953 0ee3 62010000 		.4byte	0x162
 5954 0ee7 02       		.uleb128 0x2
 5955 0ee8 91       		.byte	0x91
 5956 0ee9 5C       		.sleb128 -36
 5957 0eea 19       		.uleb128 0x19
 5958 0eeb BE090000 		.4byte	.LASF297
 5959 0eef 01       		.byte	0x1
 5960 0ef0 6C04     		.2byte	0x46c
 5961 0ef2 820C0000 		.4byte	0xc82
 5962 0ef6 02       		.uleb128 0x2
 5963 0ef7 91       		.byte	0x91
 5964 0ef8 00       		.sleb128 0
 5965 0ef9 1C       		.uleb128 0x1c
 5966 0efa 747300   		.ascii	"ts\000"
 5967 0efd 01       		.byte	0x1
 5968 0efe 6E04     		.2byte	0x46e
 5969 0f00 F4000000 		.4byte	0xf4
 5970 0f04 02       		.uleb128 0x2
 5971 0f05 91       		.byte	0x91
 5972 0f06 6C       		.sleb128 -20
 5973 0f07 00       		.byte	0
 5974 0f08 18       		.uleb128 0x18
 5975 0f09 D00A0000 		.4byte	.LASF325
 5976 0f0d 01       		.byte	0x1
 5977 0f0e CD04     		.2byte	0x4cd
 5978 0f10 83010000 		.4byte	0x183
 5979 0f14 00000000 		.4byte	.LFB5
 5980 0f18 78000000 		.4byte	.LFE5-.LFB5
 5981 0f1c 01       		.uleb128 0x1
 5982 0f1d 9C       		.byte	0x9c
 5983 0f1e 6D0F0000 		.4byte	0xf6d
 5984 0f22 19       		.uleb128 0x19
 5985 0f23 590B0000 		.4byte	.LASF295
 5986 0f27 01       		.byte	0x1
 5987 0f28 CD04     		.2byte	0x4cd
 5988 0f2a DF0B0000 		.4byte	0xbdf
 5989 0f2e 02       		.uleb128 0x2
 5990 0f2f 91       		.byte	0x91
 5991 0f30 6C       		.sleb128 -20
ARM GAS  C:\Users\ADMINI~1\AppData\Local\Temp\ccvBRVNC.s 			page 163


 5992 0f31 1A       		.uleb128 0x1a
 5993 0f32 696400   		.ascii	"id\000"
 5994 0f35 01       		.byte	0x1
 5995 0f36 CE04     		.2byte	0x4ce
 5996 0f38 8E010000 		.4byte	0x18e
 5997 0f3c 02       		.uleb128 0x2
 5998 0f3d 91       		.byte	0x91
 5999 0f3e 6B       		.sleb128 -21
 6000 0f3f 19       		.uleb128 0x19
 6001 0f40 BE090000 		.4byte	.LASF297
 6002 0f44 01       		.byte	0x1
 6003 0f45 CF04     		.2byte	0x4cf
 6004 0f47 820C0000 		.4byte	0xc82
 6005 0f4b 02       		.uleb128 0x2
 6006 0f4c 91       		.byte	0x91
 6007 0f4d 64       		.sleb128 -28
 6008 0f4e 17       		.uleb128 0x17
 6009 0f4f 35070000 		.4byte	.LASF326
 6010 0f53 01       		.byte	0x1
 6011 0f54 D104     		.2byte	0x4d1
 6012 0f56 83010000 		.4byte	0x183
 6013 0f5a 02       		.uleb128 0x2
 6014 0f5b 91       		.byte	0x91
 6015 0f5c 70       		.sleb128 -16
 6016 0f5d 17       		.uleb128 0x17
 6017 0f5e 08060000 		.4byte	.LASF299
 6018 0f62 01       		.byte	0x1
 6019 0f63 D204     		.2byte	0x4d2
 6020 0f65 DD000000 		.4byte	0xdd
 6021 0f69 02       		.uleb128 0x2
 6022 0f6a 91       		.byte	0x91
 6023 0f6b 74       		.sleb128 -12
 6024 0f6c 00       		.byte	0
 6025 0f6d 18       		.uleb128 0x18
 6026 0f6e 6D0A0000 		.4byte	.LASF327
 6027 0f72 01       		.byte	0x1
 6028 0f73 0405     		.2byte	0x504
 6029 0f75 8E010000 		.4byte	0x18e
 6030 0f79 00000000 		.4byte	.LFB6
 6031 0f7d 74000000 		.4byte	.LFE6-.LFB6
 6032 0f81 01       		.uleb128 0x1
 6033 0f82 9C       		.byte	0x9c
 6034 0f83 B40F0000 		.4byte	0xfb4
 6035 0f87 19       		.uleb128 0x19
 6036 0f88 BE090000 		.4byte	.LASF297
 6037 0f8c 01       		.byte	0x1
 6038 0f8d 0405     		.2byte	0x504
 6039 0f8f 820C0000 		.4byte	0xc82
 6040 0f93 02       		.uleb128 0x2
 6041 0f94 91       		.byte	0x91
 6042 0f95 6C       		.sleb128 -20
 6043 0f96 1C       		.uleb128 0x1c
 6044 0f97 696400   		.ascii	"id\000"
 6045 0f9a 01       		.byte	0x1
 6046 0f9b 0605     		.2byte	0x506
 6047 0f9d 8E010000 		.4byte	0x18e
 6048 0fa1 02       		.uleb128 0x2
ARM GAS  C:\Users\ADMINI~1\AppData\Local\Temp\ccvBRVNC.s 			page 164


 6049 0fa2 91       		.byte	0x91
 6050 0fa3 73       		.sleb128 -13
 6051 0fa4 17       		.uleb128 0x17
 6052 0fa5 08060000 		.4byte	.LASF299
 6053 0fa9 01       		.byte	0x1
 6054 0faa 0705     		.2byte	0x507
 6055 0fac DD000000 		.4byte	0xdd
 6056 0fb0 02       		.uleb128 0x2
 6057 0fb1 91       		.byte	0x91
 6058 0fb2 74       		.sleb128 -12
 6059 0fb3 00       		.byte	0
 6060 0fb4 1B       		.uleb128 0x1b
 6061 0fb5 A7050000 		.4byte	.LASF328
 6062 0fb9 01       		.byte	0x1
 6063 0fba 3E05     		.2byte	0x53e
 6064 0fbc 00000000 		.4byte	.LFB7
 6065 0fc0 74000000 		.4byte	.LFE7-.LFB7
 6066 0fc4 01       		.uleb128 0x1
 6067 0fc5 9C       		.byte	0x9c
 6068 0fc6 15100000 		.4byte	0x1015
 6069 0fca 19       		.uleb128 0x19
 6070 0fcb 590B0000 		.4byte	.LASF295
 6071 0fcf 01       		.byte	0x1
 6072 0fd0 3E05     		.2byte	0x53e
 6073 0fd2 DF0B0000 		.4byte	0xbdf
 6074 0fd6 02       		.uleb128 0x2
 6075 0fd7 91       		.byte	0x91
 6076 0fd8 6C       		.sleb128 -20
 6077 0fd9 1A       		.uleb128 0x1a
 6078 0fda 696400   		.ascii	"id\000"
 6079 0fdd 01       		.byte	0x1
 6080 0fde 3F05     		.2byte	0x53f
 6081 0fe0 8E010000 		.4byte	0x18e
 6082 0fe4 02       		.uleb128 0x2
 6083 0fe5 91       		.byte	0x91
 6084 0fe6 6B       		.sleb128 -21
 6085 0fe7 19       		.uleb128 0x19
 6086 0fe8 35070000 		.4byte	.LASF326
 6087 0fec 01       		.byte	0x1
 6088 0fed 4005     		.2byte	0x540
 6089 0fef 83010000 		.4byte	0x183
 6090 0ff3 02       		.uleb128 0x2
 6091 0ff4 91       		.byte	0x91
 6092 0ff5 64       		.sleb128 -28
 6093 0ff6 19       		.uleb128 0x19
 6094 0ff7 BE090000 		.4byte	.LASF297
 6095 0ffb 01       		.byte	0x1
 6096 0ffc 4105     		.2byte	0x541
 6097 0ffe 820C0000 		.4byte	0xc82
 6098 1002 02       		.uleb128 0x2
 6099 1003 91       		.byte	0x91
 6100 1004 60       		.sleb128 -32
 6101 1005 17       		.uleb128 0x17
 6102 1006 08060000 		.4byte	.LASF299
 6103 100a 01       		.byte	0x1
 6104 100b 4305     		.2byte	0x543
 6105 100d DD000000 		.4byte	0xdd
ARM GAS  C:\Users\ADMINI~1\AppData\Local\Temp\ccvBRVNC.s 			page 165


 6106 1011 02       		.uleb128 0x2
 6107 1012 91       		.byte	0x91
 6108 1013 74       		.sleb128 -12
 6109 1014 00       		.byte	0
 6110 1015 1B       		.uleb128 0x1b
 6111 1016 B4050000 		.4byte	.LASF329
 6112 101a 01       		.byte	0x1
 6113 101b 7A05     		.2byte	0x57a
 6114 101d 00000000 		.4byte	.LFB8
 6115 1021 7C000000 		.4byte	.LFE8-.LFB8
 6116 1025 01       		.uleb128 0x1
 6117 1026 9C       		.byte	0x9c
 6118 1027 59100000 		.4byte	0x1059
 6119 102b 19       		.uleb128 0x19
 6120 102c 590B0000 		.4byte	.LASF295
 6121 1030 01       		.byte	0x1
 6122 1031 7A05     		.2byte	0x57a
 6123 1033 DF0B0000 		.4byte	0xbdf
 6124 1037 02       		.uleb128 0x2
 6125 1038 91       		.byte	0x91
 6126 1039 6C       		.sleb128 -20
 6127 103a 19       		.uleb128 0x19
 6128 103b BE090000 		.4byte	.LASF297
 6129 103f 01       		.byte	0x1
 6130 1040 7B05     		.2byte	0x57b
 6131 1042 820C0000 		.4byte	0xc82
 6132 1046 02       		.uleb128 0x2
 6133 1047 91       		.byte	0x91
 6134 1048 68       		.sleb128 -24
 6135 1049 17       		.uleb128 0x17
 6136 104a 08060000 		.4byte	.LASF299
 6137 104e 01       		.byte	0x1
 6138 104f 7D05     		.2byte	0x57d
 6139 1051 DD000000 		.4byte	0xdd
 6140 1055 02       		.uleb128 0x2
 6141 1056 91       		.byte	0x91
 6142 1057 74       		.sleb128 -12
 6143 1058 00       		.byte	0
 6144 1059 18       		.uleb128 0x18
 6145 105a EE110000 		.4byte	.LASF330
 6146 105e 01       		.byte	0x1
 6147 105f DE05     		.2byte	0x5de
 6148 1061 99010000 		.4byte	0x199
 6149 1065 00000000 		.4byte	.LFB9
 6150 1069 30020000 		.4byte	.LFE9-.LFB9
 6151 106d 01       		.uleb128 0x1
 6152 106e 9C       		.byte	0x9c
 6153 106f CE100000 		.4byte	0x10ce
 6154 1073 19       		.uleb128 0x19
 6155 1074 BC120000 		.4byte	.LASF318
 6156 1078 01       		.byte	0x1
 6157 1079 DE05     		.2byte	0x5de
 6158 107b BA010000 		.4byte	0x1ba
 6159 107f 02       		.uleb128 0x2
 6160 1080 91       		.byte	0x91
 6161 1081 64       		.sleb128 -28
 6162 1082 1A       		.uleb128 0x1a
ARM GAS  C:\Users\ADMINI~1\AppData\Local\Temp\ccvBRVNC.s 			page 166


 6163 1083 6F707400 		.ascii	"opt\000"
 6164 1087 01       		.byte	0x1
 6165 1088 DF05     		.2byte	0x5df
 6166 108a 62010000 		.4byte	0x162
 6167 108e 02       		.uleb128 0x2
 6168 108f 91       		.byte	0x91
 6169 1090 62       		.sleb128 -30
 6170 1091 19       		.uleb128 0x19
 6171 1092 610D0000 		.4byte	.LASF320
 6172 1096 01       		.byte	0x1
 6173 1097 E005     		.2byte	0x5e0
 6174 1099 8C0E0000 		.4byte	0xe8c
 6175 109d 02       		.uleb128 0x2
 6176 109e 91       		.byte	0x91
 6177 109f 5C       		.sleb128 -36
 6178 10a0 19       		.uleb128 0x19
 6179 10a1 BE090000 		.4byte	.LASF297
 6180 10a5 01       		.byte	0x1
 6181 10a6 E105     		.2byte	0x5e1
 6182 10a8 820C0000 		.4byte	0xc82
 6183 10ac 02       		.uleb128 0x2
 6184 10ad 91       		.byte	0x91
 6185 10ae 58       		.sleb128 -40
 6186 10af 1C       		.uleb128 0x1c
 6187 10b0 63747200 		.ascii	"ctr\000"
 6188 10b4 01       		.byte	0x1
 6189 10b5 E305     		.2byte	0x5e3
 6190 10b7 99010000 		.4byte	0x199
 6191 10bb 02       		.uleb128 0x2
 6192 10bc 91       		.byte	0x91
 6193 10bd 68       		.sleb128 -24
 6194 10be 17       		.uleb128 0x17
 6195 10bf 08060000 		.4byte	.LASF299
 6196 10c3 01       		.byte	0x1
 6197 10c4 E405     		.2byte	0x5e4
 6198 10c6 DD000000 		.4byte	0xdd
 6199 10ca 02       		.uleb128 0x2
 6200 10cb 91       		.byte	0x91
 6201 10cc 6C       		.sleb128 -20
 6202 10cd 00       		.byte	0
 6203 10ce 18       		.uleb128 0x18
 6204 10cf 650F0000 		.4byte	.LASF331
 6205 10d3 01       		.byte	0x1
 6206 10d4 AE06     		.2byte	0x6ae
 6207 10d6 37000000 		.4byte	0x37
 6208 10da 00000000 		.4byte	.LFB10
 6209 10de 08010000 		.4byte	.LFE10-.LFB10
 6210 10e2 01       		.uleb128 0x1
 6211 10e3 9C       		.byte	0x9c
 6212 10e4 33110000 		.4byte	0x1133
 6213 10e8 19       		.uleb128 0x19
 6214 10e9 590B0000 		.4byte	.LASF295
 6215 10ed 01       		.byte	0x1
 6216 10ee AE06     		.2byte	0x6ae
 6217 10f0 DF0B0000 		.4byte	0xbdf
 6218 10f4 02       		.uleb128 0x2
 6219 10f5 91       		.byte	0x91
ARM GAS  C:\Users\ADMINI~1\AppData\Local\Temp\ccvBRVNC.s 			page 167


 6220 10f6 6C       		.sleb128 -20
 6221 10f7 1A       		.uleb128 0x1a
 6222 10f8 6F707400 		.ascii	"opt\000"
 6223 10fc 01       		.byte	0x1
 6224 10fd AF06     		.2byte	0x6af
 6225 10ff 62010000 		.4byte	0x162
 6226 1103 02       		.uleb128 0x2
 6227 1104 91       		.byte	0x91
 6228 1105 6A       		.sleb128 -22
 6229 1106 19       		.uleb128 0x19
 6230 1107 BE090000 		.4byte	.LASF297
 6231 110b 01       		.byte	0x1
 6232 110c B006     		.2byte	0x6b0
 6233 110e 820C0000 		.4byte	0xc82
 6234 1112 02       		.uleb128 0x2
 6235 1113 91       		.byte	0x91
 6236 1114 64       		.sleb128 -28
 6237 1115 1C       		.uleb128 0x1c
 6238 1116 747300   		.ascii	"ts\000"
 6239 1119 01       		.byte	0x1
 6240 111a B206     		.2byte	0x6b2
 6241 111c F4000000 		.4byte	0xf4
 6242 1120 02       		.uleb128 0x2
 6243 1121 91       		.byte	0x91
 6244 1122 70       		.sleb128 -16
 6245 1123 17       		.uleb128 0x17
 6246 1124 08060000 		.4byte	.LASF299
 6247 1128 01       		.byte	0x1
 6248 1129 B306     		.2byte	0x6b3
 6249 112b DD000000 		.4byte	0xdd
 6250 112f 02       		.uleb128 0x2
 6251 1130 91       		.byte	0x91
 6252 1131 74       		.sleb128 -12
 6253 1132 00       		.byte	0
 6254 1133 18       		.uleb128 0x18
 6255 1134 96030000 		.4byte	.LASF332
 6256 1138 01       		.byte	0x1
 6257 1139 1807     		.2byte	0x718
 6258 113b 99010000 		.4byte	0x199
 6259 113f 00000000 		.4byte	.LFB11
 6260 1143 5C000000 		.4byte	.LFE11-.LFB11
 6261 1147 01       		.uleb128 0x1
 6262 1148 9C       		.byte	0x9c
 6263 1149 98110000 		.4byte	0x1198
 6264 114d 19       		.uleb128 0x19
 6265 114e 590B0000 		.4byte	.LASF295
 6266 1152 01       		.byte	0x1
 6267 1153 1807     		.2byte	0x718
 6268 1155 DF0B0000 		.4byte	0xbdf
 6269 1159 02       		.uleb128 0x2
 6270 115a 91       		.byte	0x91
 6271 115b 64       		.sleb128 -28
 6272 115c 1A       		.uleb128 0x1a
 6273 115d 6F707400 		.ascii	"opt\000"
 6274 1161 01       		.byte	0x1
 6275 1162 1907     		.2byte	0x719
 6276 1164 62010000 		.4byte	0x162
ARM GAS  C:\Users\ADMINI~1\AppData\Local\Temp\ccvBRVNC.s 			page 168


 6277 1168 02       		.uleb128 0x2
 6278 1169 91       		.byte	0x91
 6279 116a 62       		.sleb128 -30
 6280 116b 19       		.uleb128 0x19
 6281 116c BE090000 		.4byte	.LASF297
 6282 1170 01       		.byte	0x1
 6283 1171 1A07     		.2byte	0x71a
 6284 1173 820C0000 		.4byte	0xc82
 6285 1177 02       		.uleb128 0x2
 6286 1178 91       		.byte	0x91
 6287 1179 5C       		.sleb128 -36
 6288 117a 1C       		.uleb128 0x1c
 6289 117b 63747200 		.ascii	"ctr\000"
 6290 117f 01       		.byte	0x1
 6291 1180 1C07     		.2byte	0x71c
 6292 1182 99010000 		.4byte	0x199
 6293 1186 02       		.uleb128 0x2
 6294 1187 91       		.byte	0x91
 6295 1188 68       		.sleb128 -24
 6296 1189 1C       		.uleb128 0x1c
 6297 118a 747300   		.ascii	"ts\000"
 6298 118d 01       		.byte	0x1
 6299 118e 1D07     		.2byte	0x71d
 6300 1190 F4000000 		.4byte	0xf4
 6301 1194 02       		.uleb128 0x2
 6302 1195 91       		.byte	0x91
 6303 1196 6C       		.sleb128 -20
 6304 1197 00       		.byte	0
 6305 1198 18       		.uleb128 0x18
 6306 1199 A0070000 		.4byte	.LASF333
 6307 119d 01       		.byte	0x1
 6308 119e 7607     		.2byte	0x776
 6309 11a0 99010000 		.4byte	0x199
 6310 11a4 00000000 		.4byte	.LFB12
 6311 11a8 A0000000 		.4byte	.LFE12-.LFB12
 6312 11ac 01       		.uleb128 0x1
 6313 11ad 9C       		.byte	0x9c
 6314 11ae FE110000 		.4byte	0x11fe
 6315 11b2 19       		.uleb128 0x19
 6316 11b3 590B0000 		.4byte	.LASF295
 6317 11b7 01       		.byte	0x1
 6318 11b8 7607     		.2byte	0x776
 6319 11ba DF0B0000 		.4byte	0xbdf
 6320 11be 02       		.uleb128 0x2
 6321 11bf 91       		.byte	0x91
 6322 11c0 6C       		.sleb128 -20
 6323 11c1 1A       		.uleb128 0x1a
 6324 11c2 636E7400 		.ascii	"cnt\000"
 6325 11c6 01       		.byte	0x1
 6326 11c7 7707     		.2byte	0x777
 6327 11c9 99010000 		.4byte	0x199
 6328 11cd 02       		.uleb128 0x2
 6329 11ce 91       		.byte	0x91
 6330 11cf 68       		.sleb128 -24
 6331 11d0 19       		.uleb128 0x19
 6332 11d1 BE090000 		.4byte	.LASF297
 6333 11d5 01       		.byte	0x1
ARM GAS  C:\Users\ADMINI~1\AppData\Local\Temp\ccvBRVNC.s 			page 169


 6334 11d6 7807     		.2byte	0x778
 6335 11d8 820C0000 		.4byte	0xc82
 6336 11dc 02       		.uleb128 0x2
 6337 11dd 91       		.byte	0x91
 6338 11de 64       		.sleb128 -28
 6339 11df 1C       		.uleb128 0x1c
 6340 11e0 63747200 		.ascii	"ctr\000"
 6341 11e4 01       		.byte	0x1
 6342 11e5 7A07     		.2byte	0x77a
 6343 11e7 99010000 		.4byte	0x199
 6344 11eb 02       		.uleb128 0x2
 6345 11ec 91       		.byte	0x91
 6346 11ed 70       		.sleb128 -16
 6347 11ee 17       		.uleb128 0x17
 6348 11ef 08060000 		.4byte	.LASF299
 6349 11f3 01       		.byte	0x1
 6350 11f4 7B07     		.2byte	0x77b
 6351 11f6 DD000000 		.4byte	0xdd
 6352 11fa 02       		.uleb128 0x2
 6353 11fb 91       		.byte	0x91
 6354 11fc 74       		.sleb128 -12
 6355 11fd 00       		.byte	0
 6356 11fe 1B       		.uleb128 0x1b
 6357 11ff 6F110000 		.4byte	.LASF334
 6358 1203 01       		.byte	0x1
 6359 1204 BE07     		.2byte	0x7be
 6360 1206 00000000 		.4byte	.LFB13
 6361 120a 10010000 		.4byte	.LFE13-.LFB13
 6362 120e 01       		.uleb128 0x1
 6363 120f 9C       		.byte	0x9c
 6364 1210 7E120000 		.4byte	0x127e
 6365 1214 19       		.uleb128 0x19
 6366 1215 590B0000 		.4byte	.LASF295
 6367 1219 01       		.byte	0x1
 6368 121a BE07     		.2byte	0x7be
 6369 121c DF0B0000 		.4byte	0xbdf
 6370 1220 02       		.uleb128 0x2
 6371 1221 91       		.byte	0x91
 6372 1222 64       		.sleb128 -28
 6373 1223 19       		.uleb128 0x19
 6374 1224 49080000 		.4byte	.LASF335
 6375 1228 01       		.byte	0x1
 6376 1229 BF07     		.2byte	0x7bf
 6377 122b 7E120000 		.4byte	0x127e
 6378 122f 02       		.uleb128 0x2
 6379 1230 91       		.byte	0x91
 6380 1231 60       		.sleb128 -32
 6381 1232 19       		.uleb128 0x19
 6382 1233 06040000 		.4byte	.LASF336
 6383 1237 01       		.byte	0x1
 6384 1238 C007     		.2byte	0x7c0
 6385 123a 7E120000 		.4byte	0x127e
 6386 123e 02       		.uleb128 0x2
 6387 123f 91       		.byte	0x91
 6388 1240 5C       		.sleb128 -36
 6389 1241 19       		.uleb128 0x19
 6390 1242 BE090000 		.4byte	.LASF297
ARM GAS  C:\Users\ADMINI~1\AppData\Local\Temp\ccvBRVNC.s 			page 170


 6391 1246 01       		.byte	0x1
 6392 1247 C107     		.2byte	0x7c1
 6393 1249 820C0000 		.4byte	0xc82
 6394 124d 02       		.uleb128 0x2
 6395 124e 91       		.byte	0x91
 6396 124f 58       		.sleb128 -40
 6397 1250 17       		.uleb128 0x17
 6398 1251 7C0A0000 		.4byte	.LASF337
 6399 1255 01       		.byte	0x1
 6400 1256 C307     		.2byte	0x7c3
 6401 1258 D2000000 		.4byte	0xd2
 6402 125c 02       		.uleb128 0x2
 6403 125d 91       		.byte	0x91
 6404 125e 74       		.sleb128 -12
 6405 125f 17       		.uleb128 0x17
 6406 1260 AA010000 		.4byte	.LASF338
 6407 1264 01       		.byte	0x1
 6408 1265 C407     		.2byte	0x7c4
 6409 1267 030C0000 		.4byte	0xc03
 6410 126b 02       		.uleb128 0x2
 6411 126c 91       		.byte	0x91
 6412 126d 70       		.sleb128 -16
 6413 126e 17       		.uleb128 0x17
 6414 126f 08060000 		.4byte	.LASF299
 6415 1273 01       		.byte	0x1
 6416 1274 C507     		.2byte	0x7c5
 6417 1276 DD000000 		.4byte	0xdd
 6418 127a 02       		.uleb128 0x2
 6419 127b 91       		.byte	0x91
 6420 127c 6C       		.sleb128 -20
 6421 127d 00       		.byte	0
 6422 127e 05       		.uleb128 0x5
 6423 127f 04       		.byte	0x4
 6424 1280 D2000000 		.4byte	0xd2
 6425 1284 1B       		.uleb128 0x1b
 6426 1285 2E120000 		.4byte	.LASF339
 6427 1289 01       		.byte	0x1
 6428 128a 5D08     		.2byte	0x85d
 6429 128c 00000000 		.4byte	.LFB14
 6430 1290 4C000000 		.4byte	.LFE14-.LFB14
 6431 1294 01       		.uleb128 0x1
 6432 1295 9C       		.byte	0x9c
 6433 1296 B9120000 		.4byte	0x12b9
 6434 129a 19       		.uleb128 0x19
 6435 129b 590B0000 		.4byte	.LASF295
 6436 129f 01       		.byte	0x1
 6437 12a0 5D08     		.2byte	0x85d
 6438 12a2 DF0B0000 		.4byte	0xbdf
 6439 12a6 02       		.uleb128 0x2
 6440 12a7 91       		.byte	0x91
 6441 12a8 74       		.sleb128 -12
 6442 12a9 19       		.uleb128 0x19
 6443 12aa BE090000 		.4byte	.LASF297
 6444 12ae 01       		.byte	0x1
 6445 12af 5E08     		.2byte	0x85e
 6446 12b1 820C0000 		.4byte	0xc82
 6447 12b5 02       		.uleb128 0x2
ARM GAS  C:\Users\ADMINI~1\AppData\Local\Temp\ccvBRVNC.s 			page 171


 6448 12b6 91       		.byte	0x91
 6449 12b7 70       		.sleb128 -16
 6450 12b8 00       		.byte	0
 6451 12b9 1D       		.uleb128 0x1d
 6452 12ba B10F0000 		.4byte	.LASF340
 6453 12be 01       		.byte	0x1
 6454 12bf DD08     		.2byte	0x8dd
 6455 12c1 00000000 		.4byte	.LFB15
 6456 12c5 48000000 		.4byte	.LFE15-.LFB15
 6457 12c9 01       		.uleb128 0x1
 6458 12ca 9C       		.byte	0x9c
 6459 12cb DF120000 		.4byte	0x12df
 6460 12cf 19       		.uleb128 0x19
 6461 12d0 590B0000 		.4byte	.LASF295
 6462 12d4 01       		.byte	0x1
 6463 12d5 DD08     		.2byte	0x8dd
 6464 12d7 DF0B0000 		.4byte	0xbdf
 6465 12db 02       		.uleb128 0x2
 6466 12dc 91       		.byte	0x91
 6467 12dd 74       		.sleb128 -12
 6468 12de 00       		.byte	0
 6469 12df 1D       		.uleb128 0x1d
 6470 12e0 9F100000 		.4byte	.LASF341
 6471 12e4 01       		.byte	0x1
 6472 12e5 EB08     		.2byte	0x8eb
 6473 12e7 00000000 		.4byte	.LFB16
 6474 12eb 80000000 		.4byte	.LFE16-.LFB16
 6475 12ef 01       		.uleb128 0x1
 6476 12f0 9C       		.byte	0x9c
 6477 12f1 23130000 		.4byte	0x1323
 6478 12f5 19       		.uleb128 0x19
 6479 12f6 590B0000 		.4byte	.LASF295
 6480 12fa 01       		.byte	0x1
 6481 12fb EB08     		.2byte	0x8eb
 6482 12fd DF0B0000 		.4byte	0xbdf
 6483 1301 02       		.uleb128 0x2
 6484 1302 91       		.byte	0x91
 6485 1303 6C       		.sleb128 -20
 6486 1304 17       		.uleb128 0x17
 6487 1305 80050000 		.4byte	.LASF342
 6488 1309 01       		.byte	0x1
 6489 130a ED08     		.2byte	0x8ed
 6490 130c DF0B0000 		.4byte	0xbdf
 6491 1310 02       		.uleb128 0x2
 6492 1311 91       		.byte	0x91
 6493 1312 70       		.sleb128 -16
 6494 1313 17       		.uleb128 0x17
 6495 1314 B60D0000 		.4byte	.LASF343
 6496 1318 01       		.byte	0x1
 6497 1319 EE08     		.2byte	0x8ee
 6498 131b DF0B0000 		.4byte	0xbdf
 6499 131f 02       		.uleb128 0x2
 6500 1320 91       		.byte	0x91
 6501 1321 74       		.sleb128 -12
 6502 1322 00       		.byte	0
 6503 1323 1D       		.uleb128 0x1d
 6504 1324 0A110000 		.4byte	.LASF344
ARM GAS  C:\Users\ADMINI~1\AppData\Local\Temp\ccvBRVNC.s 			page 172


 6505 1328 01       		.byte	0x1
 6506 1329 1A09     		.2byte	0x91a
 6507 132b 00000000 		.4byte	.LFB17
 6508 132f 34000000 		.4byte	.LFE17-.LFB17
 6509 1333 01       		.uleb128 0x1
 6510 1334 9C       		.byte	0x9c
 6511 1335 49130000 		.4byte	0x1349
 6512 1339 19       		.uleb128 0x19
 6513 133a BE090000 		.4byte	.LASF297
 6514 133e 01       		.byte	0x1
 6515 133f 1A09     		.2byte	0x91a
 6516 1341 820C0000 		.4byte	0xc82
 6517 1345 02       		.uleb128 0x2
 6518 1346 91       		.byte	0x91
 6519 1347 74       		.sleb128 -12
 6520 1348 00       		.byte	0
 6521 1349 1B       		.uleb128 0x1b
 6522 134a A90C0000 		.4byte	.LASF345
 6523 134e 01       		.byte	0x1
 6524 134f 3809     		.2byte	0x938
 6525 1351 00000000 		.4byte	.LFB18
 6526 1355 A8010000 		.4byte	.LFE18-.LFB18
 6527 1359 01       		.uleb128 0x1
 6528 135a 9C       		.byte	0x9c
 6529 135b 7E130000 		.4byte	0x137e
 6530 135f 19       		.uleb128 0x19
 6531 1360 590B0000 		.4byte	.LASF295
 6532 1364 01       		.byte	0x1
 6533 1365 3809     		.2byte	0x938
 6534 1367 DF0B0000 		.4byte	0xbdf
 6535 136b 02       		.uleb128 0x2
 6536 136c 91       		.byte	0x91
 6537 136d 6C       		.sleb128 -20
 6538 136e 17       		.uleb128 0x17
 6539 136f A5080000 		.4byte	.LASF346
 6540 1373 01       		.byte	0x1
 6541 1374 3B09     		.2byte	0x93b
 6542 1376 8E010000 		.4byte	0x18e
 6543 137a 02       		.uleb128 0x2
 6544 137b 91       		.byte	0x91
 6545 137c 77       		.sleb128 -9
 6546 137d 00       		.byte	0
 6547 137e 1B       		.uleb128 0x1b
 6548 137f 05140000 		.4byte	.LASF347
 6549 1383 01       		.byte	0x1
 6550 1384 F809     		.2byte	0x9f8
 6551 1386 00000000 		.4byte	.LFB19
 6552 138a 08010000 		.4byte	.LFE19-.LFB19
 6553 138e 01       		.uleb128 0x1
 6554 138f 9C       		.byte	0x9c
 6555 1390 FD130000 		.4byte	0x13fd
 6556 1394 19       		.uleb128 0x19
 6557 1395 590B0000 		.4byte	.LASF295
 6558 1399 01       		.byte	0x1
 6559 139a F809     		.2byte	0x9f8
 6560 139c DF0B0000 		.4byte	0xbdf
 6561 13a0 02       		.uleb128 0x2
ARM GAS  C:\Users\ADMINI~1\AppData\Local\Temp\ccvBRVNC.s 			page 173


 6562 13a1 91       		.byte	0x91
 6563 13a2 64       		.sleb128 -28
 6564 13a3 19       		.uleb128 0x19
 6565 13a4 B4040000 		.4byte	.LASF322
 6566 13a8 01       		.byte	0x1
 6567 13a9 F909     		.2byte	0x9f9
 6568 13ab BA000000 		.4byte	0xba
 6569 13af 02       		.uleb128 0x2
 6570 13b0 91       		.byte	0x91
 6571 13b1 60       		.sleb128 -32
 6572 13b2 19       		.uleb128 0x19
 6573 13b3 EA130000 		.4byte	.LASF324
 6574 13b7 01       		.byte	0x1
 6575 13b8 FA09     		.2byte	0x9fa
 6576 13ba 36010000 		.4byte	0x136
 6577 13be 02       		.uleb128 0x2
 6578 13bf 91       		.byte	0x91
 6579 13c0 5E       		.sleb128 -34
 6580 13c1 1A       		.uleb128 0x1a
 6581 13c2 6F707400 		.ascii	"opt\000"
 6582 13c6 01       		.byte	0x1
 6583 13c7 FB09     		.2byte	0x9fb
 6584 13c9 62010000 		.4byte	0x162
 6585 13cd 02       		.uleb128 0x2
 6586 13ce 91       		.byte	0x91
 6587 13cf 5C       		.sleb128 -36
 6588 13d0 1A       		.uleb128 0x1a
 6589 13d1 747300   		.ascii	"ts\000"
 6590 13d4 01       		.byte	0x1
 6591 13d5 FC09     		.2byte	0x9fc
 6592 13d7 F4000000 		.4byte	0xf4
 6593 13db 02       		.uleb128 0x2
 6594 13dc 91       		.byte	0x91
 6595 13dd 00       		.sleb128 0
 6596 13de 19       		.uleb128 0x19
 6597 13df BE090000 		.4byte	.LASF297
 6598 13e3 01       		.byte	0x1
 6599 13e4 FD09     		.2byte	0x9fd
 6600 13e6 820C0000 		.4byte	0xc82
 6601 13ea 02       		.uleb128 0x2
 6602 13eb 91       		.byte	0x91
 6603 13ec 04       		.sleb128 4
 6604 13ed 17       		.uleb128 0x17
 6605 13ee 08060000 		.4byte	.LASF299
 6606 13f2 01       		.byte	0x1
 6607 13f3 FF09     		.2byte	0x9ff
 6608 13f5 DD000000 		.4byte	0xdd
 6609 13f9 02       		.uleb128 0x2
 6610 13fa 91       		.byte	0x91
 6611 13fb 6C       		.sleb128 -20
 6612 13fc 00       		.byte	0
 6613 13fd 1B       		.uleb128 0x1b
 6614 13fe 08120000 		.4byte	.LASF348
 6615 1402 01       		.byte	0x1
 6616 1403 4E0A     		.2byte	0xa4e
 6617 1405 00000000 		.4byte	.LFB20
 6618 1409 3C010000 		.4byte	.LFE20-.LFB20
ARM GAS  C:\Users\ADMINI~1\AppData\Local\Temp\ccvBRVNC.s 			page 174


 6619 140d 01       		.uleb128 0x1
 6620 140e 9C       		.byte	0x9c
 6621 140f 41140000 		.4byte	0x1441
 6622 1413 19       		.uleb128 0x19
 6623 1414 590B0000 		.4byte	.LASF295
 6624 1418 01       		.byte	0x1
 6625 1419 4E0A     		.2byte	0xa4e
 6626 141b DF0B0000 		.4byte	0xbdf
 6627 141f 02       		.uleb128 0x2
 6628 1420 91       		.byte	0x91
 6629 1421 6C       		.sleb128 -20
 6630 1422 19       		.uleb128 0x19
 6631 1423 BE090000 		.4byte	.LASF297
 6632 1427 01       		.byte	0x1
 6633 1428 4F0A     		.2byte	0xa4f
 6634 142a 820C0000 		.4byte	0xc82
 6635 142e 02       		.uleb128 0x2
 6636 142f 91       		.byte	0x91
 6637 1430 68       		.sleb128 -24
 6638 1431 17       		.uleb128 0x17
 6639 1432 08060000 		.4byte	.LASF299
 6640 1436 01       		.byte	0x1
 6641 1437 510A     		.2byte	0xa51
 6642 1439 DD000000 		.4byte	0xdd
 6643 143d 02       		.uleb128 0x2
 6644 143e 91       		.byte	0x91
 6645 143f 74       		.sleb128 -12
 6646 1440 00       		.byte	0
 6647 1441 1B       		.uleb128 0x1b
 6648 1442 93050000 		.4byte	.LASF349
 6649 1446 01       		.byte	0x1
 6650 1447 9B0A     		.2byte	0xa9b
 6651 1449 00000000 		.4byte	.LFB21
 6652 144d 28000000 		.4byte	.LFE21-.LFB21
 6653 1451 01       		.uleb128 0x1
 6654 1452 9C       		.byte	0x9c
 6655 1453 67140000 		.4byte	0x1467
 6656 1457 1C       		.uleb128 0x1c
 6657 1458 65727200 		.ascii	"err\000"
 6658 145c 01       		.byte	0x1
 6659 145d 9D0A     		.2byte	0xa9d
 6660 145f 67060000 		.4byte	0x667
 6661 1463 02       		.uleb128 0x2
 6662 1464 91       		.byte	0x91
 6663 1465 76       		.sleb128 -10
 6664 1466 00       		.byte	0
 6665 1467 18       		.uleb128 0x18
 6666 1468 42140000 		.4byte	.LASF350
 6667 146c 01       		.byte	0x1
 6668 146d CE0A     		.2byte	0xace
 6669 146f 99010000 		.4byte	0x199
 6670 1473 00000000 		.4byte	.LFB22
 6671 1477 40010000 		.4byte	.LFE22-.LFB22
 6672 147b 01       		.uleb128 0x1
 6673 147c 9C       		.byte	0x9c
 6674 147d DB140000 		.4byte	0x14db
 6675 1481 19       		.uleb128 0x19
ARM GAS  C:\Users\ADMINI~1\AppData\Local\Temp\ccvBRVNC.s 			page 175


 6676 1482 590B0000 		.4byte	.LASF295
 6677 1486 01       		.byte	0x1
 6678 1487 CE0A     		.2byte	0xace
 6679 1489 DF0B0000 		.4byte	0xbdf
 6680 148d 02       		.uleb128 0x2
 6681 148e 91       		.byte	0x91
 6682 148f 6C       		.sleb128 -20
 6683 1490 1A       		.uleb128 0x1a
 6684 1491 6F707400 		.ascii	"opt\000"
 6685 1495 01       		.byte	0x1
 6686 1496 CF0A     		.2byte	0xacf
 6687 1498 62010000 		.4byte	0x162
 6688 149c 02       		.uleb128 0x2
 6689 149d 91       		.byte	0x91
 6690 149e 6A       		.sleb128 -22
 6691 149f 1A       		.uleb128 0x1a
 6692 14a0 747300   		.ascii	"ts\000"
 6693 14a3 01       		.byte	0x1
 6694 14a4 D00A     		.2byte	0xad0
 6695 14a6 F4000000 		.4byte	0xf4
 6696 14aa 02       		.uleb128 0x2
 6697 14ab 91       		.byte	0x91
 6698 14ac 64       		.sleb128 -28
 6699 14ad 19       		.uleb128 0x19
 6700 14ae BE090000 		.4byte	.LASF297
 6701 14b2 01       		.byte	0x1
 6702 14b3 D10A     		.2byte	0xad1
 6703 14b5 820C0000 		.4byte	0xc82
 6704 14b9 02       		.uleb128 0x2
 6705 14ba 91       		.byte	0x91
 6706 14bb 60       		.sleb128 -32
 6707 14bc 1C       		.uleb128 0x1c
 6708 14bd 63747200 		.ascii	"ctr\000"
 6709 14c1 01       		.byte	0x1
 6710 14c2 D30A     		.2byte	0xad3
 6711 14c4 99010000 		.4byte	0x199
 6712 14c8 02       		.uleb128 0x2
 6713 14c9 91       		.byte	0x91
 6714 14ca 74       		.sleb128 -12
 6715 14cb 17       		.uleb128 0x17
 6716 14cc 08060000 		.4byte	.LASF299
 6717 14d0 01       		.byte	0x1
 6718 14d1 D40A     		.2byte	0xad4
 6719 14d3 DD000000 		.4byte	0xdd
 6720 14d7 02       		.uleb128 0x2
 6721 14d8 91       		.byte	0x91
 6722 14d9 70       		.sleb128 -16
 6723 14da 00       		.byte	0
 6724 14db 1B       		.uleb128 0x1b
 6725 14dc 1D0F0000 		.4byte	.LASF351
 6726 14e0 01       		.byte	0x1
 6727 14e1 BC0B     		.2byte	0xbbc
 6728 14e3 00000000 		.4byte	.LFB23
 6729 14e7 84010000 		.4byte	.LFE23-.LFB23
 6730 14eb 01       		.uleb128 0x1
 6731 14ec 9C       		.byte	0x9c
 6732 14ed 1F150000 		.4byte	0x151f
ARM GAS  C:\Users\ADMINI~1\AppData\Local\Temp\ccvBRVNC.s 			page 176


 6733 14f1 19       		.uleb128 0x19
 6734 14f2 590B0000 		.4byte	.LASF295
 6735 14f6 01       		.byte	0x1
 6736 14f7 BC0B     		.2byte	0xbbc
 6737 14f9 DF0B0000 		.4byte	0xbdf
 6738 14fd 02       		.uleb128 0x2
 6739 14fe 91       		.byte	0x91
 6740 14ff 6C       		.sleb128 -20
 6741 1500 19       		.uleb128 0x19
 6742 1501 BE090000 		.4byte	.LASF297
 6743 1505 01       		.byte	0x1
 6744 1506 BD0B     		.2byte	0xbbd
 6745 1508 820C0000 		.4byte	0xc82
 6746 150c 02       		.uleb128 0x2
 6747 150d 91       		.byte	0x91
 6748 150e 68       		.sleb128 -24
 6749 150f 17       		.uleb128 0x17
 6750 1510 08060000 		.4byte	.LASF299
 6751 1514 01       		.byte	0x1
 6752 1515 BF0B     		.2byte	0xbbf
 6753 1517 DD000000 		.4byte	0xdd
 6754 151b 02       		.uleb128 0x2
 6755 151c 91       		.byte	0x91
 6756 151d 74       		.sleb128 -12
 6757 151e 00       		.byte	0
 6758 151f 1B       		.uleb128 0x1b
 6759 1520 D9080000 		.4byte	.LASF352
 6760 1524 01       		.byte	0x1
 6761 1525 1E0C     		.2byte	0xc1e
 6762 1527 00000000 		.4byte	.LFB24
 6763 152b 4C010000 		.4byte	.LFE24-.LFB24
 6764 152f 01       		.uleb128 0x1
 6765 1530 9C       		.byte	0x9c
 6766 1531 72150000 		.4byte	0x1572
 6767 1535 19       		.uleb128 0x19
 6768 1536 590B0000 		.4byte	.LASF295
 6769 153a 01       		.byte	0x1
 6770 153b 1E0C     		.2byte	0xc1e
 6771 153d DF0B0000 		.4byte	0xbdf
 6772 1541 02       		.uleb128 0x2
 6773 1542 91       		.byte	0x91
 6774 1543 64       		.sleb128 -28
 6775 1544 19       		.uleb128 0x19
 6776 1545 CD100000 		.4byte	.LASF296
 6777 1549 01       		.byte	0x1
 6778 154a 1F0C     		.2byte	0xc1f
 6779 154c 6D010000 		.4byte	0x16d
 6780 1550 02       		.uleb128 0x2
 6781 1551 91       		.byte	0x91
 6782 1552 63       		.sleb128 -29
 6783 1553 17       		.uleb128 0x17
 6784 1554 BB100000 		.4byte	.LASF353
 6785 1558 01       		.byte	0x1
 6786 1559 210C     		.2byte	0xc21
 6787 155b DF0B0000 		.4byte	0xbdf
 6788 155f 02       		.uleb128 0x2
 6789 1560 91       		.byte	0x91
ARM GAS  C:\Users\ADMINI~1\AppData\Local\Temp\ccvBRVNC.s 			page 177


 6790 1561 6C       		.sleb128 -20
 6791 1562 17       		.uleb128 0x17
 6792 1563 080A0000 		.4byte	.LASF354
 6793 1567 01       		.byte	0x1
 6794 1568 230C     		.2byte	0xc23
 6795 156a 6D010000 		.4byte	0x16d
 6796 156e 02       		.uleb128 0x2
 6797 156f 91       		.byte	0x91
 6798 1570 6B       		.sleb128 -21
 6799 1571 00       		.byte	0
 6800 1572 1E       		.uleb128 0x1e
 6801 1573 7E070000 		.4byte	.LASF355
 6802 1577 05       		.byte	0x5
 6803 1578 2005     		.2byte	0x520
 6804 157a C3070000 		.4byte	0x7c3
 6805 157e 1E       		.uleb128 0x1e
 6806 157f 590E0000 		.4byte	.LASF356
 6807 1583 05       		.byte	0x5
 6808 1584 2405     		.2byte	0x524
 6809 1586 41010000 		.4byte	0x141
 6810 158a 1E       		.uleb128 0x1e
 6811 158b 32090000 		.4byte	.LASF357
 6812 158f 05       		.byte	0x5
 6813 1590 2B05     		.2byte	0x52b
 6814 1592 A4010000 		.4byte	0x1a4
 6815 1596 1E       		.uleb128 0x1e
 6816 1597 8E120000 		.4byte	.LASF358
 6817 159b 05       		.byte	0x5
 6818 159c 7905     		.2byte	0x579
 6819 159e 41010000 		.4byte	0x141
 6820 15a2 1E       		.uleb128 0x1e
 6821 15a3 85090000 		.4byte	.LASF359
 6822 15a7 05       		.byte	0x5
 6823 15a8 9F05     		.2byte	0x59f
 6824 15aa 0A010000 		.4byte	0x10a
 6825 15ae 1E       		.uleb128 0x1e
 6826 15af 3C150000 		.4byte	.LASF360
 6827 15b3 05       		.byte	0x5
 6828 15b4 A105     		.2byte	0x5a1
 6829 15b6 DF0B0000 		.4byte	0xbdf
 6830 15ba 1E       		.uleb128 0x1e
 6831 15bb AF0B0000 		.4byte	.LASF361
 6832 15bf 05       		.byte	0x5
 6833 15c0 A505     		.2byte	0x5a5
 6834 15c2 4C010000 		.4byte	0x14c
 6835 15c6 1E       		.uleb128 0x1e
 6836 15c7 9A0B0000 		.4byte	.LASF362
 6837 15cb 05       		.byte	0x5
 6838 15cc A805     		.2byte	0x5a8
 6839 15ce 8E010000 		.4byte	0x18e
 6840 15d2 1E       		.uleb128 0x1e
 6841 15d3 24020000 		.4byte	.LASF363
 6842 15d7 05       		.byte	0x5
 6843 15d8 D505     		.2byte	0x5d5
 6844 15da DF0B0000 		.4byte	0xbdf
 6845 15de 1E       		.uleb128 0x1e
 6846 15df 240D0000 		.4byte	.LASF364
ARM GAS  C:\Users\ADMINI~1\AppData\Local\Temp\ccvBRVNC.s 			page 178


 6847 15e3 05       		.byte	0x5
 6848 15e4 FD05     		.2byte	0x5fd
 6849 15e6 EA150000 		.4byte	0x15ea
 6850 15ea 1F       		.uleb128 0x1f
 6851 15eb D2000000 		.4byte	0xd2
 6852 15ef 1E       		.uleb128 0x1e
 6853 15f0 2D160000 		.4byte	.LASF365
 6854 15f4 05       		.byte	0x5
 6855 15f5 FF05     		.2byte	0x5ff
 6856 15f7 FB150000 		.4byte	0x15fb
 6857 15fb 1F       		.uleb128 0x1f
 6858 15fc 78010000 		.4byte	0x178
 6859 1600 00       		.byte	0
 6860              		.section	.debug_abbrev,"",%progbits
 6861              	.Ldebug_abbrev0:
 6862 0000 01       		.uleb128 0x1
 6863 0001 11       		.uleb128 0x11
 6864 0002 01       		.byte	0x1
 6865 0003 25       		.uleb128 0x25
 6866 0004 0E       		.uleb128 0xe
 6867 0005 13       		.uleb128 0x13
 6868 0006 0B       		.uleb128 0xb
 6869 0007 03       		.uleb128 0x3
 6870 0008 0E       		.uleb128 0xe
 6871 0009 1B       		.uleb128 0x1b
 6872 000a 0E       		.uleb128 0xe
 6873 000b 55       		.uleb128 0x55
 6874 000c 17       		.uleb128 0x17
 6875 000d 11       		.uleb128 0x11
 6876 000e 01       		.uleb128 0x1
 6877 000f 10       		.uleb128 0x10
 6878 0010 17       		.uleb128 0x17
 6879 0011 00       		.byte	0
 6880 0012 00       		.byte	0
 6881 0013 02       		.uleb128 0x2
 6882 0014 16       		.uleb128 0x16
 6883 0015 00       		.byte	0
 6884 0016 03       		.uleb128 0x3
 6885 0017 0E       		.uleb128 0xe
 6886 0018 3A       		.uleb128 0x3a
 6887 0019 0B       		.uleb128 0xb
 6888 001a 3B       		.uleb128 0x3b
 6889 001b 0B       		.uleb128 0xb
 6890 001c 49       		.uleb128 0x49
 6891 001d 13       		.uleb128 0x13
 6892 001e 00       		.byte	0
 6893 001f 00       		.byte	0
 6894 0020 03       		.uleb128 0x3
 6895 0021 24       		.uleb128 0x24
 6896 0022 00       		.byte	0
 6897 0023 0B       		.uleb128 0xb
 6898 0024 0B       		.uleb128 0xb
 6899 0025 3E       		.uleb128 0x3e
 6900 0026 0B       		.uleb128 0xb
 6901 0027 03       		.uleb128 0x3
 6902 0028 0E       		.uleb128 0xe
 6903 0029 00       		.byte	0
ARM GAS  C:\Users\ADMINI~1\AppData\Local\Temp\ccvBRVNC.s 			page 179


 6904 002a 00       		.byte	0
 6905 002b 04       		.uleb128 0x4
 6906 002c 24       		.uleb128 0x24
 6907 002d 00       		.byte	0
 6908 002e 0B       		.uleb128 0xb
 6909 002f 0B       		.uleb128 0xb
 6910 0030 3E       		.uleb128 0x3e
 6911 0031 0B       		.uleb128 0xb
 6912 0032 03       		.uleb128 0x3
 6913 0033 08       		.uleb128 0x8
 6914 0034 00       		.byte	0
 6915 0035 00       		.byte	0
 6916 0036 05       		.uleb128 0x5
 6917 0037 0F       		.uleb128 0xf
 6918 0038 00       		.byte	0
 6919 0039 0B       		.uleb128 0xb
 6920 003a 0B       		.uleb128 0xb
 6921 003b 49       		.uleb128 0x49
 6922 003c 13       		.uleb128 0x13
 6923 003d 00       		.byte	0
 6924 003e 00       		.byte	0
 6925 003f 06       		.uleb128 0x6
 6926 0040 15       		.uleb128 0x15
 6927 0041 01       		.byte	0x1
 6928 0042 27       		.uleb128 0x27
 6929 0043 19       		.uleb128 0x19
 6930 0044 01       		.uleb128 0x1
 6931 0045 13       		.uleb128 0x13
 6932 0046 00       		.byte	0
 6933 0047 00       		.byte	0
 6934 0048 07       		.uleb128 0x7
 6935 0049 05       		.uleb128 0x5
 6936 004a 00       		.byte	0
 6937 004b 49       		.uleb128 0x49
 6938 004c 13       		.uleb128 0x13
 6939 004d 00       		.byte	0
 6940 004e 00       		.byte	0
 6941 004f 08       		.uleb128 0x8
 6942 0050 0F       		.uleb128 0xf
 6943 0051 00       		.byte	0
 6944 0052 0B       		.uleb128 0xb
 6945 0053 0B       		.uleb128 0xb
 6946 0054 00       		.byte	0
 6947 0055 00       		.byte	0
 6948 0056 09       		.uleb128 0x9
 6949 0057 16       		.uleb128 0x16
 6950 0058 00       		.byte	0
 6951 0059 03       		.uleb128 0x3
 6952 005a 0E       		.uleb128 0xe
 6953 005b 3A       		.uleb128 0x3a
 6954 005c 0B       		.uleb128 0xb
 6955 005d 3B       		.uleb128 0x3b
 6956 005e 05       		.uleb128 0x5
 6957 005f 49       		.uleb128 0x49
 6958 0060 13       		.uleb128 0x13
 6959 0061 00       		.byte	0
 6960 0062 00       		.byte	0
ARM GAS  C:\Users\ADMINI~1\AppData\Local\Temp\ccvBRVNC.s 			page 180


 6961 0063 0A       		.uleb128 0xa
 6962 0064 04       		.uleb128 0x4
 6963 0065 01       		.byte	0x1
 6964 0066 03       		.uleb128 0x3
 6965 0067 0E       		.uleb128 0xe
 6966 0068 0B       		.uleb128 0xb
 6967 0069 0B       		.uleb128 0xb
 6968 006a 49       		.uleb128 0x49
 6969 006b 13       		.uleb128 0x13
 6970 006c 3A       		.uleb128 0x3a
 6971 006d 0B       		.uleb128 0xb
 6972 006e 3B       		.uleb128 0x3b
 6973 006f 05       		.uleb128 0x5
 6974 0070 01       		.uleb128 0x1
 6975 0071 13       		.uleb128 0x13
 6976 0072 00       		.byte	0
 6977 0073 00       		.byte	0
 6978 0074 0B       		.uleb128 0xb
 6979 0075 28       		.uleb128 0x28
 6980 0076 00       		.byte	0
 6981 0077 03       		.uleb128 0x3
 6982 0078 0E       		.uleb128 0xe
 6983 0079 1C       		.uleb128 0x1c
 6984 007a 0B       		.uleb128 0xb
 6985 007b 00       		.byte	0
 6986 007c 00       		.byte	0
 6987 007d 0C       		.uleb128 0xc
 6988 007e 28       		.uleb128 0x28
 6989 007f 00       		.byte	0
 6990 0080 03       		.uleb128 0x3
 6991 0081 0E       		.uleb128 0xe
 6992 0082 1C       		.uleb128 0x1c
 6993 0083 05       		.uleb128 0x5
 6994 0084 00       		.byte	0
 6995 0085 00       		.byte	0
 6996 0086 0D       		.uleb128 0xd
 6997 0087 13       		.uleb128 0x13
 6998 0088 01       		.byte	0x1
 6999 0089 03       		.uleb128 0x3
 7000 008a 0E       		.uleb128 0xe
 7001 008b 0B       		.uleb128 0xb
 7002 008c 0B       		.uleb128 0xb
 7003 008d 3A       		.uleb128 0x3a
 7004 008e 0B       		.uleb128 0xb
 7005 008f 3B       		.uleb128 0x3b
 7006 0090 05       		.uleb128 0x5
 7007 0091 01       		.uleb128 0x1
 7008 0092 13       		.uleb128 0x13
 7009 0093 00       		.byte	0
 7010 0094 00       		.byte	0
 7011 0095 0E       		.uleb128 0xe
 7012 0096 0D       		.uleb128 0xd
 7013 0097 00       		.byte	0
 7014 0098 03       		.uleb128 0x3
 7015 0099 0E       		.uleb128 0xe
 7016 009a 3A       		.uleb128 0x3a
 7017 009b 0B       		.uleb128 0xb
ARM GAS  C:\Users\ADMINI~1\AppData\Local\Temp\ccvBRVNC.s 			page 181


 7018 009c 3B       		.uleb128 0x3b
 7019 009d 05       		.uleb128 0x5
 7020 009e 49       		.uleb128 0x49
 7021 009f 13       		.uleb128 0x13
 7022 00a0 38       		.uleb128 0x38
 7023 00a1 0B       		.uleb128 0xb
 7024 00a2 00       		.byte	0
 7025 00a3 00       		.byte	0
 7026 00a4 0F       		.uleb128 0xf
 7027 00a5 0D       		.uleb128 0xd
 7028 00a6 00       		.byte	0
 7029 00a7 03       		.uleb128 0x3
 7030 00a8 08       		.uleb128 0x8
 7031 00a9 3A       		.uleb128 0x3a
 7032 00aa 0B       		.uleb128 0xb
 7033 00ab 3B       		.uleb128 0x3b
 7034 00ac 05       		.uleb128 0x5
 7035 00ad 49       		.uleb128 0x49
 7036 00ae 13       		.uleb128 0x13
 7037 00af 38       		.uleb128 0x38
 7038 00b0 0B       		.uleb128 0xb
 7039 00b1 00       		.byte	0
 7040 00b2 00       		.byte	0
 7041 00b3 10       		.uleb128 0x10
 7042 00b4 01       		.uleb128 0x1
 7043 00b5 01       		.byte	0x1
 7044 00b6 49       		.uleb128 0x49
 7045 00b7 13       		.uleb128 0x13
 7046 00b8 01       		.uleb128 0x1
 7047 00b9 13       		.uleb128 0x13
 7048 00ba 00       		.byte	0
 7049 00bb 00       		.byte	0
 7050 00bc 11       		.uleb128 0x11
 7051 00bd 21       		.uleb128 0x21
 7052 00be 00       		.byte	0
 7053 00bf 49       		.uleb128 0x49
 7054 00c0 13       		.uleb128 0x13
 7055 00c1 2F       		.uleb128 0x2f
 7056 00c2 0B       		.uleb128 0xb
 7057 00c3 00       		.byte	0
 7058 00c4 00       		.byte	0
 7059 00c5 12       		.uleb128 0x12
 7060 00c6 2E       		.uleb128 0x2e
 7061 00c7 01       		.byte	0x1
 7062 00c8 3F       		.uleb128 0x3f
 7063 00c9 19       		.uleb128 0x19
 7064 00ca 03       		.uleb128 0x3
 7065 00cb 0E       		.uleb128 0xe
 7066 00cc 3A       		.uleb128 0x3a
 7067 00cd 0B       		.uleb128 0xb
 7068 00ce 3B       		.uleb128 0x3b
 7069 00cf 0B       		.uleb128 0xb
 7070 00d0 27       		.uleb128 0x27
 7071 00d1 19       		.uleb128 0x19
 7072 00d2 11       		.uleb128 0x11
 7073 00d3 01       		.uleb128 0x1
 7074 00d4 12       		.uleb128 0x12
ARM GAS  C:\Users\ADMINI~1\AppData\Local\Temp\ccvBRVNC.s 			page 182


 7075 00d5 06       		.uleb128 0x6
 7076 00d6 40       		.uleb128 0x40
 7077 00d7 18       		.uleb128 0x18
 7078 00d8 9642     		.uleb128 0x2116
 7079 00da 19       		.uleb128 0x19
 7080 00db 01       		.uleb128 0x1
 7081 00dc 13       		.uleb128 0x13
 7082 00dd 00       		.byte	0
 7083 00de 00       		.byte	0
 7084 00df 13       		.uleb128 0x13
 7085 00e0 05       		.uleb128 0x5
 7086 00e1 00       		.byte	0
 7087 00e2 03       		.uleb128 0x3
 7088 00e3 0E       		.uleb128 0xe
 7089 00e4 3A       		.uleb128 0x3a
 7090 00e5 0B       		.uleb128 0xb
 7091 00e6 3B       		.uleb128 0x3b
 7092 00e7 0B       		.uleb128 0xb
 7093 00e8 49       		.uleb128 0x49
 7094 00e9 13       		.uleb128 0x13
 7095 00ea 02       		.uleb128 0x2
 7096 00eb 18       		.uleb128 0x18
 7097 00ec 00       		.byte	0
 7098 00ed 00       		.byte	0
 7099 00ee 14       		.uleb128 0x14
 7100 00ef 34       		.uleb128 0x34
 7101 00f0 00       		.byte	0
 7102 00f1 03       		.uleb128 0x3
 7103 00f2 0E       		.uleb128 0xe
 7104 00f3 3A       		.uleb128 0x3a
 7105 00f4 0B       		.uleb128 0xb
 7106 00f5 3B       		.uleb128 0x3b
 7107 00f6 0B       		.uleb128 0xb
 7108 00f7 49       		.uleb128 0x49
 7109 00f8 13       		.uleb128 0x13
 7110 00f9 02       		.uleb128 0x2
 7111 00fa 18       		.uleb128 0x18
 7112 00fb 00       		.byte	0
 7113 00fc 00       		.byte	0
 7114 00fd 15       		.uleb128 0x15
 7115 00fe 05       		.uleb128 0x5
 7116 00ff 00       		.byte	0
 7117 0100 03       		.uleb128 0x3
 7118 0101 08       		.uleb128 0x8
 7119 0102 3A       		.uleb128 0x3a
 7120 0103 0B       		.uleb128 0xb
 7121 0104 3B       		.uleb128 0x3b
 7122 0105 0B       		.uleb128 0xb
 7123 0106 49       		.uleb128 0x49
 7124 0107 13       		.uleb128 0x13
 7125 0108 02       		.uleb128 0x2
 7126 0109 18       		.uleb128 0x18
 7127 010a 00       		.byte	0
 7128 010b 00       		.byte	0
 7129 010c 16       		.uleb128 0x16
 7130 010d 34       		.uleb128 0x34
 7131 010e 00       		.byte	0
ARM GAS  C:\Users\ADMINI~1\AppData\Local\Temp\ccvBRVNC.s 			page 183


 7132 010f 03       		.uleb128 0x3
 7133 0110 08       		.uleb128 0x8
 7134 0111 3A       		.uleb128 0x3a
 7135 0112 0B       		.uleb128 0xb
 7136 0113 3B       		.uleb128 0x3b
 7137 0114 0B       		.uleb128 0xb
 7138 0115 49       		.uleb128 0x49
 7139 0116 13       		.uleb128 0x13
 7140 0117 02       		.uleb128 0x2
 7141 0118 18       		.uleb128 0x18
 7142 0119 00       		.byte	0
 7143 011a 00       		.byte	0
 7144 011b 17       		.uleb128 0x17
 7145 011c 34       		.uleb128 0x34
 7146 011d 00       		.byte	0
 7147 011e 03       		.uleb128 0x3
 7148 011f 0E       		.uleb128 0xe
 7149 0120 3A       		.uleb128 0x3a
 7150 0121 0B       		.uleb128 0xb
 7151 0122 3B       		.uleb128 0x3b
 7152 0123 05       		.uleb128 0x5
 7153 0124 49       		.uleb128 0x49
 7154 0125 13       		.uleb128 0x13
 7155 0126 02       		.uleb128 0x2
 7156 0127 18       		.uleb128 0x18
 7157 0128 00       		.byte	0
 7158 0129 00       		.byte	0
 7159 012a 18       		.uleb128 0x18
 7160 012b 2E       		.uleb128 0x2e
 7161 012c 01       		.byte	0x1
 7162 012d 3F       		.uleb128 0x3f
 7163 012e 19       		.uleb128 0x19
 7164 012f 03       		.uleb128 0x3
 7165 0130 0E       		.uleb128 0xe
 7166 0131 3A       		.uleb128 0x3a
 7167 0132 0B       		.uleb128 0xb
 7168 0133 3B       		.uleb128 0x3b
 7169 0134 05       		.uleb128 0x5
 7170 0135 27       		.uleb128 0x27
 7171 0136 19       		.uleb128 0x19
 7172 0137 49       		.uleb128 0x49
 7173 0138 13       		.uleb128 0x13
 7174 0139 11       		.uleb128 0x11
 7175 013a 01       		.uleb128 0x1
 7176 013b 12       		.uleb128 0x12
 7177 013c 06       		.uleb128 0x6
 7178 013d 40       		.uleb128 0x40
 7179 013e 18       		.uleb128 0x18
 7180 013f 9642     		.uleb128 0x2116
 7181 0141 19       		.uleb128 0x19
 7182 0142 01       		.uleb128 0x1
 7183 0143 13       		.uleb128 0x13
 7184 0144 00       		.byte	0
 7185 0145 00       		.byte	0
 7186 0146 19       		.uleb128 0x19
 7187 0147 05       		.uleb128 0x5
 7188 0148 00       		.byte	0
ARM GAS  C:\Users\ADMINI~1\AppData\Local\Temp\ccvBRVNC.s 			page 184


 7189 0149 03       		.uleb128 0x3
 7190 014a 0E       		.uleb128 0xe
 7191 014b 3A       		.uleb128 0x3a
 7192 014c 0B       		.uleb128 0xb
 7193 014d 3B       		.uleb128 0x3b
 7194 014e 05       		.uleb128 0x5
 7195 014f 49       		.uleb128 0x49
 7196 0150 13       		.uleb128 0x13
 7197 0151 02       		.uleb128 0x2
 7198 0152 18       		.uleb128 0x18
 7199 0153 00       		.byte	0
 7200 0154 00       		.byte	0
 7201 0155 1A       		.uleb128 0x1a
 7202 0156 05       		.uleb128 0x5
 7203 0157 00       		.byte	0
 7204 0158 03       		.uleb128 0x3
 7205 0159 08       		.uleb128 0x8
 7206 015a 3A       		.uleb128 0x3a
 7207 015b 0B       		.uleb128 0xb
 7208 015c 3B       		.uleb128 0x3b
 7209 015d 05       		.uleb128 0x5
 7210 015e 49       		.uleb128 0x49
 7211 015f 13       		.uleb128 0x13
 7212 0160 02       		.uleb128 0x2
 7213 0161 18       		.uleb128 0x18
 7214 0162 00       		.byte	0
 7215 0163 00       		.byte	0
 7216 0164 1B       		.uleb128 0x1b
 7217 0165 2E       		.uleb128 0x2e
 7218 0166 01       		.byte	0x1
 7219 0167 3F       		.uleb128 0x3f
 7220 0168 19       		.uleb128 0x19
 7221 0169 03       		.uleb128 0x3
 7222 016a 0E       		.uleb128 0xe
 7223 016b 3A       		.uleb128 0x3a
 7224 016c 0B       		.uleb128 0xb
 7225 016d 3B       		.uleb128 0x3b
 7226 016e 05       		.uleb128 0x5
 7227 016f 27       		.uleb128 0x27
 7228 0170 19       		.uleb128 0x19
 7229 0171 11       		.uleb128 0x11
 7230 0172 01       		.uleb128 0x1
 7231 0173 12       		.uleb128 0x12
 7232 0174 06       		.uleb128 0x6
 7233 0175 40       		.uleb128 0x40
 7234 0176 18       		.uleb128 0x18
 7235 0177 9642     		.uleb128 0x2116
 7236 0179 19       		.uleb128 0x19
 7237 017a 01       		.uleb128 0x1
 7238 017b 13       		.uleb128 0x13
 7239 017c 00       		.byte	0
 7240 017d 00       		.byte	0
 7241 017e 1C       		.uleb128 0x1c
 7242 017f 34       		.uleb128 0x34
 7243 0180 00       		.byte	0
 7244 0181 03       		.uleb128 0x3
 7245 0182 08       		.uleb128 0x8
ARM GAS  C:\Users\ADMINI~1\AppData\Local\Temp\ccvBRVNC.s 			page 185


 7246 0183 3A       		.uleb128 0x3a
 7247 0184 0B       		.uleb128 0xb
 7248 0185 3B       		.uleb128 0x3b
 7249 0186 05       		.uleb128 0x5
 7250 0187 49       		.uleb128 0x49
 7251 0188 13       		.uleb128 0x13
 7252 0189 02       		.uleb128 0x2
 7253 018a 18       		.uleb128 0x18
 7254 018b 00       		.byte	0
 7255 018c 00       		.byte	0
 7256 018d 1D       		.uleb128 0x1d
 7257 018e 2E       		.uleb128 0x2e
 7258 018f 01       		.byte	0x1
 7259 0190 3F       		.uleb128 0x3f
 7260 0191 19       		.uleb128 0x19
 7261 0192 03       		.uleb128 0x3
 7262 0193 0E       		.uleb128 0xe
 7263 0194 3A       		.uleb128 0x3a
 7264 0195 0B       		.uleb128 0xb
 7265 0196 3B       		.uleb128 0x3b
 7266 0197 05       		.uleb128 0x5
 7267 0198 27       		.uleb128 0x27
 7268 0199 19       		.uleb128 0x19
 7269 019a 11       		.uleb128 0x11
 7270 019b 01       		.uleb128 0x1
 7271 019c 12       		.uleb128 0x12
 7272 019d 06       		.uleb128 0x6
 7273 019e 40       		.uleb128 0x40
 7274 019f 18       		.uleb128 0x18
 7275 01a0 9742     		.uleb128 0x2117
 7276 01a2 19       		.uleb128 0x19
 7277 01a3 01       		.uleb128 0x1
 7278 01a4 13       		.uleb128 0x13
 7279 01a5 00       		.byte	0
 7280 01a6 00       		.byte	0
 7281 01a7 1E       		.uleb128 0x1e
 7282 01a8 34       		.uleb128 0x34
 7283 01a9 00       		.byte	0
 7284 01aa 03       		.uleb128 0x3
 7285 01ab 0E       		.uleb128 0xe
 7286 01ac 3A       		.uleb128 0x3a
 7287 01ad 0B       		.uleb128 0xb
 7288 01ae 3B       		.uleb128 0x3b
 7289 01af 05       		.uleb128 0x5
 7290 01b0 49       		.uleb128 0x49
 7291 01b1 13       		.uleb128 0x13
 7292 01b2 3F       		.uleb128 0x3f
 7293 01b3 19       		.uleb128 0x19
 7294 01b4 3C       		.uleb128 0x3c
 7295 01b5 19       		.uleb128 0x19
 7296 01b6 00       		.byte	0
 7297 01b7 00       		.byte	0
 7298 01b8 1F       		.uleb128 0x1f
 7299 01b9 26       		.uleb128 0x26
 7300 01ba 00       		.byte	0
 7301 01bb 49       		.uleb128 0x49
 7302 01bc 13       		.uleb128 0x13
ARM GAS  C:\Users\ADMINI~1\AppData\Local\Temp\ccvBRVNC.s 			page 186


 7303 01bd 00       		.byte	0
 7304 01be 00       		.byte	0
 7305 01bf 00       		.byte	0
 7306              		.section	.debug_aranges,"",%progbits
 7307 0000 DC000000 		.4byte	0xdc
 7308 0004 0200     		.2byte	0x2
 7309 0006 00000000 		.4byte	.Ldebug_info0
 7310 000a 04       		.byte	0x4
 7311 000b 00       		.byte	0
 7312 000c 0000     		.2byte	0
 7313 000e 0000     		.2byte	0
 7314 0010 00000000 		.4byte	.LFB0
 7315 0014 24010000 		.4byte	.LFE0-.LFB0
 7316 0018 00000000 		.4byte	.LFB1
 7317 001c 60020000 		.4byte	.LFE1-.LFB1
 7318 0020 00000000 		.4byte	.LFB2
 7319 0024 8C000000 		.4byte	.LFE2-.LFB2
 7320 0028 00000000 		.4byte	.LFB3
 7321 002c 28020000 		.4byte	.LFE3-.LFB3
 7322 0030 00000000 		.4byte	.LFB4
 7323 0034 70000000 		.4byte	.LFE4-.LFB4
 7324 0038 00000000 		.4byte	.LFB5
 7325 003c 78000000 		.4byte	.LFE5-.LFB5
 7326 0040 00000000 		.4byte	.LFB6
 7327 0044 74000000 		.4byte	.LFE6-.LFB6
 7328 0048 00000000 		.4byte	.LFB7
 7329 004c 74000000 		.4byte	.LFE7-.LFB7
 7330 0050 00000000 		.4byte	.LFB8
 7331 0054 7C000000 		.4byte	.LFE8-.LFB8
 7332 0058 00000000 		.4byte	.LFB9
 7333 005c 30020000 		.4byte	.LFE9-.LFB9
 7334 0060 00000000 		.4byte	.LFB10
 7335 0064 08010000 		.4byte	.LFE10-.LFB10
 7336 0068 00000000 		.4byte	.LFB11
 7337 006c 5C000000 		.4byte	.LFE11-.LFB11
 7338 0070 00000000 		.4byte	.LFB12
 7339 0074 A0000000 		.4byte	.LFE12-.LFB12
 7340 0078 00000000 		.4byte	.LFB13
 7341 007c 10010000 		.4byte	.LFE13-.LFB13
 7342 0080 00000000 		.4byte	.LFB14
 7343 0084 4C000000 		.4byte	.LFE14-.LFB14
 7344 0088 00000000 		.4byte	.LFB15
 7345 008c 48000000 		.4byte	.LFE15-.LFB15
 7346 0090 00000000 		.4byte	.LFB16
 7347 0094 80000000 		.4byte	.LFE16-.LFB16
 7348 0098 00000000 		.4byte	.LFB17
 7349 009c 34000000 		.4byte	.LFE17-.LFB17
 7350 00a0 00000000 		.4byte	.LFB18
 7351 00a4 A8010000 		.4byte	.LFE18-.LFB18
 7352 00a8 00000000 		.4byte	.LFB19
 7353 00ac 08010000 		.4byte	.LFE19-.LFB19
 7354 00b0 00000000 		.4byte	.LFB20
 7355 00b4 3C010000 		.4byte	.LFE20-.LFB20
 7356 00b8 00000000 		.4byte	.LFB21
 7357 00bc 28000000 		.4byte	.LFE21-.LFB21
 7358 00c0 00000000 		.4byte	.LFB22
 7359 00c4 40010000 		.4byte	.LFE22-.LFB22
ARM GAS  C:\Users\ADMINI~1\AppData\Local\Temp\ccvBRVNC.s 			page 187


 7360 00c8 00000000 		.4byte	.LFB23
 7361 00cc 84010000 		.4byte	.LFE23-.LFB23
 7362 00d0 00000000 		.4byte	.LFB24
 7363 00d4 4C010000 		.4byte	.LFE24-.LFB24
 7364 00d8 00000000 		.4byte	0
 7365 00dc 00000000 		.4byte	0
 7366              		.section	.debug_ranges,"",%progbits
 7367              	.Ldebug_ranges0:
 7368 0000 00000000 		.4byte	.LFB0
 7369 0004 24010000 		.4byte	.LFE0
 7370 0008 00000000 		.4byte	.LFB1
 7371 000c 60020000 		.4byte	.LFE1
 7372 0010 00000000 		.4byte	.LFB2
 7373 0014 8C000000 		.4byte	.LFE2
 7374 0018 00000000 		.4byte	.LFB3
 7375 001c 28020000 		.4byte	.LFE3
 7376 0020 00000000 		.4byte	.LFB4
 7377 0024 70000000 		.4byte	.LFE4
 7378 0028 00000000 		.4byte	.LFB5
 7379 002c 78000000 		.4byte	.LFE5
 7380 0030 00000000 		.4byte	.LFB6
 7381 0034 74000000 		.4byte	.LFE6
 7382 0038 00000000 		.4byte	.LFB7
 7383 003c 74000000 		.4byte	.LFE7
 7384 0040 00000000 		.4byte	.LFB8
 7385 0044 7C000000 		.4byte	.LFE8
 7386 0048 00000000 		.4byte	.LFB9
 7387 004c 30020000 		.4byte	.LFE9
 7388 0050 00000000 		.4byte	.LFB10
 7389 0054 08010000 		.4byte	.LFE10
 7390 0058 00000000 		.4byte	.LFB11
 7391 005c 5C000000 		.4byte	.LFE11
 7392 0060 00000000 		.4byte	.LFB12
 7393 0064 A0000000 		.4byte	.LFE12
 7394 0068 00000000 		.4byte	.LFB13
 7395 006c 10010000 		.4byte	.LFE13
 7396 0070 00000000 		.4byte	.LFB14
 7397 0074 4C000000 		.4byte	.LFE14
 7398 0078 00000000 		.4byte	.LFB15
 7399 007c 48000000 		.4byte	.LFE15
 7400 0080 00000000 		.4byte	.LFB16
 7401 0084 80000000 		.4byte	.LFE16
 7402 0088 00000000 		.4byte	.LFB17
 7403 008c 34000000 		.4byte	.LFE17
 7404 0090 00000000 		.4byte	.LFB18
 7405 0094 A8010000 		.4byte	.LFE18
 7406 0098 00000000 		.4byte	.LFB19
 7407 009c 08010000 		.4byte	.LFE19
 7408 00a0 00000000 		.4byte	.LFB20
 7409 00a4 3C010000 		.4byte	.LFE20
 7410 00a8 00000000 		.4byte	.LFB21
 7411 00ac 28000000 		.4byte	.LFE21
 7412 00b0 00000000 		.4byte	.LFB22
 7413 00b4 40010000 		.4byte	.LFE22
 7414 00b8 00000000 		.4byte	.LFB23
 7415 00bc 84010000 		.4byte	.LFE23
 7416 00c0 00000000 		.4byte	.LFB24
ARM GAS  C:\Users\ADMINI~1\AppData\Local\Temp\ccvBRVNC.s 			page 188


 7417 00c4 4C010000 		.4byte	.LFE24
 7418 00c8 00000000 		.4byte	0
 7419 00cc 00000000 		.4byte	0
 7420              		.section	.debug_line,"",%progbits
 7421              	.Ldebug_line0:
 7422 0000 C0050000 		.section	.debug_str,"MS",%progbits,1
 7422      0200CD00 
 7422      00000201 
 7422      FB0E0D00 
 7422      01010101 
 7423              	.LASF233:
 7424 0000 6F735F74 		.ascii	"os_tcb\000"
 7424      636200
 7425              	.LASF301:
 7426 0007 4F535461 		.ascii	"OSTaskCreate\000"
 7426      736B4372 
 7426      65617465 
 7426      00
 7427              	.LASF111:
 7428 0014 4F535F45 		.ascii	"OS_ERR_PRIO_INVALID\000"
 7428      52525F50 
 7428      52494F5F 
 7428      494E5641 
 7428      4C494400 
 7429              	.LASF206:
 7430 0028 4F535F45 		.ascii	"OS_ERR\000"
 7430      525200
 7431              	.LASF22:
 7432 002f 4F535F43 		.ascii	"OS_CTX_SW_CTR\000"
 7432      54585F53 
 7432      575F4354 
 7432      5200
 7433              	.LASF191:
 7434 003d 4F535F45 		.ascii	"OS_ERR_TMR_ISR\000"
 7434      52525F54 
 7434      4D525F49 
 7434      535200
 7435              	.LASF178:
 7436 004c 4F535F45 		.ascii	"OS_ERR_TIME_INVALID_MINUTES\000"
 7436      52525F54 
 7436      494D455F 
 7436      494E5641 
 7436      4C49445F 
 7437              	.LASF40:
 7438 0068 4F535F45 		.ascii	"OS_ERR_A\000"
 7438      52525F41 
 7438      00
 7439              	.LASF42:
 7440 0071 4F535F45 		.ascii	"OS_ERR_B\000"
 7440      52525F42 
 7440      00
 7441              	.LASF43:
 7442 007a 4F535F45 		.ascii	"OS_ERR_C\000"
 7442      52525F43 
 7442      00
 7443              	.LASF45:
 7444 0083 4F535F45 		.ascii	"OS_ERR_D\000"
ARM GAS  C:\Users\ADMINI~1\AppData\Local\Temp\ccvBRVNC.s 			page 189


 7444      52525F44 
 7444      00
 7445              	.LASF47:
 7446 008c 4F535F45 		.ascii	"OS_ERR_E\000"
 7446      52525F45 
 7446      00
 7447              	.LASF48:
 7448 0095 4F535F45 		.ascii	"OS_ERR_F\000"
 7448      52525F46 
 7448      00
 7449              	.LASF368:
 7450 009e 443A5C43 		.ascii	"D:\\CYTEST\\Micrium_CY8CKIT-044_OS3\\Examples\\Cypr"
 7450      59544553 
 7450      545C4D69 
 7450      63726975 
 7450      6D5F4359 
 7451 00cd 6573735C 		.ascii	"ess\\CY8CKIT-044\\OS3\\PSoC\\OS3.cydsn\000"
 7451      43593843 
 7451      4B49542D 
 7451      3034345C 
 7451      4F53335C 
 7452              	.LASF55:
 7453 00f0 4F535F45 		.ascii	"OS_ERR_H\000"
 7453      52525F48 
 7453      00
 7454              	.LASF56:
 7455 00f9 4F535F45 		.ascii	"OS_ERR_I\000"
 7455      52525F49 
 7455      00
 7456              	.LASF64:
 7457 0102 4F535F45 		.ascii	"OS_ERR_J\000"
 7457      52525F4A 
 7457      00
 7458              	.LASF65:
 7459 010b 4F535F45 		.ascii	"OS_ERR_K\000"
 7459      52525F4B 
 7459      00
 7460              	.LASF66:
 7461 0114 4F535F45 		.ascii	"OS_ERR_L\000"
 7461      52525F4C 
 7461      00
 7462              	.LASF68:
 7463 011d 4F535F45 		.ascii	"OS_ERR_M\000"
 7463      52525F4D 
 7463      00
 7464              	.LASF85:
 7465 0126 4F535F45 		.ascii	"OS_ERR_N\000"
 7465      52525F4E 
 7465      00
 7466              	.LASF88:
 7467 012f 4F535F45 		.ascii	"OS_ERR_O\000"
 7467      52525F4F 
 7467      00
 7468              	.LASF98:
 7469 0138 4F535F45 		.ascii	"OS_ERR_P\000"
 7469      52525F50 
 7469      00
ARM GAS  C:\Users\ADMINI~1\AppData\Local\Temp\ccvBRVNC.s 			page 190


 7470              	.LASF113:
 7471 0141 4F535F45 		.ascii	"OS_ERR_Q\000"
 7471      52525F51 
 7471      00
 7472              	.LASF118:
 7473 014a 4F535F45 		.ascii	"OS_ERR_R\000"
 7473      52525F52 
 7473      00
 7474              	.LASF122:
 7475 0153 4F535F45 		.ascii	"OS_ERR_S\000"
 7475      52525F53 
 7475      00
 7476              	.LASF139:
 7477 015c 4F535F45 		.ascii	"OS_ERR_T\000"
 7477      52525F54 
 7477      00
 7478              	.LASF199:
 7479 0165 4F535F45 		.ascii	"OS_ERR_U\000"
 7479      52525F55 
 7479      00
 7480              	.LASF200:
 7481 016e 4F535F45 		.ascii	"OS_ERR_V\000"
 7481      52525F56 
 7481      00
 7482              	.LASF201:
 7483 0177 4F535F45 		.ascii	"OS_ERR_W\000"
 7483      52525F57 
 7483      00
 7484              	.LASF202:
 7485 0180 4F535F45 		.ascii	"OS_ERR_X\000"
 7485      52525F58 
 7485      00
 7486              	.LASF188:
 7487 0189 4F535F45 		.ascii	"OS_ERR_TMR_INVALID_PERIOD\000"
 7487      52525F54 
 7487      4D525F49 
 7487      4E56414C 
 7487      49445F50 
 7488              	.LASF369:
 7489 01a3 6F735F65 		.ascii	"os_err\000"
 7489      727200
 7490              	.LASF338:
 7491 01aa 705F7374 		.ascii	"p_stk\000"
 7491      6B00
 7492              	.LASF218:
 7493 01b0 4E627245 		.ascii	"NbrEntries\000"
 7493      6E747269 
 7493      657300
 7494              	.LASF60:
 7495 01bb 4F535F45 		.ascii	"OS_ERR_INT_Q_SIZE\000"
 7495      52525F49 
 7495      4E545F51 
 7495      5F53495A 
 7495      4500
 7496              	.LASF44:
 7497 01cd 4F535F45 		.ascii	"OS_ERR_CREATE_ISR\000"
 7497      52525F43 
ARM GAS  C:\Users\ADMINI~1\AppData\Local\Temp\ccvBRVNC.s 			page 191


 7497      52454154 
 7497      455F4953 
 7497      5200
 7498              	.LASF230:
 7499 01df 4F776E65 		.ascii	"OwnerNestingCtr\000"
 7499      724E6573 
 7499      74696E67 
 7499      43747200 
 7500              	.LASF21:
 7501 01ef 4F535F43 		.ascii	"OS_CPU_USAGE\000"
 7501      50555F55 
 7501      53414745 
 7501      00
 7502              	.LASF172:
 7503 01fc 4F535F45 		.ascii	"OS_ERR_TICK_STK_SIZE_INVALID\000"
 7503      52525F54 
 7503      49434B5F 
 7503      53544B5F 
 7503      53495A45 
 7504              	.LASF9:
 7505 0219 4350555F 		.ascii	"CPU_INT32U\000"
 7505      494E5433 
 7505      325500
 7506              	.LASF363:
 7507 0224 4F535443 		.ascii	"OSTCBCurPtr\000"
 7507      42437572 
 7507      50747200 
 7508              	.LASF220:
 7509 0230 4F535F4D 		.ascii	"OS_MUTEX\000"
 7509      55544558 
 7509      00
 7510              	.LASF136:
 7511 0239 4F535F45 		.ascii	"OS_ERR_STK_INVALID\000"
 7511      52525F53 
 7511      544B5F49 
 7511      4E56414C 
 7511      494400
 7512              	.LASF312:
 7513 024c 7265675F 		.ascii	"reg_nbr\000"
 7513      6E627200 
 7514              	.LASF261:
 7515 0254 466C6167 		.ascii	"FlagsOpt\000"
 7515      734F7074 
 7515      00
 7516              	.LASF152:
 7517 025d 4F535F45 		.ascii	"OS_ERR_TASK_RESUME_ISR\000"
 7517      52525F54 
 7517      41534B5F 
 7517      52455355 
 7517      4D455F49 
 7518              	.LASF106:
 7519 0274 4F535F45 		.ascii	"OS_ERR_PEND_WOULD_BLOCK\000"
 7519      52525F50 
 7519      454E445F 
 7519      574F554C 
 7519      445F424C 
 7520              	.LASF140:
ARM GAS  C:\Users\ADMINI~1\AppData\Local\Temp\ccvBRVNC.s 			page 192


 7521 028c 4F535F45 		.ascii	"OS_ERR_TASK_CHANGE_PRIO_ISR\000"
 7521      52525F54 
 7521      41534B5F 
 7521      4348414E 
 7521      47455F50 
 7522              	.LASF250:
 7523 02a8 4D757465 		.ascii	"MutexGrpHeadPtr\000"
 7523      78477270 
 7523      48656164 
 7523      50747200 
 7524              	.LASF63:
 7525 02b8 4F535F45 		.ascii	"OS_ERR_ILLEGAL_DEL_RUN_TIME\000"
 7525      52525F49 
 7525      4C4C4547 
 7525      414C5F44 
 7525      454C5F52 
 7526              	.LASF130:
 7527 02d4 4F535F45 		.ascii	"OS_ERR_STAT_RESET_ISR\000"
 7527      52525F53 
 7527      5441545F 
 7527      52455345 
 7527      545F4953 
 7528              	.LASF319:
 7529 02ea 705F6D73 		.ascii	"p_msg_size\000"
 7529      675F7369 
 7529      7A6500
 7530              	.LASF105:
 7531 02f5 4F535F45 		.ascii	"OS_ERR_PEND_LOCKED\000"
 7531      52525F50 
 7531      454E445F 
 7531      4C4F434B 
 7531      454400
 7532              	.LASF366:
 7533 0308 474E5520 		.ascii	"GNU C11 5.4.1 20160609 (release) [ARM/embedded-5-br"
 7533      43313120 
 7533      352E342E 
 7533      31203230 
 7533      31363036 
 7534 033b 616E6368 		.ascii	"anch revision 237715] -mcpu=cortex-m0 -mthumb -g -O"
 7534      20726576 
 7534      6973696F 
 7534      6E203233 
 7534      37373135 
 7535 036e 30202D66 		.ascii	"0 -ffunction-sections -ffat-lto-objects\000"
 7535      66756E63 
 7535      74696F6E 
 7535      2D736563 
 7535      74696F6E 
 7536              	.LASF332:
 7537 0396 4F535461 		.ascii	"OSTaskSemPost\000"
 7537      736B5365 
 7537      6D506F73 
 7537      7400
 7538              	.LASF150:
 7539 03a4 4F535F45 		.ascii	"OS_ERR_TASK_NOT_SUSPENDED\000"
 7539      52525F54 
 7539      41534B5F 
ARM GAS  C:\Users\ADMINI~1\AppData\Local\Temp\ccvBRVNC.s 			page 193


 7539      4E4F545F 
 7539      53555350 
 7540              	.LASF84:
 7541 03be 4F535F45 		.ascii	"OS_ERR_MUTEX_OVF\000"
 7541      52525F4D 
 7541      55544558 
 7541      5F4F5646 
 7541      00
 7542              	.LASF148:
 7543 03cf 4F535F45 		.ascii	"OS_ERR_TASK_NOT_DLY\000"
 7543      52525F54 
 7543      41534B5F 
 7543      4E4F545F 
 7543      444C5900 
 7544              	.LASF225:
 7545 03e3 44626750 		.ascii	"DbgPrevPtr\000"
 7545      72657650 
 7545      747200
 7546              	.LASF58:
 7547 03ee 4F535F45 		.ascii	"OS_ERR_INT_Q\000"
 7547      52525F49 
 7547      4E545F51 
 7547      00
 7548              	.LASF226:
 7549 03fb 4462674E 		.ascii	"DbgNextPtr\000"
 7549      65787450 
 7549      747200
 7550              	.LASF336:
 7551 0406 705F7573 		.ascii	"p_used\000"
 7551      656400
 7552              	.LASF275:
 7553 040d 53636865 		.ascii	"SchedLockTimeMax\000"
 7553      644C6F63 
 7553      6B54696D 
 7553      654D6178 
 7553      00
 7554              	.LASF162:
 7555 041e 4F535F45 		.ascii	"OS_ERR_TASK_WAITING\000"
 7555      52525F54 
 7555      41534B5F 
 7555      57414954 
 7555      494E4700 
 7556              	.LASF41:
 7557 0432 4F535F45 		.ascii	"OS_ERR_ACCEPT_ISR\000"
 7557      52525F41 
 7557      43434550 
 7557      545F4953 
 7557      5200
 7558              	.LASF160:
 7559 0444 4F535F45 		.ascii	"OS_ERR_TASK_SUSPEND_ISR\000"
 7559      52525F54 
 7559      41534B5F 
 7559      53555350 
 7559      454E445F 
 7560              	.LASF83:
 7561 045c 4F535F45 		.ascii	"OS_ERR_MUTEX_NESTING\000"
 7561      52525F4D 
ARM GAS  C:\Users\ADMINI~1\AppData\Local\Temp\ccvBRVNC.s 			page 194


 7561      55544558 
 7561      5F4E4553 
 7561      54494E47 
 7562              	.LASF189:
 7563 0471 4F535F45 		.ascii	"OS_ERR_TMR_INVALID_STATE\000"
 7563      52525F54 
 7563      4D525F49 
 7563      4E56414C 
 7563      49445F53 
 7564              	.LASF245:
 7565 048a 50656E64 		.ascii	"PendOn\000"
 7565      4F6E00
 7566              	.LASF89:
 7567 0491 4F535F45 		.ascii	"OS_ERR_OBJ_CREATED\000"
 7567      52525F4F 
 7567      424A5F43 
 7567      52454154 
 7567      454400
 7568              	.LASF278:
 7569 04a4 5443425F 		.ascii	"TCB_Ptr\000"
 7569      50747200 
 7570              	.LASF291:
 7571 04ac 5461696C 		.ascii	"TailPtr\000"
 7571      50747200 
 7572              	.LASF322:
 7573 04b4 705F766F 		.ascii	"p_void\000"
 7573      696400
 7574              	.LASF158:
 7575 04bb 4F535F45 		.ascii	"OS_ERR_TASK_SUSPEND_IDLE\000"
 7575      52525F54 
 7575      41534B5F 
 7575      53555350 
 7575      454E445F 
 7576              	.LASF59:
 7577 04d4 4F535F45 		.ascii	"OS_ERR_INT_Q_FULL\000"
 7577      52525F49 
 7577      4E545F51 
 7577      5F46554C 
 7577      4C00
 7578              	.LASF285:
 7579 04e6 5264794D 		.ascii	"RdyMsgPtr\000"
 7579      73675074 
 7579      7200
 7580              	.LASF293:
 7581 04f0 6F735F70 		.ascii	"os_pend_obj\000"
 7581      656E645F 
 7581      6F626A00 
 7582              	.LASF317:
 7583 04fc 4F535461 		.ascii	"OSTaskQPend\000"
 7583      736B5150 
 7583      656E6400 
 7584              	.LASF57:
 7585 0508 4F535F45 		.ascii	"OS_ERR_ILLEGAL_CREATE_RUN_TIME\000"
 7585      52525F49 
 7585      4C4C4547 
 7585      414C5F43 
 7585      52454154 
ARM GAS  C:\Users\ADMINI~1\AppData\Local\Temp\ccvBRVNC.s 			page 195


 7586              	.LASF259:
 7587 0527 466C6167 		.ascii	"FlagsPend\000"
 7587      7350656E 
 7587      6400
 7588              	.LASF187:
 7589 0531 4F535F45 		.ascii	"OS_ERR_TMR_INVALID_DLY\000"
 7589      52525F54 
 7589      4D525F49 
 7589      4E56414C 
 7589      49445F44 
 7590              	.LASF28:
 7591 0548 4F535F4F 		.ascii	"OS_OBJ_QTY\000"
 7591      424A5F51 
 7591      545900
 7592              	.LASF229:
 7593 0553 4F776E65 		.ascii	"OwnerTCBPtr\000"
 7593      72544342 
 7593      50747200 
 7594              	.LASF265:
 7595 055f 43747853 		.ascii	"CtxSwCtr\000"
 7595      77437472 
 7595      00
 7596              	.LASF153:
 7597 0568 4F535F45 		.ascii	"OS_ERR_TASK_RESUME_PRIO\000"
 7597      52525F54 
 7597      41534B5F 
 7597      52455355 
 7597      4D455F50 
 7598              	.LASF342:
 7599 0580 705F7463 		.ascii	"p_tcb_next\000"
 7599      625F6E65 
 7599      787400
 7600              	.LASF31:
 7601 058b 4F535F50 		.ascii	"OS_PRIO\000"
 7601      52494F00 
 7602              	.LASF349:
 7603 0593 4F535F54 		.ascii	"OS_TaskReturn\000"
 7603      61736B52 
 7603      65747572 
 7603      6E00
 7604              	.LASF13:
 7605 05a1 666C6F61 		.ascii	"float\000"
 7605      7400
 7606              	.LASF328:
 7607 05a7 4F535461 		.ascii	"OSTaskRegSet\000"
 7607      736B5265 
 7607      67536574 
 7607      00
 7608              	.LASF329:
 7609 05b4 4F535461 		.ascii	"OSTaskResume\000"
 7609      736B5265 
 7609      73756D65 
 7609      00
 7610              	.LASF107:
 7611 05c1 4F535F45 		.ascii	"OS_ERR_POST_NULL_PTR\000"
 7611      52525F50 
 7611      4F53545F 
ARM GAS  C:\Users\ADMINI~1\AppData\Local\Temp\ccvBRVNC.s 			page 196


 7611      4E554C4C 
 7611      5F505452 
 7612              	.LASF87:
 7613 05d6 4F535F45 		.ascii	"OS_ERR_NO_MORE_ID_AVAIL\000"
 7613      52525F4E 
 7613      4F5F4D4F 
 7613      52455F49 
 7613      445F4156 
 7614              	.LASF76:
 7615 05ee 4F535F45 		.ascii	"OS_ERR_MEM_INVALID_P_DATA\000"
 7615      52525F4D 
 7615      454D5F49 
 7615      4E56414C 
 7615      49445F50 
 7616              	.LASF299:
 7617 0608 6370755F 		.ascii	"cpu_sr\000"
 7617      737200
 7618              	.LASF192:
 7619 060f 4F535F45 		.ascii	"OS_ERR_TMR_NO_CALLBACK\000"
 7619      52525F54 
 7619      4D525F4E 
 7619      4F5F4341 
 7619      4C4C4241 
 7620              	.LASF185:
 7621 0626 4F535F45 		.ascii	"OS_ERR_TMR_INACTIVE\000"
 7621      52525F54 
 7621      4D525F49 
 7621      4E414354 
 7621      49564500 
 7622              	.LASF165:
 7623 063a 4F535F45 		.ascii	"OS_ERR_TLS_ID_INVALID\000"
 7623      52525F54 
 7623      4C535F49 
 7623      445F494E 
 7623      56414C49 
 7624              	.LASF11:
 7625 0650 6C6F6E67 		.ascii	"long long unsigned int\000"
 7625      206C6F6E 
 7625      6720756E 
 7625      7369676E 
 7625      65642069 
 7626              	.LASF155:
 7627 0667 4F535F45 		.ascii	"OS_ERR_TASK_RUNNING\000"
 7627      52525F54 
 7627      41534B5F 
 7627      52554E4E 
 7627      494E4700 
 7628              	.LASF272:
 7629 067b 53746B55 		.ascii	"StkUsed\000"
 7629      73656400 
 7630              	.LASF190:
 7631 0683 4F535F45 		.ascii	"OS_ERR_TMR_INVALID\000"
 7631      52525F54 
 7631      4D525F49 
 7631      4E56414C 
 7631      494400
 7632              	.LASF280:
ARM GAS  C:\Users\ADMINI~1\AppData\Local\Temp\ccvBRVNC.s 			page 197


 7633 0696 4F535F50 		.ascii	"OS_PEND_DATA\000"
 7633      454E445F 
 7633      44415441 
 7633      00
 7634              	.LASF159:
 7635 06a3 4F535F45 		.ascii	"OS_ERR_TASK_SUSPEND_INT_HANDLER\000"
 7635      52525F54 
 7635      41534B5F 
 7635      53555350 
 7635      454E445F 
 7636              	.LASF144:
 7637 06c3 4F535F45 		.ascii	"OS_ERR_TASK_DEL_INVALID\000"
 7637      52525F54 
 7637      41534B5F 
 7637      44454C5F 
 7637      494E5641 
 7638              	.LASF279:
 7639 06db 4E627255 		.ascii	"NbrUpdated\000"
 7639      70646174 
 7639      656400
 7640              	.LASF195:
 7641 06e6 4F535F45 		.ascii	"OS_ERR_TMR_STK_INVALID\000"
 7641      52525F54 
 7641      4D525F53 
 7641      544B5F49 
 7641      4E56414C 
 7642              	.LASF4:
 7643 06fd 4350555F 		.ascii	"CPU_INT08U\000"
 7643      494E5430 
 7643      385500
 7644              	.LASF213:
 7645 0708 6F735F6D 		.ascii	"os_msg\000"
 7645      736700
 7646              	.LASF164:
 7647 070f 4F535F45 		.ascii	"OS_ERR_TCB_INVALID\000"
 7647      52525F54 
 7647      43425F49 
 7647      4E56414C 
 7647      494400
 7648              	.LASF251:
 7649 0722 53746B53 		.ascii	"StkSize\000"
 7649      697A6500 
 7650              	.LASF241:
 7651 072a 53746B42 		.ascii	"StkBasePtr\000"
 7651      61736550 
 7651      747200
 7652              	.LASF326:
 7653 0735 76616C75 		.ascii	"value\000"
 7653      6500
 7654              	.LASF115:
 7655 073b 4F535F45 		.ascii	"OS_ERR_Q_EMPTY\000"
 7655      52525F51 
 7655      5F454D50 
 7655      545900
 7656              	.LASF180:
 7657 074a 4F535F45 		.ascii	"OS_ERR_TIME_INVALID_MILLISECONDS\000"
 7657      52525F54 
ARM GAS  C:\Users\ADMINI~1\AppData\Local\Temp\ccvBRVNC.s 			page 198


 7657      494D455F 
 7657      494E5641 
 7657      4C49445F 
 7658              	.LASF33:
 7659 076b 4F535F52 		.ascii	"OS_REG\000"
 7659      454700
 7660              	.LASF86:
 7661 0772 4F535F45 		.ascii	"OS_ERR_NAME\000"
 7661      52525F4E 
 7661      414D4500 
 7662              	.LASF355:
 7663 077e 4F534964 		.ascii	"OSIdleTaskTCB\000"
 7663      6C655461 
 7663      736B5443 
 7663      4200
 7664              	.LASF37:
 7665 078c 4F535F53 		.ascii	"OS_STATUS\000"
 7665      54415455 
 7665      5300
 7666              	.LASF247:
 7667 0796 5461736B 		.ascii	"TaskState\000"
 7667      53746174 
 7667      6500
 7668              	.LASF333:
 7669 07a0 4F535461 		.ascii	"OSTaskSemSet\000"
 7669      736B5365 
 7669      6D536574 
 7669      00
 7670              	.LASF169:
 7671 07ad 4F535F45 		.ascii	"OS_ERR_TLS_DESTRUCT_ASSIGNED\000"
 7671      52525F54 
 7671      4C535F44 
 7671      45535452 
 7671      5543545F 
 7672              	.LASF81:
 7673 07ca 4F535F45 		.ascii	"OS_ERR_MUTEX_NOT_OWNER\000"
 7673      52525F4D 
 7673      55544558 
 7673      5F4E4F54 
 7673      5F4F574E 
 7674              	.LASF26:
 7675 07e1 4F535F4D 		.ascii	"OS_MSG_SIZE\000"
 7675      53475F53 
 7675      495A4500 
 7676              	.LASF177:
 7677 07ed 4F535F45 		.ascii	"OS_ERR_TIME_INVALID_HOURS\000"
 7677      52525F54 
 7677      494D455F 
 7677      494E5641 
 7677      4C49445F 
 7678              	.LASF193:
 7679 0807 4F535F45 		.ascii	"OS_ERR_TMR_NON_AVAIL\000"
 7679      52525F54 
 7679      4D525F4E 
 7679      4F4E5F41 
 7679      5641494C 
 7680              	.LASF0:
ARM GAS  C:\Users\ADMINI~1\AppData\Local\Temp\ccvBRVNC.s 			page 199


 7681 081c 4350555F 		.ascii	"CPU_CHAR\000"
 7681      43484152 
 7681      00
 7682              	.LASF141:
 7683 0825 4F535F45 		.ascii	"OS_ERR_TASK_CREATE_ISR\000"
 7683      52525F54 
 7683      41534B5F 
 7683      43524541 
 7683      54455F49 
 7684              	.LASF17:
 7685 083c 4350555F 		.ascii	"CPU_STK_SIZE\000"
 7685      53544B5F 
 7685      53495A45 
 7685      00
 7686              	.LASF335:
 7687 0849 705F6672 		.ascii	"p_free\000"
 7687      656500
 7688              	.LASF25:
 7689 0850 4F535F4D 		.ascii	"OS_MSG_QTY\000"
 7689      53475F51 
 7689      545900
 7690              	.LASF95:
 7691 085b 4F535F45 		.ascii	"OS_ERR_OS_RUNNING\000"
 7691      52525F4F 
 7691      535F5255 
 7691      4E4E494E 
 7691      4700
 7692              	.LASF273:
 7693 086d 53746B46 		.ascii	"StkFree\000"
 7693      72656500 
 7694              	.LASF254:
 7695 0875 5469636B 		.ascii	"TickCtrPrev\000"
 7695      43747250 
 7695      72657600 
 7696              	.LASF217:
 7697 0881 4E627245 		.ascii	"NbrEntriesSize\000"
 7697      6E747269 
 7697      65735369 
 7697      7A6500
 7698              	.LASF183:
 7699 0890 4F535F45 		.ascii	"OS_ERR_TIME_ZERO_DLY\000"
 7699      52525F54 
 7699      494D455F 
 7699      5A45524F 
 7699      5F444C59 
 7700              	.LASF346:
 7701 08a5 7265675F 		.ascii	"reg_id\000"
 7701      696400
 7702              	.LASF239:
 7703 08ac 5469636B 		.ascii	"TickPrevPtr\000"
 7703      50726576 
 7703      50747200 
 7704              	.LASF260:
 7705 08b8 466C6167 		.ascii	"FlagsRdy\000"
 7705      73526479 
 7705      00
 7706              	.LASF132:
ARM GAS  C:\Users\ADMINI~1\AppData\Local\Temp\ccvBRVNC.s 			page 200


 7707 08c1 4F535F45 		.ascii	"OS_ERR_STAT_STK_INVALID\000"
 7707      52525F53 
 7707      5441545F 
 7707      53544B5F 
 7707      494E5641 
 7708              	.LASF352:
 7709 08d9 4F535F54 		.ascii	"OS_TaskChangePrio\000"
 7709      61736B43 
 7709      68616E67 
 7709      65507269 
 7709      6F00
 7710              	.LASF316:
 7711 08eb 4F535461 		.ascii	"OSTaskQFlush\000"
 7711      736B5146 
 7711      6C757368 
 7711      00
 7712              	.LASF50:
 7713 08f8 4F535F45 		.ascii	"OS_ERR_FLAG_GRP_DEPLETED\000"
 7713      52525F46 
 7713      4C41475F 
 7713      4752505F 
 7713      4445504C 
 7714              	.LASF72:
 7715 0911 4F535F45 		.ascii	"OS_ERR_MEM_INVALID_BLKS\000"
 7715      52525F4D 
 7715      454D5F49 
 7715      4E56414C 
 7715      49445F42 
 7716              	.LASF249:
 7717 0929 42617365 		.ascii	"BasePrio\000"
 7717      5072696F 
 7717      00
 7718              	.LASF357:
 7719 0932 4F535275 		.ascii	"OSRunning\000"
 7719      6E6E696E 
 7719      6700
 7720              	.LASF257:
 7721 093c 4D736751 		.ascii	"MsgQPendTimeMax\000"
 7721      50656E64 
 7721      54696D65 
 7721      4D617800 
 7722              	.LASF96:
 7723 094c 4F535F45 		.ascii	"OS_ERR_OS_NOT_INIT\000"
 7723      52525F4F 
 7723      535F4E4F 
 7723      545F494E 
 7723      495400
 7724              	.LASF207:
 7725 095f 4F535F4D 		.ascii	"OS_MSG\000"
 7725      534700
 7726              	.LASF302:
 7727 0966 705F6E61 		.ascii	"p_name\000"
 7727      6D6500
 7728              	.LASF186:
 7729 096d 4F535F45 		.ascii	"OS_ERR_TMR_INVALID_DEST\000"
 7729      52525F54 
 7729      4D525F49 
ARM GAS  C:\Users\ADMINI~1\AppData\Local\Temp\ccvBRVNC.s 			page 201


 7729      4E56414C 
 7729      49445F44 
 7730              	.LASF359:
 7731 0985 4F535461 		.ascii	"OSTaskCtxSwCtr\000"
 7731      736B4374 
 7731      78537743 
 7731      747200
 7732              	.LASF305:
 7733 0994 7072696F 		.ascii	"prio\000"
 7733      00
 7734              	.LASF124:
 7735 0999 4F535F45 		.ascii	"OS_ERR_SCHED_LOCK_ISR\000"
 7735      52525F53 
 7735      43484544 
 7735      5F4C4F43 
 7735      4B5F4953 
 7736              	.LASF46:
 7737 09af 4F535F45 		.ascii	"OS_ERR_DEL_ISR\000"
 7737      52525F44 
 7737      454C5F49 
 7737      535200
 7738              	.LASF297:
 7739 09be 705F6572 		.ascii	"p_err\000"
 7739      7200
 7740              	.LASF116:
 7741 09c4 4F535F45 		.ascii	"OS_ERR_Q_MAX\000"
 7741      52525F51 
 7741      5F4D4158 
 7741      00
 7742              	.LASF237:
 7743 09d1 50726576 		.ascii	"PrevPtr\000"
 7743      50747200 
 7744              	.LASF2:
 7745 09d9 63686172 		.ascii	"char\000"
 7745      00
 7746              	.LASF29:
 7747 09de 4F535F4F 		.ascii	"OS_OBJ_TYPE\000"
 7747      424A5F54 
 7747      59504500 
 7748              	.LASF314:
 7749 09ea 705F7374 		.ascii	"p_stk_limit\000"
 7749      6B5F6C69 
 7749      6D697400 
 7750              	.LASF168:
 7751 09f6 4F535F45 		.ascii	"OS_ERR_TLS_NOT_EN\000"
 7751      52525F54 
 7751      4C535F4E 
 7751      4F545F45 
 7751      4E00
 7752              	.LASF354:
 7753 0a08 7072696F 		.ascii	"prio_cur\000"
 7753      5F637572 
 7753      00
 7754              	.LASF93:
 7755 0a11 4F535F45 		.ascii	"OS_ERR_OPT_INVALID\000"
 7755      52525F4F 
 7755      50545F49 
ARM GAS  C:\Users\ADMINI~1\AppData\Local\Temp\ccvBRVNC.s 			page 202


 7755      4E56414C 
 7755      494400
 7756              	.LASF18:
 7757 0a24 4350555F 		.ascii	"CPU_SR\000"
 7757      535200
 7758              	.LASF310:
 7759 0a2b 74696D65 		.ascii	"time_quanta\000"
 7759      5F717561 
 7759      6E746100 
 7760              	.LASF123:
 7761 0a37 4F535F45 		.ascii	"OS_ERR_SCHED_INVALID_TIME_SLICE\000"
 7761      52525F53 
 7761      43484544 
 7761      5F494E56 
 7761      414C4944 
 7762              	.LASF97:
 7763 0a57 4F535F45 		.ascii	"OS_ERR_OS_NO_APP_TASK\000"
 7763      52525F4F 
 7763      535F4E4F 
 7763      5F415050 
 7763      5F544153 
 7764              	.LASF327:
 7765 0a6d 4F535461 		.ascii	"OSTaskRegGetID\000"
 7765      736B5265 
 7765      67476574 
 7765      494400
 7766              	.LASF337:
 7767 0a7c 66726565 		.ascii	"free_stk\000"
 7767      5F73746B 
 7767      00
 7768              	.LASF255:
 7769 0a85 4D736751 		.ascii	"MsgQ\000"
 7769      00
 7770              	.LASF32:
 7771 0a8a 4F535F52 		.ascii	"OS_RATE_HZ\000"
 7771      4154455F 
 7771      485A00
 7772              	.LASF242:
 7773 0a95 5461736B 		.ascii	"TaskEntryAddr\000"
 7773      456E7472 
 7773      79416464 
 7773      7200
 7774              	.LASF131:
 7775 0aa3 4F535F45 		.ascii	"OS_ERR_STAT_PRIO_INVALID\000"
 7775      52525F53 
 7775      5441545F 
 7775      5052494F 
 7775      5F494E56 
 7776              	.LASF181:
 7777 0abc 4F535F45 		.ascii	"OS_ERR_TIME_NOT_DLY\000"
 7777      52525F54 
 7777      494D455F 
 7777      4E4F545F 
 7777      444C5900 
 7778              	.LASF325:
 7779 0ad0 4F535461 		.ascii	"OSTaskRegGet\000"
 7779      736B5265 
ARM GAS  C:\Users\ADMINI~1\AppData\Local\Temp\ccvBRVNC.s 			page 203


 7779      67476574 
 7779      00
 7780              	.LASF223:
 7781 0add 4E616D65 		.ascii	"NamePtr\000"
 7781      50747200 
 7782              	.LASF246:
 7783 0ae5 50656E64 		.ascii	"PendStatus\000"
 7783      53746174 
 7783      757300
 7784              	.LASF212:
 7785 0af0 4F535F4D 		.ascii	"OS_MSG_Q\000"
 7785      53475F51 
 7785      00
 7786              	.LASF222:
 7787 0af9 54797065 		.ascii	"Type\000"
 7787      00
 7788              	.LASF307:
 7789 0afe 73746B5F 		.ascii	"stk_limit\000"
 7789      6C696D69 
 7789      7400
 7790              	.LASF204:
 7791 0b08 4F535F45 		.ascii	"OS_ERR_YIELD_ISR\000"
 7791      52525F59 
 7791      49454C44 
 7791      5F495352 
 7791      00
 7792              	.LASF90:
 7793 0b19 4F535F45 		.ascii	"OS_ERR_OBJ_DEL\000"
 7793      52525F4F 
 7793      424A5F44 
 7793      454C00
 7794              	.LASF20:
 7795 0b28 4350555F 		.ascii	"CPU_TS\000"
 7795      545300
 7796              	.LASF12:
 7797 0b2f 6C6F6E67 		.ascii	"long long int\000"
 7797      206C6F6E 
 7797      6720696E 
 7797      7400
 7798              	.LASF52:
 7799 0b3d 4F535F45 		.ascii	"OS_ERR_FLAG_PEND_OPT\000"
 7799      52525F46 
 7799      4C41475F 
 7799      50454E44 
 7799      5F4F5054 
 7800              	.LASF234:
 7801 0b52 53746B50 		.ascii	"StkPtr\000"
 7801      747200
 7802              	.LASF295:
 7803 0b59 705F7463 		.ascii	"p_tcb\000"
 7803      6200
 7804              	.LASF163:
 7805 0b5f 4F535F45 		.ascii	"OS_ERR_TASK_SUSPEND_CTR_OVF\000"
 7805      52525F54 
 7805      41534B5F 
 7805      53555350 
 7805      454E445F 
ARM GAS  C:\Users\ADMINI~1\AppData\Local\Temp\ccvBRVNC.s 			page 204


 7806              	.LASF313:
 7807 0b7b 705F7370 		.ascii	"p_sp\000"
 7807      00
 7808              	.LASF117:
 7809 0b80 4F535F45 		.ascii	"OS_ERR_Q_SIZE\000"
 7809      52525F51 
 7809      5F53495A 
 7809      4500
 7810              	.LASF267:
 7811 0b8e 4379636C 		.ascii	"CyclesStart\000"
 7811      65735374 
 7811      61727400 
 7812              	.LASF362:
 7813 0b9a 4F535461 		.ascii	"OSTaskRegNextAvailID\000"
 7813      736B5265 
 7813      674E6578 
 7813      74417661 
 7813      696C4944 
 7814              	.LASF361:
 7815 0baf 4F535461 		.ascii	"OSTaskQty\000"
 7815      736B5174 
 7815      7900
 7816              	.LASF282:
 7817 0bb9 54434250 		.ascii	"TCBPtr\000"
 7817      747200
 7818              	.LASF102:
 7819 0bc0 4F535F45 		.ascii	"OS_ERR_PEND_ABORT_SELF\000"
 7819      52525F50 
 7819      454E445F 
 7819      41424F52 
 7819      545F5345 
 7820              	.LASF6:
 7821 0bd7 4350555F 		.ascii	"CPU_INT16U\000"
 7821      494E5431 
 7821      365500
 7822              	.LASF121:
 7823 0be2 4F535F45 		.ascii	"OS_ERR_ROUND_ROBIN_DISABLED\000"
 7823      52525F52 
 7823      4F554E44 
 7823      5F524F42 
 7823      494E5F44 
 7824              	.LASF73:
 7825 0bfe 4F535F45 		.ascii	"OS_ERR_MEM_INVALID_PART\000"
 7825      52525F4D 
 7825      454D5F49 
 7825      4E56414C 
 7825      49445F50 
 7826              	.LASF91:
 7827 0c16 4F535F45 		.ascii	"OS_ERR_OBJ_PTR_NULL\000"
 7827      52525F4F 
 7827      424A5F50 
 7827      54525F4E 
 7827      554C4C00 
 7828              	.LASF119:
 7829 0c2a 4F535F45 		.ascii	"OS_ERR_REG_ID_INVALID\000"
 7829      52525F52 
 7829      45475F49 
ARM GAS  C:\Users\ADMINI~1\AppData\Local\Temp\ccvBRVNC.s 			page 205


 7829      445F494E 
 7829      56414C49 
 7830              	.LASF38:
 7831 0c40 4F535F54 		.ascii	"OS_TICK\000"
 7831      49434B00 
 7832              	.LASF70:
 7833 0c48 4F535F45 		.ascii	"OS_ERR_MEM_FULL\000"
 7833      52525F4D 
 7833      454D5F46 
 7833      554C4C00 
 7834              	.LASF147:
 7835 0c58 4F535F45 		.ascii	"OS_ERR_TASK_NO_MORE_TCB\000"
 7835      52525F54 
 7835      41534B5F 
 7835      4E4F5F4D 
 7835      4F52455F 
 7836              	.LASF75:
 7837 0c70 4F535F45 		.ascii	"OS_ERR_MEM_INVALID_P_MEM\000"
 7837      52525F4D 
 7837      454D5F49 
 7837      4E56414C 
 7837      49445F50 
 7838              	.LASF19:
 7839 0c89 4350555F 		.ascii	"CPU_TS32\000"
 7839      54533332 
 7839      00
 7840              	.LASF262:
 7841 0c92 53757370 		.ascii	"SuspendCtr\000"
 7841      656E6443 
 7841      747200
 7842              	.LASF236:
 7843 0c9d 53746B4C 		.ascii	"StkLimitPtr\000"
 7843      696D6974 
 7843      50747200 
 7844              	.LASF345:
 7845 0ca9 4F535F54 		.ascii	"OS_TaskInitTCB\000"
 7845      61736B49 
 7845      6E697454 
 7845      434200
 7846              	.LASF266:
 7847 0cb8 4379636C 		.ascii	"CyclesDelta\000"
 7847      65734465 
 7847      6C746100 
 7848              	.LASF35:
 7849 0cc4 4F535F53 		.ascii	"OS_SEM_CTR\000"
 7849      454D5F43 
 7849      545200
 7850              	.LASF196:
 7851 0ccf 4F535F45 		.ascii	"OS_ERR_TMR_STK_SIZE_INVALID\000"
 7851      52525F54 
 7851      4D525F53 
 7851      544B5F53 
 7851      495A455F 
 7852              	.LASF173:
 7853 0ceb 4F535F45 		.ascii	"OS_ERR_TICK_WHEEL_SIZE\000"
 7853      52525F54 
 7853      49434B5F 
ARM GAS  C:\Users\ADMINI~1\AppData\Local\Temp\ccvBRVNC.s 			page 206


 7853      57484545 
 7853      4C5F5349 
 7854              	.LASF238:
 7855 0d02 5469636B 		.ascii	"TickNextPtr\000"
 7855      4E657874 
 7855      50747200 
 7856              	.LASF149:
 7857 0d0e 4F535F45 		.ascii	"OS_ERR_TASK_NOT_EXIST\000"
 7857      52525F54 
 7857      41534B5F 
 7857      4E4F545F 
 7857      45584953 
 7858              	.LASF364:
 7859 0d24 4F534366 		.ascii	"OSCfg_StkSizeMin\000"
 7859      675F5374 
 7859      6B53697A 
 7859      654D696E 
 7859      00
 7860              	.LASF146:
 7861 0d35 4F535F45 		.ascii	"OS_ERR_TASK_INVALID\000"
 7861      52525F54 
 7861      41534B5F 
 7861      494E5641 
 7861      4C494400 
 7862              	.LASF194:
 7863 0d49 4F535F45 		.ascii	"OS_ERR_TMR_PRIO_INVALID\000"
 7863      52525F54 
 7863      4D525F50 
 7863      52494F5F 
 7863      494E5641 
 7864              	.LASF320:
 7865 0d61 705F7473 		.ascii	"p_ts\000"
 7865      00
 7866              	.LASF161:
 7867 0d66 4F535F45 		.ascii	"OS_ERR_TASK_SUSPEND_PRIO\000"
 7867      52525F54 
 7867      41534B5F 
 7867      53555350 
 7867      454E445F 
 7868              	.LASF284:
 7869 0d7f 5264794F 		.ascii	"RdyObjPtr\000"
 7869      626A5074 
 7869      7200
 7870              	.LASF62:
 7871 0d89 4F535F45 		.ascii	"OS_ERR_INT_Q_STK_SIZE_INVALID\000"
 7871      52525F49 
 7871      4E545F51 
 7871      5F53544B 
 7871      5F53495A 
 7872              	.LASF166:
 7873 0da7 4F535F45 		.ascii	"OS_ERR_TLS_ISR\000"
 7873      52525F54 
 7873      4C535F49 
 7873      535200
 7874              	.LASF343:
 7875 0db6 705F7463 		.ascii	"p_tcb_prev\000"
 7875      625F7072 
ARM GAS  C:\Users\ADMINI~1\AppData\Local\Temp\ccvBRVNC.s 			page 207


 7875      657600
 7876              	.LASF198:
 7877 0dc1 4F535F45 		.ascii	"OS_ERR_TMR_INVALID_CALLBACK\000"
 7877      52525F54 
 7877      4D525F49 
 7877      4E56414C 
 7877      49445F43 
 7878              	.LASF145:
 7879 0ddd 4F535F45 		.ascii	"OS_ERR_TASK_DEL_ISR\000"
 7879      52525F54 
 7879      41534B5F 
 7879      44454C5F 
 7879      49535200 
 7880              	.LASF270:
 7881 0df1 53656D50 		.ascii	"SemPendTime\000"
 7881      656E6454 
 7881      696D6500 
 7882              	.LASF112:
 7883 0dfd 4F535F45 		.ascii	"OS_ERR_PTR_INVALID\000"
 7883      52525F50 
 7883      54525F49 
 7883      4E56414C 
 7883      494400
 7884              	.LASF134:
 7885 0e10 4F535F45 		.ascii	"OS_ERR_STATE_INVALID\000"
 7885      52525F53 
 7885      54415445 
 7885      5F494E56 
 7885      414C4944 
 7886              	.LASF208:
 7887 0e25 4E657874 		.ascii	"NextPtr\000"
 7887      50747200 
 7888              	.LASF94:
 7889 0e2d 4F535F45 		.ascii	"OS_ERR_OS_NOT_RUNNING\000"
 7889      52525F4F 
 7889      535F4E4F 
 7889      545F5255 
 7889      4E4E494E 
 7890              	.LASF256:
 7891 0e43 4D736751 		.ascii	"MsgQPendTime\000"
 7891      50656E64 
 7891      54696D65 
 7891      00
 7892              	.LASF221:
 7893 0e50 6F735F6D 		.ascii	"os_mutex\000"
 7893      75746578 
 7893      00
 7894              	.LASF356:
 7895 0e59 4F53496E 		.ascii	"OSIntNestingCtr\000"
 7895      744E6573 
 7895      74696E67 
 7895      43747200 
 7896              	.LASF240:
 7897 0e69 5469636B 		.ascii	"TickListPtr\000"
 7897      4C697374 
 7897      50747200 
 7898              	.LASF182:
ARM GAS  C:\Users\ADMINI~1\AppData\Local\Temp\ccvBRVNC.s 			page 208


 7899 0e75 4F535F45 		.ascii	"OS_ERR_TIME_SET_ISR\000"
 7899      52525F54 
 7899      494D455F 
 7899      5345545F 
 7899      49535200 
 7900              	.LASF120:
 7901 0e89 4F535F45 		.ascii	"OS_ERR_ROUND_ROBIN_1\000"
 7901      52525F52 
 7901      4F554E44 
 7901      5F524F42 
 7901      494E5F31 
 7902              	.LASF74:
 7903 0e9e 4F535F45 		.ascii	"OS_ERR_MEM_INVALID_P_BLK\000"
 7903      52525F4D 
 7903      454D5F49 
 7903      4E56414C 
 7903      49445F50 
 7904              	.LASF71:
 7905 0eb7 4F535F45 		.ascii	"OS_ERR_MEM_INVALID_P_ADDR\000"
 7905      52525F4D 
 7905      454D5F49 
 7905      4E56414C 
 7905      49445F50 
 7906              	.LASF287:
 7907 0ed1 52647954 		.ascii	"RdyTS\000"
 7907      5300
 7908              	.LASF308:
 7909 0ed7 73746B5F 		.ascii	"stk_size\000"
 7909      73697A65 
 7909      00
 7910              	.LASF67:
 7911 0ee0 4F535F45 		.ascii	"OS_ERR_LOCK_NESTING_OVF\000"
 7911      52525F4C 
 7911      4F434B5F 
 7911      4E455354 
 7911      494E475F 
 7912              	.LASF156:
 7913 0ef8 4F535F45 		.ascii	"OS_ERR_TASK_STK_CHK_ISR\000"
 7913      52525F54 
 7913      41534B5F 
 7913      53544B5F 
 7913      43484B5F 
 7914              	.LASF277:
 7915 0f10 6F735F74 		.ascii	"os_tick_list\000"
 7915      69636B5F 
 7915      6C697374 
 7915      00
 7916              	.LASF351:
 7917 0f1d 4F535F54 		.ascii	"OS_TaskSuspend\000"
 7917      61736B53 
 7917      75737065 
 7917      6E6400
 7918              	.LASF8:
 7919 0f2c 73686F72 		.ascii	"short int\000"
 7919      7420696E 
 7919      7400
 7920              	.LASF286:
ARM GAS  C:\Users\ADMINI~1\AppData\Local\Temp\ccvBRVNC.s 			page 209


 7921 0f36 5264794D 		.ascii	"RdyMsgSize\000"
 7921      73675369 
 7921      7A6500
 7922              	.LASF79:
 7923 0f41 4F535F45 		.ascii	"OS_ERR_MSG_POOL_EMPTY\000"
 7923      52525F4D 
 7923      53475F50 
 7923      4F4F4C5F 
 7923      454D5054 
 7924              	.LASF274:
 7925 0f57 496E7444 		.ascii	"IntDisTimeMax\000"
 7925      69735469 
 7925      6D654D61 
 7925      7800
 7926              	.LASF331:
 7927 0f65 4F535461 		.ascii	"OSTaskSemPendAbort\000"
 7927      736B5365 
 7927      6D50656E 
 7927      6441626F 
 7927      727400
 7928              	.LASF323:
 7929 0f78 4F535461 		.ascii	"OSTaskQPost\000"
 7929      736B5150 
 7929      6F737400 
 7930              	.LASF311:
 7931 0f84 705F6578 		.ascii	"p_ext\000"
 7931      7400
 7932              	.LASF127:
 7933 0f8a 4F535F45 		.ascii	"OS_ERR_SCHED_UNLOCK_ISR\000"
 7933      52525F53 
 7933      43484544 
 7933      5F554E4C 
 7933      4F434B5F 
 7934              	.LASF271:
 7935 0fa2 53656D50 		.ascii	"SemPendTimeMax\000"
 7935      656E6454 
 7935      696D654D 
 7935      617800
 7936              	.LASF340:
 7937 0fb1 4F535F54 		.ascii	"OS_TaskDbgListAdd\000"
 7937      61736B44 
 7937      62674C69 
 7937      73744164 
 7937      6400
 7938              	.LASF306:
 7939 0fc3 705F7374 		.ascii	"p_stk_base\000"
 7939      6B5F6261 
 7939      736500
 7940              	.LASF269:
 7941 0fce 4379636C 		.ascii	"CyclesTotalPrev\000"
 7941      6573546F 
 7941      74616C50 
 7941      72657600 
 7942              	.LASF228:
 7943 0fde 4D757465 		.ascii	"MutexGrpNextPtr\000"
 7943      78477270 
 7943      4E657874 
ARM GAS  C:\Users\ADMINI~1\AppData\Local\Temp\ccvBRVNC.s 			page 210


 7943      50747200 
 7944              	.LASF276:
 7945 0fee 4F535F54 		.ascii	"OS_TICK_LIST\000"
 7945      49434B5F 
 7945      4C495354 
 7945      00
 7946              	.LASF171:
 7947 0ffb 4F535F45 		.ascii	"OS_ERR_TICK_STK_INVALID\000"
 7947      52525F54 
 7947      49434B5F 
 7947      53544B5F 
 7947      494E5641 
 7948              	.LASF80:
 7949 1013 4F535F45 		.ascii	"OS_ERR_MSG_POOL_NULL_PTR\000"
 7949      52525F4D 
 7949      53475F50 
 7949      4F4F4C5F 
 7949      4E554C4C 
 7950              	.LASF27:
 7951 102c 4F535F4E 		.ascii	"OS_NESTING_CTR\000"
 7951      45535449 
 7951      4E475F43 
 7951      545200
 7952              	.LASF268:
 7953 103b 4379636C 		.ascii	"CyclesTotal\000"
 7953      6573546F 
 7953      74616C00 
 7954              	.LASF292:
 7955 1047 4F535F50 		.ascii	"OS_PEND_OBJ\000"
 7955      454E445F 
 7955      4F424A00 
 7956              	.LASF154:
 7957 1053 4F535F45 		.ascii	"OS_ERR_TASK_RESUME_SELF\000"
 7957      52525F54 
 7957      41534B5F 
 7957      52455355 
 7957      4D455F53 
 7958              	.LASF264:
 7959 106b 43505555 		.ascii	"CPUUsageMax\000"
 7959      73616765 
 7959      4D617800 
 7960              	.LASF224:
 7961 1077 50656E64 		.ascii	"PendList\000"
 7961      4C697374 
 7961      00
 7962              	.LASF92:
 7963 1080 4F535F45 		.ascii	"OS_ERR_OBJ_TYPE\000"
 7963      52525F4F 
 7963      424A5F54 
 7963      59504500 
 7964              	.LASF244:
 7965 1090 50656E64 		.ascii	"PendDataTblPtr\000"
 7965      44617461 
 7965      54626C50 
 7965      747200
 7966              	.LASF341:
 7967 109f 4F535F54 		.ascii	"OS_TaskDbgListRemove\000"
ARM GAS  C:\Users\ADMINI~1\AppData\Local\Temp\ccvBRVNC.s 			page 211


 7967      61736B44 
 7967      62674C69 
 7967      73745265 
 7967      6D6F7665 
 7968              	.LASF252:
 7969 10b4 53656D43 		.ascii	"SemCtr\000"
 7969      747200
 7970              	.LASF353:
 7971 10bb 705F7463 		.ascii	"p_tcb_owner\000"
 7971      625F6F77 
 7971      6E657200 
 7972              	.LASF215:
 7973 10c7 496E5074 		.ascii	"InPtr\000"
 7973      7200
 7974              	.LASF296:
 7975 10cd 7072696F 		.ascii	"prio_new\000"
 7975      5F6E6577 
 7975      00
 7976              	.LASF253:
 7977 10d6 5469636B 		.ascii	"TickRemain\000"
 7977      52656D61 
 7977      696E00
 7978              	.LASF290:
 7979 10e1 48656164 		.ascii	"HeadPtr\000"
 7979      50747200 
 7980              	.LASF298:
 7981 10e9 7072696F 		.ascii	"prio_high\000"
 7981      5F686967 
 7981      6800
 7982              	.LASF101:
 7983 10f3 4F535F45 		.ascii	"OS_ERR_PEND_ABORT_NONE\000"
 7983      52525F50 
 7983      454E445F 
 7983      41424F52 
 7983      545F4E4F 
 7984              	.LASF344:
 7985 110a 4F535F54 		.ascii	"OS_TaskInit\000"
 7985      61736B49 
 7985      6E697400 
 7986              	.LASF10:
 7987 1116 756E7369 		.ascii	"unsigned int\000"
 7987      676E6564 
 7987      20696E74 
 7987      00
 7988              	.LASF210:
 7989 1123 4D736753 		.ascii	"MsgSize\000"
 7989      697A6500 
 7990              	.LASF82:
 7991 112b 4F535F45 		.ascii	"OS_ERR_MUTEX_OWNER\000"
 7991      52525F4D 
 7991      55544558 
 7991      5F4F574E 
 7991      455200
 7992              	.LASF133:
 7993 113e 4F535F45 		.ascii	"OS_ERR_STAT_STK_SIZE_INVALID\000"
 7993      52525F53 
 7993      5441545F 
ARM GAS  C:\Users\ADMINI~1\AppData\Local\Temp\ccvBRVNC.s 			page 212


 7993      53544B5F 
 7993      53495A45 
 7994              	.LASF51:
 7995 115b 4F535F45 		.ascii	"OS_ERR_FLAG_NOT_RDY\000"
 7995      52525F46 
 7995      4C41475F 
 7995      4E4F545F 
 7995      52445900 
 7996              	.LASF334:
 7997 116f 4F535461 		.ascii	"OSTaskStkChk\000"
 7997      736B5374 
 7997      6B43686B 
 7997      00
 7998              	.LASF304:
 7999 117c 705F6172 		.ascii	"p_arg\000"
 7999      6700
 8000              	.LASF235:
 8001 1182 45787450 		.ascii	"ExtPtr\000"
 8001      747200
 8002              	.LASF294:
 8003 1189 73697A65 		.ascii	"sizetype\000"
 8003      74797065 
 8003      00
 8004              	.LASF100:
 8005 1192 4F535F45 		.ascii	"OS_ERR_PEND_ABORT_ISR\000"
 8005      52525F50 
 8005      454E445F 
 8005      41424F52 
 8005      545F4953 
 8006              	.LASF15:
 8007 11a8 4350555F 		.ascii	"CPU_ADDR\000"
 8007      41444452 
 8007      00
 8008              	.LASF108:
 8009 11b1 4F535F45 		.ascii	"OS_ERR_POST_ISR\000"
 8009      52525F50 
 8009      4F53545F 
 8009      49535200 
 8010              	.LASF174:
 8011 11c1 4F535F45 		.ascii	"OS_ERR_TIME_DLY_ISR\000"
 8011      52525F54 
 8011      494D455F 
 8011      444C595F 
 8011      49535200 
 8012              	.LASF138:
 8013 11d5 4F535F45 		.ascii	"OS_ERR_STK_LIMIT_INVALID\000"
 8013      52525F53 
 8013      544B5F4C 
 8013      494D4954 
 8013      5F494E56 
 8014              	.LASF330:
 8015 11ee 4F535461 		.ascii	"OSTaskSemPend\000"
 8015      736B5365 
 8015      6D50656E 
 8015      6400
 8016              	.LASF1:
 8017 11fc 4350555F 		.ascii	"CPU_BOOLEAN\000"
ARM GAS  C:\Users\ADMINI~1\AppData\Local\Temp\ccvBRVNC.s 			page 213


 8017      424F4F4C 
 8017      45414E00 
 8018              	.LASF348:
 8019 1208 4F535F54 		.ascii	"OS_TaskResume\000"
 8019      61736B52 
 8019      6573756D 
 8019      6500
 8020              	.LASF23:
 8021 1216 4F535F43 		.ascii	"OS_CYCLES\000"
 8021      59434C45 
 8021      5300
 8022              	.LASF232:
 8023 1220 4F535F54 		.ascii	"OS_TCB\000"
 8023      434200
 8024              	.LASF303:
 8025 1227 705F7461 		.ascii	"p_task\000"
 8025      736B00
 8026              	.LASF339:
 8027 122e 4F535461 		.ascii	"OSTaskSuspend\000"
 8027      736B5375 
 8027      7370656E 
 8027      6400
 8028              	.LASF137:
 8029 123c 4F535F45 		.ascii	"OS_ERR_STK_SIZE_INVALID\000"
 8029      52525F53 
 8029      544B5F53 
 8029      495A455F 
 8029      494E5641 
 8030              	.LASF54:
 8031 1254 4F535F45 		.ascii	"OS_ERR_G\000"
 8031      52525F47 
 8031      00
 8032              	.LASF197:
 8033 125d 4F535F45 		.ascii	"OS_ERR_TMR_STOPPED\000"
 8033      52525F54 
 8033      4D525F53 
 8033      544F5050 
 8033      454400
 8034              	.LASF3:
 8035 1270 756E7369 		.ascii	"unsigned char\000"
 8035      676E6564 
 8035      20636861 
 8035      7200
 8036              	.LASF151:
 8037 127e 4F535F45 		.ascii	"OS_ERR_TASK_OPT\000"
 8037      52525F54 
 8037      41534B5F 
 8037      4F505400 
 8038              	.LASF358:
 8039 128e 4F535363 		.ascii	"OSSchedLockNestingCtr\000"
 8039      6865644C 
 8039      6F636B4E 
 8039      65737469 
 8039      6E674374 
 8040              	.LASF184:
 8041 12a4 4F535F45 		.ascii	"OS_ERR_TIMEOUT\000"
 8041      52525F54 
ARM GAS  C:\Users\ADMINI~1\AppData\Local\Temp\ccvBRVNC.s 			page 214


 8041      494D454F 
 8041      555400
 8042              	.LASF36:
 8043 12b3 4F535F53 		.ascii	"OS_STATE\000"
 8043      54415445 
 8043      00
 8044              	.LASF318:
 8045 12bc 74696D65 		.ascii	"timeout\000"
 8045      6F757400 
 8046              	.LASF30:
 8047 12c4 4F535F4F 		.ascii	"OS_OPT\000"
 8047      505400
 8048              	.LASF231:
 8049 12cb 4F535F54 		.ascii	"OS_TASK_PTR\000"
 8049      41534B5F 
 8049      50545200 
 8050              	.LASF69:
 8051 12d7 4F535F45 		.ascii	"OS_ERR_MEM_CREATE_ISR\000"
 8051      52525F4D 
 8051      454D5F43 
 8051      52454154 
 8051      455F4953 
 8052              	.LASF135:
 8053 12ed 4F535F45 		.ascii	"OS_ERR_STATUS_INVALID\000"
 8053      52525F53 
 8053      54415455 
 8053      535F494E 
 8053      56414C49 
 8054              	.LASF203:
 8055 1303 4F535F45 		.ascii	"OS_ERR_Y\000"
 8055      52525F59 
 8055      00
 8056              	.LASF104:
 8057 130c 4F535F45 		.ascii	"OS_ERR_PEND_ISR\000"
 8057      52525F50 
 8057      454E445F 
 8057      49535200 
 8058              	.LASF205:
 8059 131c 4F535F45 		.ascii	"OS_ERR_Z\000"
 8059      52525F5A 
 8059      00
 8060              	.LASF227:
 8061 1325 4462674E 		.ascii	"DbgNamePtr\000"
 8061      616D6550 
 8061      747200
 8062              	.LASF216:
 8063 1330 4F757450 		.ascii	"OutPtr\000"
 8063      747200
 8064              	.LASF243:
 8065 1337 5461736B 		.ascii	"TaskEntryArg\000"
 8065      456E7472 
 8065      79417267 
 8065      00
 8066              	.LASF114:
 8067 1344 4F535F45 		.ascii	"OS_ERR_Q_FULL\000"
 8067      52525F51 
 8067      5F46554C 
ARM GAS  C:\Users\ADMINI~1\AppData\Local\Temp\ccvBRVNC.s 			page 215


 8067      4C00
 8068              	.LASF300:
 8069 1352 4F535461 		.ascii	"OSTaskChangePrio\000"
 8069      736B4368 
 8069      616E6765 
 8069      5072696F 
 8069      00
 8070              	.LASF61:
 8071 1363 4F535F45 		.ascii	"OS_ERR_INT_Q_STK_INVALID\000"
 8071      52525F49 
 8071      4E545F51 
 8071      5F53544B 
 8071      5F494E56 
 8072              	.LASF179:
 8073 137c 4F535F45 		.ascii	"OS_ERR_TIME_INVALID_SECONDS\000"
 8073      52525F54 
 8073      494D455F 
 8073      494E5641 
 8073      4C49445F 
 8074              	.LASF142:
 8075 1398 4F535F45 		.ascii	"OS_ERR_TASK_DEL\000"
 8075      52525F54 
 8075      41534B5F 
 8075      44454C00 
 8076              	.LASF288:
 8077 13a8 4F535F50 		.ascii	"OS_PEND_LIST\000"
 8077      454E445F 
 8077      4C495354 
 8077      00
 8078              	.LASF367:
 8079 13b5 2E2E5C2E 		.ascii	"..\\..\\..\\..\\..\\..\\Software\\uCOS-III\\Source\\"
 8079      2E5C2E2E 
 8079      5C2E2E5C 
 8079      2E2E5C2E 
 8079      2E5C536F 
 8080 13e0 6F735F74 		.ascii	"os_task.c\000"
 8080      61736B2E 
 8080      6300
 8081              	.LASF324:
 8082 13ea 6D73675F 		.ascii	"msg_size\000"
 8082      73697A65 
 8082      00
 8083              	.LASF5:
 8084 13f3 7369676E 		.ascii	"signed char\000"
 8084      65642063 
 8084      68617200 
 8085              	.LASF211:
 8086 13ff 4D736754 		.ascii	"MsgTS\000"
 8086      5300
 8087              	.LASF347:
 8088 1405 4F535F54 		.ascii	"OS_TaskQPost\000"
 8088      61736B51 
 8088      506F7374 
 8088      00
 8089              	.LASF49:
 8090 1412 4F535F45 		.ascii	"OS_ERR_FATAL_RETURN\000"
 8090      52525F46 
ARM GAS  C:\Users\ADMINI~1\AppData\Local\Temp\ccvBRVNC.s 			page 216


 8090      4154414C 
 8090      5F524554 
 8090      55524E00 
 8091              	.LASF7:
 8092 1426 73686F72 		.ascii	"short unsigned int\000"
 8092      7420756E 
 8092      7369676E 
 8092      65642069 
 8092      6E7400
 8093              	.LASF24:
 8094 1439 4F535F46 		.ascii	"OS_FLAGS\000"
 8094      4C414753 
 8094      00
 8095              	.LASF350:
 8096 1442 4F535F54 		.ascii	"OS_TaskSemPost\000"
 8096      61736B53 
 8096      656D506F 
 8096      737400
 8097              	.LASF209:
 8098 1451 4D736750 		.ascii	"MsgPtr\000"
 8098      747200
 8099              	.LASF167:
 8100 1458 4F535F45 		.ascii	"OS_ERR_TLS_NO_MORE_AVAIL\000"
 8100      52525F54 
 8100      4C535F4E 
 8100      4F5F4D4F 
 8100      52455F41 
 8101              	.LASF39:
 8102 1471 4F535F45 		.ascii	"OS_ERR_NONE\000"
 8102      52525F4E 
 8102      4F4E4500 
 8103              	.LASF315:
 8104 147d 656E7472 		.ascii	"entries\000"
 8104      69657300 
 8105              	.LASF281:
 8106 1485 6F735F70 		.ascii	"os_pend_data\000"
 8106      656E645F 
 8106      64617461 
 8106      00
 8107              	.LASF34:
 8108 1492 4F535F52 		.ascii	"OS_REG_ID\000"
 8108      45475F49 
 8108      4400
 8109              	.LASF125:
 8110 149c 4F535F45 		.ascii	"OS_ERR_SCHED_LOCKED\000"
 8110      52525F53 
 8110      43484544 
 8110      5F4C4F43 
 8110      4B454400 
 8111              	.LASF53:
 8112 14b0 4F535F45 		.ascii	"OS_ERR_FLUSH_ISR\000"
 8112      52525F46 
 8112      4C555348 
 8112      5F495352 
 8112      00
 8113              	.LASF248:
 8114 14c1 5072696F 		.ascii	"Prio\000"
ARM GAS  C:\Users\ADMINI~1\AppData\Local\Temp\ccvBRVNC.s 			page 217


 8114      00
 8115              	.LASF309:
 8116 14c6 715F7369 		.ascii	"q_size\000"
 8116      7A6500
 8117              	.LASF14:
 8118 14cd 646F7562 		.ascii	"double\000"
 8118      6C6500
 8119              	.LASF99:
 8120 14d4 4F535F45 		.ascii	"OS_ERR_PEND_ABORT\000"
 8120      52525F50 
 8120      454E445F 
 8120      41424F52 
 8120      5400
 8121              	.LASF263:
 8122 14e6 43505555 		.ascii	"CPUUsage\000"
 8122      73616765 
 8122      00
 8123              	.LASF126:
 8124 14ef 4F535F45 		.ascii	"OS_ERR_SCHED_NOT_LOCKED\000"
 8124      52525F53 
 8124      43484544 
 8124      5F4E4F54 
 8124      5F4C4F43 
 8125              	.LASF110:
 8126 1507 4F535F45 		.ascii	"OS_ERR_PRIO\000"
 8126      52525F50 
 8126      52494F00 
 8127              	.LASF103:
 8128 1513 4F535F45 		.ascii	"OS_ERR_PEND_DEL\000"
 8128      52525F50 
 8128      454E445F 
 8128      44454C00 
 8129              	.LASF283:
 8130 1523 50656E64 		.ascii	"PendObjPtr\000"
 8130      4F626A50 
 8130      747200
 8131              	.LASF219:
 8132 152e 4E627245 		.ascii	"NbrEntriesMax\000"
 8132      6E747269 
 8132      65734D61 
 8132      7800
 8133              	.LASF360:
 8134 153c 4F535461 		.ascii	"OSTaskDbgListPtr\000"
 8134      736B4462 
 8134      674C6973 
 8134      74507472 
 8134      00
 8135              	.LASF289:
 8136 154d 6F735F70 		.ascii	"os_pend_list\000"
 8136      656E645F 
 8136      6C697374 
 8136      00
 8137              	.LASF77:
 8138 155a 4F535F45 		.ascii	"OS_ERR_MEM_INVALID_SIZE\000"
 8138      52525F4D 
 8138      454D5F49 
 8138      4E56414C 
ARM GAS  C:\Users\ADMINI~1\AppData\Local\Temp\ccvBRVNC.s 			page 218


 8138      49445F53 
 8139              	.LASF157:
 8140 1572 4F535F45 		.ascii	"OS_ERR_TASK_SUSPENDED\000"
 8140      52525F54 
 8140      41534B5F 
 8140      53555350 
 8140      454E4445 
 8141              	.LASF129:
 8142 1588 4F535F45 		.ascii	"OS_ERR_SET_ISR\000"
 8142      52525F53 
 8142      45545F49 
 8142      535200
 8143              	.LASF258:
 8144 1597 52656754 		.ascii	"RegTbl\000"
 8144      626C00
 8145              	.LASF321:
 8146 159e 705F6D73 		.ascii	"p_msg_q\000"
 8146      675F7100 
 8147              	.LASF128:
 8148 15a6 4F535F45 		.ascii	"OS_ERR_SEM_OVF\000"
 8148      52525F53 
 8148      454D5F4F 
 8148      564600
 8149              	.LASF143:
 8150 15b5 4F535F45 		.ascii	"OS_ERR_TASK_DEL_IDLE\000"
 8150      52525F54 
 8150      41534B5F 
 8150      44454C5F 
 8150      49444C45 
 8151              	.LASF176:
 8152 15ca 4F535F45 		.ascii	"OS_ERR_TIME_GET_ISR\000"
 8152      52525F54 
 8152      494D455F 
 8152      4745545F 
 8152      49535200 
 8153              	.LASF175:
 8154 15de 4F535F45 		.ascii	"OS_ERR_TIME_DLY_RESUME_ISR\000"
 8154      52525F54 
 8154      494D455F 
 8154      444C595F 
 8154      52455355 
 8155              	.LASF170:
 8156 15f9 4F535F45 		.ascii	"OS_ERR_TICK_PRIO_INVALID\000"
 8156      52525F54 
 8156      49434B5F 
 8156      5052494F 
 8156      5F494E56 
 8157              	.LASF109:
 8158 1612 4F535F45 		.ascii	"OS_ERR_PRIO_EXIST\000"
 8158      52525F50 
 8158      52494F5F 
 8158      45584953 
 8158      5400
 8159              	.LASF214:
 8160 1624 6F735F6D 		.ascii	"os_msg_q\000"
 8160      73675F71 
 8160      00
ARM GAS  C:\Users\ADMINI~1\AppData\Local\Temp\ccvBRVNC.s 			page 219


 8161              	.LASF365:
 8162 162d 4F534366 		.ascii	"OSCfg_TickRate_Hz\000"
 8162      675F5469 
 8162      636B5261 
 8162      74655F48 
 8162      7A00
 8163              	.LASF78:
 8164 163f 4F535F45 		.ascii	"OS_ERR_MEM_NO_FREE_BLKS\000"
 8164      52525F4D 
 8164      454D5F4E 
 8164      4F5F4652 
 8164      45455F42 
 8165              	.LASF16:
 8166 1657 4350555F 		.ascii	"CPU_STK\000"
 8166      53544B00 
 8167              		.ident	"GCC: (GNU Tools for ARM Embedded Processors) 5.4.1 20160609 (release) [ARM/embedded-5-bran
