ARM GAS  C:\Users\ADMINI~1\AppData\Local\Temp\ccCY2XuB.s 			page 1


   1              		.syntax unified
   2              		.cpu cortex-m0
   3              		.fpu softvfp
   4              		.eabi_attribute 20, 1
   5              		.eabi_attribute 21, 1
   6              		.eabi_attribute 23, 3
   7              		.eabi_attribute 24, 1
   8              		.eabi_attribute 25, 1
   9              		.eabi_attribute 26, 1
  10              		.eabi_attribute 30, 6
  11              		.eabi_attribute 34, 0
  12              		.eabi_attribute 18, 4
  13              		.thumb
  14              		.syntax unified
  15              		.file	"os_time.c"
  16              		.text
  17              	.Ltext0:
  18              		.cfi_sections	.debug_frame
  19              		.section	.text.OSTimeDly,"ax",%progbits
  20              		.align	2
  21              		.global	OSTimeDly
  22              		.code	16
  23              		.thumb_func
  24              		.type	OSTimeDly, %function
  25              	OSTimeDly:
  26              	.LFB0:
  27              		.file 1 "..\\..\\..\\..\\..\\..\\Software\\uCOS-III\\Source\\os_time.c"
   1:..\..\..\..\..\..\Software\uCOS-III\Source/os_time.c **** /*
   2:..\..\..\..\..\..\Software\uCOS-III\Source/os_time.c **** ***************************************************************************************************
   3:..\..\..\..\..\..\Software\uCOS-III\Source/os_time.c **** *                                                      uC/OS-III
   4:..\..\..\..\..\..\Software\uCOS-III\Source/os_time.c **** *                                                 The Real-Time Kernel
   5:..\..\..\..\..\..\Software\uCOS-III\Source/os_time.c **** *
   6:..\..\..\..\..\..\Software\uCOS-III\Source/os_time.c **** *                                  (c) Copyright 2009-2015; Micrium, Inc.; Weston, FL
   7:..\..\..\..\..\..\Software\uCOS-III\Source/os_time.c **** *                           All rights reserved.  Protected by international copyright laws.
   8:..\..\..\..\..\..\Software\uCOS-III\Source/os_time.c **** *
   9:..\..\..\..\..\..\Software\uCOS-III\Source/os_time.c **** *                                                   TIME MANAGEMENT
  10:..\..\..\..\..\..\Software\uCOS-III\Source/os_time.c **** *
  11:..\..\..\..\..\..\Software\uCOS-III\Source/os_time.c **** * File    : OS_TIME.C
  12:..\..\..\..\..\..\Software\uCOS-III\Source/os_time.c **** * By      : JJL
  13:..\..\..\..\..\..\Software\uCOS-III\Source/os_time.c **** * Version : V3.05.01
  14:..\..\..\..\..\..\Software\uCOS-III\Source/os_time.c **** *
  15:..\..\..\..\..\..\Software\uCOS-III\Source/os_time.c **** * LICENSING TERMS:
  16:..\..\..\..\..\..\Software\uCOS-III\Source/os_time.c **** * ---------------
  17:..\..\..\..\..\..\Software\uCOS-III\Source/os_time.c **** *           uC/OS-III is provided in source form for FREE short-term evaluation, for educational us
  18:..\..\..\..\..\..\Software\uCOS-III\Source/os_time.c **** *           for peaceful research.  If you plan or intend to use uC/OS-III in a commercial applicat
  19:..\..\..\..\..\..\Software\uCOS-III\Source/os_time.c **** *           product then, you need to contact Micrium to properly license uC/OS-III for its use in 
  20:..\..\..\..\..\..\Software\uCOS-III\Source/os_time.c **** *           application/product.   We provide ALL the source code for your convenience and to help 
  21:..\..\..\..\..\..\Software\uCOS-III\Source/os_time.c **** *           experience uC/OS-III.  The fact that the source is provided does NOT mean that you can 
  22:..\..\..\..\..\..\Software\uCOS-III\Source/os_time.c **** *           it commercially without paying a licensing fee.
  23:..\..\..\..\..\..\Software\uCOS-III\Source/os_time.c **** *
  24:..\..\..\..\..\..\Software\uCOS-III\Source/os_time.c **** *           Knowledge of the source code may NOT be used to develop a similar product.
  25:..\..\..\..\..\..\Software\uCOS-III\Source/os_time.c **** *
  26:..\..\..\..\..\..\Software\uCOS-III\Source/os_time.c **** *           Please help us continue to provide the embedded community with the finest software avai
  27:..\..\..\..\..\..\Software\uCOS-III\Source/os_time.c **** *           Your honesty is greatly appreciated.
  28:..\..\..\..\..\..\Software\uCOS-III\Source/os_time.c **** *
  29:..\..\..\..\..\..\Software\uCOS-III\Source/os_time.c **** *           You can find our product's user manual, API reference, release notes and
  30:..\..\..\..\..\..\Software\uCOS-III\Source/os_time.c **** *           more information at https://doc.micrium.com.
ARM GAS  C:\Users\ADMINI~1\AppData\Local\Temp\ccCY2XuB.s 			page 2


  31:..\..\..\..\..\..\Software\uCOS-III\Source/os_time.c **** *           You can contact us at www.micrium.com.
  32:..\..\..\..\..\..\Software\uCOS-III\Source/os_time.c **** ***************************************************************************************************
  33:..\..\..\..\..\..\Software\uCOS-III\Source/os_time.c **** */
  34:..\..\..\..\..\..\Software\uCOS-III\Source/os_time.c **** 
  35:..\..\..\..\..\..\Software\uCOS-III\Source/os_time.c **** #define  MICRIUM_SOURCE
  36:..\..\..\..\..\..\Software\uCOS-III\Source/os_time.c **** #include "os.h"
  37:..\..\..\..\..\..\Software\uCOS-III\Source/os_time.c **** 
  38:..\..\..\..\..\..\Software\uCOS-III\Source/os_time.c **** #ifdef VSC_INCLUDE_SOURCE_FILE_NAMES
  39:..\..\..\..\..\..\Software\uCOS-III\Source/os_time.c **** const  CPU_CHAR  *os_time__c = "$Id: $";
  40:..\..\..\..\..\..\Software\uCOS-III\Source/os_time.c **** #endif
  41:..\..\..\..\..\..\Software\uCOS-III\Source/os_time.c **** 
  42:..\..\..\..\..\..\Software\uCOS-III\Source/os_time.c **** /*
  43:..\..\..\..\..\..\Software\uCOS-III\Source/os_time.c **** ***************************************************************************************************
  44:..\..\..\..\..\..\Software\uCOS-III\Source/os_time.c **** *                                                  DELAY TASK 'n' TICKS
  45:..\..\..\..\..\..\Software\uCOS-III\Source/os_time.c **** *
  46:..\..\..\..\..\..\Software\uCOS-III\Source/os_time.c **** * Description: This function is called to delay execution of the currently running task until the s
  47:..\..\..\..\..\..\Software\uCOS-III\Source/os_time.c **** *              system ticks expires.  This, of course, directly equates to delaying the current tas
  48:..\..\..\..\..\..\Software\uCOS-III\Source/os_time.c **** *              expire.  No delay will result if the specified delay is 0.  If the specified delay i
  49:..\..\..\..\..\..\Software\uCOS-III\Source/os_time.c **** *              then, a context switch will result.
  50:..\..\..\..\..\..\Software\uCOS-III\Source/os_time.c **** *
  51:..\..\..\..\..\..\Software\uCOS-III\Source/os_time.c **** * Arguments  : dly       is a value in 'clock ticks' that the task will either delay for or, the ta
  52:..\..\..\..\..\..\Software\uCOS-III\Source/os_time.c **** *                        of the tick counter (OSTickCtr).  Note that specifying 0 means the task is
  53:..\..\..\..\..\..\Software\uCOS-III\Source/os_time.c **** *
  54:..\..\..\..\..\..\Software\uCOS-III\Source/os_time.c **** *                        depending on the option argument, the task will wake up when OSTickCtr rea
  55:..\..\..\..\..\..\Software\uCOS-III\Source/os_time.c **** *
  56:..\..\..\..\..\..\Software\uCOS-III\Source/os_time.c **** *                            OS_OPT_TIME_DLY      : OSTickCtr + dly
  57:..\..\..\..\..\..\Software\uCOS-III\Source/os_time.c **** *                            OS_OPT_TIME_TIMEOUT  : OSTickCtr + dly
  58:..\..\..\..\..\..\Software\uCOS-III\Source/os_time.c **** *                            OS_OPT_TIME_MATCH    : dly
  59:..\..\..\..\..\..\Software\uCOS-III\Source/os_time.c **** *                            OS_OPT_TIME_PERIODIC : OSTCBCurPtr.TickCtrPrev + dly
  60:..\..\..\..\..\..\Software\uCOS-III\Source/os_time.c **** *
  61:..\..\..\..\..\..\Software\uCOS-III\Source/os_time.c **** *              opt       specifies whether 'dly' represents absolute or relative time; default opti
  62:..\..\..\..\..\..\Software\uCOS-III\Source/os_time.c **** *
  63:..\..\..\..\..\..\Software\uCOS-III\Source/os_time.c **** *                        *** OS_OPT_TIME_DLY        specifies a relative time from the current valu
  64:..\..\..\..\..\..\Software\uCOS-III\Source/os_time.c **** *                            OS_OPT_TIME_TIMEOUT    same as OS_OPT_TIME_DLY.
  65:..\..\..\..\..\..\Software\uCOS-III\Source/os_time.c **** *                            OS_OPT_TIME_MATCH      indicates that 'dly' specifies the absolute val
  66:..\..\..\..\..\..\Software\uCOS-III\Source/os_time.c **** *                                                   must reach before the task will be resumed.
  67:..\..\..\..\..\..\Software\uCOS-III\Source/os_time.c **** *                            OS_OPT_TIME_PERIODIC   indicates that 'dly' specifies the periodic val
  68:..\..\..\..\..\..\Software\uCOS-III\Source/os_time.c **** *                                                   must reach before the task will be resumed.
  69:..\..\..\..\..\..\Software\uCOS-III\Source/os_time.c **** *
  70:..\..\..\..\..\..\Software\uCOS-III\Source/os_time.c **** *              p_err     is a pointer to a variable that will contain an error code from this call.
  71:..\..\..\..\..\..\Software\uCOS-III\Source/os_time.c **** *
  72:..\..\..\..\..\..\Software\uCOS-III\Source/os_time.c **** *                            OS_ERR_NONE              The call was successful and the delay occurre
  73:..\..\..\..\..\..\Software\uCOS-III\Source/os_time.c **** *                            OS_ERR_OPT_INVALID       If you specified an invalid option for this f
  74:..\..\..\..\..\..\Software\uCOS-III\Source/os_time.c **** *                            OS_ERR_OS_NOT_RUNNING    If uC/OS-III is not running yet
  75:..\..\..\..\..\..\Software\uCOS-III\Source/os_time.c **** *                            OS_ERR_SCHED_LOCKED      Can't delay when the scheduler is locked
  76:..\..\..\..\..\..\Software\uCOS-III\Source/os_time.c **** *                            OS_ERR_TIME_DLY_ISR      If you called this function from an ISR
  77:..\..\..\..\..\..\Software\uCOS-III\Source/os_time.c **** *                            OS_ERR_TIME_ZERO_DLY     If you specified a delay of zero
  78:..\..\..\..\..\..\Software\uCOS-III\Source/os_time.c **** *
  79:..\..\..\..\..\..\Software\uCOS-III\Source/os_time.c **** * Returns    : none
  80:..\..\..\..\..\..\Software\uCOS-III\Source/os_time.c **** *
  81:..\..\..\..\..\..\Software\uCOS-III\Source/os_time.c **** * Note(s)    : none
  82:..\..\..\..\..\..\Software\uCOS-III\Source/os_time.c **** ***************************************************************************************************
  83:..\..\..\..\..\..\Software\uCOS-III\Source/os_time.c **** */
  84:..\..\..\..\..\..\Software\uCOS-III\Source/os_time.c **** 
  85:..\..\..\..\..\..\Software\uCOS-III\Source/os_time.c **** void  OSTimeDly (OS_TICK   dly,
  86:..\..\..\..\..\..\Software\uCOS-III\Source/os_time.c ****                  OS_OPT    opt,
  87:..\..\..\..\..\..\Software\uCOS-III\Source/os_time.c ****                  OS_ERR   *p_err)
ARM GAS  C:\Users\ADMINI~1\AppData\Local\Temp\ccCY2XuB.s 			page 3


  88:..\..\..\..\..\..\Software\uCOS-III\Source/os_time.c **** {
  28              		.loc 1 88 0
  29              		.cfi_startproc
  30              		@ args = 0, pretend = 0, frame = 24
  31              		@ frame_needed = 1, uses_anonymous_args = 0
  32 0000 90B5     		push	{r4, r7, lr}
  33              		.cfi_def_cfa_offset 12
  34              		.cfi_offset 4, -12
  35              		.cfi_offset 7, -8
  36              		.cfi_offset 14, -4
  37 0002 87B0     		sub	sp, sp, #28
  38              		.cfi_def_cfa_offset 40
  39 0004 00AF     		add	r7, sp, #0
  40              		.cfi_def_cfa_register 7
  41 0006 F860     		str	r0, [r7, #12]
  42 0008 7A60     		str	r2, [r7, #4]
  43 000a 0A23     		movs	r3, #10
  44 000c FB18     		adds	r3, r7, r3
  45 000e 0A1C     		adds	r2, r1, #0
  46 0010 1A80     		strh	r2, [r3]
  89:..\..\..\..\..\..\Software\uCOS-III\Source/os_time.c **** #if (OS_CFG_TASK_TICK_EN == DEF_ENABLED)
  90:..\..\..\..\..\..\Software\uCOS-III\Source/os_time.c ****     CPU_SR_ALLOC();
  47              		.loc 1 90 0
  48 0012 0023     		movs	r3, #0
  49 0014 7B61     		str	r3, [r7, #20]
  91:..\..\..\..\..\..\Software\uCOS-III\Source/os_time.c **** #endif
  92:..\..\..\..\..\..\Software\uCOS-III\Source/os_time.c **** 
  93:..\..\..\..\..\..\Software\uCOS-III\Source/os_time.c **** 
  94:..\..\..\..\..\..\Software\uCOS-III\Source/os_time.c **** #ifdef OS_SAFETY_CRITICAL
  95:..\..\..\..\..\..\Software\uCOS-III\Source/os_time.c ****     if (p_err == DEF_NULL) {
  96:..\..\..\..\..\..\Software\uCOS-III\Source/os_time.c ****         OS_SAFETY_CRITICAL_EXCEPTION();
  97:..\..\..\..\..\..\Software\uCOS-III\Source/os_time.c ****         return;
  98:..\..\..\..\..\..\Software\uCOS-III\Source/os_time.c ****     }
  99:..\..\..\..\..\..\Software\uCOS-III\Source/os_time.c **** #endif
 100:..\..\..\..\..\..\Software\uCOS-III\Source/os_time.c **** 
 101:..\..\..\..\..\..\Software\uCOS-III\Source/os_time.c **** #if (OS_CFG_CALLED_FROM_ISR_CHK_EN == DEF_ENABLED)
 102:..\..\..\..\..\..\Software\uCOS-III\Source/os_time.c ****     if (OSIntNestingCtr > 0u) {                                 /* Not allowed to call from an ISR 
  50              		.loc 1 102 0
  51 0016 2B4B     		ldr	r3, .L14
  52 0018 1B78     		ldrb	r3, [r3]
  53 001a 002B     		cmp	r3, #0
  54 001c 03D0     		beq	.L2
 103:..\..\..\..\..\..\Software\uCOS-III\Source/os_time.c ****        *p_err = OS_ERR_TIME_DLY_ISR;
  55              		.loc 1 103 0
  56 001e 7B68     		ldr	r3, [r7, #4]
  57 0020 294A     		ldr	r2, .L14+4
  58 0022 1A80     		strh	r2, [r3]
 104:..\..\..\..\..\..\Software\uCOS-III\Source/os_time.c ****         return;
  59              		.loc 1 104 0
  60 0024 4AE0     		b	.L1
  61              	.L2:
 105:..\..\..\..\..\..\Software\uCOS-III\Source/os_time.c ****     }
 106:..\..\..\..\..\..\Software\uCOS-III\Source/os_time.c **** #endif
 107:..\..\..\..\..\..\Software\uCOS-III\Source/os_time.c **** 
 108:..\..\..\..\..\..\Software\uCOS-III\Source/os_time.c **** #if (OS_CFG_INVALID_OS_CALLS_CHK_EN == DEF_ENABLED)             /* Is the kernel running?          
 109:..\..\..\..\..\..\Software\uCOS-III\Source/os_time.c ****     if (OSRunning != OS_STATE_OS_RUNNING) {
 110:..\..\..\..\..\..\Software\uCOS-III\Source/os_time.c ****        *p_err = OS_ERR_OS_NOT_RUNNING;
ARM GAS  C:\Users\ADMINI~1\AppData\Local\Temp\ccCY2XuB.s 			page 4


 111:..\..\..\..\..\..\Software\uCOS-III\Source/os_time.c ****         return;
 112:..\..\..\..\..\..\Software\uCOS-III\Source/os_time.c ****     }
 113:..\..\..\..\..\..\Software\uCOS-III\Source/os_time.c **** #endif
 114:..\..\..\..\..\..\Software\uCOS-III\Source/os_time.c **** 
 115:..\..\..\..\..\..\Software\uCOS-III\Source/os_time.c ****     if (OSSchedLockNestingCtr > 0u) {                           /* Can't delay when the scheduler i
  62              		.loc 1 115 0
  63 0026 294B     		ldr	r3, .L14+8
  64 0028 1B78     		ldrb	r3, [r3]
  65 002a 002B     		cmp	r3, #0
  66 002c 03D0     		beq	.L4
 116:..\..\..\..\..\..\Software\uCOS-III\Source/os_time.c ****        *p_err = OS_ERR_SCHED_LOCKED;
  67              		.loc 1 116 0
  68 002e 7B68     		ldr	r3, [r7, #4]
  69 0030 274A     		ldr	r2, .L14+12
  70 0032 1A80     		strh	r2, [r3]
 117:..\..\..\..\..\..\Software\uCOS-III\Source/os_time.c ****         return;
  71              		.loc 1 117 0
  72 0034 42E0     		b	.L1
  73              	.L4:
 118:..\..\..\..\..\..\Software\uCOS-III\Source/os_time.c ****     }
 119:..\..\..\..\..\..\Software\uCOS-III\Source/os_time.c **** 
 120:..\..\..\..\..\..\Software\uCOS-III\Source/os_time.c ****     switch (opt) {
  74              		.loc 1 120 0
  75 0036 0A23     		movs	r3, #10
  76 0038 FB18     		adds	r3, r7, r3
  77 003a 1B88     		ldrh	r3, [r3]
  78 003c 022B     		cmp	r3, #2
  79 003e 07D0     		beq	.L6
  80 0040 02DC     		bgt	.L7
  81 0042 002B     		cmp	r3, #0
  82 0044 04D0     		beq	.L6
  83 0046 0AE0     		b	.L5
  84              	.L7:
  85 0048 042B     		cmp	r3, #4
  86 004a 0CD0     		beq	.L12
  87 004c 082B     		cmp	r3, #8
  88 004e 06D1     		bne	.L5
  89              	.L6:
 121:..\..\..\..\..\..\Software\uCOS-III\Source/os_time.c ****         case OS_OPT_TIME_DLY:
 122:..\..\..\..\..\..\Software\uCOS-III\Source/os_time.c ****         case OS_OPT_TIME_TIMEOUT:
 123:..\..\..\..\..\..\Software\uCOS-III\Source/os_time.c ****         case OS_OPT_TIME_PERIODIC:
 124:..\..\..\..\..\..\Software\uCOS-III\Source/os_time.c ****              if (dly == 0u) {                                   /* 0 means no delay!               
  90              		.loc 1 124 0
  91 0050 FB68     		ldr	r3, [r7, #12]
  92 0052 002B     		cmp	r3, #0
  93 0054 09D1     		bne	.L13
 125:..\..\..\..\..\..\Software\uCOS-III\Source/os_time.c ****                 *p_err = OS_ERR_TIME_ZERO_DLY;
  94              		.loc 1 125 0
  95 0056 7B68     		ldr	r3, [r7, #4]
  96 0058 1E4A     		ldr	r2, .L14+16
  97 005a 1A80     		strh	r2, [r3]
 126:..\..\..\..\..\..\Software\uCOS-III\Source/os_time.c ****                  return;
  98              		.loc 1 126 0
  99 005c 2EE0     		b	.L1
 100              	.L5:
 127:..\..\..\..\..\..\Software\uCOS-III\Source/os_time.c ****              }
 128:..\..\..\..\..\..\Software\uCOS-III\Source/os_time.c ****              break;
ARM GAS  C:\Users\ADMINI~1\AppData\Local\Temp\ccCY2XuB.s 			page 5


 129:..\..\..\..\..\..\Software\uCOS-III\Source/os_time.c **** 
 130:..\..\..\..\..\..\Software\uCOS-III\Source/os_time.c ****         case OS_OPT_TIME_MATCH:
 131:..\..\..\..\..\..\Software\uCOS-III\Source/os_time.c ****              break;
 132:..\..\..\..\..\..\Software\uCOS-III\Source/os_time.c **** 
 133:..\..\..\..\..\..\Software\uCOS-III\Source/os_time.c ****         default:
 134:..\..\..\..\..\..\Software\uCOS-III\Source/os_time.c ****             *p_err = OS_ERR_OPT_INVALID;
 101              		.loc 1 134 0
 102 005e 7B68     		ldr	r3, [r7, #4]
 103 0060 1D4A     		ldr	r2, .L14+20
 104 0062 1A80     		strh	r2, [r3]
 135:..\..\..\..\..\..\Software\uCOS-III\Source/os_time.c ****              return;
 105              		.loc 1 135 0
 106 0064 2AE0     		b	.L1
 107              	.L12:
 131:..\..\..\..\..\..\Software\uCOS-III\Source/os_time.c **** 
 108              		.loc 1 131 0
 109 0066 C046     		nop
 110 0068 00E0     		b	.L10
 111              	.L13:
 128:..\..\..\..\..\..\Software\uCOS-III\Source/os_time.c **** 
 112              		.loc 1 128 0
 113 006a C046     		nop
 114              	.L10:
 136:..\..\..\..\..\..\Software\uCOS-III\Source/os_time.c ****     }
 137:..\..\..\..\..\..\Software\uCOS-III\Source/os_time.c **** 
 138:..\..\..\..\..\..\Software\uCOS-III\Source/os_time.c **** #if (OS_CFG_TASK_TICK_EN == DEF_ENABLED)
 139:..\..\..\..\..\..\Software\uCOS-III\Source/os_time.c ****     OS_CRITICAL_ENTER();
 115              		.loc 1 139 0
 116 006c FFF7FEFF 		bl	CPU_SR_Save
 117 0070 0300     		movs	r3, r0
 118 0072 7B61     		str	r3, [r7, #20]
 119 0074 FFF7FEFF 		bl	CPU_IntDisMeasStart
 140:..\..\..\..\..\..\Software\uCOS-III\Source/os_time.c ****     OS_TickListInsertDly(OSTCBCurPtr,
 120              		.loc 1 140 0
 121 0078 184B     		ldr	r3, .L14+24
 122 007a 1868     		ldr	r0, [r3]
 123 007c 7C68     		ldr	r4, [r7, #4]
 124 007e 0A23     		movs	r3, #10
 125 0080 FB18     		adds	r3, r7, r3
 126 0082 1A88     		ldrh	r2, [r3]
 127 0084 F968     		ldr	r1, [r7, #12]
 128 0086 2300     		movs	r3, r4
 129 0088 FFF7FEFF 		bl	OS_TickListInsertDly
 141:..\..\..\..\..\..\Software\uCOS-III\Source/os_time.c ****                          dly,
 142:..\..\..\..\..\..\Software\uCOS-III\Source/os_time.c ****                          opt,
 143:..\..\..\..\..\..\Software\uCOS-III\Source/os_time.c ****                          p_err);
 144:..\..\..\..\..\..\Software\uCOS-III\Source/os_time.c ****     if (*p_err != OS_ERR_NONE) {
 130              		.loc 1 144 0
 131 008c 7B68     		ldr	r3, [r7, #4]
 132 008e 1B88     		ldrh	r3, [r3]
 133 0090 002B     		cmp	r3, #0
 134 0092 06D0     		beq	.L11
 145:..\..\..\..\..\..\Software\uCOS-III\Source/os_time.c ****          OS_CRITICAL_EXIT_NO_SCHED();
 135              		.loc 1 145 0
 136 0094 FFF7FEFF 		bl	CPU_IntDisMeasStop
 137 0098 7B69     		ldr	r3, [r7, #20]
 138 009a 1800     		movs	r0, r3
ARM GAS  C:\Users\ADMINI~1\AppData\Local\Temp\ccCY2XuB.s 			page 6


 139 009c FFF7FEFF 		bl	CPU_SR_Restore
 146:..\..\..\..\..\..\Software\uCOS-III\Source/os_time.c ****          return;
 140              		.loc 1 146 0
 141 00a0 0CE0     		b	.L1
 142              	.L11:
 147:..\..\..\..\..\..\Software\uCOS-III\Source/os_time.c ****     }
 148:..\..\..\..\..\..\Software\uCOS-III\Source/os_time.c **** 
 149:..\..\..\..\..\..\Software\uCOS-III\Source/os_time.c **** #if (defined(TRACE_CFG_EN) && (TRACE_CFG_EN == DEF_ENABLED))
 150:..\..\..\..\..\..\Software\uCOS-III\Source/os_time.c ****     TRACE_OS_TASK_DLY(dly);                                     /* Record the event.               
 151:..\..\..\..\..\..\Software\uCOS-III\Source/os_time.c **** #endif
 152:..\..\..\..\..\..\Software\uCOS-III\Source/os_time.c ****     OS_RdyListRemove(OSTCBCurPtr);                              /* Remove current task from ready l
 143              		.loc 1 152 0
 144 00a2 0E4B     		ldr	r3, .L14+24
 145 00a4 1B68     		ldr	r3, [r3]
 146 00a6 1800     		movs	r0, r3
 147 00a8 FFF7FEFF 		bl	OS_RdyListRemove
 153:..\..\..\..\..\..\Software\uCOS-III\Source/os_time.c ****     OS_CRITICAL_EXIT_NO_SCHED();
 148              		.loc 1 153 0
 149 00ac FFF7FEFF 		bl	CPU_IntDisMeasStop
 150 00b0 7B69     		ldr	r3, [r7, #20]
 151 00b2 1800     		movs	r0, r3
 152 00b4 FFF7FEFF 		bl	CPU_SR_Restore
 154:..\..\..\..\..\..\Software\uCOS-III\Source/os_time.c ****     OSSched();                                                  /* Find next task to run!          
 153              		.loc 1 154 0
 154 00b8 FFF7FEFF 		bl	OSSched
 155              	.L1:
 155:..\..\..\..\..\..\Software\uCOS-III\Source/os_time.c **** #endif
 156:..\..\..\..\..\..\Software\uCOS-III\Source/os_time.c **** }
 156              		.loc 1 156 0
 157 00bc BD46     		mov	sp, r7
 158 00be 07B0     		add	sp, sp, #28
 159              		@ sp needed
 160 00c0 90BD     		pop	{r4, r7, pc}
 161              	.L15:
 162 00c2 C046     		.align	2
 163              	.L14:
 164 00c4 00000000 		.word	OSIntNestingCtr
 165 00c8 75720000 		.word	29301
 166 00cc 00000000 		.word	OSSchedLockNestingCtr
 167 00d0 636D0000 		.word	28003
 168 00d4 7E720000 		.word	29310
 169 00d8 255E0000 		.word	24101
 170 00dc 00000000 		.word	OSTCBCurPtr
 171              		.cfi_endproc
 172              	.LFE0:
 173              		.size	OSTimeDly, .-OSTimeDly
 174              		.global	__aeabi_uidiv
 175              		.section	.text.OSTimeDlyHMSM,"ax",%progbits
 176              		.align	2
 177              		.global	OSTimeDlyHMSM
 178              		.code	16
 179              		.thumb_func
 180              		.type	OSTimeDlyHMSM, %function
 181              	OSTimeDlyHMSM:
 182              	.LFB1:
 157:..\..\..\..\..\..\Software\uCOS-III\Source/os_time.c **** 
 158:..\..\..\..\..\..\Software\uCOS-III\Source/os_time.c **** 
ARM GAS  C:\Users\ADMINI~1\AppData\Local\Temp\ccCY2XuB.s 			page 7


 159:..\..\..\..\..\..\Software\uCOS-III\Source/os_time.c **** /*
 160:..\..\..\..\..\..\Software\uCOS-III\Source/os_time.c **** ***************************************************************************************************
 161:..\..\..\..\..\..\Software\uCOS-III\Source/os_time.c **** *                                             DELAY TASK FOR SPECIFIED TIME
 162:..\..\..\..\..\..\Software\uCOS-III\Source/os_time.c **** *
 163:..\..\..\..\..\..\Software\uCOS-III\Source/os_time.c **** * Description: This function is called to delay execution of the currently running task until some 
 164:..\..\..\..\..\..\Software\uCOS-III\Source/os_time.c **** *              call allows you to specify the delay time in HOURS, MINUTES, SECONDS and MILLISECOND
 165:..\..\..\..\..\..\Software\uCOS-III\Source/os_time.c **** *
 166:..\..\..\..\..\..\Software\uCOS-III\Source/os_time.c **** * Arguments  : hours     specifies the number of hours that the task will be delayed (max. is 999 i
 167:..\..\..\..\..\..\Software\uCOS-III\Source/os_time.c **** *                        1000 Hz or less otherwise, a higher value would overflow a 32-bit unsigned
 168:..\..\..\..\..\..\Software\uCOS-III\Source/os_time.c **** *
 169:..\..\..\..\..\..\Software\uCOS-III\Source/os_time.c **** *              minutes   specifies the number of minutes (max. 59 if 'opt' is OS_OPT_TIME_HMSM_STRI
 170:..\..\..\..\..\..\Software\uCOS-III\Source/os_time.c **** *
 171:..\..\..\..\..\..\Software\uCOS-III\Source/os_time.c **** *              seconds   specifies the number of seconds (max. 59 if 'opt' is OS_OPT_TIME_HMSM_STRI
 172:..\..\..\..\..\..\Software\uCOS-III\Source/os_time.c **** *
 173:..\..\..\..\..\..\Software\uCOS-III\Source/os_time.c **** *              milli     specifies the number of milliseconds (max. 999 if 'opt' is OS_OPT_TIME_HMS
 174:..\..\..\..\..\..\Software\uCOS-III\Source/os_time.c **** *
 175:..\..\..\..\..\..\Software\uCOS-III\Source/os_time.c **** *              opt       specifies time delay bit-field options logically OR'd; default options mar
 176:..\..\..\..\..\..\Software\uCOS-III\Source/os_time.c **** *
 177:..\..\..\..\..\..\Software\uCOS-III\Source/os_time.c **** *                        *** OS_OPT_TIME_DLY        specifies a relative time from the current valu
 178:..\..\..\..\..\..\Software\uCOS-III\Source/os_time.c **** *                            OS_OPT_TIME_TIMEOUT    same as OS_OPT_TIME_DLY.
 179:..\..\..\..\..\..\Software\uCOS-III\Source/os_time.c **** *                            OS_OPT_TIME_MATCH      indicates that the delay specifies the absolute
 180:..\..\..\..\..\..\Software\uCOS-III\Source/os_time.c **** *                                                   must reach before the task will be resumed.
 181:..\..\..\..\..\..\Software\uCOS-III\Source/os_time.c **** *                            OS_OPT_TIME_PERIODIC   indicates that the delay specifies the periodic
 182:..\..\..\..\..\..\Software\uCOS-III\Source/os_time.c **** *                                                   must reach before the task will be resumed.
 183:..\..\..\..\..\..\Software\uCOS-III\Source/os_time.c **** *
 184:..\..\..\..\..\..\Software\uCOS-III\Source/os_time.c **** *                        *** OS_OPT_TIME_HMSM_STRICT            strictly allow only hours        (0
 185:..\..\..\..\..\..\Software\uCOS-III\Source/os_time.c **** *                                                                                   minutes      (0
 186:..\..\..\..\..\..\Software\uCOS-III\Source/os_time.c **** *                                                                                   seconds      (0
 187:..\..\..\..\..\..\Software\uCOS-III\Source/os_time.c **** *                                                                                   milliseconds (0
 188:..\..\..\..\..\..\Software\uCOS-III\Source/os_time.c **** *                            OS_OPT_TIME_HMSM_NON_STRICT        allow any value of  hours        (0
 189:..\..\..\..\..\..\Software\uCOS-III\Source/os_time.c **** *                                                                                   minutes      (0
 190:..\..\..\..\..\..\Software\uCOS-III\Source/os_time.c **** *                                                                                   seconds      (0
 191:..\..\..\..\..\..\Software\uCOS-III\Source/os_time.c **** *                                                                                   milliseconds (0
 192:..\..\..\..\..\..\Software\uCOS-III\Source/os_time.c **** *
 193:..\..\..\..\..\..\Software\uCOS-III\Source/os_time.c **** *              p_err     is a pointer to a variable that will receive an error code from this call.
 194:..\..\..\..\..\..\Software\uCOS-III\Source/os_time.c **** *
 195:..\..\..\..\..\..\Software\uCOS-III\Source/os_time.c **** *                            OS_ERR_NONE                        If the function returns from the de
 196:..\..\..\..\..\..\Software\uCOS-III\Source/os_time.c **** *                            OS_ERR_OPT_INVALID                 If you specified an invalid option 
 197:..\..\..\..\..\..\Software\uCOS-III\Source/os_time.c **** *                            OS_ERR_OS_NOT_RUNNING              If uC/OS-III is not running yet
 198:..\..\..\..\..\..\Software\uCOS-III\Source/os_time.c **** *                            OS_ERR_SCHED_LOCKED                Can't delay when the scheduler is l
 199:..\..\..\..\..\..\Software\uCOS-III\Source/os_time.c **** *                            OS_ERR_TIME_DLY_ISR                If called from an ISR
 200:..\..\..\..\..\..\Software\uCOS-III\Source/os_time.c **** *                            OS_ERR_TIME_INVALID_HOURS          If you didn't specify a valid value
 201:..\..\..\..\..\..\Software\uCOS-III\Source/os_time.c **** *                            OS_ERR_TIME_INVALID_MINUTES        If you didn't specify a valid value
 202:..\..\..\..\..\..\Software\uCOS-III\Source/os_time.c **** *                            OS_ERR_TIME_INVALID_SECONDS        If you didn't specify a valid value
 203:..\..\..\..\..\..\Software\uCOS-III\Source/os_time.c **** *                            OS_ERR_TIME_INVALID_MILLISECONDS   If you didn't specify a valid value
 204:..\..\..\..\..\..\Software\uCOS-III\Source/os_time.c **** *                            OS_ERR_TIME_ZERO_DLY               If hours, minutes, seconds and mill
 205:..\..\..\..\..\..\Software\uCOS-III\Source/os_time.c **** *
 206:..\..\..\..\..\..\Software\uCOS-III\Source/os_time.c **** * Returns    : none
 207:..\..\..\..\..\..\Software\uCOS-III\Source/os_time.c **** *
 208:..\..\..\..\..\..\Software\uCOS-III\Source/os_time.c **** * Note(s)    : 1) The resolution on the milliseconds depends on the tick rate.  For example, you ca
 209:..\..\..\..\..\..\Software\uCOS-III\Source/os_time.c **** *                 if the ticker interrupts every 100 mS.  In this case, the delay would be set to 0
 210:..\..\..\..\..\..\Software\uCOS-III\Source/os_time.c **** *                 is rounded to the nearest tick.
 211:..\..\..\..\..\..\Software\uCOS-III\Source/os_time.c **** *
 212:..\..\..\..\..\..\Software\uCOS-III\Source/os_time.c **** *              2) Although this function allows you to delay a task for many, many hours, it's not 
 213:..\..\..\..\..\..\Software\uCOS-III\Source/os_time.c **** *                 a task to sleep for that long.
 214:..\..\..\..\..\..\Software\uCOS-III\Source/os_time.c **** ***************************************************************************************************
 215:..\..\..\..\..\..\Software\uCOS-III\Source/os_time.c **** */
ARM GAS  C:\Users\ADMINI~1\AppData\Local\Temp\ccCY2XuB.s 			page 8


 216:..\..\..\..\..\..\Software\uCOS-III\Source/os_time.c **** 
 217:..\..\..\..\..\..\Software\uCOS-III\Source/os_time.c **** #if (OS_CFG_TIME_DLY_HMSM_EN == DEF_ENABLED)
 218:..\..\..\..\..\..\Software\uCOS-III\Source/os_time.c **** void  OSTimeDlyHMSM (CPU_INT16U   hours,
 219:..\..\..\..\..\..\Software\uCOS-III\Source/os_time.c ****                      CPU_INT16U   minutes,
 220:..\..\..\..\..\..\Software\uCOS-III\Source/os_time.c ****                      CPU_INT16U   seconds,
 221:..\..\..\..\..\..\Software\uCOS-III\Source/os_time.c ****                      CPU_INT32U   milli,
 222:..\..\..\..\..\..\Software\uCOS-III\Source/os_time.c ****                      OS_OPT       opt,
 223:..\..\..\..\..\..\Software\uCOS-III\Source/os_time.c ****                      OS_ERR      *p_err)
 224:..\..\..\..\..\..\Software\uCOS-III\Source/os_time.c **** {
 183              		.loc 1 224 0
 184              		.cfi_startproc
 185              		@ args = 8, pretend = 0, frame = 32
 186              		@ frame_needed = 1, uses_anonymous_args = 0
 187 0000 90B5     		push	{r4, r7, lr}
 188              		.cfi_def_cfa_offset 12
 189              		.cfi_offset 4, -12
 190              		.cfi_offset 7, -8
 191              		.cfi_offset 14, -4
 192 0002 89B0     		sub	sp, sp, #36
 193              		.cfi_def_cfa_offset 48
 194 0004 00AF     		add	r7, sp, #0
 195              		.cfi_def_cfa_register 7
 196 0006 0400     		movs	r4, r0
 197 0008 0800     		movs	r0, r1
 198 000a 1100     		movs	r1, r2
 199 000c 7B60     		str	r3, [r7, #4]
 200 000e 0E23     		movs	r3, #14
 201 0010 FB18     		adds	r3, r7, r3
 202 0012 221C     		adds	r2, r4, #0
 203 0014 1A80     		strh	r2, [r3]
 204 0016 0C23     		movs	r3, #12
 205 0018 FB18     		adds	r3, r7, r3
 206 001a 021C     		adds	r2, r0, #0
 207 001c 1A80     		strh	r2, [r3]
 208 001e 0A23     		movs	r3, #10
 209 0020 FB18     		adds	r3, r7, r3
 210 0022 0A1C     		adds	r2, r1, #0
 211 0024 1A80     		strh	r2, [r3]
 225:..\..\..\..\..\..\Software\uCOS-III\Source/os_time.c **** #if (OS_CFG_ARG_CHK_EN == DEF_ENABLED)
 226:..\..\..\..\..\..\Software\uCOS-III\Source/os_time.c ****     CPU_BOOLEAN  opt_invalid;
 227:..\..\..\..\..\..\Software\uCOS-III\Source/os_time.c ****     CPU_BOOLEAN  opt_non_strict;
 228:..\..\..\..\..\..\Software\uCOS-III\Source/os_time.c **** #endif
 229:..\..\..\..\..\..\Software\uCOS-III\Source/os_time.c ****     OS_OPT       opt_time;
 230:..\..\..\..\..\..\Software\uCOS-III\Source/os_time.c ****     OS_RATE_HZ   tick_rate;
 231:..\..\..\..\..\..\Software\uCOS-III\Source/os_time.c ****     OS_TICK      ticks;
 232:..\..\..\..\..\..\Software\uCOS-III\Source/os_time.c **** #if (OS_CFG_TASK_TICK_EN == DEF_ENABLED)
 233:..\..\..\..\..\..\Software\uCOS-III\Source/os_time.c ****     CPU_SR_ALLOC();
 212              		.loc 1 233 0
 213 0026 0023     		movs	r3, #0
 214 0028 FB61     		str	r3, [r7, #28]
 234:..\..\..\..\..\..\Software\uCOS-III\Source/os_time.c **** #endif
 235:..\..\..\..\..\..\Software\uCOS-III\Source/os_time.c **** 
 236:..\..\..\..\..\..\Software\uCOS-III\Source/os_time.c **** 
 237:..\..\..\..\..\..\Software\uCOS-III\Source/os_time.c **** 
 238:..\..\..\..\..\..\Software\uCOS-III\Source/os_time.c **** #ifdef OS_SAFETY_CRITICAL
 239:..\..\..\..\..\..\Software\uCOS-III\Source/os_time.c ****     if (p_err == DEF_NULL) {
 240:..\..\..\..\..\..\Software\uCOS-III\Source/os_time.c ****         OS_SAFETY_CRITICAL_EXCEPTION();
ARM GAS  C:\Users\ADMINI~1\AppData\Local\Temp\ccCY2XuB.s 			page 9


 241:..\..\..\..\..\..\Software\uCOS-III\Source/os_time.c ****         return;
 242:..\..\..\..\..\..\Software\uCOS-III\Source/os_time.c ****     }
 243:..\..\..\..\..\..\Software\uCOS-III\Source/os_time.c **** #endif
 244:..\..\..\..\..\..\Software\uCOS-III\Source/os_time.c **** 
 245:..\..\..\..\..\..\Software\uCOS-III\Source/os_time.c **** #if (OS_CFG_CALLED_FROM_ISR_CHK_EN == DEF_ENABLED)
 246:..\..\..\..\..\..\Software\uCOS-III\Source/os_time.c ****     if (OSIntNestingCtr > 0u) {                                 /* Not allowed to call from an ISR 
 215              		.loc 1 246 0
 216 002a 7F4B     		ldr	r3, .L39
 217 002c 1B78     		ldrb	r3, [r3]
 218 002e 002B     		cmp	r3, #0
 219 0030 03D0     		beq	.L17
 247:..\..\..\..\..\..\Software\uCOS-III\Source/os_time.c ****        *p_err = OS_ERR_TIME_DLY_ISR;
 220              		.loc 1 247 0
 221 0032 7B6B     		ldr	r3, [r7, #52]
 222 0034 7D4A     		ldr	r2, .L39+4
 223 0036 1A80     		strh	r2, [r3]
 248:..\..\..\..\..\..\Software\uCOS-III\Source/os_time.c ****         return;
 224              		.loc 1 248 0
 225 0038 F3E0     		b	.L16
 226              	.L17:
 249:..\..\..\..\..\..\Software\uCOS-III\Source/os_time.c ****     }
 250:..\..\..\..\..\..\Software\uCOS-III\Source/os_time.c **** #endif
 251:..\..\..\..\..\..\Software\uCOS-III\Source/os_time.c **** 
 252:..\..\..\..\..\..\Software\uCOS-III\Source/os_time.c **** #if (OS_CFG_INVALID_OS_CALLS_CHK_EN == DEF_ENABLED)             /* Is the kernel running?          
 253:..\..\..\..\..\..\Software\uCOS-III\Source/os_time.c ****     if (OSRunning != OS_STATE_OS_RUNNING) {
 254:..\..\..\..\..\..\Software\uCOS-III\Source/os_time.c ****        *p_err = OS_ERR_OS_NOT_RUNNING;
 255:..\..\..\..\..\..\Software\uCOS-III\Source/os_time.c ****         return;
 256:..\..\..\..\..\..\Software\uCOS-III\Source/os_time.c ****     }
 257:..\..\..\..\..\..\Software\uCOS-III\Source/os_time.c **** #endif
 258:..\..\..\..\..\..\Software\uCOS-III\Source/os_time.c **** 
 259:..\..\..\..\..\..\Software\uCOS-III\Source/os_time.c ****     if (OSSchedLockNestingCtr > 0u) {                           /* Can't delay when the scheduler i
 227              		.loc 1 259 0
 228 003a 7D4B     		ldr	r3, .L39+8
 229 003c 1B78     		ldrb	r3, [r3]
 230 003e 002B     		cmp	r3, #0
 231 0040 03D0     		beq	.L19
 260:..\..\..\..\..\..\Software\uCOS-III\Source/os_time.c ****        *p_err = OS_ERR_SCHED_LOCKED;
 232              		.loc 1 260 0
 233 0042 7B6B     		ldr	r3, [r7, #52]
 234 0044 7B4A     		ldr	r2, .L39+12
 235 0046 1A80     		strh	r2, [r3]
 261:..\..\..\..\..\..\Software\uCOS-III\Source/os_time.c ****         return;
 236              		.loc 1 261 0
 237 0048 EBE0     		b	.L16
 238              	.L19:
 262:..\..\..\..\..\..\Software\uCOS-III\Source/os_time.c ****     }
 263:..\..\..\..\..\..\Software\uCOS-III\Source/os_time.c **** 
 264:..\..\..\..\..\..\Software\uCOS-III\Source/os_time.c ****     opt_time = opt & OS_OPT_TIME_MASK;                          /* Retrieve time options only.     
 239              		.loc 1 264 0
 240 004a 1A23     		movs	r3, #26
 241 004c FB18     		adds	r3, r7, r3
 242 004e 3022     		movs	r2, #48
 243 0050 BA18     		adds	r2, r7, r2
 244 0052 1288     		ldrh	r2, [r2]
 245 0054 0E21     		movs	r1, #14
 246 0056 0A40     		ands	r2, r1
 247 0058 1A80     		strh	r2, [r3]
ARM GAS  C:\Users\ADMINI~1\AppData\Local\Temp\ccCY2XuB.s 			page 10


 265:..\..\..\..\..\..\Software\uCOS-III\Source/os_time.c ****     switch (opt_time) {
 248              		.loc 1 265 0
 249 005a 1A23     		movs	r3, #26
 250 005c FB18     		adds	r3, r7, r3
 251 005e 1B88     		ldrh	r3, [r3]
 252 0060 022B     		cmp	r3, #2
 253 0062 07D0     		beq	.L21
 254 0064 02DC     		bgt	.L22
 255 0066 002B     		cmp	r3, #0
 256 0068 04D0     		beq	.L21
 257 006a 19E0     		b	.L20
 258              	.L22:
 259 006c 042B     		cmp	r3, #4
 260 006e 1BD0     		beq	.L37
 261 0070 082B     		cmp	r3, #8
 262 0072 15D1     		bne	.L20
 263              	.L21:
 266:..\..\..\..\..\..\Software\uCOS-III\Source/os_time.c ****         case OS_OPT_TIME_DLY:
 267:..\..\..\..\..\..\Software\uCOS-III\Source/os_time.c ****         case OS_OPT_TIME_TIMEOUT:
 268:..\..\..\..\..\..\Software\uCOS-III\Source/os_time.c ****         case OS_OPT_TIME_PERIODIC:
 269:..\..\..\..\..\..\Software\uCOS-III\Source/os_time.c ****              if (milli == 0u) {                                 /* Make sure we didn't specify a 0 
 264              		.loc 1 269 0
 265 0074 7B68     		ldr	r3, [r7, #4]
 266 0076 002B     		cmp	r3, #0
 267 0078 18D1     		bne	.L38
 270:..\..\..\..\..\..\Software\uCOS-III\Source/os_time.c ****                  if (seconds == 0u) {
 268              		.loc 1 270 0
 269 007a 0A23     		movs	r3, #10
 270 007c FB18     		adds	r3, r7, r3
 271 007e 1B88     		ldrh	r3, [r3]
 272 0080 002B     		cmp	r3, #0
 273 0082 13D1     		bne	.L38
 271:..\..\..\..\..\..\Software\uCOS-III\Source/os_time.c ****                      if (minutes == 0u) {
 274              		.loc 1 271 0
 275 0084 0C23     		movs	r3, #12
 276 0086 FB18     		adds	r3, r7, r3
 277 0088 1B88     		ldrh	r3, [r3]
 278 008a 002B     		cmp	r3, #0
 279 008c 0ED1     		bne	.L38
 272:..\..\..\..\..\..\Software\uCOS-III\Source/os_time.c ****                          if (hours == 0u) {
 280              		.loc 1 272 0
 281 008e 0E23     		movs	r3, #14
 282 0090 FB18     		adds	r3, r7, r3
 283 0092 1B88     		ldrh	r3, [r3]
 284 0094 002B     		cmp	r3, #0
 285 0096 09D1     		bne	.L38
 273:..\..\..\..\..\..\Software\uCOS-III\Source/os_time.c ****                             *p_err = OS_ERR_TIME_ZERO_DLY;
 286              		.loc 1 273 0
 287 0098 7B6B     		ldr	r3, [r7, #52]
 288 009a 674A     		ldr	r2, .L39+16
 289 009c 1A80     		strh	r2, [r3]
 274:..\..\..\..\..\..\Software\uCOS-III\Source/os_time.c ****                              return;
 290              		.loc 1 274 0
 291 009e C0E0     		b	.L16
 292              	.L20:
 275:..\..\..\..\..\..\Software\uCOS-III\Source/os_time.c ****                          }
 276:..\..\..\..\..\..\Software\uCOS-III\Source/os_time.c ****                      }
ARM GAS  C:\Users\ADMINI~1\AppData\Local\Temp\ccCY2XuB.s 			page 11


 277:..\..\..\..\..\..\Software\uCOS-III\Source/os_time.c ****                  }
 278:..\..\..\..\..\..\Software\uCOS-III\Source/os_time.c ****              }
 279:..\..\..\..\..\..\Software\uCOS-III\Source/os_time.c ****              break;
 280:..\..\..\..\..\..\Software\uCOS-III\Source/os_time.c **** 
 281:..\..\..\..\..\..\Software\uCOS-III\Source/os_time.c ****         case OS_OPT_TIME_MATCH:
 282:..\..\..\..\..\..\Software\uCOS-III\Source/os_time.c ****              break;
 283:..\..\..\..\..\..\Software\uCOS-III\Source/os_time.c **** 
 284:..\..\..\..\..\..\Software\uCOS-III\Source/os_time.c ****         default:
 285:..\..\..\..\..\..\Software\uCOS-III\Source/os_time.c ****             *p_err = OS_ERR_OPT_INVALID;
 293              		.loc 1 285 0
 294 00a0 7B6B     		ldr	r3, [r7, #52]
 295 00a2 664A     		ldr	r2, .L39+20
 296 00a4 1A80     		strh	r2, [r3]
 286:..\..\..\..\..\..\Software\uCOS-III\Source/os_time.c ****              return;
 297              		.loc 1 286 0
 298 00a6 BCE0     		b	.L16
 299              	.L37:
 282:..\..\..\..\..\..\Software\uCOS-III\Source/os_time.c **** 
 300              		.loc 1 282 0
 301 00a8 C046     		nop
 302 00aa 00E0     		b	.L25
 303              	.L38:
 279:..\..\..\..\..\..\Software\uCOS-III\Source/os_time.c **** 
 304              		.loc 1 279 0
 305 00ac C046     		nop
 306              	.L25:
 287:..\..\..\..\..\..\Software\uCOS-III\Source/os_time.c ****     }
 288:..\..\..\..\..\..\Software\uCOS-III\Source/os_time.c **** 
 289:..\..\..\..\..\..\Software\uCOS-III\Source/os_time.c **** #if (OS_CFG_ARG_CHK_EN == DEF_ENABLED)                          /* Validate arguments to be within 
 290:..\..\..\..\..\..\Software\uCOS-III\Source/os_time.c ****     opt_invalid = DEF_BIT_IS_SET_ANY(opt, ~OS_OPT_TIME_OPTS_MASK);
 307              		.loc 1 290 0
 308 00ae 3023     		movs	r3, #48
 309 00b0 FB18     		adds	r3, r7, r3
 310 00b2 1B88     		ldrh	r3, [r3]
 311 00b4 1E22     		movs	r2, #30
 312 00b6 9343     		bics	r3, r2
 313 00b8 5A1E     		subs	r2, r3, #1
 314 00ba 9341     		sbcs	r3, r3, r2
 315 00bc DAB2     		uxtb	r2, r3
 316 00be 1923     		movs	r3, #25
 317 00c0 FB18     		adds	r3, r7, r3
 318 00c2 1A70     		strb	r2, [r3]
 291:..\..\..\..\..\..\Software\uCOS-III\Source/os_time.c ****     if (opt_invalid == DEF_YES) {
 319              		.loc 1 291 0
 320 00c4 1923     		movs	r3, #25
 321 00c6 FB18     		adds	r3, r7, r3
 322 00c8 1B78     		ldrb	r3, [r3]
 323 00ca 012B     		cmp	r3, #1
 324 00cc 03D1     		bne	.L26
 292:..\..\..\..\..\..\Software\uCOS-III\Source/os_time.c ****        *p_err = OS_ERR_OPT_INVALID;
 325              		.loc 1 292 0
 326 00ce 7B6B     		ldr	r3, [r7, #52]
 327 00d0 5A4A     		ldr	r2, .L39+20
 328 00d2 1A80     		strh	r2, [r3]
 293:..\..\..\..\..\..\Software\uCOS-III\Source/os_time.c ****         return;
 329              		.loc 1 293 0
 330 00d4 A5E0     		b	.L16
ARM GAS  C:\Users\ADMINI~1\AppData\Local\Temp\ccCY2XuB.s 			page 12


 331              	.L26:
 294:..\..\..\..\..\..\Software\uCOS-III\Source/os_time.c ****     }
 295:..\..\..\..\..\..\Software\uCOS-III\Source/os_time.c **** 
 296:..\..\..\..\..\..\Software\uCOS-III\Source/os_time.c ****     opt_non_strict = DEF_BIT_IS_SET(opt, OS_OPT_TIME_HMSM_NON_STRICT);
 332              		.loc 1 296 0
 333 00d6 3023     		movs	r3, #48
 334 00d8 FB18     		adds	r3, r7, r3
 335 00da 1B88     		ldrh	r3, [r3]
 336 00dc 1022     		movs	r2, #16
 337 00de 1340     		ands	r3, r2
 338 00e0 01D0     		beq	.L27
 339              		.loc 1 296 0 is_stmt 0 discriminator 1
 340 00e2 0122     		movs	r2, #1
 341 00e4 00E0     		b	.L28
 342              	.L27:
 343              		.loc 1 296 0 discriminator 2
 344 00e6 0022     		movs	r2, #0
 345              	.L28:
 346              		.loc 1 296 0 discriminator 4
 347 00e8 1823     		movs	r3, #24
 348 00ea FB18     		adds	r3, r7, r3
 349 00ec 1A70     		strb	r2, [r3]
 297:..\..\..\..\..\..\Software\uCOS-III\Source/os_time.c ****     if (opt_non_strict != DEF_YES) {
 350              		.loc 1 297 0 is_stmt 1 discriminator 4
 351 00ee 1823     		movs	r3, #24
 352 00f0 FB18     		adds	r3, r7, r3
 353 00f2 1B78     		ldrb	r3, [r3]
 354 00f4 012B     		cmp	r3, #1
 355 00f6 22D0     		beq	.L29
 298:..\..\..\..\..\..\Software\uCOS-III\Source/os_time.c ****          if (milli   > 999u) {
 356              		.loc 1 298 0
 357 00f8 7B68     		ldr	r3, [r7, #4]
 358 00fa 514A     		ldr	r2, .L39+24
 359 00fc 9342     		cmp	r3, r2
 360 00fe 03D9     		bls	.L30
 299:..\..\..\..\..\..\Software\uCOS-III\Source/os_time.c ****             *p_err = OS_ERR_TIME_INVALID_MILLISECONDS;
 361              		.loc 1 299 0
 362 0100 7B6B     		ldr	r3, [r7, #52]
 363 0102 504A     		ldr	r2, .L39+28
 364 0104 1A80     		strh	r2, [r3]
 300:..\..\..\..\..\..\Software\uCOS-III\Source/os_time.c ****              return;
 365              		.loc 1 300 0
 366 0106 8CE0     		b	.L16
 367              	.L30:
 301:..\..\..\..\..\..\Software\uCOS-III\Source/os_time.c ****          }
 302:..\..\..\..\..\..\Software\uCOS-III\Source/os_time.c ****          if (seconds > 59u) {
 368              		.loc 1 302 0
 369 0108 0A23     		movs	r3, #10
 370 010a FB18     		adds	r3, r7, r3
 371 010c 1B88     		ldrh	r3, [r3]
 372 010e 3B2B     		cmp	r3, #59
 373 0110 03D9     		bls	.L31
 303:..\..\..\..\..\..\Software\uCOS-III\Source/os_time.c ****             *p_err = OS_ERR_TIME_INVALID_SECONDS;
 374              		.loc 1 303 0
 375 0112 7B6B     		ldr	r3, [r7, #52]
 376 0114 4C4A     		ldr	r2, .L39+32
 377 0116 1A80     		strh	r2, [r3]
ARM GAS  C:\Users\ADMINI~1\AppData\Local\Temp\ccCY2XuB.s 			page 13


 304:..\..\..\..\..\..\Software\uCOS-III\Source/os_time.c ****              return;
 378              		.loc 1 304 0
 379 0118 83E0     		b	.L16
 380              	.L31:
 305:..\..\..\..\..\..\Software\uCOS-III\Source/os_time.c ****          }
 306:..\..\..\..\..\..\Software\uCOS-III\Source/os_time.c ****          if (minutes > 59u) {
 381              		.loc 1 306 0
 382 011a 0C23     		movs	r3, #12
 383 011c FB18     		adds	r3, r7, r3
 384 011e 1B88     		ldrh	r3, [r3]
 385 0120 3B2B     		cmp	r3, #59
 386 0122 03D9     		bls	.L32
 307:..\..\..\..\..\..\Software\uCOS-III\Source/os_time.c ****             *p_err = OS_ERR_TIME_INVALID_MINUTES;
 387              		.loc 1 307 0
 388 0124 7B6B     		ldr	r3, [r7, #52]
 389 0126 494A     		ldr	r2, .L39+36
 390 0128 1A80     		strh	r2, [r3]
 308:..\..\..\..\..\..\Software\uCOS-III\Source/os_time.c ****              return;
 391              		.loc 1 308 0
 392 012a 7AE0     		b	.L16
 393              	.L32:
 309:..\..\..\..\..\..\Software\uCOS-III\Source/os_time.c ****          }
 310:..\..\..\..\..\..\Software\uCOS-III\Source/os_time.c ****          if (hours   > 99u) {
 394              		.loc 1 310 0
 395 012c 0E23     		movs	r3, #14
 396 012e FB18     		adds	r3, r7, r3
 397 0130 1B88     		ldrh	r3, [r3]
 398 0132 632B     		cmp	r3, #99
 399 0134 17D9     		bls	.L33
 311:..\..\..\..\..\..\Software\uCOS-III\Source/os_time.c ****             *p_err = OS_ERR_TIME_INVALID_HOURS;
 400              		.loc 1 311 0
 401 0136 7B6B     		ldr	r3, [r7, #52]
 402 0138 454A     		ldr	r2, .L39+40
 403 013a 1A80     		strh	r2, [r3]
 312:..\..\..\..\..\..\Software\uCOS-III\Source/os_time.c ****              return;
 404              		.loc 1 312 0
 405 013c 71E0     		b	.L16
 406              	.L29:
 313:..\..\..\..\..\..\Software\uCOS-III\Source/os_time.c ****          }
 314:..\..\..\..\..\..\Software\uCOS-III\Source/os_time.c ****     } else {
 315:..\..\..\..\..\..\Software\uCOS-III\Source/os_time.c ****          if (minutes > 9999u) {
 407              		.loc 1 315 0
 408 013e 0C23     		movs	r3, #12
 409 0140 FB18     		adds	r3, r7, r3
 410 0142 1B88     		ldrh	r3, [r3]
 411 0144 434A     		ldr	r2, .L39+44
 412 0146 9342     		cmp	r3, r2
 413 0148 03D9     		bls	.L34
 316:..\..\..\..\..\..\Software\uCOS-III\Source/os_time.c ****             *p_err = OS_ERR_TIME_INVALID_MINUTES;
 414              		.loc 1 316 0
 415 014a 7B6B     		ldr	r3, [r7, #52]
 416 014c 3F4A     		ldr	r2, .L39+36
 417 014e 1A80     		strh	r2, [r3]
 317:..\..\..\..\..\..\Software\uCOS-III\Source/os_time.c ****              return;
 418              		.loc 1 317 0
 419 0150 67E0     		b	.L16
 420              	.L34:
ARM GAS  C:\Users\ADMINI~1\AppData\Local\Temp\ccCY2XuB.s 			page 14


 318:..\..\..\..\..\..\Software\uCOS-III\Source/os_time.c ****          }
 319:..\..\..\..\..\..\Software\uCOS-III\Source/os_time.c ****          if (hours   > 999u) {
 421              		.loc 1 319 0
 422 0152 0E23     		movs	r3, #14
 423 0154 FB18     		adds	r3, r7, r3
 424 0156 1B88     		ldrh	r3, [r3]
 425 0158 394A     		ldr	r2, .L39+24
 426 015a 9342     		cmp	r3, r2
 427 015c 03D9     		bls	.L33
 320:..\..\..\..\..\..\Software\uCOS-III\Source/os_time.c ****             *p_err = OS_ERR_TIME_INVALID_HOURS;
 428              		.loc 1 320 0
 429 015e 7B6B     		ldr	r3, [r7, #52]
 430 0160 3B4A     		ldr	r2, .L39+40
 431 0162 1A80     		strh	r2, [r3]
 321:..\..\..\..\..\..\Software\uCOS-III\Source/os_time.c ****              return;
 432              		.loc 1 321 0
 433 0164 5DE0     		b	.L16
 434              	.L33:
 322:..\..\..\..\..\..\Software\uCOS-III\Source/os_time.c ****          }
 323:..\..\..\..\..\..\Software\uCOS-III\Source/os_time.c ****     }
 324:..\..\..\..\..\..\Software\uCOS-III\Source/os_time.c **** #endif
 325:..\..\..\..\..\..\Software\uCOS-III\Source/os_time.c **** 
 326:..\..\..\..\..\..\Software\uCOS-III\Source/os_time.c ****                                                                 /* Compute the total number of cloc
 327:..\..\..\..\..\..\Software\uCOS-III\Source/os_time.c ****                                                                 /* .. (rounded to the nearest tick)
 328:..\..\..\..\..\..\Software\uCOS-III\Source/os_time.c ****     tick_rate = OSCfg_TickRate_Hz;
 435              		.loc 1 328 0
 436 0166 3C4B     		ldr	r3, .L39+48
 437 0168 1B68     		ldr	r3, [r3]
 438 016a 7B61     		str	r3, [r7, #20]
 329:..\..\..\..\..\..\Software\uCOS-III\Source/os_time.c ****     ticks     = ((OS_TICK)hours * (OS_TICK)3600u + (OS_TICK)minutes * (OS_TICK)60u + (OS_TICK)secon
 439              		.loc 1 329 0
 440 016c 0E23     		movs	r3, #14
 441 016e FB18     		adds	r3, r7, r3
 442 0170 1B88     		ldrh	r3, [r3]
 443 0172 E122     		movs	r2, #225
 444 0174 1201     		lsls	r2, r2, #4
 445 0176 5A43     		muls	r2, r3
 446 0178 1100     		movs	r1, r2
 447 017a 0C23     		movs	r3, #12
 448 017c FB18     		adds	r3, r7, r3
 449 017e 1A88     		ldrh	r2, [r3]
 450 0180 1300     		movs	r3, r2
 451 0182 1B01     		lsls	r3, r3, #4
 452 0184 9B1A     		subs	r3, r3, r2
 453 0186 9B00     		lsls	r3, r3, #2
 454 0188 CA18     		adds	r2, r1, r3
 455 018a 0A23     		movs	r3, #10
 456 018c FB18     		adds	r3, r7, r3
 457 018e 1B88     		ldrh	r3, [r3]
 458 0190 D318     		adds	r3, r2, r3
 459 0192 7A69     		ldr	r2, [r7, #20]
 460 0194 5A43     		muls	r2, r3
 461 0196 1400     		movs	r4, r2
 330:..\..\..\..\..\..\Software\uCOS-III\Source/os_time.c ****               + (tick_rate * ((OS_TICK)milli + (OS_TICK)500u / tick_rate)) / (OS_TICK)1000u;
 462              		.loc 1 330 0
 463 0198 7969     		ldr	r1, [r7, #20]
 464 019a FA23     		movs	r3, #250
ARM GAS  C:\Users\ADMINI~1\AppData\Local\Temp\ccCY2XuB.s 			page 15


 465 019c 5800     		lsls	r0, r3, #1
 466 019e FFF7FEFF 		bl	__aeabi_uidiv
 467 01a2 0300     		movs	r3, r0
 468 01a4 1A00     		movs	r2, r3
 469 01a6 7B68     		ldr	r3, [r7, #4]
 470 01a8 D318     		adds	r3, r2, r3
 471 01aa 7A69     		ldr	r2, [r7, #20]
 472 01ac 5A43     		muls	r2, r3
 473 01ae FA23     		movs	r3, #250
 474 01b0 9900     		lsls	r1, r3, #2
 475 01b2 1000     		movs	r0, r2
 476 01b4 FFF7FEFF 		bl	__aeabi_uidiv
 477 01b8 0300     		movs	r3, r0
 329:..\..\..\..\..\..\Software\uCOS-III\Source/os_time.c ****     ticks     = ((OS_TICK)hours * (OS_TICK)3600u + (OS_TICK)minutes * (OS_TICK)60u + (OS_TICK)secon
 478              		.loc 1 329 0
 479 01ba E318     		adds	r3, r4, r3
 480 01bc 3B61     		str	r3, [r7, #16]
 331:..\..\..\..\..\..\Software\uCOS-III\Source/os_time.c **** 
 332:..\..\..\..\..\..\Software\uCOS-III\Source/os_time.c ****     if (ticks > 0u) {
 481              		.loc 1 332 0
 482 01be 3B69     		ldr	r3, [r7, #16]
 483 01c0 002B     		cmp	r3, #0
 484 01c2 2BD0     		beq	.L35
 333:..\..\..\..\..\..\Software\uCOS-III\Source/os_time.c **** #if (OS_CFG_TASK_TICK_EN == DEF_ENABLED)
 334:..\..\..\..\..\..\Software\uCOS-III\Source/os_time.c ****         OS_CRITICAL_ENTER();
 485              		.loc 1 334 0
 486 01c4 FFF7FEFF 		bl	CPU_SR_Save
 487 01c8 0300     		movs	r3, r0
 488 01ca FB61     		str	r3, [r7, #28]
 489 01cc FFF7FEFF 		bl	CPU_IntDisMeasStart
 335:..\..\..\..\..\..\Software\uCOS-III\Source/os_time.c ****         OS_TickListInsertDly(OSTCBCurPtr,
 490              		.loc 1 335 0
 491 01d0 224B     		ldr	r3, .L39+52
 492 01d2 1868     		ldr	r0, [r3]
 493 01d4 7C6B     		ldr	r4, [r7, #52]
 494 01d6 1A23     		movs	r3, #26
 495 01d8 FB18     		adds	r3, r7, r3
 496 01da 1A88     		ldrh	r2, [r3]
 497 01dc 3969     		ldr	r1, [r7, #16]
 498 01de 2300     		movs	r3, r4
 499 01e0 FFF7FEFF 		bl	OS_TickListInsertDly
 336:..\..\..\..\..\..\Software\uCOS-III\Source/os_time.c ****                              ticks,
 337:..\..\..\..\..\..\Software\uCOS-III\Source/os_time.c ****                              opt_time,
 338:..\..\..\..\..\..\Software\uCOS-III\Source/os_time.c ****                              p_err);
 339:..\..\..\..\..\..\Software\uCOS-III\Source/os_time.c ****         if (*p_err != OS_ERR_NONE) {
 500              		.loc 1 339 0
 501 01e4 7B6B     		ldr	r3, [r7, #52]
 502 01e6 1B88     		ldrh	r3, [r3]
 503 01e8 002B     		cmp	r3, #0
 504 01ea 06D0     		beq	.L36
 340:..\..\..\..\..\..\Software\uCOS-III\Source/os_time.c ****              OS_CRITICAL_EXIT_NO_SCHED();
 505              		.loc 1 340 0
 506 01ec FFF7FEFF 		bl	CPU_IntDisMeasStop
 507 01f0 FB69     		ldr	r3, [r7, #28]
 508 01f2 1800     		movs	r0, r3
 509 01f4 FFF7FEFF 		bl	CPU_SR_Restore
 341:..\..\..\..\..\..\Software\uCOS-III\Source/os_time.c ****              return;
ARM GAS  C:\Users\ADMINI~1\AppData\Local\Temp\ccCY2XuB.s 			page 16


 510              		.loc 1 341 0
 511 01f8 13E0     		b	.L16
 512              	.L36:
 342:..\..\..\..\..\..\Software\uCOS-III\Source/os_time.c ****         }
 343:..\..\..\..\..\..\Software\uCOS-III\Source/os_time.c **** #if (defined(TRACE_CFG_EN) && (TRACE_CFG_EN == DEF_ENABLED))
 344:..\..\..\..\..\..\Software\uCOS-III\Source/os_time.c ****         TRACE_OS_TASK_DLY(ticks);                               /* Record the event.               
 345:..\..\..\..\..\..\Software\uCOS-III\Source/os_time.c **** #endif
 346:..\..\..\..\..\..\Software\uCOS-III\Source/os_time.c ****         OS_RdyListRemove(OSTCBCurPtr);                          /* Remove current task from ready l
 513              		.loc 1 346 0
 514 01fa 184B     		ldr	r3, .L39+52
 515 01fc 1B68     		ldr	r3, [r3]
 516 01fe 1800     		movs	r0, r3
 517 0200 FFF7FEFF 		bl	OS_RdyListRemove
 347:..\..\..\..\..\..\Software\uCOS-III\Source/os_time.c ****         OS_CRITICAL_EXIT_NO_SCHED();
 518              		.loc 1 347 0
 519 0204 FFF7FEFF 		bl	CPU_IntDisMeasStop
 520 0208 FB69     		ldr	r3, [r7, #28]
 521 020a 1800     		movs	r0, r3
 522 020c FFF7FEFF 		bl	CPU_SR_Restore
 348:..\..\..\..\..\..\Software\uCOS-III\Source/os_time.c ****         OSSched();                                              /* Find next task to run!          
 523              		.loc 1 348 0
 524 0210 FFF7FEFF 		bl	OSSched
 349:..\..\..\..\..\..\Software\uCOS-III\Source/os_time.c **** #endif
 350:..\..\..\..\..\..\Software\uCOS-III\Source/os_time.c ****        *p_err = OS_ERR_NONE;
 525              		.loc 1 350 0
 526 0214 7B6B     		ldr	r3, [r7, #52]
 527 0216 0022     		movs	r2, #0
 528 0218 1A80     		strh	r2, [r3]
 529 021a 02E0     		b	.L16
 530              	.L35:
 351:..\..\..\..\..\..\Software\uCOS-III\Source/os_time.c ****     } else {
 352:..\..\..\..\..\..\Software\uCOS-III\Source/os_time.c ****        *p_err = OS_ERR_TIME_ZERO_DLY;
 531              		.loc 1 352 0
 532 021c 7B6B     		ldr	r3, [r7, #52]
 533 021e 064A     		ldr	r2, .L39+16
 534 0220 1A80     		strh	r2, [r3]
 535              	.L16:
 353:..\..\..\..\..\..\Software\uCOS-III\Source/os_time.c ****     }
 354:..\..\..\..\..\..\Software\uCOS-III\Source/os_time.c **** }
 536              		.loc 1 354 0
 537 0222 BD46     		mov	sp, r7
 538 0224 09B0     		add	sp, sp, #36
 539              		@ sp needed
 540 0226 90BD     		pop	{r4, r7, pc}
 541              	.L40:
 542              		.align	2
 543              	.L39:
 544 0228 00000000 		.word	OSIntNestingCtr
 545 022c 75720000 		.word	29301
 546 0230 00000000 		.word	OSSchedLockNestingCtr
 547 0234 636D0000 		.word	28003
 548 0238 7E720000 		.word	29310
 549 023c 255E0000 		.word	24101
 550 0240 E7030000 		.word	999
 551 0244 7B720000 		.word	29307
 552 0248 7A720000 		.word	29306
 553 024c 79720000 		.word	29305
ARM GAS  C:\Users\ADMINI~1\AppData\Local\Temp\ccCY2XuB.s 			page 17


 554 0250 78720000 		.word	29304
 555 0254 0F270000 		.word	9999
 556 0258 00000000 		.word	OSCfg_TickRate_Hz
 557 025c 00000000 		.word	OSTCBCurPtr
 558              		.cfi_endproc
 559              	.LFE1:
 560              		.size	OSTimeDlyHMSM, .-OSTimeDlyHMSM
 561              		.section	.text.OSTimeGet,"ax",%progbits
 562              		.align	2
 563              		.global	OSTimeGet
 564              		.code	16
 565              		.thumb_func
 566              		.type	OSTimeGet, %function
 567              	OSTimeGet:
 568              	.LFB2:
 355:..\..\..\..\..\..\Software\uCOS-III\Source/os_time.c **** #endif
 356:..\..\..\..\..\..\Software\uCOS-III\Source/os_time.c **** 
 357:..\..\..\..\..\..\Software\uCOS-III\Source/os_time.c **** /*
 358:..\..\..\..\..\..\Software\uCOS-III\Source/os_time.c **** ***************************************************************************************************
 359:..\..\..\..\..\..\Software\uCOS-III\Source/os_time.c **** *                                                RESUME A DELAYED TASK
 360:..\..\..\..\..\..\Software\uCOS-III\Source/os_time.c **** *
 361:..\..\..\..\..\..\Software\uCOS-III\Source/os_time.c **** * Description: This function is used resume a task that has been delayed through a call to either O
 362:..\..\..\..\..\..\Software\uCOS-III\Source/os_time.c **** *              OSTimeDlyHMSM().  Note that you cannot call this function to resume a task that is w
 363:..\..\..\..\..\..\Software\uCOS-III\Source/os_time.c **** *              with timeout.
 364:..\..\..\..\..\..\Software\uCOS-III\Source/os_time.c **** *
 365:..\..\..\..\..\..\Software\uCOS-III\Source/os_time.c **** * Arguments  : p_tcb    is a pointer to the TCB of the task to resume.
 366:..\..\..\..\..\..\Software\uCOS-III\Source/os_time.c **** *
 367:..\..\..\..\..\..\Software\uCOS-III\Source/os_time.c **** *              p_err    is a pointer to a variable that will receive an error code
 368:..\..\..\..\..\..\Software\uCOS-III\Source/os_time.c **** *
 369:..\..\..\..\..\..\Software\uCOS-III\Source/os_time.c **** *                           OS_ERR_NONE                  Task has been resumed
 370:..\..\..\..\..\..\Software\uCOS-III\Source/os_time.c **** *                           OS_ERR_OS_NOT_RUNNING        If uC/OS-III is not running yet
 371:..\..\..\..\..\..\Software\uCOS-III\Source/os_time.c **** *                           OS_ERR_STATE_INVALID         Task is in an invalid state
 372:..\..\..\..\..\..\Software\uCOS-III\Source/os_time.c **** *                           OS_ERR_TASK_NOT_DLY          Task is not waiting for time to expire
 373:..\..\..\..\..\..\Software\uCOS-III\Source/os_time.c **** *                           OS_ERR_TASK_SUSPENDED        Task cannot be resumed, it was suspended b
 374:..\..\..\..\..\..\Software\uCOS-III\Source/os_time.c **** *                           OS_ERR_TCB_INVALID           If 'p_tcb' is a NULL pointer
 375:..\..\..\..\..\..\Software\uCOS-III\Source/os_time.c **** *                           OS_ERR_TIME_DLY_RESUME_ISR   If called from an ISR
 376:..\..\..\..\..\..\Software\uCOS-III\Source/os_time.c **** *
 377:..\..\..\..\..\..\Software\uCOS-III\Source/os_time.c **** * Returns    : none
 378:..\..\..\..\..\..\Software\uCOS-III\Source/os_time.c **** *
 379:..\..\..\..\..\..\Software\uCOS-III\Source/os_time.c **** * Note(s)    : none
 380:..\..\..\..\..\..\Software\uCOS-III\Source/os_time.c **** ***************************************************************************************************
 381:..\..\..\..\..\..\Software\uCOS-III\Source/os_time.c **** */
 382:..\..\..\..\..\..\Software\uCOS-III\Source/os_time.c **** 
 383:..\..\..\..\..\..\Software\uCOS-III\Source/os_time.c **** #if (OS_CFG_TIME_DLY_RESUME_EN == DEF_ENABLED)
 384:..\..\..\..\..\..\Software\uCOS-III\Source/os_time.c **** void  OSTimeDlyResume (OS_TCB  *p_tcb,
 385:..\..\..\..\..\..\Software\uCOS-III\Source/os_time.c ****                        OS_ERR  *p_err)
 386:..\..\..\..\..\..\Software\uCOS-III\Source/os_time.c **** {
 387:..\..\..\..\..\..\Software\uCOS-III\Source/os_time.c ****     CPU_SR_ALLOC();
 388:..\..\..\..\..\..\Software\uCOS-III\Source/os_time.c **** 
 389:..\..\..\..\..\..\Software\uCOS-III\Source/os_time.c **** 
 390:..\..\..\..\..\..\Software\uCOS-III\Source/os_time.c **** 
 391:..\..\..\..\..\..\Software\uCOS-III\Source/os_time.c **** #ifdef OS_SAFETY_CRITICAL
 392:..\..\..\..\..\..\Software\uCOS-III\Source/os_time.c ****     if (p_err == DEF_NULL) {
 393:..\..\..\..\..\..\Software\uCOS-III\Source/os_time.c ****         OS_SAFETY_CRITICAL_EXCEPTION();
 394:..\..\..\..\..\..\Software\uCOS-III\Source/os_time.c ****         return;
 395:..\..\..\..\..\..\Software\uCOS-III\Source/os_time.c ****     }
 396:..\..\..\..\..\..\Software\uCOS-III\Source/os_time.c **** #endif
ARM GAS  C:\Users\ADMINI~1\AppData\Local\Temp\ccCY2XuB.s 			page 18


 397:..\..\..\..\..\..\Software\uCOS-III\Source/os_time.c **** 
 398:..\..\..\..\..\..\Software\uCOS-III\Source/os_time.c **** #if (OS_CFG_CALLED_FROM_ISR_CHK_EN == DEF_ENABLED)
 399:..\..\..\..\..\..\Software\uCOS-III\Source/os_time.c ****     if (OSIntNestingCtr > 0u) {                                 /* Not allowed to call from an ISR 
 400:..\..\..\..\..\..\Software\uCOS-III\Source/os_time.c ****        *p_err = OS_ERR_TIME_DLY_RESUME_ISR;
 401:..\..\..\..\..\..\Software\uCOS-III\Source/os_time.c ****         return;
 402:..\..\..\..\..\..\Software\uCOS-III\Source/os_time.c ****     }
 403:..\..\..\..\..\..\Software\uCOS-III\Source/os_time.c **** #endif
 404:..\..\..\..\..\..\Software\uCOS-III\Source/os_time.c **** 
 405:..\..\..\..\..\..\Software\uCOS-III\Source/os_time.c **** #if (OS_CFG_ARG_CHK_EN == DEF_ENABLED)                          /* ---------------- VALIDATE ARGUME
 406:..\..\..\..\..\..\Software\uCOS-III\Source/os_time.c ****     if (p_tcb == DEF_NULL) {                                    /* User must supply a valid OS_TCB 
 407:..\..\..\..\..\..\Software\uCOS-III\Source/os_time.c ****        *p_err = OS_ERR_TCB_INVALID;
 408:..\..\..\..\..\..\Software\uCOS-III\Source/os_time.c ****         return;
 409:..\..\..\..\..\..\Software\uCOS-III\Source/os_time.c ****     }
 410:..\..\..\..\..\..\Software\uCOS-III\Source/os_time.c **** #endif
 411:..\..\..\..\..\..\Software\uCOS-III\Source/os_time.c **** 
 412:..\..\..\..\..\..\Software\uCOS-III\Source/os_time.c **** #if (OS_CFG_INVALID_OS_CALLS_CHK_EN == DEF_ENABLED)             /* Is the kernel running?          
 413:..\..\..\..\..\..\Software\uCOS-III\Source/os_time.c ****     if (OSRunning != OS_STATE_OS_RUNNING) {
 414:..\..\..\..\..\..\Software\uCOS-III\Source/os_time.c ****        *p_err = OS_ERR_OS_NOT_RUNNING;
 415:..\..\..\..\..\..\Software\uCOS-III\Source/os_time.c ****         return;
 416:..\..\..\..\..\..\Software\uCOS-III\Source/os_time.c ****     }
 417:..\..\..\..\..\..\Software\uCOS-III\Source/os_time.c **** #endif
 418:..\..\..\..\..\..\Software\uCOS-III\Source/os_time.c **** 
 419:..\..\..\..\..\..\Software\uCOS-III\Source/os_time.c ****     CPU_CRITICAL_ENTER();
 420:..\..\..\..\..\..\Software\uCOS-III\Source/os_time.c ****     switch (p_tcb->TaskState) {
 421:..\..\..\..\..\..\Software\uCOS-III\Source/os_time.c ****         case OS_TASK_STATE_RDY:                                 /* Cannot Abort delay if task is re
 422:..\..\..\..\..\..\Software\uCOS-III\Source/os_time.c ****         case OS_TASK_STATE_PEND:
 423:..\..\..\..\..\..\Software\uCOS-III\Source/os_time.c ****         case OS_TASK_STATE_PEND_TIMEOUT:
 424:..\..\..\..\..\..\Software\uCOS-III\Source/os_time.c ****         case OS_TASK_STATE_SUSPENDED:
 425:..\..\..\..\..\..\Software\uCOS-III\Source/os_time.c ****         case OS_TASK_STATE_PEND_SUSPENDED:
 426:..\..\..\..\..\..\Software\uCOS-III\Source/os_time.c ****         case OS_TASK_STATE_PEND_TIMEOUT_SUSPENDED:
 427:..\..\..\..\..\..\Software\uCOS-III\Source/os_time.c ****              CPU_CRITICAL_EXIT();
 428:..\..\..\..\..\..\Software\uCOS-III\Source/os_time.c ****             *p_err = OS_ERR_TASK_NOT_DLY;
 429:..\..\..\..\..\..\Software\uCOS-III\Source/os_time.c ****              break;
 430:..\..\..\..\..\..\Software\uCOS-III\Source/os_time.c **** 
 431:..\..\..\..\..\..\Software\uCOS-III\Source/os_time.c ****         case OS_TASK_STATE_DLY:
 432:..\..\..\..\..\..\Software\uCOS-III\Source/os_time.c ****              OS_CRITICAL_ENTER_CPU_EXIT();
 433:..\..\..\..\..\..\Software\uCOS-III\Source/os_time.c ****              p_tcb->TaskState = OS_TASK_STATE_RDY;
 434:..\..\..\..\..\..\Software\uCOS-III\Source/os_time.c **** #if (OS_CFG_TASK_TICK_EN == DEF_ENABLED)
 435:..\..\..\..\..\..\Software\uCOS-III\Source/os_time.c ****              OS_TickListRemove(p_tcb);                          /* Remove task from tick list      
 436:..\..\..\..\..\..\Software\uCOS-III\Source/os_time.c ****              OS_RdyListInsert(p_tcb);                           /* Add to ready list               
 437:..\..\..\..\..\..\Software\uCOS-III\Source/os_time.c **** #endif
 438:..\..\..\..\..\..\Software\uCOS-III\Source/os_time.c ****              OS_CRITICAL_EXIT_NO_SCHED();
 439:..\..\..\..\..\..\Software\uCOS-III\Source/os_time.c ****             *p_err = OS_ERR_NONE;
 440:..\..\..\..\..\..\Software\uCOS-III\Source/os_time.c ****              break;
 441:..\..\..\..\..\..\Software\uCOS-III\Source/os_time.c **** 
 442:..\..\..\..\..\..\Software\uCOS-III\Source/os_time.c ****         case OS_TASK_STATE_DLY_SUSPENDED:
 443:..\..\..\..\..\..\Software\uCOS-III\Source/os_time.c ****              OS_CRITICAL_ENTER_CPU_EXIT();
 444:..\..\..\..\..\..\Software\uCOS-III\Source/os_time.c ****              p_tcb->TaskState = OS_TASK_STATE_SUSPENDED;
 445:..\..\..\..\..\..\Software\uCOS-III\Source/os_time.c **** #if (OS_CFG_TASK_TICK_EN == DEF_ENABLED)
 446:..\..\..\..\..\..\Software\uCOS-III\Source/os_time.c ****              OS_TickListRemove(p_tcb);                          /* Remove task from tick list      
 447:..\..\..\..\..\..\Software\uCOS-III\Source/os_time.c **** #endif
 448:..\..\..\..\..\..\Software\uCOS-III\Source/os_time.c ****              OS_CRITICAL_EXIT_NO_SCHED();
 449:..\..\..\..\..\..\Software\uCOS-III\Source/os_time.c ****             *p_err            = OS_ERR_TASK_SUSPENDED;
 450:..\..\..\..\..\..\Software\uCOS-III\Source/os_time.c ****              break;
 451:..\..\..\..\..\..\Software\uCOS-III\Source/os_time.c **** 
 452:..\..\..\..\..\..\Software\uCOS-III\Source/os_time.c ****         default:
 453:..\..\..\..\..\..\Software\uCOS-III\Source/os_time.c ****              CPU_CRITICAL_EXIT();
ARM GAS  C:\Users\ADMINI~1\AppData\Local\Temp\ccCY2XuB.s 			page 19


 454:..\..\..\..\..\..\Software\uCOS-III\Source/os_time.c ****             *p_err = OS_ERR_STATE_INVALID;
 455:..\..\..\..\..\..\Software\uCOS-III\Source/os_time.c ****              break;
 456:..\..\..\..\..\..\Software\uCOS-III\Source/os_time.c ****     }
 457:..\..\..\..\..\..\Software\uCOS-III\Source/os_time.c **** 
 458:..\..\..\..\..\..\Software\uCOS-III\Source/os_time.c ****     OSSched();
 459:..\..\..\..\..\..\Software\uCOS-III\Source/os_time.c **** }
 460:..\..\..\..\..\..\Software\uCOS-III\Source/os_time.c **** #endif
 461:..\..\..\..\..\..\Software\uCOS-III\Source/os_time.c **** 
 462:..\..\..\..\..\..\Software\uCOS-III\Source/os_time.c **** /*
 463:..\..\..\..\..\..\Software\uCOS-III\Source/os_time.c **** ***************************************************************************************************
 464:..\..\..\..\..\..\Software\uCOS-III\Source/os_time.c **** *                                               GET CURRENT SYSTEM TIME
 465:..\..\..\..\..\..\Software\uCOS-III\Source/os_time.c **** *
 466:..\..\..\..\..\..\Software\uCOS-III\Source/os_time.c **** * Description: This function is used by your application to obtain the current value of the counter
 467:..\..\..\..\..\..\Software\uCOS-III\Source/os_time.c **** *              the number of clock ticks.
 468:..\..\..\..\..\..\Software\uCOS-III\Source/os_time.c **** *
 469:..\..\..\..\..\..\Software\uCOS-III\Source/os_time.c **** * Arguments  : p_err    is a pointer to a variable that will receive an error code
 470:..\..\..\..\..\..\Software\uCOS-III\Source/os_time.c **** *
 471:..\..\..\..\..\..\Software\uCOS-III\Source/os_time.c **** *                           OS_ERR_NONE           If the call was successful
 472:..\..\..\..\..\..\Software\uCOS-III\Source/os_time.c **** *
 473:..\..\..\..\..\..\Software\uCOS-III\Source/os_time.c **** * Returns    : The current value of OSTickCtr
 474:..\..\..\..\..\..\Software\uCOS-III\Source/os_time.c **** *
 475:..\..\..\..\..\..\Software\uCOS-III\Source/os_time.c **** * Note(s)    : none
 476:..\..\..\..\..\..\Software\uCOS-III\Source/os_time.c **** ***************************************************************************************************
 477:..\..\..\..\..\..\Software\uCOS-III\Source/os_time.c **** */
 478:..\..\..\..\..\..\Software\uCOS-III\Source/os_time.c **** 
 479:..\..\..\..\..\..\Software\uCOS-III\Source/os_time.c **** OS_TICK  OSTimeGet (OS_ERR  *p_err)
 480:..\..\..\..\..\..\Software\uCOS-III\Source/os_time.c **** {
 569              		.loc 1 480 0
 570              		.cfi_startproc
 571              		@ args = 0, pretend = 0, frame = 16
 572              		@ frame_needed = 1, uses_anonymous_args = 0
 573 0000 80B5     		push	{r7, lr}
 574              		.cfi_def_cfa_offset 8
 575              		.cfi_offset 7, -8
 576              		.cfi_offset 14, -4
 577 0002 84B0     		sub	sp, sp, #16
 578              		.cfi_def_cfa_offset 24
 579 0004 00AF     		add	r7, sp, #0
 580              		.cfi_def_cfa_register 7
 581 0006 7860     		str	r0, [r7, #4]
 481:..\..\..\..\..\..\Software\uCOS-III\Source/os_time.c ****     OS_TICK  ticks;
 482:..\..\..\..\..\..\Software\uCOS-III\Source/os_time.c **** #if (OS_CFG_TASK_TICK_EN == DEF_ENABLED)
 483:..\..\..\..\..\..\Software\uCOS-III\Source/os_time.c ****     CPU_SR_ALLOC();
 582              		.loc 1 483 0
 583 0008 0023     		movs	r3, #0
 584 000a FB60     		str	r3, [r7, #12]
 484:..\..\..\..\..\..\Software\uCOS-III\Source/os_time.c **** #endif
 485:..\..\..\..\..\..\Software\uCOS-III\Source/os_time.c **** 
 486:..\..\..\..\..\..\Software\uCOS-III\Source/os_time.c **** 
 487:..\..\..\..\..\..\Software\uCOS-III\Source/os_time.c **** #ifdef OS_SAFETY_CRITICAL
 488:..\..\..\..\..\..\Software\uCOS-III\Source/os_time.c ****     if (p_err == DEF_NULL) {
 489:..\..\..\..\..\..\Software\uCOS-III\Source/os_time.c ****         OS_SAFETY_CRITICAL_EXCEPTION();
 490:..\..\..\..\..\..\Software\uCOS-III\Source/os_time.c ****         return (0u);
 491:..\..\..\..\..\..\Software\uCOS-III\Source/os_time.c ****     }
 492:..\..\..\..\..\..\Software\uCOS-III\Source/os_time.c **** #endif
 493:..\..\..\..\..\..\Software\uCOS-III\Source/os_time.c **** 
 494:..\..\..\..\..\..\Software\uCOS-III\Source/os_time.c **** 
ARM GAS  C:\Users\ADMINI~1\AppData\Local\Temp\ccCY2XuB.s 			page 20


 495:..\..\..\..\..\..\Software\uCOS-III\Source/os_time.c **** #if (OS_CFG_TASK_TICK_EN == DEF_ENABLED)
 496:..\..\..\..\..\..\Software\uCOS-III\Source/os_time.c ****     CPU_CRITICAL_ENTER();
 585              		.loc 1 496 0
 586 000c FFF7FEFF 		bl	CPU_SR_Save
 587 0010 0300     		movs	r3, r0
 588 0012 FB60     		str	r3, [r7, #12]
 589 0014 FFF7FEFF 		bl	CPU_IntDisMeasStart
 497:..\..\..\..\..\..\Software\uCOS-III\Source/os_time.c **** #if (OS_CFG_DYN_TICK_EN == DEF_ENABLED)
 498:..\..\..\..\..\..\Software\uCOS-III\Source/os_time.c ****     if (OSRunning == OS_STATE_OS_RUNNING) {
 499:..\..\..\..\..\..\Software\uCOS-III\Source/os_time.c ****         ticks = BSP_OS_TickGet();
 500:..\..\..\..\..\..\Software\uCOS-III\Source/os_time.c ****     } else {
 501:..\..\..\..\..\..\Software\uCOS-III\Source/os_time.c ****         ticks = OSTickCtr;
 502:..\..\..\..\..\..\Software\uCOS-III\Source/os_time.c ****     }
 503:..\..\..\..\..\..\Software\uCOS-III\Source/os_time.c **** #else
 504:..\..\..\..\..\..\Software\uCOS-III\Source/os_time.c ****     ticks = OSTickCtr;
 590              		.loc 1 504 0
 591 0018 084B     		ldr	r3, .L43
 592 001a 1B68     		ldr	r3, [r3]
 593 001c BB60     		str	r3, [r7, #8]
 505:..\..\..\..\..\..\Software\uCOS-III\Source/os_time.c **** #endif
 506:..\..\..\..\..\..\Software\uCOS-III\Source/os_time.c ****     CPU_CRITICAL_EXIT();
 594              		.loc 1 506 0
 595 001e FFF7FEFF 		bl	CPU_IntDisMeasStop
 596 0022 FB68     		ldr	r3, [r7, #12]
 597 0024 1800     		movs	r0, r3
 598 0026 FFF7FEFF 		bl	CPU_SR_Restore
 507:..\..\..\..\..\..\Software\uCOS-III\Source/os_time.c **** #else
 508:..\..\..\..\..\..\Software\uCOS-III\Source/os_time.c ****     ticks = 0u;
 509:..\..\..\..\..\..\Software\uCOS-III\Source/os_time.c **** #endif
 510:..\..\..\..\..\..\Software\uCOS-III\Source/os_time.c **** 
 511:..\..\..\..\..\..\Software\uCOS-III\Source/os_time.c **** 
 512:..\..\..\..\..\..\Software\uCOS-III\Source/os_time.c ****    *p_err = OS_ERR_NONE;
 599              		.loc 1 512 0
 600 002a 7B68     		ldr	r3, [r7, #4]
 601 002c 0022     		movs	r2, #0
 602 002e 1A80     		strh	r2, [r3]
 513:..\..\..\..\..\..\Software\uCOS-III\Source/os_time.c ****     return (ticks);
 603              		.loc 1 513 0
 604 0030 BB68     		ldr	r3, [r7, #8]
 514:..\..\..\..\..\..\Software\uCOS-III\Source/os_time.c **** }
 605              		.loc 1 514 0
 606 0032 1800     		movs	r0, r3
 607 0034 BD46     		mov	sp, r7
 608 0036 04B0     		add	sp, sp, #16
 609              		@ sp needed
 610 0038 80BD     		pop	{r7, pc}
 611              	.L44:
 612 003a C046     		.align	2
 613              	.L43:
 614 003c 00000000 		.word	OSTickCtr
 615              		.cfi_endproc
 616              	.LFE2:
 617              		.size	OSTimeGet, .-OSTimeGet
 618              		.section	.text.OSTimeSet,"ax",%progbits
 619              		.align	2
 620              		.global	OSTimeSet
 621              		.code	16
ARM GAS  C:\Users\ADMINI~1\AppData\Local\Temp\ccCY2XuB.s 			page 21


 622              		.thumb_func
 623              		.type	OSTimeSet, %function
 624              	OSTimeSet:
 625              	.LFB3:
 515:..\..\..\..\..\..\Software\uCOS-III\Source/os_time.c **** 
 516:..\..\..\..\..\..\Software\uCOS-III\Source/os_time.c **** /*
 517:..\..\..\..\..\..\Software\uCOS-III\Source/os_time.c **** ***************************************************************************************************
 518:..\..\..\..\..\..\Software\uCOS-III\Source/os_time.c **** *                                                   SET SYSTEM CLOCK
 519:..\..\..\..\..\..\Software\uCOS-III\Source/os_time.c **** *
 520:..\..\..\..\..\..\Software\uCOS-III\Source/os_time.c **** * Description: This function sets the counter which keeps track of the number of clock ticks.
 521:..\..\..\..\..\..\Software\uCOS-III\Source/os_time.c **** *
 522:..\..\..\..\..\..\Software\uCOS-III\Source/os_time.c **** * Arguments  : ticks    is the desired tick value
 523:..\..\..\..\..\..\Software\uCOS-III\Source/os_time.c **** *
 524:..\..\..\..\..\..\Software\uCOS-III\Source/os_time.c **** *              p_err    is a pointer to a variable that will receive an error code
 525:..\..\..\..\..\..\Software\uCOS-III\Source/os_time.c **** *
 526:..\..\..\..\..\..\Software\uCOS-III\Source/os_time.c **** *                           OS_ERR_NONE           If the call was successful
 527:..\..\..\..\..\..\Software\uCOS-III\Source/os_time.c **** *
 528:..\..\..\..\..\..\Software\uCOS-III\Source/os_time.c **** * Returns    : none
 529:..\..\..\..\..\..\Software\uCOS-III\Source/os_time.c **** *
 530:..\..\..\..\..\..\Software\uCOS-III\Source/os_time.c **** * Note(s)    : none
 531:..\..\..\..\..\..\Software\uCOS-III\Source/os_time.c **** ***************************************************************************************************
 532:..\..\..\..\..\..\Software\uCOS-III\Source/os_time.c **** */
 533:..\..\..\..\..\..\Software\uCOS-III\Source/os_time.c **** 
 534:..\..\..\..\..\..\Software\uCOS-III\Source/os_time.c **** void  OSTimeSet (OS_TICK   ticks,
 535:..\..\..\..\..\..\Software\uCOS-III\Source/os_time.c ****                  OS_ERR   *p_err)
 536:..\..\..\..\..\..\Software\uCOS-III\Source/os_time.c **** {
 626              		.loc 1 536 0
 627              		.cfi_startproc
 628              		@ args = 0, pretend = 0, frame = 16
 629              		@ frame_needed = 1, uses_anonymous_args = 0
 630 0000 80B5     		push	{r7, lr}
 631              		.cfi_def_cfa_offset 8
 632              		.cfi_offset 7, -8
 633              		.cfi_offset 14, -4
 634 0002 84B0     		sub	sp, sp, #16
 635              		.cfi_def_cfa_offset 24
 636 0004 00AF     		add	r7, sp, #0
 637              		.cfi_def_cfa_register 7
 638 0006 7860     		str	r0, [r7, #4]
 639 0008 3960     		str	r1, [r7]
 537:..\..\..\..\..\..\Software\uCOS-III\Source/os_time.c **** #if (OS_CFG_TASK_TICK_EN == DEF_ENABLED)
 538:..\..\..\..\..\..\Software\uCOS-III\Source/os_time.c ****     CPU_SR_ALLOC();
 640              		.loc 1 538 0
 641 000a 0023     		movs	r3, #0
 642 000c FB60     		str	r3, [r7, #12]
 539:..\..\..\..\..\..\Software\uCOS-III\Source/os_time.c **** #endif
 540:..\..\..\..\..\..\Software\uCOS-III\Source/os_time.c **** 
 541:..\..\..\..\..\..\Software\uCOS-III\Source/os_time.c **** 
 542:..\..\..\..\..\..\Software\uCOS-III\Source/os_time.c **** #ifdef OS_SAFETY_CRITICAL
 543:..\..\..\..\..\..\Software\uCOS-III\Source/os_time.c ****     if (p_err == DEF_NULL) {
 544:..\..\..\..\..\..\Software\uCOS-III\Source/os_time.c ****         OS_SAFETY_CRITICAL_EXCEPTION();
 545:..\..\..\..\..\..\Software\uCOS-III\Source/os_time.c ****         return;
 546:..\..\..\..\..\..\Software\uCOS-III\Source/os_time.c ****     }
 547:..\..\..\..\..\..\Software\uCOS-III\Source/os_time.c **** #endif
 548:..\..\..\..\..\..\Software\uCOS-III\Source/os_time.c **** 
 549:..\..\..\..\..\..\Software\uCOS-III\Source/os_time.c **** #if (OS_CFG_TASK_TICK_EN == DEF_ENABLED)
 550:..\..\..\..\..\..\Software\uCOS-III\Source/os_time.c ****     CPU_CRITICAL_ENTER();
ARM GAS  C:\Users\ADMINI~1\AppData\Local\Temp\ccCY2XuB.s 			page 22


 643              		.loc 1 550 0
 644 000e FFF7FEFF 		bl	CPU_SR_Save
 645 0012 0300     		movs	r3, r0
 646 0014 FB60     		str	r3, [r7, #12]
 647 0016 FFF7FEFF 		bl	CPU_IntDisMeasStart
 551:..\..\..\..\..\..\Software\uCOS-III\Source/os_time.c ****     OSTickCtr = ticks;
 648              		.loc 1 551 0
 649 001a 084B     		ldr	r3, .L46
 650 001c 7A68     		ldr	r2, [r7, #4]
 651 001e 1A60     		str	r2, [r3]
 552:..\..\..\..\..\..\Software\uCOS-III\Source/os_time.c ****     CPU_CRITICAL_EXIT();
 652              		.loc 1 552 0
 653 0020 FFF7FEFF 		bl	CPU_IntDisMeasStop
 654 0024 FB68     		ldr	r3, [r7, #12]
 655 0026 1800     		movs	r0, r3
 656 0028 FFF7FEFF 		bl	CPU_SR_Restore
 553:..\..\..\..\..\..\Software\uCOS-III\Source/os_time.c **** #endif
 554:..\..\..\..\..\..\Software\uCOS-III\Source/os_time.c **** 
 555:..\..\..\..\..\..\Software\uCOS-III\Source/os_time.c ****    *p_err     = OS_ERR_NONE;
 657              		.loc 1 555 0
 658 002c 3B68     		ldr	r3, [r7]
 659 002e 0022     		movs	r2, #0
 660 0030 1A80     		strh	r2, [r3]
 556:..\..\..\..\..\..\Software\uCOS-III\Source/os_time.c **** }
 661              		.loc 1 556 0
 662 0032 C046     		nop
 663 0034 BD46     		mov	sp, r7
 664 0036 04B0     		add	sp, sp, #16
 665              		@ sp needed
 666 0038 80BD     		pop	{r7, pc}
 667              	.L47:
 668 003a C046     		.align	2
 669              	.L46:
 670 003c 00000000 		.word	OSTickCtr
 671              		.cfi_endproc
 672              	.LFE3:
 673              		.size	OSTimeSet, .-OSTimeSet
 674              		.section	.text.OSTimeTick,"ax",%progbits
 675              		.align	2
 676              		.global	OSTimeTick
 677              		.code	16
 678              		.thumb_func
 679              		.type	OSTimeTick, %function
 680              	OSTimeTick:
 681              	.LFB4:
 557:..\..\..\..\..\..\Software\uCOS-III\Source/os_time.c **** 
 558:..\..\..\..\..\..\Software\uCOS-III\Source/os_time.c **** 
 559:..\..\..\..\..\..\Software\uCOS-III\Source/os_time.c **** /*
 560:..\..\..\..\..\..\Software\uCOS-III\Source/os_time.c **** ***************************************************************************************************
 561:..\..\..\..\..\..\Software\uCOS-III\Source/os_time.c **** *                                                 PROCESS SYSTEM TICK
 562:..\..\..\..\..\..\Software\uCOS-III\Source/os_time.c **** *
 563:..\..\..\..\..\..\Software\uCOS-III\Source/os_time.c **** * Description: This function is used to signal to uC/OS-III the occurrence of a 'system tick' (also
 564:..\..\..\..\..\..\Software\uCOS-III\Source/os_time.c **** *              'clock tick').  This function should be called by the tick ISR.
 565:..\..\..\..\..\..\Software\uCOS-III\Source/os_time.c **** *
 566:..\..\..\..\..\..\Software\uCOS-III\Source/os_time.c **** * Arguments  : none
 567:..\..\..\..\..\..\Software\uCOS-III\Source/os_time.c **** *
 568:..\..\..\..\..\..\Software\uCOS-III\Source/os_time.c **** * Returns    : none
ARM GAS  C:\Users\ADMINI~1\AppData\Local\Temp\ccCY2XuB.s 			page 23


 569:..\..\..\..\..\..\Software\uCOS-III\Source/os_time.c **** *
 570:..\..\..\..\..\..\Software\uCOS-III\Source/os_time.c **** * Note(s)    : none
 571:..\..\..\..\..\..\Software\uCOS-III\Source/os_time.c **** ***************************************************************************************************
 572:..\..\..\..\..\..\Software\uCOS-III\Source/os_time.c **** */
 573:..\..\..\..\..\..\Software\uCOS-III\Source/os_time.c **** 
 574:..\..\..\..\..\..\Software\uCOS-III\Source/os_time.c **** void  OSTimeTick (void)
 575:..\..\..\..\..\..\Software\uCOS-III\Source/os_time.c **** {
 682              		.loc 1 575 0
 683              		.cfi_startproc
 684              		@ args = 0, pretend = 0, frame = 8
 685              		@ frame_needed = 1, uses_anonymous_args = 0
 686 0000 80B5     		push	{r7, lr}
 687              		.cfi_def_cfa_offset 8
 688              		.cfi_offset 7, -8
 689              		.cfi_offset 14, -4
 690 0002 82B0     		sub	sp, sp, #8
 691              		.cfi_def_cfa_offset 16
 692 0004 00AF     		add	r7, sp, #0
 693              		.cfi_def_cfa_register 7
 576:..\..\..\..\..\..\Software\uCOS-III\Source/os_time.c **** #if ((OS_CFG_TASK_TICK_EN == DEF_ENABLED) || (OS_CFG_TMR_EN == DEF_ENABLED))
 577:..\..\..\..\..\..\Software\uCOS-III\Source/os_time.c ****     OS_ERR  err;
 578:..\..\..\..\..\..\Software\uCOS-III\Source/os_time.c **** #endif
 579:..\..\..\..\..\..\Software\uCOS-III\Source/os_time.c **** #if ((OS_CFG_ISR_POST_DEFERRED_EN == DEF_ENABLED) && (OS_CFG_TASK_TICK_EN == DEF_ENABLED))
 580:..\..\..\..\..\..\Software\uCOS-III\Source/os_time.c ****     CPU_TS  ts;
 581:..\..\..\..\..\..\Software\uCOS-III\Source/os_time.c **** #endif
 582:..\..\..\..\..\..\Software\uCOS-III\Source/os_time.c **** 
 583:..\..\..\..\..\..\Software\uCOS-III\Source/os_time.c ****     if (OSRunning != OS_STATE_OS_RUNNING) {
 694              		.loc 1 583 0
 695 0006 124B     		ldr	r3, .L53
 696 0008 1B78     		ldrb	r3, [r3]
 697 000a 012B     		cmp	r3, #1
 698 000c 1BD1     		bne	.L52
 584:..\..\..\..\..\..\Software\uCOS-III\Source/os_time.c ****         return;
 585:..\..\..\..\..\..\Software\uCOS-III\Source/os_time.c ****     }
 586:..\..\..\..\..\..\Software\uCOS-III\Source/os_time.c **** 
 587:..\..\..\..\..\..\Software\uCOS-III\Source/os_time.c ****     OSTimeTickHook();                                           /* Call user definable hook        
 699              		.loc 1 587 0
 700 000e FFF7FEFF 		bl	OSTimeTickHook
 588:..\..\..\..\..\..\Software\uCOS-III\Source/os_time.c **** 
 589:..\..\..\..\..\..\Software\uCOS-III\Source/os_time.c **** #if (OS_CFG_TASK_TICK_EN == DEF_ENABLED)
 590:..\..\..\..\..\..\Software\uCOS-III\Source/os_time.c **** #if (OS_CFG_ISR_POST_DEFERRED_EN == DEF_ENABLED)
 591:..\..\..\..\..\..\Software\uCOS-III\Source/os_time.c **** 
 592:..\..\..\..\..\..\Software\uCOS-III\Source/os_time.c ****     ts = OS_TS_GET();                                           /* Get timestamp                   
 593:..\..\..\..\..\..\Software\uCOS-III\Source/os_time.c ****     OS_IntQPost(OS_OBJ_TYPE_TICK,                               /* Post to ISR queue               
 594:..\..\..\..\..\..\Software\uCOS-III\Source/os_time.c ****                 (void      *)&OSRdyList[OSPrioCur],
 595:..\..\..\..\..\..\Software\uCOS-III\Source/os_time.c ****                 DEF_NULL,
 596:..\..\..\..\..\..\Software\uCOS-III\Source/os_time.c ****                 0u,
 597:..\..\..\..\..\..\Software\uCOS-III\Source/os_time.c ****                 0u,
 598:..\..\..\..\..\..\Software\uCOS-III\Source/os_time.c ****                 0u,
 599:..\..\..\..\..\..\Software\uCOS-III\Source/os_time.c ****                 ts,
 600:..\..\..\..\..\..\Software\uCOS-III\Source/os_time.c ****                 &err);
 601:..\..\..\..\..\..\Software\uCOS-III\Source/os_time.c **** 
 602:..\..\..\..\..\..\Software\uCOS-III\Source/os_time.c **** #else
 603:..\..\..\..\..\..\Software\uCOS-III\Source/os_time.c **** 
 604:..\..\..\..\..\..\Software\uCOS-III\Source/os_time.c ****    (void)OSTaskSemPost(&OSTickTaskTCB,                          /* Signal tick task                
 701              		.loc 1 604 0
 702 0012 BA1D     		adds	r2, r7, #6
ARM GAS  C:\Users\ADMINI~1\AppData\Local\Temp\ccCY2XuB.s 			page 24


 703 0014 0F4B     		ldr	r3, .L53+4
 704 0016 0021     		movs	r1, #0
 705 0018 1800     		movs	r0, r3
 706 001a FFF7FEFF 		bl	OSTaskSemPost
 605:..\..\..\..\..\..\Software\uCOS-III\Source/os_time.c ****                         OS_OPT_POST_NONE,
 606:..\..\..\..\..\..\Software\uCOS-III\Source/os_time.c ****                        &err);
 607:..\..\..\..\..\..\Software\uCOS-III\Source/os_time.c **** 
 608:..\..\..\..\..\..\Software\uCOS-III\Source/os_time.c ****    (void)err;
 609:..\..\..\..\..\..\Software\uCOS-III\Source/os_time.c **** 
 610:..\..\..\..\..\..\Software\uCOS-III\Source/os_time.c **** #if (OS_CFG_SCHED_ROUND_ROBIN_EN == DEF_ENABLED)
 611:..\..\..\..\..\..\Software\uCOS-III\Source/os_time.c ****     OS_SchedRoundRobin(&OSRdyList[OSPrioCur]);
 612:..\..\..\..\..\..\Software\uCOS-III\Source/os_time.c **** #endif
 613:..\..\..\..\..\..\Software\uCOS-III\Source/os_time.c **** 
 614:..\..\..\..\..\..\Software\uCOS-III\Source/os_time.c **** #if (OS_CFG_TMR_EN == DEF_ENABLED)
 615:..\..\..\..\..\..\Software\uCOS-III\Source/os_time.c ****     OSTmrUpdateCtr--;
 707              		.loc 1 615 0
 708 001e 0E4B     		ldr	r3, .L53+8
 709 0020 1B68     		ldr	r3, [r3]
 710 0022 5A1E     		subs	r2, r3, #1
 711 0024 0C4B     		ldr	r3, .L53+8
 712 0026 1A60     		str	r2, [r3]
 616:..\..\..\..\..\..\Software\uCOS-III\Source/os_time.c ****     if (OSTmrUpdateCtr == 0u) {
 713              		.loc 1 616 0
 714 0028 0B4B     		ldr	r3, .L53+8
 715 002a 1B68     		ldr	r3, [r3]
 716 002c 002B     		cmp	r3, #0
 717 002e 0BD1     		bne	.L48
 617:..\..\..\..\..\..\Software\uCOS-III\Source/os_time.c ****         OSTmrUpdateCtr = OSTmrUpdateCnt;
 718              		.loc 1 617 0
 719 0030 0A4B     		ldr	r3, .L53+12
 720 0032 1A68     		ldr	r2, [r3]
 721 0034 084B     		ldr	r3, .L53+8
 722 0036 1A60     		str	r2, [r3]
 618:..\..\..\..\..\..\Software\uCOS-III\Source/os_time.c ****         (void)OSTaskSemPost(&OSTmrTaskTCB,                      /* Signal timer task               
 723              		.loc 1 618 0
 724 0038 BA1D     		adds	r2, r7, #6
 725 003a 094B     		ldr	r3, .L53+16
 726 003c 0021     		movs	r1, #0
 727 003e 1800     		movs	r0, r3
 728 0040 FFF7FEFF 		bl	OSTaskSemPost
 729 0044 00E0     		b	.L48
 730              	.L52:
 584:..\..\..\..\..\..\Software\uCOS-III\Source/os_time.c ****     }
 731              		.loc 1 584 0
 732 0046 C046     		nop
 733              	.L48:
 619:..\..\..\..\..\..\Software\uCOS-III\Source/os_time.c ****                              OS_OPT_POST_NONE,
 620:..\..\..\..\..\..\Software\uCOS-III\Source/os_time.c ****                             &err);
 621:..\..\..\..\..\..\Software\uCOS-III\Source/os_time.c ****         (void)err;
 622:..\..\..\..\..\..\Software\uCOS-III\Source/os_time.c ****     }
 623:..\..\..\..\..\..\Software\uCOS-III\Source/os_time.c **** #endif
 624:..\..\..\..\..\..\Software\uCOS-III\Source/os_time.c **** #endif
 625:..\..\..\..\..\..\Software\uCOS-III\Source/os_time.c **** #endif
 626:..\..\..\..\..\..\Software\uCOS-III\Source/os_time.c **** }
 734              		.loc 1 626 0
 735 0048 BD46     		mov	sp, r7
 736 004a 02B0     		add	sp, sp, #8
ARM GAS  C:\Users\ADMINI~1\AppData\Local\Temp\ccCY2XuB.s 			page 25


 737              		@ sp needed
 738 004c 80BD     		pop	{r7, pc}
 739              	.L54:
 740 004e C046     		.align	2
 741              	.L53:
 742 0050 00000000 		.word	OSRunning
 743 0054 00000000 		.word	OSTickTaskTCB
 744 0058 00000000 		.word	OSTmrUpdateCtr
 745 005c 00000000 		.word	OSTmrUpdateCnt
 746 0060 00000000 		.word	OSTmrTaskTCB
 747              		.cfi_endproc
 748              	.LFE4:
 749              		.size	OSTimeTick, .-OSTimeTick
 750              		.text
 751              	.Letext0:
 752              		.file 2 "..\\..\\..\\..\\..\\..\\Software\\uC-CPU\\ARM-Cortex-M0\\GNU/cpu.h"
 753              		.file 3 "..\\..\\..\\..\\..\\..\\Software\\uC-CPU/cpu_core.h"
 754              		.file 4 "..\\..\\..\\..\\..\\..\\Software\\uCOS-III\\Source\\os_type.h"
 755              		.file 5 "..\\..\\..\\..\\..\\..\\Software\\uCOS-III\\Source\\os.h"