ARM GAS  C:\Users\ADMINI~1\AppData\Local\Temp\cc8eYrCa.s 			page 1


   1              		.syntax unified
   2              		.cpu cortex-m0
   3              		.fpu softvfp
   4              		.eabi_attribute 20, 1
   5              		.eabi_attribute 21, 1
   6              		.eabi_attribute 23, 3
   7              		.eabi_attribute 24, 1
   8              		.eabi_attribute 25, 1
   9              		.eabi_attribute 26, 1
  10              		.eabi_attribute 30, 6
  11              		.eabi_attribute 34, 0
  12              		.eabi_attribute 18, 4
  13              		.thumb
  14              		.syntax unified
  15              		.file	"os_tick.c"
  16              		.text
  17              	.Ltext0:
  18              		.cfi_sections	.debug_frame
  19              		.section	.text.OS_TickTask,"ax",%progbits
  20              		.align	2
  21              		.global	OS_TickTask
  22              		.code	16
  23              		.thumb_func
  24              		.type	OS_TickTask, %function
  25              	OS_TickTask:
  26              	.LFB0:
  27              		.file 1 "..\\..\\..\\..\\..\\..\\Software\\uCOS-III\\Source\\os_tick.c"
   1:..\..\..\..\..\..\Software\uCOS-III\Source/os_tick.c **** /*
   2:..\..\..\..\..\..\Software\uCOS-III\Source/os_tick.c **** ***************************************************************************************************
   3:..\..\..\..\..\..\Software\uCOS-III\Source/os_tick.c **** *                                                      uC/OS-III
   4:..\..\..\..\..\..\Software\uCOS-III\Source/os_tick.c **** *                                                 The Real-Time Kernel
   5:..\..\..\..\..\..\Software\uCOS-III\Source/os_tick.c **** *
   6:..\..\..\..\..\..\Software\uCOS-III\Source/os_tick.c **** *                                  (c) Copyright 2009-2015; Micrium, Inc.; Weston, FL
   7:..\..\..\..\..\..\Software\uCOS-III\Source/os_tick.c **** *                           All rights reserved.  Protected by international copyright laws.
   8:..\..\..\..\..\..\Software\uCOS-III\Source/os_tick.c **** *
   9:..\..\..\..\..\..\Software\uCOS-III\Source/os_tick.c **** *                                                   TICK MANAGEMENT
  10:..\..\..\..\..\..\Software\uCOS-III\Source/os_tick.c **** *
  11:..\..\..\..\..\..\Software\uCOS-III\Source/os_tick.c **** * File    : OS_TICK.C
  12:..\..\..\..\..\..\Software\uCOS-III\Source/os_tick.c **** * By      : JJL
  13:..\..\..\..\..\..\Software\uCOS-III\Source/os_tick.c **** * Version : V3.05.01
  14:..\..\..\..\..\..\Software\uCOS-III\Source/os_tick.c **** *
  15:..\..\..\..\..\..\Software\uCOS-III\Source/os_tick.c **** * LICENSING TERMS:
  16:..\..\..\..\..\..\Software\uCOS-III\Source/os_tick.c **** * ---------------
  17:..\..\..\..\..\..\Software\uCOS-III\Source/os_tick.c **** *           uC/OS-III is provided in source form for FREE short-term evaluation, for educational us
  18:..\..\..\..\..\..\Software\uCOS-III\Source/os_tick.c **** *           for peaceful research.  If you plan or intend to use uC/OS-III in a commercial applicat
  19:..\..\..\..\..\..\Software\uCOS-III\Source/os_tick.c **** *           product then, you need to contact Micrium to properly license uC/OS-III for its use in 
  20:..\..\..\..\..\..\Software\uCOS-III\Source/os_tick.c **** *           application/product.   We provide ALL the source code for your convenience and to help 
  21:..\..\..\..\..\..\Software\uCOS-III\Source/os_tick.c **** *           experience uC/OS-III.  The fact that the source is provided does NOT mean that you can 
  22:..\..\..\..\..\..\Software\uCOS-III\Source/os_tick.c **** *           it commercially without paying a licensing fee.
  23:..\..\..\..\..\..\Software\uCOS-III\Source/os_tick.c **** *
  24:..\..\..\..\..\..\Software\uCOS-III\Source/os_tick.c **** *           Knowledge of the source code may NOT be used to develop a similar product.
  25:..\..\..\..\..\..\Software\uCOS-III\Source/os_tick.c **** *
  26:..\..\..\..\..\..\Software\uCOS-III\Source/os_tick.c **** *           Please help us continue to provide the embedded community with the finest software avai
  27:..\..\..\..\..\..\Software\uCOS-III\Source/os_tick.c **** *           Your honesty is greatly appreciated.
  28:..\..\..\..\..\..\Software\uCOS-III\Source/os_tick.c **** *
  29:..\..\..\..\..\..\Software\uCOS-III\Source/os_tick.c **** *           You can find our product's user manual, API reference, release notes and
  30:..\..\..\..\..\..\Software\uCOS-III\Source/os_tick.c **** *           more information at https://doc.micrium.com.
ARM GAS  C:\Users\ADMINI~1\AppData\Local\Temp\cc8eYrCa.s 			page 2


  31:..\..\..\..\..\..\Software\uCOS-III\Source/os_tick.c **** *           You can contact us at www.micrium.com.
  32:..\..\..\..\..\..\Software\uCOS-III\Source/os_tick.c **** ***************************************************************************************************
  33:..\..\..\..\..\..\Software\uCOS-III\Source/os_tick.c **** */
  34:..\..\..\..\..\..\Software\uCOS-III\Source/os_tick.c **** 
  35:..\..\..\..\..\..\Software\uCOS-III\Source/os_tick.c **** #define  MICRIUM_SOURCE
  36:..\..\..\..\..\..\Software\uCOS-III\Source/os_tick.c **** #include "os.h"
  37:..\..\..\..\..\..\Software\uCOS-III\Source/os_tick.c **** 
  38:..\..\..\..\..\..\Software\uCOS-III\Source/os_tick.c **** #ifdef VSC_INCLUDE_SOURCE_FILE_NAMES
  39:..\..\..\..\..\..\Software\uCOS-III\Source/os_tick.c **** const  CPU_CHAR  *os_tick__c = "$Id: $";
  40:..\..\..\..\..\..\Software\uCOS-III\Source/os_tick.c **** #endif
  41:..\..\..\..\..\..\Software\uCOS-III\Source/os_tick.c **** 
  42:..\..\..\..\..\..\Software\uCOS-III\Source/os_tick.c **** #if (OS_CFG_TASK_TICK_EN == DEF_ENABLED)
  43:..\..\..\..\..\..\Software\uCOS-III\Source/os_tick.c **** /*
  44:..\..\..\..\..\..\Software\uCOS-III\Source/os_tick.c **** ***************************************************************************************************
  45:..\..\..\..\..\..\Software\uCOS-III\Source/os_tick.c **** *                                                 FUNCTION PROTOTYPES
  46:..\..\..\..\..\..\Software\uCOS-III\Source/os_tick.c **** ***************************************************************************************************
  47:..\..\..\..\..\..\Software\uCOS-III\Source/os_tick.c **** */
  48:..\..\..\..\..\..\Software\uCOS-III\Source/os_tick.c **** 
  49:..\..\..\..\..\..\Software\uCOS-III\Source/os_tick.c **** static  CPU_TS  OS_TickListUpdateDly     (OS_TICK ticks);
  50:..\..\..\..\..\..\Software\uCOS-III\Source/os_tick.c **** static  CPU_TS  OS_TickListUpdateTimeout (OS_TICK ticks);
  51:..\..\..\..\..\..\Software\uCOS-III\Source/os_tick.c **** 
  52:..\..\..\..\..\..\Software\uCOS-III\Source/os_tick.c **** /*
  53:..\..\..\..\..\..\Software\uCOS-III\Source/os_tick.c **** ***************************************************************************************************
  54:..\..\..\..\..\..\Software\uCOS-III\Source/os_tick.c **** *                                                      TICK TASK
  55:..\..\..\..\..\..\Software\uCOS-III\Source/os_tick.c **** *
  56:..\..\..\..\..\..\Software\uCOS-III\Source/os_tick.c **** * Description: This task is internal to uC/OS-III and is triggered by the tick interrupt.
  57:..\..\..\..\..\..\Software\uCOS-III\Source/os_tick.c **** *
  58:..\..\..\..\..\..\Software\uCOS-III\Source/os_tick.c **** * Arguments  : p_arg     is an argument passed to the task when the task is created (unused).
  59:..\..\..\..\..\..\Software\uCOS-III\Source/os_tick.c **** *
  60:..\..\..\..\..\..\Software\uCOS-III\Source/os_tick.c **** * Returns    : none
  61:..\..\..\..\..\..\Software\uCOS-III\Source/os_tick.c **** *
  62:..\..\..\..\..\..\Software\uCOS-III\Source/os_tick.c **** * Note(s)    : This function is INTERNAL to uC/OS-III and your application should not call it.
  63:..\..\..\..\..\..\Software\uCOS-III\Source/os_tick.c **** ***************************************************************************************************
  64:..\..\..\..\..\..\Software\uCOS-III\Source/os_tick.c **** */
  65:..\..\..\..\..\..\Software\uCOS-III\Source/os_tick.c **** 
  66:..\..\..\..\..\..\Software\uCOS-III\Source/os_tick.c **** void  OS_TickTask (void  *p_arg)
  67:..\..\..\..\..\..\Software\uCOS-III\Source/os_tick.c **** {
  28              		.loc 1 67 0
  29              		.cfi_startproc
  30              		@ args = 0, pretend = 0, frame = 32
  31              		@ frame_needed = 1, uses_anonymous_args = 0
  32 0000 80B5     		push	{r7, lr}
  33              		.cfi_def_cfa_offset 8
  34              		.cfi_offset 7, -8
  35              		.cfi_offset 14, -4
  36 0002 88B0     		sub	sp, sp, #32
  37              		.cfi_def_cfa_offset 40
  38 0004 00AF     		add	r7, sp, #0
  39              		.cfi_def_cfa_register 7
  40 0006 7860     		str	r0, [r7, #4]
  68:..\..\..\..\..\..\Software\uCOS-III\Source/os_tick.c ****     OS_ERR   err;
  69:..\..\..\..\..\..\Software\uCOS-III\Source/os_tick.c **** #if (OS_CFG_TS_EN == DEF_ENABLED)
  70:..\..\..\..\..\..\Software\uCOS-III\Source/os_tick.c ****     CPU_TS   ts_delta;
  71:..\..\..\..\..\..\Software\uCOS-III\Source/os_tick.c ****     CPU_TS   ts_delta_dly;
  72:..\..\..\..\..\..\Software\uCOS-III\Source/os_tick.c ****     CPU_TS   ts_delta_timeout;
  73:..\..\..\..\..\..\Software\uCOS-III\Source/os_tick.c **** #endif
  74:..\..\..\..\..\..\Software\uCOS-III\Source/os_tick.c **** #if (OS_CFG_DYN_TICK_EN == DEF_ENABLED)
ARM GAS  C:\Users\ADMINI~1\AppData\Local\Temp\cc8eYrCa.s 			page 3


  75:..\..\..\..\..\..\Software\uCOS-III\Source/os_tick.c ****     OS_TICK  tick_step_dly;
  76:..\..\..\..\..\..\Software\uCOS-III\Source/os_tick.c ****     OS_TICK  tick_step_timeout;
  77:..\..\..\..\..\..\Software\uCOS-III\Source/os_tick.c **** #endif
  78:..\..\..\..\..\..\Software\uCOS-III\Source/os_tick.c ****     OS_TICK  tick_step;
  79:..\..\..\..\..\..\Software\uCOS-III\Source/os_tick.c ****     CPU_SR_ALLOC();
  41              		.loc 1 79 0
  42 0008 0023     		movs	r3, #0
  43 000a FB61     		str	r3, [r7, #28]
  44              	.L4:
  80:..\..\..\..\..\..\Software\uCOS-III\Source/os_tick.c **** 
  81:..\..\..\..\..\..\Software\uCOS-III\Source/os_tick.c **** 
  82:..\..\..\..\..\..\Software\uCOS-III\Source/os_tick.c ****     (void)&p_arg;                                               /* Prevent compiler warning        
  83:..\..\..\..\..\..\Software\uCOS-III\Source/os_tick.c **** 
  84:..\..\..\..\..\..\Software\uCOS-III\Source/os_tick.c ****     while (DEF_ON) {
  85:..\..\..\..\..\..\Software\uCOS-III\Source/os_tick.c ****         (void)OSTaskSemPend(0u,
  45              		.loc 1 85 0
  46 000c 0A23     		movs	r3, #10
  47 000e FB18     		adds	r3, r7, r3
  48 0010 0022     		movs	r2, #0
  49 0012 0021     		movs	r1, #0
  50 0014 0020     		movs	r0, #0
  51 0016 FFF7FEFF 		bl	OSTaskSemPend
  86:..\..\..\..\..\..\Software\uCOS-III\Source/os_tick.c ****                             OS_OPT_PEND_BLOCKING,
  87:..\..\..\..\..\..\Software\uCOS-III\Source/os_tick.c ****                             DEF_NULL,
  88:..\..\..\..\..\..\Software\uCOS-III\Source/os_tick.c ****                             &err);                              /* Wait for signal from tick interr
  89:..\..\..\..\..\..\Software\uCOS-III\Source/os_tick.c ****         if (err == OS_ERR_NONE) {
  52              		.loc 1 89 0
  53 001a 0A23     		movs	r3, #10
  54 001c FB18     		adds	r3, r7, r3
  55 001e 1B88     		ldrh	r3, [r3]
  56 0020 002B     		cmp	r3, #0
  57 0022 F3D1     		bne	.L4
  90:..\..\..\..\..\..\Software\uCOS-III\Source/os_tick.c ****             OS_CRITICAL_ENTER();
  58              		.loc 1 90 0
  59 0024 FFF7FEFF 		bl	CPU_SR_Save
  60 0028 0300     		movs	r3, r0
  61 002a FB61     		str	r3, [r7, #28]
  62 002c FFF7FEFF 		bl	CPU_IntDisMeasStart
  91:..\..\..\..\..\..\Software\uCOS-III\Source/os_tick.c **** 
  92:..\..\..\..\..\..\Software\uCOS-III\Source/os_tick.c **** #if (OS_CFG_DYN_TICK_EN == DEF_ENABLED)
  93:..\..\..\..\..\..\Software\uCOS-III\Source/os_tick.c ****             tick_step = OSTickCtrPend;
  94:..\..\..\..\..\..\Software\uCOS-III\Source/os_tick.c ****             OSTickCtr += tick_step;
  95:..\..\..\..\..\..\Software\uCOS-III\Source/os_tick.c ****             OSTickCtrPend = 0;
  96:..\..\..\..\..\..\Software\uCOS-III\Source/os_tick.c **** #else
  97:..\..\..\..\..\..\Software\uCOS-III\Source/os_tick.c ****             tick_step = 1u;                                     /* Always tick once when dynamic ti
  63              		.loc 1 97 0
  64 0030 0123     		movs	r3, #1
  65 0032 BB61     		str	r3, [r7, #24]
  98:..\..\..\..\..\..\Software\uCOS-III\Source/os_tick.c ****             OSTickCtr++;                                        /* Keep track of the number of tick
  66              		.loc 1 98 0
  67 0034 114B     		ldr	r3, .L5
  68 0036 1B68     		ldr	r3, [r3]
  69 0038 5A1C     		adds	r2, r3, #1
  70 003a 104B     		ldr	r3, .L5
  71 003c 1A60     		str	r2, [r3]
  99:..\..\..\..\..\..\Software\uCOS-III\Source/os_tick.c **** #endif
 100:..\..\..\..\..\..\Software\uCOS-III\Source/os_tick.c **** 
ARM GAS  C:\Users\ADMINI~1\AppData\Local\Temp\cc8eYrCa.s 			page 4


 101:..\..\..\..\..\..\Software\uCOS-III\Source/os_tick.c **** #if (defined(TRACE_CFG_EN) && (TRACE_CFG_EN == DEF_ENABLED))
 102:..\..\..\..\..\..\Software\uCOS-III\Source/os_tick.c ****             TRACE_OS_TICK_INCREMENT(OSTickCtr);                 /* Record the event.               
 103:..\..\..\..\..\..\Software\uCOS-III\Source/os_tick.c **** #endif
 104:..\..\..\..\..\..\Software\uCOS-III\Source/os_tick.c **** 
 105:..\..\..\..\..\..\Software\uCOS-III\Source/os_tick.c **** #if (OS_CFG_TS_EN == DEF_ENABLED)
 106:..\..\..\..\..\..\Software\uCOS-III\Source/os_tick.c ****             ts_delta_dly     = OS_TickListUpdateDly(tick_step);
  72              		.loc 1 106 0
  73 003e BB69     		ldr	r3, [r7, #24]
  74 0040 1800     		movs	r0, r3
  75 0042 FFF7FEFF 		bl	OS_TickListUpdateDly
  76 0046 0300     		movs	r3, r0
  77 0048 7B61     		str	r3, [r7, #20]
 107:..\..\..\..\..\..\Software\uCOS-III\Source/os_tick.c ****             ts_delta_timeout = OS_TickListUpdateTimeout(tick_step);
  78              		.loc 1 107 0
  79 004a BB69     		ldr	r3, [r7, #24]
  80 004c 1800     		movs	r0, r3
  81 004e FFF7FEFF 		bl	OS_TickListUpdateTimeout
  82 0052 0300     		movs	r3, r0
  83 0054 3B61     		str	r3, [r7, #16]
 108:..\..\..\..\..\..\Software\uCOS-III\Source/os_tick.c ****             ts_delta         = ts_delta_dly + ts_delta_timeout; /* Compute total execution time of 
  84              		.loc 1 108 0
  85 0056 7A69     		ldr	r2, [r7, #20]
  86 0058 3B69     		ldr	r3, [r7, #16]
  87 005a D318     		adds	r3, r2, r3
  88 005c FB60     		str	r3, [r7, #12]
 109:..\..\..\..\..\..\Software\uCOS-III\Source/os_tick.c ****             if (OSTickTaskTimeMax < ts_delta) {
  89              		.loc 1 109 0
  90 005e 084B     		ldr	r3, .L5+4
  91 0060 1A68     		ldr	r2, [r3]
  92 0062 FB68     		ldr	r3, [r7, #12]
  93 0064 9A42     		cmp	r2, r3
  94 0066 02D2     		bcs	.L3
 110:..\..\..\..\..\..\Software\uCOS-III\Source/os_tick.c ****                 OSTickTaskTimeMax = ts_delta;
  95              		.loc 1 110 0
  96 0068 054B     		ldr	r3, .L5+4
  97 006a FA68     		ldr	r2, [r7, #12]
  98 006c 1A60     		str	r2, [r3]
  99              	.L3:
 111:..\..\..\..\..\..\Software\uCOS-III\Source/os_tick.c ****             }
 112:..\..\..\..\..\..\Software\uCOS-III\Source/os_tick.c **** #else
 113:..\..\..\..\..\..\Software\uCOS-III\Source/os_tick.c ****             (void)OS_TickListUpdateDly(tick_step);
 114:..\..\..\..\..\..\Software\uCOS-III\Source/os_tick.c ****             (void)OS_TickListUpdateTimeout(tick_step);
 115:..\..\..\..\..\..\Software\uCOS-III\Source/os_tick.c **** #endif
 116:..\..\..\..\..\..\Software\uCOS-III\Source/os_tick.c **** 
 117:..\..\..\..\..\..\Software\uCOS-III\Source/os_tick.c **** #if (OS_CFG_DYN_TICK_EN == DEF_ENABLED)
 118:..\..\..\..\..\..\Software\uCOS-III\Source/os_tick.c ****             tick_step_dly = (OS_TICK)-1;
 119:..\..\..\..\..\..\Software\uCOS-III\Source/os_tick.c ****             tick_step_timeout = (OS_TICK)-1;
 120:..\..\..\..\..\..\Software\uCOS-III\Source/os_tick.c ****             if(OSTickListDly.TCB_Ptr != DEF_NULL) {
 121:..\..\..\..\..\..\Software\uCOS-III\Source/os_tick.c ****                 tick_step_dly = OSTickListDly.TCB_Ptr->TickRemain;
 122:..\..\..\..\..\..\Software\uCOS-III\Source/os_tick.c ****             }
 123:..\..\..\..\..\..\Software\uCOS-III\Source/os_tick.c ****             if(OSTickListTimeout.TCB_Ptr != DEF_NULL) {
 124:..\..\..\..\..\..\Software\uCOS-III\Source/os_tick.c ****                 tick_step_timeout = OSTickListTimeout.TCB_Ptr->TickRemain;
 125:..\..\..\..\..\..\Software\uCOS-III\Source/os_tick.c ****             }
 126:..\..\..\..\..\..\Software\uCOS-III\Source/os_tick.c ****             OSTickCtrStep = (tick_step_dly < tick_step_timeout) ? tick_step_dly : tick_step_timeout
 127:..\..\..\..\..\..\Software\uCOS-III\Source/os_tick.c ****             BSP_OS_TickNextSet(OSTickCtrStep);
 128:..\..\..\..\..\..\Software\uCOS-III\Source/os_tick.c **** #endif
 129:..\..\..\..\..\..\Software\uCOS-III\Source/os_tick.c ****             OS_CRITICAL_EXIT();
ARM GAS  C:\Users\ADMINI~1\AppData\Local\Temp\cc8eYrCa.s 			page 5


 100              		.loc 1 129 0
 101 006e FFF7FEFF 		bl	CPU_IntDisMeasStop
 102 0072 FB69     		ldr	r3, [r7, #28]
 103 0074 1800     		movs	r0, r3
 104 0076 FFF7FEFF 		bl	CPU_SR_Restore
 130:..\..\..\..\..\..\Software\uCOS-III\Source/os_tick.c ****         }
 131:..\..\..\..\..\..\Software\uCOS-III\Source/os_tick.c ****     }
 105              		.loc 1 131 0
 106 007a C7E7     		b	.L4
 107              	.L6:
 108              		.align	2
 109              	.L5:
 110 007c 00000000 		.word	OSTickCtr
 111 0080 00000000 		.word	OSTickTaskTimeMax
 112              		.cfi_endproc
 113              	.LFE0:
 114              		.size	OS_TickTask, .-OS_TickTask
 115              		.section	.rodata
 116              		.align	2
 117              	.LC11:
 118 0000 75432F4F 		.ascii	"uC/OS-III Tick Task\000"
 118      532D4949 
 118      49205469 
 118      636B2054 
 118      61736B00 
 119              		.section	.text.OS_TickTaskInit,"ax",%progbits
 120              		.align	2
 121              		.global	OS_TickTaskInit
 122              		.code	16
 123              		.thumb_func
 124              		.type	OS_TickTaskInit, %function
 125              	OS_TickTaskInit:
 126              	.LFB1:
 132:..\..\..\..\..\..\Software\uCOS-III\Source/os_tick.c **** }
 133:..\..\..\..\..\..\Software\uCOS-III\Source/os_tick.c **** 
 134:..\..\..\..\..\..\Software\uCOS-III\Source/os_tick.c **** /*
 135:..\..\..\..\..\..\Software\uCOS-III\Source/os_tick.c **** ***************************************************************************************************
 136:..\..\..\..\..\..\Software\uCOS-III\Source/os_tick.c **** *                                                 INITIALIZE TICK TASK
 137:..\..\..\..\..\..\Software\uCOS-III\Source/os_tick.c **** *
 138:..\..\..\..\..\..\Software\uCOS-III\Source/os_tick.c **** * Description: This function is called by OSInit() to create the tick task.
 139:..\..\..\..\..\..\Software\uCOS-III\Source/os_tick.c **** *
 140:..\..\..\..\..\..\Software\uCOS-III\Source/os_tick.c **** * Arguments  : p_err   is a pointer to a variable that will hold the value of an error code:
 141:..\..\..\..\..\..\Software\uCOS-III\Source/os_tick.c **** *
 142:..\..\..\..\..\..\Software\uCOS-III\Source/os_tick.c **** *                          OS_ERR_TICK_STK_INVALID   if the pointer to the tick task stack is a NUL
 143:..\..\..\..\..\..\Software\uCOS-III\Source/os_tick.c **** *                          OS_ERR_TICK_STK_SIZE      indicates that the specified stack size
 144:..\..\..\..\..\..\Software\uCOS-III\Source/os_tick.c **** *                          OS_ERR_PRIO_INVALID       if the priority you specified in the configura
 145:..\..\..\..\..\..\Software\uCOS-III\Source/os_tick.c **** *                                                      (There could be only one task at the Idle Ta
 146:..\..\..\..\..\..\Software\uCOS-III\Source/os_tick.c **** *                                                      (Maybe the priority you specified is higher 
 147:..\..\..\..\..\..\Software\uCOS-III\Source/os_tick.c **** *                          OS_ERR_??                 other error code returned by OSTaskCreate()
 148:..\..\..\..\..\..\Software\uCOS-III\Source/os_tick.c **** *
 149:..\..\..\..\..\..\Software\uCOS-III\Source/os_tick.c **** * Returns    : none
 150:..\..\..\..\..\..\Software\uCOS-III\Source/os_tick.c **** *
 151:..\..\..\..\..\..\Software\uCOS-III\Source/os_tick.c **** * Note(s)    : This function is INTERNAL to uC/OS-III and your application should not call it.
 152:..\..\..\..\..\..\Software\uCOS-III\Source/os_tick.c **** ***************************************************************************************************
 153:..\..\..\..\..\..\Software\uCOS-III\Source/os_tick.c **** */
 154:..\..\..\..\..\..\Software\uCOS-III\Source/os_tick.c **** 
 155:..\..\..\..\..\..\Software\uCOS-III\Source/os_tick.c **** void  OS_TickTaskInit (OS_ERR  *p_err)
ARM GAS  C:\Users\ADMINI~1\AppData\Local\Temp\cc8eYrCa.s 			page 6


 156:..\..\..\..\..\..\Software\uCOS-III\Source/os_tick.c **** {
 127              		.loc 1 156 0
 128              		.cfi_startproc
 129              		@ args = 0, pretend = 0, frame = 8
 130              		@ frame_needed = 1, uses_anonymous_args = 0
 131 0000 F0B5     		push	{r4, r5, r6, r7, lr}
 132              		.cfi_def_cfa_offset 20
 133              		.cfi_offset 4, -20
 134              		.cfi_offset 5, -16
 135              		.cfi_offset 6, -12
 136              		.cfi_offset 7, -8
 137              		.cfi_offset 14, -4
 138 0002 8DB0     		sub	sp, sp, #52
 139              		.cfi_def_cfa_offset 72
 140 0004 0AAF     		add	r7, sp, #40
 141              		.cfi_def_cfa 7, 32
 142 0006 7860     		str	r0, [r7, #4]
 157:..\..\..\..\..\..\Software\uCOS-III\Source/os_tick.c ****     OSTickCtr                    = 0u;                          /* Clear the tick counter          
 143              		.loc 1 157 0
 144 0008 284B     		ldr	r3, .L12
 145 000a 0022     		movs	r2, #0
 146 000c 1A60     		str	r2, [r3]
 158:..\..\..\..\..\..\Software\uCOS-III\Source/os_tick.c **** 
 159:..\..\..\..\..\..\Software\uCOS-III\Source/os_tick.c **** #if (OS_CFG_DYN_TICK_EN == DEF_ENABLED)
 160:..\..\..\..\..\..\Software\uCOS-III\Source/os_tick.c ****     OSTickCtrStep                = (OS_TICK)-1;
 161:..\..\..\..\..\..\Software\uCOS-III\Source/os_tick.c ****     OSTickCtrPend                = 0u;
 162:..\..\..\..\..\..\Software\uCOS-III\Source/os_tick.c **** #endif
 163:..\..\..\..\..\..\Software\uCOS-III\Source/os_tick.c **** 
 164:..\..\..\..\..\..\Software\uCOS-III\Source/os_tick.c ****     OSTickListDly.TCB_Ptr        = DEF_NULL;
 147              		.loc 1 164 0
 148 000e 284B     		ldr	r3, .L12+4
 149 0010 0022     		movs	r2, #0
 150 0012 1A60     		str	r2, [r3]
 165:..\..\..\..\..\..\Software\uCOS-III\Source/os_tick.c ****     OSTickListTimeout.TCB_Ptr    = DEF_NULL;
 151              		.loc 1 165 0
 152 0014 274B     		ldr	r3, .L12+8
 153 0016 0022     		movs	r2, #0
 154 0018 1A60     		str	r2, [r3]
 166:..\..\..\..\..\..\Software\uCOS-III\Source/os_tick.c **** 
 167:..\..\..\..\..\..\Software\uCOS-III\Source/os_tick.c **** #if (OS_CFG_DBG_EN == DEF_ENABLED)
 168:..\..\..\..\..\..\Software\uCOS-III\Source/os_tick.c ****     OSTickListDly.NbrEntries     = 0u;
 155              		.loc 1 168 0
 156 001a 254B     		ldr	r3, .L12+4
 157 001c 0022     		movs	r2, #0
 158 001e 9A80     		strh	r2, [r3, #4]
 169:..\..\..\..\..\..\Software\uCOS-III\Source/os_tick.c ****     OSTickListDly.NbrUpdated     = 0u;
 159              		.loc 1 169 0
 160 0020 234B     		ldr	r3, .L12+4
 161 0022 0022     		movs	r2, #0
 162 0024 DA80     		strh	r2, [r3, #6]
 170:..\..\..\..\..\..\Software\uCOS-III\Source/os_tick.c **** 
 171:..\..\..\..\..\..\Software\uCOS-III\Source/os_tick.c ****     OSTickListTimeout.NbrEntries = 0u;
 163              		.loc 1 171 0
 164 0026 234B     		ldr	r3, .L12+8
 165 0028 0022     		movs	r2, #0
 166 002a 9A80     		strh	r2, [r3, #4]
 172:..\..\..\..\..\..\Software\uCOS-III\Source/os_tick.c ****     OSTickListTimeout.NbrUpdated = 0u;
ARM GAS  C:\Users\ADMINI~1\AppData\Local\Temp\cc8eYrCa.s 			page 7


 167              		.loc 1 172 0
 168 002c 214B     		ldr	r3, .L12+8
 169 002e 0022     		movs	r2, #0
 170 0030 DA80     		strh	r2, [r3, #6]
 173:..\..\..\..\..\..\Software\uCOS-III\Source/os_tick.c **** #endif
 174:..\..\..\..\..\..\Software\uCOS-III\Source/os_tick.c **** 
 175:..\..\..\..\..\..\Software\uCOS-III\Source/os_tick.c ****                                                                 /* --------------- CREATE THE TICK 
 176:..\..\..\..\..\..\Software\uCOS-III\Source/os_tick.c ****     if (OSCfg_TickTaskStkBasePtr == DEF_NULL) {
 171              		.loc 1 176 0
 172 0032 214B     		ldr	r3, .L12+12
 173 0034 1B68     		ldr	r3, [r3]
 174 0036 002B     		cmp	r3, #0
 175 0038 03D1     		bne	.L8
 177:..\..\..\..\..\..\Software\uCOS-III\Source/os_tick.c ****        *p_err = OS_ERR_TICK_STK_INVALID;
 176              		.loc 1 177 0
 177 003a 7B68     		ldr	r3, [r7, #4]
 178 003c 1F4A     		ldr	r2, .L12+16
 179 003e 1A80     		strh	r2, [r3]
 178:..\..\..\..\..\..\Software\uCOS-III\Source/os_tick.c ****         return;
 180              		.loc 1 178 0
 181 0040 31E0     		b	.L7
 182              	.L8:
 179:..\..\..\..\..\..\Software\uCOS-III\Source/os_tick.c ****     }
 180:..\..\..\..\..\..\Software\uCOS-III\Source/os_tick.c **** 
 181:..\..\..\..\..\..\Software\uCOS-III\Source/os_tick.c ****     if (OSCfg_TickTaskStkSize < OSCfg_StkSizeMin) {
 183              		.loc 1 181 0
 184 0042 1F4B     		ldr	r3, .L12+20
 185 0044 1A68     		ldr	r2, [r3]
 186 0046 1F4B     		ldr	r3, .L12+24
 187 0048 1B68     		ldr	r3, [r3]
 188 004a 9A42     		cmp	r2, r3
 189 004c 03D2     		bcs	.L10
 182:..\..\..\..\..\..\Software\uCOS-III\Source/os_tick.c ****        *p_err = OS_ERR_TICK_STK_SIZE_INVALID;
 190              		.loc 1 182 0
 191 004e 7B68     		ldr	r3, [r7, #4]
 192 0050 1D4A     		ldr	r2, .L12+28
 193 0052 1A80     		strh	r2, [r3]
 183:..\..\..\..\..\..\Software\uCOS-III\Source/os_tick.c ****         return;
 194              		.loc 1 183 0
 195 0054 27E0     		b	.L7
 196              	.L10:
 184:..\..\..\..\..\..\Software\uCOS-III\Source/os_tick.c ****     }
 185:..\..\..\..\..\..\Software\uCOS-III\Source/os_tick.c **** 
 186:..\..\..\..\..\..\Software\uCOS-III\Source/os_tick.c ****     if (OSCfg_TickTaskPrio >= (OS_CFG_PRIO_MAX - 1u)) {         /* Only one task at the 'Idle Task'
 197              		.loc 1 186 0
 198 0056 1D4B     		ldr	r3, .L12+32
 199 0058 1B78     		ldrb	r3, [r3]
 200 005a 1E2B     		cmp	r3, #30
 201 005c 03D9     		bls	.L11
 187:..\..\..\..\..\..\Software\uCOS-III\Source/os_tick.c ****        *p_err = OS_ERR_TICK_PRIO_INVALID;
 202              		.loc 1 187 0
 203 005e 7B68     		ldr	r3, [r7, #4]
 204 0060 1B4A     		ldr	r2, .L12+36
 205 0062 1A80     		strh	r2, [r3]
 188:..\..\..\..\..\..\Software\uCOS-III\Source/os_tick.c ****         return;
 206              		.loc 1 188 0
 207 0064 1FE0     		b	.L7
ARM GAS  C:\Users\ADMINI~1\AppData\Local\Temp\cc8eYrCa.s 			page 8


 208              	.L11:
 189:..\..\..\..\..\..\Software\uCOS-III\Source/os_tick.c ****     }
 190:..\..\..\..\..\..\Software\uCOS-III\Source/os_tick.c **** 
 191:..\..\..\..\..\..\Software\uCOS-III\Source/os_tick.c ****     OSTaskCreate(&OSTickTaskTCB,
 209              		.loc 1 191 0
 210 0066 194B     		ldr	r3, .L12+32
 211 0068 1A78     		ldrb	r2, [r3]
 212 006a 134B     		ldr	r3, .L12+12
 213 006c 1968     		ldr	r1, [r3]
 214 006e 194B     		ldr	r3, .L12+40
 215 0070 1868     		ldr	r0, [r3]
 216 0072 134B     		ldr	r3, .L12+20
 217 0074 1B68     		ldr	r3, [r3]
 218 0076 184C     		ldr	r4, .L12+44
 219 0078 A446     		mov	ip, r4
 220 007a 184E     		ldr	r6, .L12+48
 221 007c 184D     		ldr	r5, .L12+52
 222 007e 7C68     		ldr	r4, [r7, #4]
 223 0080 0894     		str	r4, [sp, #32]
 224 0082 0B24     		movs	r4, #11
 225 0084 0794     		str	r4, [sp, #28]
 226 0086 0024     		movs	r4, #0
 227 0088 0694     		str	r4, [sp, #24]
 228 008a 0024     		movs	r4, #0
 229 008c 0594     		str	r4, [sp, #20]
 230 008e 0024     		movs	r4, #0
 231 0090 0494     		str	r4, [sp, #16]
 232 0092 0393     		str	r3, [sp, #12]
 233 0094 0290     		str	r0, [sp, #8]
 234 0096 0191     		str	r1, [sp, #4]
 235 0098 0092     		str	r2, [sp]
 236 009a 0023     		movs	r3, #0
 237 009c 6246     		mov	r2, ip
 238 009e 3100     		movs	r1, r6
 239 00a0 2800     		movs	r0, r5
 240 00a2 FFF7FEFF 		bl	OSTaskCreate
 241              	.L7:
 192:..\..\..\..\..\..\Software\uCOS-III\Source/os_tick.c ****                  (CPU_CHAR   *)((void *)"uC/OS-III Tick Task"),
 193:..\..\..\..\..\..\Software\uCOS-III\Source/os_tick.c ****                  OS_TickTask,
 194:..\..\..\..\..\..\Software\uCOS-III\Source/os_tick.c ****                  DEF_NULL,
 195:..\..\..\..\..\..\Software\uCOS-III\Source/os_tick.c ****                  OSCfg_TickTaskPrio,
 196:..\..\..\..\..\..\Software\uCOS-III\Source/os_tick.c ****                  OSCfg_TickTaskStkBasePtr,
 197:..\..\..\..\..\..\Software\uCOS-III\Source/os_tick.c ****                  OSCfg_TickTaskStkLimit,
 198:..\..\..\..\..\..\Software\uCOS-III\Source/os_tick.c ****                  OSCfg_TickTaskStkSize,
 199:..\..\..\..\..\..\Software\uCOS-III\Source/os_tick.c ****                  0u,
 200:..\..\..\..\..\..\Software\uCOS-III\Source/os_tick.c ****                  0u,
 201:..\..\..\..\..\..\Software\uCOS-III\Source/os_tick.c ****                  DEF_NULL,
 202:..\..\..\..\..\..\Software\uCOS-III\Source/os_tick.c ****                  (OS_OPT_TASK_STK_CHK | OS_OPT_TASK_STK_CLR | OS_OPT_TASK_NO_TLS),
 203:..\..\..\..\..\..\Software\uCOS-III\Source/os_tick.c ****                  p_err);
 204:..\..\..\..\..\..\Software\uCOS-III\Source/os_tick.c **** }
 242              		.loc 1 204 0
 243 00a6 BD46     		mov	sp, r7
 244 00a8 03B0     		add	sp, sp, #12
 245              		@ sp needed
 246 00aa F0BD     		pop	{r4, r5, r6, r7, pc}
 247              	.L13:
 248              		.align	2
ARM GAS  C:\Users\ADMINI~1\AppData\Local\Temp\cc8eYrCa.s 			page 9


 249              	.L12:
 250 00ac 00000000 		.word	OSTickCtr
 251 00b0 00000000 		.word	OSTickListDly
 252 00b4 00000000 		.word	OSTickListTimeout
 253 00b8 00000000 		.word	OSCfg_TickTaskStkBasePtr
 254 00bc 12720000 		.word	29202
 255 00c0 00000000 		.word	OSCfg_TickTaskStkSize
 256 00c4 00000000 		.word	OSCfg_StkSizeMin
 257 00c8 13720000 		.word	29203
 258 00cc 00000000 		.word	OSCfg_TickTaskPrio
 259 00d0 11720000 		.word	29201
 260 00d4 00000000 		.word	OSCfg_TickTaskStkLimit
 261 00d8 00000000 		.word	OS_TickTask
 262 00dc 00000000 		.word	.LC11
 263 00e0 00000000 		.word	OSTickTaskTCB
 264              		.cfi_endproc
 265              	.LFE1:
 266              		.size	OS_TickTaskInit, .-OS_TickTaskInit
 267              		.section	.text.OS_TickListInsert,"ax",%progbits
 268              		.align	2
 269              		.global	OS_TickListInsert
 270              		.code	16
 271              		.thumb_func
 272              		.type	OS_TickListInsert, %function
 273              	OS_TickListInsert:
 274              	.LFB2:
 205:..\..\..\..\..\..\Software\uCOS-III\Source/os_tick.c **** 
 206:..\..\..\..\..\..\Software\uCOS-III\Source/os_tick.c **** /*
 207:..\..\..\..\..\..\Software\uCOS-III\Source/os_tick.c **** ***************************************************************************************************
 208:..\..\..\..\..\..\Software\uCOS-III\Source/os_tick.c **** *                                                      INSERT
 209:..\..\..\..\..\..\Software\uCOS-III\Source/os_tick.c **** *
 210:..\..\..\..\..\..\Software\uCOS-III\Source/os_tick.c **** * Description: This task is internal to uC/OS-III and allows the insertion of a task in a tick list
 211:..\..\..\..\..\..\Software\uCOS-III\Source/os_tick.c **** *
 212:..\..\..\..\..\..\Software\uCOS-III\Source/os_tick.c **** * Arguments  : p_list      is a pointer to the desired list
 213:..\..\..\..\..\..\Software\uCOS-III\Source/os_tick.c **** *
 214:..\..\..\..\..\..\Software\uCOS-III\Source/os_tick.c **** *              p_tcb       is a pointer to the TCB to insert in the list
 215:..\..\..\..\..\..\Software\uCOS-III\Source/os_tick.c **** *
 216:..\..\..\..\..\..\Software\uCOS-III\Source/os_tick.c **** *              time        is the amount of time remaining (in ticks) for the task to become ready
 217:..\..\..\..\..\..\Software\uCOS-III\Source/os_tick.c **** *
 218:..\..\..\..\..\..\Software\uCOS-III\Source/os_tick.c **** * Returns    : none
 219:..\..\..\..\..\..\Software\uCOS-III\Source/os_tick.c **** *
 220:..\..\..\..\..\..\Software\uCOS-III\Source/os_tick.c **** * Note(s)    : This function is INTERNAL to uC/OS-III and your application should not call it.
 221:..\..\..\..\..\..\Software\uCOS-III\Source/os_tick.c **** ***************************************************************************************************
 222:..\..\..\..\..\..\Software\uCOS-III\Source/os_tick.c **** */
 223:..\..\..\..\..\..\Software\uCOS-III\Source/os_tick.c **** 
 224:..\..\..\..\..\..\Software\uCOS-III\Source/os_tick.c **** void  OS_TickListInsert (OS_TICK_LIST  *p_list,
 225:..\..\..\..\..\..\Software\uCOS-III\Source/os_tick.c ****                          OS_TCB        *p_tcb,
 226:..\..\..\..\..\..\Software\uCOS-III\Source/os_tick.c ****                          OS_TICK        time)
 227:..\..\..\..\..\..\Software\uCOS-III\Source/os_tick.c **** {
 275              		.loc 1 227 0
 276              		.cfi_startproc
 277              		@ args = 0, pretend = 0, frame = 32
 278              		@ frame_needed = 1, uses_anonymous_args = 0
 279 0000 80B5     		push	{r7, lr}
 280              		.cfi_def_cfa_offset 8
 281              		.cfi_offset 7, -8
 282              		.cfi_offset 14, -4
ARM GAS  C:\Users\ADMINI~1\AppData\Local\Temp\cc8eYrCa.s 			page 10


 283 0002 88B0     		sub	sp, sp, #32
 284              		.cfi_def_cfa_offset 40
 285 0004 00AF     		add	r7, sp, #0
 286              		.cfi_def_cfa_register 7
 287 0006 F860     		str	r0, [r7, #12]
 288 0008 B960     		str	r1, [r7, #8]
 289 000a 7A60     		str	r2, [r7, #4]
 228:..\..\..\..\..\..\Software\uCOS-III\Source/os_tick.c ****     OS_TCB  *p_tcb1;
 229:..\..\..\..\..\..\Software\uCOS-III\Source/os_tick.c ****     OS_TCB  *p_tcb2;
 230:..\..\..\..\..\..\Software\uCOS-III\Source/os_tick.c ****     OS_TICK  remain;
 231:..\..\..\..\..\..\Software\uCOS-III\Source/os_tick.c **** #if (OS_CFG_DYN_TICK_EN == DEF_ENABLED)
 232:..\..\..\..\..\..\Software\uCOS-III\Source/os_tick.c ****     OS_TICK  tick_step = (OS_TICK)-1;
 233:..\..\..\..\..\..\Software\uCOS-III\Source/os_tick.c **** #endif
 234:..\..\..\..\..\..\Software\uCOS-III\Source/os_tick.c **** 
 235:..\..\..\..\..\..\Software\uCOS-III\Source/os_tick.c **** 
 236:..\..\..\..\..\..\Software\uCOS-III\Source/os_tick.c ****     if (p_list->TCB_Ptr == DEF_NULL) {                          /* Is the list empty?              
 290              		.loc 1 236 0
 291 000c FB68     		ldr	r3, [r7, #12]
 292 000e 1B68     		ldr	r3, [r3]
 293 0010 002B     		cmp	r3, #0
 294 0012 12D1     		bne	.L15
 237:..\..\..\..\..\..\Software\uCOS-III\Source/os_tick.c ****         p_tcb->TickRemain  = time;                              /* Yes, Store time in TCB          
 295              		.loc 1 237 0
 296 0014 BB68     		ldr	r3, [r7, #8]
 297 0016 7A68     		ldr	r2, [r7, #4]
 298 0018 1A65     		str	r2, [r3, #80]
 238:..\..\..\..\..\..\Software\uCOS-III\Source/os_tick.c ****         p_tcb->TickNextPtr = DEF_NULL;
 299              		.loc 1 238 0
 300 001a BB68     		ldr	r3, [r7, #8]
 301 001c 0022     		movs	r2, #0
 302 001e 9A61     		str	r2, [r3, #24]
 239:..\..\..\..\..\..\Software\uCOS-III\Source/os_tick.c ****         p_tcb->TickPrevPtr = DEF_NULL;
 303              		.loc 1 239 0
 304 0020 BB68     		ldr	r3, [r7, #8]
 305 0022 0022     		movs	r2, #0
 306 0024 DA61     		str	r2, [r3, #28]
 240:..\..\..\..\..\..\Software\uCOS-III\Source/os_tick.c ****         p_tcb->TickListPtr = p_list;                            /* Link to this list               
 307              		.loc 1 240 0
 308 0026 BB68     		ldr	r3, [r7, #8]
 309 0028 FA68     		ldr	r2, [r7, #12]
 310 002a 1A62     		str	r2, [r3, #32]
 241:..\..\..\..\..\..\Software\uCOS-III\Source/os_tick.c ****         p_list->TCB_Ptr    = p_tcb;                             /* Point to TCB of task to place in
 311              		.loc 1 241 0
 312 002c FB68     		ldr	r3, [r7, #12]
 313 002e BA68     		ldr	r2, [r7, #8]
 314 0030 1A60     		str	r2, [r3]
 242:..\..\..\..\..\..\Software\uCOS-III\Source/os_tick.c **** #if (OS_CFG_DBG_EN == DEF_ENABLED)
 243:..\..\..\..\..\..\Software\uCOS-III\Source/os_tick.c ****         p_list->NbrEntries = 1u;                                /* List contains 1 entry           
 315              		.loc 1 243 0
 316 0032 FB68     		ldr	r3, [r7, #12]
 317 0034 0122     		movs	r2, #1
 318 0036 9A80     		strh	r2, [r3, #4]
 319 0038 74E0     		b	.L14
 320              	.L15:
 244:..\..\..\..\..\..\Software\uCOS-III\Source/os_tick.c **** #endif
 245:..\..\..\..\..\..\Software\uCOS-III\Source/os_tick.c **** #if (OS_CFG_DYN_TICK_EN == DEF_ENABLED)
 246:..\..\..\..\..\..\Software\uCOS-III\Source/os_tick.c ****         tick_step = time;
ARM GAS  C:\Users\ADMINI~1\AppData\Local\Temp\cc8eYrCa.s 			page 11


 247:..\..\..\..\..\..\Software\uCOS-III\Source/os_tick.c **** #endif
 248:..\..\..\..\..\..\Software\uCOS-III\Source/os_tick.c ****     } else {
 249:..\..\..\..\..\..\Software\uCOS-III\Source/os_tick.c ****         p_tcb1 = p_list->TCB_Ptr;
 321              		.loc 1 249 0
 322 003a FB68     		ldr	r3, [r7, #12]
 323 003c 1B68     		ldr	r3, [r3]
 324 003e FB61     		str	r3, [r7, #28]
 250:..\..\..\..\..\..\Software\uCOS-III\Source/os_tick.c ****         p_tcb2 = p_list->TCB_Ptr;                               /* No,  Insert somewhere in the lis
 325              		.loc 1 250 0
 326 0040 FB68     		ldr	r3, [r7, #12]
 327 0042 1B68     		ldr	r3, [r3]
 328 0044 BB61     		str	r3, [r7, #24]
 251:..\..\..\..\..\..\Software\uCOS-III\Source/os_tick.c ****         remain = time;
 329              		.loc 1 251 0
 330 0046 7B68     		ldr	r3, [r7, #4]
 331 0048 7B61     		str	r3, [r7, #20]
 252:..\..\..\..\..\..\Software\uCOS-III\Source/os_tick.c ****         while (p_tcb2 != DEF_NULL) {
 332              		.loc 1 252 0
 333 004a 53E0     		b	.L17
 334              	.L21:
 253:..\..\..\..\..\..\Software\uCOS-III\Source/os_tick.c ****             if (remain <= p_tcb2->TickRemain) {
 335              		.loc 1 253 0
 336 004c BB69     		ldr	r3, [r7, #24]
 337 004e 1A6D     		ldr	r2, [r3, #80]
 338 0050 7B69     		ldr	r3, [r7, #20]
 339 0052 9A42     		cmp	r2, r3
 340 0054 44D3     		bcc	.L18
 254:..\..\..\..\..\..\Software\uCOS-III\Source/os_tick.c ****                 if (p_tcb2->TickPrevPtr == DEF_NULL) {          /* Insert before the first entry in
 341              		.loc 1 254 0
 342 0056 BB69     		ldr	r3, [r7, #24]
 343 0058 DB69     		ldr	r3, [r3, #28]
 344 005a 002B     		cmp	r3, #0
 345 005c 1ED1     		bne	.L19
 255:..\..\..\..\..\..\Software\uCOS-III\Source/os_tick.c ****                     p_tcb->TickRemain   = remain;               /* Yes, Store remaining time       
 346              		.loc 1 255 0
 347 005e BB68     		ldr	r3, [r7, #8]
 348 0060 7A69     		ldr	r2, [r7, #20]
 349 0062 1A65     		str	r2, [r3, #80]
 256:..\..\..\..\..\..\Software\uCOS-III\Source/os_tick.c ****                     p_tcb->TickPrevPtr  = DEF_NULL;
 350              		.loc 1 256 0
 351 0064 BB68     		ldr	r3, [r7, #8]
 352 0066 0022     		movs	r2, #0
 353 0068 DA61     		str	r2, [r3, #28]
 257:..\..\..\..\..\..\Software\uCOS-III\Source/os_tick.c ****                     p_tcb->TickNextPtr  = p_tcb2;    
 354              		.loc 1 257 0
 355 006a BB68     		ldr	r3, [r7, #8]
 356 006c BA69     		ldr	r2, [r7, #24]
 357 006e 9A61     		str	r2, [r3, #24]
 258:..\..\..\..\..\..\Software\uCOS-III\Source/os_tick.c ****                     p_tcb->TickListPtr  = p_list;               /* Link TCB to this list           
 358              		.loc 1 258 0
 359 0070 BB68     		ldr	r3, [r7, #8]
 360 0072 FA68     		ldr	r2, [r7, #12]
 361 0074 1A62     		str	r2, [r3, #32]
 259:..\..\..\..\..\..\Software\uCOS-III\Source/os_tick.c ****                     p_tcb2->TickRemain -= remain;               /* Reduce time of next entry in the
 362              		.loc 1 259 0
 363 0076 BB69     		ldr	r3, [r7, #24]
 364 0078 1A6D     		ldr	r2, [r3, #80]
ARM GAS  C:\Users\ADMINI~1\AppData\Local\Temp\cc8eYrCa.s 			page 12


 365 007a 7B69     		ldr	r3, [r7, #20]
 366 007c D21A     		subs	r2, r2, r3
 367 007e BB69     		ldr	r3, [r7, #24]
 368 0080 1A65     		str	r2, [r3, #80]
 260:..\..\..\..\..\..\Software\uCOS-III\Source/os_tick.c ****                     p_tcb2->TickPrevPtr = p_tcb;
 369              		.loc 1 260 0
 370 0082 BB69     		ldr	r3, [r7, #24]
 371 0084 BA68     		ldr	r2, [r7, #8]
 372 0086 DA61     		str	r2, [r3, #28]
 261:..\..\..\..\..\..\Software\uCOS-III\Source/os_tick.c ****                     p_list->TCB_Ptr     = p_tcb;                /* Add TCB to the list             
 373              		.loc 1 261 0
 374 0088 FB68     		ldr	r3, [r7, #12]
 375 008a BA68     		ldr	r2, [r7, #8]
 376 008c 1A60     		str	r2, [r3]
 262:..\..\..\..\..\..\Software\uCOS-III\Source/os_tick.c **** #if (OS_CFG_DBG_EN == DEF_ENABLED)
 263:..\..\..\..\..\..\Software\uCOS-III\Source/os_tick.c ****                     p_list->NbrEntries++;                       /* List contains an extra entry    
 377              		.loc 1 263 0
 378 008e FB68     		ldr	r3, [r7, #12]
 379 0090 9B88     		ldrh	r3, [r3, #4]
 380 0092 0133     		adds	r3, r3, #1
 381 0094 9AB2     		uxth	r2, r3
 382 0096 FB68     		ldr	r3, [r7, #12]
 383 0098 9A80     		strh	r2, [r3, #4]
 264:..\..\..\..\..\..\Software\uCOS-III\Source/os_tick.c **** #endif
 265:..\..\..\..\..\..\Software\uCOS-III\Source/os_tick.c **** #if (OS_CFG_DYN_TICK_EN == DEF_ENABLED)
 266:..\..\..\..\..\..\Software\uCOS-III\Source/os_tick.c ****                     tick_step = remain;
 267:..\..\..\..\..\..\Software\uCOS-III\Source/os_tick.c **** #endif
 268:..\..\..\..\..\..\Software\uCOS-III\Source/os_tick.c ****                 } else {                                        /* No,  Insert somewhere further in
 269:..\..\..\..\..\..\Software\uCOS-III\Source/os_tick.c ****                     p_tcb1              = p_tcb2->TickPrevPtr;
 270:..\..\..\..\..\..\Software\uCOS-III\Source/os_tick.c ****                     p_tcb->TickRemain   = remain;               /* Store remaining time            
 271:..\..\..\..\..\..\Software\uCOS-III\Source/os_tick.c ****                     p_tcb->TickPrevPtr  = p_tcb1;
 272:..\..\..\..\..\..\Software\uCOS-III\Source/os_tick.c ****                     p_tcb->TickNextPtr  = p_tcb2;    
 273:..\..\..\..\..\..\Software\uCOS-III\Source/os_tick.c ****                     p_tcb->TickListPtr  = p_list;               /* TCB points to this list         
 274:..\..\..\..\..\..\Software\uCOS-III\Source/os_tick.c ****                     p_tcb2->TickRemain -= remain;               /* Reduce time of next entry in the
 275:..\..\..\..\..\..\Software\uCOS-III\Source/os_tick.c ****                     p_tcb2->TickPrevPtr = p_tcb;
 276:..\..\..\..\..\..\Software\uCOS-III\Source/os_tick.c ****                     p_tcb1->TickNextPtr = p_tcb;
 277:..\..\..\..\..\..\Software\uCOS-III\Source/os_tick.c **** #if (OS_CFG_DBG_EN == DEF_ENABLED)
 278:..\..\..\..\..\..\Software\uCOS-III\Source/os_tick.c ****                     p_list->NbrEntries++;                       /* List contains an extra entry    
 279:..\..\..\..\..\..\Software\uCOS-III\Source/os_tick.c **** #endif
 280:..\..\..\..\..\..\Software\uCOS-III\Source/os_tick.c ****                 }
 281:..\..\..\..\..\..\Software\uCOS-III\Source/os_tick.c **** 
 282:..\..\..\..\..\..\Software\uCOS-III\Source/os_tick.c **** #if (OS_CFG_DYN_TICK_EN == DEF_ENABLED)
 283:..\..\..\..\..\..\Software\uCOS-III\Source/os_tick.c ****                 if (tick_step < OSTickCtrStep) {
 284:..\..\..\..\..\..\Software\uCOS-III\Source/os_tick.c ****                     OSTickCtrStep = tick_step;
 285:..\..\..\..\..\..\Software\uCOS-III\Source/os_tick.c ****                     BSP_OS_TickNextSet(tick_step);
 286:..\..\..\..\..\..\Software\uCOS-III\Source/os_tick.c ****                 }
 287:..\..\..\..\..\..\Software\uCOS-III\Source/os_tick.c **** #endif
 288:..\..\..\..\..\..\Software\uCOS-III\Source/os_tick.c **** 
 289:..\..\..\..\..\..\Software\uCOS-III\Source/os_tick.c ****                 return;
 384              		.loc 1 289 0
 385 009a 43E0     		b	.L14
 386              	.L19:
 269:..\..\..\..\..\..\Software\uCOS-III\Source/os_tick.c ****                     p_tcb->TickRemain   = remain;               /* Store remaining time            
 387              		.loc 1 269 0
 388 009c BB69     		ldr	r3, [r7, #24]
 389 009e DB69     		ldr	r3, [r3, #28]
 390 00a0 FB61     		str	r3, [r7, #28]
ARM GAS  C:\Users\ADMINI~1\AppData\Local\Temp\cc8eYrCa.s 			page 13


 270:..\..\..\..\..\..\Software\uCOS-III\Source/os_tick.c ****                     p_tcb->TickPrevPtr  = p_tcb1;
 391              		.loc 1 270 0
 392 00a2 BB68     		ldr	r3, [r7, #8]
 393 00a4 7A69     		ldr	r2, [r7, #20]
 394 00a6 1A65     		str	r2, [r3, #80]
 271:..\..\..\..\..\..\Software\uCOS-III\Source/os_tick.c ****                     p_tcb->TickNextPtr  = p_tcb2;    
 395              		.loc 1 271 0
 396 00a8 BB68     		ldr	r3, [r7, #8]
 397 00aa FA69     		ldr	r2, [r7, #28]
 398 00ac DA61     		str	r2, [r3, #28]
 272:..\..\..\..\..\..\Software\uCOS-III\Source/os_tick.c ****                     p_tcb->TickListPtr  = p_list;               /* TCB points to this list         
 399              		.loc 1 272 0
 400 00ae BB68     		ldr	r3, [r7, #8]
 401 00b0 BA69     		ldr	r2, [r7, #24]
 402 00b2 9A61     		str	r2, [r3, #24]
 273:..\..\..\..\..\..\Software\uCOS-III\Source/os_tick.c ****                     p_tcb2->TickRemain -= remain;               /* Reduce time of next entry in the
 403              		.loc 1 273 0
 404 00b4 BB68     		ldr	r3, [r7, #8]
 405 00b6 FA68     		ldr	r2, [r7, #12]
 406 00b8 1A62     		str	r2, [r3, #32]
 274:..\..\..\..\..\..\Software\uCOS-III\Source/os_tick.c ****                     p_tcb2->TickPrevPtr = p_tcb;
 407              		.loc 1 274 0
 408 00ba BB69     		ldr	r3, [r7, #24]
 409 00bc 1A6D     		ldr	r2, [r3, #80]
 410 00be 7B69     		ldr	r3, [r7, #20]
 411 00c0 D21A     		subs	r2, r2, r3
 412 00c2 BB69     		ldr	r3, [r7, #24]
 413 00c4 1A65     		str	r2, [r3, #80]
 275:..\..\..\..\..\..\Software\uCOS-III\Source/os_tick.c ****                     p_tcb1->TickNextPtr = p_tcb;
 414              		.loc 1 275 0
 415 00c6 BB69     		ldr	r3, [r7, #24]
 416 00c8 BA68     		ldr	r2, [r7, #8]
 417 00ca DA61     		str	r2, [r3, #28]
 276:..\..\..\..\..\..\Software\uCOS-III\Source/os_tick.c **** #if (OS_CFG_DBG_EN == DEF_ENABLED)
 418              		.loc 1 276 0
 419 00cc FB69     		ldr	r3, [r7, #28]
 420 00ce BA68     		ldr	r2, [r7, #8]
 421 00d0 9A61     		str	r2, [r3, #24]
 278:..\..\..\..\..\..\Software\uCOS-III\Source/os_tick.c **** #endif
 422              		.loc 1 278 0
 423 00d2 FB68     		ldr	r3, [r7, #12]
 424 00d4 9B88     		ldrh	r3, [r3, #4]
 425 00d6 0133     		adds	r3, r3, #1
 426 00d8 9AB2     		uxth	r2, r3
 427 00da FB68     		ldr	r3, [r7, #12]
 428 00dc 9A80     		strh	r2, [r3, #4]
 429              		.loc 1 289 0
 430 00de 21E0     		b	.L14
 431              	.L18:
 290:..\..\..\..\..\..\Software\uCOS-III\Source/os_tick.c ****             } else {
 291:..\..\..\..\..\..\Software\uCOS-III\Source/os_tick.c ****                 remain -= p_tcb2->TickRemain;                   /* Point to the next TCB in the lis
 432              		.loc 1 291 0
 433 00e0 BB69     		ldr	r3, [r7, #24]
 434 00e2 1B6D     		ldr	r3, [r3, #80]
 435 00e4 7A69     		ldr	r2, [r7, #20]
 436 00e6 D31A     		subs	r3, r2, r3
 437 00e8 7B61     		str	r3, [r7, #20]
ARM GAS  C:\Users\ADMINI~1\AppData\Local\Temp\cc8eYrCa.s 			page 14


 292:..\..\..\..\..\..\Software\uCOS-III\Source/os_tick.c ****                 p_tcb1  = p_tcb2;
 438              		.loc 1 292 0
 439 00ea BB69     		ldr	r3, [r7, #24]
 440 00ec FB61     		str	r3, [r7, #28]
 293:..\..\..\..\..\..\Software\uCOS-III\Source/os_tick.c ****                 p_tcb2  = p_tcb2->TickNextPtr;
 441              		.loc 1 293 0
 442 00ee BB69     		ldr	r3, [r7, #24]
 443 00f0 9B69     		ldr	r3, [r3, #24]
 444 00f2 BB61     		str	r3, [r7, #24]
 445              	.L17:
 252:..\..\..\..\..\..\Software\uCOS-III\Source/os_tick.c ****             if (remain <= p_tcb2->TickRemain) {
 446              		.loc 1 252 0
 447 00f4 BB69     		ldr	r3, [r7, #24]
 448 00f6 002B     		cmp	r3, #0
 449 00f8 A8D1     		bne	.L21
 294:..\..\..\..\..\..\Software\uCOS-III\Source/os_tick.c ****             }                 
 295:..\..\..\..\..\..\Software\uCOS-III\Source/os_tick.c ****         }
 296:..\..\..\..\..\..\Software\uCOS-III\Source/os_tick.c ****         p_tcb->TickRemain   = remain;                       
 450              		.loc 1 296 0
 451 00fa BB68     		ldr	r3, [r7, #8]
 452 00fc 7A69     		ldr	r2, [r7, #20]
 453 00fe 1A65     		str	r2, [r3, #80]
 297:..\..\..\..\..\..\Software\uCOS-III\Source/os_tick.c ****         p_tcb->TickPrevPtr  = p_tcb1;
 454              		.loc 1 297 0
 455 0100 BB68     		ldr	r3, [r7, #8]
 456 0102 FA69     		ldr	r2, [r7, #28]
 457 0104 DA61     		str	r2, [r3, #28]
 298:..\..\..\..\..\..\Software\uCOS-III\Source/os_tick.c ****         p_tcb->TickNextPtr  = DEF_NULL;
 458              		.loc 1 298 0
 459 0106 BB68     		ldr	r3, [r7, #8]
 460 0108 0022     		movs	r2, #0
 461 010a 9A61     		str	r2, [r3, #24]
 299:..\..\..\..\..\..\Software\uCOS-III\Source/os_tick.c ****         p_tcb->TickListPtr  = p_list;                           /* Link the list to the TCB        
 462              		.loc 1 299 0
 463 010c BB68     		ldr	r3, [r7, #8]
 464 010e FA68     		ldr	r2, [r7, #12]
 465 0110 1A62     		str	r2, [r3, #32]
 300:..\..\..\..\..\..\Software\uCOS-III\Source/os_tick.c ****         p_tcb1->TickNextPtr = p_tcb;
 466              		.loc 1 300 0
 467 0112 FB69     		ldr	r3, [r7, #28]
 468 0114 BA68     		ldr	r2, [r7, #8]
 469 0116 9A61     		str	r2, [r3, #24]
 301:..\..\..\..\..\..\Software\uCOS-III\Source/os_tick.c **** #if (OS_CFG_DBG_EN == DEF_ENABLED)
 302:..\..\..\..\..\..\Software\uCOS-III\Source/os_tick.c ****         p_list->NbrEntries++;                                   /* List contains an extra entry    
 470              		.loc 1 302 0
 471 0118 FB68     		ldr	r3, [r7, #12]
 472 011a 9B88     		ldrh	r3, [r3, #4]
 473 011c 0133     		adds	r3, r3, #1
 474 011e 9AB2     		uxth	r2, r3
 475 0120 FB68     		ldr	r3, [r7, #12]
 476 0122 9A80     		strh	r2, [r3, #4]
 477              	.L14:
 303:..\..\..\..\..\..\Software\uCOS-III\Source/os_tick.c **** #endif
 304:..\..\..\..\..\..\Software\uCOS-III\Source/os_tick.c ****     }
 305:..\..\..\..\..\..\Software\uCOS-III\Source/os_tick.c **** 
 306:..\..\..\..\..\..\Software\uCOS-III\Source/os_tick.c **** #if (OS_CFG_DYN_TICK_EN == DEF_ENABLED)
 307:..\..\..\..\..\..\Software\uCOS-III\Source/os_tick.c ****     if (tick_step < OSTickCtrStep) {
ARM GAS  C:\Users\ADMINI~1\AppData\Local\Temp\cc8eYrCa.s 			page 15


 308:..\..\..\..\..\..\Software\uCOS-III\Source/os_tick.c ****         OSTickCtrStep = tick_step;
 309:..\..\..\..\..\..\Software\uCOS-III\Source/os_tick.c ****         BSP_OS_TickNextSet(tick_step);
 310:..\..\..\..\..\..\Software\uCOS-III\Source/os_tick.c ****     }
 311:..\..\..\..\..\..\Software\uCOS-III\Source/os_tick.c **** #endif
 312:..\..\..\..\..\..\Software\uCOS-III\Source/os_tick.c **** }
 478              		.loc 1 312 0
 479 0124 BD46     		mov	sp, r7
 480 0126 08B0     		add	sp, sp, #32
 481              		@ sp needed
 482 0128 80BD     		pop	{r7, pc}
 483              		.cfi_endproc
 484              	.LFE2:
 485              		.size	OS_TickListInsert, .-OS_TickListInsert
 486              		.global	__aeabi_uidiv
 487 012a C046     		.section	.text.OS_TickListInsertDly,"ax",%progbits
 488              		.align	2
 489              		.global	OS_TickListInsertDly
 490              		.code	16
 491              		.thumb_func
 492              		.type	OS_TickListInsertDly, %function
 493              	OS_TickListInsertDly:
 494              	.LFB3:
 313:..\..\..\..\..\..\Software\uCOS-III\Source/os_tick.c **** 
 314:..\..\..\..\..\..\Software\uCOS-III\Source/os_tick.c **** /*
 315:..\..\..\..\..\..\Software\uCOS-III\Source/os_tick.c **** ***************************************************************************************************
 316:..\..\..\..\..\..\Software\uCOS-III\Source/os_tick.c **** *                                            ADD TASK TO DELAYED TICK LIST
 317:..\..\..\..\..\..\Software\uCOS-III\Source/os_tick.c **** *
 318:..\..\..\..\..\..\Software\uCOS-III\Source/os_tick.c **** * Description: This function is called to place a task in a list of task waiting for either time to
 319:..\..\..\..\..\..\Software\uCOS-III\Source/os_tick.c **** *
 320:..\..\..\..\..\..\Software\uCOS-III\Source/os_tick.c **** * Arguments  : p_tcb          is a pointer to the OS_TCB of the task to add to the tick list
 321:..\..\..\..\..\..\Software\uCOS-III\Source/os_tick.c **** *              -----
 322:..\..\..\..\..\..\Software\uCOS-III\Source/os_tick.c **** *
 323:..\..\..\..\..\..\Software\uCOS-III\Source/os_tick.c **** *              time           represents either the 'match' value of OSTickCtr or a relative time f
 324:..\..\..\..\..\..\Software\uCOS-III\Source/os_tick.c **** *                             value of OSTickCtr as specified by the 'opt' argument..
 325:..\..\..\..\..\..\Software\uCOS-III\Source/os_tick.c **** *
 326:..\..\..\..\..\..\Software\uCOS-III\Source/os_tick.c **** *                             relative when 'opt' is set to OS_OPT_TIME_DLY
 327:..\..\..\..\..\..\Software\uCOS-III\Source/os_tick.c **** *                             relative when 'opt' is set to OS_OPT_TIME_TIMEOUT
 328:..\..\..\..\..\..\Software\uCOS-III\Source/os_tick.c **** *                             match    when 'opt' is set to OS_OPT_TIME_MATCH
 329:..\..\..\..\..\..\Software\uCOS-III\Source/os_tick.c **** *                             periodic when 'opt' is set to OS_OPT_TIME_PERIODIC
 330:..\..\..\..\..\..\Software\uCOS-III\Source/os_tick.c **** *
 331:..\..\..\..\..\..\Software\uCOS-III\Source/os_tick.c **** *              opt            is an option specifying how to calculate time.  The valid values are:
 332:..\..\..\..\..\..\Software\uCOS-III\Source/os_tick.c **** *              ---
 333:..\..\..\..\..\..\Software\uCOS-III\Source/os_tick.c **** *                                 OS_OPT_TIME_DLY
 334:..\..\..\..\..\..\Software\uCOS-III\Source/os_tick.c **** *                                 OS_OPT_TIME_TIMEOUT
 335:..\..\..\..\..\..\Software\uCOS-III\Source/os_tick.c **** *                                 OS_OPT_TIME_PERIODIC
 336:..\..\..\..\..\..\Software\uCOS-III\Source/os_tick.c **** *                                 OS_OPT_TIME_MATCH
 337:..\..\..\..\..\..\Software\uCOS-III\Source/os_tick.c **** *
 338:..\..\..\..\..\..\Software\uCOS-III\Source/os_tick.c **** *              p_err          is a pointer to a variable that will contain an error code returned b
 339:..\..\..\..\..\..\Software\uCOS-III\Source/os_tick.c **** *              -----
 340:..\..\..\..\..\..\Software\uCOS-III\Source/os_tick.c **** *                                 OS_ERR_NONE           the call was successful and the time delay 
 341:..\..\..\..\..\..\Software\uCOS-III\Source/os_tick.c **** *                                 OS_ERR_TIME_ZERO_DLY  if delay is zero or already occurred.
 342:..\..\..\..\..\..\Software\uCOS-III\Source/os_tick.c **** *
 343:..\..\..\..\..\..\Software\uCOS-III\Source/os_tick.c **** * Returns    : None
 344:..\..\..\..\..\..\Software\uCOS-III\Source/os_tick.c **** *
 345:..\..\..\..\..\..\Software\uCOS-III\Source/os_tick.c **** * Note(s)    : 1) This function is INTERNAL to uC/OS-III and your application MUST NOT call it.
 346:..\..\..\..\..\..\Software\uCOS-III\Source/os_tick.c **** *
 347:..\..\..\..\..\..\Software\uCOS-III\Source/os_tick.c **** *              2) This function is assumed to be called with interrupts disabled.
ARM GAS  C:\Users\ADMINI~1\AppData\Local\Temp\cc8eYrCa.s 			page 16


 348:..\..\..\..\..\..\Software\uCOS-III\Source/os_tick.c **** ***************************************************************************************************
 349:..\..\..\..\..\..\Software\uCOS-III\Source/os_tick.c **** */
 350:..\..\..\..\..\..\Software\uCOS-III\Source/os_tick.c **** 
 351:..\..\..\..\..\..\Software\uCOS-III\Source/os_tick.c **** void  OS_TickListInsertDly (OS_TCB   *p_tcb,
 352:..\..\..\..\..\..\Software\uCOS-III\Source/os_tick.c ****                             OS_TICK   time,
 353:..\..\..\..\..\..\Software\uCOS-III\Source/os_tick.c ****                             OS_OPT    opt,
 354:..\..\..\..\..\..\Software\uCOS-III\Source/os_tick.c ****                             OS_ERR   *p_err)
 355:..\..\..\..\..\..\Software\uCOS-III\Source/os_tick.c **** {
 495              		.loc 1 355 0
 496              		.cfi_startproc
 497              		@ args = 0, pretend = 0, frame = 24
 498              		@ frame_needed = 1, uses_anonymous_args = 0
 499 0000 90B5     		push	{r4, r7, lr}
 500              		.cfi_def_cfa_offset 12
 501              		.cfi_offset 4, -12
 502              		.cfi_offset 7, -8
 503              		.cfi_offset 14, -4
 504 0002 87B0     		sub	sp, sp, #28
 505              		.cfi_def_cfa_offset 40
 506 0004 00AF     		add	r7, sp, #0
 507              		.cfi_def_cfa_register 7
 508 0006 F860     		str	r0, [r7, #12]
 509 0008 B960     		str	r1, [r7, #8]
 510 000a 3B60     		str	r3, [r7]
 511 000c BB1D     		adds	r3, r7, #6
 512 000e 1A80     		strh	r2, [r3]
 356:..\..\..\..\..\..\Software\uCOS-III\Source/os_tick.c ****     OS_TICK   remain;
 357:..\..\..\..\..\..\Software\uCOS-III\Source/os_tick.c ****     OS_TICK   tick_ctr;
 358:..\..\..\..\..\..\Software\uCOS-III\Source/os_tick.c **** 
 359:..\..\..\..\..\..\Software\uCOS-III\Source/os_tick.c **** 
 360:..\..\..\..\..\..\Software\uCOS-III\Source/os_tick.c **** #if (OS_CFG_DYN_TICK_EN == DEF_ENABLED)
 361:..\..\..\..\..\..\Software\uCOS-III\Source/os_tick.c ****     tick_ctr = BSP_OS_TickGet();
 362:..\..\..\..\..\..\Software\uCOS-III\Source/os_tick.c **** #else
 363:..\..\..\..\..\..\Software\uCOS-III\Source/os_tick.c ****     tick_ctr = OSTickCtr;
 513              		.loc 1 363 0
 514 0010 374B     		ldr	r3, .L32
 515 0012 1B68     		ldr	r3, [r3]
 516 0014 3B61     		str	r3, [r7, #16]
 364:..\..\..\..\..\..\Software\uCOS-III\Source/os_tick.c **** #endif
 365:..\..\..\..\..\..\Software\uCOS-III\Source/os_tick.c **** 
 366:..\..\..\..\..\..\Software\uCOS-III\Source/os_tick.c ****     if (opt == OS_OPT_TIME_MATCH) {                             /* MATCH to absolute OSTickCtr valu
 517              		.loc 1 366 0
 518 0016 BB1D     		adds	r3, r7, #6
 519 0018 1B88     		ldrh	r3, [r3]
 520 001a 042B     		cmp	r3, #4
 521 001c 11D1     		bne	.L23
 367:..\..\..\..\..\..\Software\uCOS-III\Source/os_tick.c ****         remain = time - tick_ctr;
 522              		.loc 1 367 0
 523 001e BA68     		ldr	r2, [r7, #8]
 524 0020 3B69     		ldr	r3, [r7, #16]
 525 0022 D31A     		subs	r3, r2, r3
 526 0024 7B61     		str	r3, [r7, #20]
 368:..\..\..\..\..\..\Software\uCOS-III\Source/os_tick.c ****         if ((remain > OS_TICK_TH_RDY) ||                        /* If delay already occurred, ...  
 527              		.loc 1 368 0
 528 0026 7B69     		ldr	r3, [r7, #20]
 529 0028 324A     		ldr	r2, .L32+4
 530 002a 9342     		cmp	r3, r2
ARM GAS  C:\Users\ADMINI~1\AppData\Local\Temp\cc8eYrCa.s 			page 17


 531 002c 02D8     		bhi	.L24
 532              		.loc 1 368 0 is_stmt 0 discriminator 1
 533 002e 7B69     		ldr	r3, [r7, #20]
 534 0030 002B     		cmp	r3, #0
 535 0032 48D1     		bne	.L25
 536              	.L24:
 369:..\..\..\..\..\..\Software\uCOS-III\Source/os_tick.c ****             (remain == 0u)) {
 370:..\..\..\..\..\..\Software\uCOS-III\Source/os_tick.c ****             p_tcb->TickRemain = 0u;
 537              		.loc 1 370 0 is_stmt 1
 538 0034 FB68     		ldr	r3, [r7, #12]
 539 0036 0022     		movs	r2, #0
 540 0038 1A65     		str	r2, [r3, #80]
 371:..\..\..\..\..\..\Software\uCOS-III\Source/os_tick.c ****            *p_err             =  OS_ERR_TIME_ZERO_DLY;          /* ... do NOT delay.               
 541              		.loc 1 371 0
 542 003a 3B68     		ldr	r3, [r7]
 543 003c 2E4A     		ldr	r2, .L32+8
 544 003e 1A80     		strh	r2, [r3]
 372:..\..\..\..\..\..\Software\uCOS-III\Source/os_tick.c ****             return;
 545              		.loc 1 372 0
 546 0040 53E0     		b	.L22
 547              	.L23:
 373:..\..\..\..\..\..\Software\uCOS-III\Source/os_tick.c ****         }
 374:..\..\..\..\..\..\Software\uCOS-III\Source/os_tick.c **** 
 375:..\..\..\..\..\..\Software\uCOS-III\Source/os_tick.c ****     } else if (opt == OS_OPT_TIME_PERIODIC) {                   /* PERIODIC mode.                  
 548              		.loc 1 375 0
 549 0042 BB1D     		adds	r3, r7, #6
 550 0044 1B88     		ldrh	r3, [r3]
 551 0046 082B     		cmp	r3, #8
 552 0048 3BD1     		bne	.L27
 376:..\..\..\..\..\..\Software\uCOS-III\Source/os_tick.c ****         if ((tick_ctr - p_tcb->TickCtrPrev) > time) {
 553              		.loc 1 376 0
 554 004a FB68     		ldr	r3, [r7, #12]
 555 004c 5B6D     		ldr	r3, [r3, #84]
 556 004e 3A69     		ldr	r2, [r7, #16]
 557 0050 D21A     		subs	r2, r2, r3
 558 0052 BB68     		ldr	r3, [r7, #8]
 559 0054 9A42     		cmp	r2, r3
 560 0056 07D9     		bls	.L28
 377:..\..\..\..\..\..\Software\uCOS-III\Source/os_tick.c ****             remain             = time;                          /* ... first time we load .TickCtrP
 561              		.loc 1 377 0
 562 0058 BB68     		ldr	r3, [r7, #8]
 563 005a 7B61     		str	r3, [r7, #20]
 378:..\..\..\..\..\..\Software\uCOS-III\Source/os_tick.c ****             p_tcb->TickCtrPrev = tick_ctr + time;
 564              		.loc 1 378 0
 565 005c 3A69     		ldr	r2, [r7, #16]
 566 005e BB68     		ldr	r3, [r7, #8]
 567 0060 D218     		adds	r2, r2, r3
 568 0062 FB68     		ldr	r3, [r7, #12]
 569 0064 5A65     		str	r2, [r3, #84]
 570 0066 2EE0     		b	.L25
 571              	.L28:
 379:..\..\..\..\..\..\Software\uCOS-III\Source/os_tick.c ****         } else {
 380:..\..\..\..\..\..\Software\uCOS-III\Source/os_tick.c ****             remain = time - (tick_ctr - p_tcb->TickCtrPrev);
 572              		.loc 1 380 0
 573 0068 FB68     		ldr	r3, [r7, #12]
 574 006a 5A6D     		ldr	r2, [r3, #84]
 575 006c 3B69     		ldr	r3, [r7, #16]
ARM GAS  C:\Users\ADMINI~1\AppData\Local\Temp\cc8eYrCa.s 			page 18


 576 006e D21A     		subs	r2, r2, r3
 577 0070 BB68     		ldr	r3, [r7, #8]
 578 0072 D318     		adds	r3, r2, r3
 579 0074 7B61     		str	r3, [r7, #20]
 381:..\..\..\..\..\..\Software\uCOS-III\Source/os_tick.c ****             if ((remain > OS_TICK_TH_RDY) ||                    /* If delay time has already passed
 580              		.loc 1 381 0
 581 0076 7B69     		ldr	r3, [r7, #20]
 582 0078 1E4A     		ldr	r2, .L32+4
 583 007a 9342     		cmp	r3, r2
 584 007c 02D8     		bhi	.L30
 585              		.loc 1 381 0 is_stmt 0 discriminator 1
 586 007e 7B69     		ldr	r3, [r7, #20]
 587 0080 002B     		cmp	r3, #0
 588 0082 17D1     		bne	.L31
 589              	.L30:
 382:..\..\..\..\..\..\Software\uCOS-III\Source/os_tick.c ****                 (remain == 0u)) {
 383:..\..\..\..\..\..\Software\uCOS-III\Source/os_tick.c ****                 p_tcb->TickCtrPrev += time + time * ((tick_ctr - p_tcb->TickCtrPrev) / time); /* Tr
 590              		.loc 1 383 0 is_stmt 1
 591 0084 FB68     		ldr	r3, [r7, #12]
 592 0086 5C6D     		ldr	r4, [r3, #84]
 593 0088 FB68     		ldr	r3, [r7, #12]
 594 008a 5B6D     		ldr	r3, [r3, #84]
 595 008c 3A69     		ldr	r2, [r7, #16]
 596 008e D31A     		subs	r3, r2, r3
 597 0090 B968     		ldr	r1, [r7, #8]
 598 0092 1800     		movs	r0, r3
 599 0094 FFF7FEFF 		bl	__aeabi_uidiv
 600 0098 0300     		movs	r3, r0
 601 009a 0133     		adds	r3, r3, #1
 602 009c BA68     		ldr	r2, [r7, #8]
 603 009e 5343     		muls	r3, r2
 604 00a0 E218     		adds	r2, r4, r3
 605 00a2 FB68     		ldr	r3, [r7, #12]
 606 00a4 5A65     		str	r2, [r3, #84]
 384:..\..\..\..\..\..\Software\uCOS-III\Source/os_tick.c ****                 p_tcb->TickRemain   = 0u;
 607              		.loc 1 384 0
 608 00a6 FB68     		ldr	r3, [r7, #12]
 609 00a8 0022     		movs	r2, #0
 610 00aa 1A65     		str	r2, [r3, #80]
 385:..\..\..\..\..\..\Software\uCOS-III\Source/os_tick.c ****                *p_err               =  OS_ERR_TIME_ZERO_DLY;    /* ... do NOT delay.               
 611              		.loc 1 385 0
 612 00ac 3B68     		ldr	r3, [r7]
 613 00ae 124A     		ldr	r2, .L32+8
 614 00b0 1A80     		strh	r2, [r3]
 386:..\..\..\..\..\..\Software\uCOS-III\Source/os_tick.c ****                 return;
 615              		.loc 1 386 0
 616 00b2 1AE0     		b	.L22
 617              	.L31:
 387:..\..\..\..\..\..\Software\uCOS-III\Source/os_tick.c ****             }
 388:..\..\..\..\..\..\Software\uCOS-III\Source/os_tick.c ****             p_tcb->TickCtrPrev += time;
 618              		.loc 1 388 0
 619 00b4 FB68     		ldr	r3, [r7, #12]
 620 00b6 5A6D     		ldr	r2, [r3, #84]
 621 00b8 BB68     		ldr	r3, [r7, #8]
 622 00ba D218     		adds	r2, r2, r3
 623 00bc FB68     		ldr	r3, [r7, #12]
 624 00be 5A65     		str	r2, [r3, #84]
ARM GAS  C:\Users\ADMINI~1\AppData\Local\Temp\cc8eYrCa.s 			page 19


 625 00c0 01E0     		b	.L25
 626              	.L27:
 389:..\..\..\..\..\..\Software\uCOS-III\Source/os_tick.c ****         }
 390:..\..\..\..\..\..\Software\uCOS-III\Source/os_tick.c **** 
 391:..\..\..\..\..\..\Software\uCOS-III\Source/os_tick.c ****     } else {                                                    /* RELATIVE time delay mode        
 392:..\..\..\..\..\..\Software\uCOS-III\Source/os_tick.c ****         remain = time;
 627              		.loc 1 392 0
 628 00c2 BB68     		ldr	r3, [r7, #8]
 629 00c4 7B61     		str	r3, [r7, #20]
 630              	.L25:
 393:..\..\..\..\..\..\Software\uCOS-III\Source/os_tick.c ****     }
 394:..\..\..\..\..\..\Software\uCOS-III\Source/os_tick.c **** 
 395:..\..\..\..\..\..\Software\uCOS-III\Source/os_tick.c ****    *p_err = OS_ERR_NONE;
 631              		.loc 1 395 0
 632 00c6 3B68     		ldr	r3, [r7]
 633 00c8 0022     		movs	r2, #0
 634 00ca 1A80     		strh	r2, [r3]
 396:..\..\..\..\..\..\Software\uCOS-III\Source/os_tick.c **** 
 397:..\..\..\..\..\..\Software\uCOS-III\Source/os_tick.c ****     p_tcb->TaskState = OS_TASK_STATE_DLY;
 635              		.loc 1 397 0
 636 00cc FB68     		ldr	r3, [r7, #12]
 637 00ce 3622     		movs	r2, #54
 638 00d0 0121     		movs	r1, #1
 639 00d2 9954     		strb	r1, [r3, r2]
 398:..\..\..\..\..\..\Software\uCOS-III\Source/os_tick.c ****     OS_TickListInsert(&OSTickListDly, p_tcb, remain + (tick_ctr - OSTickCtr));
 640              		.loc 1 398 0
 641 00d4 064B     		ldr	r3, .L32
 642 00d6 1B68     		ldr	r3, [r3]
 643 00d8 3A69     		ldr	r2, [r7, #16]
 644 00da D21A     		subs	r2, r2, r3
 645 00dc 7B69     		ldr	r3, [r7, #20]
 646 00de D218     		adds	r2, r2, r3
 647 00e0 F968     		ldr	r1, [r7, #12]
 648 00e2 064B     		ldr	r3, .L32+12
 649 00e4 1800     		movs	r0, r3
 650 00e6 FFF7FEFF 		bl	OS_TickListInsert
 651              	.L22:
 399:..\..\..\..\..\..\Software\uCOS-III\Source/os_tick.c **** }
 652              		.loc 1 399 0
 653 00ea BD46     		mov	sp, r7
 654 00ec 07B0     		add	sp, sp, #28
 655              		@ sp needed
 656 00ee 90BD     		pop	{r4, r7, pc}
 657              	.L33:
 658              		.align	2
 659              	.L32:
 660 00f0 00000000 		.word	OSTickCtr
 661 00f4 0000FFFF 		.word	-65536
 662 00f8 7E720000 		.word	29310
 663 00fc 00000000 		.word	OSTickListDly
 664              		.cfi_endproc
 665              	.LFE3:
 666              		.size	OS_TickListInsertDly, .-OS_TickListInsertDly
 667              		.section	.text.OS_TickListRemove,"ax",%progbits
 668              		.align	2
 669              		.global	OS_TickListRemove
 670              		.code	16
ARM GAS  C:\Users\ADMINI~1\AppData\Local\Temp\cc8eYrCa.s 			page 20


 671              		.thumb_func
 672              		.type	OS_TickListRemove, %function
 673              	OS_TickListRemove:
 674              	.LFB4:
 400:..\..\..\..\..\..\Software\uCOS-III\Source/os_tick.c **** 
 401:..\..\..\..\..\..\Software\uCOS-III\Source/os_tick.c **** /*
 402:..\..\..\..\..\..\Software\uCOS-III\Source/os_tick.c **** ***************************************************************************************************
 403:..\..\..\..\..\..\Software\uCOS-III\Source/os_tick.c **** *                                         REMOVE A TASK FROM THE TICK LIST
 404:..\..\..\..\..\..\Software\uCOS-III\Source/os_tick.c **** *
 405:..\..\..\..\..\..\Software\uCOS-III\Source/os_tick.c **** * Description: This function is called to remove a task from the tick list
 406:..\..\..\..\..\..\Software\uCOS-III\Source/os_tick.c **** *
 407:..\..\..\..\..\..\Software\uCOS-III\Source/os_tick.c **** * Arguments  : p_tcb          Is a pointer to the OS_TCB to remove.
 408:..\..\..\..\..\..\Software\uCOS-III\Source/os_tick.c **** *              -----
 409:..\..\..\..\..\..\Software\uCOS-III\Source/os_tick.c **** *
 410:..\..\..\..\..\..\Software\uCOS-III\Source/os_tick.c **** * Returns    : none
 411:..\..\..\..\..\..\Software\uCOS-III\Source/os_tick.c **** *
 412:..\..\..\..\..\..\Software\uCOS-III\Source/os_tick.c **** * Note(s)    : 1) This function is INTERNAL to uC/OS-III and your application MUST NOT call it.
 413:..\..\..\..\..\..\Software\uCOS-III\Source/os_tick.c **** *
 414:..\..\..\..\..\..\Software\uCOS-III\Source/os_tick.c **** *              2) This function is assumed to be called with interrupts disabled.
 415:..\..\..\..\..\..\Software\uCOS-III\Source/os_tick.c **** ***************************************************************************************************
 416:..\..\..\..\..\..\Software\uCOS-III\Source/os_tick.c **** */
 417:..\..\..\..\..\..\Software\uCOS-III\Source/os_tick.c **** 
 418:..\..\..\..\..\..\Software\uCOS-III\Source/os_tick.c **** void  OS_TickListRemove (OS_TCB  *p_tcb)
 419:..\..\..\..\..\..\Software\uCOS-III\Source/os_tick.c **** {
 675              		.loc 1 419 0
 676              		.cfi_startproc
 677              		@ args = 0, pretend = 0, frame = 24
 678              		@ frame_needed = 1, uses_anonymous_args = 0
 679 0000 80B5     		push	{r7, lr}
 680              		.cfi_def_cfa_offset 8
 681              		.cfi_offset 7, -8
 682              		.cfi_offset 14, -4
 683 0002 86B0     		sub	sp, sp, #24
 684              		.cfi_def_cfa_offset 32
 685 0004 00AF     		add	r7, sp, #0
 686              		.cfi_def_cfa_register 7
 687 0006 7860     		str	r0, [r7, #4]
 420:..\..\..\..\..\..\Software\uCOS-III\Source/os_tick.c ****     OS_TICK_LIST  *p_list;
 421:..\..\..\..\..\..\Software\uCOS-III\Source/os_tick.c ****     OS_TCB        *p_tcb1;
 422:..\..\..\..\..\..\Software\uCOS-III\Source/os_tick.c ****     OS_TCB        *p_tcb2;
 423:..\..\..\..\..\..\Software\uCOS-III\Source/os_tick.c **** 
 424:..\..\..\..\..\..\Software\uCOS-III\Source/os_tick.c **** 
 425:..\..\..\..\..\..\Software\uCOS-III\Source/os_tick.c ****     p_list = p_tcb->TickListPtr;
 688              		.loc 1 425 0
 689 0008 7B68     		ldr	r3, [r7, #4]
 690 000a 1B6A     		ldr	r3, [r3, #32]
 691 000c 7B61     		str	r3, [r7, #20]
 426:..\..\..\..\..\..\Software\uCOS-III\Source/os_tick.c ****     p_tcb1 = p_tcb->TickPrevPtr;
 692              		.loc 1 426 0
 693 000e 7B68     		ldr	r3, [r7, #4]
 694 0010 DB69     		ldr	r3, [r3, #28]
 695 0012 3B61     		str	r3, [r7, #16]
 427:..\..\..\..\..\..\Software\uCOS-III\Source/os_tick.c ****     p_tcb2 = p_tcb->TickNextPtr;
 696              		.loc 1 427 0
 697 0014 7B68     		ldr	r3, [r7, #4]
 698 0016 9B69     		ldr	r3, [r3, #24]
 699 0018 FB60     		str	r3, [r7, #12]
ARM GAS  C:\Users\ADMINI~1\AppData\Local\Temp\cc8eYrCa.s 			page 21


 428:..\..\..\..\..\..\Software\uCOS-III\Source/os_tick.c ****     if (p_tcb1 == DEF_NULL) {
 700              		.loc 1 428 0
 701 001a 3B69     		ldr	r3, [r7, #16]
 702 001c 002B     		cmp	r3, #0
 703 001e 2CD1     		bne	.L35
 429:..\..\..\..\..\..\Software\uCOS-III\Source/os_tick.c ****         if (p_tcb2 == DEF_NULL) {                               /* Remove ONLY entry in the list?  
 704              		.loc 1 429 0
 705 0020 FB68     		ldr	r3, [r7, #12]
 706 0022 002B     		cmp	r3, #0
 707 0024 0CD1     		bne	.L36
 430:..\..\..\..\..\..\Software\uCOS-III\Source/os_tick.c ****             p_list->TCB_Ptr    = DEF_NULL;
 708              		.loc 1 430 0
 709 0026 7B69     		ldr	r3, [r7, #20]
 710 0028 0022     		movs	r2, #0
 711 002a 1A60     		str	r2, [r3]
 431:..\..\..\..\..\..\Software\uCOS-III\Source/os_tick.c **** #if (OS_CFG_DBG_EN == DEF_ENABLED)
 432:..\..\..\..\..\..\Software\uCOS-III\Source/os_tick.c ****             p_list->NbrEntries = 0u;
 712              		.loc 1 432 0
 713 002c 7B69     		ldr	r3, [r7, #20]
 714 002e 0022     		movs	r2, #0
 715 0030 9A80     		strh	r2, [r3, #4]
 433:..\..\..\..\..\..\Software\uCOS-III\Source/os_tick.c **** #endif
 434:..\..\..\..\..\..\Software\uCOS-III\Source/os_tick.c ****             p_tcb->TickRemain   = 0u;
 716              		.loc 1 434 0
 717 0032 7B68     		ldr	r3, [r7, #4]
 718 0034 0022     		movs	r2, #0
 719 0036 1A65     		str	r2, [r3, #80]
 435:..\..\..\..\..\..\Software\uCOS-III\Source/os_tick.c ****             p_tcb->TickListPtr  = DEF_NULL;
 720              		.loc 1 435 0
 721 0038 7B68     		ldr	r3, [r7, #4]
 722 003a 0022     		movs	r2, #0
 723 003c 1A62     		str	r2, [r3, #32]
 436:..\..\..\..\..\..\Software\uCOS-III\Source/os_tick.c ****         } else {
 437:..\..\..\..\..\..\Software\uCOS-III\Source/os_tick.c ****             p_tcb2->TickPrevPtr = DEF_NULL;
 438:..\..\..\..\..\..\Software\uCOS-III\Source/os_tick.c ****             p_tcb2->TickRemain += p_tcb->TickRemain;            /* Add back the ticks to the delta 
 439:..\..\..\..\..\..\Software\uCOS-III\Source/os_tick.c ****             p_list->TCB_Ptr    = p_tcb2;
 440:..\..\..\..\..\..\Software\uCOS-III\Source/os_tick.c **** #if (OS_CFG_DBG_EN == DEF_ENABLED)
 441:..\..\..\..\..\..\Software\uCOS-III\Source/os_tick.c ****             p_list->NbrEntries--;
 442:..\..\..\..\..\..\Software\uCOS-III\Source/os_tick.c **** #endif
 443:..\..\..\..\..\..\Software\uCOS-III\Source/os_tick.c ****             p_tcb->TickNextPtr  = DEF_NULL;
 444:..\..\..\..\..\..\Software\uCOS-III\Source/os_tick.c ****             p_tcb->TickRemain   = 0u;
 445:..\..\..\..\..\..\Software\uCOS-III\Source/os_tick.c ****             p_tcb->TickListPtr  = DEF_NULL;
 446:..\..\..\..\..\..\Software\uCOS-III\Source/os_tick.c ****         }
 447:..\..\..\..\..\..\Software\uCOS-III\Source/os_tick.c ****     } else {
 448:..\..\..\..\..\..\Software\uCOS-III\Source/os_tick.c ****         p_tcb1->TickNextPtr = p_tcb2;    
 449:..\..\..\..\..\..\Software\uCOS-III\Source/os_tick.c ****         if (p_tcb2 != DEF_NULL) {
 450:..\..\..\..\..\..\Software\uCOS-III\Source/os_tick.c ****             p_tcb2->TickPrevPtr = p_tcb1;
 451:..\..\..\..\..\..\Software\uCOS-III\Source/os_tick.c ****             p_tcb2->TickRemain += p_tcb->TickRemain;            /* Add back the ticks to the delta 
 452:..\..\..\..\..\..\Software\uCOS-III\Source/os_tick.c ****         }
 453:..\..\..\..\..\..\Software\uCOS-III\Source/os_tick.c ****         p_tcb->TickPrevPtr  = DEF_NULL;
 454:..\..\..\..\..\..\Software\uCOS-III\Source/os_tick.c **** #if (OS_CFG_DBG_EN == DEF_ENABLED)
 455:..\..\..\..\..\..\Software\uCOS-III\Source/os_tick.c ****         p_list->NbrEntries--;
 456:..\..\..\..\..\..\Software\uCOS-III\Source/os_tick.c **** #endif
 457:..\..\..\..\..\..\Software\uCOS-III\Source/os_tick.c ****         p_tcb->TickNextPtr  = DEF_NULL;
 458:..\..\..\..\..\..\Software\uCOS-III\Source/os_tick.c ****         p_tcb->TickRemain   = 0u;
 459:..\..\..\..\..\..\Software\uCOS-III\Source/os_tick.c ****         p_tcb->TickListPtr  = DEF_NULL;
 460:..\..\..\..\..\..\Software\uCOS-III\Source/os_tick.c ****     }
ARM GAS  C:\Users\ADMINI~1\AppData\Local\Temp\cc8eYrCa.s 			page 22


 461:..\..\..\..\..\..\Software\uCOS-III\Source/os_tick.c **** }
 724              		.loc 1 461 0
 725 003e 3EE0     		b	.L40
 726              	.L36:
 437:..\..\..\..\..\..\Software\uCOS-III\Source/os_tick.c ****             p_tcb2->TickRemain += p_tcb->TickRemain;            /* Add back the ticks to the delta 
 727              		.loc 1 437 0
 728 0040 FB68     		ldr	r3, [r7, #12]
 729 0042 0022     		movs	r2, #0
 730 0044 DA61     		str	r2, [r3, #28]
 438:..\..\..\..\..\..\Software\uCOS-III\Source/os_tick.c ****             p_list->TCB_Ptr    = p_tcb2;
 731              		.loc 1 438 0
 732 0046 FB68     		ldr	r3, [r7, #12]
 733 0048 1A6D     		ldr	r2, [r3, #80]
 734 004a 7B68     		ldr	r3, [r7, #4]
 735 004c 1B6D     		ldr	r3, [r3, #80]
 736 004e D218     		adds	r2, r2, r3
 737 0050 FB68     		ldr	r3, [r7, #12]
 738 0052 1A65     		str	r2, [r3, #80]
 439:..\..\..\..\..\..\Software\uCOS-III\Source/os_tick.c **** #if (OS_CFG_DBG_EN == DEF_ENABLED)
 739              		.loc 1 439 0
 740 0054 7B69     		ldr	r3, [r7, #20]
 741 0056 FA68     		ldr	r2, [r7, #12]
 742 0058 1A60     		str	r2, [r3]
 441:..\..\..\..\..\..\Software\uCOS-III\Source/os_tick.c **** #endif
 743              		.loc 1 441 0
 744 005a 7B69     		ldr	r3, [r7, #20]
 745 005c 9B88     		ldrh	r3, [r3, #4]
 746 005e 013B     		subs	r3, r3, #1
 747 0060 9AB2     		uxth	r2, r3
 748 0062 7B69     		ldr	r3, [r7, #20]
 749 0064 9A80     		strh	r2, [r3, #4]
 443:..\..\..\..\..\..\Software\uCOS-III\Source/os_tick.c ****             p_tcb->TickRemain   = 0u;
 750              		.loc 1 443 0
 751 0066 7B68     		ldr	r3, [r7, #4]
 752 0068 0022     		movs	r2, #0
 753 006a 9A61     		str	r2, [r3, #24]
 444:..\..\..\..\..\..\Software\uCOS-III\Source/os_tick.c ****             p_tcb->TickListPtr  = DEF_NULL;
 754              		.loc 1 444 0
 755 006c 7B68     		ldr	r3, [r7, #4]
 756 006e 0022     		movs	r2, #0
 757 0070 1A65     		str	r2, [r3, #80]
 445:..\..\..\..\..\..\Software\uCOS-III\Source/os_tick.c ****         }
 758              		.loc 1 445 0
 759 0072 7B68     		ldr	r3, [r7, #4]
 760 0074 0022     		movs	r2, #0
 761 0076 1A62     		str	r2, [r3, #32]
 762              		.loc 1 461 0
 763 0078 21E0     		b	.L40
 764              	.L35:
 448:..\..\..\..\..\..\Software\uCOS-III\Source/os_tick.c ****         if (p_tcb2 != DEF_NULL) {
 765              		.loc 1 448 0
 766 007a 3B69     		ldr	r3, [r7, #16]
 767 007c FA68     		ldr	r2, [r7, #12]
 768 007e 9A61     		str	r2, [r3, #24]
 449:..\..\..\..\..\..\Software\uCOS-III\Source/os_tick.c ****             p_tcb2->TickPrevPtr = p_tcb1;
 769              		.loc 1 449 0
 770 0080 FB68     		ldr	r3, [r7, #12]
ARM GAS  C:\Users\ADMINI~1\AppData\Local\Temp\cc8eYrCa.s 			page 23


 771 0082 002B     		cmp	r3, #0
 772 0084 09D0     		beq	.L39
 450:..\..\..\..\..\..\Software\uCOS-III\Source/os_tick.c ****             p_tcb2->TickRemain += p_tcb->TickRemain;            /* Add back the ticks to the delta 
 773              		.loc 1 450 0
 774 0086 FB68     		ldr	r3, [r7, #12]
 775 0088 3A69     		ldr	r2, [r7, #16]
 776 008a DA61     		str	r2, [r3, #28]
 451:..\..\..\..\..\..\Software\uCOS-III\Source/os_tick.c ****         }
 777              		.loc 1 451 0
 778 008c FB68     		ldr	r3, [r7, #12]
 779 008e 1A6D     		ldr	r2, [r3, #80]
 780 0090 7B68     		ldr	r3, [r7, #4]
 781 0092 1B6D     		ldr	r3, [r3, #80]
 782 0094 D218     		adds	r2, r2, r3
 783 0096 FB68     		ldr	r3, [r7, #12]
 784 0098 1A65     		str	r2, [r3, #80]
 785              	.L39:
 453:..\..\..\..\..\..\Software\uCOS-III\Source/os_tick.c **** #if (OS_CFG_DBG_EN == DEF_ENABLED)
 786              		.loc 1 453 0
 787 009a 7B68     		ldr	r3, [r7, #4]
 788 009c 0022     		movs	r2, #0
 789 009e DA61     		str	r2, [r3, #28]
 455:..\..\..\..\..\..\Software\uCOS-III\Source/os_tick.c **** #endif
 790              		.loc 1 455 0
 791 00a0 7B69     		ldr	r3, [r7, #20]
 792 00a2 9B88     		ldrh	r3, [r3, #4]
 793 00a4 013B     		subs	r3, r3, #1
 794 00a6 9AB2     		uxth	r2, r3
 795 00a8 7B69     		ldr	r3, [r7, #20]
 796 00aa 9A80     		strh	r2, [r3, #4]
 457:..\..\..\..\..\..\Software\uCOS-III\Source/os_tick.c ****         p_tcb->TickRemain   = 0u;
 797              		.loc 1 457 0
 798 00ac 7B68     		ldr	r3, [r7, #4]
 799 00ae 0022     		movs	r2, #0
 800 00b0 9A61     		str	r2, [r3, #24]
 458:..\..\..\..\..\..\Software\uCOS-III\Source/os_tick.c ****         p_tcb->TickListPtr  = DEF_NULL;
 801              		.loc 1 458 0
 802 00b2 7B68     		ldr	r3, [r7, #4]
 803 00b4 0022     		movs	r2, #0
 804 00b6 1A65     		str	r2, [r3, #80]
 459:..\..\..\..\..\..\Software\uCOS-III\Source/os_tick.c ****     }
 805              		.loc 1 459 0
 806 00b8 7B68     		ldr	r3, [r7, #4]
 807 00ba 0022     		movs	r2, #0
 808 00bc 1A62     		str	r2, [r3, #32]
 809              	.L40:
 810              		.loc 1 461 0
 811 00be C046     		nop
 812 00c0 BD46     		mov	sp, r7
 813 00c2 06B0     		add	sp, sp, #24
 814              		@ sp needed
 815 00c4 80BD     		pop	{r7, pc}
 816              		.cfi_endproc
 817              	.LFE4:
 818              		.size	OS_TickListRemove, .-OS_TickListRemove
 819 00c6 C046     		.section	.text.OS_TickListUpdateDly,"ax",%progbits
 820              		.align	2
ARM GAS  C:\Users\ADMINI~1\AppData\Local\Temp\cc8eYrCa.s 			page 24


 821              		.code	16
 822              		.thumb_func
 823              		.type	OS_TickListUpdateDly, %function
 824              	OS_TickListUpdateDly:
 825              	.LFB5:
 462:..\..\..\..\..\..\Software\uCOS-III\Source/os_tick.c **** 
 463:..\..\..\..\..\..\Software\uCOS-III\Source/os_tick.c **** /*
 464:..\..\..\..\..\..\Software\uCOS-III\Source/os_tick.c **** ***************************************************************************************************
 465:..\..\..\..\..\..\Software\uCOS-III\Source/os_tick.c **** *                                           UPDATE THE LIST OF TASKS DELAYED
 466:..\..\..\..\..\..\Software\uCOS-III\Source/os_tick.c **** *
 467:..\..\..\..\..\..\Software\uCOS-III\Source/os_tick.c **** * Description: This function updates the delta list which contains tasks that have been delayed.
 468:..\..\..\..\..\..\Software\uCOS-III\Source/os_tick.c **** *
 469:..\..\..\..\..\..\Software\uCOS-III\Source/os_tick.c **** * Arguments  : non
 470:..\..\..\..\..\..\Software\uCOS-III\Source/os_tick.c **** *
 471:..\..\..\..\..\..\Software\uCOS-III\Source/os_tick.c **** * Returns    : none
 472:..\..\..\..\..\..\Software\uCOS-III\Source/os_tick.c **** *
 473:..\..\..\..\..\..\Software\uCOS-III\Source/os_tick.c **** * Note(s)    : 1) This function is INTERNAL to uC/OS-III and your application MUST NOT call it.
 474:..\..\..\..\..\..\Software\uCOS-III\Source/os_tick.c **** ***************************************************************************************************
 475:..\..\..\..\..\..\Software\uCOS-III\Source/os_tick.c **** */
 476:..\..\..\..\..\..\Software\uCOS-III\Source/os_tick.c **** 
 477:..\..\..\..\..\..\Software\uCOS-III\Source/os_tick.c **** static  CPU_TS  OS_TickListUpdateDly (OS_TICK ticks)
 478:..\..\..\..\..\..\Software\uCOS-III\Source/os_tick.c **** {
 826              		.loc 1 478 0
 827              		.cfi_startproc
 828              		@ args = 0, pretend = 0, frame = 32
 829              		@ frame_needed = 1, uses_anonymous_args = 0
 830 0000 80B5     		push	{r7, lr}
 831              		.cfi_def_cfa_offset 8
 832              		.cfi_offset 7, -8
 833              		.cfi_offset 14, -4
 834 0002 88B0     		sub	sp, sp, #32
 835              		.cfi_def_cfa_offset 40
 836 0004 00AF     		add	r7, sp, #0
 837              		.cfi_def_cfa_register 7
 838 0006 7860     		str	r0, [r7, #4]
 479:..\..\..\..\..\..\Software\uCOS-III\Source/os_tick.c ****     OS_TCB       *p_tcb;
 480:..\..\..\..\..\..\Software\uCOS-III\Source/os_tick.c ****     OS_TICK_LIST *p_list;
 481:..\..\..\..\..\..\Software\uCOS-III\Source/os_tick.c **** #if (OS_CFG_TS_EN == DEF_ENABLED)
 482:..\..\..\..\..\..\Software\uCOS-III\Source/os_tick.c ****     CPU_TS        ts_start;
 483:..\..\..\..\..\..\Software\uCOS-III\Source/os_tick.c ****     CPU_TS        ts_delta_dly;
 484:..\..\..\..\..\..\Software\uCOS-III\Source/os_tick.c **** #endif
 485:..\..\..\..\..\..\Software\uCOS-III\Source/os_tick.c **** #if (OS_CFG_DBG_EN == DEF_ENABLED)
 486:..\..\..\..\..\..\Software\uCOS-III\Source/os_tick.c ****     OS_OBJ_QTY    nbr_updated;
 487:..\..\..\..\..\..\Software\uCOS-III\Source/os_tick.c **** #endif
 488:..\..\..\..\..\..\Software\uCOS-III\Source/os_tick.c ****                                                                         
 489:..\..\..\..\..\..\Software\uCOS-III\Source/os_tick.c ****                                                                 /*  ========= UPDATE TASKS WAITING 
 490:..\..\..\..\..\..\Software\uCOS-III\Source/os_tick.c **** #if (OS_CFG_TS_EN == DEF_ENABLED)
 491:..\..\..\..\..\..\Software\uCOS-III\Source/os_tick.c ****     ts_start    = OS_TS_GET();
 839              		.loc 1 491 0
 840 0008 FFF7FEFF 		bl	CPU_TS_TmrRd
 841 000c 0300     		movs	r3, r0
 842 000e 7B61     		str	r3, [r7, #20]
 492:..\..\..\..\..\..\Software\uCOS-III\Source/os_tick.c **** #endif
 493:..\..\..\..\..\..\Software\uCOS-III\Source/os_tick.c **** #if (OS_CFG_DBG_EN == DEF_ENABLED)
 494:..\..\..\..\..\..\Software\uCOS-III\Source/os_tick.c ****     nbr_updated = (OS_OBJ_QTY)0u;
 843              		.loc 1 494 0
 844 0010 1A23     		movs	r3, #26
ARM GAS  C:\Users\ADMINI~1\AppData\Local\Temp\cc8eYrCa.s 			page 25


 845 0012 FB18     		adds	r3, r7, r3
 846 0014 0022     		movs	r2, #0
 847 0016 1A80     		strh	r2, [r3]
 495:..\..\..\..\..\..\Software\uCOS-III\Source/os_tick.c **** #endif
 496:..\..\..\..\..\..\Software\uCOS-III\Source/os_tick.c ****     p_list      = &OSTickListDly;
 848              		.loc 1 496 0
 849 0018 3C4B     		ldr	r3, .L52
 850 001a 3B61     		str	r3, [r7, #16]
 497:..\..\..\..\..\..\Software\uCOS-III\Source/os_tick.c ****     p_tcb       = p_list->TCB_Ptr;                                      
 851              		.loc 1 497 0
 852 001c 3B69     		ldr	r3, [r7, #16]
 853 001e 1B68     		ldr	r3, [r3]
 854 0020 FB61     		str	r3, [r7, #28]
 498:..\..\..\..\..\..\Software\uCOS-III\Source/os_tick.c ****     if (p_tcb != DEF_NULL) {
 855              		.loc 1 498 0
 856 0022 FB69     		ldr	r3, [r7, #28]
 857 0024 002B     		cmp	r3, #0
 858 0026 61D0     		beq	.L42
 499:..\..\..\..\..\..\Software\uCOS-III\Source/os_tick.c ****         if (p_tcb->TickRemain <= ticks) {
 859              		.loc 1 499 0
 860 0028 FB69     		ldr	r3, [r7, #28]
 861 002a 1A6D     		ldr	r2, [r3, #80]
 862 002c 7B68     		ldr	r3, [r7, #4]
 863 002e 9A42     		cmp	r2, r3
 864 0030 08D8     		bhi	.L43
 500:..\..\..\..\..\..\Software\uCOS-III\Source/os_tick.c ****             ticks = ticks - p_tcb->TickRemain;
 865              		.loc 1 500 0
 866 0032 FB69     		ldr	r3, [r7, #28]
 867 0034 1B6D     		ldr	r3, [r3, #80]
 868 0036 7A68     		ldr	r2, [r7, #4]
 869 0038 D31A     		subs	r3, r2, r3
 870 003a 7B60     		str	r3, [r7, #4]
 501:..\..\..\..\..\..\Software\uCOS-III\Source/os_tick.c ****             p_tcb->TickRemain = 0u;
 871              		.loc 1 501 0
 872 003c FB69     		ldr	r3, [r7, #28]
 873 003e 0022     		movs	r2, #0
 874 0040 1A65     		str	r2, [r3, #80]
 875 0042 4FE0     		b	.L45
 876              	.L43:
 502:..\..\..\..\..\..\Software\uCOS-III\Source/os_tick.c ****         } else {
 503:..\..\..\..\..\..\Software\uCOS-III\Source/os_tick.c ****             p_tcb->TickRemain -= ticks;
 877              		.loc 1 503 0
 878 0044 FB69     		ldr	r3, [r7, #28]
 879 0046 1A6D     		ldr	r2, [r3, #80]
 880 0048 7B68     		ldr	r3, [r7, #4]
 881 004a D21A     		subs	r2, r2, r3
 882 004c FB69     		ldr	r3, [r7, #28]
 883 004e 1A65     		str	r2, [r3, #80]
 504:..\..\..\..\..\..\Software\uCOS-III\Source/os_tick.c ****         }
 505:..\..\..\..\..\..\Software\uCOS-III\Source/os_tick.c **** 
 506:..\..\..\..\..\..\Software\uCOS-III\Source/os_tick.c ****         while (p_tcb->TickRemain == 0u) {
 884              		.loc 1 506 0
 885 0050 48E0     		b	.L45
 886              	.L50:
 507:..\..\..\..\..\..\Software\uCOS-III\Source/os_tick.c **** #if (OS_CFG_DBG_EN == DEF_ENABLED)
 508:..\..\..\..\..\..\Software\uCOS-III\Source/os_tick.c ****             nbr_updated++;                                      /* Keep track of the number of TCBs
 887              		.loc 1 508 0
ARM GAS  C:\Users\ADMINI~1\AppData\Local\Temp\cc8eYrCa.s 			page 26


 888 0052 1A23     		movs	r3, #26
 889 0054 FB18     		adds	r3, r7, r3
 890 0056 1A88     		ldrh	r2, [r3]
 891 0058 1A23     		movs	r3, #26
 892 005a FB18     		adds	r3, r7, r3
 893 005c 0132     		adds	r2, r2, #1
 894 005e 1A80     		strh	r2, [r3]
 509:..\..\..\..\..\..\Software\uCOS-III\Source/os_tick.c **** #endif
 510:..\..\..\..\..\..\Software\uCOS-III\Source/os_tick.c ****             if (p_tcb->TaskState == OS_TASK_STATE_DLY) {
 895              		.loc 1 510 0
 896 0060 FB69     		ldr	r3, [r7, #28]
 897 0062 3622     		movs	r2, #54
 898 0064 9B5C     		ldrb	r3, [r3, r2]
 899 0066 012B     		cmp	r3, #1
 900 0068 08D1     		bne	.L46
 511:..\..\..\..\..\..\Software\uCOS-III\Source/os_tick.c ****                 p_tcb->TaskState = OS_TASK_STATE_RDY;
 901              		.loc 1 511 0
 902 006a FB69     		ldr	r3, [r7, #28]
 903 006c 3622     		movs	r2, #54
 904 006e 0021     		movs	r1, #0
 905 0070 9954     		strb	r1, [r3, r2]
 512:..\..\..\..\..\..\Software\uCOS-III\Source/os_tick.c ****                 OS_RdyListInsert(p_tcb);                        /* Insert the task in the ready lis
 906              		.loc 1 512 0
 907 0072 FB69     		ldr	r3, [r7, #28]
 908 0074 1800     		movs	r0, r3
 909 0076 FFF7FEFF 		bl	OS_RdyListInsert
 910 007a 08E0     		b	.L47
 911              	.L46:
 513:..\..\..\..\..\..\Software\uCOS-III\Source/os_tick.c ****             } else if (p_tcb->TaskState == OS_TASK_STATE_DLY_SUSPENDED) {
 912              		.loc 1 513 0
 913 007c FB69     		ldr	r3, [r7, #28]
 914 007e 3622     		movs	r2, #54
 915 0080 9B5C     		ldrb	r3, [r3, r2]
 916 0082 052B     		cmp	r3, #5
 917 0084 03D1     		bne	.L47
 514:..\..\..\..\..\..\Software\uCOS-III\Source/os_tick.c ****                 p_tcb->TaskState = OS_TASK_STATE_SUSPENDED;
 918              		.loc 1 514 0
 919 0086 FB69     		ldr	r3, [r7, #28]
 920 0088 3622     		movs	r2, #54
 921 008a 0421     		movs	r1, #4
 922 008c 9954     		strb	r1, [r3, r2]
 923              	.L47:
 515:..\..\..\..\..\..\Software\uCOS-III\Source/os_tick.c ****             }
 516:..\..\..\..\..\..\Software\uCOS-III\Source/os_tick.c **** 
 517:..\..\..\..\..\..\Software\uCOS-III\Source/os_tick.c ****             p_list->TCB_Ptr = p_tcb->TickNextPtr;
 924              		.loc 1 517 0
 925 008e FB69     		ldr	r3, [r7, #28]
 926 0090 9A69     		ldr	r2, [r3, #24]
 927 0092 3B69     		ldr	r3, [r7, #16]
 928 0094 1A60     		str	r2, [r3]
 518:..\..\..\..\..\..\Software\uCOS-III\Source/os_tick.c ****             p_tcb           = p_list->TCB_Ptr;                  /* Get 'p_tcb' again for loop      
 929              		.loc 1 518 0
 930 0096 3B69     		ldr	r3, [r7, #16]
 931 0098 1B68     		ldr	r3, [r3]
 932 009a FB61     		str	r3, [r7, #28]
 519:..\..\..\..\..\..\Software\uCOS-III\Source/os_tick.c ****             if (p_tcb == DEF_NULL) {
 933              		.loc 1 519 0
ARM GAS  C:\Users\ADMINI~1\AppData\Local\Temp\cc8eYrCa.s 			page 27


 934 009c FB69     		ldr	r3, [r7, #28]
 935 009e 002B     		cmp	r3, #0
 936 00a0 03D1     		bne	.L48
 520:..\..\..\..\..\..\Software\uCOS-III\Source/os_tick.c **** #if (OS_CFG_DBG_EN == DEF_ENABLED)
 521:..\..\..\..\..\..\Software\uCOS-III\Source/os_tick.c ****                 p_list->NbrEntries = 0u;
 937              		.loc 1 521 0
 938 00a2 3B69     		ldr	r3, [r7, #16]
 939 00a4 0022     		movs	r2, #0
 940 00a6 9A80     		strh	r2, [r3, #4]
 522:..\..\..\..\..\..\Software\uCOS-III\Source/os_tick.c **** #endif
 523:..\..\..\..\..\..\Software\uCOS-III\Source/os_tick.c ****                 break;
 941              		.loc 1 523 0
 942 00a8 20E0     		b	.L42
 943              	.L48:
 524:..\..\..\..\..\..\Software\uCOS-III\Source/os_tick.c ****             } else {
 525:..\..\..\..\..\..\Software\uCOS-III\Source/os_tick.c **** #if (OS_CFG_DBG_EN == DEF_ENABLED)
 526:..\..\..\..\..\..\Software\uCOS-III\Source/os_tick.c ****                 p_list->NbrEntries--;
 944              		.loc 1 526 0
 945 00aa 3B69     		ldr	r3, [r7, #16]
 946 00ac 9B88     		ldrh	r3, [r3, #4]
 947 00ae 013B     		subs	r3, r3, #1
 948 00b0 9AB2     		uxth	r2, r3
 949 00b2 3B69     		ldr	r3, [r7, #16]
 950 00b4 9A80     		strh	r2, [r3, #4]
 527:..\..\..\..\..\..\Software\uCOS-III\Source/os_tick.c **** #endif
 528:..\..\..\..\..\..\Software\uCOS-III\Source/os_tick.c ****                 p_tcb->TickPrevPtr = DEF_NULL;
 951              		.loc 1 528 0
 952 00b6 FB69     		ldr	r3, [r7, #28]
 953 00b8 0022     		movs	r2, #0
 954 00ba DA61     		str	r2, [r3, #28]
 529:..\..\..\..\..\..\Software\uCOS-III\Source/os_tick.c ****             }
 530:..\..\..\..\..\..\Software\uCOS-III\Source/os_tick.c **** 
 531:..\..\..\..\..\..\Software\uCOS-III\Source/os_tick.c ****             if (p_tcb->TickRemain <= ticks) {
 955              		.loc 1 531 0
 956 00bc FB69     		ldr	r3, [r7, #28]
 957 00be 1A6D     		ldr	r2, [r3, #80]
 958 00c0 7B68     		ldr	r3, [r7, #4]
 959 00c2 9A42     		cmp	r2, r3
 960 00c4 08D8     		bhi	.L49
 532:..\..\..\..\..\..\Software\uCOS-III\Source/os_tick.c ****                 ticks = ticks - p_tcb->TickRemain;
 961              		.loc 1 532 0
 962 00c6 FB69     		ldr	r3, [r7, #28]
 963 00c8 1B6D     		ldr	r3, [r3, #80]
 964 00ca 7A68     		ldr	r2, [r7, #4]
 965 00cc D31A     		subs	r3, r2, r3
 966 00ce 7B60     		str	r3, [r7, #4]
 533:..\..\..\..\..\..\Software\uCOS-III\Source/os_tick.c ****                 p_tcb->TickRemain = 0u;
 967              		.loc 1 533 0
 968 00d0 FB69     		ldr	r3, [r7, #28]
 969 00d2 0022     		movs	r2, #0
 970 00d4 1A65     		str	r2, [r3, #80]
 971 00d6 05E0     		b	.L45
 972              	.L49:
 534:..\..\..\..\..\..\Software\uCOS-III\Source/os_tick.c ****             } else {
 535:..\..\..\..\..\..\Software\uCOS-III\Source/os_tick.c ****                 p_tcb->TickRemain -= ticks;
 973              		.loc 1 535 0
 974 00d8 FB69     		ldr	r3, [r7, #28]
ARM GAS  C:\Users\ADMINI~1\AppData\Local\Temp\cc8eYrCa.s 			page 28


 975 00da 1A6D     		ldr	r2, [r3, #80]
 976 00dc 7B68     		ldr	r3, [r7, #4]
 977 00de D21A     		subs	r2, r2, r3
 978 00e0 FB69     		ldr	r3, [r7, #28]
 979 00e2 1A65     		str	r2, [r3, #80]
 980              	.L45:
 506:..\..\..\..\..\..\Software\uCOS-III\Source/os_tick.c **** #if (OS_CFG_DBG_EN == DEF_ENABLED)
 981              		.loc 1 506 0
 982 00e4 FB69     		ldr	r3, [r7, #28]
 983 00e6 1B6D     		ldr	r3, [r3, #80]
 984 00e8 002B     		cmp	r3, #0
 985 00ea B2D0     		beq	.L50
 986              	.L42:
 536:..\..\..\..\..\..\Software\uCOS-III\Source/os_tick.c ****             }
 537:..\..\..\..\..\..\Software\uCOS-III\Source/os_tick.c ****         }
 538:..\..\..\..\..\..\Software\uCOS-III\Source/os_tick.c ****     }
 539:..\..\..\..\..\..\Software\uCOS-III\Source/os_tick.c **** #if (OS_CFG_DBG_EN == DEF_ENABLED)
 540:..\..\..\..\..\..\Software\uCOS-III\Source/os_tick.c ****     p_list->NbrUpdated = nbr_updated;
 987              		.loc 1 540 0
 988 00ec 3B69     		ldr	r3, [r7, #16]
 989 00ee 1A22     		movs	r2, #26
 990 00f0 BA18     		adds	r2, r7, r2
 991 00f2 1288     		ldrh	r2, [r2]
 992 00f4 DA80     		strh	r2, [r3, #6]
 541:..\..\..\..\..\..\Software\uCOS-III\Source/os_tick.c **** #endif
 542:..\..\..\..\..\..\Software\uCOS-III\Source/os_tick.c **** #if (OS_CFG_TS_EN == DEF_ENABLED)
 543:..\..\..\..\..\..\Software\uCOS-III\Source/os_tick.c ****     ts_delta_dly       = OS_TS_GET() - ts_start;                /* Measure execution time of the up
 993              		.loc 1 543 0
 994 00f6 FFF7FEFF 		bl	CPU_TS_TmrRd
 995 00fa 0200     		movs	r2, r0
 996 00fc 7B69     		ldr	r3, [r7, #20]
 997 00fe D31A     		subs	r3, r2, r3
 998 0100 FB60     		str	r3, [r7, #12]
 544:..\..\..\..\..\..\Software\uCOS-III\Source/os_tick.c **** #endif
 545:..\..\..\..\..\..\Software\uCOS-III\Source/os_tick.c **** 
 546:..\..\..\..\..\..\Software\uCOS-III\Source/os_tick.c **** #if (OS_CFG_TS_EN == DEF_ENABLED)
 547:..\..\..\..\..\..\Software\uCOS-III\Source/os_tick.c ****     return (ts_delta_dly);
 999              		.loc 1 547 0
 1000 0102 FB68     		ldr	r3, [r7, #12]
 548:..\..\..\..\..\..\Software\uCOS-III\Source/os_tick.c **** #else
 549:..\..\..\..\..\..\Software\uCOS-III\Source/os_tick.c ****     return (0u);
 550:..\..\..\..\..\..\Software\uCOS-III\Source/os_tick.c **** #endif
 551:..\..\..\..\..\..\Software\uCOS-III\Source/os_tick.c **** }
 1001              		.loc 1 551 0
 1002 0104 1800     		movs	r0, r3
 1003 0106 BD46     		mov	sp, r7
 1004 0108 08B0     		add	sp, sp, #32
 1005              		@ sp needed
 1006 010a 80BD     		pop	{r7, pc}
 1007              	.L53:
 1008              		.align	2
 1009              	.L52:
 1010 010c 00000000 		.word	OSTickListDly
 1011              		.cfi_endproc
 1012              	.LFE5:
 1013              		.size	OS_TickListUpdateDly, .-OS_TickListUpdateDly
 1014              		.section	.text.OS_TickListUpdateTimeout,"ax",%progbits
ARM GAS  C:\Users\ADMINI~1\AppData\Local\Temp\cc8eYrCa.s 			page 29


 1015              		.align	2
 1016              		.code	16
 1017              		.thumb_func
 1018              		.type	OS_TickListUpdateTimeout, %function
 1019              	OS_TickListUpdateTimeout:
 1020              	.LFB6:
 552:..\..\..\..\..\..\Software\uCOS-III\Source/os_tick.c **** 
 553:..\..\..\..\..\..\Software\uCOS-III\Source/os_tick.c **** 
 554:..\..\..\..\..\..\Software\uCOS-III\Source/os_tick.c **** /*
 555:..\..\..\..\..\..\Software\uCOS-III\Source/os_tick.c **** ***************************************************************************************************
 556:..\..\..\..\..\..\Software\uCOS-III\Source/os_tick.c **** *                                       UPDATE THE LIST OF TASKS PENDING WITH TIMEOUT
 557:..\..\..\..\..\..\Software\uCOS-III\Source/os_tick.c **** *
 558:..\..\..\..\..\..\Software\uCOS-III\Source/os_tick.c **** * Description: This function updales the delta list which contains tasks that are pending with a ti
 559:..\..\..\..\..\..\Software\uCOS-III\Source/os_tick.c **** *
 560:..\..\..\..\..\..\Software\uCOS-III\Source/os_tick.c **** * Arguments  : non
 561:..\..\..\..\..\..\Software\uCOS-III\Source/os_tick.c **** *
 562:..\..\..\..\..\..\Software\uCOS-III\Source/os_tick.c **** * Returns    : none
 563:..\..\..\..\..\..\Software\uCOS-III\Source/os_tick.c **** *
 564:..\..\..\..\..\..\Software\uCOS-III\Source/os_tick.c **** * Note(s)    : 1) This function is INTERNAL to uC/OS-III and your application MUST NOT call it.
 565:..\..\..\..\..\..\Software\uCOS-III\Source/os_tick.c **** ***************************************************************************************************
 566:..\..\..\..\..\..\Software\uCOS-III\Source/os_tick.c **** */
 567:..\..\..\..\..\..\Software\uCOS-III\Source/os_tick.c **** 
 568:..\..\..\..\..\..\Software\uCOS-III\Source/os_tick.c **** static  CPU_TS  OS_TickListUpdateTimeout (OS_TICK ticks)
 569:..\..\..\..\..\..\Software\uCOS-III\Source/os_tick.c **** {
 1021              		.loc 1 569 0
 1022              		.cfi_startproc
 1023              		@ args = 0, pretend = 0, frame = 40
 1024              		@ frame_needed = 1, uses_anonymous_args = 0
 1025 0000 90B5     		push	{r4, r7, lr}
 1026              		.cfi_def_cfa_offset 12
 1027              		.cfi_offset 4, -12
 1028              		.cfi_offset 7, -8
 1029              		.cfi_offset 14, -4
 1030 0002 8BB0     		sub	sp, sp, #44
 1031              		.cfi_def_cfa_offset 56
 1032 0004 00AF     		add	r7, sp, #0
 1033              		.cfi_def_cfa_register 7
 1034 0006 7860     		str	r0, [r7, #4]
 570:..\..\..\..\..\..\Software\uCOS-III\Source/os_tick.c ****     OS_TCB       *p_tcb;
 571:..\..\..\..\..\..\Software\uCOS-III\Source/os_tick.c ****     OS_TICK_LIST *p_list;
 572:..\..\..\..\..\..\Software\uCOS-III\Source/os_tick.c **** #if (OS_CFG_TS_EN == DEF_ENABLED)
 573:..\..\..\..\..\..\Software\uCOS-III\Source/os_tick.c ****     CPU_TS        ts_start;
 574:..\..\..\..\..\..\Software\uCOS-III\Source/os_tick.c ****     CPU_TS        ts_delta_timeout;
 575:..\..\..\..\..\..\Software\uCOS-III\Source/os_tick.c **** #endif
 576:..\..\..\..\..\..\Software\uCOS-III\Source/os_tick.c **** #if (OS_CFG_DBG_EN == DEF_ENABLED)
 577:..\..\..\..\..\..\Software\uCOS-III\Source/os_tick.c ****     OS_OBJ_QTY    nbr_updated;
 578:..\..\..\..\..\..\Software\uCOS-III\Source/os_tick.c **** #endif
 579:..\..\..\..\..\..\Software\uCOS-III\Source/os_tick.c **** #if (OS_CFG_MUTEX_EN == DEF_ENABLED)
 580:..\..\..\..\..\..\Software\uCOS-III\Source/os_tick.c ****     OS_TCB       *p_tcb_owner;
 581:..\..\..\..\..\..\Software\uCOS-III\Source/os_tick.c ****     OS_PRIO       prio_new;
 582:..\..\..\..\..\..\Software\uCOS-III\Source/os_tick.c **** #endif
 583:..\..\..\..\..\..\Software\uCOS-III\Source/os_tick.c **** 
 584:..\..\..\..\..\..\Software\uCOS-III\Source/os_tick.c ****                                                                 /*  ======= UPDATE TASKS WAITING WI
 585:..\..\..\..\..\..\Software\uCOS-III\Source/os_tick.c **** #if (OS_CFG_TS_EN == DEF_ENABLED)
 586:..\..\..\..\..\..\Software\uCOS-III\Source/os_tick.c ****     ts_start    = OS_TS_GET();
 1035              		.loc 1 586 0
 1036 0008 FFF7FEFF 		bl	CPU_TS_TmrRd
ARM GAS  C:\Users\ADMINI~1\AppData\Local\Temp\cc8eYrCa.s 			page 30


 1037 000c 0300     		movs	r3, r0
 1038 000e BB61     		str	r3, [r7, #24]
 587:..\..\..\..\..\..\Software\uCOS-III\Source/os_tick.c **** #endif
 588:..\..\..\..\..\..\Software\uCOS-III\Source/os_tick.c **** #if (OS_CFG_DBG_EN == DEF_ENABLED)
 589:..\..\..\..\..\..\Software\uCOS-III\Source/os_tick.c ****     nbr_updated = 0u;
 1039              		.loc 1 589 0
 1040 0010 2223     		movs	r3, #34
 1041 0012 FB18     		adds	r3, r7, r3
 1042 0014 0022     		movs	r2, #0
 1043 0016 1A80     		strh	r2, [r3]
 590:..\..\..\..\..\..\Software\uCOS-III\Source/os_tick.c **** #endif
 591:..\..\..\..\..\..\Software\uCOS-III\Source/os_tick.c ****     p_list      = &OSTickListTimeout;
 1044              		.loc 1 591 0
 1045 0018 6C4B     		ldr	r3, .L68
 1046 001a 7B61     		str	r3, [r7, #20]
 592:..\..\..\..\..\..\Software\uCOS-III\Source/os_tick.c ****     p_tcb       = p_list->TCB_Ptr;                                  
 1047              		.loc 1 592 0
 1048 001c 7B69     		ldr	r3, [r7, #20]
 1049 001e 1B68     		ldr	r3, [r3]
 1050 0020 7B62     		str	r3, [r7, #36]
 593:..\..\..\..\..\..\Software\uCOS-III\Source/os_tick.c ****     if (p_tcb != DEF_NULL) {
 1051              		.loc 1 593 0
 1052 0022 7B6A     		ldr	r3, [r7, #36]
 1053 0024 002B     		cmp	r3, #0
 1054 0026 00D1     		bne	.LCB882
 1055 0028 C0E0     		b	.L55	@long jump
 1056              	.LCB882:
 594:..\..\..\..\..\..\Software\uCOS-III\Source/os_tick.c **** #if 0
 595:..\..\..\..\..\..\Software\uCOS-III\Source/os_tick.c ****         p_tcb->TickRemain--;
 596:..\..\..\..\..\..\Software\uCOS-III\Source/os_tick.c **** #else
 597:..\..\..\..\..\..\Software\uCOS-III\Source/os_tick.c ****         if (p_tcb->TickRemain <= ticks) {
 1057              		.loc 1 597 0
 1058 002a 7B6A     		ldr	r3, [r7, #36]
 1059 002c 1A6D     		ldr	r2, [r3, #80]
 1060 002e 7B68     		ldr	r3, [r7, #4]
 1061 0030 9A42     		cmp	r2, r3
 1062 0032 08D8     		bhi	.L56
 598:..\..\..\..\..\..\Software\uCOS-III\Source/os_tick.c ****             ticks = ticks - p_tcb->TickRemain;
 1063              		.loc 1 598 0
 1064 0034 7B6A     		ldr	r3, [r7, #36]
 1065 0036 1B6D     		ldr	r3, [r3, #80]
 1066 0038 7A68     		ldr	r2, [r7, #4]
 1067 003a D31A     		subs	r3, r2, r3
 1068 003c 7B60     		str	r3, [r7, #4]
 599:..\..\..\..\..\..\Software\uCOS-III\Source/os_tick.c ****             p_tcb->TickRemain = 0u;
 1069              		.loc 1 599 0
 1070 003e 7B6A     		ldr	r3, [r7, #36]
 1071 0040 0022     		movs	r2, #0
 1072 0042 1A65     		str	r2, [r3, #80]
 1073 0044 ADE0     		b	.L58
 1074              	.L56:
 600:..\..\..\..\..\..\Software\uCOS-III\Source/os_tick.c ****         } else {
 601:..\..\..\..\..\..\Software\uCOS-III\Source/os_tick.c ****             p_tcb->TickRemain -= ticks;
 1075              		.loc 1 601 0
 1076 0046 7B6A     		ldr	r3, [r7, #36]
 1077 0048 1A6D     		ldr	r2, [r3, #80]
 1078 004a 7B68     		ldr	r3, [r7, #4]
ARM GAS  C:\Users\ADMINI~1\AppData\Local\Temp\cc8eYrCa.s 			page 31


 1079 004c D21A     		subs	r2, r2, r3
 1080 004e 7B6A     		ldr	r3, [r7, #36]
 1081 0050 1A65     		str	r2, [r3, #80]
 602:..\..\..\..\..\..\Software\uCOS-III\Source/os_tick.c ****         }
 603:..\..\..\..\..\..\Software\uCOS-III\Source/os_tick.c **** #endif
 604:..\..\..\..\..\..\Software\uCOS-III\Source/os_tick.c ****         while (p_tcb->TickRemain == 0u) {
 1082              		.loc 1 604 0
 1083 0052 A6E0     		b	.L58
 1084              	.L66:
 605:..\..\..\..\..\..\Software\uCOS-III\Source/os_tick.c **** #if (OS_CFG_DBG_EN == DEF_ENABLED)
 606:..\..\..\..\..\..\Software\uCOS-III\Source/os_tick.c ****             nbr_updated++;
 1085              		.loc 1 606 0
 1086 0054 2223     		movs	r3, #34
 1087 0056 FB18     		adds	r3, r7, r3
 1088 0058 1A88     		ldrh	r2, [r3]
 1089 005a 2223     		movs	r3, #34
 1090 005c FB18     		adds	r3, r7, r3
 1091 005e 0132     		adds	r2, r2, #1
 1092 0060 1A80     		strh	r2, [r3]
 607:..\..\..\..\..\..\Software\uCOS-III\Source/os_tick.c **** #endif
 608:..\..\..\..\..\..\Software\uCOS-III\Source/os_tick.c **** 
 609:..\..\..\..\..\..\Software\uCOS-III\Source/os_tick.c **** #if (OS_CFG_MUTEX_EN == DEF_ENABLED)
 610:..\..\..\..\..\..\Software\uCOS-III\Source/os_tick.c ****             p_tcb_owner = DEF_NULL;
 1093              		.loc 1 610 0
 1094 0062 0023     		movs	r3, #0
 1095 0064 FB61     		str	r3, [r7, #28]
 611:..\..\..\..\..\..\Software\uCOS-III\Source/os_tick.c ****             if (p_tcb->PendOn == OS_TASK_PEND_ON_MUTEX) {
 1096              		.loc 1 611 0
 1097 0066 7B6A     		ldr	r3, [r7, #36]
 1098 0068 3422     		movs	r2, #52
 1099 006a 9B5C     		ldrb	r3, [r3, r2]
 1100 006c 042B     		cmp	r3, #4
 1101 006e 04D1     		bne	.L59
 612:..\..\..\..\..\..\Software\uCOS-III\Source/os_tick.c ****                 p_tcb_owner = ((OS_MUTEX *)p_tcb->PendDataTblPtr->PendObjPtr)->OwnerTCBPtr;
 1102              		.loc 1 612 0
 1103 0070 7B6A     		ldr	r3, [r7, #36]
 1104 0072 1B6B     		ldr	r3, [r3, #48]
 1105 0074 DB68     		ldr	r3, [r3, #12]
 1106 0076 5B6A     		ldr	r3, [r3, #36]
 1107 0078 FB61     		str	r3, [r7, #28]
 1108              	.L59:
 613:..\..\..\..\..\..\Software\uCOS-III\Source/os_tick.c ****             }
 614:..\..\..\..\..\..\Software\uCOS-III\Source/os_tick.c **** #endif
 615:..\..\..\..\..\..\Software\uCOS-III\Source/os_tick.c **** 
 616:..\..\..\..\..\..\Software\uCOS-III\Source/os_tick.c **** #if (OS_MSG_EN == DEF_ENABLED)
 617:..\..\..\..\..\..\Software\uCOS-III\Source/os_tick.c ****             p_tcb->MsgPtr  = DEF_NULL;
 1109              		.loc 1 617 0
 1110 007a 7B6A     		ldr	r3, [r7, #36]
 1111 007c 0022     		movs	r2, #0
 1112 007e 9A65     		str	r2, [r3, #88]
 618:..\..\..\..\..\..\Software\uCOS-III\Source/os_tick.c ****             p_tcb->MsgSize = 0u;
 1113              		.loc 1 618 0
 1114 0080 7B6A     		ldr	r3, [r7, #36]
 1115 0082 5C22     		movs	r2, #92
 1116 0084 0021     		movs	r1, #0
 1117 0086 9952     		strh	r1, [r3, r2]
 619:..\..\..\..\..\..\Software\uCOS-III\Source/os_tick.c **** #endif
ARM GAS  C:\Users\ADMINI~1\AppData\Local\Temp\cc8eYrCa.s 			page 32


 620:..\..\..\..\..\..\Software\uCOS-III\Source/os_tick.c **** #if (OS_CFG_TS_EN == DEF_ENABLED)
 621:..\..\..\..\..\..\Software\uCOS-III\Source/os_tick.c ****             p_tcb->TS      = OS_TS_GET();
 1118              		.loc 1 621 0
 1119 0088 FFF7FEFF 		bl	CPU_TS_TmrRd
 1120 008c 0200     		movs	r2, r0
 1121 008e 7B6A     		ldr	r3, [r7, #36]
 1122 0090 9A64     		str	r2, [r3, #72]
 622:..\..\..\..\..\..\Software\uCOS-III\Source/os_tick.c **** #endif
 623:..\..\..\..\..\..\Software\uCOS-III\Source/os_tick.c ****             OS_PendListRemove(p_tcb);                           /* Remove from wait list           
 1123              		.loc 1 623 0
 1124 0092 7B6A     		ldr	r3, [r7, #36]
 1125 0094 1800     		movs	r0, r3
 1126 0096 FFF7FEFF 		bl	OS_PendListRemove
 624:..\..\..\..\..\..\Software\uCOS-III\Source/os_tick.c ****             if (p_tcb->TaskState == OS_TASK_STATE_PEND_TIMEOUT) {
 1127              		.loc 1 624 0
 1128 009a 7B6A     		ldr	r3, [r7, #36]
 1129 009c 3622     		movs	r2, #54
 1130 009e 9B5C     		ldrb	r3, [r3, r2]
 1131 00a0 032B     		cmp	r3, #3
 1132 00a2 08D1     		bne	.L60
 625:..\..\..\..\..\..\Software\uCOS-III\Source/os_tick.c ****                 OS_RdyListInsert(p_tcb);                        /* Insert the task in the ready lis
 1133              		.loc 1 625 0
 1134 00a4 7B6A     		ldr	r3, [r7, #36]
 1135 00a6 1800     		movs	r0, r3
 1136 00a8 FFF7FEFF 		bl	OS_RdyListInsert
 626:..\..\..\..\..\..\Software\uCOS-III\Source/os_tick.c ****                 p_tcb->TaskState  = OS_TASK_STATE_RDY;
 1137              		.loc 1 626 0
 1138 00ac 7B6A     		ldr	r3, [r7, #36]
 1139 00ae 3622     		movs	r2, #54
 1140 00b0 0021     		movs	r1, #0
 1141 00b2 9954     		strb	r1, [r3, r2]
 1142 00b4 08E0     		b	.L61
 1143              	.L60:
 627:..\..\..\..\..\..\Software\uCOS-III\Source/os_tick.c ****             } else if (p_tcb->TaskState == OS_TASK_STATE_PEND_TIMEOUT_SUSPENDED) {
 1144              		.loc 1 627 0
 1145 00b6 7B6A     		ldr	r3, [r7, #36]
 1146 00b8 3622     		movs	r2, #54
 1147 00ba 9B5C     		ldrb	r3, [r3, r2]
 1148 00bc 072B     		cmp	r3, #7
 1149 00be 03D1     		bne	.L61
 628:..\..\..\..\..\..\Software\uCOS-III\Source/os_tick.c **** 
 629:..\..\..\..\..\..\Software\uCOS-III\Source/os_tick.c ****                 p_tcb->TaskState  = OS_TASK_STATE_SUSPENDED;
 1150              		.loc 1 629 0
 1151 00c0 7B6A     		ldr	r3, [r7, #36]
 1152 00c2 3622     		movs	r2, #54
 1153 00c4 0421     		movs	r1, #4
 1154 00c6 9954     		strb	r1, [r3, r2]
 1155              	.L61:
 630:..\..\..\..\..\..\Software\uCOS-III\Source/os_tick.c ****             }
 631:..\..\..\..\..\..\Software\uCOS-III\Source/os_tick.c ****             p_tcb->PendStatus = OS_STATUS_PEND_TIMEOUT;         /* Indicate pend timed out         
 1156              		.loc 1 631 0
 1157 00c8 7B6A     		ldr	r3, [r7, #36]
 1158 00ca 3522     		movs	r2, #53
 1159 00cc 0321     		movs	r1, #3
 1160 00ce 9954     		strb	r1, [r3, r2]
 632:..\..\..\..\..\..\Software\uCOS-III\Source/os_tick.c ****             p_tcb->PendOn     = OS_TASK_PEND_ON_NOTHING;        /* Indicate no longer pending      
 1161              		.loc 1 632 0
ARM GAS  C:\Users\ADMINI~1\AppData\Local\Temp\cc8eYrCa.s 			page 33


 1162 00d0 7B6A     		ldr	r3, [r7, #36]
 1163 00d2 3422     		movs	r2, #52
 1164 00d4 0021     		movs	r1, #0
 1165 00d6 9954     		strb	r1, [r3, r2]
 633:..\..\..\..\..\..\Software\uCOS-III\Source/os_tick.c **** 
 634:..\..\..\..\..\..\Software\uCOS-III\Source/os_tick.c **** #if (OS_CFG_MUTEX_EN == DEF_ENABLED)
 635:..\..\..\..\..\..\Software\uCOS-III\Source/os_tick.c ****             if(p_tcb_owner != DEF_NULL) {
 1166              		.loc 1 635 0
 1167 00d8 FB69     		ldr	r3, [r7, #28]
 1168 00da 002B     		cmp	r3, #0
 1169 00dc 36D0     		beq	.L62
 636:..\..\..\..\..\..\Software\uCOS-III\Source/os_tick.c ****                 if ((p_tcb_owner->Prio != p_tcb_owner->BasePrio) &&
 1170              		.loc 1 636 0
 1171 00de FB69     		ldr	r3, [r7, #28]
 1172 00e0 3722     		movs	r2, #55
 1173 00e2 9A5C     		ldrb	r2, [r3, r2]
 1174 00e4 FB69     		ldr	r3, [r7, #28]
 1175 00e6 3821     		movs	r1, #56
 1176 00e8 5B5C     		ldrb	r3, [r3, r1]
 1177 00ea 9A42     		cmp	r2, r3
 1178 00ec 2ED0     		beq	.L62
 637:..\..\..\..\..\..\Software\uCOS-III\Source/os_tick.c ****                     (p_tcb_owner->Prio == p_tcb->Prio)) {       /* Has the owner inherited a priori
 1179              		.loc 1 637 0 discriminator 1
 1180 00ee FB69     		ldr	r3, [r7, #28]
 1181 00f0 3722     		movs	r2, #55
 1182 00f2 9A5C     		ldrb	r2, [r3, r2]
 1183 00f4 7B6A     		ldr	r3, [r7, #36]
 1184 00f6 3721     		movs	r1, #55
 1185 00f8 5B5C     		ldrb	r3, [r3, r1]
 636:..\..\..\..\..\..\Software\uCOS-III\Source/os_tick.c ****                 if ((p_tcb_owner->Prio != p_tcb_owner->BasePrio) &&
 1186              		.loc 1 636 0 discriminator 1
 1187 00fa 9A42     		cmp	r2, r3
 1188 00fc 26D1     		bne	.L62
 638:..\..\..\..\..\..\Software\uCOS-III\Source/os_tick.c ****                     prio_new = OS_MutexGrpPrioFindHighest(p_tcb_owner);
 1189              		.loc 1 638 0
 1190 00fe 1323     		movs	r3, #19
 1191 0100 FC18     		adds	r4, r7, r3
 1192 0102 FB69     		ldr	r3, [r7, #28]
 1193 0104 1800     		movs	r0, r3
 1194 0106 FFF7FEFF 		bl	OS_MutexGrpPrioFindHighest
 1195 010a 0300     		movs	r3, r0
 1196 010c 2370     		strb	r3, [r4]
 639:..\..\..\..\..\..\Software\uCOS-III\Source/os_tick.c ****                     prio_new = prio_new > p_tcb_owner->BasePrio ? p_tcb_owner->BasePrio : prio_new;
 1197              		.loc 1 639 0
 1198 010e FB69     		ldr	r3, [r7, #28]
 1199 0110 3822     		movs	r2, #56
 1200 0112 995C     		ldrb	r1, [r3, r2]
 1201 0114 1323     		movs	r3, #19
 1202 0116 FA18     		adds	r2, r7, r3
 1203 0118 1323     		movs	r3, #19
 1204 011a FB18     		adds	r3, r7, r3
 1205 011c 1C78     		ldrb	r4, [r3]
 1206 011e 0B1C     		adds	r3, r1, #0
 1207 0120 D8B2     		uxtb	r0, r3
 1208 0122 E1B2     		uxtb	r1, r4
 1209 0124 8842     		cmp	r0, r1
 1210 0126 00D9     		bls	.L63
ARM GAS  C:\Users\ADMINI~1\AppData\Local\Temp\cc8eYrCa.s 			page 34


 1211 0128 231C     		adds	r3, r4, #0
 1212              	.L63:
 1213 012a 1370     		strb	r3, [r2]
 640:..\..\..\..\..\..\Software\uCOS-III\Source/os_tick.c ****                     if(prio_new != p_tcb_owner->Prio) {
 1214              		.loc 1 640 0
 1215 012c FB69     		ldr	r3, [r7, #28]
 1216 012e 3722     		movs	r2, #55
 1217 0130 9B5C     		ldrb	r3, [r3, r2]
 1218 0132 1322     		movs	r2, #19
 1219 0134 BA18     		adds	r2, r7, r2
 1220 0136 1278     		ldrb	r2, [r2]
 1221 0138 9A42     		cmp	r2, r3
 1222 013a 07D0     		beq	.L62
 641:..\..\..\..\..\..\Software\uCOS-III\Source/os_tick.c ****                         OS_TaskChangePrio(p_tcb_owner, prio_new);
 1223              		.loc 1 641 0
 1224 013c 1323     		movs	r3, #19
 1225 013e FB18     		adds	r3, r7, r3
 1226 0140 1A78     		ldrb	r2, [r3]
 1227 0142 FB69     		ldr	r3, [r7, #28]
 1228 0144 1100     		movs	r1, r2
 1229 0146 1800     		movs	r0, r3
 1230 0148 FFF7FEFF 		bl	OS_TaskChangePrio
 1231              	.L62:
 642:..\..\..\..\..\..\Software\uCOS-III\Source/os_tick.c ****             #if (defined(TRACE_CFG_EN) && (TRACE_CFG_EN == DEF_ENABLED))
 643:..\..\..\..\..\..\Software\uCOS-III\Source/os_tick.c ****                                       TRACE_OS_MUTEX_TASK_PRIO_DISINHERIT(p_tcb_owner, p_tcb_owner-
 644:..\..\..\..\..\..\Software\uCOS-III\Source/os_tick.c ****             #endif
 645:..\..\..\..\..\..\Software\uCOS-III\Source/os_tick.c ****                     }
 646:..\..\..\..\..\..\Software\uCOS-III\Source/os_tick.c ****                 }
 647:..\..\..\..\..\..\Software\uCOS-III\Source/os_tick.c ****             }
 648:..\..\..\..\..\..\Software\uCOS-III\Source/os_tick.c **** #endif
 649:..\..\..\..\..\..\Software\uCOS-III\Source/os_tick.c **** 
 650:..\..\..\..\..\..\Software\uCOS-III\Source/os_tick.c ****             p_list->TCB_Ptr = p_tcb->TickNextPtr;
 1232              		.loc 1 650 0
 1233 014c 7B6A     		ldr	r3, [r7, #36]
 1234 014e 9A69     		ldr	r2, [r3, #24]
 1235 0150 7B69     		ldr	r3, [r7, #20]
 1236 0152 1A60     		str	r2, [r3]
 651:..\..\..\..\..\..\Software\uCOS-III\Source/os_tick.c ****             p_tcb           = p_list->TCB_Ptr;                  /* Get 'p_tcb' again for loop      
 1237              		.loc 1 651 0
 1238 0154 7B69     		ldr	r3, [r7, #20]
 1239 0156 1B68     		ldr	r3, [r3]
 1240 0158 7B62     		str	r3, [r7, #36]
 652:..\..\..\..\..\..\Software\uCOS-III\Source/os_tick.c ****             if (p_tcb == DEF_NULL) {
 1241              		.loc 1 652 0
 1242 015a 7B6A     		ldr	r3, [r7, #36]
 1243 015c 002B     		cmp	r3, #0
 1244 015e 03D1     		bne	.L64
 653:..\..\..\..\..\..\Software\uCOS-III\Source/os_tick.c **** #if (OS_CFG_DBG_EN == DEF_ENABLED)
 654:..\..\..\..\..\..\Software\uCOS-III\Source/os_tick.c ****                 p_list->NbrEntries = 0u;
 1245              		.loc 1 654 0
 1246 0160 7B69     		ldr	r3, [r7, #20]
 1247 0162 0022     		movs	r2, #0
 1248 0164 9A80     		strh	r2, [r3, #4]
 655:..\..\..\..\..\..\Software\uCOS-III\Source/os_tick.c **** #endif
 656:..\..\..\..\..\..\Software\uCOS-III\Source/os_tick.c ****                 break;
 1249              		.loc 1 656 0
 1250 0166 21E0     		b	.L55
ARM GAS  C:\Users\ADMINI~1\AppData\Local\Temp\cc8eYrCa.s 			page 35


 1251              	.L64:
 657:..\..\..\..\..\..\Software\uCOS-III\Source/os_tick.c ****             } else {
 658:..\..\..\..\..\..\Software\uCOS-III\Source/os_tick.c **** #if (OS_CFG_DBG_EN == DEF_ENABLED)
 659:..\..\..\..\..\..\Software\uCOS-III\Source/os_tick.c ****                 p_list->NbrEntries--;
 1252              		.loc 1 659 0
 1253 0168 7B69     		ldr	r3, [r7, #20]
 1254 016a 9B88     		ldrh	r3, [r3, #4]
 1255 016c 013B     		subs	r3, r3, #1
 1256 016e 9AB2     		uxth	r2, r3
 1257 0170 7B69     		ldr	r3, [r7, #20]
 1258 0172 9A80     		strh	r2, [r3, #4]
 660:..\..\..\..\..\..\Software\uCOS-III\Source/os_tick.c **** #endif
 661:..\..\..\..\..\..\Software\uCOS-III\Source/os_tick.c ****                 p_tcb->TickPrevPtr = DEF_NULL;
 1259              		.loc 1 661 0
 1260 0174 7B6A     		ldr	r3, [r7, #36]
 1261 0176 0022     		movs	r2, #0
 1262 0178 DA61     		str	r2, [r3, #28]
 662:..\..\..\..\..\..\Software\uCOS-III\Source/os_tick.c ****             }
 663:..\..\..\..\..\..\Software\uCOS-III\Source/os_tick.c ****             if (p_tcb->TickRemain <= ticks) {
 1263              		.loc 1 663 0
 1264 017a 7B6A     		ldr	r3, [r7, #36]
 1265 017c 1A6D     		ldr	r2, [r3, #80]
 1266 017e 7B68     		ldr	r3, [r7, #4]
 1267 0180 9A42     		cmp	r2, r3
 1268 0182 08D8     		bhi	.L65
 664:..\..\..\..\..\..\Software\uCOS-III\Source/os_tick.c ****                 ticks = ticks - p_tcb->TickRemain;
 1269              		.loc 1 664 0
 1270 0184 7B6A     		ldr	r3, [r7, #36]
 1271 0186 1B6D     		ldr	r3, [r3, #80]
 1272 0188 7A68     		ldr	r2, [r7, #4]
 1273 018a D31A     		subs	r3, r2, r3
 1274 018c 7B60     		str	r3, [r7, #4]
 665:..\..\..\..\..\..\Software\uCOS-III\Source/os_tick.c ****                 p_tcb->TickRemain = 0u;
 1275              		.loc 1 665 0
 1276 018e 7B6A     		ldr	r3, [r7, #36]
 1277 0190 0022     		movs	r2, #0
 1278 0192 1A65     		str	r2, [r3, #80]
 1279 0194 05E0     		b	.L58
 1280              	.L65:
 666:..\..\..\..\..\..\Software\uCOS-III\Source/os_tick.c ****             } else {
 667:..\..\..\..\..\..\Software\uCOS-III\Source/os_tick.c ****                 p_tcb->TickRemain -= ticks;
 1281              		.loc 1 667 0
 1282 0196 7B6A     		ldr	r3, [r7, #36]
 1283 0198 1A6D     		ldr	r2, [r3, #80]
 1284 019a 7B68     		ldr	r3, [r7, #4]
 1285 019c D21A     		subs	r2, r2, r3
 1286 019e 7B6A     		ldr	r3, [r7, #36]
 1287 01a0 1A65     		str	r2, [r3, #80]
 1288              	.L58:
 604:..\..\..\..\..\..\Software\uCOS-III\Source/os_tick.c **** #if (OS_CFG_DBG_EN == DEF_ENABLED)
 1289              		.loc 1 604 0
 1290 01a2 7B6A     		ldr	r3, [r7, #36]
 1291 01a4 1B6D     		ldr	r3, [r3, #80]
 1292 01a6 002B     		cmp	r3, #0
 1293 01a8 00D1     		bne	.LCB1094
 1294 01aa 53E7     		b	.L66	@long jump
 1295              	.LCB1094:
ARM GAS  C:\Users\ADMINI~1\AppData\Local\Temp\cc8eYrCa.s 			page 36


 1296              	.L55:
 668:..\..\..\..\..\..\Software\uCOS-III\Source/os_tick.c ****             }
 669:..\..\..\..\..\..\Software\uCOS-III\Source/os_tick.c ****         }
 670:..\..\..\..\..\..\Software\uCOS-III\Source/os_tick.c ****     }
 671:..\..\..\..\..\..\Software\uCOS-III\Source/os_tick.c **** #if (OS_CFG_DBG_EN == DEF_ENABLED)
 672:..\..\..\..\..\..\Software\uCOS-III\Source/os_tick.c ****     p_list->NbrUpdated = nbr_updated;
 1297              		.loc 1 672 0
 1298 01ac 7B69     		ldr	r3, [r7, #20]
 1299 01ae 2222     		movs	r2, #34
 1300 01b0 BA18     		adds	r2, r7, r2
 1301 01b2 1288     		ldrh	r2, [r2]
 1302 01b4 DA80     		strh	r2, [r3, #6]
 673:..\..\..\..\..\..\Software\uCOS-III\Source/os_tick.c **** #endif
 674:..\..\..\..\..\..\Software\uCOS-III\Source/os_tick.c **** #if (OS_CFG_TS_EN == DEF_ENABLED)
 675:..\..\..\..\..\..\Software\uCOS-III\Source/os_tick.c ****     ts_delta_timeout   = OS_TS_GET() - ts_start;                /* Measure execution time of the up
 1303              		.loc 1 675 0
 1304 01b6 FFF7FEFF 		bl	CPU_TS_TmrRd
 1305 01ba 0200     		movs	r2, r0
 1306 01bc BB69     		ldr	r3, [r7, #24]
 1307 01be D31A     		subs	r3, r2, r3
 1308 01c0 FB60     		str	r3, [r7, #12]
 676:..\..\..\..\..\..\Software\uCOS-III\Source/os_tick.c **** #endif
 677:..\..\..\..\..\..\Software\uCOS-III\Source/os_tick.c **** 
 678:..\..\..\..\..\..\Software\uCOS-III\Source/os_tick.c **** #if (OS_CFG_TS_EN == DEF_ENABLED)
 679:..\..\..\..\..\..\Software\uCOS-III\Source/os_tick.c ****     return (ts_delta_timeout);
 1309              		.loc 1 679 0
 1310 01c2 FB68     		ldr	r3, [r7, #12]
 680:..\..\..\..\..\..\Software\uCOS-III\Source/os_tick.c **** #else
 681:..\..\..\..\..\..\Software\uCOS-III\Source/os_tick.c ****     return (0u);
 682:..\..\..\..\..\..\Software\uCOS-III\Source/os_tick.c **** #endif
 683:..\..\..\..\..\..\Software\uCOS-III\Source/os_tick.c **** }
 1311              		.loc 1 683 0
 1312 01c4 1800     		movs	r0, r3
 1313 01c6 BD46     		mov	sp, r7
 1314 01c8 0BB0     		add	sp, sp, #44
 1315              		@ sp needed
 1316 01ca 90BD     		pop	{r4, r7, pc}
 1317              	.L69:
 1318              		.align	2
 1319              	.L68:
 1320 01cc 00000000 		.word	OSTickListTimeout
 1321              		.cfi_endproc
 1322              	.LFE6:
 1323              		.size	OS_TickListUpdateTimeout, .-OS_TickListUpdateTimeout
 1324              		.text
 1325              	.Letext0:
 1326              		.file 2 "..\\..\\..\\..\\..\\..\\Software\\uC-CPU\\ARM-Cortex-M0\\GNU/cpu.h"
 1327              		.file 3 "..\\..\\..\\..\\..\\..\\Software\\uC-CPU/cpu_core.h"
 1328              		.file 4 "..\\..\\..\\..\\..\\..\\Software\\uCOS-III\\Source\\os_type.h"
 1329              		.file 5 "..\\..\\..\\..\\..\\..\\Software\\uCOS-III\\Source\\os.h"