ARM GAS  C:\Users\ADMINI~1\AppData\Local\Temp\ccofok6U.s 			page 1


   1              		.syntax unified
   2              		.cpu cortex-m0
   3              		.fpu softvfp
   4              		.eabi_attribute 20, 1
   5              		.eabi_attribute 21, 1
   6              		.eabi_attribute 23, 3
   7              		.eabi_attribute 24, 1
   8              		.eabi_attribute 25, 1
   9              		.eabi_attribute 26, 1
  10              		.eabi_attribute 30, 6
  11              		.eabi_attribute 34, 0
  12              		.eabi_attribute 18, 4
  13              		.thumb
  14              		.syntax unified
  15              		.file	"os_tmr.c"
  16              		.text
  17              	.Ltext0:
  18              		.cfi_sections	.debug_frame
  19              		.section	.text.OSTmrCreate,"ax",%progbits
  20              		.align	2
  21              		.global	OSTmrCreate
  22              		.code	16
  23              		.thumb_func
  24              		.type	OSTmrCreate, %function
  25              	OSTmrCreate:
  26              	.LFB0:
  27              		.file 1 "..\\..\\..\\..\\..\\..\\Software\\uCOS-III\\Source\\os_tmr.c"
   1:..\..\..\..\..\..\Software\uCOS-III\Source/os_tmr.c **** /*
   2:..\..\..\..\..\..\Software\uCOS-III\Source/os_tmr.c **** ***************************************************************************************************
   3:..\..\..\..\..\..\Software\uCOS-III\Source/os_tmr.c **** *                                                      uC/OS-III
   4:..\..\..\..\..\..\Software\uCOS-III\Source/os_tmr.c **** *                                                 The Real-Time Kernel
   5:..\..\..\..\..\..\Software\uCOS-III\Source/os_tmr.c **** *
   6:..\..\..\..\..\..\Software\uCOS-III\Source/os_tmr.c **** *                                  (c) Copyright 2009-2015; Micrium, Inc.; Weston, FL
   7:..\..\..\..\..\..\Software\uCOS-III\Source/os_tmr.c **** *                           All rights reserved.  Protected by international copyright laws.
   8:..\..\..\..\..\..\Software\uCOS-III\Source/os_tmr.c **** *
   9:..\..\..\..\..\..\Software\uCOS-III\Source/os_tmr.c **** *                                                   TIMER MANAGEMENT
  10:..\..\..\..\..\..\Software\uCOS-III\Source/os_tmr.c **** *
  11:..\..\..\..\..\..\Software\uCOS-III\Source/os_tmr.c **** * File    : OS_TMR.C
  12:..\..\..\..\..\..\Software\uCOS-III\Source/os_tmr.c **** * By      : JJL
  13:..\..\..\..\..\..\Software\uCOS-III\Source/os_tmr.c **** * Version : V3.05.01
  14:..\..\..\..\..\..\Software\uCOS-III\Source/os_tmr.c **** *
  15:..\..\..\..\..\..\Software\uCOS-III\Source/os_tmr.c **** * LICENSING TERMS:
  16:..\..\..\..\..\..\Software\uCOS-III\Source/os_tmr.c **** * ---------------
  17:..\..\..\..\..\..\Software\uCOS-III\Source/os_tmr.c **** *           uC/OS-III is provided in source form for FREE short-term evaluation, for educational us
  18:..\..\..\..\..\..\Software\uCOS-III\Source/os_tmr.c **** *           for peaceful research.  If you plan or intend to use uC/OS-III in a commercial applicat
  19:..\..\..\..\..\..\Software\uCOS-III\Source/os_tmr.c **** *           product then, you need to contact Micrium to properly license uC/OS-III for its use in 
  20:..\..\..\..\..\..\Software\uCOS-III\Source/os_tmr.c **** *           application/product.   We provide ALL the source code for your convenience and to help 
  21:..\..\..\..\..\..\Software\uCOS-III\Source/os_tmr.c **** *           experience uC/OS-III.  The fact that the source is provided does NOT mean that you can 
  22:..\..\..\..\..\..\Software\uCOS-III\Source/os_tmr.c **** *           it commercially without paying a licensing fee.
  23:..\..\..\..\..\..\Software\uCOS-III\Source/os_tmr.c **** *
  24:..\..\..\..\..\..\Software\uCOS-III\Source/os_tmr.c **** *           Knowledge of the source code may NOT be used to develop a similar product.
  25:..\..\..\..\..\..\Software\uCOS-III\Source/os_tmr.c **** *
  26:..\..\..\..\..\..\Software\uCOS-III\Source/os_tmr.c **** *           Please help us continue to provide the embedded community with the finest software avai
  27:..\..\..\..\..\..\Software\uCOS-III\Source/os_tmr.c **** *           Your honesty is greatly appreciated.
  28:..\..\..\..\..\..\Software\uCOS-III\Source/os_tmr.c **** *
  29:..\..\..\..\..\..\Software\uCOS-III\Source/os_tmr.c **** *           You can find our product's user manual, API reference, release notes and
  30:..\..\..\..\..\..\Software\uCOS-III\Source/os_tmr.c **** *           more information at https://doc.micrium.com.
ARM GAS  C:\Users\ADMINI~1\AppData\Local\Temp\ccofok6U.s 			page 2


  31:..\..\..\..\..\..\Software\uCOS-III\Source/os_tmr.c **** *           You can contact us at www.micrium.com.
  32:..\..\..\..\..\..\Software\uCOS-III\Source/os_tmr.c **** ***************************************************************************************************
  33:..\..\..\..\..\..\Software\uCOS-III\Source/os_tmr.c **** */
  34:..\..\..\..\..\..\Software\uCOS-III\Source/os_tmr.c **** 
  35:..\..\..\..\..\..\Software\uCOS-III\Source/os_tmr.c **** #define  MICRIUM_SOURCE
  36:..\..\..\..\..\..\Software\uCOS-III\Source/os_tmr.c **** #include "os.h"
  37:..\..\..\..\..\..\Software\uCOS-III\Source/os_tmr.c **** 
  38:..\..\..\..\..\..\Software\uCOS-III\Source/os_tmr.c **** #ifdef VSC_INCLUDE_SOURCE_FILE_NAMES
  39:..\..\..\..\..\..\Software\uCOS-III\Source/os_tmr.c **** const  CPU_CHAR  *os_tmr__c = "$Id: $";
  40:..\..\..\..\..\..\Software\uCOS-III\Source/os_tmr.c **** #endif
  41:..\..\..\..\..\..\Software\uCOS-III\Source/os_tmr.c **** 
  42:..\..\..\..\..\..\Software\uCOS-III\Source/os_tmr.c **** 
  43:..\..\..\..\..\..\Software\uCOS-III\Source/os_tmr.c **** #if (OS_CFG_TMR_EN == DEF_ENABLED)
  44:..\..\..\..\..\..\Software\uCOS-III\Source/os_tmr.c **** /*
  45:..\..\..\..\..\..\Software\uCOS-III\Source/os_tmr.c **** ***************************************************************************************************
  46:..\..\..\..\..\..\Software\uCOS-III\Source/os_tmr.c **** *                                               LOCAL FUNCTION PROTOTYPES
  47:..\..\..\..\..\..\Software\uCOS-III\Source/os_tmr.c **** ***************************************************************************************************
  48:..\..\..\..\..\..\Software\uCOS-III\Source/os_tmr.c **** */
  49:..\..\..\..\..\..\Software\uCOS-III\Source/os_tmr.c **** 
  50:..\..\..\..\..\..\Software\uCOS-III\Source/os_tmr.c **** static  void  OS_TmrLock   (void);
  51:..\..\..\..\..\..\Software\uCOS-III\Source/os_tmr.c **** static  void  OS_TmrUnlock (void);
  52:..\..\..\..\..\..\Software\uCOS-III\Source/os_tmr.c **** 
  53:..\..\..\..\..\..\Software\uCOS-III\Source/os_tmr.c **** 
  54:..\..\..\..\..\..\Software\uCOS-III\Source/os_tmr.c **** /*
  55:..\..\..\..\..\..\Software\uCOS-III\Source/os_tmr.c **** ***************************************************************************************************
  56:..\..\..\..\..\..\Software\uCOS-III\Source/os_tmr.c **** *                                                   CREATE A TIMER
  57:..\..\..\..\..\..\Software\uCOS-III\Source/os_tmr.c **** *
  58:..\..\..\..\..\..\Software\uCOS-III\Source/os_tmr.c **** * Description: This function is called by your application code to create a timer.
  59:..\..\..\..\..\..\Software\uCOS-III\Source/os_tmr.c **** *
  60:..\..\..\..\..\..\Software\uCOS-III\Source/os_tmr.c **** * Arguments  : p_tmr           Is a pointer to a timer control block
  61:..\..\..\..\..\..\Software\uCOS-III\Source/os_tmr.c **** *
  62:..\..\..\..\..\..\Software\uCOS-III\Source/os_tmr.c **** *              p_name          Is a pointer to an ASCII string that is used to name the timer.  Nam
  63:..\..\..\..\..\..\Software\uCOS-III\Source/os_tmr.c **** *                              debugging.
  64:..\..\..\..\..\..\Software\uCOS-III\Source/os_tmr.c **** *
  65:..\..\..\..\..\..\Software\uCOS-III\Source/os_tmr.c **** *              dly             Initial delay.
  66:..\..\..\..\..\..\Software\uCOS-III\Source/os_tmr.c **** *                              If the timer is configured for ONE-SHOT mode, this is the timeout us
  67:..\..\..\..\..\..\Software\uCOS-III\Source/os_tmr.c **** *                              If the timer is configured for PERIODIC mode, this is the first time
  68:..\..\..\..\..\..\Software\uCOS-III\Source/os_tmr.c **** *                              before the timer starts entering periodic mode
  69:..\..\..\..\..\..\Software\uCOS-III\Source/os_tmr.c **** *
  70:..\..\..\..\..\..\Software\uCOS-III\Source/os_tmr.c **** *              period          The 'period' being repeated for the timer.
  71:..\..\..\..\..\..\Software\uCOS-III\Source/os_tmr.c **** *                              If you specified 'OS_OPT_TMR_PERIODIC' as an option, when the timer 
  72:..\..\..\..\..\..\Software\uCOS-III\Source/os_tmr.c **** *                              automatically restart with the same period.
  73:..\..\..\..\..\..\Software\uCOS-III\Source/os_tmr.c **** *
  74:..\..\..\..\..\..\Software\uCOS-III\Source/os_tmr.c **** *              opt             Specifies either:
  75:..\..\..\..\..\..\Software\uCOS-III\Source/os_tmr.c **** *
  76:..\..\..\..\..\..\Software\uCOS-III\Source/os_tmr.c **** *                                  OS_OPT_TMR_ONE_SHOT       The timer counts down only once
  77:..\..\..\..\..\..\Software\uCOS-III\Source/os_tmr.c **** *                                  OS_OPT_TMR_PERIODIC       The timer counts down and then reloads
  78:..\..\..\..\..\..\Software\uCOS-III\Source/os_tmr.c **** *
  79:..\..\..\..\..\..\Software\uCOS-III\Source/os_tmr.c **** *              p_callback      Is a pointer to a callback function that will be called when the tim
  80:..\..\..\..\..\..\Software\uCOS-III\Source/os_tmr.c **** *                              callback function must be declared as follows:
  81:..\..\..\..\..\..\Software\uCOS-III\Source/os_tmr.c **** *
  82:..\..\..\..\..\..\Software\uCOS-III\Source/os_tmr.c **** *                                  void  MyCallback (OS_TMR *p_tmr, void *p_arg);
  83:..\..\..\..\..\..\Software\uCOS-III\Source/os_tmr.c **** *
  84:..\..\..\..\..\..\Software\uCOS-III\Source/os_tmr.c **** *              p_callback_arg  Is an argument (a pointer) that is passed to the callback function w
  85:..\..\..\..\..\..\Software\uCOS-III\Source/os_tmr.c **** *
  86:..\..\..\..\..\..\Software\uCOS-III\Source/os_tmr.c **** *              p_err           Is a pointer to an error code.  '*p_err' will contain one of the fol
  87:..\..\..\..\..\..\Software\uCOS-III\Source/os_tmr.c **** *
ARM GAS  C:\Users\ADMINI~1\AppData\Local\Temp\ccofok6U.s 			page 3


  88:..\..\..\..\..\..\Software\uCOS-III\Source/os_tmr.c **** *                                 OS_ERR_NONE                    The call succeeded
  89:..\..\..\..\..\..\Software\uCOS-III\Source/os_tmr.c **** *                                 OS_ERR_ILLEGAL_CREATE_RUN_TIME If you are trying to create the ti
  90:..\..\..\..\..\..\Software\uCOS-III\Source/os_tmr.c **** *                                                                  OSStart()
  91:..\..\..\..\..\..\Software\uCOS-III\Source/os_tmr.c **** *                                 OS_ERR_OBJ_PTR_NULL            Is 'p_tmr' is a NULL pointer
  92:..\..\..\..\..\..\Software\uCOS-III\Source/os_tmr.c **** *                                 OS_ERR_OPT_INVALID             You specified an invalid option
  93:..\..\..\..\..\..\Software\uCOS-III\Source/os_tmr.c **** *                                 OS_ERR_TMR_INVALID_CALLBACK    You specified an invalid callback 
  94:..\..\..\..\..\..\Software\uCOS-III\Source/os_tmr.c **** *                                 OS_ERR_TMR_INVALID_DLY         You specified an invalid delay
  95:..\..\..\..\..\..\Software\uCOS-III\Source/os_tmr.c **** *                                 OS_ERR_TMR_INVALID_PERIOD      You specified an invalid period
  96:..\..\..\..\..\..\Software\uCOS-III\Source/os_tmr.c **** *                                 OS_ERR_TMR_ISR                 If the call was made from an ISR
  97:..\..\..\..\..\..\Software\uCOS-III\Source/os_tmr.c **** *
  98:..\..\..\..\..\..\Software\uCOS-III\Source/os_tmr.c **** * Returns    : none
  99:..\..\..\..\..\..\Software\uCOS-III\Source/os_tmr.c **** *
 100:..\..\..\..\..\..\Software\uCOS-III\Source/os_tmr.c **** * Note(s)    : 1) This function only creates the timer.  In other words, the timer is not started w
 101:..\..\..\..\..\..\Software\uCOS-III\Source/os_tmr.c **** *                 start the timer, call OSTmrStart().
 102:..\..\..\..\..\..\Software\uCOS-III\Source/os_tmr.c **** ***************************************************************************************************
 103:..\..\..\..\..\..\Software\uCOS-III\Source/os_tmr.c **** */
 104:..\..\..\..\..\..\Software\uCOS-III\Source/os_tmr.c **** 
 105:..\..\..\..\..\..\Software\uCOS-III\Source/os_tmr.c **** void  OSTmrCreate (OS_TMR               *p_tmr,
 106:..\..\..\..\..\..\Software\uCOS-III\Source/os_tmr.c ****                    CPU_CHAR             *p_name,
 107:..\..\..\..\..\..\Software\uCOS-III\Source/os_tmr.c ****                    OS_TICK               dly,
 108:..\..\..\..\..\..\Software\uCOS-III\Source/os_tmr.c ****                    OS_TICK               period,
 109:..\..\..\..\..\..\Software\uCOS-III\Source/os_tmr.c ****                    OS_OPT                opt,
 110:..\..\..\..\..\..\Software\uCOS-III\Source/os_tmr.c ****                    OS_TMR_CALLBACK_PTR   p_callback,
 111:..\..\..\..\..\..\Software\uCOS-III\Source/os_tmr.c ****                    void                 *p_callback_arg,
 112:..\..\..\..\..\..\Software\uCOS-III\Source/os_tmr.c ****                    OS_ERR               *p_err)
 113:..\..\..\..\..\..\Software\uCOS-III\Source/os_tmr.c **** {
  28              		.loc 1 113 0
  29              		.cfi_startproc
  30              		@ args = 16, pretend = 0, frame = 16
  31              		@ frame_needed = 1, uses_anonymous_args = 0
  32 0000 80B5     		push	{r7, lr}
  33              		.cfi_def_cfa_offset 8
  34              		.cfi_offset 7, -8
  35              		.cfi_offset 14, -4
  36 0002 84B0     		sub	sp, sp, #16
  37              		.cfi_def_cfa_offset 24
  38 0004 00AF     		add	r7, sp, #0
  39              		.cfi_def_cfa_register 7
  40 0006 F860     		str	r0, [r7, #12]
  41 0008 B960     		str	r1, [r7, #8]
  42 000a 7A60     		str	r2, [r7, #4]
  43 000c 3B60     		str	r3, [r7]
 114:..\..\..\..\..\..\Software\uCOS-III\Source/os_tmr.c **** #ifdef OS_SAFETY_CRITICAL
 115:..\..\..\..\..\..\Software\uCOS-III\Source/os_tmr.c ****     if (p_err == DEF_NULL) {
 116:..\..\..\..\..\..\Software\uCOS-III\Source/os_tmr.c ****         OS_SAFETY_CRITICAL_EXCEPTION();
 117:..\..\..\..\..\..\Software\uCOS-III\Source/os_tmr.c ****         return;
 118:..\..\..\..\..\..\Software\uCOS-III\Source/os_tmr.c ****     }
 119:..\..\..\..\..\..\Software\uCOS-III\Source/os_tmr.c **** #endif
 120:..\..\..\..\..\..\Software\uCOS-III\Source/os_tmr.c **** 
 121:..\..\..\..\..\..\Software\uCOS-III\Source/os_tmr.c **** #ifdef OS_SAFETY_CRITICAL_IEC61508
 122:..\..\..\..\..\..\Software\uCOS-III\Source/os_tmr.c ****     if (OSSafetyCriticalStartFlag == DEF_TRUE) {
 123:..\..\..\..\..\..\Software\uCOS-III\Source/os_tmr.c ****        *p_err = OS_ERR_ILLEGAL_CREATE_RUN_TIME;
 124:..\..\..\..\..\..\Software\uCOS-III\Source/os_tmr.c ****         return;
 125:..\..\..\..\..\..\Software\uCOS-III\Source/os_tmr.c ****     }
 126:..\..\..\..\..\..\Software\uCOS-III\Source/os_tmr.c **** #endif
 127:..\..\..\..\..\..\Software\uCOS-III\Source/os_tmr.c **** 
 128:..\..\..\..\..\..\Software\uCOS-III\Source/os_tmr.c **** #if (OS_CFG_CALLED_FROM_ISR_CHK_EN == DEF_ENABLED)
ARM GAS  C:\Users\ADMINI~1\AppData\Local\Temp\ccofok6U.s 			page 4


 129:..\..\..\..\..\..\Software\uCOS-III\Source/os_tmr.c ****     if (OSIntNestingCtr > 0u) {                                 /* See if trying to call from an IS
  44              		.loc 1 129 0
  45 000e 394B     		ldr	r3, .L17
  46 0010 1B78     		ldrb	r3, [r3]
  47 0012 002B     		cmp	r3, #0
  48 0014 03D0     		beq	.L2
 130:..\..\..\..\..\..\Software\uCOS-III\Source/os_tmr.c ****        *p_err = OS_ERR_TMR_ISR;
  49              		.loc 1 130 0
  50 0016 7B6A     		ldr	r3, [r7, #36]
  51 0018 374A     		ldr	r2, .L17+4
  52 001a 1A80     		strh	r2, [r3]
 131:..\..\..\..\..\..\Software\uCOS-III\Source/os_tmr.c ****         return;
  53              		.loc 1 131 0
  54 001c 66E0     		b	.L1
  55              	.L2:
 132:..\..\..\..\..\..\Software\uCOS-III\Source/os_tmr.c ****     }
 133:..\..\..\..\..\..\Software\uCOS-III\Source/os_tmr.c **** #endif
 134:..\..\..\..\..\..\Software\uCOS-III\Source/os_tmr.c **** 
 135:..\..\..\..\..\..\Software\uCOS-III\Source/os_tmr.c **** #if (OS_CFG_ARG_CHK_EN == DEF_ENABLED)
 136:..\..\..\..\..\..\Software\uCOS-III\Source/os_tmr.c ****     if (p_tmr == DEF_NULL) {                                    /* Validate 'p_tmr'                
  56              		.loc 1 136 0
  57 001e FB68     		ldr	r3, [r7, #12]
  58 0020 002B     		cmp	r3, #0
  59 0022 03D1     		bne	.L4
 137:..\..\..\..\..\..\Software\uCOS-III\Source/os_tmr.c ****        *p_err = OS_ERR_OBJ_PTR_NULL;
  60              		.loc 1 137 0
  61 0024 7B6A     		ldr	r3, [r7, #36]
  62 0026 354A     		ldr	r2, .L17+8
  63 0028 1A80     		strh	r2, [r3]
 138:..\..\..\..\..\..\Software\uCOS-III\Source/os_tmr.c ****         return;
  64              		.loc 1 138 0
  65 002a 5FE0     		b	.L1
  66              	.L4:
 139:..\..\..\..\..\..\Software\uCOS-III\Source/os_tmr.c ****     }
 140:..\..\..\..\..\..\Software\uCOS-III\Source/os_tmr.c **** 
 141:..\..\..\..\..\..\Software\uCOS-III\Source/os_tmr.c ****     switch (opt) {
  67              		.loc 1 141 0
  68 002c 1823     		movs	r3, #24
  69 002e FB18     		adds	r3, r7, r3
  70 0030 1B88     		ldrh	r3, [r3]
  71 0032 012B     		cmp	r3, #1
  72 0034 0FD0     		beq	.L6
  73 0036 022B     		cmp	r3, #2
  74 0038 14D1     		bne	.L14
 142:..\..\..\..\..\..\Software\uCOS-III\Source/os_tmr.c ****         case OS_OPT_TMR_PERIODIC:
 143:..\..\..\..\..\..\Software\uCOS-III\Source/os_tmr.c ****              if (period == 0u) {
  75              		.loc 1 143 0
  76 003a 3B68     		ldr	r3, [r7]
  77 003c 002B     		cmp	r3, #0
  78 003e 03D1     		bne	.L8
 144:..\..\..\..\..\..\Software\uCOS-III\Source/os_tmr.c ****                 *p_err = OS_ERR_TMR_INVALID_PERIOD;
  79              		.loc 1 144 0
  80 0040 7B6A     		ldr	r3, [r7, #36]
  81 0042 2F4A     		ldr	r2, .L17+12
  82 0044 1A80     		strh	r2, [r3]
 145:..\..\..\..\..\..\Software\uCOS-III\Source/os_tmr.c ****                  return;
  83              		.loc 1 145 0
ARM GAS  C:\Users\ADMINI~1\AppData\Local\Temp\ccofok6U.s 			page 5


  84 0046 51E0     		b	.L1
  85              	.L8:
 146:..\..\..\..\..\..\Software\uCOS-III\Source/os_tmr.c ****              }
 147:..\..\..\..\..\..\Software\uCOS-III\Source/os_tmr.c **** 
 148:..\..\..\..\..\..\Software\uCOS-III\Source/os_tmr.c ****              if (p_callback == DEF_NULL) {                      /* No point in a periodic timer wit
  86              		.loc 1 148 0
  87 0048 FB69     		ldr	r3, [r7, #28]
  88 004a 002B     		cmp	r3, #0
  89 004c 0ED1     		bne	.L15
 149:..\..\..\..\..\..\Software\uCOS-III\Source/os_tmr.c ****                 *p_err = OS_ERR_TMR_INVALID_CALLBACK;
  90              		.loc 1 149 0
  91 004e 7B6A     		ldr	r3, [r7, #36]
  92 0050 2C4A     		ldr	r2, .L17+16
  93 0052 1A80     		strh	r2, [r3]
 150:..\..\..\..\..\..\Software\uCOS-III\Source/os_tmr.c ****                  return;
  94              		.loc 1 150 0
  95 0054 4AE0     		b	.L1
  96              	.L6:
 151:..\..\..\..\..\..\Software\uCOS-III\Source/os_tmr.c ****              }
 152:..\..\..\..\..\..\Software\uCOS-III\Source/os_tmr.c ****              break;
 153:..\..\..\..\..\..\Software\uCOS-III\Source/os_tmr.c **** 
 154:..\..\..\..\..\..\Software\uCOS-III\Source/os_tmr.c ****         case OS_OPT_TMR_ONE_SHOT:
 155:..\..\..\..\..\..\Software\uCOS-III\Source/os_tmr.c ****              if (dly == 0u) {
  97              		.loc 1 155 0
  98 0056 7B68     		ldr	r3, [r7, #4]
  99 0058 002B     		cmp	r3, #0
 100 005a 09D1     		bne	.L16
 156:..\..\..\..\..\..\Software\uCOS-III\Source/os_tmr.c ****                 *p_err = OS_ERR_TMR_INVALID_DLY;
 101              		.loc 1 156 0
 102 005c 7B6A     		ldr	r3, [r7, #36]
 103 005e 2A4A     		ldr	r2, .L17+20
 104 0060 1A80     		strh	r2, [r3]
 157:..\..\..\..\..\..\Software\uCOS-III\Source/os_tmr.c ****                  return;
 105              		.loc 1 157 0
 106 0062 43E0     		b	.L1
 107              	.L14:
 158:..\..\..\..\..\..\Software\uCOS-III\Source/os_tmr.c ****              }
 159:..\..\..\..\..\..\Software\uCOS-III\Source/os_tmr.c ****              break;
 160:..\..\..\..\..\..\Software\uCOS-III\Source/os_tmr.c **** 
 161:..\..\..\..\..\..\Software\uCOS-III\Source/os_tmr.c ****         default:
 162:..\..\..\..\..\..\Software\uCOS-III\Source/os_tmr.c ****             *p_err = OS_ERR_OPT_INVALID;
 108              		.loc 1 162 0
 109 0064 7B6A     		ldr	r3, [r7, #36]
 110 0066 294A     		ldr	r2, .L17+24
 111 0068 1A80     		strh	r2, [r3]
 163:..\..\..\..\..\..\Software\uCOS-III\Source/os_tmr.c ****              return;
 112              		.loc 1 163 0
 113 006a 3FE0     		b	.L1
 114              	.L15:
 152:..\..\..\..\..\..\Software\uCOS-III\Source/os_tmr.c **** 
 115              		.loc 1 152 0
 116 006c C046     		nop
 117 006e 00E0     		b	.L10
 118              	.L16:
 159:..\..\..\..\..\..\Software\uCOS-III\Source/os_tmr.c **** 
 119              		.loc 1 159 0
 120 0070 C046     		nop
ARM GAS  C:\Users\ADMINI~1\AppData\Local\Temp\ccofok6U.s 			page 6


 121              	.L10:
 164:..\..\..\..\..\..\Software\uCOS-III\Source/os_tmr.c ****     }
 165:..\..\..\..\..\..\Software\uCOS-III\Source/os_tmr.c **** #endif
 166:..\..\..\..\..\..\Software\uCOS-III\Source/os_tmr.c **** 
 167:..\..\..\..\..\..\Software\uCOS-III\Source/os_tmr.c ****     if (OSRunning == OS_STATE_OS_RUNNING) {                     /* Only lock when the kernel is run
 122              		.loc 1 167 0
 123 0072 274B     		ldr	r3, .L17+28
 124 0074 1B78     		ldrb	r3, [r3]
 125 0076 012B     		cmp	r3, #1
 126 0078 01D1     		bne	.L12
 168:..\..\..\..\..\..\Software\uCOS-III\Source/os_tmr.c ****         OS_TmrLock();
 127              		.loc 1 168 0
 128 007a FFF7FEFF 		bl	OS_TmrLock
 129              	.L12:
 169:..\..\..\..\..\..\Software\uCOS-III\Source/os_tmr.c ****     }
 170:..\..\..\..\..\..\Software\uCOS-III\Source/os_tmr.c **** 
 171:..\..\..\..\..\..\Software\uCOS-III\Source/os_tmr.c ****     p_tmr->State          = OS_TMR_STATE_STOPPED;               /* Initialize the timer fields     
 130              		.loc 1 171 0
 131 007e FB68     		ldr	r3, [r7, #12]
 132 0080 2622     		movs	r2, #38
 133 0082 0121     		movs	r1, #1
 134 0084 9954     		strb	r1, [r3, r2]
 172:..\..\..\..\..\..\Software\uCOS-III\Source/os_tmr.c **** #if (OS_OBJ_TYPE_REQ == DEF_ENABLED)
 173:..\..\..\..\..\..\Software\uCOS-III\Source/os_tmr.c ****     p_tmr->Type           = OS_OBJ_TYPE_TMR;
 135              		.loc 1 173 0
 136 0086 FB68     		ldr	r3, [r7, #12]
 137 0088 224A     		ldr	r2, .L17+32
 138 008a 1A60     		str	r2, [r3]
 174:..\..\..\..\..\..\Software\uCOS-III\Source/os_tmr.c **** #endif
 175:..\..\..\..\..\..\Software\uCOS-III\Source/os_tmr.c **** #if (OS_CFG_DBG_EN == DEF_ENABLED)
 176:..\..\..\..\..\..\Software\uCOS-III\Source/os_tmr.c ****     p_tmr->NamePtr        = p_name;
 139              		.loc 1 176 0
 140 008c FB68     		ldr	r3, [r7, #12]
 141 008e BA68     		ldr	r2, [r7, #8]
 142 0090 5A60     		str	r2, [r3, #4]
 177:..\..\..\..\..\..\Software\uCOS-III\Source/os_tmr.c **** #else
 178:..\..\..\..\..\..\Software\uCOS-III\Source/os_tmr.c ****     (void)&p_name;
 179:..\..\..\..\..\..\Software\uCOS-III\Source/os_tmr.c **** #endif
 180:..\..\..\..\..\..\Software\uCOS-III\Source/os_tmr.c ****     p_tmr->Dly            = dly;
 143              		.loc 1 180 0
 144 0092 FB68     		ldr	r3, [r7, #12]
 145 0094 7A68     		ldr	r2, [r7, #4]
 146 0096 DA61     		str	r2, [r3, #28]
 181:..\..\..\..\..\..\Software\uCOS-III\Source/os_tmr.c ****     p_tmr->Remain         = 0u;
 147              		.loc 1 181 0
 148 0098 FB68     		ldr	r3, [r7, #12]
 149 009a 0022     		movs	r2, #0
 150 009c 9A61     		str	r2, [r3, #24]
 182:..\..\..\..\..\..\Software\uCOS-III\Source/os_tmr.c ****     p_tmr->Period         = period;
 151              		.loc 1 182 0
 152 009e FB68     		ldr	r3, [r7, #12]
 153 00a0 3A68     		ldr	r2, [r7]
 154 00a2 1A62     		str	r2, [r3, #32]
 183:..\..\..\..\..\..\Software\uCOS-III\Source/os_tmr.c ****     p_tmr->Opt            = opt;
 155              		.loc 1 183 0
 156 00a4 FB68     		ldr	r3, [r7, #12]
 157 00a6 1822     		movs	r2, #24
ARM GAS  C:\Users\ADMINI~1\AppData\Local\Temp\ccofok6U.s 			page 7


 158 00a8 BA18     		adds	r2, r7, r2
 159 00aa 1288     		ldrh	r2, [r2]
 160 00ac 9A84     		strh	r2, [r3, #36]
 184:..\..\..\..\..\..\Software\uCOS-III\Source/os_tmr.c ****     p_tmr->CallbackPtr    = p_callback;
 161              		.loc 1 184 0
 162 00ae FB68     		ldr	r3, [r7, #12]
 163 00b0 FA69     		ldr	r2, [r7, #28]
 164 00b2 9A60     		str	r2, [r3, #8]
 185:..\..\..\..\..\..\Software\uCOS-III\Source/os_tmr.c ****     p_tmr->CallbackPtrArg = p_callback_arg;
 165              		.loc 1 185 0
 166 00b4 FB68     		ldr	r3, [r7, #12]
 167 00b6 3A6A     		ldr	r2, [r7, #32]
 168 00b8 DA60     		str	r2, [r3, #12]
 186:..\..\..\..\..\..\Software\uCOS-III\Source/os_tmr.c ****     p_tmr->NextPtr        = DEF_NULL;
 169              		.loc 1 186 0
 170 00ba FB68     		ldr	r3, [r7, #12]
 171 00bc 0022     		movs	r2, #0
 172 00be 1A61     		str	r2, [r3, #16]
 187:..\..\..\..\..\..\Software\uCOS-III\Source/os_tmr.c ****     p_tmr->PrevPtr        = DEF_NULL;
 173              		.loc 1 187 0
 174 00c0 FB68     		ldr	r3, [r7, #12]
 175 00c2 0022     		movs	r2, #0
 176 00c4 5A61     		str	r2, [r3, #20]
 188:..\..\..\..\..\..\Software\uCOS-III\Source/os_tmr.c **** 
 189:..\..\..\..\..\..\Software\uCOS-III\Source/os_tmr.c **** #if (OS_CFG_DBG_EN == DEF_ENABLED)
 190:..\..\..\..\..\..\Software\uCOS-III\Source/os_tmr.c ****     OS_TmrDbgListAdd(p_tmr);
 177              		.loc 1 190 0
 178 00c6 FB68     		ldr	r3, [r7, #12]
 179 00c8 1800     		movs	r0, r3
 180 00ca FFF7FEFF 		bl	OS_TmrDbgListAdd
 191:..\..\..\..\..\..\Software\uCOS-III\Source/os_tmr.c **** #endif
 192:..\..\..\..\..\..\Software\uCOS-III\Source/os_tmr.c **** #if (OS_CFG_DBG_EN == DEF_ENABLED)
 193:..\..\..\..\..\..\Software\uCOS-III\Source/os_tmr.c ****     OSTmrQty++;                                                 /* Keep track of the number of time
 181              		.loc 1 193 0
 182 00ce 124B     		ldr	r3, .L17+36
 183 00d0 1B88     		ldrh	r3, [r3]
 184 00d2 0133     		adds	r3, r3, #1
 185 00d4 9AB2     		uxth	r2, r3
 186 00d6 104B     		ldr	r3, .L17+36
 187 00d8 1A80     		strh	r2, [r3]
 194:..\..\..\..\..\..\Software\uCOS-III\Source/os_tmr.c **** #endif
 195:..\..\..\..\..\..\Software\uCOS-III\Source/os_tmr.c **** 
 196:..\..\..\..\..\..\Software\uCOS-III\Source/os_tmr.c ****     if (OSRunning == OS_STATE_OS_RUNNING) {
 188              		.loc 1 196 0
 189 00da 0D4B     		ldr	r3, .L17+28
 190 00dc 1B78     		ldrb	r3, [r3]
 191 00de 012B     		cmp	r3, #1
 192 00e0 01D1     		bne	.L13
 197:..\..\..\..\..\..\Software\uCOS-III\Source/os_tmr.c ****         OS_TmrUnlock();
 193              		.loc 1 197 0
 194 00e2 FFF7FEFF 		bl	OS_TmrUnlock
 195              	.L13:
 198:..\..\..\..\..\..\Software\uCOS-III\Source/os_tmr.c ****     }
 199:..\..\..\..\..\..\Software\uCOS-III\Source/os_tmr.c **** 
 200:..\..\..\..\..\..\Software\uCOS-III\Source/os_tmr.c ****    *p_err = OS_ERR_NONE;
 196              		.loc 1 200 0
 197 00e6 7B6A     		ldr	r3, [r7, #36]
ARM GAS  C:\Users\ADMINI~1\AppData\Local\Temp\ccofok6U.s 			page 8


 198 00e8 0022     		movs	r2, #0
 199 00ea 1A80     		strh	r2, [r3]
 200              	.L1:
 201:..\..\..\..\..\..\Software\uCOS-III\Source/os_tmr.c **** }
 201              		.loc 1 201 0
 202 00ec BD46     		mov	sp, r7
 203 00ee 04B0     		add	sp, sp, #16
 204              		@ sp needed
 205 00f0 80BD     		pop	{r7, pc}
 206              	.L18:
 207 00f2 C046     		.align	2
 208              	.L17:
 209 00f4 00000000 		.word	OSIntNestingCtr
 210 00f8 43730000 		.word	29507
 211 00fc C35D0000 		.word	24003
 212 0100 40730000 		.word	29504
 213 0104 4A730000 		.word	29514
 214 0108 3F730000 		.word	29503
 215 010c 255E0000 		.word	24101
 216 0110 00000000 		.word	OSRunning
 217 0114 544D5220 		.word	542264660
 218 0118 00000000 		.word	OSTmrQty
 219              		.cfi_endproc
 220              	.LFE0:
 221              		.size	OSTmrCreate, .-OSTmrCreate
 222              		.section	.text.OSTmrRemainGet,"ax",%progbits
 223              		.align	2
 224              		.global	OSTmrRemainGet
 225              		.code	16
 226              		.thumb_func
 227              		.type	OSTmrRemainGet, %function
 228              	OSTmrRemainGet:
 229              	.LFB1:
 202:..\..\..\..\..\..\Software\uCOS-III\Source/os_tmr.c **** 
 203:..\..\..\..\..\..\Software\uCOS-III\Source/os_tmr.c **** 
 204:..\..\..\..\..\..\Software\uCOS-III\Source/os_tmr.c **** /*
 205:..\..\..\..\..\..\Software\uCOS-III\Source/os_tmr.c **** ***************************************************************************************************
 206:..\..\..\..\..\..\Software\uCOS-III\Source/os_tmr.c **** *                                                   DELETE A TIMER
 207:..\..\..\..\..\..\Software\uCOS-III\Source/os_tmr.c **** *
 208:..\..\..\..\..\..\Software\uCOS-III\Source/os_tmr.c **** * Description: This function is called by your application code to delete a timer.
 209:..\..\..\..\..\..\Software\uCOS-III\Source/os_tmr.c **** *
 210:..\..\..\..\..\..\Software\uCOS-III\Source/os_tmr.c **** * Arguments  : p_tmr          Is a pointer to the timer to stop and delete.
 211:..\..\..\..\..\..\Software\uCOS-III\Source/os_tmr.c **** *
 212:..\..\..\..\..\..\Software\uCOS-III\Source/os_tmr.c **** *              p_err          Is a pointer to an error code.  '*p_err' will contain one of the foll
 213:..\..\..\..\..\..\Software\uCOS-III\Source/os_tmr.c **** *
 214:..\..\..\..\..\..\Software\uCOS-III\Source/os_tmr.c **** *                                 OS_ERR_NONE                    The call succeeded
 215:..\..\..\..\..\..\Software\uCOS-III\Source/os_tmr.c **** *                                 OS_ERR_ILLEGAL_DEL_RUN_TIME    If you are trying to delete the ti
 216:..\..\..\..\..\..\Software\uCOS-III\Source/os_tmr.c **** *                                                                  OSStart()
 217:..\..\..\..\..\..\Software\uCOS-III\Source/os_tmr.c **** *                                 OS_ERR_OBJ_TYPE                If 'p_tmr' is not pointing to a ti
 218:..\..\..\..\..\..\Software\uCOS-III\Source/os_tmr.c **** *                                 OS_ERR_OS_NOT_RUNNING          If uC/OS-III is not running yet
 219:..\..\..\..\..\..\Software\uCOS-III\Source/os_tmr.c **** *                                 OS_ERR_TMR_INACTIVE            If the timer was not created
 220:..\..\..\..\..\..\Software\uCOS-III\Source/os_tmr.c **** *                                 OS_ERR_TMR_INVALID             If 'p_tmr' is a NULL pointer
 221:..\..\..\..\..\..\Software\uCOS-III\Source/os_tmr.c **** *                                 OS_ERR_TMR_INVALID_STATE       The timer is in an invalid state
 222:..\..\..\..\..\..\Software\uCOS-III\Source/os_tmr.c **** *                                 OS_ERR_TMR_ISR                 If the function was called from an
 223:..\..\..\..\..\..\Software\uCOS-III\Source/os_tmr.c **** *
 224:..\..\..\..\..\..\Software\uCOS-III\Source/os_tmr.c **** * Returns    : DEF_TRUE   if the timer was deleted
 225:..\..\..\..\..\..\Software\uCOS-III\Source/os_tmr.c **** *              DEF_FALSE  if not or upon an error
ARM GAS  C:\Users\ADMINI~1\AppData\Local\Temp\ccofok6U.s 			page 9


 226:..\..\..\..\..\..\Software\uCOS-III\Source/os_tmr.c **** *
 227:..\..\..\..\..\..\Software\uCOS-III\Source/os_tmr.c **** * Note(s)    : none
 228:..\..\..\..\..\..\Software\uCOS-III\Source/os_tmr.c **** ***************************************************************************************************
 229:..\..\..\..\..\..\Software\uCOS-III\Source/os_tmr.c **** */
 230:..\..\..\..\..\..\Software\uCOS-III\Source/os_tmr.c **** 
 231:..\..\..\..\..\..\Software\uCOS-III\Source/os_tmr.c **** #if (OS_CFG_TMR_DEL_EN == DEF_ENABLED)
 232:..\..\..\..\..\..\Software\uCOS-III\Source/os_tmr.c **** CPU_BOOLEAN  OSTmrDel (OS_TMR  *p_tmr,
 233:..\..\..\..\..\..\Software\uCOS-III\Source/os_tmr.c ****                        OS_ERR  *p_err)
 234:..\..\..\..\..\..\Software\uCOS-III\Source/os_tmr.c **** {
 235:..\..\..\..\..\..\Software\uCOS-III\Source/os_tmr.c ****     CPU_BOOLEAN  success;
 236:..\..\..\..\..\..\Software\uCOS-III\Source/os_tmr.c **** 
 237:..\..\..\..\..\..\Software\uCOS-III\Source/os_tmr.c **** 
 238:..\..\..\..\..\..\Software\uCOS-III\Source/os_tmr.c **** 
 239:..\..\..\..\..\..\Software\uCOS-III\Source/os_tmr.c **** #ifdef OS_SAFETY_CRITICAL
 240:..\..\..\..\..\..\Software\uCOS-III\Source/os_tmr.c ****     if (p_err == DEF_NULL) {
 241:..\..\..\..\..\..\Software\uCOS-III\Source/os_tmr.c ****         OS_SAFETY_CRITICAL_EXCEPTION();
 242:..\..\..\..\..\..\Software\uCOS-III\Source/os_tmr.c ****         return (DEF_FALSE);
 243:..\..\..\..\..\..\Software\uCOS-III\Source/os_tmr.c ****     }
 244:..\..\..\..\..\..\Software\uCOS-III\Source/os_tmr.c **** #endif
 245:..\..\..\..\..\..\Software\uCOS-III\Source/os_tmr.c **** 
 246:..\..\..\..\..\..\Software\uCOS-III\Source/os_tmr.c **** #ifdef OS_SAFETY_CRITICAL_IEC61508
 247:..\..\..\..\..\..\Software\uCOS-III\Source/os_tmr.c ****     if (OSSafetyCriticalStartFlag == DEF_TRUE) {
 248:..\..\..\..\..\..\Software\uCOS-III\Source/os_tmr.c ****        *p_err = OS_ERR_ILLEGAL_DEL_RUN_TIME;
 249:..\..\..\..\..\..\Software\uCOS-III\Source/os_tmr.c ****         return (DEF_FALSE);
 250:..\..\..\..\..\..\Software\uCOS-III\Source/os_tmr.c ****     }
 251:..\..\..\..\..\..\Software\uCOS-III\Source/os_tmr.c **** #endif
 252:..\..\..\..\..\..\Software\uCOS-III\Source/os_tmr.c **** 
 253:..\..\..\..\..\..\Software\uCOS-III\Source/os_tmr.c **** #if (OS_CFG_CALLED_FROM_ISR_CHK_EN == DEF_ENABLED)
 254:..\..\..\..\..\..\Software\uCOS-III\Source/os_tmr.c ****     if (OSIntNestingCtr > 0u) {                                 /* See if trying to call from an IS
 255:..\..\..\..\..\..\Software\uCOS-III\Source/os_tmr.c ****        *p_err  = OS_ERR_TMR_ISR;
 256:..\..\..\..\..\..\Software\uCOS-III\Source/os_tmr.c ****         return (DEF_FALSE);
 257:..\..\..\..\..\..\Software\uCOS-III\Source/os_tmr.c ****     }
 258:..\..\..\..\..\..\Software\uCOS-III\Source/os_tmr.c **** #endif
 259:..\..\..\..\..\..\Software\uCOS-III\Source/os_tmr.c **** 
 260:..\..\..\..\..\..\Software\uCOS-III\Source/os_tmr.c **** #if (OS_CFG_INVALID_OS_CALLS_CHK_EN == DEF_ENABLED)             /* Is the kernel running?          
 261:..\..\..\..\..\..\Software\uCOS-III\Source/os_tmr.c ****     if (OSRunning != OS_STATE_OS_RUNNING) {
 262:..\..\..\..\..\..\Software\uCOS-III\Source/os_tmr.c ****        *p_err = OS_ERR_OS_NOT_RUNNING;
 263:..\..\..\..\..\..\Software\uCOS-III\Source/os_tmr.c ****         return (DEF_FALSE);
 264:..\..\..\..\..\..\Software\uCOS-III\Source/os_tmr.c ****     }
 265:..\..\..\..\..\..\Software\uCOS-III\Source/os_tmr.c **** #endif
 266:..\..\..\..\..\..\Software\uCOS-III\Source/os_tmr.c **** 
 267:..\..\..\..\..\..\Software\uCOS-III\Source/os_tmr.c **** #if (OS_CFG_ARG_CHK_EN == DEF_ENABLED)
 268:..\..\..\..\..\..\Software\uCOS-III\Source/os_tmr.c ****     if (p_tmr == DEF_NULL) {
 269:..\..\..\..\..\..\Software\uCOS-III\Source/os_tmr.c ****        *p_err = OS_ERR_TMR_INVALID;
 270:..\..\..\..\..\..\Software\uCOS-III\Source/os_tmr.c ****         return (DEF_FALSE);
 271:..\..\..\..\..\..\Software\uCOS-III\Source/os_tmr.c ****     }
 272:..\..\..\..\..\..\Software\uCOS-III\Source/os_tmr.c **** #endif
 273:..\..\..\..\..\..\Software\uCOS-III\Source/os_tmr.c **** 
 274:..\..\..\..\..\..\Software\uCOS-III\Source/os_tmr.c **** #if (OS_CFG_OBJ_TYPE_CHK_EN == DEF_ENABLED)
 275:..\..\..\..\..\..\Software\uCOS-III\Source/os_tmr.c ****     if (p_tmr->Type != OS_OBJ_TYPE_TMR) {                       /* Make sure timer was created     
 276:..\..\..\..\..\..\Software\uCOS-III\Source/os_tmr.c ****        *p_err = OS_ERR_OBJ_TYPE;
 277:..\..\..\..\..\..\Software\uCOS-III\Source/os_tmr.c ****         return (DEF_FALSE);
 278:..\..\..\..\..\..\Software\uCOS-III\Source/os_tmr.c ****     }
 279:..\..\..\..\..\..\Software\uCOS-III\Source/os_tmr.c **** #endif
 280:..\..\..\..\..\..\Software\uCOS-III\Source/os_tmr.c **** 
 281:..\..\..\..\..\..\Software\uCOS-III\Source/os_tmr.c ****     OS_TmrLock();
 282:..\..\..\..\..\..\Software\uCOS-III\Source/os_tmr.c **** 
ARM GAS  C:\Users\ADMINI~1\AppData\Local\Temp\ccofok6U.s 			page 10


 283:..\..\..\..\..\..\Software\uCOS-III\Source/os_tmr.c **** #if (OS_CFG_DBG_EN == DEF_ENABLED)
 284:..\..\..\..\..\..\Software\uCOS-III\Source/os_tmr.c ****     OS_TmrDbgListRemove(p_tmr);
 285:..\..\..\..\..\..\Software\uCOS-III\Source/os_tmr.c **** #endif
 286:..\..\..\..\..\..\Software\uCOS-III\Source/os_tmr.c **** 
 287:..\..\..\..\..\..\Software\uCOS-III\Source/os_tmr.c ****     switch (p_tmr->State) {
 288:..\..\..\..\..\..\Software\uCOS-III\Source/os_tmr.c ****         case OS_TMR_STATE_RUNNING:
 289:..\..\..\..\..\..\Software\uCOS-III\Source/os_tmr.c ****              OS_TmrUnlink(p_tmr);                               /* Remove from the list            
 290:..\..\..\..\..\..\Software\uCOS-III\Source/os_tmr.c ****              OS_TmrClr(p_tmr);
 291:..\..\..\..\..\..\Software\uCOS-III\Source/os_tmr.c **** #if (OS_CFG_DBG_EN == DEF_ENABLED)
 292:..\..\..\..\..\..\Software\uCOS-III\Source/os_tmr.c ****              OSTmrQty--;                                        /* One less timer                  
 293:..\..\..\..\..\..\Software\uCOS-III\Source/os_tmr.c **** #endif
 294:..\..\..\..\..\..\Software\uCOS-III\Source/os_tmr.c ****             *p_err   = OS_ERR_NONE;
 295:..\..\..\..\..\..\Software\uCOS-III\Source/os_tmr.c ****              success = DEF_TRUE;
 296:..\..\..\..\..\..\Software\uCOS-III\Source/os_tmr.c ****              break;
 297:..\..\..\..\..\..\Software\uCOS-III\Source/os_tmr.c **** 
 298:..\..\..\..\..\..\Software\uCOS-III\Source/os_tmr.c ****         case OS_TMR_STATE_STOPPED:                              /* Timer has not started or ...    
 299:..\..\..\..\..\..\Software\uCOS-III\Source/os_tmr.c ****         case OS_TMR_STATE_COMPLETED:                            /* ... timer has completed the ONE-
 300:..\..\..\..\..\..\Software\uCOS-III\Source/os_tmr.c ****              OS_TmrClr(p_tmr);                                  /* Clear timer fields              
 301:..\..\..\..\..\..\Software\uCOS-III\Source/os_tmr.c **** #if (OS_CFG_DBG_EN == DEF_ENABLED)
 302:..\..\..\..\..\..\Software\uCOS-III\Source/os_tmr.c ****              OSTmrQty--;                                        /* One less timer                  
 303:..\..\..\..\..\..\Software\uCOS-III\Source/os_tmr.c **** #endif
 304:..\..\..\..\..\..\Software\uCOS-III\Source/os_tmr.c ****             *p_err   = OS_ERR_NONE;
 305:..\..\..\..\..\..\Software\uCOS-III\Source/os_tmr.c ****              success = DEF_TRUE;
 306:..\..\..\..\..\..\Software\uCOS-III\Source/os_tmr.c ****              break;
 307:..\..\..\..\..\..\Software\uCOS-III\Source/os_tmr.c ****              
 308:..\..\..\..\..\..\Software\uCOS-III\Source/os_tmr.c ****         case OS_TMR_STATE_UNUSED:                               /* Already deleted                 
 309:..\..\..\..\..\..\Software\uCOS-III\Source/os_tmr.c ****             *p_err   = OS_ERR_TMR_INACTIVE;
 310:..\..\..\..\..\..\Software\uCOS-III\Source/os_tmr.c ****              success = DEF_FALSE;
 311:..\..\..\..\..\..\Software\uCOS-III\Source/os_tmr.c ****              break;
 312:..\..\..\..\..\..\Software\uCOS-III\Source/os_tmr.c **** 
 313:..\..\..\..\..\..\Software\uCOS-III\Source/os_tmr.c ****         default:
 314:..\..\..\..\..\..\Software\uCOS-III\Source/os_tmr.c ****             *p_err   = OS_ERR_TMR_INVALID_STATE;
 315:..\..\..\..\..\..\Software\uCOS-III\Source/os_tmr.c ****              success = DEF_FALSE;
 316:..\..\..\..\..\..\Software\uCOS-III\Source/os_tmr.c ****              break;
 317:..\..\..\..\..\..\Software\uCOS-III\Source/os_tmr.c ****     }
 318:..\..\..\..\..\..\Software\uCOS-III\Source/os_tmr.c **** 
 319:..\..\..\..\..\..\Software\uCOS-III\Source/os_tmr.c ****     OS_TmrUnlock();
 320:..\..\..\..\..\..\Software\uCOS-III\Source/os_tmr.c **** 
 321:..\..\..\..\..\..\Software\uCOS-III\Source/os_tmr.c ****     return (success);
 322:..\..\..\..\..\..\Software\uCOS-III\Source/os_tmr.c **** }
 323:..\..\..\..\..\..\Software\uCOS-III\Source/os_tmr.c **** #endif
 324:..\..\..\..\..\..\Software\uCOS-III\Source/os_tmr.c **** 
 325:..\..\..\..\..\..\Software\uCOS-III\Source/os_tmr.c **** 
 326:..\..\..\..\..\..\Software\uCOS-III\Source/os_tmr.c **** /*
 327:..\..\..\..\..\..\Software\uCOS-III\Source/os_tmr.c **** ***************************************************************************************************
 328:..\..\..\..\..\..\Software\uCOS-III\Source/os_tmr.c **** *                                    GET HOW MUCH TIME IS LEFT BEFORE A TIMER EXPIRES
 329:..\..\..\..\..\..\Software\uCOS-III\Source/os_tmr.c **** *
 330:..\..\..\..\..\..\Software\uCOS-III\Source/os_tmr.c **** * Description: This function is called to get the number of ticks before a timer times out.
 331:..\..\..\..\..\..\Software\uCOS-III\Source/os_tmr.c **** *
 332:..\..\..\..\..\..\Software\uCOS-III\Source/os_tmr.c **** * Arguments  : p_tmr    Is a pointer to the timer to obtain the remaining time from.
 333:..\..\..\..\..\..\Software\uCOS-III\Source/os_tmr.c **** *
 334:..\..\..\..\..\..\Software\uCOS-III\Source/os_tmr.c **** *              p_err    Is a pointer to an error code.  '*p_err' will contain one of the following:
 335:..\..\..\..\..\..\Software\uCOS-III\Source/os_tmr.c **** *
 336:..\..\..\..\..\..\Software\uCOS-III\Source/os_tmr.c **** *                           OS_ERR_NONE               The call succeeded
 337:..\..\..\..\..\..\Software\uCOS-III\Source/os_tmr.c **** *                           OS_ERR_OBJ_TYPE           If 'p_tmr' is not pointing to a timer
 338:..\..\..\..\..\..\Software\uCOS-III\Source/os_tmr.c **** *                           OS_ERR_OS_NOT_RUNNING     If uC/OS-III is not running yet
 339:..\..\..\..\..\..\Software\uCOS-III\Source/os_tmr.c **** *                           OS_ERR_TMR_INACTIVE       If 'p_tmr' points to a timer that is not acti
ARM GAS  C:\Users\ADMINI~1\AppData\Local\Temp\ccofok6U.s 			page 11


 340:..\..\..\..\..\..\Software\uCOS-III\Source/os_tmr.c **** *                           OS_ERR_TMR_INVALID        If 'p_tmr' is a NULL pointer
 341:..\..\..\..\..\..\Software\uCOS-III\Source/os_tmr.c **** *                           OS_ERR_TMR_INVALID_STATE  The timer is in an invalid state
 342:..\..\..\..\..\..\Software\uCOS-III\Source/os_tmr.c **** *                           OS_ERR_TMR_ISR            If the call was made from an ISR
 343:..\..\..\..\..\..\Software\uCOS-III\Source/os_tmr.c **** *
 344:..\..\..\..\..\..\Software\uCOS-III\Source/os_tmr.c **** * Returns    : The time remaining for the timer to expire.  The time represents 'timer' increments.
 345:..\..\..\..\..\..\Software\uCOS-III\Source/os_tmr.c **** *              OS_TmrTask() is signaled every 1/10 of a second then the returned value represents t
 346:..\..\..\..\..\..\Software\uCOS-III\Source/os_tmr.c **** *              a second remaining before the timer expires.
 347:..\..\..\..\..\..\Software\uCOS-III\Source/os_tmr.c **** *
 348:..\..\..\..\..\..\Software\uCOS-III\Source/os_tmr.c **** * Note(s)    : none
 349:..\..\..\..\..\..\Software\uCOS-III\Source/os_tmr.c **** ***************************************************************************************************
 350:..\..\..\..\..\..\Software\uCOS-III\Source/os_tmr.c **** */
 351:..\..\..\..\..\..\Software\uCOS-III\Source/os_tmr.c **** 
 352:..\..\..\..\..\..\Software\uCOS-III\Source/os_tmr.c **** OS_TICK  OSTmrRemainGet (OS_TMR  *p_tmr,
 353:..\..\..\..\..\..\Software\uCOS-III\Source/os_tmr.c ****                          OS_ERR  *p_err)
 354:..\..\..\..\..\..\Software\uCOS-III\Source/os_tmr.c **** {
 230              		.loc 1 354 0
 231              		.cfi_startproc
 232              		@ args = 0, pretend = 0, frame = 16
 233              		@ frame_needed = 1, uses_anonymous_args = 0
 234 0000 80B5     		push	{r7, lr}
 235              		.cfi_def_cfa_offset 8
 236              		.cfi_offset 7, -8
 237              		.cfi_offset 14, -4
 238 0002 84B0     		sub	sp, sp, #16
 239              		.cfi_def_cfa_offset 24
 240 0004 00AF     		add	r7, sp, #0
 241              		.cfi_def_cfa_register 7
 242 0006 7860     		str	r0, [r7, #4]
 243 0008 3960     		str	r1, [r7]
 355:..\..\..\..\..\..\Software\uCOS-III\Source/os_tmr.c ****     OS_TICK  remain;
 356:..\..\..\..\..\..\Software\uCOS-III\Source/os_tmr.c **** 
 357:..\..\..\..\..\..\Software\uCOS-III\Source/os_tmr.c **** 
 358:..\..\..\..\..\..\Software\uCOS-III\Source/os_tmr.c **** #ifdef OS_SAFETY_CRITICAL
 359:..\..\..\..\..\..\Software\uCOS-III\Source/os_tmr.c ****     if (p_err == DEF_NULL) {
 360:..\..\..\..\..\..\Software\uCOS-III\Source/os_tmr.c ****         OS_SAFETY_CRITICAL_EXCEPTION();
 361:..\..\..\..\..\..\Software\uCOS-III\Source/os_tmr.c ****         return (0u);
 362:..\..\..\..\..\..\Software\uCOS-III\Source/os_tmr.c ****     }
 363:..\..\..\..\..\..\Software\uCOS-III\Source/os_tmr.c **** #endif
 364:..\..\..\..\..\..\Software\uCOS-III\Source/os_tmr.c **** 
 365:..\..\..\..\..\..\Software\uCOS-III\Source/os_tmr.c **** #if (OS_CFG_CALLED_FROM_ISR_CHK_EN == DEF_ENABLED)
 366:..\..\..\..\..\..\Software\uCOS-III\Source/os_tmr.c ****     if (OSIntNestingCtr > 0u) {                                 /* See if trying to call from an IS
 244              		.loc 1 366 0
 245 000a 2C4B     		ldr	r3, .L34
 246 000c 1B78     		ldrb	r3, [r3]
 247 000e 002B     		cmp	r3, #0
 248 0010 04D0     		beq	.L20
 367:..\..\..\..\..\..\Software\uCOS-III\Source/os_tmr.c ****        *p_err = OS_ERR_TMR_ISR;
 249              		.loc 1 367 0
 250 0012 3B68     		ldr	r3, [r7]
 251 0014 2A4A     		ldr	r2, .L34+4
 252 0016 1A80     		strh	r2, [r3]
 368:..\..\..\..\..\..\Software\uCOS-III\Source/os_tmr.c ****         return (0u);
 253              		.loc 1 368 0
 254 0018 0023     		movs	r3, #0
 255 001a 4AE0     		b	.L21
 256              	.L20:
 369:..\..\..\..\..\..\Software\uCOS-III\Source/os_tmr.c ****     }
ARM GAS  C:\Users\ADMINI~1\AppData\Local\Temp\ccofok6U.s 			page 12


 370:..\..\..\..\..\..\Software\uCOS-III\Source/os_tmr.c **** #endif
 371:..\..\..\..\..\..\Software\uCOS-III\Source/os_tmr.c **** 
 372:..\..\..\..\..\..\Software\uCOS-III\Source/os_tmr.c **** #if (OS_CFG_INVALID_OS_CALLS_CHK_EN == DEF_ENABLED)             /* Is the kernel running?          
 373:..\..\..\..\..\..\Software\uCOS-III\Source/os_tmr.c ****     if (OSRunning != OS_STATE_OS_RUNNING) {
 374:..\..\..\..\..\..\Software\uCOS-III\Source/os_tmr.c ****        *p_err = OS_ERR_OS_NOT_RUNNING;
 375:..\..\..\..\..\..\Software\uCOS-III\Source/os_tmr.c ****         return (0u);
 376:..\..\..\..\..\..\Software\uCOS-III\Source/os_tmr.c ****     }
 377:..\..\..\..\..\..\Software\uCOS-III\Source/os_tmr.c **** #endif
 378:..\..\..\..\..\..\Software\uCOS-III\Source/os_tmr.c **** 
 379:..\..\..\..\..\..\Software\uCOS-III\Source/os_tmr.c **** #if (OS_CFG_ARG_CHK_EN == DEF_ENABLED)
 380:..\..\..\..\..\..\Software\uCOS-III\Source/os_tmr.c ****     if (p_tmr == DEF_NULL) {
 257              		.loc 1 380 0
 258 001c 7B68     		ldr	r3, [r7, #4]
 259 001e 002B     		cmp	r3, #0
 260 0020 04D1     		bne	.L22
 381:..\..\..\..\..\..\Software\uCOS-III\Source/os_tmr.c ****        *p_err = OS_ERR_TMR_INVALID;
 261              		.loc 1 381 0
 262 0022 3B68     		ldr	r3, [r7]
 263 0024 274A     		ldr	r2, .L34+8
 264 0026 1A80     		strh	r2, [r3]
 382:..\..\..\..\..\..\Software\uCOS-III\Source/os_tmr.c ****         return (0u);
 265              		.loc 1 382 0
 266 0028 0023     		movs	r3, #0
 267 002a 42E0     		b	.L21
 268              	.L22:
 383:..\..\..\..\..\..\Software\uCOS-III\Source/os_tmr.c ****     }
 384:..\..\..\..\..\..\Software\uCOS-III\Source/os_tmr.c **** #endif
 385:..\..\..\..\..\..\Software\uCOS-III\Source/os_tmr.c **** 
 386:..\..\..\..\..\..\Software\uCOS-III\Source/os_tmr.c **** #if (OS_CFG_OBJ_TYPE_CHK_EN == DEF_ENABLED)
 387:..\..\..\..\..\..\Software\uCOS-III\Source/os_tmr.c ****     if (p_tmr->Type != OS_OBJ_TYPE_TMR) {                       /* Make sure timer was created     
 388:..\..\..\..\..\..\Software\uCOS-III\Source/os_tmr.c ****        *p_err = OS_ERR_OBJ_TYPE;
 389:..\..\..\..\..\..\Software\uCOS-III\Source/os_tmr.c ****         return (0u);
 390:..\..\..\..\..\..\Software\uCOS-III\Source/os_tmr.c ****     }
 391:..\..\..\..\..\..\Software\uCOS-III\Source/os_tmr.c **** #endif
 392:..\..\..\..\..\..\Software\uCOS-III\Source/os_tmr.c **** 
 393:..\..\..\..\..\..\Software\uCOS-III\Source/os_tmr.c ****     OS_TmrLock();
 269              		.loc 1 393 0
 270 002c FFF7FEFF 		bl	OS_TmrLock
 394:..\..\..\..\..\..\Software\uCOS-III\Source/os_tmr.c **** 
 395:..\..\..\..\..\..\Software\uCOS-III\Source/os_tmr.c ****     switch (p_tmr->State) {
 271              		.loc 1 395 0
 272 0030 7B68     		ldr	r3, [r7, #4]
 273 0032 2622     		movs	r2, #38
 274 0034 9B5C     		ldrb	r3, [r3, r2]
 275 0036 012B     		cmp	r3, #1
 276 0038 0FD0     		beq	.L24
 277 003a 02DC     		bgt	.L25
 278 003c 002B     		cmp	r3, #0
 279 003e 29D0     		beq	.L26
 280 0040 2EE0     		b	.L23
 281              	.L25:
 282 0042 022B     		cmp	r3, #2
 283 0044 02D0     		beq	.L27
 284 0046 032B     		cmp	r3, #3
 285 0048 1ED0     		beq	.L28
 286 004a 29E0     		b	.L23
 287              	.L27:
ARM GAS  C:\Users\ADMINI~1\AppData\Local\Temp\ccofok6U.s 			page 13


 396:..\..\..\..\..\..\Software\uCOS-III\Source/os_tmr.c ****         case OS_TMR_STATE_RUNNING:
 397:..\..\..\..\..\..\Software\uCOS-III\Source/os_tmr.c ****              remain = p_tmr->Remain;
 288              		.loc 1 397 0
 289 004c 7B68     		ldr	r3, [r7, #4]
 290 004e 9B69     		ldr	r3, [r3, #24]
 291 0050 FB60     		str	r3, [r7, #12]
 398:..\..\..\..\..\..\Software\uCOS-III\Source/os_tmr.c ****             *p_err  = OS_ERR_NONE;
 292              		.loc 1 398 0
 293 0052 3B68     		ldr	r3, [r7]
 294 0054 0022     		movs	r2, #0
 295 0056 1A80     		strh	r2, [r3]
 399:..\..\..\..\..\..\Software\uCOS-III\Source/os_tmr.c ****              break;
 296              		.loc 1 399 0
 297 0058 28E0     		b	.L29
 298              	.L24:
 400:..\..\..\..\..\..\Software\uCOS-III\Source/os_tmr.c **** 
 401:..\..\..\..\..\..\Software\uCOS-III\Source/os_tmr.c ****         case OS_TMR_STATE_STOPPED:                              /* It's assumed that the timer has 
 402:..\..\..\..\..\..\Software\uCOS-III\Source/os_tmr.c ****              if (p_tmr->Opt == OS_OPT_TMR_PERIODIC) {
 299              		.loc 1 402 0
 300 005a 7B68     		ldr	r3, [r7, #4]
 301 005c 9B8C     		ldrh	r3, [r3, #36]
 302 005e 022B     		cmp	r3, #2
 303 0060 0BD1     		bne	.L30
 403:..\..\..\..\..\..\Software\uCOS-III\Source/os_tmr.c ****                  if (p_tmr->Dly == 0u) {
 304              		.loc 1 403 0
 305 0062 7B68     		ldr	r3, [r7, #4]
 306 0064 DB69     		ldr	r3, [r3, #28]
 307 0066 002B     		cmp	r3, #0
 308 0068 03D1     		bne	.L31
 404:..\..\..\..\..\..\Software\uCOS-III\Source/os_tmr.c ****                      remain = p_tmr->Period;
 309              		.loc 1 404 0
 310 006a 7B68     		ldr	r3, [r7, #4]
 311 006c 1B6A     		ldr	r3, [r3, #32]
 312 006e FB60     		str	r3, [r7, #12]
 313 0070 06E0     		b	.L33
 314              	.L31:
 405:..\..\..\..\..\..\Software\uCOS-III\Source/os_tmr.c ****                  } else {
 406:..\..\..\..\..\..\Software\uCOS-III\Source/os_tmr.c ****                      remain = p_tmr->Dly;
 315              		.loc 1 406 0
 316 0072 7B68     		ldr	r3, [r7, #4]
 317 0074 DB69     		ldr	r3, [r3, #28]
 318 0076 FB60     		str	r3, [r7, #12]
 319 0078 02E0     		b	.L33
 320              	.L30:
 407:..\..\..\..\..\..\Software\uCOS-III\Source/os_tmr.c ****                  }
 408:..\..\..\..\..\..\Software\uCOS-III\Source/os_tmr.c ****              } else {
 409:..\..\..\..\..\..\Software\uCOS-III\Source/os_tmr.c ****                  remain = p_tmr->Dly;
 321              		.loc 1 409 0
 322 007a 7B68     		ldr	r3, [r7, #4]
 323 007c DB69     		ldr	r3, [r3, #28]
 324 007e FB60     		str	r3, [r7, #12]
 325              	.L33:
 410:..\..\..\..\..\..\Software\uCOS-III\Source/os_tmr.c ****              }
 411:..\..\..\..\..\..\Software\uCOS-III\Source/os_tmr.c ****             *p_err = OS_ERR_NONE;
 326              		.loc 1 411 0
 327 0080 3B68     		ldr	r3, [r7]
 328 0082 0022     		movs	r2, #0
ARM GAS  C:\Users\ADMINI~1\AppData\Local\Temp\ccofok6U.s 			page 14


 329 0084 1A80     		strh	r2, [r3]
 412:..\..\..\..\..\..\Software\uCOS-III\Source/os_tmr.c ****              break;
 330              		.loc 1 412 0
 331 0086 11E0     		b	.L29
 332              	.L28:
 413:..\..\..\..\..\..\Software\uCOS-III\Source/os_tmr.c **** 
 414:..\..\..\..\..\..\Software\uCOS-III\Source/os_tmr.c ****         case OS_TMR_STATE_COMPLETED:                            /* Only ONE-SHOT that timed out can
 415:..\..\..\..\..\..\Software\uCOS-III\Source/os_tmr.c ****             *p_err  = OS_ERR_NONE;
 333              		.loc 1 415 0
 334 0088 3B68     		ldr	r3, [r7]
 335 008a 0022     		movs	r2, #0
 336 008c 1A80     		strh	r2, [r3]
 416:..\..\..\..\..\..\Software\uCOS-III\Source/os_tmr.c ****              remain = 0u;
 337              		.loc 1 416 0
 338 008e 0023     		movs	r3, #0
 339 0090 FB60     		str	r3, [r7, #12]
 417:..\..\..\..\..\..\Software\uCOS-III\Source/os_tmr.c ****              break;
 340              		.loc 1 417 0
 341 0092 0BE0     		b	.L29
 342              	.L26:
 418:..\..\..\..\..\..\Software\uCOS-III\Source/os_tmr.c **** 
 419:..\..\..\..\..\..\Software\uCOS-III\Source/os_tmr.c ****         case OS_TMR_STATE_UNUSED:
 420:..\..\..\..\..\..\Software\uCOS-III\Source/os_tmr.c ****             *p_err  = OS_ERR_TMR_INACTIVE;
 343              		.loc 1 420 0
 344 0094 3B68     		ldr	r3, [r7]
 345 0096 0C4A     		ldr	r2, .L34+12
 346 0098 1A80     		strh	r2, [r3]
 421:..\..\..\..\..\..\Software\uCOS-III\Source/os_tmr.c ****              remain = 0u;
 347              		.loc 1 421 0
 348 009a 0023     		movs	r3, #0
 349 009c FB60     		str	r3, [r7, #12]
 422:..\..\..\..\..\..\Software\uCOS-III\Source/os_tmr.c ****              break;
 350              		.loc 1 422 0
 351 009e 05E0     		b	.L29
 352              	.L23:
 423:..\..\..\..\..\..\Software\uCOS-III\Source/os_tmr.c **** 
 424:..\..\..\..\..\..\Software\uCOS-III\Source/os_tmr.c ****         default:
 425:..\..\..\..\..\..\Software\uCOS-III\Source/os_tmr.c ****             *p_err = OS_ERR_TMR_INVALID_STATE;
 353              		.loc 1 425 0
 354 00a0 3B68     		ldr	r3, [r7]
 355 00a2 0A4A     		ldr	r2, .L34+16
 356 00a4 1A80     		strh	r2, [r3]
 426:..\..\..\..\..\..\Software\uCOS-III\Source/os_tmr.c ****              remain = 0u;
 357              		.loc 1 426 0
 358 00a6 0023     		movs	r3, #0
 359 00a8 FB60     		str	r3, [r7, #12]
 427:..\..\..\..\..\..\Software\uCOS-III\Source/os_tmr.c ****              break;
 360              		.loc 1 427 0
 361 00aa C046     		nop
 362              	.L29:
 428:..\..\..\..\..\..\Software\uCOS-III\Source/os_tmr.c ****     }
 429:..\..\..\..\..\..\Software\uCOS-III\Source/os_tmr.c **** 
 430:..\..\..\..\..\..\Software\uCOS-III\Source/os_tmr.c ****     OS_TmrUnlock();
 363              		.loc 1 430 0
 364 00ac FFF7FEFF 		bl	OS_TmrUnlock
 431:..\..\..\..\..\..\Software\uCOS-III\Source/os_tmr.c **** 
 432:..\..\..\..\..\..\Software\uCOS-III\Source/os_tmr.c ****     return (remain);
ARM GAS  C:\Users\ADMINI~1\AppData\Local\Temp\ccofok6U.s 			page 15


 365              		.loc 1 432 0
 366 00b0 FB68     		ldr	r3, [r7, #12]
 367              	.L21:
 433:..\..\..\..\..\..\Software\uCOS-III\Source/os_tmr.c **** }
 368              		.loc 1 433 0
 369 00b2 1800     		movs	r0, r3
 370 00b4 BD46     		mov	sp, r7
 371 00b6 04B0     		add	sp, sp, #16
 372              		@ sp needed
 373 00b8 80BD     		pop	{r7, pc}
 374              	.L35:
 375 00ba C046     		.align	2
 376              	.L34:
 377 00bc 00000000 		.word	OSIntNestingCtr
 378 00c0 43730000 		.word	29507
 379 00c4 42730000 		.word	29506
 380 00c8 3D730000 		.word	29501
 381 00cc 41730000 		.word	29505
 382              		.cfi_endproc
 383              	.LFE1:
 384              		.size	OSTmrRemainGet, .-OSTmrRemainGet
 385              		.section	.text.OSTmrSet,"ax",%progbits
 386              		.align	2
 387              		.global	OSTmrSet
 388              		.code	16
 389              		.thumb_func
 390              		.type	OSTmrSet, %function
 391              	OSTmrSet:
 392              	.LFB2:
 434:..\..\..\..\..\..\Software\uCOS-III\Source/os_tmr.c **** 
 435:..\..\..\..\..\..\Software\uCOS-III\Source/os_tmr.c **** 
 436:..\..\..\..\..\..\Software\uCOS-III\Source/os_tmr.c **** /*
 437:..\..\..\..\..\..\Software\uCOS-III\Source/os_tmr.c **** ***************************************************************************************************
 438:..\..\..\..\..\..\Software\uCOS-III\Source/os_tmr.c **** *                                                    SET A TIMER
 439:..\..\..\..\..\..\Software\uCOS-III\Source/os_tmr.c **** *
 440:..\..\..\..\..\..\Software\uCOS-III\Source/os_tmr.c **** * Description: This function is called by your application code to set a timer.
 441:..\..\..\..\..\..\Software\uCOS-III\Source/os_tmr.c **** *
 442:..\..\..\..\..\..\Software\uCOS-III\Source/os_tmr.c **** * Arguments  : p_tmr           Is a pointer to a timer control block
 443:..\..\..\..\..\..\Software\uCOS-III\Source/os_tmr.c **** *
 444:..\..\..\..\..\..\Software\uCOS-III\Source/os_tmr.c **** *              dly             Initial delay.
 445:..\..\..\..\..\..\Software\uCOS-III\Source/os_tmr.c **** *                              If the timer is configured for ONE-SHOT mode, this is the timeout us
 446:..\..\..\..\..\..\Software\uCOS-III\Source/os_tmr.c **** *                              If the timer is configured for PERIODIC mode, this is the first time
 447:..\..\..\..\..\..\Software\uCOS-III\Source/os_tmr.c **** *                              before the timer starts entering periodic mode
 448:..\..\..\..\..\..\Software\uCOS-III\Source/os_tmr.c **** *
 449:..\..\..\..\..\..\Software\uCOS-III\Source/os_tmr.c **** *              period          The 'period' being repeated for the timer.
 450:..\..\..\..\..\..\Software\uCOS-III\Source/os_tmr.c **** *                              If you specified 'OS_OPT_TMR_PERIODIC' as an option, when the timer 
 451:..\..\..\..\..\..\Software\uCOS-III\Source/os_tmr.c **** *                              automatically restart with the same period.
 452:..\..\..\..\..\..\Software\uCOS-III\Source/os_tmr.c **** *
 453:..\..\..\..\..\..\Software\uCOS-III\Source/os_tmr.c **** *              p_callback      Is a pointer to a callback function that will be called when the tim
 454:..\..\..\..\..\..\Software\uCOS-III\Source/os_tmr.c **** *                              callback function must be declared as follows:
 455:..\..\..\..\..\..\Software\uCOS-III\Source/os_tmr.c **** *
 456:..\..\..\..\..\..\Software\uCOS-III\Source/os_tmr.c **** *                                  void  MyCallback (OS_TMR *p_tmr, void *p_arg);
 457:..\..\..\..\..\..\Software\uCOS-III\Source/os_tmr.c **** *
 458:..\..\..\..\..\..\Software\uCOS-III\Source/os_tmr.c **** *              p_callback_arg  Is an argument (a pointer) that is passed to the callback function w
 459:..\..\..\..\..\..\Software\uCOS-III\Source/os_tmr.c **** *
 460:..\..\..\..\..\..\Software\uCOS-III\Source/os_tmr.c **** *              p_err           Is a pointer to an error code.  '*p_err' will contain one of the fol
 461:..\..\..\..\..\..\Software\uCOS-III\Source/os_tmr.c **** *
ARM GAS  C:\Users\ADMINI~1\AppData\Local\Temp\ccofok6U.s 			page 16


 462:..\..\..\..\..\..\Software\uCOS-III\Source/os_tmr.c **** *                                 OS_ERR_NONE                    The timer was configured as expect
 463:..\..\..\..\..\..\Software\uCOS-III\Source/os_tmr.c **** *                                 OS_ERR_OBJ_TYPE                If the object type is invalid
 464:..\..\..\..\..\..\Software\uCOS-III\Source/os_tmr.c **** *                                 OS_ERR_OS_NOT_RUNNING          If uC/OS-III is not running yet
 465:..\..\..\..\..\..\Software\uCOS-III\Source/os_tmr.c **** *                                 OS_ERR_TMR_INVALID             If 'p_tmr' is a NULL pointer or in
 466:..\..\..\..\..\..\Software\uCOS-III\Source/os_tmr.c **** *                                 OS_ERR_TMR_INVALID_CALLBACK    you specified an invalid callback 
 467:..\..\..\..\..\..\Software\uCOS-III\Source/os_tmr.c **** *                                 OS_ERR_TMR_INVALID_DLY         You specified an invalid delay
 468:..\..\..\..\..\..\Software\uCOS-III\Source/os_tmr.c **** *                                 OS_ERR_TMR_INVALID_PERIOD      You specified an invalid period
 469:..\..\..\..\..\..\Software\uCOS-III\Source/os_tmr.c **** *                                 OS_ERR_TMR_ISR                 If the call was made from an ISR
 470:..\..\..\..\..\..\Software\uCOS-III\Source/os_tmr.c **** *
 471:..\..\..\..\..\..\Software\uCOS-III\Source/os_tmr.c **** * Returns    : none
 472:..\..\..\..\..\..\Software\uCOS-III\Source/os_tmr.c **** *
 473:..\..\..\..\..\..\Software\uCOS-III\Source/os_tmr.c **** * Note(s)    : 1) This function can be called on a running timer. The change to the delay and perio
 474:..\..\..\..\..\..\Software\uCOS-III\Source/os_tmr.c **** *                 take effect after the current period or delay has passed. Change to the callback 
 475:..\..\..\..\..\..\Software\uCOS-III\Source/os_tmr.c **** *                 effect immediately.
 476:..\..\..\..\..\..\Software\uCOS-III\Source/os_tmr.c **** ***************************************************************************************************
 477:..\..\..\..\..\..\Software\uCOS-III\Source/os_tmr.c **** */
 478:..\..\..\..\..\..\Software\uCOS-III\Source/os_tmr.c **** 
 479:..\..\..\..\..\..\Software\uCOS-III\Source/os_tmr.c **** void  OSTmrSet (OS_TMR               *p_tmr,
 480:..\..\..\..\..\..\Software\uCOS-III\Source/os_tmr.c ****                 OS_TICK               dly,
 481:..\..\..\..\..\..\Software\uCOS-III\Source/os_tmr.c ****                 OS_TICK               period,
 482:..\..\..\..\..\..\Software\uCOS-III\Source/os_tmr.c ****                 OS_TMR_CALLBACK_PTR   p_callback,
 483:..\..\..\..\..\..\Software\uCOS-III\Source/os_tmr.c ****                 void                 *p_callback_arg,
 484:..\..\..\..\..\..\Software\uCOS-III\Source/os_tmr.c ****                 OS_ERR               *p_err)
 485:..\..\..\..\..\..\Software\uCOS-III\Source/os_tmr.c **** {
 393              		.loc 1 485 0
 394              		.cfi_startproc
 395              		@ args = 8, pretend = 0, frame = 16
 396              		@ frame_needed = 1, uses_anonymous_args = 0
 397 0000 80B5     		push	{r7, lr}
 398              		.cfi_def_cfa_offset 8
 399              		.cfi_offset 7, -8
 400              		.cfi_offset 14, -4
 401 0002 84B0     		sub	sp, sp, #16
 402              		.cfi_def_cfa_offset 24
 403 0004 00AF     		add	r7, sp, #0
 404              		.cfi_def_cfa_register 7
 405 0006 F860     		str	r0, [r7, #12]
 406 0008 B960     		str	r1, [r7, #8]
 407 000a 7A60     		str	r2, [r7, #4]
 408 000c 3B60     		str	r3, [r7]
 486:..\..\..\..\..\..\Software\uCOS-III\Source/os_tmr.c **** #ifdef OS_SAFETY_CRITICAL
 487:..\..\..\..\..\..\Software\uCOS-III\Source/os_tmr.c ****     if (p_err == DEF_NULL) {
 488:..\..\..\..\..\..\Software\uCOS-III\Source/os_tmr.c ****         OS_SAFETY_CRITICAL_EXCEPTION();
 489:..\..\..\..\..\..\Software\uCOS-III\Source/os_tmr.c ****         return;
 490:..\..\..\..\..\..\Software\uCOS-III\Source/os_tmr.c ****     }
 491:..\..\..\..\..\..\Software\uCOS-III\Source/os_tmr.c **** #endif
 492:..\..\..\..\..\..\Software\uCOS-III\Source/os_tmr.c **** 
 493:..\..\..\..\..\..\Software\uCOS-III\Source/os_tmr.c **** #if (OS_CFG_CALLED_FROM_ISR_CHK_EN == DEF_ENABLED)
 494:..\..\..\..\..\..\Software\uCOS-III\Source/os_tmr.c ****     if (OSIntNestingCtr > 0u) {                                 /* See if trying to call from an IS
 409              		.loc 1 494 0
 410 000e 234B     		ldr	r3, .L50
 411 0010 1B78     		ldrb	r3, [r3]
 412 0012 002B     		cmp	r3, #0
 413 0014 03D0     		beq	.L37
 495:..\..\..\..\..\..\Software\uCOS-III\Source/os_tmr.c ****        *p_err = OS_ERR_TMR_ISR;
 414              		.loc 1 495 0
 415 0016 FB69     		ldr	r3, [r7, #28]
ARM GAS  C:\Users\ADMINI~1\AppData\Local\Temp\ccofok6U.s 			page 17


 416 0018 214A     		ldr	r2, .L50+4
 417 001a 1A80     		strh	r2, [r3]
 496:..\..\..\..\..\..\Software\uCOS-III\Source/os_tmr.c ****         return;
 418              		.loc 1 496 0
 419 001c 3BE0     		b	.L36
 420              	.L37:
 497:..\..\..\..\..\..\Software\uCOS-III\Source/os_tmr.c ****     }
 498:..\..\..\..\..\..\Software\uCOS-III\Source/os_tmr.c **** #endif
 499:..\..\..\..\..\..\Software\uCOS-III\Source/os_tmr.c **** 
 500:..\..\..\..\..\..\Software\uCOS-III\Source/os_tmr.c **** #if (OS_CFG_INVALID_OS_CALLS_CHK_EN == DEF_ENABLED)             /* Is the kernel running?          
 501:..\..\..\..\..\..\Software\uCOS-III\Source/os_tmr.c ****     if (OSRunning != OS_STATE_OS_RUNNING) {
 502:..\..\..\..\..\..\Software\uCOS-III\Source/os_tmr.c ****        *p_err = OS_ERR_OS_NOT_RUNNING;
 503:..\..\..\..\..\..\Software\uCOS-III\Source/os_tmr.c ****         return;
 504:..\..\..\..\..\..\Software\uCOS-III\Source/os_tmr.c ****     }
 505:..\..\..\..\..\..\Software\uCOS-III\Source/os_tmr.c **** #endif
 506:..\..\..\..\..\..\Software\uCOS-III\Source/os_tmr.c **** 
 507:..\..\..\..\..\..\Software\uCOS-III\Source/os_tmr.c **** #if (OS_CFG_ARG_CHK_EN == DEF_ENABLED)
 508:..\..\..\..\..\..\Software\uCOS-III\Source/os_tmr.c ****     if (p_tmr == DEF_NULL) {                                    /* Validate 'p_tmr'                
 421              		.loc 1 508 0
 422 001e FB68     		ldr	r3, [r7, #12]
 423 0020 002B     		cmp	r3, #0
 424 0022 03D1     		bne	.L39
 509:..\..\..\..\..\..\Software\uCOS-III\Source/os_tmr.c ****        *p_err = OS_ERR_TMR_INVALID;
 425              		.loc 1 509 0
 426 0024 FB69     		ldr	r3, [r7, #28]
 427 0026 1F4A     		ldr	r2, .L50+8
 428 0028 1A80     		strh	r2, [r3]
 510:..\..\..\..\..\..\Software\uCOS-III\Source/os_tmr.c ****         return;
 429              		.loc 1 510 0
 430 002a 34E0     		b	.L36
 431              	.L39:
 511:..\..\..\..\..\..\Software\uCOS-III\Source/os_tmr.c ****     }
 512:..\..\..\..\..\..\Software\uCOS-III\Source/os_tmr.c **** #endif
 513:..\..\..\..\..\..\Software\uCOS-III\Source/os_tmr.c **** 
 514:..\..\..\..\..\..\Software\uCOS-III\Source/os_tmr.c **** #if (OS_CFG_OBJ_TYPE_CHK_EN == DEF_ENABLED)
 515:..\..\..\..\..\..\Software\uCOS-III\Source/os_tmr.c ****     if (p_tmr->Type != OS_OBJ_TYPE_TMR) {                       /* Make sure timer was created     
 516:..\..\..\..\..\..\Software\uCOS-III\Source/os_tmr.c ****        *p_err = OS_ERR_OBJ_TYPE;
 517:..\..\..\..\..\..\Software\uCOS-III\Source/os_tmr.c ****         return;
 518:..\..\..\..\..\..\Software\uCOS-III\Source/os_tmr.c ****     }
 519:..\..\..\..\..\..\Software\uCOS-III\Source/os_tmr.c **** #endif
 520:..\..\..\..\..\..\Software\uCOS-III\Source/os_tmr.c **** 
 521:..\..\..\..\..\..\Software\uCOS-III\Source/os_tmr.c **** #if (OS_CFG_ARG_CHK_EN == DEF_ENABLED)
 522:..\..\..\..\..\..\Software\uCOS-III\Source/os_tmr.c ****     switch (p_tmr->Opt) {
 432              		.loc 1 522 0
 433 002c FB68     		ldr	r3, [r7, #12]
 434 002e 9B8C     		ldrh	r3, [r3, #36]
 435 0030 012B     		cmp	r3, #1
 436 0032 0FD0     		beq	.L41
 437 0034 022B     		cmp	r3, #2
 438 0036 14D1     		bne	.L47
 523:..\..\..\..\..\..\Software\uCOS-III\Source/os_tmr.c ****         case OS_OPT_TMR_PERIODIC:
 524:..\..\..\..\..\..\Software\uCOS-III\Source/os_tmr.c ****              if (period == 0u) {
 439              		.loc 1 524 0
 440 0038 7B68     		ldr	r3, [r7, #4]
 441 003a 002B     		cmp	r3, #0
 442 003c 03D1     		bne	.L43
 525:..\..\..\..\..\..\Software\uCOS-III\Source/os_tmr.c ****                 *p_err = OS_ERR_TMR_INVALID_PERIOD;
ARM GAS  C:\Users\ADMINI~1\AppData\Local\Temp\ccofok6U.s 			page 18


 443              		.loc 1 525 0
 444 003e FB69     		ldr	r3, [r7, #28]
 445 0040 194A     		ldr	r2, .L50+12
 446 0042 1A80     		strh	r2, [r3]
 526:..\..\..\..\..\..\Software\uCOS-III\Source/os_tmr.c ****                  return;
 447              		.loc 1 526 0
 448 0044 27E0     		b	.L36
 449              	.L43:
 527:..\..\..\..\..\..\Software\uCOS-III\Source/os_tmr.c ****              }
 528:..\..\..\..\..\..\Software\uCOS-III\Source/os_tmr.c **** 
 529:..\..\..\..\..\..\Software\uCOS-III\Source/os_tmr.c ****              if (p_callback == DEF_NULL) {                      /* No point in a periodic timer wit
 450              		.loc 1 529 0
 451 0046 3B68     		ldr	r3, [r7]
 452 0048 002B     		cmp	r3, #0
 453 004a 0ED1     		bne	.L48
 530:..\..\..\..\..\..\Software\uCOS-III\Source/os_tmr.c ****                 *p_err = OS_ERR_TMR_INVALID_CALLBACK;
 454              		.loc 1 530 0
 455 004c FB69     		ldr	r3, [r7, #28]
 456 004e 174A     		ldr	r2, .L50+16
 457 0050 1A80     		strh	r2, [r3]
 531:..\..\..\..\..\..\Software\uCOS-III\Source/os_tmr.c ****                  return;
 458              		.loc 1 531 0
 459 0052 20E0     		b	.L36
 460              	.L41:
 532:..\..\..\..\..\..\Software\uCOS-III\Source/os_tmr.c ****              }
 533:..\..\..\..\..\..\Software\uCOS-III\Source/os_tmr.c ****              break;
 534:..\..\..\..\..\..\Software\uCOS-III\Source/os_tmr.c **** 
 535:..\..\..\..\..\..\Software\uCOS-III\Source/os_tmr.c ****         case OS_OPT_TMR_ONE_SHOT:
 536:..\..\..\..\..\..\Software\uCOS-III\Source/os_tmr.c ****              if (dly == 0u) {
 461              		.loc 1 536 0
 462 0054 BB68     		ldr	r3, [r7, #8]
 463 0056 002B     		cmp	r3, #0
 464 0058 09D1     		bne	.L49
 537:..\..\..\..\..\..\Software\uCOS-III\Source/os_tmr.c ****                 *p_err = OS_ERR_TMR_INVALID_DLY;
 465              		.loc 1 537 0
 466 005a FB69     		ldr	r3, [r7, #28]
 467 005c 144A     		ldr	r2, .L50+20
 468 005e 1A80     		strh	r2, [r3]
 538:..\..\..\..\..\..\Software\uCOS-III\Source/os_tmr.c ****                  return;
 469              		.loc 1 538 0
 470 0060 19E0     		b	.L36
 471              	.L47:
 539:..\..\..\..\..\..\Software\uCOS-III\Source/os_tmr.c ****              }
 540:..\..\..\..\..\..\Software\uCOS-III\Source/os_tmr.c ****              break;
 541:..\..\..\..\..\..\Software\uCOS-III\Source/os_tmr.c **** 
 542:..\..\..\..\..\..\Software\uCOS-III\Source/os_tmr.c ****         default:
 543:..\..\..\..\..\..\Software\uCOS-III\Source/os_tmr.c ****             *p_err = OS_ERR_TMR_INVALID;
 472              		.loc 1 543 0
 473 0062 FB69     		ldr	r3, [r7, #28]
 474 0064 0F4A     		ldr	r2, .L50+8
 475 0066 1A80     		strh	r2, [r3]
 544:..\..\..\..\..\..\Software\uCOS-III\Source/os_tmr.c ****              return;
 476              		.loc 1 544 0
 477 0068 15E0     		b	.L36
 478              	.L48:
 533:..\..\..\..\..\..\Software\uCOS-III\Source/os_tmr.c **** 
 479              		.loc 1 533 0
ARM GAS  C:\Users\ADMINI~1\AppData\Local\Temp\ccofok6U.s 			page 19


 480 006a C046     		nop
 481 006c 00E0     		b	.L45
 482              	.L49:
 540:..\..\..\..\..\..\Software\uCOS-III\Source/os_tmr.c **** 
 483              		.loc 1 540 0
 484 006e C046     		nop
 485              	.L45:
 545:..\..\..\..\..\..\Software\uCOS-III\Source/os_tmr.c ****     }
 546:..\..\..\..\..\..\Software\uCOS-III\Source/os_tmr.c **** #endif
 547:..\..\..\..\..\..\Software\uCOS-III\Source/os_tmr.c **** 
 548:..\..\..\..\..\..\Software\uCOS-III\Source/os_tmr.c ****     OS_TmrLock();
 486              		.loc 1 548 0
 487 0070 FFF7FEFF 		bl	OS_TmrLock
 549:..\..\..\..\..\..\Software\uCOS-III\Source/os_tmr.c **** 
 550:..\..\..\..\..\..\Software\uCOS-III\Source/os_tmr.c ****     p_tmr->Dly            = dly;
 488              		.loc 1 550 0
 489 0074 FB68     		ldr	r3, [r7, #12]
 490 0076 BA68     		ldr	r2, [r7, #8]
 491 0078 DA61     		str	r2, [r3, #28]
 551:..\..\..\..\..\..\Software\uCOS-III\Source/os_tmr.c ****     p_tmr->Period         = period;
 492              		.loc 1 551 0
 493 007a FB68     		ldr	r3, [r7, #12]
 494 007c 7A68     		ldr	r2, [r7, #4]
 495 007e 1A62     		str	r2, [r3, #32]
 552:..\..\..\..\..\..\Software\uCOS-III\Source/os_tmr.c ****     p_tmr->CallbackPtr    = p_callback;
 496              		.loc 1 552 0
 497 0080 FB68     		ldr	r3, [r7, #12]
 498 0082 3A68     		ldr	r2, [r7]
 499 0084 9A60     		str	r2, [r3, #8]
 553:..\..\..\..\..\..\Software\uCOS-III\Source/os_tmr.c ****     p_tmr->CallbackPtrArg = p_callback_arg;
 500              		.loc 1 553 0
 501 0086 FB68     		ldr	r3, [r7, #12]
 502 0088 BA69     		ldr	r2, [r7, #24]
 503 008a DA60     		str	r2, [r3, #12]
 554:..\..\..\..\..\..\Software\uCOS-III\Source/os_tmr.c **** 
 555:..\..\..\..\..\..\Software\uCOS-III\Source/os_tmr.c ****    *p_err = OS_ERR_NONE;
 504              		.loc 1 555 0
 505 008c FB69     		ldr	r3, [r7, #28]
 506 008e 0022     		movs	r2, #0
 507 0090 1A80     		strh	r2, [r3]
 556:..\..\..\..\..\..\Software\uCOS-III\Source/os_tmr.c **** 
 557:..\..\..\..\..\..\Software\uCOS-III\Source/os_tmr.c ****     OS_TmrUnlock();
 508              		.loc 1 557 0
 509 0092 FFF7FEFF 		bl	OS_TmrUnlock
 510              	.L36:
 558:..\..\..\..\..\..\Software\uCOS-III\Source/os_tmr.c **** 
 559:..\..\..\..\..\..\Software\uCOS-III\Source/os_tmr.c **** }
 511              		.loc 1 559 0
 512 0096 BD46     		mov	sp, r7
 513 0098 04B0     		add	sp, sp, #16
 514              		@ sp needed
 515 009a 80BD     		pop	{r7, pc}
 516              	.L51:
 517              		.align	2
 518              	.L50:
 519 009c 00000000 		.word	OSIntNestingCtr
 520 00a0 43730000 		.word	29507
ARM GAS  C:\Users\ADMINI~1\AppData\Local\Temp\ccofok6U.s 			page 20


 521 00a4 42730000 		.word	29506
 522 00a8 40730000 		.word	29504
 523 00ac 4A730000 		.word	29514
 524 00b0 3F730000 		.word	29503
 525              		.cfi_endproc
 526              	.LFE2:
 527              		.size	OSTmrSet, .-OSTmrSet
 528              		.section	.text.OSTmrStart,"ax",%progbits
 529              		.align	2
 530              		.global	OSTmrStart
 531              		.code	16
 532              		.thumb_func
 533              		.type	OSTmrStart, %function
 534              	OSTmrStart:
 535              	.LFB3:
 560:..\..\..\..\..\..\Software\uCOS-III\Source/os_tmr.c **** 
 561:..\..\..\..\..\..\Software\uCOS-III\Source/os_tmr.c **** 
 562:..\..\..\..\..\..\Software\uCOS-III\Source/os_tmr.c **** /*
 563:..\..\..\..\..\..\Software\uCOS-III\Source/os_tmr.c **** ***************************************************************************************************
 564:..\..\..\..\..\..\Software\uCOS-III\Source/os_tmr.c **** *                                                   START A TIMER
 565:..\..\..\..\..\..\Software\uCOS-III\Source/os_tmr.c **** *
 566:..\..\..\..\..\..\Software\uCOS-III\Source/os_tmr.c **** * Description: This function is called by your application code to start a timer.
 567:..\..\..\..\..\..\Software\uCOS-III\Source/os_tmr.c **** *
 568:..\..\..\..\..\..\Software\uCOS-III\Source/os_tmr.c **** * Arguments  : p_tmr    Is a pointer to an OS_TMR
 569:..\..\..\..\..\..\Software\uCOS-III\Source/os_tmr.c **** *
 570:..\..\..\..\..\..\Software\uCOS-III\Source/os_tmr.c **** *              p_err    Is a pointer to an error code.  '*p_err' will contain one of the following:
 571:..\..\..\..\..\..\Software\uCOS-III\Source/os_tmr.c **** *
 572:..\..\..\..\..\..\Software\uCOS-III\Source/os_tmr.c **** *                           OS_ERR_NONE                The timer was started
 573:..\..\..\..\..\..\Software\uCOS-III\Source/os_tmr.c **** *                           OS_ERR_OBJ_TYPE            If 'p_tmr' is not pointing to a timer
 574:..\..\..\..\..\..\Software\uCOS-III\Source/os_tmr.c **** *                           OS_ERR_OS_NOT_RUNNING      If uC/OS-III is not running yet
 575:..\..\..\..\..\..\Software\uCOS-III\Source/os_tmr.c **** *                           OS_ERR_TMR_INACTIVE        If the timer was not created
 576:..\..\..\..\..\..\Software\uCOS-III\Source/os_tmr.c **** *                           OS_ERR_TMR_INVALID         If 'p_tmr' is a NULL pointer
 577:..\..\..\..\..\..\Software\uCOS-III\Source/os_tmr.c **** *                           OS_ERR_TMR_INVALID_STATE   The timer is in an invalid state
 578:..\..\..\..\..\..\Software\uCOS-III\Source/os_tmr.c **** *                           OS_ERR_TMR_ISR             If the call was made from an ISR
 579:..\..\..\..\..\..\Software\uCOS-III\Source/os_tmr.c **** *
 580:..\..\..\..\..\..\Software\uCOS-III\Source/os_tmr.c **** * Returns    : DEF_TRUE      is the timer was started
 581:..\..\..\..\..\..\Software\uCOS-III\Source/os_tmr.c **** *              DEF_FALSE     if not or upon an error
 582:..\..\..\..\..\..\Software\uCOS-III\Source/os_tmr.c **** *
 583:..\..\..\..\..\..\Software\uCOS-III\Source/os_tmr.c **** * Note(s)    : 1) When starting/restarting a timer, regardless if it is in PERIODIC or ONE-SHOT mod
 584:..\..\..\..\..\..\Software\uCOS-III\Source/os_tmr.c **** *                 linked to the timer list with the OS_OPT_LINK_DLY option. This option sets the in
 585:..\..\..\..\..\..\Software\uCOS-III\Source/os_tmr.c **** *                 time for the timer. For timers in PERIODIC mode, subsequent expiration times are 
 586:..\..\..\..\..\..\Software\uCOS-III\Source/os_tmr.c **** *                 the OS_TmrTask().
 587:..\..\..\..\..\..\Software\uCOS-III\Source/os_tmr.c **** ***************************************************************************************************
 588:..\..\..\..\..\..\Software\uCOS-III\Source/os_tmr.c **** */
 589:..\..\..\..\..\..\Software\uCOS-III\Source/os_tmr.c **** 
 590:..\..\..\..\..\..\Software\uCOS-III\Source/os_tmr.c **** CPU_BOOLEAN  OSTmrStart (OS_TMR  *p_tmr,
 591:..\..\..\..\..\..\Software\uCOS-III\Source/os_tmr.c ****                          OS_ERR  *p_err)
 592:..\..\..\..\..\..\Software\uCOS-III\Source/os_tmr.c **** {
 536              		.loc 1 592 0
 537              		.cfi_startproc
 538              		@ args = 0, pretend = 0, frame = 16
 539              		@ frame_needed = 1, uses_anonymous_args = 0
 540 0000 80B5     		push	{r7, lr}
 541              		.cfi_def_cfa_offset 8
 542              		.cfi_offset 7, -8
 543              		.cfi_offset 14, -4
 544 0002 84B0     		sub	sp, sp, #16
ARM GAS  C:\Users\ADMINI~1\AppData\Local\Temp\ccofok6U.s 			page 21


 545              		.cfi_def_cfa_offset 24
 546 0004 00AF     		add	r7, sp, #0
 547              		.cfi_def_cfa_register 7
 548 0006 7860     		str	r0, [r7, #4]
 549 0008 3960     		str	r1, [r7]
 593:..\..\..\..\..\..\Software\uCOS-III\Source/os_tmr.c ****     OS_TMR      *p_next;
 594:..\..\..\..\..\..\Software\uCOS-III\Source/os_tmr.c ****     CPU_BOOLEAN  success;
 595:..\..\..\..\..\..\Software\uCOS-III\Source/os_tmr.c **** 
 596:..\..\..\..\..\..\Software\uCOS-III\Source/os_tmr.c ****     
 597:..\..\..\..\..\..\Software\uCOS-III\Source/os_tmr.c **** 
 598:..\..\..\..\..\..\Software\uCOS-III\Source/os_tmr.c **** #ifdef OS_SAFETY_CRITICAL
 599:..\..\..\..\..\..\Software\uCOS-III\Source/os_tmr.c ****     if (p_err == DEF_NULL) {
 600:..\..\..\..\..\..\Software\uCOS-III\Source/os_tmr.c ****         OS_SAFETY_CRITICAL_EXCEPTION();
 601:..\..\..\..\..\..\Software\uCOS-III\Source/os_tmr.c ****         return (DEF_FALSE);
 602:..\..\..\..\..\..\Software\uCOS-III\Source/os_tmr.c ****     }
 603:..\..\..\..\..\..\Software\uCOS-III\Source/os_tmr.c **** #endif
 604:..\..\..\..\..\..\Software\uCOS-III\Source/os_tmr.c **** 
 605:..\..\..\..\..\..\Software\uCOS-III\Source/os_tmr.c **** #if (OS_CFG_CALLED_FROM_ISR_CHK_EN == DEF_ENABLED)
 606:..\..\..\..\..\..\Software\uCOS-III\Source/os_tmr.c ****     if (OSIntNestingCtr > 0u) {                                 /* See if trying to call from an IS
 550              		.loc 1 606 0
 551 000a 434B     		ldr	r3, .L66
 552 000c 1B78     		ldrb	r3, [r3]
 553 000e 002B     		cmp	r3, #0
 554 0010 04D0     		beq	.L53
 607:..\..\..\..\..\..\Software\uCOS-III\Source/os_tmr.c ****        *p_err = OS_ERR_TMR_ISR;
 555              		.loc 1 607 0
 556 0012 3B68     		ldr	r3, [r7]
 557 0014 414A     		ldr	r2, .L66+4
 558 0016 1A80     		strh	r2, [r3]
 608:..\..\..\..\..\..\Software\uCOS-III\Source/os_tmr.c ****         return (DEF_FALSE);
 559              		.loc 1 608 0
 560 0018 0023     		movs	r3, #0
 561 001a 78E0     		b	.L54
 562              	.L53:
 609:..\..\..\..\..\..\Software\uCOS-III\Source/os_tmr.c ****     }
 610:..\..\..\..\..\..\Software\uCOS-III\Source/os_tmr.c **** #endif
 611:..\..\..\..\..\..\Software\uCOS-III\Source/os_tmr.c **** 
 612:..\..\..\..\..\..\Software\uCOS-III\Source/os_tmr.c **** #if (OS_CFG_INVALID_OS_CALLS_CHK_EN == DEF_ENABLED)             /* Is the kernel running?          
 613:..\..\..\..\..\..\Software\uCOS-III\Source/os_tmr.c ****     if (OSRunning != OS_STATE_OS_RUNNING) {
 614:..\..\..\..\..\..\Software\uCOS-III\Source/os_tmr.c ****        *p_err = OS_ERR_OS_NOT_RUNNING;
 615:..\..\..\..\..\..\Software\uCOS-III\Source/os_tmr.c ****         return (DEF_FALSE);
 616:..\..\..\..\..\..\Software\uCOS-III\Source/os_tmr.c ****     }
 617:..\..\..\..\..\..\Software\uCOS-III\Source/os_tmr.c **** #endif
 618:..\..\..\..\..\..\Software\uCOS-III\Source/os_tmr.c **** 
 619:..\..\..\..\..\..\Software\uCOS-III\Source/os_tmr.c **** #if (OS_CFG_ARG_CHK_EN == DEF_ENABLED)
 620:..\..\..\..\..\..\Software\uCOS-III\Source/os_tmr.c ****     if (p_tmr == DEF_NULL) {
 563              		.loc 1 620 0
 564 001c 7B68     		ldr	r3, [r7, #4]
 565 001e 002B     		cmp	r3, #0
 566 0020 04D1     		bne	.L55
 621:..\..\..\..\..\..\Software\uCOS-III\Source/os_tmr.c ****        *p_err = OS_ERR_TMR_INVALID;
 567              		.loc 1 621 0
 568 0022 3B68     		ldr	r3, [r7]
 569 0024 3E4A     		ldr	r2, .L66+8
 570 0026 1A80     		strh	r2, [r3]
 622:..\..\..\..\..\..\Software\uCOS-III\Source/os_tmr.c ****         return (DEF_FALSE);
 571              		.loc 1 622 0
ARM GAS  C:\Users\ADMINI~1\AppData\Local\Temp\ccofok6U.s 			page 22


 572 0028 0023     		movs	r3, #0
 573 002a 70E0     		b	.L54
 574              	.L55:
 623:..\..\..\..\..\..\Software\uCOS-III\Source/os_tmr.c ****     }
 624:..\..\..\..\..\..\Software\uCOS-III\Source/os_tmr.c **** #endif
 625:..\..\..\..\..\..\Software\uCOS-III\Source/os_tmr.c **** 
 626:..\..\..\..\..\..\Software\uCOS-III\Source/os_tmr.c **** #if (OS_CFG_OBJ_TYPE_CHK_EN == DEF_ENABLED)
 627:..\..\..\..\..\..\Software\uCOS-III\Source/os_tmr.c ****     if (p_tmr->Type != OS_OBJ_TYPE_TMR) {                       /* Make sure timer was created     
 628:..\..\..\..\..\..\Software\uCOS-III\Source/os_tmr.c ****        *p_err = OS_ERR_OBJ_TYPE;
 629:..\..\..\..\..\..\Software\uCOS-III\Source/os_tmr.c ****         return (DEF_FALSE);
 630:..\..\..\..\..\..\Software\uCOS-III\Source/os_tmr.c ****     }
 631:..\..\..\..\..\..\Software\uCOS-III\Source/os_tmr.c **** #endif
 632:..\..\..\..\..\..\Software\uCOS-III\Source/os_tmr.c **** 
 633:..\..\..\..\..\..\Software\uCOS-III\Source/os_tmr.c ****     OS_TmrLock();
 575              		.loc 1 633 0
 576 002c FFF7FEFF 		bl	OS_TmrLock
 634:..\..\..\..\..\..\Software\uCOS-III\Source/os_tmr.c **** 
 635:..\..\..\..\..\..\Software\uCOS-III\Source/os_tmr.c ****     switch (p_tmr->State) {
 577              		.loc 1 635 0
 578 0030 7B68     		ldr	r3, [r7, #4]
 579 0032 2622     		movs	r2, #38
 580 0034 9B5C     		ldrb	r3, [r3, r2]
 581 0036 012B     		cmp	r3, #1
 582 0038 14D0     		beq	.L57
 583 003a 02DC     		bgt	.L58
 584 003c 002B     		cmp	r3, #0
 585 003e 51D0     		beq	.L59
 586 0040 58E0     		b	.L56
 587              	.L58:
 588 0042 022B     		cmp	r3, #2
 589 0044 02D0     		beq	.L60
 590 0046 032B     		cmp	r3, #3
 591 0048 0CD0     		beq	.L57
 592 004a 53E0     		b	.L56
 593              	.L60:
 636:..\..\..\..\..\..\Software\uCOS-III\Source/os_tmr.c ****         case OS_TMR_STATE_RUNNING:                              /* Restart the timer               
 637:..\..\..\..\..\..\Software\uCOS-III\Source/os_tmr.c ****              p_tmr->Remain = p_tmr->Dly;
 594              		.loc 1 637 0
 595 004c 7B68     		ldr	r3, [r7, #4]
 596 004e DA69     		ldr	r2, [r3, #28]
 597 0050 7B68     		ldr	r3, [r7, #4]
 598 0052 9A61     		str	r2, [r3, #24]
 638:..\..\..\..\..\..\Software\uCOS-III\Source/os_tmr.c ****             *p_err         = OS_ERR_NONE;
 599              		.loc 1 638 0
 600 0054 3B68     		ldr	r3, [r7]
 601 0056 0022     		movs	r2, #0
 602 0058 1A80     		strh	r2, [r3]
 639:..\..\..\..\..\..\Software\uCOS-III\Source/os_tmr.c ****              success       = DEF_TRUE;
 603              		.loc 1 639 0
 604 005a 0F23     		movs	r3, #15
 605 005c FB18     		adds	r3, r7, r3
 606 005e 0122     		movs	r2, #1
 607 0060 1A70     		strb	r2, [r3]
 640:..\..\..\..\..\..\Software\uCOS-III\Source/os_tmr.c ****              break;
 608              		.loc 1 640 0
 609 0062 4FE0     		b	.L61
 610              	.L57:
ARM GAS  C:\Users\ADMINI~1\AppData\Local\Temp\ccofok6U.s 			page 23


 641:..\..\..\..\..\..\Software\uCOS-III\Source/os_tmr.c **** 
 642:..\..\..\..\..\..\Software\uCOS-III\Source/os_tmr.c ****         case OS_TMR_STATE_STOPPED:                              /* Start the timer                 
 643:..\..\..\..\..\..\Software\uCOS-III\Source/os_tmr.c ****         case OS_TMR_STATE_COMPLETED:
 644:..\..\..\..\..\..\Software\uCOS-III\Source/os_tmr.c ****              p_tmr->State  = OS_TMR_STATE_RUNNING;
 611              		.loc 1 644 0
 612 0064 7B68     		ldr	r3, [r7, #4]
 613 0066 2622     		movs	r2, #38
 614 0068 0221     		movs	r1, #2
 615 006a 9954     		strb	r1, [r3, r2]
 645:..\..\..\..\..\..\Software\uCOS-III\Source/os_tmr.c ****              if (p_tmr->Dly == 0u) {
 616              		.loc 1 645 0
 617 006c 7B68     		ldr	r3, [r7, #4]
 618 006e DB69     		ldr	r3, [r3, #28]
 619 0070 002B     		cmp	r3, #0
 620 0072 04D1     		bne	.L62
 646:..\..\..\..\..\..\Software\uCOS-III\Source/os_tmr.c ****                  p_tmr->Remain = p_tmr->Period;
 621              		.loc 1 646 0
 622 0074 7B68     		ldr	r3, [r7, #4]
 623 0076 1A6A     		ldr	r2, [r3, #32]
 624 0078 7B68     		ldr	r3, [r7, #4]
 625 007a 9A61     		str	r2, [r3, #24]
 626 007c 03E0     		b	.L63
 627              	.L62:
 647:..\..\..\..\..\..\Software\uCOS-III\Source/os_tmr.c ****              } else {
 648:..\..\..\..\..\..\Software\uCOS-III\Source/os_tmr.c ****                  p_tmr->Remain = p_tmr->Dly;
 628              		.loc 1 648 0
 629 007e 7B68     		ldr	r3, [r7, #4]
 630 0080 DA69     		ldr	r2, [r3, #28]
 631 0082 7B68     		ldr	r3, [r7, #4]
 632 0084 9A61     		str	r2, [r3, #24]
 633              	.L63:
 649:..\..\..\..\..\..\Software\uCOS-III\Source/os_tmr.c ****              }
 650:..\..\..\..\..\..\Software\uCOS-III\Source/os_tmr.c ****              if (OSTmrListPtr ==  DEF_NULL) {                   /* Link into timer list            
 634              		.loc 1 650 0
 635 0086 274B     		ldr	r3, .L66+12
 636 0088 1B68     		ldr	r3, [r3]
 637 008a 002B     		cmp	r3, #0
 638 008c 0CD1     		bne	.L64
 651:..\..\..\..\..\..\Software\uCOS-III\Source/os_tmr.c ****                  p_tmr->NextPtr   = DEF_NULL;                   /* This is the first timer in the l
 639              		.loc 1 651 0
 640 008e 7B68     		ldr	r3, [r7, #4]
 641 0090 0022     		movs	r2, #0
 642 0092 1A61     		str	r2, [r3, #16]
 652:..\..\..\..\..\..\Software\uCOS-III\Source/os_tmr.c ****                  p_tmr->PrevPtr   = DEF_NULL;
 643              		.loc 1 652 0
 644 0094 7B68     		ldr	r3, [r7, #4]
 645 0096 0022     		movs	r2, #0
 646 0098 5A61     		str	r2, [r3, #20]
 653:..\..\..\..\..\..\Software\uCOS-III\Source/os_tmr.c ****                  OSTmrListPtr     = p_tmr;
 647              		.loc 1 653 0
 648 009a 224B     		ldr	r3, .L66+12
 649 009c 7A68     		ldr	r2, [r7, #4]
 650 009e 1A60     		str	r2, [r3]
 654:..\..\..\..\..\..\Software\uCOS-III\Source/os_tmr.c **** #if (OS_CFG_DBG_EN == DEF_ENABLED)
 655:..\..\..\..\..\..\Software\uCOS-III\Source/os_tmr.c ****                  OSTmrListEntries = 1u;
 651              		.loc 1 655 0
 652 00a0 214B     		ldr	r3, .L66+16
ARM GAS  C:\Users\ADMINI~1\AppData\Local\Temp\ccofok6U.s 			page 24


 653 00a2 0122     		movs	r2, #1
 654 00a4 1A80     		strh	r2, [r3]
 655 00a6 15E0     		b	.L65
 656              	.L64:
 656:..\..\..\..\..\..\Software\uCOS-III\Source/os_tmr.c **** #endif
 657:..\..\..\..\..\..\Software\uCOS-III\Source/os_tmr.c ****              } else {
 658:..\..\..\..\..\..\Software\uCOS-III\Source/os_tmr.c ****                  p_next           = OSTmrListPtr;               /* Insert at the beginning of the l
 657              		.loc 1 658 0
 658 00a8 1E4B     		ldr	r3, .L66+12
 659 00aa 1B68     		ldr	r3, [r3]
 660 00ac BB60     		str	r3, [r7, #8]
 659:..\..\..\..\..\..\Software\uCOS-III\Source/os_tmr.c ****                  p_tmr->NextPtr   = OSTmrListPtr;
 661              		.loc 1 659 0
 662 00ae 1D4B     		ldr	r3, .L66+12
 663 00b0 1A68     		ldr	r2, [r3]
 664 00b2 7B68     		ldr	r3, [r7, #4]
 665 00b4 1A61     		str	r2, [r3, #16]
 660:..\..\..\..\..\..\Software\uCOS-III\Source/os_tmr.c ****                  p_tmr->PrevPtr   = DEF_NULL;
 666              		.loc 1 660 0
 667 00b6 7B68     		ldr	r3, [r7, #4]
 668 00b8 0022     		movs	r2, #0
 669 00ba 5A61     		str	r2, [r3, #20]
 661:..\..\..\..\..\..\Software\uCOS-III\Source/os_tmr.c ****                  p_next->PrevPtr  = p_tmr;
 670              		.loc 1 661 0
 671 00bc BB68     		ldr	r3, [r7, #8]
 672 00be 7A68     		ldr	r2, [r7, #4]
 673 00c0 5A61     		str	r2, [r3, #20]
 662:..\..\..\..\..\..\Software\uCOS-III\Source/os_tmr.c ****                  OSTmrListPtr     = p_tmr;
 674              		.loc 1 662 0
 675 00c2 184B     		ldr	r3, .L66+12
 676 00c4 7A68     		ldr	r2, [r7, #4]
 677 00c6 1A60     		str	r2, [r3]
 663:..\..\..\..\..\..\Software\uCOS-III\Source/os_tmr.c **** #if (OS_CFG_DBG_EN == DEF_ENABLED)
 664:..\..\..\..\..\..\Software\uCOS-III\Source/os_tmr.c ****                  OSTmrListEntries++;
 678              		.loc 1 664 0
 679 00c8 174B     		ldr	r3, .L66+16
 680 00ca 1B88     		ldrh	r3, [r3]
 681 00cc 0133     		adds	r3, r3, #1
 682 00ce 9AB2     		uxth	r2, r3
 683 00d0 154B     		ldr	r3, .L66+16
 684 00d2 1A80     		strh	r2, [r3]
 685              	.L65:
 665:..\..\..\..\..\..\Software\uCOS-III\Source/os_tmr.c **** #endif
 666:..\..\..\..\..\..\Software\uCOS-III\Source/os_tmr.c ****              }
 667:..\..\..\..\..\..\Software\uCOS-III\Source/os_tmr.c ****             *p_err   = OS_ERR_NONE;
 686              		.loc 1 667 0
 687 00d4 3B68     		ldr	r3, [r7]
 688 00d6 0022     		movs	r2, #0
 689 00d8 1A80     		strh	r2, [r3]
 668:..\..\..\..\..\..\Software\uCOS-III\Source/os_tmr.c ****              success = DEF_TRUE;
 690              		.loc 1 668 0
 691 00da 0F23     		movs	r3, #15
 692 00dc FB18     		adds	r3, r7, r3
 693 00de 0122     		movs	r2, #1
 694 00e0 1A70     		strb	r2, [r3]
 669:..\..\..\..\..\..\Software\uCOS-III\Source/os_tmr.c ****              break;
 695              		.loc 1 669 0
ARM GAS  C:\Users\ADMINI~1\AppData\Local\Temp\ccofok6U.s 			page 25


 696 00e2 0FE0     		b	.L61
 697              	.L59:
 670:..\..\..\..\..\..\Software\uCOS-III\Source/os_tmr.c **** 
 671:..\..\..\..\..\..\Software\uCOS-III\Source/os_tmr.c ****         case OS_TMR_STATE_UNUSED:                               /* Timer not created               
 672:..\..\..\..\..\..\Software\uCOS-III\Source/os_tmr.c ****             *p_err   = OS_ERR_TMR_INACTIVE;
 698              		.loc 1 672 0
 699 00e4 3B68     		ldr	r3, [r7]
 700 00e6 114A     		ldr	r2, .L66+20
 701 00e8 1A80     		strh	r2, [r3]
 673:..\..\..\..\..\..\Software\uCOS-III\Source/os_tmr.c ****              success = DEF_FALSE;
 702              		.loc 1 673 0
 703 00ea 0F23     		movs	r3, #15
 704 00ec FB18     		adds	r3, r7, r3
 705 00ee 0022     		movs	r2, #0
 706 00f0 1A70     		strb	r2, [r3]
 674:..\..\..\..\..\..\Software\uCOS-III\Source/os_tmr.c ****              break;
 707              		.loc 1 674 0
 708 00f2 07E0     		b	.L61
 709              	.L56:
 675:..\..\..\..\..\..\Software\uCOS-III\Source/os_tmr.c **** 
 676:..\..\..\..\..\..\Software\uCOS-III\Source/os_tmr.c ****         default:
 677:..\..\..\..\..\..\Software\uCOS-III\Source/os_tmr.c ****             *p_err = OS_ERR_TMR_INVALID_STATE;
 710              		.loc 1 677 0
 711 00f4 3B68     		ldr	r3, [r7]
 712 00f6 0E4A     		ldr	r2, .L66+24
 713 00f8 1A80     		strh	r2, [r3]
 678:..\..\..\..\..\..\Software\uCOS-III\Source/os_tmr.c ****              success = DEF_FALSE;
 714              		.loc 1 678 0
 715 00fa 0F23     		movs	r3, #15
 716 00fc FB18     		adds	r3, r7, r3
 717 00fe 0022     		movs	r2, #0
 718 0100 1A70     		strb	r2, [r3]
 679:..\..\..\..\..\..\Software\uCOS-III\Source/os_tmr.c ****              break;
 719              		.loc 1 679 0
 720 0102 C046     		nop
 721              	.L61:
 680:..\..\..\..\..\..\Software\uCOS-III\Source/os_tmr.c ****     }
 681:..\..\..\..\..\..\Software\uCOS-III\Source/os_tmr.c **** 
 682:..\..\..\..\..\..\Software\uCOS-III\Source/os_tmr.c ****     OS_TmrUnlock();
 722              		.loc 1 682 0
 723 0104 FFF7FEFF 		bl	OS_TmrUnlock
 683:..\..\..\..\..\..\Software\uCOS-III\Source/os_tmr.c **** 
 684:..\..\..\..\..\..\Software\uCOS-III\Source/os_tmr.c ****     return (success);
 724              		.loc 1 684 0
 725 0108 0F23     		movs	r3, #15
 726 010a FB18     		adds	r3, r7, r3
 727 010c 1B78     		ldrb	r3, [r3]
 728              	.L54:
 685:..\..\..\..\..\..\Software\uCOS-III\Source/os_tmr.c **** }
 729              		.loc 1 685 0
 730 010e 1800     		movs	r0, r3
 731 0110 BD46     		mov	sp, r7
 732 0112 04B0     		add	sp, sp, #16
 733              		@ sp needed
 734 0114 80BD     		pop	{r7, pc}
 735              	.L67:
 736 0116 C046     		.align	2
ARM GAS  C:\Users\ADMINI~1\AppData\Local\Temp\ccofok6U.s 			page 26


 737              	.L66:
 738 0118 00000000 		.word	OSIntNestingCtr
 739 011c 43730000 		.word	29507
 740 0120 42730000 		.word	29506
 741 0124 00000000 		.word	OSTmrListPtr
 742 0128 00000000 		.word	OSTmrListEntries
 743 012c 3D730000 		.word	29501
 744 0130 41730000 		.word	29505
 745              		.cfi_endproc
 746              	.LFE3:
 747              		.size	OSTmrStart, .-OSTmrStart
 748              		.section	.text.OSTmrStateGet,"ax",%progbits
 749              		.align	2
 750              		.global	OSTmrStateGet
 751              		.code	16
 752              		.thumb_func
 753              		.type	OSTmrStateGet, %function
 754              	OSTmrStateGet:
 755              	.LFB4:
 686:..\..\..\..\..\..\Software\uCOS-III\Source/os_tmr.c **** 
 687:..\..\..\..\..\..\Software\uCOS-III\Source/os_tmr.c **** 
 688:..\..\..\..\..\..\Software\uCOS-III\Source/os_tmr.c **** /*
 689:..\..\..\..\..\..\Software\uCOS-III\Source/os_tmr.c **** ***************************************************************************************************
 690:..\..\..\..\..\..\Software\uCOS-III\Source/os_tmr.c **** *                                           FIND OUT WHAT STATE A TIMER IS IN
 691:..\..\..\..\..\..\Software\uCOS-III\Source/os_tmr.c **** *
 692:..\..\..\..\..\..\Software\uCOS-III\Source/os_tmr.c **** * Description: This function is called to determine what state the timer is in:
 693:..\..\..\..\..\..\Software\uCOS-III\Source/os_tmr.c **** *
 694:..\..\..\..\..\..\Software\uCOS-III\Source/os_tmr.c **** *                  OS_TMR_STATE_UNUSED     the timer has not been created
 695:..\..\..\..\..\..\Software\uCOS-III\Source/os_tmr.c **** *                  OS_TMR_STATE_STOPPED    the timer has been created but has not been started or h
 696:..\..\..\..\..\..\Software\uCOS-III\Source/os_tmr.c **** *                  OS_TMR_STATE_COMPLETED  the timer is in ONE-SHOT mode and has completed it's tim
 697:..\..\..\..\..\..\Software\uCOS-III\Source/os_tmr.c **** *                  OS_TMR_SATE_RUNNING     the timer is currently running
 698:..\..\..\..\..\..\Software\uCOS-III\Source/os_tmr.c **** *
 699:..\..\..\..\..\..\Software\uCOS-III\Source/os_tmr.c **** * Arguments  : p_tmr    Is a pointer to the desired timer
 700:..\..\..\..\..\..\Software\uCOS-III\Source/os_tmr.c **** *
 701:..\..\..\..\..\..\Software\uCOS-III\Source/os_tmr.c **** *              p_err    Is a pointer to an error code.  '*p_err' will contain one of the following:
 702:..\..\..\..\..\..\Software\uCOS-III\Source/os_tmr.c **** *
 703:..\..\..\..\..\..\Software\uCOS-III\Source/os_tmr.c **** *                           OS_ERR_NONE               The return value reflects the state of the ti
 704:..\..\..\..\..\..\Software\uCOS-III\Source/os_tmr.c **** *                           OS_ERR_OBJ_TYPE           If 'p_tmr' is not pointing to a timer
 705:..\..\..\..\..\..\Software\uCOS-III\Source/os_tmr.c **** *                           OS_ERR_OS_NOT_RUNNING     If uC/OS-III is not running yet
 706:..\..\..\..\..\..\Software\uCOS-III\Source/os_tmr.c **** *                           OS_ERR_TMR_INVALID        If 'p_tmr' is a NULL pointer
 707:..\..\..\..\..\..\Software\uCOS-III\Source/os_tmr.c **** *                           OS_ERR_TMR_INVALID_STATE  If the timer is not in a valid state
 708:..\..\..\..\..\..\Software\uCOS-III\Source/os_tmr.c **** *                           OS_ERR_TMR_ISR            If the call was made from an ISR
 709:..\..\..\..\..\..\Software\uCOS-III\Source/os_tmr.c **** *
 710:..\..\..\..\..\..\Software\uCOS-III\Source/os_tmr.c **** * Returns    : The current state of the timer (see description).
 711:..\..\..\..\..\..\Software\uCOS-III\Source/os_tmr.c **** *
 712:..\..\..\..\..\..\Software\uCOS-III\Source/os_tmr.c **** * Note(s)    : none
 713:..\..\..\..\..\..\Software\uCOS-III\Source/os_tmr.c **** ***************************************************************************************************
 714:..\..\..\..\..\..\Software\uCOS-III\Source/os_tmr.c **** */
 715:..\..\..\..\..\..\Software\uCOS-III\Source/os_tmr.c **** 
 716:..\..\..\..\..\..\Software\uCOS-III\Source/os_tmr.c **** OS_STATE  OSTmrStateGet (OS_TMR  *p_tmr,
 717:..\..\..\..\..\..\Software\uCOS-III\Source/os_tmr.c ****                          OS_ERR  *p_err)
 718:..\..\..\..\..\..\Software\uCOS-III\Source/os_tmr.c **** {
 756              		.loc 1 718 0
 757              		.cfi_startproc
 758              		@ args = 0, pretend = 0, frame = 16
 759              		@ frame_needed = 1, uses_anonymous_args = 0
 760 0000 80B5     		push	{r7, lr}
ARM GAS  C:\Users\ADMINI~1\AppData\Local\Temp\ccofok6U.s 			page 27


 761              		.cfi_def_cfa_offset 8
 762              		.cfi_offset 7, -8
 763              		.cfi_offset 14, -4
 764 0002 84B0     		sub	sp, sp, #16
 765              		.cfi_def_cfa_offset 24
 766 0004 00AF     		add	r7, sp, #0
 767              		.cfi_def_cfa_register 7
 768 0006 7860     		str	r0, [r7, #4]
 769 0008 3960     		str	r1, [r7]
 719:..\..\..\..\..\..\Software\uCOS-III\Source/os_tmr.c ****     OS_STATE  state;
 720:..\..\..\..\..\..\Software\uCOS-III\Source/os_tmr.c **** 
 721:..\..\..\..\..\..\Software\uCOS-III\Source/os_tmr.c **** 
 722:..\..\..\..\..\..\Software\uCOS-III\Source/os_tmr.c **** 
 723:..\..\..\..\..\..\Software\uCOS-III\Source/os_tmr.c **** #ifdef OS_SAFETY_CRITICAL
 724:..\..\..\..\..\..\Software\uCOS-III\Source/os_tmr.c ****     if (p_err == DEF_NULL) {
 725:..\..\..\..\..\..\Software\uCOS-III\Source/os_tmr.c ****         OS_SAFETY_CRITICAL_EXCEPTION();
 726:..\..\..\..\..\..\Software\uCOS-III\Source/os_tmr.c ****         return (OS_TMR_STATE_UNUSED);
 727:..\..\..\..\..\..\Software\uCOS-III\Source/os_tmr.c ****     }
 728:..\..\..\..\..\..\Software\uCOS-III\Source/os_tmr.c **** #endif
 729:..\..\..\..\..\..\Software\uCOS-III\Source/os_tmr.c **** 
 730:..\..\..\..\..\..\Software\uCOS-III\Source/os_tmr.c **** #if (OS_CFG_CALLED_FROM_ISR_CHK_EN == DEF_ENABLED)
 731:..\..\..\..\..\..\Software\uCOS-III\Source/os_tmr.c ****     if (OSIntNestingCtr > 0u) {                                 /* See if trying to call from an IS
 770              		.loc 1 731 0
 771 000a 184B     		ldr	r3, .L75
 772 000c 1B78     		ldrb	r3, [r3]
 773 000e 002B     		cmp	r3, #0
 774 0010 04D0     		beq	.L69
 732:..\..\..\..\..\..\Software\uCOS-III\Source/os_tmr.c ****        *p_err = OS_ERR_TMR_ISR;
 775              		.loc 1 732 0
 776 0012 3B68     		ldr	r3, [r7]
 777 0014 164A     		ldr	r2, .L75+4
 778 0016 1A80     		strh	r2, [r3]
 733:..\..\..\..\..\..\Software\uCOS-III\Source/os_tmr.c ****         return (OS_TMR_STATE_UNUSED);
 779              		.loc 1 733 0
 780 0018 0023     		movs	r3, #0
 781 001a 22E0     		b	.L70
 782              	.L69:
 734:..\..\..\..\..\..\Software\uCOS-III\Source/os_tmr.c ****     }
 735:..\..\..\..\..\..\Software\uCOS-III\Source/os_tmr.c **** #endif
 736:..\..\..\..\..\..\Software\uCOS-III\Source/os_tmr.c **** 
 737:..\..\..\..\..\..\Software\uCOS-III\Source/os_tmr.c **** #if (OS_CFG_INVALID_OS_CALLS_CHK_EN == DEF_ENABLED)             /* Is the kernel running?          
 738:..\..\..\..\..\..\Software\uCOS-III\Source/os_tmr.c ****     if (OSRunning != OS_STATE_OS_RUNNING) {
 739:..\..\..\..\..\..\Software\uCOS-III\Source/os_tmr.c ****        *p_err = OS_ERR_OS_NOT_RUNNING;
 740:..\..\..\..\..\..\Software\uCOS-III\Source/os_tmr.c ****         return (OS_TMR_STATE_UNUSED);
 741:..\..\..\..\..\..\Software\uCOS-III\Source/os_tmr.c ****     }
 742:..\..\..\..\..\..\Software\uCOS-III\Source/os_tmr.c **** #endif
 743:..\..\..\..\..\..\Software\uCOS-III\Source/os_tmr.c **** 
 744:..\..\..\..\..\..\Software\uCOS-III\Source/os_tmr.c **** #if (OS_CFG_ARG_CHK_EN == DEF_ENABLED)
 745:..\..\..\..\..\..\Software\uCOS-III\Source/os_tmr.c ****     if (p_tmr == DEF_NULL) {
 783              		.loc 1 745 0
 784 001c 7B68     		ldr	r3, [r7, #4]
 785 001e 002B     		cmp	r3, #0
 786 0020 04D1     		bne	.L71
 746:..\..\..\..\..\..\Software\uCOS-III\Source/os_tmr.c ****        *p_err = OS_ERR_TMR_INVALID;
 787              		.loc 1 746 0
 788 0022 3B68     		ldr	r3, [r7]
 789 0024 134A     		ldr	r2, .L75+8
ARM GAS  C:\Users\ADMINI~1\AppData\Local\Temp\ccofok6U.s 			page 28


 790 0026 1A80     		strh	r2, [r3]
 747:..\..\..\..\..\..\Software\uCOS-III\Source/os_tmr.c ****         return (OS_TMR_STATE_UNUSED);
 791              		.loc 1 747 0
 792 0028 0023     		movs	r3, #0
 793 002a 1AE0     		b	.L70
 794              	.L71:
 748:..\..\..\..\..\..\Software\uCOS-III\Source/os_tmr.c ****     }
 749:..\..\..\..\..\..\Software\uCOS-III\Source/os_tmr.c **** #endif
 750:..\..\..\..\..\..\Software\uCOS-III\Source/os_tmr.c **** 
 751:..\..\..\..\..\..\Software\uCOS-III\Source/os_tmr.c **** #if (OS_CFG_OBJ_TYPE_CHK_EN == DEF_ENABLED)
 752:..\..\..\..\..\..\Software\uCOS-III\Source/os_tmr.c ****     if (p_tmr->Type != OS_OBJ_TYPE_TMR) {                       /* Make sure timer was created     
 753:..\..\..\..\..\..\Software\uCOS-III\Source/os_tmr.c ****        *p_err = OS_ERR_OBJ_TYPE;
 754:..\..\..\..\..\..\Software\uCOS-III\Source/os_tmr.c ****         return (OS_TMR_STATE_UNUSED);
 755:..\..\..\..\..\..\Software\uCOS-III\Source/os_tmr.c ****     }
 756:..\..\..\..\..\..\Software\uCOS-III\Source/os_tmr.c **** #endif
 757:..\..\..\..\..\..\Software\uCOS-III\Source/os_tmr.c **** 
 758:..\..\..\..\..\..\Software\uCOS-III\Source/os_tmr.c ****     OS_TmrLock();
 795              		.loc 1 758 0
 796 002c FFF7FEFF 		bl	OS_TmrLock
 759:..\..\..\..\..\..\Software\uCOS-III\Source/os_tmr.c **** 
 760:..\..\..\..\..\..\Software\uCOS-III\Source/os_tmr.c ****     state = p_tmr->State;
 797              		.loc 1 760 0
 798 0030 0F23     		movs	r3, #15
 799 0032 FB18     		adds	r3, r7, r3
 800 0034 7A68     		ldr	r2, [r7, #4]
 801 0036 2621     		movs	r1, #38
 802 0038 525C     		ldrb	r2, [r2, r1]
 803 003a 1A70     		strb	r2, [r3]
 761:..\..\..\..\..\..\Software\uCOS-III\Source/os_tmr.c ****     switch (state) {
 804              		.loc 1 761 0
 805 003c 0F23     		movs	r3, #15
 806 003e FB18     		adds	r3, r7, r3
 807 0040 1B78     		ldrb	r3, [r3]
 808 0042 0033     		adds	r3, r3, #0
 809 0044 032B     		cmp	r3, #3
 810 0046 03D8     		bhi	.L72
 762:..\..\..\..\..\..\Software\uCOS-III\Source/os_tmr.c ****         case OS_TMR_STATE_UNUSED:
 763:..\..\..\..\..\..\Software\uCOS-III\Source/os_tmr.c ****         case OS_TMR_STATE_STOPPED:
 764:..\..\..\..\..\..\Software\uCOS-III\Source/os_tmr.c ****         case OS_TMR_STATE_COMPLETED:
 765:..\..\..\..\..\..\Software\uCOS-III\Source/os_tmr.c ****         case OS_TMR_STATE_RUNNING:
 766:..\..\..\..\..\..\Software\uCOS-III\Source/os_tmr.c ****             *p_err = OS_ERR_NONE;
 811              		.loc 1 766 0
 812 0048 3B68     		ldr	r3, [r7]
 813 004a 0022     		movs	r2, #0
 814 004c 1A80     		strh	r2, [r3]
 767:..\..\..\..\..\..\Software\uCOS-III\Source/os_tmr.c ****              break;
 815              		.loc 1 767 0
 816 004e 03E0     		b	.L74
 817              	.L72:
 768:..\..\..\..\..\..\Software\uCOS-III\Source/os_tmr.c **** 
 769:..\..\..\..\..\..\Software\uCOS-III\Source/os_tmr.c ****         default:
 770:..\..\..\..\..\..\Software\uCOS-III\Source/os_tmr.c ****             *p_err = OS_ERR_TMR_INVALID_STATE;
 818              		.loc 1 770 0
 819 0050 3B68     		ldr	r3, [r7]
 820 0052 094A     		ldr	r2, .L75+12
 821 0054 1A80     		strh	r2, [r3]
 771:..\..\..\..\..\..\Software\uCOS-III\Source/os_tmr.c ****              break;
ARM GAS  C:\Users\ADMINI~1\AppData\Local\Temp\ccofok6U.s 			page 29


 822              		.loc 1 771 0
 823 0056 C046     		nop
 824              	.L74:
 772:..\..\..\..\..\..\Software\uCOS-III\Source/os_tmr.c ****     }
 773:..\..\..\..\..\..\Software\uCOS-III\Source/os_tmr.c **** 
 774:..\..\..\..\..\..\Software\uCOS-III\Source/os_tmr.c ****     OS_TmrUnlock();
 825              		.loc 1 774 0
 826 0058 FFF7FEFF 		bl	OS_TmrUnlock
 775:..\..\..\..\..\..\Software\uCOS-III\Source/os_tmr.c **** 
 776:..\..\..\..\..\..\Software\uCOS-III\Source/os_tmr.c ****     return (state);
 827              		.loc 1 776 0
 828 005c 0F23     		movs	r3, #15
 829 005e FB18     		adds	r3, r7, r3
 830 0060 1B78     		ldrb	r3, [r3]
 831              	.L70:
 777:..\..\..\..\..\..\Software\uCOS-III\Source/os_tmr.c **** }
 832              		.loc 1 777 0
 833 0062 1800     		movs	r0, r3
 834 0064 BD46     		mov	sp, r7
 835 0066 04B0     		add	sp, sp, #16
 836              		@ sp needed
 837 0068 80BD     		pop	{r7, pc}
 838              	.L76:
 839 006a C046     		.align	2
 840              	.L75:
 841 006c 00000000 		.word	OSIntNestingCtr
 842 0070 43730000 		.word	29507
 843 0074 42730000 		.word	29506
 844 0078 41730000 		.word	29505
 845              		.cfi_endproc
 846              	.LFE4:
 847              		.size	OSTmrStateGet, .-OSTmrStateGet
 848              		.section	.text.OSTmrStop,"ax",%progbits
 849              		.align	2
 850              		.global	OSTmrStop
 851              		.code	16
 852              		.thumb_func
 853              		.type	OSTmrStop, %function
 854              	OSTmrStop:
 855              	.LFB5:
 778:..\..\..\..\..\..\Software\uCOS-III\Source/os_tmr.c **** 
 779:..\..\..\..\..\..\Software\uCOS-III\Source/os_tmr.c **** 
 780:..\..\..\..\..\..\Software\uCOS-III\Source/os_tmr.c **** /*
 781:..\..\..\..\..\..\Software\uCOS-III\Source/os_tmr.c **** ***************************************************************************************************
 782:..\..\..\..\..\..\Software\uCOS-III\Source/os_tmr.c **** *                                                    STOP A TIMER
 783:..\..\..\..\..\..\Software\uCOS-III\Source/os_tmr.c **** *
 784:..\..\..\..\..\..\Software\uCOS-III\Source/os_tmr.c **** * Description: This function is called by your application code to stop a timer.
 785:..\..\..\..\..\..\Software\uCOS-III\Source/os_tmr.c **** *
 786:..\..\..\..\..\..\Software\uCOS-III\Source/os_tmr.c **** * Arguments  : p_tmr          Is a pointer to the timer to stop.
 787:..\..\..\..\..\..\Software\uCOS-III\Source/os_tmr.c **** *
 788:..\..\..\..\..\..\Software\uCOS-III\Source/os_tmr.c **** *              opt            Allows you to specify an option to this functions which can be:
 789:..\..\..\..\..\..\Software\uCOS-III\Source/os_tmr.c **** *
 790:..\..\..\..\..\..\Software\uCOS-III\Source/os_tmr.c **** *                               OS_OPT_TMR_NONE            Do nothing special but stop the timer
 791:..\..\..\..\..\..\Software\uCOS-III\Source/os_tmr.c **** *                               OS_OPT_TMR_CALLBACK        Execute the callback function, pass it t
 792:..\..\..\..\..\..\Software\uCOS-III\Source/os_tmr.c **** *                                                          specified when the timer was created.
 793:..\..\..\..\..\..\Software\uCOS-III\Source/os_tmr.c **** *                               OS_OPT_TMR_CALLBACK_ARG    Execute the callback function, pass it t
 794:..\..\..\..\..\..\Software\uCOS-III\Source/os_tmr.c **** *                                                          specified in THIS function call
ARM GAS  C:\Users\ADMINI~1\AppData\Local\Temp\ccofok6U.s 			page 30


 795:..\..\..\..\..\..\Software\uCOS-III\Source/os_tmr.c **** *
 796:..\..\..\..\..\..\Software\uCOS-III\Source/os_tmr.c **** *              callback_arg   Is a pointer to a 'new' callback argument that can be passed to the c
 797:..\..\..\..\..\..\Software\uCOS-III\Source/os_tmr.c **** *                               instead of the timer's callback argument.  In other words, use 'cal
 798:..\..\..\..\..\..\Software\uCOS-III\Source/os_tmr.c **** *                               THIS function INSTEAD of p_tmr->OSTmrCallbackArg
 799:..\..\..\..\..\..\Software\uCOS-III\Source/os_tmr.c **** *
 800:..\..\..\..\..\..\Software\uCOS-III\Source/os_tmr.c **** *              p_err          Is a pointer to an error code.  '*p_err' will contain one of the foll
 801:..\..\..\..\..\..\Software\uCOS-III\Source/os_tmr.c **** *
 802:..\..\..\..\..\..\Software\uCOS-III\Source/os_tmr.c **** *                               OS_ERR_NONE                The timer has stopped
 803:..\..\..\..\..\..\Software\uCOS-III\Source/os_tmr.c **** *                               OS_ERR_OBJ_TYPE            If 'p_tmr' is not pointing to a timer
 804:..\..\..\..\..\..\Software\uCOS-III\Source/os_tmr.c **** *                               OS_ERR_OPT_INVALID         If you specified an invalid option for '
 805:..\..\..\..\..\..\Software\uCOS-III\Source/os_tmr.c **** *                               OS_ERR_OS_NOT_RUNNING      If uC/OS-III is not running yet
 806:..\..\..\..\..\..\Software\uCOS-III\Source/os_tmr.c **** *                               OS_ERR_TMR_INACTIVE        If the timer was not created
 807:..\..\..\..\..\..\Software\uCOS-III\Source/os_tmr.c **** *                               OS_ERR_TMR_INVALID         If 'p_tmr' is a NULL pointer
 808:..\..\..\..\..\..\Software\uCOS-III\Source/os_tmr.c **** *                               OS_ERR_TMR_INVALID_STATE   The timer is in an invalid state
 809:..\..\..\..\..\..\Software\uCOS-III\Source/os_tmr.c **** *                               OS_ERR_TMR_ISR             If the function was called from an ISR
 810:..\..\..\..\..\..\Software\uCOS-III\Source/os_tmr.c **** *                               OS_ERR_TMR_NO_CALLBACK     If the timer does not have a callback fu
 811:..\..\..\..\..\..\Software\uCOS-III\Source/os_tmr.c **** *                               OS_ERR_TMR_STOPPED         If the timer was already stopped
 812:..\..\..\..\..\..\Software\uCOS-III\Source/os_tmr.c **** *
 813:..\..\..\..\..\..\Software\uCOS-III\Source/os_tmr.c **** * Returns    : DEF_TRUE       If we stopped the timer (if the timer is already stopped, we also ret
 814:..\..\..\..\..\..\Software\uCOS-III\Source/os_tmr.c **** *              DEF_FALSE      If not
 815:..\..\..\..\..\..\Software\uCOS-III\Source/os_tmr.c **** *
 816:..\..\..\..\..\..\Software\uCOS-III\Source/os_tmr.c **** * Note(s)    : none
 817:..\..\..\..\..\..\Software\uCOS-III\Source/os_tmr.c **** ***************************************************************************************************
 818:..\..\..\..\..\..\Software\uCOS-III\Source/os_tmr.c **** */
 819:..\..\..\..\..\..\Software\uCOS-III\Source/os_tmr.c **** 
 820:..\..\..\..\..\..\Software\uCOS-III\Source/os_tmr.c **** CPU_BOOLEAN  OSTmrStop (OS_TMR  *p_tmr,
 821:..\..\..\..\..\..\Software\uCOS-III\Source/os_tmr.c ****                         OS_OPT   opt,
 822:..\..\..\..\..\..\Software\uCOS-III\Source/os_tmr.c ****                         void    *p_callback_arg,
 823:..\..\..\..\..\..\Software\uCOS-III\Source/os_tmr.c ****                         OS_ERR  *p_err)
 824:..\..\..\..\..\..\Software\uCOS-III\Source/os_tmr.c **** {
 856              		.loc 1 824 0
 857              		.cfi_startproc
 858              		@ args = 0, pretend = 0, frame = 24
 859              		@ frame_needed = 1, uses_anonymous_args = 0
 860 0000 80B5     		push	{r7, lr}
 861              		.cfi_def_cfa_offset 8
 862              		.cfi_offset 7, -8
 863              		.cfi_offset 14, -4
 864 0002 86B0     		sub	sp, sp, #24
 865              		.cfi_def_cfa_offset 32
 866 0004 00AF     		add	r7, sp, #0
 867              		.cfi_def_cfa_register 7
 868 0006 F860     		str	r0, [r7, #12]
 869 0008 7A60     		str	r2, [r7, #4]
 870 000a 3B60     		str	r3, [r7]
 871 000c 0A23     		movs	r3, #10
 872 000e FB18     		adds	r3, r7, r3
 873 0010 0A1C     		adds	r2, r1, #0
 874 0012 1A80     		strh	r2, [r3]
 825:..\..\..\..\..\..\Software\uCOS-III\Source/os_tmr.c ****     OS_TMR_CALLBACK_PTR  p_fnct;
 826:..\..\..\..\..\..\Software\uCOS-III\Source/os_tmr.c ****     CPU_BOOLEAN          success;
 827:..\..\..\..\..\..\Software\uCOS-III\Source/os_tmr.c **** 
 828:..\..\..\..\..\..\Software\uCOS-III\Source/os_tmr.c **** 
 829:..\..\..\..\..\..\Software\uCOS-III\Source/os_tmr.c **** 
 830:..\..\..\..\..\..\Software\uCOS-III\Source/os_tmr.c **** #ifdef OS_SAFETY_CRITICAL
 831:..\..\..\..\..\..\Software\uCOS-III\Source/os_tmr.c ****     if (p_err == DEF_NULL) {
 832:..\..\..\..\..\..\Software\uCOS-III\Source/os_tmr.c ****         OS_SAFETY_CRITICAL_EXCEPTION();
ARM GAS  C:\Users\ADMINI~1\AppData\Local\Temp\ccofok6U.s 			page 31


 833:..\..\..\..\..\..\Software\uCOS-III\Source/os_tmr.c ****         return (DEF_FALSE);
 834:..\..\..\..\..\..\Software\uCOS-III\Source/os_tmr.c ****     }
 835:..\..\..\..\..\..\Software\uCOS-III\Source/os_tmr.c **** #endif
 836:..\..\..\..\..\..\Software\uCOS-III\Source/os_tmr.c **** 
 837:..\..\..\..\..\..\Software\uCOS-III\Source/os_tmr.c **** #if (OS_CFG_CALLED_FROM_ISR_CHK_EN == DEF_ENABLED)
 838:..\..\..\..\..\..\Software\uCOS-III\Source/os_tmr.c ****     if (OSIntNestingCtr > 0u) {                                 /* See if trying to call from an IS
 875              		.loc 1 838 0
 876 0014 444B     		ldr	r3, .L97
 877 0016 1B78     		ldrb	r3, [r3]
 878 0018 002B     		cmp	r3, #0
 879 001a 04D0     		beq	.L78
 839:..\..\..\..\..\..\Software\uCOS-III\Source/os_tmr.c ****        *p_err = OS_ERR_TMR_ISR;
 880              		.loc 1 839 0
 881 001c 3B68     		ldr	r3, [r7]
 882 001e 434A     		ldr	r2, .L97+4
 883 0020 1A80     		strh	r2, [r3]
 840:..\..\..\..\..\..\Software\uCOS-III\Source/os_tmr.c ****         return (DEF_FALSE);
 884              		.loc 1 840 0
 885 0022 0023     		movs	r3, #0
 886 0024 7BE0     		b	.L79
 887              	.L78:
 841:..\..\..\..\..\..\Software\uCOS-III\Source/os_tmr.c ****     }
 842:..\..\..\..\..\..\Software\uCOS-III\Source/os_tmr.c **** #endif
 843:..\..\..\..\..\..\Software\uCOS-III\Source/os_tmr.c **** 
 844:..\..\..\..\..\..\Software\uCOS-III\Source/os_tmr.c **** #if (OS_CFG_INVALID_OS_CALLS_CHK_EN == DEF_ENABLED)             /* Is the kernel running?          
 845:..\..\..\..\..\..\Software\uCOS-III\Source/os_tmr.c ****     if (OSRunning != OS_STATE_OS_RUNNING) {
 846:..\..\..\..\..\..\Software\uCOS-III\Source/os_tmr.c ****        *p_err = OS_ERR_OS_NOT_RUNNING;
 847:..\..\..\..\..\..\Software\uCOS-III\Source/os_tmr.c ****         return (DEF_FALSE);
 848:..\..\..\..\..\..\Software\uCOS-III\Source/os_tmr.c ****     }
 849:..\..\..\..\..\..\Software\uCOS-III\Source/os_tmr.c **** #endif
 850:..\..\..\..\..\..\Software\uCOS-III\Source/os_tmr.c **** 
 851:..\..\..\..\..\..\Software\uCOS-III\Source/os_tmr.c **** #if (OS_CFG_ARG_CHK_EN == DEF_ENABLED)
 852:..\..\..\..\..\..\Software\uCOS-III\Source/os_tmr.c ****     if (p_tmr == DEF_NULL) {
 888              		.loc 1 852 0
 889 0026 FB68     		ldr	r3, [r7, #12]
 890 0028 002B     		cmp	r3, #0
 891 002a 04D1     		bne	.L80
 853:..\..\..\..\..\..\Software\uCOS-III\Source/os_tmr.c ****        *p_err = OS_ERR_TMR_INVALID;
 892              		.loc 1 853 0
 893 002c 3B68     		ldr	r3, [r7]
 894 002e 404A     		ldr	r2, .L97+8
 895 0030 1A80     		strh	r2, [r3]
 854:..\..\..\..\..\..\Software\uCOS-III\Source/os_tmr.c ****         return (DEF_FALSE);
 896              		.loc 1 854 0
 897 0032 0023     		movs	r3, #0
 898 0034 73E0     		b	.L79
 899              	.L80:
 855:..\..\..\..\..\..\Software\uCOS-III\Source/os_tmr.c ****     }
 856:..\..\..\..\..\..\Software\uCOS-III\Source/os_tmr.c **** #endif
 857:..\..\..\..\..\..\Software\uCOS-III\Source/os_tmr.c **** 
 858:..\..\..\..\..\..\Software\uCOS-III\Source/os_tmr.c **** #if (OS_CFG_OBJ_TYPE_CHK_EN == DEF_ENABLED)
 859:..\..\..\..\..\..\Software\uCOS-III\Source/os_tmr.c ****     if (p_tmr->Type != OS_OBJ_TYPE_TMR) {                       /* Make sure timer was created     
 860:..\..\..\..\..\..\Software\uCOS-III\Source/os_tmr.c ****        *p_err = OS_ERR_OBJ_TYPE;
 861:..\..\..\..\..\..\Software\uCOS-III\Source/os_tmr.c ****         return (DEF_FALSE);
 862:..\..\..\..\..\..\Software\uCOS-III\Source/os_tmr.c ****     }
 863:..\..\..\..\..\..\Software\uCOS-III\Source/os_tmr.c **** #endif
 864:..\..\..\..\..\..\Software\uCOS-III\Source/os_tmr.c **** 
ARM GAS  C:\Users\ADMINI~1\AppData\Local\Temp\ccofok6U.s 			page 32


 865:..\..\..\..\..\..\Software\uCOS-III\Source/os_tmr.c ****     OS_TmrLock();
 900              		.loc 1 865 0
 901 0036 FFF7FEFF 		bl	OS_TmrLock
 866:..\..\..\..\..\..\Software\uCOS-III\Source/os_tmr.c **** 
 867:..\..\..\..\..\..\Software\uCOS-III\Source/os_tmr.c ****     switch (p_tmr->State) {
 902              		.loc 1 867 0
 903 003a FB68     		ldr	r3, [r7, #12]
 904 003c 2622     		movs	r2, #38
 905 003e 9B5C     		ldrb	r3, [r3, r2]
 906 0040 012B     		cmp	r3, #1
 907 0042 4FD0     		beq	.L82
 908 0044 02DC     		bgt	.L83
 909 0046 002B     		cmp	r3, #0
 910 0048 54D0     		beq	.L84
 911 004a 5BE0     		b	.L81
 912              	.L83:
 913 004c 022B     		cmp	r3, #2
 914 004e 02D0     		beq	.L85
 915 0050 032B     		cmp	r3, #3
 916 0052 47D0     		beq	.L82
 917 0054 56E0     		b	.L81
 918              	.L85:
 868:..\..\..\..\..\..\Software\uCOS-III\Source/os_tmr.c ****         case OS_TMR_STATE_RUNNING:
 869:..\..\..\..\..\..\Software\uCOS-III\Source/os_tmr.c ****             *p_err = OS_ERR_NONE;
 919              		.loc 1 869 0
 920 0056 3B68     		ldr	r3, [r7]
 921 0058 0022     		movs	r2, #0
 922 005a 1A80     		strh	r2, [r3]
 870:..\..\..\..\..\..\Software\uCOS-III\Source/os_tmr.c ****              switch (opt) {
 923              		.loc 1 870 0
 924 005c 0A23     		movs	r3, #10
 925 005e FB18     		adds	r3, r7, r3
 926 0060 1B88     		ldrh	r3, [r3]
 927 0062 032B     		cmp	r3, #3
 928 0064 04D0     		beq	.L87
 929 0066 042B     		cmp	r3, #4
 930 0068 17D0     		beq	.L88
 931 006a 002B     		cmp	r3, #0
 932 006c 29D0     		beq	.L89
 933 006e 2DE0     		b	.L96
 934              	.L87:
 871:..\..\..\..\..\..\Software\uCOS-III\Source/os_tmr.c ****                  case OS_OPT_TMR_CALLBACK:
 872:..\..\..\..\..\..\Software\uCOS-III\Source/os_tmr.c ****                       OS_TmrUnlink(p_tmr);                      /* Remove from timer list          
 935              		.loc 1 872 0
 936 0070 FB68     		ldr	r3, [r7, #12]
 937 0072 1800     		movs	r0, r3
 938 0074 FFF7FEFF 		bl	OS_TmrUnlink
 873:..\..\..\..\..\..\Software\uCOS-III\Source/os_tmr.c ****                       p_fnct = p_tmr->CallbackPtr;              /* Execute callback function ...   
 939              		.loc 1 873 0
 940 0078 FB68     		ldr	r3, [r7, #12]
 941 007a 9B68     		ldr	r3, [r3, #8]
 942 007c 3B61     		str	r3, [r7, #16]
 874:..\..\..\..\..\..\Software\uCOS-III\Source/os_tmr.c ****                       if (p_fnct != DEF_NULL) {                 /* ... if available                
 943              		.loc 1 874 0
 944 007e 3B69     		ldr	r3, [r7, #16]
 945 0080 002B     		cmp	r3, #0
 946 0082 06D0     		beq	.L90
ARM GAS  C:\Users\ADMINI~1\AppData\Local\Temp\ccofok6U.s 			page 33


 875:..\..\..\..\..\..\Software\uCOS-III\Source/os_tmr.c ****                         (*p_fnct)((void *)p_tmr, p_tmr->CallbackPtrArg); /* Use callback arg when t
 947              		.loc 1 875 0
 948 0084 FB68     		ldr	r3, [r7, #12]
 949 0086 D968     		ldr	r1, [r3, #12]
 950 0088 FA68     		ldr	r2, [r7, #12]
 951 008a 3B69     		ldr	r3, [r7, #16]
 952 008c 1000     		movs	r0, r2
 953 008e 9847     		blx	r3
 876:..\..\..\..\..\..\Software\uCOS-III\Source/os_tmr.c ****                       } else {
 877:..\..\..\..\..\..\Software\uCOS-III\Source/os_tmr.c ****                          *p_err = OS_ERR_TMR_NO_CALLBACK;
 878:..\..\..\..\..\..\Software\uCOS-III\Source/os_tmr.c ****                       }
 879:..\..\..\..\..\..\Software\uCOS-III\Source/os_tmr.c ****                       break;
 954              		.loc 1 879 0
 955 0090 23E0     		b	.L92
 956              	.L90:
 877:..\..\..\..\..\..\Software\uCOS-III\Source/os_tmr.c ****                       }
 957              		.loc 1 877 0
 958 0092 3B68     		ldr	r3, [r7]
 959 0094 274A     		ldr	r2, .L97+12
 960 0096 1A80     		strh	r2, [r3]
 961              		.loc 1 879 0
 962 0098 1FE0     		b	.L92
 963              	.L88:
 880:..\..\..\..\..\..\Software\uCOS-III\Source/os_tmr.c **** 
 881:..\..\..\..\..\..\Software\uCOS-III\Source/os_tmr.c ****                  case OS_OPT_TMR_CALLBACK_ARG:
 882:..\..\..\..\..\..\Software\uCOS-III\Source/os_tmr.c ****                       OS_TmrUnlink(p_tmr);                      /* Remove from timer list          
 964              		.loc 1 882 0
 965 009a FB68     		ldr	r3, [r7, #12]
 966 009c 1800     		movs	r0, r3
 967 009e FFF7FEFF 		bl	OS_TmrUnlink
 883:..\..\..\..\..\..\Software\uCOS-III\Source/os_tmr.c ****                       p_fnct = p_tmr->CallbackPtr;              /* Execute callback function if ava
 968              		.loc 1 883 0
 969 00a2 FB68     		ldr	r3, [r7, #12]
 970 00a4 9B68     		ldr	r3, [r3, #8]
 971 00a6 3B61     		str	r3, [r7, #16]
 884:..\..\..\..\..\..\Software\uCOS-III\Source/os_tmr.c ****                       if (p_fnct != DEF_NULL) {
 972              		.loc 1 884 0
 973 00a8 3B69     		ldr	r3, [r7, #16]
 974 00aa 002B     		cmp	r3, #0
 975 00ac 05D0     		beq	.L93
 885:..\..\..\..\..\..\Software\uCOS-III\Source/os_tmr.c ****                         (*p_fnct)((void *)p_tmr, p_callback_arg); /* .. using the 'callback_arg' pr
 976              		.loc 1 885 0
 977 00ae 7968     		ldr	r1, [r7, #4]
 978 00b0 FA68     		ldr	r2, [r7, #12]
 979 00b2 3B69     		ldr	r3, [r7, #16]
 980 00b4 1000     		movs	r0, r2
 981 00b6 9847     		blx	r3
 886:..\..\..\..\..\..\Software\uCOS-III\Source/os_tmr.c ****                       } else {
 887:..\..\..\..\..\..\Software\uCOS-III\Source/os_tmr.c ****                          *p_err = OS_ERR_TMR_NO_CALLBACK;
 888:..\..\..\..\..\..\Software\uCOS-III\Source/os_tmr.c ****                       }
 889:..\..\..\..\..\..\Software\uCOS-III\Source/os_tmr.c ****                       break;
 982              		.loc 1 889 0
 983 00b8 0FE0     		b	.L92
 984              	.L93:
 887:..\..\..\..\..\..\Software\uCOS-III\Source/os_tmr.c ****                       }
 985              		.loc 1 887 0
 986 00ba 3B68     		ldr	r3, [r7]
ARM GAS  C:\Users\ADMINI~1\AppData\Local\Temp\ccofok6U.s 			page 34


 987 00bc 1D4A     		ldr	r2, .L97+12
 988 00be 1A80     		strh	r2, [r3]
 989              		.loc 1 889 0
 990 00c0 0BE0     		b	.L92
 991              	.L89:
 890:..\..\..\..\..\..\Software\uCOS-III\Source/os_tmr.c **** 
 891:..\..\..\..\..\..\Software\uCOS-III\Source/os_tmr.c ****                  case OS_OPT_TMR_NONE:
 892:..\..\..\..\..\..\Software\uCOS-III\Source/os_tmr.c ****                       OS_TmrUnlink(p_tmr);                      /* Remove from timer list          
 992              		.loc 1 892 0
 993 00c2 FB68     		ldr	r3, [r7, #12]
 994 00c4 1800     		movs	r0, r3
 995 00c6 FFF7FEFF 		bl	OS_TmrUnlink
 893:..\..\..\..\..\..\Software\uCOS-III\Source/os_tmr.c ****                       break;
 996              		.loc 1 893 0
 997 00ca 06E0     		b	.L92
 998              	.L96:
 894:..\..\..\..\..\..\Software\uCOS-III\Source/os_tmr.c **** 
 895:..\..\..\..\..\..\Software\uCOS-III\Source/os_tmr.c ****                  default:
 896:..\..\..\..\..\..\Software\uCOS-III\Source/os_tmr.c ****                      OS_TmrUnlock();
 999              		.loc 1 896 0
 1000 00cc FFF7FEFF 		bl	OS_TmrUnlock
 897:..\..\..\..\..\..\Software\uCOS-III\Source/os_tmr.c ****                     *p_err = OS_ERR_OPT_INVALID;
 1001              		.loc 1 897 0
 1002 00d0 3B68     		ldr	r3, [r7]
 1003 00d2 194A     		ldr	r2, .L97+16
 1004 00d4 1A80     		strh	r2, [r3]
 898:..\..\..\..\..\..\Software\uCOS-III\Source/os_tmr.c ****                      return (DEF_FALSE);
 1005              		.loc 1 898 0
 1006 00d6 0023     		movs	r3, #0
 1007 00d8 21E0     		b	.L79
 1008              	.L92:
 899:..\..\..\..\..\..\Software\uCOS-III\Source/os_tmr.c ****              }
 900:..\..\..\..\..\..\Software\uCOS-III\Source/os_tmr.c ****              success = DEF_TRUE;
 1009              		.loc 1 900 0
 1010 00da 1723     		movs	r3, #23
 1011 00dc FB18     		adds	r3, r7, r3
 1012 00de 0122     		movs	r2, #1
 1013 00e0 1A70     		strb	r2, [r3]
 901:..\..\..\..\..\..\Software\uCOS-III\Source/os_tmr.c ****              break;
 1014              		.loc 1 901 0
 1015 00e2 17E0     		b	.L95
 1016              	.L82:
 902:..\..\..\..\..\..\Software\uCOS-III\Source/os_tmr.c **** 
 903:..\..\..\..\..\..\Software\uCOS-III\Source/os_tmr.c ****         case OS_TMR_STATE_COMPLETED:                            /* Timer has already completed the 
 904:..\..\..\..\..\..\Software\uCOS-III\Source/os_tmr.c ****         case OS_TMR_STATE_STOPPED:                              /* ... timer has not started yet.  
 905:..\..\..\..\..\..\Software\uCOS-III\Source/os_tmr.c ****             *p_err   = OS_ERR_TMR_STOPPED;
 1017              		.loc 1 905 0
 1018 00e4 3B68     		ldr	r3, [r7]
 1019 00e6 154A     		ldr	r2, .L97+20
 1020 00e8 1A80     		strh	r2, [r3]
 906:..\..\..\..\..\..\Software\uCOS-III\Source/os_tmr.c ****              success = DEF_TRUE;
 1021              		.loc 1 906 0
 1022 00ea 1723     		movs	r3, #23
 1023 00ec FB18     		adds	r3, r7, r3
 1024 00ee 0122     		movs	r2, #1
 1025 00f0 1A70     		strb	r2, [r3]
 907:..\..\..\..\..\..\Software\uCOS-III\Source/os_tmr.c ****              break;
ARM GAS  C:\Users\ADMINI~1\AppData\Local\Temp\ccofok6U.s 			page 35


 1026              		.loc 1 907 0
 1027 00f2 0FE0     		b	.L95
 1028              	.L84:
 908:..\..\..\..\..\..\Software\uCOS-III\Source/os_tmr.c **** 
 909:..\..\..\..\..\..\Software\uCOS-III\Source/os_tmr.c ****         case OS_TMR_STATE_UNUSED:                               /* Timer was not created           
 910:..\..\..\..\..\..\Software\uCOS-III\Source/os_tmr.c ****             *p_err   = OS_ERR_TMR_INACTIVE;
 1029              		.loc 1 910 0
 1030 00f4 3B68     		ldr	r3, [r7]
 1031 00f6 124A     		ldr	r2, .L97+24
 1032 00f8 1A80     		strh	r2, [r3]
 911:..\..\..\..\..\..\Software\uCOS-III\Source/os_tmr.c ****              success = DEF_FALSE;
 1033              		.loc 1 911 0
 1034 00fa 1723     		movs	r3, #23
 1035 00fc FB18     		adds	r3, r7, r3
 1036 00fe 0022     		movs	r2, #0
 1037 0100 1A70     		strb	r2, [r3]
 912:..\..\..\..\..\..\Software\uCOS-III\Source/os_tmr.c ****              break;
 1038              		.loc 1 912 0
 1039 0102 07E0     		b	.L95
 1040              	.L81:
 913:..\..\..\..\..\..\Software\uCOS-III\Source/os_tmr.c **** 
 914:..\..\..\..\..\..\Software\uCOS-III\Source/os_tmr.c ****         default:
 915:..\..\..\..\..\..\Software\uCOS-III\Source/os_tmr.c ****             *p_err   = OS_ERR_TMR_INVALID_STATE;
 1041              		.loc 1 915 0
 1042 0104 3B68     		ldr	r3, [r7]
 1043 0106 0F4A     		ldr	r2, .L97+28
 1044 0108 1A80     		strh	r2, [r3]
 916:..\..\..\..\..\..\Software\uCOS-III\Source/os_tmr.c ****              success = DEF_FALSE;
 1045              		.loc 1 916 0
 1046 010a 1723     		movs	r3, #23
 1047 010c FB18     		adds	r3, r7, r3
 1048 010e 0022     		movs	r2, #0
 1049 0110 1A70     		strb	r2, [r3]
 917:..\..\..\..\..\..\Software\uCOS-III\Source/os_tmr.c ****              break;
 1050              		.loc 1 917 0
 1051 0112 C046     		nop
 1052              	.L95:
 918:..\..\..\..\..\..\Software\uCOS-III\Source/os_tmr.c ****     }
 919:..\..\..\..\..\..\Software\uCOS-III\Source/os_tmr.c **** 
 920:..\..\..\..\..\..\Software\uCOS-III\Source/os_tmr.c ****     OS_TmrUnlock();
 1053              		.loc 1 920 0
 1054 0114 FFF7FEFF 		bl	OS_TmrUnlock
 921:..\..\..\..\..\..\Software\uCOS-III\Source/os_tmr.c **** 
 922:..\..\..\..\..\..\Software\uCOS-III\Source/os_tmr.c ****     return (success);
 1055              		.loc 1 922 0
 1056 0118 1723     		movs	r3, #23
 1057 011a FB18     		adds	r3, r7, r3
 1058 011c 1B78     		ldrb	r3, [r3]
 1059              	.L79:
 923:..\..\..\..\..\..\Software\uCOS-III\Source/os_tmr.c **** }
 1060              		.loc 1 923 0
 1061 011e 1800     		movs	r0, r3
 1062 0120 BD46     		mov	sp, r7
 1063 0122 06B0     		add	sp, sp, #24
 1064              		@ sp needed
 1065 0124 80BD     		pop	{r7, pc}
 1066              	.L98:
ARM GAS  C:\Users\ADMINI~1\AppData\Local\Temp\ccofok6U.s 			page 36


 1067 0126 C046     		.align	2
 1068              	.L97:
 1069 0128 00000000 		.word	OSIntNestingCtr
 1070 012c 43730000 		.word	29507
 1071 0130 42730000 		.word	29506
 1072 0134 44730000 		.word	29508
 1073 0138 255E0000 		.word	24101
 1074 013c 49730000 		.word	29513
 1075 0140 3D730000 		.word	29501
 1076 0144 41730000 		.word	29505
 1077              		.cfi_endproc
 1078              	.LFE5:
 1079              		.size	OSTmrStop, .-OSTmrStop
 1080              		.section	.rodata
 1081              		.align	2
 1082              	.LC10:
 1083 0000 3F544D52 		.ascii	"?TMR\000"
 1083      00
 1084              		.section	.text.OS_TmrClr,"ax",%progbits
 1085              		.align	2
 1086              		.global	OS_TmrClr
 1087              		.code	16
 1088              		.thumb_func
 1089              		.type	OS_TmrClr, %function
 1090              	OS_TmrClr:
 1091              	.LFB6:
 924:..\..\..\..\..\..\Software\uCOS-III\Source/os_tmr.c **** 
 925:..\..\..\..\..\..\Software\uCOS-III\Source/os_tmr.c **** 
 926:..\..\..\..\..\..\Software\uCOS-III\Source/os_tmr.c **** /*
 927:..\..\..\..\..\..\Software\uCOS-III\Source/os_tmr.c **** ***************************************************************************************************
 928:..\..\..\..\..\..\Software\uCOS-III\Source/os_tmr.c **** *                                                 CLEAR TIMER FIELDS
 929:..\..\..\..\..\..\Software\uCOS-III\Source/os_tmr.c **** *
 930:..\..\..\..\..\..\Software\uCOS-III\Source/os_tmr.c **** * Description: This function is called to clear all timer fields.
 931:..\..\..\..\..\..\Software\uCOS-III\Source/os_tmr.c **** *
 932:..\..\..\..\..\..\Software\uCOS-III\Source/os_tmr.c **** * Argument(s): p_tmr    Is a pointer to the timer to clear
 933:..\..\..\..\..\..\Software\uCOS-III\Source/os_tmr.c **** *              -----
 934:..\..\..\..\..\..\Software\uCOS-III\Source/os_tmr.c **** *
 935:..\..\..\..\..\..\Software\uCOS-III\Source/os_tmr.c **** * Returns    : none
 936:..\..\..\..\..\..\Software\uCOS-III\Source/os_tmr.c **** *
 937:..\..\..\..\..\..\Software\uCOS-III\Source/os_tmr.c **** * Note(s)    : 1) This function is INTERNAL to uC/OS-III and your application MUST NOT call it.
 938:..\..\..\..\..\..\Software\uCOS-III\Source/os_tmr.c **** ***************************************************************************************************
 939:..\..\..\..\..\..\Software\uCOS-III\Source/os_tmr.c **** */
 940:..\..\..\..\..\..\Software\uCOS-III\Source/os_tmr.c **** 
 941:..\..\..\..\..\..\Software\uCOS-III\Source/os_tmr.c **** void  OS_TmrClr (OS_TMR  *p_tmr)
 942:..\..\..\..\..\..\Software\uCOS-III\Source/os_tmr.c **** {
 1092              		.loc 1 942 0
 1093              		.cfi_startproc
 1094              		@ args = 0, pretend = 0, frame = 8
 1095              		@ frame_needed = 1, uses_anonymous_args = 0
 1096 0000 80B5     		push	{r7, lr}
 1097              		.cfi_def_cfa_offset 8
 1098              		.cfi_offset 7, -8
 1099              		.cfi_offset 14, -4
 1100 0002 82B0     		sub	sp, sp, #8
 1101              		.cfi_def_cfa_offset 16
 1102 0004 00AF     		add	r7, sp, #0
 1103              		.cfi_def_cfa_register 7
ARM GAS  C:\Users\ADMINI~1\AppData\Local\Temp\ccofok6U.s 			page 37


 1104 0006 7860     		str	r0, [r7, #4]
 943:..\..\..\..\..\..\Software\uCOS-III\Source/os_tmr.c ****     p_tmr->State          = OS_TMR_STATE_UNUSED;                /* Clear timer fields              
 1105              		.loc 1 943 0
 1106 0008 7B68     		ldr	r3, [r7, #4]
 1107 000a 2622     		movs	r2, #38
 1108 000c 0021     		movs	r1, #0
 1109 000e 9954     		strb	r1, [r3, r2]
 944:..\..\..\..\..\..\Software\uCOS-III\Source/os_tmr.c **** #if (OS_OBJ_TYPE_REQ == DEF_ENABLED)
 945:..\..\..\..\..\..\Software\uCOS-III\Source/os_tmr.c ****     p_tmr->Type           = OS_OBJ_TYPE_NONE;
 1110              		.loc 1 945 0
 1111 0010 7B68     		ldr	r3, [r7, #4]
 1112 0012 104A     		ldr	r2, .L100
 1113 0014 1A60     		str	r2, [r3]
 946:..\..\..\..\..\..\Software\uCOS-III\Source/os_tmr.c **** #endif
 947:..\..\..\..\..\..\Software\uCOS-III\Source/os_tmr.c **** #if (OS_CFG_DBG_EN == DEF_ENABLED)
 948:..\..\..\..\..\..\Software\uCOS-III\Source/os_tmr.c ****     p_tmr->NamePtr        = (CPU_CHAR *)((void *)"?TMR");
 1114              		.loc 1 948 0
 1115 0016 7B68     		ldr	r3, [r7, #4]
 1116 0018 0F4A     		ldr	r2, .L100+4
 1117 001a 5A60     		str	r2, [r3, #4]
 949:..\..\..\..\..\..\Software\uCOS-III\Source/os_tmr.c **** #endif
 950:..\..\..\..\..\..\Software\uCOS-III\Source/os_tmr.c ****     p_tmr->Dly            = 0u;
 1118              		.loc 1 950 0
 1119 001c 7B68     		ldr	r3, [r7, #4]
 1120 001e 0022     		movs	r2, #0
 1121 0020 DA61     		str	r2, [r3, #28]
 951:..\..\..\..\..\..\Software\uCOS-III\Source/os_tmr.c ****     p_tmr->Remain         = 0u;
 1122              		.loc 1 951 0
 1123 0022 7B68     		ldr	r3, [r7, #4]
 1124 0024 0022     		movs	r2, #0
 1125 0026 9A61     		str	r2, [r3, #24]
 952:..\..\..\..\..\..\Software\uCOS-III\Source/os_tmr.c ****     p_tmr->Period         = 0u;
 1126              		.loc 1 952 0
 1127 0028 7B68     		ldr	r3, [r7, #4]
 1128 002a 0022     		movs	r2, #0
 1129 002c 1A62     		str	r2, [r3, #32]
 953:..\..\..\..\..\..\Software\uCOS-III\Source/os_tmr.c ****     p_tmr->Opt            = 0u;
 1130              		.loc 1 953 0
 1131 002e 7B68     		ldr	r3, [r7, #4]
 1132 0030 0022     		movs	r2, #0
 1133 0032 9A84     		strh	r2, [r3, #36]
 954:..\..\..\..\..\..\Software\uCOS-III\Source/os_tmr.c ****     p_tmr->CallbackPtr    = DEF_NULL;
 1134              		.loc 1 954 0
 1135 0034 7B68     		ldr	r3, [r7, #4]
 1136 0036 0022     		movs	r2, #0
 1137 0038 9A60     		str	r2, [r3, #8]
 955:..\..\..\..\..\..\Software\uCOS-III\Source/os_tmr.c ****     p_tmr->CallbackPtrArg = DEF_NULL;
 1138              		.loc 1 955 0
 1139 003a 7B68     		ldr	r3, [r7, #4]
 1140 003c 0022     		movs	r2, #0
 1141 003e DA60     		str	r2, [r3, #12]
 956:..\..\..\..\..\..\Software\uCOS-III\Source/os_tmr.c ****     p_tmr->NextPtr        = DEF_NULL;
 1142              		.loc 1 956 0
 1143 0040 7B68     		ldr	r3, [r7, #4]
 1144 0042 0022     		movs	r2, #0
 1145 0044 1A61     		str	r2, [r3, #16]
 957:..\..\..\..\..\..\Software\uCOS-III\Source/os_tmr.c ****     p_tmr->PrevPtr        = DEF_NULL;
ARM GAS  C:\Users\ADMINI~1\AppData\Local\Temp\ccofok6U.s 			page 38


 1146              		.loc 1 957 0
 1147 0046 7B68     		ldr	r3, [r7, #4]
 1148 0048 0022     		movs	r2, #0
 1149 004a 5A61     		str	r2, [r3, #20]
 958:..\..\..\..\..\..\Software\uCOS-III\Source/os_tmr.c **** }
 1150              		.loc 1 958 0
 1151 004c C046     		nop
 1152 004e BD46     		mov	sp, r7
 1153 0050 02B0     		add	sp, sp, #8
 1154              		@ sp needed
 1155 0052 80BD     		pop	{r7, pc}
 1156              	.L101:
 1157              		.align	2
 1158              	.L100:
 1159 0054 4E4F4E45 		.word	1162760014
 1160 0058 00000000 		.word	.LC10
 1161              		.cfi_endproc
 1162              	.LFE6:
 1163              		.size	OS_TmrClr, .-OS_TmrClr
 1164              		.section	.text.OS_TmrDbgListAdd,"ax",%progbits
 1165              		.align	2
 1166              		.global	OS_TmrDbgListAdd
 1167              		.code	16
 1168              		.thumb_func
 1169              		.type	OS_TmrDbgListAdd, %function
 1170              	OS_TmrDbgListAdd:
 1171              	.LFB7:
 959:..\..\..\..\..\..\Software\uCOS-III\Source/os_tmr.c **** 
 960:..\..\..\..\..\..\Software\uCOS-III\Source/os_tmr.c **** 
 961:..\..\..\..\..\..\Software\uCOS-III\Source/os_tmr.c **** /*
 962:..\..\..\..\..\..\Software\uCOS-III\Source/os_tmr.c **** ***************************************************************************************************
 963:..\..\..\..\..\..\Software\uCOS-III\Source/os_tmr.c **** *                                         ADD/REMOVE TIMER TO/FROM DEBUG TABLE
 964:..\..\..\..\..\..\Software\uCOS-III\Source/os_tmr.c **** *
 965:..\..\..\..\..\..\Software\uCOS-III\Source/os_tmr.c **** * Description: These functions are called by uC/OS-III to add or remove a timer to/from a timer deb
 966:..\..\..\..\..\..\Software\uCOS-III\Source/os_tmr.c **** *
 967:..\..\..\..\..\..\Software\uCOS-III\Source/os_tmr.c **** * Arguments  : p_tmr     is a pointer to the timer to add/remove
 968:..\..\..\..\..\..\Software\uCOS-III\Source/os_tmr.c **** *
 969:..\..\..\..\..\..\Software\uCOS-III\Source/os_tmr.c **** * Returns    : none
 970:..\..\..\..\..\..\Software\uCOS-III\Source/os_tmr.c **** *
 971:..\..\..\..\..\..\Software\uCOS-III\Source/os_tmr.c **** * Note(s)    : These functions are INTERNAL to uC/OS-III and your application should not call it.
 972:..\..\..\..\..\..\Software\uCOS-III\Source/os_tmr.c **** ***************************************************************************************************
 973:..\..\..\..\..\..\Software\uCOS-III\Source/os_tmr.c **** */
 974:..\..\..\..\..\..\Software\uCOS-III\Source/os_tmr.c **** 
 975:..\..\..\..\..\..\Software\uCOS-III\Source/os_tmr.c **** 
 976:..\..\..\..\..\..\Software\uCOS-III\Source/os_tmr.c **** #if (OS_CFG_DBG_EN == DEF_ENABLED)
 977:..\..\..\..\..\..\Software\uCOS-III\Source/os_tmr.c **** void  OS_TmrDbgListAdd (OS_TMR  *p_tmr)
 978:..\..\..\..\..\..\Software\uCOS-III\Source/os_tmr.c **** {
 1172              		.loc 1 978 0
 1173              		.cfi_startproc
 1174              		@ args = 0, pretend = 0, frame = 8
 1175              		@ frame_needed = 1, uses_anonymous_args = 0
 1176 0000 80B5     		push	{r7, lr}
 1177              		.cfi_def_cfa_offset 8
 1178              		.cfi_offset 7, -8
 1179              		.cfi_offset 14, -4
 1180 0002 82B0     		sub	sp, sp, #8
 1181              		.cfi_def_cfa_offset 16
ARM GAS  C:\Users\ADMINI~1\AppData\Local\Temp\ccofok6U.s 			page 39


 1182 0004 00AF     		add	r7, sp, #0
 1183              		.cfi_def_cfa_register 7
 1184 0006 7860     		str	r0, [r7, #4]
 979:..\..\..\..\..\..\Software\uCOS-III\Source/os_tmr.c ****     p_tmr->DbgPrevPtr               = DEF_NULL;
 1185              		.loc 1 979 0
 1186 0008 7B68     		ldr	r3, [r7, #4]
 1187 000a 0022     		movs	r2, #0
 1188 000c 9A62     		str	r2, [r3, #40]
 980:..\..\..\..\..\..\Software\uCOS-III\Source/os_tmr.c ****     if (OSTmrDbgListPtr == DEF_NULL) {
 1189              		.loc 1 980 0
 1190 000e 0B4B     		ldr	r3, .L105
 1191 0010 1B68     		ldr	r3, [r3]
 1192 0012 002B     		cmp	r3, #0
 1193 0014 03D1     		bne	.L103
 981:..\..\..\..\..\..\Software\uCOS-III\Source/os_tmr.c ****         p_tmr->DbgNextPtr           = DEF_NULL;
 1194              		.loc 1 981 0
 1195 0016 7B68     		ldr	r3, [r7, #4]
 1196 0018 0022     		movs	r2, #0
 1197 001a DA62     		str	r2, [r3, #44]
 1198 001c 07E0     		b	.L104
 1199              	.L103:
 982:..\..\..\..\..\..\Software\uCOS-III\Source/os_tmr.c ****     } else {
 983:..\..\..\..\..\..\Software\uCOS-III\Source/os_tmr.c ****         p_tmr->DbgNextPtr           =  OSTmrDbgListPtr;
 1200              		.loc 1 983 0
 1201 001e 074B     		ldr	r3, .L105
 1202 0020 1A68     		ldr	r2, [r3]
 1203 0022 7B68     		ldr	r3, [r7, #4]
 1204 0024 DA62     		str	r2, [r3, #44]
 984:..\..\..\..\..\..\Software\uCOS-III\Source/os_tmr.c ****         OSTmrDbgListPtr->DbgPrevPtr =  p_tmr;
 1205              		.loc 1 984 0
 1206 0026 054B     		ldr	r3, .L105
 1207 0028 1B68     		ldr	r3, [r3]
 1208 002a 7A68     		ldr	r2, [r7, #4]
 1209 002c 9A62     		str	r2, [r3, #40]
 1210              	.L104:
 985:..\..\..\..\..\..\Software\uCOS-III\Source/os_tmr.c ****     }
 986:..\..\..\..\..\..\Software\uCOS-III\Source/os_tmr.c ****     OSTmrDbgListPtr                 =  p_tmr;
 1211              		.loc 1 986 0
 1212 002e 034B     		ldr	r3, .L105
 1213 0030 7A68     		ldr	r2, [r7, #4]
 1214 0032 1A60     		str	r2, [r3]
 987:..\..\..\..\..\..\Software\uCOS-III\Source/os_tmr.c **** }
 1215              		.loc 1 987 0
 1216 0034 C046     		nop
 1217 0036 BD46     		mov	sp, r7
 1218 0038 02B0     		add	sp, sp, #8
 1219              		@ sp needed
 1220 003a 80BD     		pop	{r7, pc}
 1221              	.L106:
 1222              		.align	2
 1223              	.L105:
 1224 003c 00000000 		.word	OSTmrDbgListPtr
 1225              		.cfi_endproc
 1226              	.LFE7:
 1227              		.size	OS_TmrDbgListAdd, .-OS_TmrDbgListAdd
 1228              		.section	.text.OS_TmrDbgListRemove,"ax",%progbits
 1229              		.align	2
ARM GAS  C:\Users\ADMINI~1\AppData\Local\Temp\ccofok6U.s 			page 40


 1230              		.global	OS_TmrDbgListRemove
 1231              		.code	16
 1232              		.thumb_func
 1233              		.type	OS_TmrDbgListRemove, %function
 1234              	OS_TmrDbgListRemove:
 1235              	.LFB8:
 988:..\..\..\..\..\..\Software\uCOS-III\Source/os_tmr.c **** 
 989:..\..\..\..\..\..\Software\uCOS-III\Source/os_tmr.c **** 
 990:..\..\..\..\..\..\Software\uCOS-III\Source/os_tmr.c **** 
 991:..\..\..\..\..\..\Software\uCOS-III\Source/os_tmr.c **** void  OS_TmrDbgListRemove (OS_TMR  *p_tmr)
 992:..\..\..\..\..\..\Software\uCOS-III\Source/os_tmr.c **** {
 1236              		.loc 1 992 0
 1237              		.cfi_startproc
 1238              		@ args = 0, pretend = 0, frame = 16
 1239              		@ frame_needed = 1, uses_anonymous_args = 0
 1240 0000 80B5     		push	{r7, lr}
 1241              		.cfi_def_cfa_offset 8
 1242              		.cfi_offset 7, -8
 1243              		.cfi_offset 14, -4
 1244 0002 84B0     		sub	sp, sp, #16
 1245              		.cfi_def_cfa_offset 24
 1246 0004 00AF     		add	r7, sp, #0
 1247              		.cfi_def_cfa_register 7
 1248 0006 7860     		str	r0, [r7, #4]
 993:..\..\..\..\..\..\Software\uCOS-III\Source/os_tmr.c ****     OS_TMR  *p_tmr_next;
 994:..\..\..\..\..\..\Software\uCOS-III\Source/os_tmr.c ****     OS_TMR  *p_tmr_prev;
 995:..\..\..\..\..\..\Software\uCOS-III\Source/os_tmr.c **** 
 996:..\..\..\..\..\..\Software\uCOS-III\Source/os_tmr.c **** 
 997:..\..\..\..\..\..\Software\uCOS-III\Source/os_tmr.c ****     p_tmr_prev = p_tmr->DbgPrevPtr;
 1249              		.loc 1 997 0
 1250 0008 7B68     		ldr	r3, [r7, #4]
 1251 000a 9B6A     		ldr	r3, [r3, #40]
 1252 000c FB60     		str	r3, [r7, #12]
 998:..\..\..\..\..\..\Software\uCOS-III\Source/os_tmr.c ****     p_tmr_next = p_tmr->DbgNextPtr;
 1253              		.loc 1 998 0
 1254 000e 7B68     		ldr	r3, [r7, #4]
 1255 0010 DB6A     		ldr	r3, [r3, #44]
 1256 0012 BB60     		str	r3, [r7, #8]
 999:..\..\..\..\..\..\Software\uCOS-III\Source/os_tmr.c **** 
1000:..\..\..\..\..\..\Software\uCOS-III\Source/os_tmr.c ****     if (p_tmr_prev == DEF_NULL) {
 1257              		.loc 1 1000 0
 1258 0014 FB68     		ldr	r3, [r7, #12]
 1259 0016 002B     		cmp	r3, #0
 1260 0018 0CD1     		bne	.L108
1001:..\..\..\..\..\..\Software\uCOS-III\Source/os_tmr.c ****         OSTmrDbgListPtr = p_tmr_next;
 1261              		.loc 1 1001 0
 1262 001a 134B     		ldr	r3, .L113
 1263 001c BA68     		ldr	r2, [r7, #8]
 1264 001e 1A60     		str	r2, [r3]
1002:..\..\..\..\..\..\Software\uCOS-III\Source/os_tmr.c ****         if (p_tmr_next != DEF_NULL) {
 1265              		.loc 1 1002 0
 1266 0020 BB68     		ldr	r3, [r7, #8]
 1267 0022 002B     		cmp	r3, #0
 1268 0024 02D0     		beq	.L109
1003:..\..\..\..\..\..\Software\uCOS-III\Source/os_tmr.c ****             p_tmr_next->DbgPrevPtr = DEF_NULL;
 1269              		.loc 1 1003 0
 1270 0026 BB68     		ldr	r3, [r7, #8]
ARM GAS  C:\Users\ADMINI~1\AppData\Local\Temp\ccofok6U.s 			page 41


 1271 0028 0022     		movs	r2, #0
 1272 002a 9A62     		str	r2, [r3, #40]
 1273              	.L109:
1004:..\..\..\..\..\..\Software\uCOS-III\Source/os_tmr.c ****         }
1005:..\..\..\..\..\..\Software\uCOS-III\Source/os_tmr.c ****         p_tmr->DbgNextPtr = DEF_NULL;
 1274              		.loc 1 1005 0
 1275 002c 7B68     		ldr	r3, [r7, #4]
 1276 002e 0022     		movs	r2, #0
 1277 0030 DA62     		str	r2, [r3, #44]
1006:..\..\..\..\..\..\Software\uCOS-III\Source/os_tmr.c **** 
1007:..\..\..\..\..\..\Software\uCOS-III\Source/os_tmr.c ****     } else if (p_tmr_next == DEF_NULL) {
1008:..\..\..\..\..\..\Software\uCOS-III\Source/os_tmr.c ****         p_tmr_prev->DbgNextPtr = DEF_NULL;
1009:..\..\..\..\..\..\Software\uCOS-III\Source/os_tmr.c ****         p_tmr->DbgPrevPtr      = DEF_NULL;
1010:..\..\..\..\..\..\Software\uCOS-III\Source/os_tmr.c **** 
1011:..\..\..\..\..\..\Software\uCOS-III\Source/os_tmr.c ****     } else {
1012:..\..\..\..\..\..\Software\uCOS-III\Source/os_tmr.c ****         p_tmr_prev->DbgNextPtr = p_tmr_next;
1013:..\..\..\..\..\..\Software\uCOS-III\Source/os_tmr.c ****         p_tmr_next->DbgPrevPtr = p_tmr_prev;
1014:..\..\..\..\..\..\Software\uCOS-III\Source/os_tmr.c ****         p_tmr->DbgNextPtr      = DEF_NULL;
1015:..\..\..\..\..\..\Software\uCOS-III\Source/os_tmr.c ****         p_tmr->DbgPrevPtr      = DEF_NULL;
1016:..\..\..\..\..\..\Software\uCOS-III\Source/os_tmr.c ****     }
1017:..\..\..\..\..\..\Software\uCOS-III\Source/os_tmr.c **** }
 1278              		.loc 1 1017 0
 1279 0032 15E0     		b	.L112
 1280              	.L108:
1007:..\..\..\..\..\..\Software\uCOS-III\Source/os_tmr.c ****         p_tmr_prev->DbgNextPtr = DEF_NULL;
 1281              		.loc 1 1007 0
 1282 0034 BB68     		ldr	r3, [r7, #8]
 1283 0036 002B     		cmp	r3, #0
 1284 0038 06D1     		bne	.L111
1008:..\..\..\..\..\..\Software\uCOS-III\Source/os_tmr.c ****         p_tmr->DbgPrevPtr      = DEF_NULL;
 1285              		.loc 1 1008 0
 1286 003a FB68     		ldr	r3, [r7, #12]
 1287 003c 0022     		movs	r2, #0
 1288 003e DA62     		str	r2, [r3, #44]
1009:..\..\..\..\..\..\Software\uCOS-III\Source/os_tmr.c **** 
 1289              		.loc 1 1009 0
 1290 0040 7B68     		ldr	r3, [r7, #4]
 1291 0042 0022     		movs	r2, #0
 1292 0044 9A62     		str	r2, [r3, #40]
 1293              		.loc 1 1017 0
 1294 0046 0BE0     		b	.L112
 1295              	.L111:
1012:..\..\..\..\..\..\Software\uCOS-III\Source/os_tmr.c ****         p_tmr_next->DbgPrevPtr = p_tmr_prev;
 1296              		.loc 1 1012 0
 1297 0048 FB68     		ldr	r3, [r7, #12]
 1298 004a BA68     		ldr	r2, [r7, #8]
 1299 004c DA62     		str	r2, [r3, #44]
1013:..\..\..\..\..\..\Software\uCOS-III\Source/os_tmr.c ****         p_tmr->DbgNextPtr      = DEF_NULL;
 1300              		.loc 1 1013 0
 1301 004e BB68     		ldr	r3, [r7, #8]
 1302 0050 FA68     		ldr	r2, [r7, #12]
 1303 0052 9A62     		str	r2, [r3, #40]
1014:..\..\..\..\..\..\Software\uCOS-III\Source/os_tmr.c ****         p_tmr->DbgPrevPtr      = DEF_NULL;
 1304              		.loc 1 1014 0
 1305 0054 7B68     		ldr	r3, [r7, #4]
 1306 0056 0022     		movs	r2, #0
 1307 0058 DA62     		str	r2, [r3, #44]
ARM GAS  C:\Users\ADMINI~1\AppData\Local\Temp\ccofok6U.s 			page 42


1015:..\..\..\..\..\..\Software\uCOS-III\Source/os_tmr.c ****     }
 1308              		.loc 1 1015 0
 1309 005a 7B68     		ldr	r3, [r7, #4]
 1310 005c 0022     		movs	r2, #0
 1311 005e 9A62     		str	r2, [r3, #40]
 1312              	.L112:
 1313              		.loc 1 1017 0
 1314 0060 C046     		nop
 1315 0062 BD46     		mov	sp, r7
 1316 0064 04B0     		add	sp, sp, #16
 1317              		@ sp needed
 1318 0066 80BD     		pop	{r7, pc}
 1319              	.L114:
 1320              		.align	2
 1321              	.L113:
 1322 0068 00000000 		.word	OSTmrDbgListPtr
 1323              		.cfi_endproc
 1324              	.LFE8:
 1325              		.size	OS_TmrDbgListRemove, .-OS_TmrDbgListRemove
 1326              		.global	__aeabi_uidiv
 1327              		.section	.rodata
 1328 0005 000000   		.align	2
 1329              	.LC23:
 1330 0008 4F532054 		.ascii	"OS Tmr Mutex\000"
 1330      6D72204D 
 1330      75746578 
 1330      00
 1331 0015 000000   		.align	2
 1332              	.LC32:
 1333 0018 75432F4F 		.ascii	"uC/OS-III Timer Task\000"
 1333      532D4949 
 1333      49205469 
 1333      6D657220 
 1333      5461736B 
 1334              		.section	.text.OS_TmrInit,"ax",%progbits
 1335              		.align	2
 1336              		.global	OS_TmrInit
 1337              		.code	16
 1338              		.thumb_func
 1339              		.type	OS_TmrInit, %function
 1340              	OS_TmrInit:
 1341              	.LFB9:
1018:..\..\..\..\..\..\Software\uCOS-III\Source/os_tmr.c **** #endif
1019:..\..\..\..\..\..\Software\uCOS-III\Source/os_tmr.c **** 
1020:..\..\..\..\..\..\Software\uCOS-III\Source/os_tmr.c **** 
1021:..\..\..\..\..\..\Software\uCOS-III\Source/os_tmr.c **** /*
1022:..\..\..\..\..\..\Software\uCOS-III\Source/os_tmr.c **** ***************************************************************************************************
1023:..\..\..\..\..\..\Software\uCOS-III\Source/os_tmr.c **** *                                             INITIALIZE THE TIMER MANAGER
1024:..\..\..\..\..\..\Software\uCOS-III\Source/os_tmr.c **** *
1025:..\..\..\..\..\..\Software\uCOS-III\Source/os_tmr.c **** * Description: This function is called by OSInit() to initialize the timer manager module.
1026:..\..\..\..\..\..\Software\uCOS-III\Source/os_tmr.c **** *
1027:..\..\..\..\..\..\Software\uCOS-III\Source/os_tmr.c **** * Argument(s): p_err    is a pointer to a variable that will contain an error code returned by this
1028:..\..\..\..\..\..\Software\uCOS-III\Source/os_tmr.c **** *
1029:..\..\..\..\..\..\Software\uCOS-III\Source/os_tmr.c **** *                           OS_ERR_NONE
1030:..\..\..\..\..\..\Software\uCOS-III\Source/os_tmr.c **** *                           OS_ERR_TMR_STK_INVALID       if you didn't specify a stack for the time
1031:..\..\..\..\..\..\Software\uCOS-III\Source/os_tmr.c **** *                           OS_ERR_TMR_STK_SIZE_INVALID  if you didn't allocate enough space for th
1032:..\..\..\..\..\..\Software\uCOS-III\Source/os_tmr.c **** *                           OS_ERR_PRIO_INVALID          if you specified the same priority as the 
ARM GAS  C:\Users\ADMINI~1\AppData\Local\Temp\ccofok6U.s 			page 43


1033:..\..\..\..\..\..\Software\uCOS-III\Source/os_tmr.c **** *                           OS_ERR_xxx                   any error code returned by OSTaskCreate()
1034:..\..\..\..\..\..\Software\uCOS-III\Source/os_tmr.c **** *
1035:..\..\..\..\..\..\Software\uCOS-III\Source/os_tmr.c **** * Returns    : none
1036:..\..\..\..\..\..\Software\uCOS-III\Source/os_tmr.c **** *
1037:..\..\..\..\..\..\Software\uCOS-III\Source/os_tmr.c **** * Note(s)    : 1) This function is INTERNAL to uC/OS-III and your application MUST NOT call it.
1038:..\..\..\..\..\..\Software\uCOS-III\Source/os_tmr.c **** ***************************************************************************************************
1039:..\..\..\..\..\..\Software\uCOS-III\Source/os_tmr.c **** */
1040:..\..\..\..\..\..\Software\uCOS-III\Source/os_tmr.c **** 
1041:..\..\..\..\..\..\Software\uCOS-III\Source/os_tmr.c **** void  OS_TmrInit (OS_ERR  *p_err)
1042:..\..\..\..\..\..\Software\uCOS-III\Source/os_tmr.c **** {
 1342              		.loc 1 1042 0
 1343              		.cfi_startproc
 1344              		@ args = 0, pretend = 0, frame = 8
 1345              		@ frame_needed = 1, uses_anonymous_args = 0
 1346 0000 F0B5     		push	{r4, r5, r6, r7, lr}
 1347              		.cfi_def_cfa_offset 20
 1348              		.cfi_offset 4, -20
 1349              		.cfi_offset 5, -16
 1350              		.cfi_offset 6, -12
 1351              		.cfi_offset 7, -8
 1352              		.cfi_offset 14, -4
 1353 0002 8DB0     		sub	sp, sp, #52
 1354              		.cfi_def_cfa_offset 72
 1355 0004 0AAF     		add	r7, sp, #40
 1356              		.cfi_def_cfa 7, 32
 1357 0006 7860     		str	r0, [r7, #4]
1043:..\..\..\..\..\..\Software\uCOS-III\Source/os_tmr.c **** #if (OS_CFG_DBG_EN == DEF_ENABLED)
1044:..\..\..\..\..\..\Software\uCOS-III\Source/os_tmr.c ****     OSTmrDbgListPtr = DEF_NULL;
 1358              		.loc 1 1044 0
 1359 0008 3B4B     		ldr	r3, .L124
 1360 000a 0022     		movs	r2, #0
 1361 000c 1A60     		str	r2, [r3]
1045:..\..\..\..\..\..\Software\uCOS-III\Source/os_tmr.c **** #endif
1046:..\..\..\..\..\..\Software\uCOS-III\Source/os_tmr.c **** 
1047:..\..\..\..\..\..\Software\uCOS-III\Source/os_tmr.c ****     OSTmrListPtr        = DEF_NULL;                             /* Create an empty timer list      
 1362              		.loc 1 1047 0
 1363 000e 3B4B     		ldr	r3, .L124+4
 1364 0010 0022     		movs	r2, #0
 1365 0012 1A60     		str	r2, [r3]
1048:..\..\..\..\..\..\Software\uCOS-III\Source/os_tmr.c **** #if (OS_CFG_DBG_EN == DEF_ENABLED)
1049:..\..\..\..\..\..\Software\uCOS-III\Source/os_tmr.c ****     OSTmrListEntries    = 0u;
 1366              		.loc 1 1049 0
 1367 0014 3A4B     		ldr	r3, .L124+8
 1368 0016 0022     		movs	r2, #0
 1369 0018 1A80     		strh	r2, [r3]
1050:..\..\..\..\..\..\Software\uCOS-III\Source/os_tmr.c **** #endif
1051:..\..\..\..\..\..\Software\uCOS-III\Source/os_tmr.c **** 
1052:..\..\..\..\..\..\Software\uCOS-III\Source/os_tmr.c ****     if (OSCfg_TmrTaskRate_Hz > 0u) {
 1370              		.loc 1 1052 0
 1371 001a 3A4B     		ldr	r3, .L124+12
 1372 001c 1B68     		ldr	r3, [r3]
 1373 001e 002B     		cmp	r3, #0
 1374 0020 0CD0     		beq	.L116
1053:..\..\..\..\..\..\Software\uCOS-III\Source/os_tmr.c ****         OSTmrUpdateCnt  = OSCfg_TickRate_Hz / OSCfg_TmrTaskRate_Hz;
 1375              		.loc 1 1053 0
 1376 0022 394B     		ldr	r3, .L124+16
 1377 0024 1A68     		ldr	r2, [r3]
ARM GAS  C:\Users\ADMINI~1\AppData\Local\Temp\ccofok6U.s 			page 44


 1378 0026 374B     		ldr	r3, .L124+12
 1379 0028 1B68     		ldr	r3, [r3]
 1380 002a 1900     		movs	r1, r3
 1381 002c 1000     		movs	r0, r2
 1382 002e FFF7FEFF 		bl	__aeabi_uidiv
 1383 0032 0300     		movs	r3, r0
 1384 0034 1A00     		movs	r2, r3
 1385 0036 354B     		ldr	r3, .L124+20
 1386 0038 1A60     		str	r2, [r3]
 1387 003a 09E0     		b	.L117
 1388              	.L116:
1054:..\..\..\..\..\..\Software\uCOS-III\Source/os_tmr.c ****     } else {
1055:..\..\..\..\..\..\Software\uCOS-III\Source/os_tmr.c ****         OSTmrUpdateCnt  = OSCfg_TickRate_Hz / 10u;
 1389              		.loc 1 1055 0
 1390 003c 324B     		ldr	r3, .L124+16
 1391 003e 1B68     		ldr	r3, [r3]
 1392 0040 0A21     		movs	r1, #10
 1393 0042 1800     		movs	r0, r3
 1394 0044 FFF7FEFF 		bl	__aeabi_uidiv
 1395 0048 0300     		movs	r3, r0
 1396 004a 1A00     		movs	r2, r3
 1397 004c 2F4B     		ldr	r3, .L124+20
 1398 004e 1A60     		str	r2, [r3]
 1399              	.L117:
1056:..\..\..\..\..\..\Software\uCOS-III\Source/os_tmr.c ****     }
1057:..\..\..\..\..\..\Software\uCOS-III\Source/os_tmr.c ****     OSTmrUpdateCtr      = OSTmrUpdateCnt;
 1400              		.loc 1 1057 0
 1401 0050 2E4B     		ldr	r3, .L124+20
 1402 0052 1A68     		ldr	r2, [r3]
 1403 0054 2E4B     		ldr	r3, .L124+24
 1404 0056 1A60     		str	r2, [r3]
1058:..\..\..\..\..\..\Software\uCOS-III\Source/os_tmr.c **** 
1059:..\..\..\..\..\..\Software\uCOS-III\Source/os_tmr.c ****     OSTmrTickCtr        = 0u;
 1405              		.loc 1 1059 0
 1406 0058 2E4B     		ldr	r3, .L124+28
 1407 005a 0022     		movs	r2, #0
 1408 005c 1A60     		str	r2, [r3]
1060:..\..\..\..\..\..\Software\uCOS-III\Source/os_tmr.c **** 
1061:..\..\..\..\..\..\Software\uCOS-III\Source/os_tmr.c **** #if (OS_CFG_TS_EN == DEF_ENABLED)
1062:..\..\..\..\..\..\Software\uCOS-III\Source/os_tmr.c ****     OSTmrTaskTimeMax    = 0u;
 1409              		.loc 1 1062 0
 1410 005e 2E4B     		ldr	r3, .L124+32
 1411 0060 0022     		movs	r2, #0
 1412 0062 1A60     		str	r2, [r3]
1063:..\..\..\..\..\..\Software\uCOS-III\Source/os_tmr.c **** #endif
1064:..\..\..\..\..\..\Software\uCOS-III\Source/os_tmr.c **** 
1065:..\..\..\..\..\..\Software\uCOS-III\Source/os_tmr.c **** #if (OS_CFG_MUTEX_EN == DEF_ENABLED)
1066:..\..\..\..\..\..\Software\uCOS-III\Source/os_tmr.c ****     OSMutexCreate(&OSTmrMutex,                                  /* Use a mutex to protect the timer
 1413              		.loc 1 1066 0
 1414 0064 7A68     		ldr	r2, [r7, #4]
 1415 0066 2D49     		ldr	r1, .L124+36
 1416 0068 2D4B     		ldr	r3, .L124+40
 1417 006a 1800     		movs	r0, r3
 1418 006c FFF7FEFF 		bl	OSMutexCreate
1067:..\..\..\..\..\..\Software\uCOS-III\Source/os_tmr.c ****                   (CPU_CHAR *)"OS Tmr Mutex", 
1068:..\..\..\..\..\..\Software\uCOS-III\Source/os_tmr.c ****                   p_err);
1069:..\..\..\..\..\..\Software\uCOS-III\Source/os_tmr.c ****     if (*p_err != OS_ERR_NONE) {
ARM GAS  C:\Users\ADMINI~1\AppData\Local\Temp\ccofok6U.s 			page 45


 1419              		.loc 1 1069 0
 1420 0070 7B68     		ldr	r3, [r7, #4]
 1421 0072 1B88     		ldrh	r3, [r3]
 1422 0074 002B     		cmp	r3, #0
 1423 0076 3AD1     		bne	.L123
1070:..\..\..\..\..\..\Software\uCOS-III\Source/os_tmr.c ****         return;
1071:..\..\..\..\..\..\Software\uCOS-III\Source/os_tmr.c ****     }
1072:..\..\..\..\..\..\Software\uCOS-III\Source/os_tmr.c **** #endif
1073:..\..\..\..\..\..\Software\uCOS-III\Source/os_tmr.c **** 
1074:..\..\..\..\..\..\Software\uCOS-III\Source/os_tmr.c ****                                                                 /* -------------- CREATE THE TIMER 
1075:..\..\..\..\..\..\Software\uCOS-III\Source/os_tmr.c ****     if (OSCfg_TmrTaskStkBasePtr == DEF_NULL) {
 1424              		.loc 1 1075 0
 1425 0078 2A4B     		ldr	r3, .L124+44
 1426 007a 1B68     		ldr	r3, [r3]
 1427 007c 002B     		cmp	r3, #0
 1428 007e 03D1     		bne	.L120
1076:..\..\..\..\..\..\Software\uCOS-III\Source/os_tmr.c ****        *p_err = OS_ERR_TMR_STK_INVALID;
 1429              		.loc 1 1076 0
 1430 0080 7B68     		ldr	r3, [r7, #4]
 1431 0082 294A     		ldr	r2, .L124+48
 1432 0084 1A80     		strh	r2, [r3]
1077:..\..\..\..\..\..\Software\uCOS-III\Source/os_tmr.c ****         return;
 1433              		.loc 1 1077 0
 1434 0086 33E0     		b	.L115
 1435              	.L120:
1078:..\..\..\..\..\..\Software\uCOS-III\Source/os_tmr.c ****     }
1079:..\..\..\..\..\..\Software\uCOS-III\Source/os_tmr.c **** 
1080:..\..\..\..\..\..\Software\uCOS-III\Source/os_tmr.c ****     if (OSCfg_TmrTaskStkSize < OSCfg_StkSizeMin) {
 1436              		.loc 1 1080 0
 1437 0088 284B     		ldr	r3, .L124+52
 1438 008a 1A68     		ldr	r2, [r3]
 1439 008c 284B     		ldr	r3, .L124+56
 1440 008e 1B68     		ldr	r3, [r3]
 1441 0090 9A42     		cmp	r2, r3
 1442 0092 03D2     		bcs	.L121
1081:..\..\..\..\..\..\Software\uCOS-III\Source/os_tmr.c ****        *p_err = OS_ERR_TMR_STK_SIZE_INVALID;
 1443              		.loc 1 1081 0
 1444 0094 7B68     		ldr	r3, [r7, #4]
 1445 0096 274A     		ldr	r2, .L124+60
 1446 0098 1A80     		strh	r2, [r3]
1082:..\..\..\..\..\..\Software\uCOS-III\Source/os_tmr.c ****         return;
 1447              		.loc 1 1082 0
 1448 009a 29E0     		b	.L115
 1449              	.L121:
1083:..\..\..\..\..\..\Software\uCOS-III\Source/os_tmr.c ****     }
1084:..\..\..\..\..\..\Software\uCOS-III\Source/os_tmr.c **** 
1085:..\..\..\..\..\..\Software\uCOS-III\Source/os_tmr.c ****     if (OSCfg_TmrTaskPrio >= (OS_CFG_PRIO_MAX - 1u)) {
 1450              		.loc 1 1085 0
 1451 009c 264B     		ldr	r3, .L124+64
 1452 009e 1B78     		ldrb	r3, [r3]
 1453 00a0 1E2B     		cmp	r3, #30
 1454 00a2 03D9     		bls	.L122
1086:..\..\..\..\..\..\Software\uCOS-III\Source/os_tmr.c ****        *p_err = OS_ERR_TMR_PRIO_INVALID;
 1455              		.loc 1 1086 0
 1456 00a4 7B68     		ldr	r3, [r7, #4]
 1457 00a6 254A     		ldr	r2, .L124+68
 1458 00a8 1A80     		strh	r2, [r3]
ARM GAS  C:\Users\ADMINI~1\AppData\Local\Temp\ccofok6U.s 			page 46


1087:..\..\..\..\..\..\Software\uCOS-III\Source/os_tmr.c ****         return;
 1459              		.loc 1 1087 0
 1460 00aa 21E0     		b	.L115
 1461              	.L122:
1088:..\..\..\..\..\..\Software\uCOS-III\Source/os_tmr.c ****     }
1089:..\..\..\..\..\..\Software\uCOS-III\Source/os_tmr.c **** 
1090:..\..\..\..\..\..\Software\uCOS-III\Source/os_tmr.c ****     OSTaskCreate(&OSTmrTaskTCB,
 1462              		.loc 1 1090 0
 1463 00ac 224B     		ldr	r3, .L124+64
 1464 00ae 1A78     		ldrb	r2, [r3]
 1465 00b0 1C4B     		ldr	r3, .L124+44
 1466 00b2 1968     		ldr	r1, [r3]
 1467 00b4 224B     		ldr	r3, .L124+72
 1468 00b6 1868     		ldr	r0, [r3]
 1469 00b8 1C4B     		ldr	r3, .L124+52
 1470 00ba 1B68     		ldr	r3, [r3]
 1471 00bc 214C     		ldr	r4, .L124+76
 1472 00be A446     		mov	ip, r4
 1473 00c0 214E     		ldr	r6, .L124+80
 1474 00c2 224D     		ldr	r5, .L124+84
 1475 00c4 7C68     		ldr	r4, [r7, #4]
 1476 00c6 0894     		str	r4, [sp, #32]
 1477 00c8 0B24     		movs	r4, #11
 1478 00ca 0794     		str	r4, [sp, #28]
 1479 00cc 0024     		movs	r4, #0
 1480 00ce 0694     		str	r4, [sp, #24]
 1481 00d0 0024     		movs	r4, #0
 1482 00d2 0594     		str	r4, [sp, #20]
 1483 00d4 0024     		movs	r4, #0
 1484 00d6 0494     		str	r4, [sp, #16]
 1485 00d8 0393     		str	r3, [sp, #12]
 1486 00da 0290     		str	r0, [sp, #8]
 1487 00dc 0191     		str	r1, [sp, #4]
 1488 00de 0092     		str	r2, [sp]
 1489 00e0 0023     		movs	r3, #0
 1490 00e2 6246     		mov	r2, ip
 1491 00e4 3100     		movs	r1, r6
 1492 00e6 2800     		movs	r0, r5
 1493 00e8 FFF7FEFF 		bl	OSTaskCreate
 1494 00ec 00E0     		b	.L115
 1495              	.L123:
1070:..\..\..\..\..\..\Software\uCOS-III\Source/os_tmr.c ****     }
 1496              		.loc 1 1070 0
 1497 00ee C046     		nop
 1498              	.L115:
1091:..\..\..\..\..\..\Software\uCOS-III\Source/os_tmr.c ****                  (CPU_CHAR   *)((void *)"uC/OS-III Timer Task"),
1092:..\..\..\..\..\..\Software\uCOS-III\Source/os_tmr.c ****                  OS_TmrTask,
1093:..\..\..\..\..\..\Software\uCOS-III\Source/os_tmr.c ****                  DEF_NULL,
1094:..\..\..\..\..\..\Software\uCOS-III\Source/os_tmr.c ****                  OSCfg_TmrTaskPrio,
1095:..\..\..\..\..\..\Software\uCOS-III\Source/os_tmr.c ****                  OSCfg_TmrTaskStkBasePtr,
1096:..\..\..\..\..\..\Software\uCOS-III\Source/os_tmr.c ****                  OSCfg_TmrTaskStkLimit,
1097:..\..\..\..\..\..\Software\uCOS-III\Source/os_tmr.c ****                  OSCfg_TmrTaskStkSize,
1098:..\..\..\..\..\..\Software\uCOS-III\Source/os_tmr.c ****                  0u,
1099:..\..\..\..\..\..\Software\uCOS-III\Source/os_tmr.c ****                  0u,
1100:..\..\..\..\..\..\Software\uCOS-III\Source/os_tmr.c ****                  DEF_NULL,
1101:..\..\..\..\..\..\Software\uCOS-III\Source/os_tmr.c ****                  (OS_OPT_TASK_STK_CHK | OS_OPT_TASK_STK_CLR | OS_OPT_TASK_NO_TLS),
1102:..\..\..\..\..\..\Software\uCOS-III\Source/os_tmr.c ****                  p_err);
ARM GAS  C:\Users\ADMINI~1\AppData\Local\Temp\ccofok6U.s 			page 47


1103:..\..\..\..\..\..\Software\uCOS-III\Source/os_tmr.c **** }
 1499              		.loc 1 1103 0
 1500 00f0 BD46     		mov	sp, r7
 1501 00f2 03B0     		add	sp, sp, #12
 1502              		@ sp needed
 1503 00f4 F0BD     		pop	{r4, r5, r6, r7, pc}
 1504              	.L125:
 1505 00f6 C046     		.align	2
 1506              	.L124:
 1507 00f8 00000000 		.word	OSTmrDbgListPtr
 1508 00fc 00000000 		.word	OSTmrListPtr
 1509 0100 00000000 		.word	OSTmrListEntries
 1510 0104 00000000 		.word	OSCfg_TmrTaskRate_Hz
 1511 0108 00000000 		.word	OSCfg_TickRate_Hz
 1512 010c 00000000 		.word	OSTmrUpdateCnt
 1513 0110 00000000 		.word	OSTmrUpdateCtr
 1514 0114 00000000 		.word	OSTmrTickCtr
 1515 0118 00000000 		.word	OSTmrTaskTimeMax
 1516 011c 08000000 		.word	.LC23
 1517 0120 00000000 		.word	OSTmrMutex
 1518 0124 00000000 		.word	OSCfg_TmrTaskStkBasePtr
 1519 0128 47730000 		.word	29511
 1520 012c 00000000 		.word	OSCfg_TmrTaskStkSize
 1521 0130 00000000 		.word	OSCfg_StkSizeMin
 1522 0134 48730000 		.word	29512
 1523 0138 00000000 		.word	OSCfg_TmrTaskPrio
 1524 013c 46730000 		.word	29510
 1525 0140 00000000 		.word	OSCfg_TmrTaskStkLimit
 1526 0144 00000000 		.word	OS_TmrTask
 1527 0148 18000000 		.word	.LC32
 1528 014c 00000000 		.word	OSTmrTaskTCB
 1529              		.cfi_endproc
 1530              	.LFE9:
 1531              		.size	OS_TmrInit, .-OS_TmrInit
 1532              		.section	.text.OS_TmrUnlink,"ax",%progbits
 1533              		.align	2
 1534              		.global	OS_TmrUnlink
 1535              		.code	16
 1536              		.thumb_func
 1537              		.type	OS_TmrUnlink, %function
 1538              	OS_TmrUnlink:
 1539              	.LFB10:
1104:..\..\..\..\..\..\Software\uCOS-III\Source/os_tmr.c **** 
1105:..\..\..\..\..\..\Software\uCOS-III\Source/os_tmr.c **** 
1106:..\..\..\..\..\..\Software\uCOS-III\Source/os_tmr.c **** /*
1107:..\..\..\..\..\..\Software\uCOS-III\Source/os_tmr.c **** ***************************************************************************************************
1108:..\..\..\..\..\..\Software\uCOS-III\Source/os_tmr.c **** *                                         REMOVE A TIMER FROM THE TIMER LIST
1109:..\..\..\..\..\..\Software\uCOS-III\Source/os_tmr.c **** *
1110:..\..\..\..\..\..\Software\uCOS-III\Source/os_tmr.c **** * Description: This function is called to remove the timer from the timer list.
1111:..\..\..\..\..\..\Software\uCOS-III\Source/os_tmr.c **** *
1112:..\..\..\..\..\..\Software\uCOS-III\Source/os_tmr.c **** * Arguments  : p_tmr          Is a pointer to the timer to remove.
1113:..\..\..\..\..\..\Software\uCOS-III\Source/os_tmr.c **** *              -----
1114:..\..\..\..\..\..\Software\uCOS-III\Source/os_tmr.c **** *
1115:..\..\..\..\..\..\Software\uCOS-III\Source/os_tmr.c **** * Returns    : none
1116:..\..\..\..\..\..\Software\uCOS-III\Source/os_tmr.c **** *
1117:..\..\..\..\..\..\Software\uCOS-III\Source/os_tmr.c **** * Note(s)    : 1) This function is INTERNAL to uC/OS-III and your application MUST NOT call it.
1118:..\..\..\..\..\..\Software\uCOS-III\Source/os_tmr.c **** ***************************************************************************************************
ARM GAS  C:\Users\ADMINI~1\AppData\Local\Temp\ccofok6U.s 			page 48


1119:..\..\..\..\..\..\Software\uCOS-III\Source/os_tmr.c **** */
1120:..\..\..\..\..\..\Software\uCOS-III\Source/os_tmr.c **** 
1121:..\..\..\..\..\..\Software\uCOS-III\Source/os_tmr.c **** void  OS_TmrUnlink (OS_TMR  *p_tmr)
1122:..\..\..\..\..\..\Software\uCOS-III\Source/os_tmr.c **** {
 1540              		.loc 1 1122 0
 1541              		.cfi_startproc
 1542              		@ args = 0, pretend = 0, frame = 16
 1543              		@ frame_needed = 1, uses_anonymous_args = 0
 1544 0000 80B5     		push	{r7, lr}
 1545              		.cfi_def_cfa_offset 8
 1546              		.cfi_offset 7, -8
 1547              		.cfi_offset 14, -4
 1548 0002 84B0     		sub	sp, sp, #16
 1549              		.cfi_def_cfa_offset 24
 1550 0004 00AF     		add	r7, sp, #0
 1551              		.cfi_def_cfa_register 7
 1552 0006 7860     		str	r0, [r7, #4]
1123:..\..\..\..\..\..\Software\uCOS-III\Source/os_tmr.c ****     OS_TMR  *p_tmr1;
1124:..\..\..\..\..\..\Software\uCOS-III\Source/os_tmr.c ****     OS_TMR  *p_tmr2;
1125:..\..\..\..\..\..\Software\uCOS-III\Source/os_tmr.c **** 
1126:..\..\..\..\..\..\Software\uCOS-III\Source/os_tmr.c **** 
1127:..\..\..\..\..\..\Software\uCOS-III\Source/os_tmr.c ****     if (OSTmrListPtr == p_tmr) {                                /* See if timer to remove is at the
 1553              		.loc 1 1127 0
 1554 0008 1A4B     		ldr	r3, .L130
 1555 000a 1A68     		ldr	r2, [r3]
 1556 000c 7B68     		ldr	r3, [r7, #4]
 1557 000e 9A42     		cmp	r2, r3
 1558 0010 0CD1     		bne	.L127
1128:..\..\..\..\..\..\Software\uCOS-III\Source/os_tmr.c ****         p_tmr1       = p_tmr->NextPtr;
 1559              		.loc 1 1128 0
 1560 0012 7B68     		ldr	r3, [r7, #4]
 1561 0014 1B69     		ldr	r3, [r3, #16]
 1562 0016 FB60     		str	r3, [r7, #12]
1129:..\..\..\..\..\..\Software\uCOS-III\Source/os_tmr.c ****         OSTmrListPtr = p_tmr1;
 1563              		.loc 1 1129 0
 1564 0018 164B     		ldr	r3, .L130
 1565 001a FA68     		ldr	r2, [r7, #12]
 1566 001c 1A60     		str	r2, [r3]
1130:..\..\..\..\..\..\Software\uCOS-III\Source/os_tmr.c ****         if (p_tmr1 != DEF_NULL) {
 1567              		.loc 1 1130 0
 1568 001e FB68     		ldr	r3, [r7, #12]
 1569 0020 002B     		cmp	r3, #0
 1570 0022 12D0     		beq	.L129
1131:..\..\..\..\..\..\Software\uCOS-III\Source/os_tmr.c ****             p_tmr1->PrevPtr = DEF_NULL;
 1571              		.loc 1 1131 0
 1572 0024 FB68     		ldr	r3, [r7, #12]
 1573 0026 0022     		movs	r2, #0
 1574 0028 5A61     		str	r2, [r3, #20]
 1575 002a 0EE0     		b	.L129
 1576              	.L127:
1132:..\..\..\..\..\..\Software\uCOS-III\Source/os_tmr.c ****         }
1133:..\..\..\..\..\..\Software\uCOS-III\Source/os_tmr.c ****     } else {
1134:..\..\..\..\..\..\Software\uCOS-III\Source/os_tmr.c ****         p_tmr1          = p_tmr->PrevPtr;                       /* Remove timer from somewhere in t
 1577              		.loc 1 1134 0
 1578 002c 7B68     		ldr	r3, [r7, #4]
 1579 002e 5B69     		ldr	r3, [r3, #20]
 1580 0030 FB60     		str	r3, [r7, #12]
ARM GAS  C:\Users\ADMINI~1\AppData\Local\Temp\ccofok6U.s 			page 49


1135:..\..\..\..\..\..\Software\uCOS-III\Source/os_tmr.c ****         p_tmr2          = p_tmr->NextPtr;
 1581              		.loc 1 1135 0
 1582 0032 7B68     		ldr	r3, [r7, #4]
 1583 0034 1B69     		ldr	r3, [r3, #16]
 1584 0036 BB60     		str	r3, [r7, #8]
1136:..\..\..\..\..\..\Software\uCOS-III\Source/os_tmr.c ****         p_tmr1->NextPtr = p_tmr2;
 1585              		.loc 1 1136 0
 1586 0038 FB68     		ldr	r3, [r7, #12]
 1587 003a BA68     		ldr	r2, [r7, #8]
 1588 003c 1A61     		str	r2, [r3, #16]
1137:..\..\..\..\..\..\Software\uCOS-III\Source/os_tmr.c ****         if (p_tmr2 != DEF_NULL) {
 1589              		.loc 1 1137 0
 1590 003e BB68     		ldr	r3, [r7, #8]
 1591 0040 002B     		cmp	r3, #0
 1592 0042 02D0     		beq	.L129
1138:..\..\..\..\..\..\Software\uCOS-III\Source/os_tmr.c ****             p_tmr2->PrevPtr = p_tmr1;
 1593              		.loc 1 1138 0
 1594 0044 BB68     		ldr	r3, [r7, #8]
 1595 0046 FA68     		ldr	r2, [r7, #12]
 1596 0048 5A61     		str	r2, [r3, #20]
 1597              	.L129:
1139:..\..\..\..\..\..\Software\uCOS-III\Source/os_tmr.c ****         }
1140:..\..\..\..\..\..\Software\uCOS-III\Source/os_tmr.c ****     }
1141:..\..\..\..\..\..\Software\uCOS-III\Source/os_tmr.c ****     p_tmr->State   = OS_TMR_STATE_STOPPED;
 1598              		.loc 1 1141 0
 1599 004a 7B68     		ldr	r3, [r7, #4]
 1600 004c 2622     		movs	r2, #38
 1601 004e 0121     		movs	r1, #1
 1602 0050 9954     		strb	r1, [r3, r2]
1142:..\..\..\..\..\..\Software\uCOS-III\Source/os_tmr.c ****     p_tmr->NextPtr = DEF_NULL;
 1603              		.loc 1 1142 0
 1604 0052 7B68     		ldr	r3, [r7, #4]
 1605 0054 0022     		movs	r2, #0
 1606 0056 1A61     		str	r2, [r3, #16]
1143:..\..\..\..\..\..\Software\uCOS-III\Source/os_tmr.c ****     p_tmr->PrevPtr = DEF_NULL;
 1607              		.loc 1 1143 0
 1608 0058 7B68     		ldr	r3, [r7, #4]
 1609 005a 0022     		movs	r2, #0
 1610 005c 5A61     		str	r2, [r3, #20]
1144:..\..\..\..\..\..\Software\uCOS-III\Source/os_tmr.c **** #if (OS_CFG_DBG_EN == DEF_ENABLED)
1145:..\..\..\..\..\..\Software\uCOS-III\Source/os_tmr.c ****     OSTmrListEntries--;
 1611              		.loc 1 1145 0
 1612 005e 064B     		ldr	r3, .L130+4
 1613 0060 1B88     		ldrh	r3, [r3]
 1614 0062 013B     		subs	r3, r3, #1
 1615 0064 9AB2     		uxth	r2, r3
 1616 0066 044B     		ldr	r3, .L130+4
 1617 0068 1A80     		strh	r2, [r3]
1146:..\..\..\..\..\..\Software\uCOS-III\Source/os_tmr.c **** #endif
1147:..\..\..\..\..\..\Software\uCOS-III\Source/os_tmr.c **** }
 1618              		.loc 1 1147 0
 1619 006a C046     		nop
 1620 006c BD46     		mov	sp, r7
 1621 006e 04B0     		add	sp, sp, #16
 1622              		@ sp needed
 1623 0070 80BD     		pop	{r7, pc}
 1624              	.L131:
ARM GAS  C:\Users\ADMINI~1\AppData\Local\Temp\ccofok6U.s 			page 50


 1625 0072 C046     		.align	2
 1626              	.L130:
 1627 0074 00000000 		.word	OSTmrListPtr
 1628 0078 00000000 		.word	OSTmrListEntries
 1629              		.cfi_endproc
 1630              	.LFE10:
 1631              		.size	OS_TmrUnlink, .-OS_TmrUnlink
 1632              		.section	.text.OS_TmrTask,"ax",%progbits
 1633              		.align	2
 1634              		.global	OS_TmrTask
 1635              		.code	16
 1636              		.thumb_func
 1637              		.type	OS_TmrTask, %function
 1638              	OS_TmrTask:
 1639              	.LFB11:
1148:..\..\..\..\..\..\Software\uCOS-III\Source/os_tmr.c **** 
1149:..\..\..\..\..\..\Software\uCOS-III\Source/os_tmr.c **** 
1150:..\..\..\..\..\..\Software\uCOS-III\Source/os_tmr.c **** /*
1151:..\..\..\..\..\..\Software\uCOS-III\Source/os_tmr.c **** ***************************************************************************************************
1152:..\..\..\..\..\..\Software\uCOS-III\Source/os_tmr.c **** *                                                 TIMER MANAGEMENT TASK
1153:..\..\..\..\..\..\Software\uCOS-III\Source/os_tmr.c **** *
1154:..\..\..\..\..\..\Software\uCOS-III\Source/os_tmr.c **** * Description: This task is created by OS_TmrInit().
1155:..\..\..\..\..\..\Software\uCOS-III\Source/os_tmr.c **** *
1156:..\..\..\..\..\..\Software\uCOS-III\Source/os_tmr.c **** * Arguments  : none
1157:..\..\..\..\..\..\Software\uCOS-III\Source/os_tmr.c **** *
1158:..\..\..\..\..\..\Software\uCOS-III\Source/os_tmr.c **** * Returns    : none
1159:..\..\..\..\..\..\Software\uCOS-III\Source/os_tmr.c **** *
1160:..\..\..\..\..\..\Software\uCOS-III\Source/os_tmr.c **** * Note(s)    : 1) This function is INTERNAL to uC/OS-III and your application MUST NOT call it.
1161:..\..\..\..\..\..\Software\uCOS-III\Source/os_tmr.c **** ***************************************************************************************************
1162:..\..\..\..\..\..\Software\uCOS-III\Source/os_tmr.c **** */
1163:..\..\..\..\..\..\Software\uCOS-III\Source/os_tmr.c **** 
1164:..\..\..\..\..\..\Software\uCOS-III\Source/os_tmr.c **** void  OS_TmrTask (void  *p_arg)
1165:..\..\..\..\..\..\Software\uCOS-III\Source/os_tmr.c **** {
 1640              		.loc 1 1165 0
 1641              		.cfi_startproc
 1642              		@ args = 0, pretend = 0, frame = 40
 1643              		@ frame_needed = 1, uses_anonymous_args = 0
 1644 0000 80B5     		push	{r7, lr}
 1645              		.cfi_def_cfa_offset 8
 1646              		.cfi_offset 7, -8
 1647              		.cfi_offset 14, -4
 1648 0002 8AB0     		sub	sp, sp, #40
 1649              		.cfi_def_cfa_offset 48
 1650 0004 00AF     		add	r7, sp, #0
 1651              		.cfi_def_cfa_register 7
 1652 0006 7860     		str	r0, [r7, #4]
 1653              	.L139:
1166:..\..\..\..\..\..\Software\uCOS-III\Source/os_tmr.c ****     OS_ERR               err;
1167:..\..\..\..\..\..\Software\uCOS-III\Source/os_tmr.c ****     OS_TMR_CALLBACK_PTR  p_fnct;
1168:..\..\..\..\..\..\Software\uCOS-III\Source/os_tmr.c ****     OS_TMR              *p_tmr;
1169:..\..\..\..\..\..\Software\uCOS-III\Source/os_tmr.c ****     OS_TMR              *p_tmr_next;
1170:..\..\..\..\..\..\Software\uCOS-III\Source/os_tmr.c **** #if (OS_CFG_DYN_TICK_EN != DEF_ENABLED)
1171:..\..\..\..\..\..\Software\uCOS-III\Source/os_tmr.c ****     CPU_TS               ts;
1172:..\..\..\..\..\..\Software\uCOS-III\Source/os_tmr.c **** #endif
1173:..\..\..\..\..\..\Software\uCOS-III\Source/os_tmr.c **** #if (OS_CFG_TS_EN == DEF_ENABLED)
1174:..\..\..\..\..\..\Software\uCOS-III\Source/os_tmr.c ****     CPU_TS               ts_start;
1175:..\..\..\..\..\..\Software\uCOS-III\Source/os_tmr.c ****     CPU_TS               ts_delta;
ARM GAS  C:\Users\ADMINI~1\AppData\Local\Temp\ccofok6U.s 			page 51


1176:..\..\..\..\..\..\Software\uCOS-III\Source/os_tmr.c **** #endif
1177:..\..\..\..\..\..\Software\uCOS-III\Source/os_tmr.c **** 
1178:..\..\..\..\..\..\Software\uCOS-III\Source/os_tmr.c **** 
1179:..\..\..\..\..\..\Software\uCOS-III\Source/os_tmr.c **** 
1180:..\..\..\..\..\..\Software\uCOS-III\Source/os_tmr.c ****     (void)p_arg;                                                /* Not using 'p_arg', prevent compi
1181:..\..\..\..\..\..\Software\uCOS-III\Source/os_tmr.c ****     while (DEF_ON) {
1182:..\..\..\..\..\..\Software\uCOS-III\Source/os_tmr.c **** #if (OS_CFG_DYN_TICK_EN != DEF_ENABLED)
1183:..\..\..\..\..\..\Software\uCOS-III\Source/os_tmr.c ****         (void)OSTaskSemPend( 0u,                                /* Wait for signal indicating time 
 1654              		.loc 1 1183 0
 1655 0008 1223     		movs	r3, #18
 1656 000a FB18     		adds	r3, r7, r3
 1657 000c 0C22     		movs	r2, #12
 1658 000e BA18     		adds	r2, r7, r2
 1659 0010 0021     		movs	r1, #0
 1660 0012 0020     		movs	r0, #0
 1661 0014 FFF7FEFF 		bl	OSTaskSemPend
1184:..\..\..\..\..\..\Software\uCOS-III\Source/os_tmr.c ****                              OS_OPT_PEND_BLOCKING,
1185:..\..\..\..\..\..\Software\uCOS-III\Source/os_tmr.c ****                             &ts,
1186:..\..\..\..\..\..\Software\uCOS-III\Source/os_tmr.c ****                             &err);
1187:..\..\..\..\..\..\Software\uCOS-III\Source/os_tmr.c ****         (void)err;
1188:..\..\..\..\..\..\Software\uCOS-III\Source/os_tmr.c **** #else
1189:..\..\..\..\..\..\Software\uCOS-III\Source/os_tmr.c ****         OSTimeDly(OSTmrUpdateCnt, OS_OPT_TIME_DLY, &err);
1190:..\..\..\..\..\..\Software\uCOS-III\Source/os_tmr.c ****         (void)err;
1191:..\..\..\..\..\..\Software\uCOS-III\Source/os_tmr.c **** #endif
1192:..\..\..\..\..\..\Software\uCOS-III\Source/os_tmr.c **** 
1193:..\..\..\..\..\..\Software\uCOS-III\Source/os_tmr.c **** 
1194:..\..\..\..\..\..\Software\uCOS-III\Source/os_tmr.c ****         OS_TmrLock();
 1662              		.loc 1 1194 0
 1663 0018 FFF7FEFF 		bl	OS_TmrLock
1195:..\..\..\..\..\..\Software\uCOS-III\Source/os_tmr.c **** #if (OS_CFG_TS_EN == DEF_ENABLED)
1196:..\..\..\..\..\..\Software\uCOS-III\Source/os_tmr.c ****         ts_start = OS_TS_GET();
 1664              		.loc 1 1196 0
 1665 001c FFF7FEFF 		bl	CPU_TS_TmrRd
 1666 0020 0300     		movs	r3, r0
 1667 0022 3B62     		str	r3, [r7, #32]
1197:..\..\..\..\..\..\Software\uCOS-III\Source/os_tmr.c **** #endif
1198:..\..\..\..\..\..\Software\uCOS-III\Source/os_tmr.c ****         OSTmrTickCtr++;                                         /* Increment the current time      
 1668              		.loc 1 1198 0
 1669 0024 284B     		ldr	r3, .L140
 1670 0026 1B68     		ldr	r3, [r3]
 1671 0028 5A1C     		adds	r2, r3, #1
 1672 002a 274B     		ldr	r3, .L140
 1673 002c 1A60     		str	r2, [r3]
1199:..\..\..\..\..\..\Software\uCOS-III\Source/os_tmr.c ****         p_tmr    = OSTmrListPtr;
 1674              		.loc 1 1199 0
 1675 002e 274B     		ldr	r3, .L140+4
 1676 0030 1B68     		ldr	r3, [r3]
 1677 0032 7B62     		str	r3, [r7, #36]
1200:..\..\..\..\..\..\Software\uCOS-III\Source/os_tmr.c ****         while (p_tmr != DEF_NULL) {                             /* Update all the timers in the lis
 1678              		.loc 1 1200 0
 1679 0034 34E0     		b	.L133
 1680              	.L137:
1201:..\..\..\..\..\..\Software\uCOS-III\Source/os_tmr.c ****             OSSchedLock(&err);
 1681              		.loc 1 1201 0
 1682 0036 1223     		movs	r3, #18
 1683 0038 FB18     		adds	r3, r7, r3
 1684 003a 1800     		movs	r0, r3
ARM GAS  C:\Users\ADMINI~1\AppData\Local\Temp\ccofok6U.s 			page 52


 1685 003c FFF7FEFF 		bl	OSSchedLock
1202:..\..\..\..\..\..\Software\uCOS-III\Source/os_tmr.c ****             (void)&err;
1203:..\..\..\..\..\..\Software\uCOS-III\Source/os_tmr.c ****             p_tmr_next = p_tmr->NextPtr;
 1686              		.loc 1 1203 0
 1687 0040 7B6A     		ldr	r3, [r7, #36]
 1688 0042 1B69     		ldr	r3, [r3, #16]
 1689 0044 BB61     		str	r3, [r7, #24]
1204:..\..\..\..\..\..\Software\uCOS-III\Source/os_tmr.c ****             p_tmr->Remain--;
 1690              		.loc 1 1204 0
 1691 0046 7B6A     		ldr	r3, [r7, #36]
 1692 0048 9B69     		ldr	r3, [r3, #24]
 1693 004a 5A1E     		subs	r2, r3, #1
 1694 004c 7B6A     		ldr	r3, [r7, #36]
 1695 004e 9A61     		str	r2, [r3, #24]
1205:..\..\..\..\..\..\Software\uCOS-III\Source/os_tmr.c ****             if (p_tmr->Remain == 0u) {
 1696              		.loc 1 1205 0
 1697 0050 7B6A     		ldr	r3, [r7, #36]
 1698 0052 9B69     		ldr	r3, [r3, #24]
 1699 0054 002B     		cmp	r3, #0
 1700 0056 1CD1     		bne	.L134
1206:..\..\..\..\..\..\Software\uCOS-III\Source/os_tmr.c ****                 if (p_tmr->Opt == OS_OPT_TMR_PERIODIC) {
 1701              		.loc 1 1206 0
 1702 0058 7B6A     		ldr	r3, [r7, #36]
 1703 005a 9B8C     		ldrh	r3, [r3, #36]
 1704 005c 022B     		cmp	r3, #2
 1705 005e 04D1     		bne	.L135
1207:..\..\..\..\..\..\Software\uCOS-III\Source/os_tmr.c ****                     p_tmr->Remain = p_tmr->Period;              /* Reload the time remaining       
 1706              		.loc 1 1207 0
 1707 0060 7B6A     		ldr	r3, [r7, #36]
 1708 0062 1A6A     		ldr	r2, [r3, #32]
 1709 0064 7B6A     		ldr	r3, [r7, #36]
 1710 0066 9A61     		str	r2, [r3, #24]
 1711 0068 07E0     		b	.L136
 1712              	.L135:
1208:..\..\..\..\..\..\Software\uCOS-III\Source/os_tmr.c ****                 } else {
1209:..\..\..\..\..\..\Software\uCOS-III\Source/os_tmr.c ****                     OS_TmrUnlink(p_tmr);                        /* Remove from list                
 1713              		.loc 1 1209 0
 1714 006a 7B6A     		ldr	r3, [r7, #36]
 1715 006c 1800     		movs	r0, r3
 1716 006e FFF7FEFF 		bl	OS_TmrUnlink
1210:..\..\..\..\..\..\Software\uCOS-III\Source/os_tmr.c ****                     p_tmr->State = OS_TMR_STATE_COMPLETED;      /* Indicate that the timer has comp
 1717              		.loc 1 1210 0
 1718 0072 7B6A     		ldr	r3, [r7, #36]
 1719 0074 2622     		movs	r2, #38
 1720 0076 0321     		movs	r1, #3
 1721 0078 9954     		strb	r1, [r3, r2]
 1722              	.L136:
1211:..\..\..\..\..\..\Software\uCOS-III\Source/os_tmr.c ****                 }
1212:..\..\..\..\..\..\Software\uCOS-III\Source/os_tmr.c ****                 p_fnct = p_tmr->CallbackPtr;                    /* Execute callback function if ava
 1723              		.loc 1 1212 0
 1724 007a 7B6A     		ldr	r3, [r7, #36]
 1725 007c 9B68     		ldr	r3, [r3, #8]
 1726 007e 7B61     		str	r3, [r7, #20]
1213:..\..\..\..\..\..\Software\uCOS-III\Source/os_tmr.c ****                 if (p_fnct != 0u) {
 1727              		.loc 1 1213 0
 1728 0080 7B69     		ldr	r3, [r7, #20]
 1729 0082 002B     		cmp	r3, #0
ARM GAS  C:\Users\ADMINI~1\AppData\Local\Temp\ccofok6U.s 			page 53


 1730 0084 05D0     		beq	.L134
1214:..\..\..\..\..\..\Software\uCOS-III\Source/os_tmr.c ****                     (*p_fnct)((void *)p_tmr,
 1731              		.loc 1 1214 0
 1732 0086 7B6A     		ldr	r3, [r7, #36]
 1733 0088 D968     		ldr	r1, [r3, #12]
 1734 008a 7A6A     		ldr	r2, [r7, #36]
 1735 008c 7B69     		ldr	r3, [r7, #20]
 1736 008e 1000     		movs	r0, r2
 1737 0090 9847     		blx	r3
 1738              	.L134:
1215:..\..\..\..\..\..\Software\uCOS-III\Source/os_tmr.c ****                               p_tmr->CallbackPtrArg);
1216:..\..\..\..\..\..\Software\uCOS-III\Source/os_tmr.c ****                 }
1217:..\..\..\..\..\..\Software\uCOS-III\Source/os_tmr.c ****             }
1218:..\..\..\..\..\..\Software\uCOS-III\Source/os_tmr.c ****             p_tmr = p_tmr_next;
 1739              		.loc 1 1218 0
 1740 0092 BB69     		ldr	r3, [r7, #24]
 1741 0094 7B62     		str	r3, [r7, #36]
1219:..\..\..\..\..\..\Software\uCOS-III\Source/os_tmr.c ****             OSSchedUnlock(&err);
 1742              		.loc 1 1219 0
 1743 0096 1223     		movs	r3, #18
 1744 0098 FB18     		adds	r3, r7, r3
 1745 009a 1800     		movs	r0, r3
 1746 009c FFF7FEFF 		bl	OSSchedUnlock
 1747              	.L133:
1200:..\..\..\..\..\..\Software\uCOS-III\Source/os_tmr.c ****             OSSchedLock(&err);
 1748              		.loc 1 1200 0
 1749 00a0 7B6A     		ldr	r3, [r7, #36]
 1750 00a2 002B     		cmp	r3, #0
 1751 00a4 C7D1     		bne	.L137
1220:..\..\..\..\..\..\Software\uCOS-III\Source/os_tmr.c ****             (void)&err;
1221:..\..\..\..\..\..\Software\uCOS-III\Source/os_tmr.c ****         }
1222:..\..\..\..\..\..\Software\uCOS-III\Source/os_tmr.c **** 
1223:..\..\..\..\..\..\Software\uCOS-III\Source/os_tmr.c **** #if (OS_CFG_TS_EN == DEF_ENABLED)
1224:..\..\..\..\..\..\Software\uCOS-III\Source/os_tmr.c ****         ts_delta = OS_TS_GET() - ts_start;                      /* Measure execution time of timer 
 1752              		.loc 1 1224 0
 1753 00a6 FFF7FEFF 		bl	CPU_TS_TmrRd
 1754 00aa 0200     		movs	r2, r0
 1755 00ac 3B6A     		ldr	r3, [r7, #32]
 1756 00ae D31A     		subs	r3, r2, r3
 1757 00b0 FB61     		str	r3, [r7, #28]
1225:..\..\..\..\..\..\Software\uCOS-III\Source/os_tmr.c ****         if (OSTmrTaskTimeMax < ts_delta) {
 1758              		.loc 1 1225 0
 1759 00b2 074B     		ldr	r3, .L140+8
 1760 00b4 1A68     		ldr	r2, [r3]
 1761 00b6 FB69     		ldr	r3, [r7, #28]
 1762 00b8 9A42     		cmp	r2, r3
 1763 00ba 02D2     		bcs	.L138
1226:..\..\..\..\..\..\Software\uCOS-III\Source/os_tmr.c ****             OSTmrTaskTimeMax = ts_delta;
 1764              		.loc 1 1226 0
 1765 00bc 044B     		ldr	r3, .L140+8
 1766 00be FA69     		ldr	r2, [r7, #28]
 1767 00c0 1A60     		str	r2, [r3]
 1768              	.L138:
1227:..\..\..\..\..\..\Software\uCOS-III\Source/os_tmr.c ****         }
1228:..\..\..\..\..\..\Software\uCOS-III\Source/os_tmr.c **** #endif
1229:..\..\..\..\..\..\Software\uCOS-III\Source/os_tmr.c **** 
1230:..\..\..\..\..\..\Software\uCOS-III\Source/os_tmr.c ****         OS_TmrUnlock();
ARM GAS  C:\Users\ADMINI~1\AppData\Local\Temp\ccofok6U.s 			page 54


 1769              		.loc 1 1230 0
 1770 00c2 FFF7FEFF 		bl	OS_TmrUnlock
1231:..\..\..\..\..\..\Software\uCOS-III\Source/os_tmr.c ****     }
 1771              		.loc 1 1231 0
 1772 00c6 9FE7     		b	.L139
 1773              	.L141:
 1774              		.align	2
 1775              	.L140:
 1776 00c8 00000000 		.word	OSTmrTickCtr
 1777 00cc 00000000 		.word	OSTmrListPtr
 1778 00d0 00000000 		.word	OSTmrTaskTimeMax
 1779              		.cfi_endproc
 1780              	.LFE11:
 1781              		.size	OS_TmrTask, .-OS_TmrTask
 1782              		.section	.text.OS_TmrLock,"ax",%progbits
 1783              		.align	2
 1784              		.code	16
 1785              		.thumb_func
 1786              		.type	OS_TmrLock, %function
 1787              	OS_TmrLock:
 1788              	.LFB12:
1232:..\..\..\..\..\..\Software\uCOS-III\Source/os_tmr.c **** }
1233:..\..\..\..\..\..\Software\uCOS-III\Source/os_tmr.c **** 
1234:..\..\..\..\..\..\Software\uCOS-III\Source/os_tmr.c **** 
1235:..\..\..\..\..\..\Software\uCOS-III\Source/os_tmr.c **** /*
1236:..\..\..\..\..\..\Software\uCOS-III\Source/os_tmr.c **** ***************************************************************************************************
1237:..\..\..\..\..\..\Software\uCOS-III\Source/os_tmr.c **** *                                          TIMER MANAGEMENT LOCKING MECHANISM
1238:..\..\..\..\..\..\Software\uCOS-III\Source/os_tmr.c **** *
1239:..\..\..\..\..\..\Software\uCOS-III\Source/os_tmr.c **** * Description: These functions are use to handle timer critical sections.  The preferred method is 
1240:..\..\..\..\..\..\Software\uCOS-III\Source/os_tmr.c **** *              order to avoid locking the scheduler and also, to avoid calling callback functions w
1241:..\..\..\..\..\..\Software\uCOS-III\Source/os_tmr.c **** *              locked.
1242:..\..\..\..\..\..\Software\uCOS-III\Source/os_tmr.c **** *
1243:..\..\..\..\..\..\Software\uCOS-III\Source/os_tmr.c **** * Arguments  : none
1244:..\..\..\..\..\..\Software\uCOS-III\Source/os_tmr.c **** *
1245:..\..\..\..\..\..\Software\uCOS-III\Source/os_tmr.c **** * Returns    : none
1246:..\..\..\..\..\..\Software\uCOS-III\Source/os_tmr.c **** *
1247:..\..\..\..\..\..\Software\uCOS-III\Source/os_tmr.c **** * Note(s)    : 1) These function is INTERNAL to uC/OS-III and your application MUST NOT call it.
1248:..\..\..\..\..\..\Software\uCOS-III\Source/os_tmr.c **** ***************************************************************************************************
1249:..\..\..\..\..\..\Software\uCOS-III\Source/os_tmr.c **** */
1250:..\..\..\..\..\..\Software\uCOS-III\Source/os_tmr.c **** 
1251:..\..\..\..\..\..\Software\uCOS-III\Source/os_tmr.c **** static  void  OS_TmrLock (void)
1252:..\..\..\..\..\..\Software\uCOS-III\Source/os_tmr.c **** {
 1789              		.loc 1 1252 0
 1790              		.cfi_startproc
 1791              		@ args = 0, pretend = 0, frame = 8
 1792              		@ frame_needed = 1, uses_anonymous_args = 0
 1793 0000 80B5     		push	{r7, lr}
 1794              		.cfi_def_cfa_offset 8
 1795              		.cfi_offset 7, -8
 1796              		.cfi_offset 14, -4
 1797 0002 84B0     		sub	sp, sp, #16
 1798              		.cfi_def_cfa_offset 24
 1799 0004 02AF     		add	r7, sp, #8
 1800              		.cfi_def_cfa 7, 16
1253:..\..\..\..\..\..\Software\uCOS-III\Source/os_tmr.c ****     OS_ERR  err;
1254:..\..\..\..\..\..\Software\uCOS-III\Source/os_tmr.c **** #if (OS_CFG_MUTEX_EN == DEF_ENABLED)
1255:..\..\..\..\..\..\Software\uCOS-III\Source/os_tmr.c ****     CPU_TS  ts;
ARM GAS  C:\Users\ADMINI~1\AppData\Local\Temp\ccofok6U.s 			page 55


1256:..\..\..\..\..\..\Software\uCOS-III\Source/os_tmr.c **** 
1257:..\..\..\..\..\..\Software\uCOS-III\Source/os_tmr.c **** 
1258:..\..\..\..\..\..\Software\uCOS-III\Source/os_tmr.c ****     OSMutexPend(&OSTmrMutex,                                    /* Use a mutex to protect the timer
 1801              		.loc 1 1258 0
 1802 0006 3A00     		movs	r2, r7
 1803 0008 0548     		ldr	r0, .L143
 1804 000a BB1D     		adds	r3, r7, #6
 1805 000c 0093     		str	r3, [sp]
 1806 000e 1300     		movs	r3, r2
 1807 0010 0022     		movs	r2, #0
 1808 0012 0021     		movs	r1, #0
 1809 0014 FFF7FEFF 		bl	OSMutexPend
1259:..\..\..\..\..\..\Software\uCOS-III\Source/os_tmr.c ****                 0u,
1260:..\..\..\..\..\..\Software\uCOS-III\Source/os_tmr.c ****                 OS_OPT_PEND_BLOCKING,
1261:..\..\..\..\..\..\Software\uCOS-III\Source/os_tmr.c ****                 &ts,
1262:..\..\..\..\..\..\Software\uCOS-III\Source/os_tmr.c ****                 &err);
1263:..\..\..\..\..\..\Software\uCOS-III\Source/os_tmr.c **** #else
1264:..\..\..\..\..\..\Software\uCOS-III\Source/os_tmr.c ****     OSSchedLock(&err);                                          /* Lock the scheduler to protect th
1265:..\..\..\..\..\..\Software\uCOS-III\Source/os_tmr.c **** #endif
1266:..\..\..\..\..\..\Software\uCOS-III\Source/os_tmr.c ****     (void)&err;
1267:..\..\..\..\..\..\Software\uCOS-III\Source/os_tmr.c **** }
 1810              		.loc 1 1267 0
 1811 0018 C046     		nop
 1812 001a BD46     		mov	sp, r7
 1813 001c 02B0     		add	sp, sp, #8
 1814              		@ sp needed
 1815 001e 80BD     		pop	{r7, pc}
 1816              	.L144:
 1817              		.align	2
 1818              	.L143:
 1819 0020 00000000 		.word	OSTmrMutex
 1820              		.cfi_endproc
 1821              	.LFE12:
 1822              		.size	OS_TmrLock, .-OS_TmrLock
 1823              		.section	.text.OS_TmrUnlock,"ax",%progbits
 1824              		.align	2
 1825              		.code	16
 1826              		.thumb_func
 1827              		.type	OS_TmrUnlock, %function
 1828              	OS_TmrUnlock:
 1829              	.LFB13:
1268:..\..\..\..\..\..\Software\uCOS-III\Source/os_tmr.c **** 
1269:..\..\..\..\..\..\Software\uCOS-III\Source/os_tmr.c **** 
1270:..\..\..\..\..\..\Software\uCOS-III\Source/os_tmr.c **** 
1271:..\..\..\..\..\..\Software\uCOS-III\Source/os_tmr.c **** 
1272:..\..\..\..\..\..\Software\uCOS-III\Source/os_tmr.c **** static  void  OS_TmrUnlock (void)
1273:..\..\..\..\..\..\Software\uCOS-III\Source/os_tmr.c **** {
 1830              		.loc 1 1273 0
 1831              		.cfi_startproc
 1832              		@ args = 0, pretend = 0, frame = 8
 1833              		@ frame_needed = 1, uses_anonymous_args = 0
 1834 0000 80B5     		push	{r7, lr}
 1835              		.cfi_def_cfa_offset 8
 1836              		.cfi_offset 7, -8
 1837              		.cfi_offset 14, -4
 1838 0002 82B0     		sub	sp, sp, #8
 1839              		.cfi_def_cfa_offset 16
ARM GAS  C:\Users\ADMINI~1\AppData\Local\Temp\ccofok6U.s 			page 56


 1840 0004 00AF     		add	r7, sp, #0
 1841              		.cfi_def_cfa_register 7
1274:..\..\..\..\..\..\Software\uCOS-III\Source/os_tmr.c ****     OS_ERR  err;
1275:..\..\..\..\..\..\Software\uCOS-III\Source/os_tmr.c **** 
1276:..\..\..\..\..\..\Software\uCOS-III\Source/os_tmr.c **** 
1277:..\..\..\..\..\..\Software\uCOS-III\Source/os_tmr.c **** #if (OS_CFG_MUTEX_EN == DEF_ENABLED)
1278:..\..\..\..\..\..\Software\uCOS-III\Source/os_tmr.c ****     OSMutexPost(&OSTmrMutex,                                    /* Use a mutex to protect the timer
 1842              		.loc 1 1278 0
 1843 0006 BA1D     		adds	r2, r7, #6
 1844 0008 044B     		ldr	r3, .L146
 1845 000a 0021     		movs	r1, #0
 1846 000c 1800     		movs	r0, r3
 1847 000e FFF7FEFF 		bl	OSMutexPost
1279:..\..\..\..\..\..\Software\uCOS-III\Source/os_tmr.c ****                 OS_OPT_POST_NONE,
1280:..\..\..\..\..\..\Software\uCOS-III\Source/os_tmr.c ****                 &err);
1281:..\..\..\..\..\..\Software\uCOS-III\Source/os_tmr.c **** #else
1282:..\..\..\..\..\..\Software\uCOS-III\Source/os_tmr.c ****     OSSchedUnlock(&err);                                        /* Lock the scheduler to protect th
1283:..\..\..\..\..\..\Software\uCOS-III\Source/os_tmr.c **** #endif
1284:..\..\..\..\..\..\Software\uCOS-III\Source/os_tmr.c ****     (void)&err;
1285:..\..\..\..\..\..\Software\uCOS-III\Source/os_tmr.c **** }
 1848              		.loc 1 1285 0
 1849 0012 C046     		nop
 1850 0014 BD46     		mov	sp, r7
 1851 0016 02B0     		add	sp, sp, #8
 1852              		@ sp needed
 1853 0018 80BD     		pop	{r7, pc}
 1854              	.L147:
 1855 001a C046     		.align	2
 1856              	.L146:
 1857 001c 00000000 		.word	OSTmrMutex
 1858              		.cfi_endproc
 1859              	.LFE13:
 1860              		.size	OS_TmrUnlock, .-OS_TmrUnlock
 1861              		.text
 1862              	.Letext0:
 1863              		.file 2 "..\\..\\..\\..\\..\\..\\Software\\uC-CPU\\ARM-Cortex-M0\\GNU/cpu.h"
 1864              		.file 3 "..\\..\\..\\..\\..\\..\\Software\\uC-CPU/cpu_core.h"
 1865              		.file 4 "..\\..\\..\\..\\..\\..\\Software\\uCOS-III\\Source\\os_type.h"
 1866              		.file 5 "..\\..\\..\\..\\..\\..\\Software\\uCOS-III\\Source\\os.h"
 1867              		.section	.debug_info,"",%progbits
 1868              	.Ldebug_info0:
 1869 0000 35120000 		.4byte	0x1235
 1870 0004 0400     		.2byte	0x4
 1871 0006 00000000 		.4byte	.Ldebug_abbrev0
 1872 000a 04       		.byte	0x4
 1873 000b 01       		.uleb128 0x1
 1874 000c 12030000 		.4byte	.LASF353
 1875 0010 0C       		.byte	0xc
 1876 0011 A70A0000 		.4byte	.LASF354
 1877 0015 9C000000 		.4byte	.LASF355
 1878 0019 00000000 		.4byte	.Ldebug_ranges0+0
 1879 001d 00000000 		.4byte	0
 1880 0021 00000000 		.4byte	.Ldebug_line0
 1881 0025 02       		.uleb128 0x2
 1882 0026 5D080000 		.4byte	.LASF0
 1883 002a 02       		.byte	0x2
 1884 002b 7C       		.byte	0x7c
ARM GAS  C:\Users\ADMINI~1\AppData\Local\Temp\ccofok6U.s 			page 57


 1885 002c 30000000 		.4byte	0x30
 1886 0030 03       		.uleb128 0x3
 1887 0031 01       		.byte	0x1
 1888 0032 08       		.byte	0x8
 1889 0033 050A0000 		.4byte	.LASF2
 1890 0037 02       		.uleb128 0x2
 1891 0038 C7110000 		.4byte	.LASF1
 1892 003c 02       		.byte	0x2
 1893 003d 7D       		.byte	0x7d
 1894 003e 42000000 		.4byte	0x42
 1895 0042 03       		.uleb128 0x3
 1896 0043 01       		.byte	0x1
 1897 0044 08       		.byte	0x8
 1898 0045 2A120000 		.4byte	.LASF3
 1899 0049 02       		.uleb128 0x2
 1900 004a 43070000 		.4byte	.LASF4
 1901 004e 02       		.byte	0x2
 1902 004f 7E       		.byte	0x7e
 1903 0050 42000000 		.4byte	0x42
 1904 0054 03       		.uleb128 0x3
 1905 0055 01       		.byte	0x1
 1906 0056 06       		.byte	0x6
 1907 0057 91130000 		.4byte	.LASF5
 1908 005b 02       		.uleb128 0x2
 1909 005c 030C0000 		.4byte	.LASF6
 1910 0060 02       		.byte	0x2
 1911 0061 80       		.byte	0x80
 1912 0062 66000000 		.4byte	0x66
 1913 0066 03       		.uleb128 0x3
 1914 0067 02       		.byte	0x2
 1915 0068 07       		.byte	0x7
 1916 0069 BE130000 		.4byte	.LASF7
 1917 006d 03       		.uleb128 0x3
 1918 006e 02       		.byte	0x2
 1919 006f 05       		.byte	0x5
 1920 0070 2F0F0000 		.4byte	.LASF8
 1921 0074 02       		.uleb128 0x2
 1922 0075 33020000 		.4byte	.LASF9
 1923 0079 02       		.byte	0x2
 1924 007a 82       		.byte	0x82
 1925 007b 7F000000 		.4byte	0x7f
 1926 007f 03       		.uleb128 0x3
 1927 0080 04       		.byte	0x4
 1928 0081 07       		.byte	0x7
 1929 0082 D2100000 		.4byte	.LASF10
 1930 0086 04       		.uleb128 0x4
 1931 0087 04       		.byte	0x4
 1932 0088 05       		.byte	0x5
 1933 0089 696E7400 		.ascii	"int\000"
 1934 008d 03       		.uleb128 0x3
 1935 008e 08       		.byte	0x8
 1936 008f 07       		.byte	0x7
 1937 0090 6C060000 		.4byte	.LASF11
 1938 0094 03       		.uleb128 0x3
 1939 0095 08       		.byte	0x8
 1940 0096 05       		.byte	0x5
 1941 0097 500B0000 		.4byte	.LASF12
ARM GAS  C:\Users\ADMINI~1\AppData\Local\Temp\ccofok6U.s 			page 58


 1942 009b 03       		.uleb128 0x3
 1943 009c 04       		.byte	0x4
 1944 009d 04       		.byte	0x4
 1945 009e D4050000 		.4byte	.LASF13
 1946 00a2 03       		.uleb128 0x3
 1947 00a3 08       		.byte	0x8
 1948 00a4 04       		.byte	0x4
 1949 00a5 4B140000 		.4byte	.LASF14
 1950 00a9 05       		.uleb128 0x5
 1951 00aa 04       		.byte	0x4
 1952 00ab AF000000 		.4byte	0xaf
 1953 00af 06       		.uleb128 0x6
 1954 00b0 BA000000 		.4byte	0xba
 1955 00b4 07       		.uleb128 0x7
 1956 00b5 BA000000 		.4byte	0xba
 1957 00b9 00       		.byte	0
 1958 00ba 08       		.uleb128 0x8
 1959 00bb 04       		.byte	0x4
 1960 00bc 02       		.uleb128 0x2
 1961 00bd 6D110000 		.4byte	.LASF15
 1962 00c1 02       		.byte	0x2
 1963 00c2 BA       		.byte	0xba
 1964 00c3 74000000 		.4byte	0x74
 1965 00c7 02       		.uleb128 0x2
 1966 00c8 DA150000 		.4byte	.LASF16
 1967 00cc 02       		.byte	0x2
 1968 00cd E5       		.byte	0xe5
 1969 00ce 74000000 		.4byte	0x74
 1970 00d2 02       		.uleb128 0x2
 1971 00d3 84080000 		.4byte	.LASF17
 1972 00d7 02       		.byte	0x2
 1973 00d8 E6       		.byte	0xe6
 1974 00d9 BC000000 		.4byte	0xbc
 1975 00dd 02       		.uleb128 0x2
 1976 00de B50C0000 		.4byte	.LASF18
 1977 00e2 03       		.byte	0x3
 1978 00e3 C3       		.byte	0xc3
 1979 00e4 74000000 		.4byte	0x74
 1980 00e8 02       		.uleb128 0x2
 1981 00e9 490B0000 		.4byte	.LASF19
 1982 00ed 03       		.byte	0x3
 1983 00ee C6       		.byte	0xc6
 1984 00ef DD000000 		.4byte	0xdd
 1985 00f3 02       		.uleb128 0x2
 1986 00f4 09020000 		.4byte	.LASF20
 1987 00f8 04       		.byte	0x4
 1988 00f9 32       		.byte	0x32
 1989 00fa 5B000000 		.4byte	0x5b
 1990 00fe 02       		.uleb128 0x2
 1991 00ff 7D080000 		.4byte	.LASF21
 1992 0103 04       		.byte	0x4
 1993 0104 34       		.byte	0x34
 1994 0105 74000000 		.4byte	0x74
 1995 0109 02       		.uleb128 0x2
 1996 010a 22000000 		.4byte	.LASF22
 1997 010e 04       		.byte	0x4
 1998 010f 36       		.byte	0x36
ARM GAS  C:\Users\ADMINI~1\AppData\Local\Temp\ccofok6U.s 			page 59


 1999 0110 74000000 		.4byte	0x74
 2000 0114 02       		.uleb128 0x2
 2001 0115 D3110000 		.4byte	.LASF23
 2002 0119 04       		.byte	0x4
 2003 011a 38       		.byte	0x38
 2004 011b 74000000 		.4byte	0x74
 2005 011f 02       		.uleb128 0x2
 2006 0120 D1130000 		.4byte	.LASF24
 2007 0124 04       		.byte	0x4
 2008 0125 3A       		.byte	0x3a
 2009 0126 74000000 		.4byte	0x74
 2010 012a 02       		.uleb128 0x2
 2011 012b 91080000 		.4byte	.LASF25
 2012 012f 04       		.byte	0x4
 2013 0130 41       		.byte	0x41
 2014 0131 5B000000 		.4byte	0x5b
 2015 0135 02       		.uleb128 0x2
 2016 0136 22080000 		.4byte	.LASF26
 2017 013a 04       		.byte	0x4
 2018 013b 42       		.byte	0x42
 2019 013c 5B000000 		.4byte	0x5b
 2020 0140 02       		.uleb128 0x2
 2021 0141 08100000 		.4byte	.LASF27
 2022 0145 04       		.byte	0x4
 2023 0146 44       		.byte	0x44
 2024 0147 49000000 		.4byte	0x49
 2025 014b 02       		.uleb128 0x2
 2026 014c 94050000 		.4byte	.LASF28
 2027 0150 04       		.byte	0x4
 2028 0151 46       		.byte	0x46
 2029 0152 5B000000 		.4byte	0x5b
 2030 0156 02       		.uleb128 0x2
 2031 0157 0A0A0000 		.4byte	.LASF29
 2032 015b 04       		.byte	0x4
 2033 015c 47       		.byte	0x47
 2034 015d 74000000 		.4byte	0x74
 2035 0161 02       		.uleb128 0x2
 2036 0162 71120000 		.4byte	.LASF30
 2037 0166 04       		.byte	0x4
 2038 0167 49       		.byte	0x49
 2039 0168 5B000000 		.4byte	0x5b
 2040 016c 02       		.uleb128 0x2
 2041 016d CC050000 		.4byte	.LASF31
 2042 0171 04       		.byte	0x4
 2043 0172 4D       		.byte	0x4d
 2044 0173 49000000 		.4byte	0x49
 2045 0177 02       		.uleb128 0x2
 2046 0178 8E0A0000 		.4byte	.LASF32
 2047 017c 04       		.byte	0x4
 2048 017d 51       		.byte	0x51
 2049 017e 74000000 		.4byte	0x74
 2050 0182 02       		.uleb128 0x2
 2051 0183 C7070000 		.4byte	.LASF33
 2052 0187 04       		.byte	0x4
 2053 0188 56       		.byte	0x56
 2054 0189 74000000 		.4byte	0x74
 2055 018d 02       		.uleb128 0x2
ARM GAS  C:\Users\ADMINI~1\AppData\Local\Temp\ccofok6U.s 			page 60


 2056 018e E10C0000 		.4byte	.LASF34
 2057 0192 04       		.byte	0x4
 2058 0193 5A       		.byte	0x5a
 2059 0194 74000000 		.4byte	0x74
 2060 0198 02       		.uleb128 0x2
 2061 0199 68120000 		.4byte	.LASF35
 2062 019d 04       		.byte	0x4
 2063 019e 5C       		.byte	0x5c
 2064 019f 49000000 		.4byte	0x49
 2065 01a3 02       		.uleb128 0x2
 2066 01a4 DA070000 		.4byte	.LASF36
 2067 01a8 04       		.byte	0x4
 2068 01a9 5E       		.byte	0x5e
 2069 01aa 49000000 		.4byte	0x49
 2070 01ae 02       		.uleb128 0x2
 2071 01af 6C0C0000 		.4byte	.LASF37
 2072 01b3 04       		.byte	0x4
 2073 01b4 60       		.byte	0x60
 2074 01b5 74000000 		.4byte	0x74
 2075 01b9 09       		.uleb128 0x9
 2076 01ba A1010000 		.4byte	.LASF356
 2077 01be 02       		.byte	0x2
 2078 01bf 66000000 		.4byte	0x66
 2079 01c3 05       		.byte	0x5
 2080 01c4 E201     		.2byte	0x1e2
 2081 01c6 5B060000 		.4byte	0x65b
 2082 01ca 0A       		.uleb128 0xa
 2083 01cb FA130000 		.4byte	.LASF38
 2084 01cf 00       		.byte	0
 2085 01d0 0B       		.uleb128 0xb
 2086 01d1 66000000 		.4byte	.LASF39
 2087 01d5 1027     		.2byte	0x2710
 2088 01d7 0B       		.uleb128 0xb
 2089 01d8 3A040000 		.4byte	.LASF40
 2090 01dc 1127     		.2byte	0x2711
 2091 01de 0B       		.uleb128 0xb
 2092 01df 6F000000 		.4byte	.LASF41
 2093 01e3 F82A     		.2byte	0x2af8
 2094 01e5 0B       		.uleb128 0xb
 2095 01e6 78000000 		.4byte	.LASF42
 2096 01ea E02E     		.2byte	0x2ee0
 2097 01ec 0B       		.uleb128 0xb
 2098 01ed E7010000 		.4byte	.LASF43
 2099 01f1 E12E     		.2byte	0x2ee1
 2100 01f3 0B       		.uleb128 0xb
 2101 01f4 81000000 		.4byte	.LASF44
 2102 01f8 C832     		.2byte	0x32c8
 2103 01fa 0B       		.uleb128 0xb
 2104 01fb CF090000 		.4byte	.LASF45
 2105 01ff C932     		.2byte	0x32c9
 2106 0201 0B       		.uleb128 0xb
 2107 0202 8A000000 		.4byte	.LASF46
 2108 0206 B036     		.2byte	0x36b0
 2109 0208 0B       		.uleb128 0xb
 2110 0209 93000000 		.4byte	.LASF47
 2111 020d 983A     		.2byte	0x3a98
 2112 020f 0B       		.uleb128 0xb
ARM GAS  C:\Users\ADMINI~1\AppData\Local\Temp\ccofok6U.s 			page 61


 2113 0210 AA130000 		.4byte	.LASF48
 2114 0214 993A     		.2byte	0x3a99
 2115 0216 0B       		.uleb128 0xb
 2116 0217 1E090000 		.4byte	.LASF49
 2117 021b FD3A     		.2byte	0x3afd
 2118 021d 0B       		.uleb128 0xb
 2119 021e 24110000 		.4byte	.LASF50
 2120 0222 FE3A     		.2byte	0x3afe
 2121 0224 0B       		.uleb128 0xb
 2122 0225 5E0B0000 		.4byte	.LASF51
 2123 0229 FF3A     		.2byte	0x3aff
 2124 022b 0B       		.uleb128 0xb
 2125 022c 35140000 		.4byte	.LASF52
 2126 0230 003B     		.2byte	0x3b00
 2127 0232 0B       		.uleb128 0xb
 2128 0233 0E120000 		.4byte	.LASF53
 2129 0237 803E     		.2byte	0x3e80
 2130 0239 0B       		.uleb128 0xb
 2131 023a EE000000 		.4byte	.LASF54
 2132 023e 6842     		.2byte	0x4268
 2133 0240 0B       		.uleb128 0xb
 2134 0241 F7000000 		.4byte	.LASF55
 2135 0245 5046     		.2byte	0x4650
 2136 0247 0B       		.uleb128 0xb
 2137 0248 54050000 		.4byte	.LASF56
 2138 024c 5146     		.2byte	0x4651
 2139 024e 0B       		.uleb128 0xb
 2140 024f F7030000 		.4byte	.LASF57
 2141 0253 5246     		.2byte	0x4652
 2142 0255 0B       		.uleb128 0xb
 2143 0256 17050000 		.4byte	.LASF58
 2144 025a 5346     		.2byte	0x4653
 2145 025c 0B       		.uleb128 0xb
 2146 025d C8010000 		.4byte	.LASF59
 2147 0261 5446     		.2byte	0x4654
 2148 0263 0B       		.uleb128 0xb
 2149 0264 24130000 		.4byte	.LASF60
 2150 0268 5546     		.2byte	0x4655
 2151 026a 0B       		.uleb128 0xb
 2152 026b A10D0000 		.4byte	.LASF61
 2153 026f 5646     		.2byte	0x4656
 2154 0271 0B       		.uleb128 0xb
 2155 0272 CD020000 		.4byte	.LASF62
 2156 0276 5746     		.2byte	0x4657
 2157 0278 0B       		.uleb128 0xb
 2158 0279 00010000 		.4byte	.LASF63
 2159 027d 384A     		.2byte	0x4a38
 2160 027f 0B       		.uleb128 0xb
 2161 0280 09010000 		.4byte	.LASF64
 2162 0284 204E     		.2byte	0x4e20
 2163 0286 0B       		.uleb128 0xb
 2164 0287 12010000 		.4byte	.LASF65
 2165 028b 0852     		.2byte	0x5208
 2166 028d 0B       		.uleb128 0xb
 2167 028e F20E0000 		.4byte	.LASF66
 2168 0292 0952     		.2byte	0x5209
 2169 0294 0B       		.uleb128 0xb
ARM GAS  C:\Users\ADMINI~1\AppData\Local\Temp\ccofok6U.s 			page 62


 2170 0295 1B010000 		.4byte	.LASF67
 2171 0299 F055     		.2byte	0x55f0
 2172 029b 0B       		.uleb128 0xb
 2173 029c 8D120000 		.4byte	.LASF68
 2174 02a0 B956     		.2byte	0x56b9
 2175 02a2 0B       		.uleb128 0xb
 2176 02a3 740C0000 		.4byte	.LASF69
 2177 02a7 BA56     		.2byte	0x56ba
 2178 02a9 0B       		.uleb128 0xb
 2179 02aa D20E0000 		.4byte	.LASF70
 2180 02ae BB56     		.2byte	0x56bb
 2181 02b0 0B       		.uleb128 0xb
 2182 02b1 37090000 		.4byte	.LASF71
 2183 02b5 BC56     		.2byte	0x56bc
 2184 02b7 0B       		.uleb128 0xb
 2185 02b8 2A0C0000 		.4byte	.LASF72
 2186 02bc BD56     		.2byte	0x56bd
 2187 02be 0B       		.uleb128 0xb
 2188 02bf B90E0000 		.4byte	.LASF73
 2189 02c3 BE56     		.2byte	0x56be
 2190 02c5 0B       		.uleb128 0xb
 2191 02c6 9C0C0000 		.4byte	.LASF74
 2192 02ca BF56     		.2byte	0x56bf
 2193 02cc 0B       		.uleb128 0xb
 2194 02cd 11060000 		.4byte	.LASF75
 2195 02d1 C056     		.2byte	0x56c0
 2196 02d3 0B       		.uleb128 0xb
 2197 02d4 C7140000 		.4byte	.LASF76
 2198 02d8 C156     		.2byte	0x56c1
 2199 02da 0B       		.uleb128 0xb
 2200 02db B3150000 		.4byte	.LASF77
 2201 02df C256     		.2byte	0x56c2
 2202 02e1 0B       		.uleb128 0xb
 2203 02e2 4B0F0000 		.4byte	.LASF78
 2204 02e6 1D57     		.2byte	0x571d
 2205 02e8 0B       		.uleb128 0xb
 2206 02e9 EF0F0000 		.4byte	.LASF79
 2207 02ed 1E57     		.2byte	0x571e
 2208 02ef 0B       		.uleb128 0xb
 2209 02f0 0B080000 		.4byte	.LASF80
 2210 02f4 8157     		.2byte	0x5781
 2211 02f6 0B       		.uleb128 0xb
 2212 02f7 F4100000 		.4byte	.LASF81
 2213 02fb 8257     		.2byte	0x5782
 2214 02fd 0B       		.uleb128 0xb
 2215 02fe 64040000 		.4byte	.LASF82
 2216 0302 8357     		.2byte	0x5783
 2217 0304 0B       		.uleb128 0xb
 2218 0305 C7030000 		.4byte	.LASF83
 2219 0309 8457     		.2byte	0x5784
 2220 030b 0B       		.uleb128 0xb
 2221 030c 24010000 		.4byte	.LASF84
 2222 0310 D859     		.2byte	0x59d8
 2223 0312 0B       		.uleb128 0xb
 2224 0313 CE070000 		.4byte	.LASF85
 2225 0317 D959     		.2byte	0x59d9
 2226 0319 0B       		.uleb128 0xb
ARM GAS  C:\Users\ADMINI~1\AppData\Local\Temp\ccofok6U.s 			page 63


 2227 031a F9050000 		.4byte	.LASF86
 2228 031e DA59     		.2byte	0x59da
 2229 0320 0B       		.uleb128 0xb
 2230 0321 2D010000 		.4byte	.LASF87
 2231 0325 C05D     		.2byte	0x5dc0
 2232 0327 0B       		.uleb128 0xb
 2233 0328 AD040000 		.4byte	.LASF88
 2234 032c C15D     		.2byte	0x5dc1
 2235 032e 0B       		.uleb128 0xb
 2236 032f 3A0B0000 		.4byte	.LASF89
 2237 0333 C25D     		.2byte	0x5dc2
 2238 0335 0B       		.uleb128 0xb
 2239 0336 420C0000 		.4byte	.LASF90
 2240 033a C35D     		.2byte	0x5dc3
 2241 033c 0B       		.uleb128 0xb
 2242 033d 63100000 		.4byte	.LASF91
 2243 0341 C45D     		.2byte	0x5dc4
 2244 0343 0B       		.uleb128 0xb
 2245 0344 350A0000 		.4byte	.LASF92
 2246 0348 255E     		.2byte	0x5e25
 2247 034a 0B       		.uleb128 0xb
 2248 034b 3A0E0000 		.4byte	.LASF93
 2249 034f 895E     		.2byte	0x5e89
 2250 0351 0B       		.uleb128 0xb
 2251 0352 9C080000 		.4byte	.LASF94
 2252 0356 8A5E     		.2byte	0x5e8a
 2253 0358 0B       		.uleb128 0xb
 2254 0359 68090000 		.4byte	.LASF95
 2255 035d 8B5E     		.2byte	0x5e8b
 2256 035f 0B       		.uleb128 0xb
 2257 0360 730A0000 		.4byte	.LASF96
 2258 0364 8C5E     		.2byte	0x5e8c
 2259 0366 0B       		.uleb128 0xb
 2260 0367 36010000 		.4byte	.LASF97
 2261 036b A861     		.2byte	0x61a8
 2262 036d 0B       		.uleb128 0xb
 2263 036e 52140000 		.4byte	.LASF98
 2264 0372 A961     		.2byte	0x61a9
 2265 0374 0B       		.uleb128 0xb
 2266 0375 57110000 		.4byte	.LASF99
 2267 0379 AA61     		.2byte	0x61aa
 2268 037b 0B       		.uleb128 0xb
 2269 037c BB100000 		.4byte	.LASF100
 2270 0380 AB61     		.2byte	0x61ab
 2271 0382 0B       		.uleb128 0xb
 2272 0383 EC0B0000 		.4byte	.LASF101
 2273 0387 AC61     		.2byte	0x61ac
 2274 0389 0B       		.uleb128 0xb
 2275 038a 91140000 		.4byte	.LASF102
 2276 038e AD61     		.2byte	0x61ad
 2277 0390 0B       		.uleb128 0xb
 2278 0391 C2120000 		.4byte	.LASF103
 2279 0395 AE61     		.2byte	0x61ae
 2280 0397 0B       		.uleb128 0xb
 2281 0398 FF020000 		.4byte	.LASF104
 2282 039c AF61     		.2byte	0x61af
 2283 039e 0B       		.uleb128 0xb
ARM GAS  C:\Users\ADMINI~1\AppData\Local\Temp\ccofok6U.s 			page 64


 2284 039f 7A020000 		.4byte	.LASF105
 2285 03a3 B061     		.2byte	0x61b0
 2286 03a5 0B       		.uleb128 0xb
 2287 03a6 E4050000 		.4byte	.LASF106
 2288 03aa 0D62     		.2byte	0x620d
 2289 03ac 0B       		.uleb128 0xb
 2290 03ad 76110000 		.4byte	.LASF107
 2291 03b1 0E62     		.2byte	0x620e
 2292 03b3 0B       		.uleb128 0xb
 2293 03b4 86150000 		.4byte	.LASF108
 2294 03b8 7162     		.2byte	0x6271
 2295 03ba 0B       		.uleb128 0xb
 2296 03bb 85140000 		.4byte	.LASF109
 2297 03bf 7262     		.2byte	0x6272
 2298 03c1 0B       		.uleb128 0xb
 2299 03c2 07000000 		.4byte	.LASF110
 2300 03c6 7362     		.2byte	0x6273
 2301 03c8 0B       		.uleb128 0xb
 2302 03c9 0A0E0000 		.4byte	.LASF111
 2303 03cd D562     		.2byte	0x62d5
 2304 03cf 0B       		.uleb128 0xb
 2305 03d0 3F010000 		.4byte	.LASF112
 2306 03d4 9065     		.2byte	0x6590
 2307 03d6 0B       		.uleb128 0xb
 2308 03d7 FA120000 		.4byte	.LASF113
 2309 03db 9165     		.2byte	0x6591
 2310 03dd 0B       		.uleb128 0xb
 2311 03de 97070000 		.4byte	.LASF114
 2312 03e2 9265     		.2byte	0x6592
 2313 03e4 0B       		.uleb128 0xb
 2314 03e5 F0090000 		.4byte	.LASF115
 2315 03e9 9365     		.2byte	0x6593
 2316 03eb 0B       		.uleb128 0xb
 2317 03ec B30B0000 		.4byte	.LASF116
 2318 03f0 9465     		.2byte	0x6594
 2319 03f2 0B       		.uleb128 0xb
 2320 03f3 48010000 		.4byte	.LASF117
 2321 03f7 7869     		.2byte	0x6978
 2322 03f9 0B       		.uleb128 0xb
 2323 03fa 560C0000 		.4byte	.LASF118
 2324 03fe 7969     		.2byte	0x6979
 2325 0400 0B       		.uleb128 0xb
 2326 0401 A40E0000 		.4byte	.LASF119
 2327 0405 7A69     		.2byte	0x697a
 2328 0407 0B       		.uleb128 0xb
 2329 0408 0E0C0000 		.4byte	.LASF120
 2330 040c 7B69     		.2byte	0x697b
 2331 040e 0B       		.uleb128 0xb
 2332 040f 51010000 		.4byte	.LASF121
 2333 0413 606D     		.2byte	0x6d60
 2334 0415 0B       		.uleb128 0xb
 2335 0416 530A0000 		.4byte	.LASF122
 2336 041a 616D     		.2byte	0x6d61
 2337 041c 0B       		.uleb128 0xb
 2338 041d A1090000 		.4byte	.LASF123
 2339 0421 626D     		.2byte	0x6d62
 2340 0423 0B       		.uleb128 0xb
ARM GAS  C:\Users\ADMINI~1\AppData\Local\Temp\ccofok6U.s 			page 65


 2341 0424 21140000 		.4byte	.LASF124
 2342 0428 636D     		.2byte	0x6d63
 2343 042a 0B       		.uleb128 0xb
 2344 042b 6D140000 		.4byte	.LASF125
 2345 042f 646D     		.2byte	0x6d64
 2346 0431 0B       		.uleb128 0xb
 2347 0432 6F0F0000 		.4byte	.LASF126
 2348 0436 656D     		.2byte	0x6d65
 2349 0438 0B       		.uleb128 0xb
 2350 0439 1A150000 		.4byte	.LASF127
 2351 043d C56D     		.2byte	0x6dc5
 2352 043f 0B       		.uleb128 0xb
 2353 0440 F5140000 		.4byte	.LASF128
 2354 0444 C66D     		.2byte	0x6dc6
 2355 0446 0B       		.uleb128 0xb
 2356 0447 E9020000 		.4byte	.LASF129
 2357 044b 296E     		.2byte	0x6e29
 2358 044d 0B       		.uleb128 0xb
 2359 044e DB0A0000 		.4byte	.LASF130
 2360 0452 2A6E     		.2byte	0x6e2a
 2361 0454 0B       		.uleb128 0xb
 2362 0455 06090000 		.4byte	.LASF131
 2363 0459 2B6E     		.2byte	0x6e2b
 2364 045b 0B       		.uleb128 0xb
 2365 045c 07110000 		.4byte	.LASF132
 2366 0460 2C6E     		.2byte	0x6e2c
 2367 0462 0B       		.uleb128 0xb
 2368 0463 1D0E0000 		.4byte	.LASF133
 2369 0467 2D6E     		.2byte	0x6e2d
 2370 0469 0B       		.uleb128 0xb
 2371 046a A3120000 		.4byte	.LASF134
 2372 046e 2E6E     		.2byte	0x6e2e
 2373 0470 0B       		.uleb128 0xb
 2374 0471 47020000 		.4byte	.LASF135
 2375 0475 2F6E     		.2byte	0x6e2f
 2376 0477 0B       		.uleb128 0xb
 2377 0478 E4110000 		.4byte	.LASF136
 2378 047c 306E     		.2byte	0x6e30
 2379 047e 0B       		.uleb128 0xb
 2380 047f 9A110000 		.4byte	.LASF137
 2381 0483 316E     		.2byte	0x6e31
 2382 0485 0B       		.uleb128 0xb
 2383 0486 5A010000 		.4byte	.LASF138
 2384 048a 4871     		.2byte	0x7148
 2385 048c 0B       		.uleb128 0xb
 2386 048d 92020000 		.4byte	.LASF139
 2387 0491 4971     		.2byte	0x7149
 2388 0493 0B       		.uleb128 0xb
 2389 0494 66080000 		.4byte	.LASF140
 2390 0498 4A71     		.2byte	0x714a
 2391 049a 0B       		.uleb128 0xb
 2392 049b 59130000 		.4byte	.LASF141
 2393 049f 4B71     		.2byte	0x714b
 2394 04a1 0B       		.uleb128 0xb
 2395 04a2 29150000 		.4byte	.LASF142
 2396 04a6 4C71     		.2byte	0x714c
 2397 04a8 0B       		.uleb128 0xb
ARM GAS  C:\Users\ADMINI~1\AppData\Local\Temp\ccofok6U.s 			page 66


 2398 04a9 DF060000 		.4byte	.LASF143
 2399 04ad 4D71     		.2byte	0x714d
 2400 04af 0B       		.uleb128 0xb
 2401 04b0 EA0D0000 		.4byte	.LASF144
 2402 04b4 4E71     		.2byte	0x714e
 2403 04b6 0B       		.uleb128 0xb
 2404 04b7 520D0000 		.4byte	.LASF145
 2405 04bb 4F71     		.2byte	0x714f
 2406 04bd 0B       		.uleb128 0xb
 2407 04be 840C0000 		.4byte	.LASF146
 2408 04c2 5071     		.2byte	0x7150
 2409 04c4 0B       		.uleb128 0xb
 2410 04c5 D8030000 		.4byte	.LASF147
 2411 04c9 5171     		.2byte	0x7151
 2412 04cb 0B       		.uleb128 0xb
 2413 04cc 2B0D0000 		.4byte	.LASF148
 2414 04d0 5271     		.2byte	0x7152
 2415 04d2 0B       		.uleb128 0xb
 2416 04d3 AD030000 		.4byte	.LASF149
 2417 04d7 5371     		.2byte	0x7153
 2418 04d9 0B       		.uleb128 0xb
 2419 04da 38120000 		.4byte	.LASF150
 2420 04de 5471     		.2byte	0x7154
 2421 04e0 0B       		.uleb128 0xb
 2422 04e1 63020000 		.4byte	.LASF151
 2423 04e5 5571     		.2byte	0x7155
 2424 04e7 0B       		.uleb128 0xb
 2425 04e8 B4050000 		.4byte	.LASF152
 2426 04ec 5671     		.2byte	0x7156
 2427 04ee 0B       		.uleb128 0xb
 2428 04ef 36100000 		.4byte	.LASF153
 2429 04f3 5771     		.2byte	0x7157
 2430 04f5 0B       		.uleb128 0xb
 2431 04f6 83060000 		.4byte	.LASF154
 2432 04fa 5871     		.2byte	0x7158
 2433 04fc 0B       		.uleb128 0xb
 2434 04fd 0A0F0000 		.4byte	.LASF155
 2435 0501 5971     		.2byte	0x7159
 2436 0503 0B       		.uleb128 0xb
 2437 0504 DF140000 		.4byte	.LASF156
 2438 0508 5A71     		.2byte	0x715a
 2439 050a 0B       		.uleb128 0xb
 2440 050b FE040000 		.4byte	.LASF157
 2441 050f 5B71     		.2byte	0x715b
 2442 0511 0B       		.uleb128 0xb
 2443 0512 BF060000 		.4byte	.LASF158
 2444 0516 5C71     		.2byte	0x715c
 2445 0518 0B       		.uleb128 0xb
 2446 0519 4C040000 		.4byte	.LASF159
 2447 051d 5D71     		.2byte	0x715d
 2448 051f 0B       		.uleb128 0xb
 2449 0520 7E0D0000 		.4byte	.LASF160
 2450 0524 5E71     		.2byte	0x715e
 2451 0526 0B       		.uleb128 0xb
 2452 0527 20040000 		.4byte	.LASF161
 2453 052b 5F71     		.2byte	0x715f
 2454 052d 0B       		.uleb128 0xb
ARM GAS  C:\Users\ADMINI~1\AppData\Local\Temp\ccofok6U.s 			page 67


 2455 052e 8D0B0000 		.4byte	.LASF162
 2456 0532 6071     		.2byte	0x7160
 2457 0534 0B       		.uleb128 0xb
 2458 0535 55070000 		.4byte	.LASF163
 2459 0539 AD71     		.2byte	0x71ad
 2460 053b 0B       		.uleb128 0xb
 2461 053c 56060000 		.4byte	.LASF164
 2462 0540 C071     		.2byte	0x71c0
 2463 0542 0B       		.uleb128 0xb
 2464 0543 BF0D0000 		.4byte	.LASF165
 2465 0547 C171     		.2byte	0x71c1
 2466 0549 0B       		.uleb128 0xb
 2467 054a E1130000 		.4byte	.LASF166
 2468 054e C271     		.2byte	0x71c2
 2469 0550 0B       		.uleb128 0xb
 2470 0551 230A0000 		.4byte	.LASF167
 2471 0555 C371     		.2byte	0x71c3
 2472 0557 0B       		.uleb128 0xb
 2473 0558 EE070000 		.4byte	.LASF168
 2474 055c C471     		.2byte	0x71c4
 2475 055e 0B       		.uleb128 0xb
 2476 055f 6D150000 		.4byte	.LASF169
 2477 0563 1172     		.2byte	0x7211
 2478 0565 0B       		.uleb128 0xb
 2479 0566 D70F0000 		.4byte	.LASF170
 2480 056a 1272     		.2byte	0x7212
 2481 056c 0B       		.uleb128 0xb
 2482 056d 16020000 		.4byte	.LASF171
 2483 0571 1372     		.2byte	0x7213
 2484 0573 0B       		.uleb128 0xb
 2485 0574 080D0000 		.4byte	.LASF172
 2486 0578 1472     		.2byte	0x7214
 2487 057a 0B       		.uleb128 0xb
 2488 057b 86110000 		.4byte	.LASF173
 2489 057f 7572     		.2byte	0x7275
 2490 0581 0B       		.uleb128 0xb
 2491 0582 52150000 		.4byte	.LASF174
 2492 0586 7672     		.2byte	0x7276
 2493 0588 0B       		.uleb128 0xb
 2494 0589 3E150000 		.4byte	.LASF175
 2495 058d 7772     		.2byte	0x7277
 2496 058f 0B       		.uleb128 0xb
 2497 0590 2E080000 		.4byte	.LASF176
 2498 0594 7872     		.2byte	0x7278
 2499 0596 0B       		.uleb128 0xb
 2500 0597 4A000000 		.4byte	.LASF177
 2501 059b 7972     		.2byte	0x7279
 2502 059d 0B       		.uleb128 0xb
 2503 059e 3D130000 		.4byte	.LASF178
 2504 05a2 7A72     		.2byte	0x727a
 2505 05a4 0B       		.uleb128 0xb
 2506 05a5 A6070000 		.4byte	.LASF179
 2507 05a9 7B72     		.2byte	0x727b
 2508 05ab 0B       		.uleb128 0xb
 2509 05ac F40A0000 		.4byte	.LASF180
 2510 05b0 7C72     		.2byte	0x727c
 2511 05b2 0B       		.uleb128 0xb
ARM GAS  C:\Users\ADMINI~1\AppData\Local\Temp\ccofok6U.s 			page 68


 2512 05b3 900E0000 		.4byte	.LASF181
 2513 05b7 7D72     		.2byte	0x727d
 2514 05b9 0B       		.uleb128 0xb
 2515 05ba DC080000 		.4byte	.LASF182
 2516 05be 7E72     		.2byte	0x727e
 2517 05c0 0B       		.uleb128 0xb
 2518 05c1 48120000 		.4byte	.LASF183
 2519 05c5 D972     		.2byte	0x72d9
 2520 05c7 0B       		.uleb128 0xb
 2521 05c8 42060000 		.4byte	.LASF184
 2522 05cc 3D73     		.2byte	0x733d
 2523 05ce 0B       		.uleb128 0xb
 2524 05cf 89090000 		.4byte	.LASF185
 2525 05d3 3E73     		.2byte	0x733e
 2526 05d5 0B       		.uleb128 0xb
 2527 05d6 7D050000 		.4byte	.LASF186
 2528 05da 3F73     		.2byte	0x733f
 2529 05dc 0B       		.uleb128 0xb
 2530 05dd 87010000 		.4byte	.LASF187
 2531 05e1 4073     		.2byte	0x7340
 2532 05e3 0B       		.uleb128 0xb
 2533 05e4 8D040000 		.4byte	.LASF188
 2534 05e8 4173     		.2byte	0x7341
 2535 05ea 0B       		.uleb128 0xb
 2536 05eb 9F060000 		.4byte	.LASF189
 2537 05ef 4273     		.2byte	0x7342
 2538 05f1 0B       		.uleb128 0xb
 2539 05f2 3B000000 		.4byte	.LASF190
 2540 05f6 4373     		.2byte	0x7343
 2541 05f8 0B       		.uleb128 0xb
 2542 05f9 2B060000 		.4byte	.LASF191
 2543 05fd 4473     		.2byte	0x7344
 2544 05ff 0B       		.uleb128 0xb
 2545 0600 48080000 		.4byte	.LASF192
 2546 0604 4573     		.2byte	0x7345
 2547 0606 0B       		.uleb128 0xb
 2548 0607 660D0000 		.4byte	.LASF193
 2549 060b 4673     		.2byte	0x7346
 2550 060d 0B       		.uleb128 0xb
 2551 060e 21070000 		.4byte	.LASF194
 2552 0612 4773     		.2byte	0x7347
 2553 0614 0B       		.uleb128 0xb
 2554 0615 EC0C0000 		.4byte	.LASF195
 2555 0619 4873     		.2byte	0x7348
 2556 061b 0B       		.uleb128 0xb
 2557 061c 17120000 		.4byte	.LASF196
 2558 0620 4973     		.2byte	0x7349
 2559 0622 0B       		.uleb128 0xb
 2560 0623 CE0D0000 		.4byte	.LASF197
 2561 0627 4A73     		.2byte	0x734a
 2562 0629 0B       		.uleb128 0xb
 2563 062a 63010000 		.4byte	.LASF198
 2564 062e 3075     		.2byte	0x7530
 2565 0630 0B       		.uleb128 0xb
 2566 0631 6C010000 		.4byte	.LASF199
 2567 0635 1879     		.2byte	0x7918
 2568 0637 0B       		.uleb128 0xb
ARM GAS  C:\Users\ADMINI~1\AppData\Local\Temp\ccofok6U.s 			page 69


 2569 0638 75010000 		.4byte	.LASF200
 2570 063c 007D     		.2byte	0x7d00
 2571 063e 0B       		.uleb128 0xb
 2572 063f 7E010000 		.4byte	.LASF201
 2573 0643 E880     		.2byte	0x80e8
 2574 0645 0B       		.uleb128 0xb
 2575 0646 B9120000 		.4byte	.LASF202
 2576 064a D084     		.2byte	0x84d0
 2577 064c 0B       		.uleb128 0xb
 2578 064d 290B0000 		.4byte	.LASF203
 2579 0651 D184     		.2byte	0x84d1
 2580 0653 0B       		.uleb128 0xb
 2581 0654 D2120000 		.4byte	.LASF204
 2582 0658 B888     		.2byte	0x88b8
 2583 065a 00       		.byte	0
 2584 065b 0C       		.uleb128 0xc
 2585 065c 1B000000 		.4byte	.LASF205
 2586 0660 05       		.byte	0x5
 2587 0661 B502     		.2byte	0x2b5
 2588 0663 B9010000 		.4byte	0x1b9
 2589 0667 0C       		.uleb128 0xc
 2590 0668 7B090000 		.4byte	.LASF206
 2591 066c 05       		.byte	0x5
 2592 066d C402     		.2byte	0x2c4
 2593 066f 73060000 		.4byte	0x673
 2594 0673 0D       		.uleb128 0xd
 2595 0674 4E070000 		.4byte	.LASF212
 2596 0678 10       		.byte	0x10
 2597 0679 05       		.byte	0x5
 2598 067a A303     		.2byte	0x3a3
 2599 067c B5060000 		.4byte	0x6b5
 2600 0680 0E       		.uleb128 0xe
 2601 0681 320E0000 		.4byte	.LASF207
 2602 0685 05       		.byte	0x5
 2603 0686 A403     		.2byte	0x3a4
 2604 0688 D00C0000 		.4byte	0xcd0
 2605 068c 00       		.byte	0
 2606 068d 0E       		.uleb128 0xe
 2607 068e DA130000 		.4byte	.LASF208
 2608 0692 05       		.byte	0x5
 2609 0693 A503     		.2byte	0x3a5
 2610 0695 BA000000 		.4byte	0xba
 2611 0699 04       		.byte	0x4
 2612 069a 0E       		.uleb128 0xe
 2613 069b EC100000 		.4byte	.LASF209
 2614 069f 05       		.byte	0x5
 2615 06a0 A603     		.2byte	0x3a6
 2616 06a2 35010000 		.4byte	0x135
 2617 06a6 08       		.byte	0x8
 2618 06a7 0E       		.uleb128 0xe
 2619 06a8 A4130000 		.4byte	.LASF210
 2620 06ac 05       		.byte	0x5
 2621 06ad A803     		.2byte	0x3a8
 2622 06af E8000000 		.4byte	0xe8
 2623 06b3 0C       		.byte	0xc
 2624 06b4 00       		.byte	0
 2625 06b5 0C       		.uleb128 0xc
ARM GAS  C:\Users\ADMINI~1\AppData\Local\Temp\ccofok6U.s 			page 70


 2626 06b6 1B0B0000 		.4byte	.LASF211
 2627 06ba 05       		.byte	0x5
 2628 06bb C602     		.2byte	0x2c6
 2629 06bd C1060000 		.4byte	0x6c1
 2630 06c1 0D       		.uleb128 0xd
 2631 06c2 98150000 		.4byte	.LASF213
 2632 06c6 10       		.byte	0x10
 2633 06c7 05       		.byte	0x5
 2634 06c8 BA03     		.2byte	0x3ba
 2635 06ca 10070000 		.4byte	0x710
 2636 06ce 0E       		.uleb128 0xe
 2637 06cf 9A100000 		.4byte	.LASF214
 2638 06d3 05       		.byte	0x5
 2639 06d4 BB03     		.2byte	0x3bb
 2640 06d6 D00C0000 		.4byte	0xcd0
 2641 06da 00       		.byte	0
 2642 06db 0E       		.uleb128 0xe
 2643 06dc E6120000 		.4byte	.LASF215
 2644 06e0 05       		.byte	0x5
 2645 06e1 BC03     		.2byte	0x3bc
 2646 06e3 D00C0000 		.4byte	0xcd0
 2647 06e7 04       		.byte	0x4
 2648 06e8 0E       		.uleb128 0xe
 2649 06e9 C2080000 		.4byte	.LASF216
 2650 06ed 05       		.byte	0x5
 2651 06ee BD03     		.2byte	0x3bd
 2652 06f0 2A010000 		.4byte	0x12a
 2653 06f4 08       		.byte	0x8
 2654 06f5 0E       		.uleb128 0xe
 2655 06f6 A8010000 		.4byte	.LASF217
 2656 06fa 05       		.byte	0x5
 2657 06fb BE03     		.2byte	0x3be
 2658 06fd 2A010000 		.4byte	0x12a
 2659 0701 0A       		.byte	0xa
 2660 0702 0E       		.uleb128 0xe
 2661 0703 AC140000 		.4byte	.LASF218
 2662 0707 05       		.byte	0x5
 2663 0708 C003     		.2byte	0x3c0
 2664 070a 2A010000 		.4byte	0x12a
 2665 070e 0C       		.byte	0xc
 2666 070f 00       		.byte	0
 2667 0710 0C       		.uleb128 0xc
 2668 0711 3E020000 		.4byte	.LASF219
 2669 0715 05       		.byte	0x5
 2670 0716 C802     		.2byte	0x2c8
 2671 0718 1C070000 		.4byte	0x71c
 2672 071c 0D       		.uleb128 0xd
 2673 071d 5D0E0000 		.4byte	.LASF220
 2674 0721 30       		.byte	0x30
 2675 0722 05       		.byte	0x5
 2676 0723 D003     		.2byte	0x3d0
 2677 0725 AB070000 		.4byte	0x7ab
 2678 0729 0E       		.uleb128 0xe
 2679 072a 240B0000 		.4byte	.LASF221
 2680 072e 05       		.byte	0x5
 2681 072f D303     		.2byte	0x3d3
 2682 0731 56010000 		.4byte	0x156
ARM GAS  C:\Users\ADMINI~1\AppData\Local\Temp\ccofok6U.s 			page 71


 2683 0735 00       		.byte	0
 2684 0736 0E       		.uleb128 0xe
 2685 0737 080B0000 		.4byte	.LASF222
 2686 073b 05       		.byte	0x5
 2687 073c D603     		.2byte	0x3d6
 2688 073e CA0C0000 		.4byte	0xcca
 2689 0742 04       		.byte	0x4
 2690 0743 0E       		.uleb128 0xe
 2691 0744 5A100000 		.4byte	.LASF223
 2692 0748 05       		.byte	0x5
 2693 0749 D803     		.2byte	0x3d8
 2694 074b 0F0C0000 		.4byte	0xc0f
 2695 074f 08       		.byte	0x8
 2696 0750 0E       		.uleb128 0xe
 2697 0751 EC030000 		.4byte	.LASF224
 2698 0755 05       		.byte	0x5
 2699 0756 DA03     		.2byte	0x3da
 2700 0758 D60C0000 		.4byte	0xcd6
 2701 075c 14       		.byte	0x14
 2702 075d 0E       		.uleb128 0xe
 2703 075e 04040000 		.4byte	.LASF225
 2704 0762 05       		.byte	0x5
 2705 0763 DB03     		.2byte	0x3db
 2706 0765 D60C0000 		.4byte	0xcd6
 2707 0769 18       		.byte	0x18
 2708 076a 0E       		.uleb128 0xe
 2709 076b DB120000 		.4byte	.LASF226
 2710 076f 05       		.byte	0x5
 2711 0770 DC03     		.2byte	0x3dc
 2712 0772 CA0C0000 		.4byte	0xcca
 2713 0776 1C       		.byte	0x1c
 2714 0777 0E       		.uleb128 0xe
 2715 0778 BA0F0000 		.4byte	.LASF227
 2716 077c 05       		.byte	0x5
 2717 077d DF03     		.2byte	0x3df
 2718 077f D60C0000 		.4byte	0xcd6
 2719 0783 20       		.byte	0x20
 2720 0784 0E       		.uleb128 0xe
 2721 0785 9F050000 		.4byte	.LASF228
 2722 0789 05       		.byte	0x5
 2723 078a E003     		.2byte	0x3e0
 2724 078c B80C0000 		.4byte	0xcb8
 2725 0790 24       		.byte	0x24
 2726 0791 0E       		.uleb128 0xe
 2727 0792 F9010000 		.4byte	.LASF229
 2728 0796 05       		.byte	0x5
 2729 0797 E103     		.2byte	0x3e1
 2730 0799 40010000 		.4byte	0x140
 2731 079d 28       		.byte	0x28
 2732 079e 0F       		.uleb128 0xf
 2733 079f 545300   		.ascii	"TS\000"
 2734 07a2 05       		.byte	0x5
 2735 07a3 E303     		.2byte	0x3e3
 2736 07a5 E8000000 		.4byte	0xe8
 2737 07a9 2C       		.byte	0x2c
 2738 07aa 00       		.byte	0
 2739 07ab 0C       		.uleb128 0xc
ARM GAS  C:\Users\ADMINI~1\AppData\Local\Temp\ccofok6U.s 			page 72


 2740 07ac 78120000 		.4byte	.LASF230
 2741 07b0 05       		.byte	0x5
 2742 07b1 D402     		.2byte	0x2d4
 2743 07b3 A9000000 		.4byte	0xa9
 2744 07b7 0C       		.uleb128 0xc
 2745 07b8 DD110000 		.4byte	.LASF231
 2746 07bc 05       		.byte	0x5
 2747 07bd D902     		.2byte	0x2d9
 2748 07bf C3070000 		.4byte	0x7c3
 2749 07c3 0D       		.uleb128 0xd
 2750 07c4 00000000 		.4byte	.LASF232
 2751 07c8 C4       		.byte	0xc4
 2752 07c9 05       		.byte	0x5
 2753 07ca 5004     		.2byte	0x450
 2754 07cc 670A0000 		.4byte	0xa67
 2755 07d0 0E       		.uleb128 0xe
 2756 07d1 730B0000 		.4byte	.LASF233
 2757 07d5 05       		.byte	0x5
 2758 07d6 5104     		.2byte	0x451
 2759 07d8 DC0C0000 		.4byte	0xcdc
 2760 07dc 00       		.byte	0
 2761 07dd 0E       		.uleb128 0xe
 2762 07de 3E110000 		.4byte	.LASF234
 2763 07e2 05       		.byte	0x5
 2764 07e3 5304     		.2byte	0x453
 2765 07e5 BA000000 		.4byte	0xba
 2766 07e9 04       		.byte	0x4
 2767 07ea 0E       		.uleb128 0xe
 2768 07eb 080B0000 		.4byte	.LASF222
 2769 07ef 05       		.byte	0x5
 2770 07f0 5604     		.2byte	0x456
 2771 07f2 CA0C0000 		.4byte	0xcca
 2772 07f6 08       		.byte	0x8
 2773 07f7 0E       		.uleb128 0xe
 2774 07f8 C90C0000 		.4byte	.LASF235
 2775 07fc 05       		.byte	0x5
 2776 07fd 5A04     		.2byte	0x45a
 2777 07ff DC0C0000 		.4byte	0xcdc
 2778 0803 0C       		.byte	0xc
 2779 0804 0E       		.uleb128 0xe
 2780 0805 320E0000 		.4byte	.LASF207
 2781 0809 05       		.byte	0x5
 2782 080a 5D04     		.2byte	0x45d
 2783 080c B80C0000 		.4byte	0xcb8
 2784 0810 10       		.byte	0x10
 2785 0811 0E       		.uleb128 0xe
 2786 0812 FD090000 		.4byte	.LASF236
 2787 0816 05       		.byte	0x5
 2788 0817 5E04     		.2byte	0x45e
 2789 0819 B80C0000 		.4byte	0xcb8
 2790 081d 14       		.byte	0x14
 2791 081e 0E       		.uleb128 0xe
 2792 081f 1F0D0000 		.4byte	.LASF237
 2793 0823 05       		.byte	0x5
 2794 0824 6104     		.2byte	0x461
 2795 0826 B80C0000 		.4byte	0xcb8
 2796 082a 18       		.byte	0x18
ARM GAS  C:\Users\ADMINI~1\AppData\Local\Temp\ccofok6U.s 			page 73


 2797 082b 0E       		.uleb128 0xe
 2798 082c F1080000 		.4byte	.LASF238
 2799 0830 05       		.byte	0x5
 2800 0831 6204     		.2byte	0x462
 2801 0833 B80C0000 		.4byte	0xcb8
 2802 0837 1C       		.byte	0x1c
 2803 0838 0E       		.uleb128 0xe
 2804 0839 840E0000 		.4byte	.LASF239
 2805 083d 05       		.byte	0x5
 2806 083e 6404     		.2byte	0x464
 2807 0840 E20C0000 		.4byte	0xce2
 2808 0844 20       		.byte	0x20
 2809 0845 0E       		.uleb128 0xe
 2810 0846 70070000 		.4byte	.LASF240
 2811 084a 05       		.byte	0x5
 2812 084b 6804     		.2byte	0x468
 2813 084d DC0C0000 		.4byte	0xcdc
 2814 0851 24       		.byte	0x24
 2815 0852 0E       		.uleb128 0xe
 2816 0853 990A0000 		.4byte	.LASF241
 2817 0857 05       		.byte	0x5
 2818 0858 7004     		.2byte	0x470
 2819 085a AB070000 		.4byte	0x7ab
 2820 085e 28       		.byte	0x28
 2821 085f 0E       		.uleb128 0xe
 2822 0860 ED120000 		.4byte	.LASF242
 2823 0864 05       		.byte	0x5
 2824 0865 7104     		.2byte	0x471
 2825 0867 BA000000 		.4byte	0xba
 2826 086b 2C       		.byte	0x2c
 2827 086c 0E       		.uleb128 0xe
 2828 086d 73100000 		.4byte	.LASF243
 2829 0871 05       		.byte	0x5
 2830 0872 7404     		.2byte	0x474
 2831 0874 BE0C0000 		.4byte	0xcbe
 2832 0878 30       		.byte	0x30
 2833 0879 0E       		.uleb128 0xe
 2834 087a A6040000 		.4byte	.LASF244
 2835 087e 05       		.byte	0x5
 2836 087f 7504     		.2byte	0x475
 2837 0881 98010000 		.4byte	0x198
 2838 0885 34       		.byte	0x34
 2839 0886 0E       		.uleb128 0xe
 2840 0887 100B0000 		.4byte	.LASF245
 2841 088b 05       		.byte	0x5
 2842 088c 7604     		.2byte	0x476
 2843 088e A3010000 		.4byte	0x1a3
 2844 0892 35       		.byte	0x35
 2845 0893 0E       		.uleb128 0xe
 2846 0894 E4070000 		.4byte	.LASF246
 2847 0898 05       		.byte	0x5
 2848 0899 7804     		.2byte	0x478
 2849 089b 98010000 		.4byte	0x198
 2850 089f 36       		.byte	0x36
 2851 08a0 0E       		.uleb128 0xe
 2852 08a1 46140000 		.4byte	.LASF247
 2853 08a5 05       		.byte	0x5
ARM GAS  C:\Users\ADMINI~1\AppData\Local\Temp\ccofok6U.s 			page 74


 2854 08a6 7904     		.2byte	0x479
 2855 08a8 6C010000 		.4byte	0x16c
 2856 08ac 37       		.byte	0x37
 2857 08ad 0E       		.uleb128 0xe
 2858 08ae 4F090000 		.4byte	.LASF248
 2859 08b2 05       		.byte	0x5
 2860 08b3 7B04     		.2byte	0x47b
 2861 08b5 6C010000 		.4byte	0x16c
 2862 08b9 38       		.byte	0x38
 2863 08ba 0E       		.uleb128 0xe
 2864 08bb BD020000 		.4byte	.LASF249
 2865 08bf 05       		.byte	0x5
 2866 08c0 7C04     		.2byte	0x47c
 2867 08c2 D60C0000 		.4byte	0xcd6
 2868 08c6 3C       		.byte	0x3c
 2869 08c7 0E       		.uleb128 0xe
 2870 08c8 68070000 		.4byte	.LASF250
 2871 08cc 05       		.byte	0x5
 2872 08cd 8004     		.2byte	0x480
 2873 08cf D2000000 		.4byte	0xd2
 2874 08d3 40       		.byte	0x40
 2875 08d4 0F       		.uleb128 0xf
 2876 08d5 4F707400 		.ascii	"Opt\000"
 2877 08d9 05       		.byte	0x5
 2878 08da 8204     		.2byte	0x482
 2879 08dc 61010000 		.4byte	0x161
 2880 08e0 44       		.byte	0x44
 2881 08e1 0F       		.uleb128 0xf
 2882 08e2 545300   		.ascii	"TS\000"
 2883 08e5 05       		.byte	0x5
 2884 08e6 8804     		.2byte	0x488
 2885 08e8 E8000000 		.4byte	0xe8
 2886 08ec 48       		.byte	0x48
 2887 08ed 0E       		.uleb128 0xe
 2888 08ee 82100000 		.4byte	.LASF251
 2889 08f2 05       		.byte	0x5
 2890 08f3 8D04     		.2byte	0x48d
 2891 08f5 8D010000 		.4byte	0x18d
 2892 08f9 4C       		.byte	0x4c
 2893 08fa 0E       		.uleb128 0xe
 2894 08fb A0100000 		.4byte	.LASF252
 2895 08ff 05       		.byte	0x5
 2896 0900 9104     		.2byte	0x491
 2897 0902 AE010000 		.4byte	0x1ae
 2898 0906 50       		.byte	0x50
 2899 0907 0E       		.uleb128 0xe
 2900 0908 B6080000 		.4byte	.LASF253
 2901 090c 05       		.byte	0x5
 2902 090d 9204     		.2byte	0x492
 2903 090f AE010000 		.4byte	0x1ae
 2904 0913 54       		.byte	0x54
 2905 0914 0E       		.uleb128 0xe
 2906 0915 DA130000 		.4byte	.LASF208
 2907 0919 05       		.byte	0x5
 2908 091a 9B04     		.2byte	0x49b
 2909 091c BA000000 		.4byte	0xba
 2910 0920 58       		.byte	0x58
ARM GAS  C:\Users\ADMINI~1\AppData\Local\Temp\ccofok6U.s 			page 75


 2911 0921 0E       		.uleb128 0xe
 2912 0922 EC100000 		.4byte	.LASF209
 2913 0926 05       		.byte	0x5
 2914 0927 9C04     		.2byte	0x49c
 2915 0929 35010000 		.4byte	0x135
 2916 092d 5C       		.byte	0x5c
 2917 092e 0E       		.uleb128 0xe
 2918 092f 890A0000 		.4byte	.LASF254
 2919 0933 05       		.byte	0x5
 2920 0934 A004     		.2byte	0x4a0
 2921 0936 B5060000 		.4byte	0x6b5
 2922 093a 60       		.byte	0x60
 2923 093b 0E       		.uleb128 0xe
 2924 093c 500E0000 		.4byte	.LASF255
 2925 0940 05       		.byte	0x5
 2926 0941 A204     		.2byte	0x4a2
 2927 0943 E8000000 		.4byte	0xe8
 2928 0947 70       		.byte	0x70
 2929 0948 0E       		.uleb128 0xe
 2930 0949 58090000 		.4byte	.LASF256
 2931 094d 05       		.byte	0x5
 2932 094e A304     		.2byte	0x4a3
 2933 0950 E8000000 		.4byte	0xe8
 2934 0954 74       		.byte	0x74
 2935 0955 0E       		.uleb128 0xe
 2936 0956 04150000 		.4byte	.LASF257
 2937 095a 05       		.byte	0x5
 2938 095b A804     		.2byte	0x4a8
 2939 095d E80C0000 		.4byte	0xce8
 2940 0961 78       		.byte	0x78
 2941 0962 0E       		.uleb128 0xe
 2942 0963 73050000 		.4byte	.LASF258
 2943 0967 05       		.byte	0x5
 2944 0968 AC04     		.2byte	0x4ac
 2945 096a 1F010000 		.4byte	0x11f
 2946 096e 7C       		.byte	0x7c
 2947 096f 0E       		.uleb128 0xe
 2948 0970 FD080000 		.4byte	.LASF259
 2949 0974 05       		.byte	0x5
 2950 0975 AD04     		.2byte	0x4ad
 2951 0977 1F010000 		.4byte	0x11f
 2952 097b 80       		.byte	0x80
 2953 097c 0E       		.uleb128 0xe
 2954 097d 5A020000 		.4byte	.LASF260
 2955 0981 05       		.byte	0x5
 2956 0982 AE04     		.2byte	0x4ae
 2957 0984 61010000 		.4byte	0x161
 2958 0988 84       		.byte	0x84
 2959 0989 0E       		.uleb128 0xe
 2960 098a BE0C0000 		.4byte	.LASF261
 2961 098e 05       		.byte	0x5
 2962 098f B204     		.2byte	0x4b2
 2963 0991 40010000 		.4byte	0x140
 2964 0995 86       		.byte	0x86
 2965 0996 0E       		.uleb128 0xe
 2966 0997 64140000 		.4byte	.LASF262
 2967 099b 05       		.byte	0x5
ARM GAS  C:\Users\ADMINI~1\AppData\Local\Temp\ccofok6U.s 			page 76


 2968 099c B604     		.2byte	0x4b6
 2969 099e F3000000 		.4byte	0xf3
 2970 09a2 88       		.byte	0x88
 2971 09a3 0E       		.uleb128 0xe
 2972 09a4 4E100000 		.4byte	.LASF263
 2973 09a8 05       		.byte	0x5
 2974 09a9 B704     		.2byte	0x4b7
 2975 09ab F3000000 		.4byte	0xf3
 2976 09af 8A       		.byte	0x8a
 2977 09b0 0E       		.uleb128 0xe
 2978 09b1 AB050000 		.4byte	.LASF264
 2979 09b5 05       		.byte	0x5
 2980 09b6 B804     		.2byte	0x4b8
 2981 09b8 09010000 		.4byte	0x109
 2982 09bc 8C       		.byte	0x8c
 2983 09bd 0E       		.uleb128 0xe
 2984 09be D50C0000 		.4byte	.LASF265
 2985 09c2 05       		.byte	0x5
 2986 09c3 B904     		.2byte	0x4b9
 2987 09c5 E8000000 		.4byte	0xe8
 2988 09c9 90       		.byte	0x90
 2989 09ca 0E       		.uleb128 0xe
 2990 09cb C10B0000 		.4byte	.LASF266
 2991 09cf 05       		.byte	0x5
 2992 09d0 BA04     		.2byte	0x4ba
 2993 09d2 E8000000 		.4byte	0xe8
 2994 09d6 94       		.byte	0x94
 2995 09d7 0E       		.uleb128 0xe
 2996 09d8 17100000 		.4byte	.LASF267
 2997 09dc 05       		.byte	0x5
 2998 09dd BB04     		.2byte	0x4bb
 2999 09df 14010000 		.4byte	0x114
 3000 09e3 98       		.byte	0x98
 3001 09e4 0E       		.uleb128 0xe
 3002 09e5 AA0F0000 		.4byte	.LASF268
 3003 09e9 05       		.byte	0x5
 3004 09ea BC04     		.2byte	0x4bc
 3005 09ec 14010000 		.4byte	0x114
 3006 09f0 9C       		.byte	0x9c
 3007 09f1 0E       		.uleb128 0xe
 3008 09f2 FE0D0000 		.4byte	.LASF269
 3009 09f6 05       		.byte	0x5
 3010 09f7 BE04     		.2byte	0x4be
 3011 09f9 E8000000 		.4byte	0xe8
 3012 09fd A0       		.byte	0xa0
 3013 09fe 0E       		.uleb128 0xe
 3014 09ff 870F0000 		.4byte	.LASF270
 3015 0a03 05       		.byte	0x5
 3016 0a04 BF04     		.2byte	0x4bf
 3017 0a06 E8000000 		.4byte	0xe8
 3018 0a0a A4       		.byte	0xa4
 3019 0a0b 0E       		.uleb128 0xe
 3020 0a0c 97060000 		.4byte	.LASF271
 3021 0a10 05       		.byte	0x5
 3022 0a11 C304     		.2byte	0x4c3
 3023 0a13 D2000000 		.4byte	0xd2
 3024 0a17 A8       		.byte	0xa8
ARM GAS  C:\Users\ADMINI~1\AppData\Local\Temp\ccofok6U.s 			page 77


 3025 0a18 0E       		.uleb128 0xe
 3026 0a19 AE080000 		.4byte	.LASF272
 3027 0a1d 05       		.byte	0x5
 3028 0a1e C404     		.2byte	0x4c4
 3029 0a20 D2000000 		.4byte	0xd2
 3030 0a24 AC       		.byte	0xac
 3031 0a25 0E       		.uleb128 0xe
 3032 0a26 610F0000 		.4byte	.LASF273
 3033 0a2a 05       		.byte	0x5
 3034 0a2b C804     		.2byte	0x4c8
 3035 0a2d E8000000 		.4byte	0xe8
 3036 0a31 B0       		.byte	0xb0
 3037 0a32 0E       		.uleb128 0xe
 3038 0a33 0F040000 		.4byte	.LASF274
 3039 0a37 05       		.byte	0x5
 3040 0a38 CB04     		.2byte	0x4cb
 3041 0a3a E8000000 		.4byte	0xe8
 3042 0a3e B4       		.byte	0xb4
 3043 0a3f 0E       		.uleb128 0xe
 3044 0a40 EC030000 		.4byte	.LASF224
 3045 0a44 05       		.byte	0x5
 3046 0a45 CF04     		.2byte	0x4cf
 3047 0a47 B80C0000 		.4byte	0xcb8
 3048 0a4b B8       		.byte	0xb8
 3049 0a4c 0E       		.uleb128 0xe
 3050 0a4d 04040000 		.4byte	.LASF225
 3051 0a51 05       		.byte	0x5
 3052 0a52 D004     		.2byte	0x4d0
 3053 0a54 B80C0000 		.4byte	0xcb8
 3054 0a58 BC       		.byte	0xbc
 3055 0a59 0E       		.uleb128 0xe
 3056 0a5a DB120000 		.4byte	.LASF226
 3057 0a5e 05       		.byte	0x5
 3058 0a5f D104     		.2byte	0x4d1
 3059 0a61 CA0C0000 		.4byte	0xcca
 3060 0a65 C0       		.byte	0xc0
 3061 0a66 00       		.byte	0
 3062 0a67 0C       		.uleb128 0xc
 3063 0a68 CA0F0000 		.4byte	.LASF275
 3064 0a6c 05       		.byte	0x5
 3065 0a6d E702     		.2byte	0x2e7
 3066 0a6f 730A0000 		.4byte	0xa73
 3067 0a73 0D       		.uleb128 0xd
 3068 0a74 220F0000 		.4byte	.LASF276
 3069 0a78 08       		.byte	0x8
 3070 0a79 05       		.byte	0x5
 3071 0a7a DF04     		.2byte	0x4df
 3072 0a7c A80A0000 		.4byte	0xaa8
 3073 0a80 0E       		.uleb128 0xe
 3074 0a81 CD040000 		.4byte	.LASF277
 3075 0a85 05       		.byte	0x5
 3076 0a86 E004     		.2byte	0x4e0
 3077 0a88 B80C0000 		.4byte	0xcb8
 3078 0a8c 00       		.byte	0
 3079 0a8d 0E       		.uleb128 0xe
 3080 0a8e A8010000 		.4byte	.LASF217
 3081 0a92 05       		.byte	0x5
ARM GAS  C:\Users\ADMINI~1\AppData\Local\Temp\ccofok6U.s 			page 78


 3082 0a93 E204     		.2byte	0x4e2
 3083 0a95 4B010000 		.4byte	0x14b
 3084 0a99 04       		.byte	0x4
 3085 0a9a 0E       		.uleb128 0xe
 3086 0a9b FE060000 		.4byte	.LASF278
 3087 0a9f 05       		.byte	0x5
 3088 0aa0 E304     		.2byte	0x4e3
 3089 0aa2 4B010000 		.4byte	0x14b
 3090 0aa6 06       		.byte	0x6
 3091 0aa7 00       		.byte	0
 3092 0aa8 0C       		.uleb128 0xc
 3093 0aa9 960F0000 		.4byte	.LASF279
 3094 0aad 05       		.byte	0x5
 3095 0aae E902     		.2byte	0x2e9
 3096 0ab0 B40A0000 		.4byte	0xab4
 3097 0ab4 05       		.uleb128 0x5
 3098 0ab5 04       		.byte	0x4
 3099 0ab6 BA0A0000 		.4byte	0xaba
 3100 0aba 06       		.uleb128 0x6
 3101 0abb CA0A0000 		.4byte	0xaca
 3102 0abf 07       		.uleb128 0x7
 3103 0ac0 BA000000 		.4byte	0xba
 3104 0ac4 07       		.uleb128 0x7
 3105 0ac5 BA000000 		.4byte	0xba
 3106 0ac9 00       		.byte	0
 3107 0aca 0C       		.uleb128 0xc
 3108 0acb 660E0000 		.4byte	.LASF280
 3109 0acf 05       		.byte	0x5
 3110 0ad0 EA02     		.2byte	0x2ea
 3111 0ad2 D60A0000 		.4byte	0xad6
 3112 0ad6 0D       		.uleb128 0xd
 3113 0ad7 440F0000 		.4byte	.LASF281
 3114 0adb 30       		.byte	0x30
 3115 0adc 05       		.byte	0x5
 3116 0add EE04     		.2byte	0x4ee
 3117 0adf 8D0B0000 		.4byte	0xb8d
 3118 0ae3 0E       		.uleb128 0xe
 3119 0ae4 240B0000 		.4byte	.LASF221
 3120 0ae8 05       		.byte	0x5
 3121 0ae9 F004     		.2byte	0x4f0
 3122 0aeb 56010000 		.4byte	0x156
 3123 0aef 00       		.byte	0
 3124 0af0 0E       		.uleb128 0xe
 3125 0af1 080B0000 		.4byte	.LASF222
 3126 0af5 05       		.byte	0x5
 3127 0af6 F304     		.2byte	0x4f3
 3128 0af8 CA0C0000 		.4byte	0xcca
 3129 0afc 04       		.byte	0x4
 3130 0afd 0E       		.uleb128 0xe
 3131 0afe 810B0000 		.4byte	.LASF282
 3132 0b02 05       		.byte	0x5
 3133 0b03 F504     		.2byte	0x4f5
 3134 0b05 A80A0000 		.4byte	0xaa8
 3135 0b09 08       		.byte	0x8
 3136 0b0a 0E       		.uleb128 0xe
 3137 0b0b 0B150000 		.4byte	.LASF283
 3138 0b0f 05       		.byte	0x5
ARM GAS  C:\Users\ADMINI~1\AppData\Local\Temp\ccofok6U.s 			page 79


 3139 0b10 F604     		.2byte	0x4f6
 3140 0b12 BA000000 		.4byte	0xba
 3141 0b16 0C       		.byte	0xc
 3142 0b17 0E       		.uleb128 0xe
 3143 0b18 320E0000 		.4byte	.LASF207
 3144 0b1c 05       		.byte	0x5
 3145 0b1d F704     		.2byte	0x4f7
 3146 0b1f FF0C0000 		.4byte	0xcff
 3147 0b23 10       		.byte	0x10
 3148 0b24 0E       		.uleb128 0xe
 3149 0b25 FD090000 		.4byte	.LASF236
 3150 0b29 05       		.byte	0x5
 3151 0b2a F804     		.2byte	0x4f8
 3152 0b2c FF0C0000 		.4byte	0xcff
 3153 0b30 14       		.byte	0x14
 3154 0b31 0E       		.uleb128 0xe
 3155 0b32 F7060000 		.4byte	.LASF284
 3156 0b36 05       		.byte	0x5
 3157 0b37 F904     		.2byte	0x4f9
 3158 0b39 AE010000 		.4byte	0x1ae
 3159 0b3d 18       		.byte	0x18
 3160 0b3e 0F       		.uleb128 0xf
 3161 0b3f 446C7900 		.ascii	"Dly\000"
 3162 0b43 05       		.byte	0x5
 3163 0b44 FA04     		.2byte	0x4fa
 3164 0b46 AE010000 		.4byte	0x1ae
 3165 0b4a 1C       		.byte	0x1c
 3166 0b4b 0E       		.uleb128 0xe
 3167 0b4c CD0B0000 		.4byte	.LASF285
 3168 0b50 05       		.byte	0x5
 3169 0b51 FB04     		.2byte	0x4fb
 3170 0b53 AE010000 		.4byte	0x1ae
 3171 0b57 20       		.byte	0x20
 3172 0b58 0F       		.uleb128 0xf
 3173 0b59 4F707400 		.ascii	"Opt\000"
 3174 0b5d 05       		.byte	0x5
 3175 0b5e FC04     		.2byte	0x4fc
 3176 0b60 61010000 		.4byte	0x161
 3177 0b64 24       		.byte	0x24
 3178 0b65 0E       		.uleb128 0xe
 3179 0b66 34040000 		.4byte	.LASF286
 3180 0b6a 05       		.byte	0x5
 3181 0b6b FD04     		.2byte	0x4fd
 3182 0b6d 98010000 		.4byte	0x198
 3183 0b71 26       		.byte	0x26
 3184 0b72 0E       		.uleb128 0xe
 3185 0b73 EC030000 		.4byte	.LASF224
 3186 0b77 05       		.byte	0x5
 3187 0b78 FF04     		.2byte	0x4ff
 3188 0b7a FF0C0000 		.4byte	0xcff
 3189 0b7e 28       		.byte	0x28
 3190 0b7f 0E       		.uleb128 0xe
 3191 0b80 04040000 		.4byte	.LASF225
 3192 0b84 05       		.byte	0x5
 3193 0b85 0005     		.2byte	0x500
 3194 0b87 FF0C0000 		.4byte	0xcff
 3195 0b8b 2C       		.byte	0x2c
ARM GAS  C:\Users\ADMINI~1\AppData\Local\Temp\ccofok6U.s 			page 80


 3196 0b8c 00       		.byte	0
 3197 0b8d 0C       		.uleb128 0xc
 3198 0b8e B2060000 		.4byte	.LASF287
 3199 0b92 05       		.byte	0x5
 3200 0b93 EC02     		.2byte	0x2ec
 3201 0b95 990B0000 		.4byte	0xb99
 3202 0b99 0D       		.uleb128 0xd
 3203 0b9a 14140000 		.4byte	.LASF288
 3204 0b9e 20       		.byte	0x20
 3205 0b9f 05       		.byte	0x5
 3206 0ba0 2803     		.2byte	0x328
 3207 0ba2 0F0C0000 		.4byte	0xc0f
 3208 0ba6 0E       		.uleb128 0xe
 3209 0ba7 FD090000 		.4byte	.LASF236
 3210 0bab 05       		.byte	0x5
 3211 0bac 2903     		.2byte	0x329
 3212 0bae BE0C0000 		.4byte	0xcbe
 3213 0bb2 00       		.byte	0
 3214 0bb3 0E       		.uleb128 0xe
 3215 0bb4 320E0000 		.4byte	.LASF207
 3216 0bb8 05       		.byte	0x5
 3217 0bb9 2A03     		.2byte	0x32a
 3218 0bbb BE0C0000 		.4byte	0xcbe
 3219 0bbf 04       		.byte	0x4
 3220 0bc0 0E       		.uleb128 0xe
 3221 0bc1 E50B0000 		.4byte	.LASF289
 3222 0bc5 05       		.byte	0x5
 3223 0bc6 2B03     		.2byte	0x32b
 3224 0bc8 B80C0000 		.4byte	0xcb8
 3225 0bcc 08       		.byte	0x8
 3226 0bcd 0E       		.uleb128 0xe
 3227 0bce A1140000 		.4byte	.LASF290
 3228 0bd2 05       		.byte	0x5
 3229 0bd3 2C03     		.2byte	0x32c
 3230 0bd5 C40C0000 		.4byte	0xcc4
 3231 0bd9 0C       		.byte	0xc
 3232 0bda 0E       		.uleb128 0xe
 3233 0bdb 970D0000 		.4byte	.LASF291
 3234 0bdf 05       		.byte	0x5
 3235 0be0 2D03     		.2byte	0x32d
 3236 0be2 C40C0000 		.4byte	0xcc4
 3237 0be6 10       		.byte	0x10
 3238 0be7 0E       		.uleb128 0xe
 3239 0be8 34050000 		.4byte	.LASF292
 3240 0bec 05       		.byte	0x5
 3241 0bed 2E03     		.2byte	0x32e
 3242 0bef BA000000 		.4byte	0xba
 3243 0bf3 14       		.byte	0x14
 3244 0bf4 0E       		.uleb128 0xe
 3245 0bf5 390F0000 		.4byte	.LASF293
 3246 0bf9 05       		.byte	0x5
 3247 0bfa 2F03     		.2byte	0x32f
 3248 0bfc 35010000 		.4byte	0x135
 3249 0c00 18       		.byte	0x18
 3250 0c01 0E       		.uleb128 0xe
 3251 0c02 EC0E0000 		.4byte	.LASF294
 3252 0c06 05       		.byte	0x5
ARM GAS  C:\Users\ADMINI~1\AppData\Local\Temp\ccofok6U.s 			page 81


 3253 0c07 3103     		.2byte	0x331
 3254 0c09 E8000000 		.4byte	0xe8
 3255 0c0d 1C       		.byte	0x1c
 3256 0c0e 00       		.byte	0
 3257 0c0f 0C       		.uleb128 0xc
 3258 0c10 69130000 		.4byte	.LASF295
 3259 0c14 05       		.byte	0x5
 3260 0c15 ED02     		.2byte	0x2ed
 3261 0c17 1B0C0000 		.4byte	0xc1b
 3262 0c1b 0D       		.uleb128 0xd
 3263 0c1c BA140000 		.4byte	.LASF296
 3264 0c20 0C       		.byte	0xc
 3265 0c21 05       		.byte	0x5
 3266 0c22 3603     		.2byte	0x336
 3267 0c24 500C0000 		.4byte	0xc50
 3268 0c28 0E       		.uleb128 0xe
 3269 0c29 AB100000 		.4byte	.LASF297
 3270 0c2d 05       		.byte	0x5
 3271 0c2e 3703     		.2byte	0x337
 3272 0c30 BE0C0000 		.4byte	0xcbe
 3273 0c34 00       		.byte	0
 3274 0c35 0E       		.uleb128 0xe
 3275 0c36 D5040000 		.4byte	.LASF298
 3276 0c3a 05       		.byte	0x5
 3277 0c3b 3803     		.2byte	0x338
 3278 0c3d BE0C0000 		.4byte	0xcbe
 3279 0c41 04       		.byte	0x4
 3280 0c42 0E       		.uleb128 0xe
 3281 0c43 A8010000 		.4byte	.LASF217
 3282 0c47 05       		.byte	0x5
 3283 0c48 3A03     		.2byte	0x33a
 3284 0c4a 4B010000 		.4byte	0x14b
 3285 0c4e 08       		.byte	0x8
 3286 0c4f 00       		.byte	0
 3287 0c50 0C       		.uleb128 0xc
 3288 0c51 23100000 		.4byte	.LASF299
 3289 0c55 05       		.byte	0x5
 3290 0c56 EE02     		.2byte	0x2ee
 3291 0c58 5C0C0000 		.4byte	0xc5c
 3292 0c5c 0D       		.uleb128 0xd
 3293 0c5d 3E050000 		.4byte	.LASF300
 3294 0c61 20       		.byte	0x20
 3295 0c62 05       		.byte	0x5
 3296 0c63 4E03     		.2byte	0x34e
 3297 0c65 B80C0000 		.4byte	0xcb8
 3298 0c69 0E       		.uleb128 0xe
 3299 0c6a 240B0000 		.4byte	.LASF221
 3300 0c6e 05       		.byte	0x5
 3301 0c6f 5003     		.2byte	0x350
 3302 0c71 56010000 		.4byte	0x156
 3303 0c75 00       		.byte	0
 3304 0c76 0E       		.uleb128 0xe
 3305 0c77 080B0000 		.4byte	.LASF222
 3306 0c7b 05       		.byte	0x5
 3307 0c7c 5303     		.2byte	0x353
 3308 0c7e CA0C0000 		.4byte	0xcca
 3309 0c82 04       		.byte	0x4
ARM GAS  C:\Users\ADMINI~1\AppData\Local\Temp\ccofok6U.s 			page 82


 3310 0c83 0E       		.uleb128 0xe
 3311 0c84 5A100000 		.4byte	.LASF223
 3312 0c88 05       		.byte	0x5
 3313 0c89 5503     		.2byte	0x355
 3314 0c8b 0F0C0000 		.4byte	0xc0f
 3315 0c8f 08       		.byte	0x8
 3316 0c90 0E       		.uleb128 0xe
 3317 0c91 EC030000 		.4byte	.LASF224
 3318 0c95 05       		.byte	0x5
 3319 0c96 5703     		.2byte	0x357
 3320 0c98 BA000000 		.4byte	0xba
 3321 0c9c 14       		.byte	0x14
 3322 0c9d 0E       		.uleb128 0xe
 3323 0c9e 04040000 		.4byte	.LASF225
 3324 0ca2 05       		.byte	0x5
 3325 0ca3 5803     		.2byte	0x358
 3326 0ca5 BA000000 		.4byte	0xba
 3327 0ca9 18       		.byte	0x18
 3328 0caa 0E       		.uleb128 0xe
 3329 0cab DB120000 		.4byte	.LASF226
 3330 0caf 05       		.byte	0x5
 3331 0cb0 5903     		.2byte	0x359
 3332 0cb2 CA0C0000 		.4byte	0xcca
 3333 0cb6 1C       		.byte	0x1c
 3334 0cb7 00       		.byte	0
 3335 0cb8 05       		.uleb128 0x5
 3336 0cb9 04       		.byte	0x4
 3337 0cba B7070000 		.4byte	0x7b7
 3338 0cbe 05       		.uleb128 0x5
 3339 0cbf 04       		.byte	0x4
 3340 0cc0 8D0B0000 		.4byte	0xb8d
 3341 0cc4 05       		.uleb128 0x5
 3342 0cc5 04       		.byte	0x4
 3343 0cc6 500C0000 		.4byte	0xc50
 3344 0cca 05       		.uleb128 0x5
 3345 0ccb 04       		.byte	0x4
 3346 0ccc 25000000 		.4byte	0x25
 3347 0cd0 05       		.uleb128 0x5
 3348 0cd1 04       		.byte	0x4
 3349 0cd2 67060000 		.4byte	0x667
 3350 0cd6 05       		.uleb128 0x5
 3351 0cd7 04       		.byte	0x4
 3352 0cd8 10070000 		.4byte	0x710
 3353 0cdc 05       		.uleb128 0x5
 3354 0cdd 04       		.byte	0x4
 3355 0cde C7000000 		.4byte	0xc7
 3356 0ce2 05       		.uleb128 0x5
 3357 0ce3 04       		.byte	0x4
 3358 0ce4 670A0000 		.4byte	0xa67
 3359 0ce8 10       		.uleb128 0x10
 3360 0ce9 82010000 		.4byte	0x182
 3361 0ced F80C0000 		.4byte	0xcf8
 3362 0cf1 11       		.uleb128 0x11
 3363 0cf2 F80C0000 		.4byte	0xcf8
 3364 0cf6 00       		.byte	0
 3365 0cf7 00       		.byte	0
 3366 0cf8 03       		.uleb128 0x3
ARM GAS  C:\Users\ADMINI~1\AppData\Local\Temp\ccofok6U.s 			page 83


 3367 0cf9 04       		.byte	0x4
 3368 0cfa 07       		.byte	0x7
 3369 0cfb 4E110000 		.4byte	.LASF301
 3370 0cff 05       		.uleb128 0x5
 3371 0d00 04       		.byte	0x4
 3372 0d01 CA0A0000 		.4byte	0xaca
 3373 0d05 12       		.uleb128 0x12
 3374 0d06 E4090000 		.4byte	.LASF308
 3375 0d0a 01       		.byte	0x1
 3376 0d0b 69       		.byte	0x69
 3377 0d0c 00000000 		.4byte	.LFB0
 3378 0d10 1C010000 		.4byte	.LFE0-.LFB0
 3379 0d14 01       		.uleb128 0x1
 3380 0d15 9C       		.byte	0x9c
 3381 0d16 8B0D0000 		.4byte	0xd8b
 3382 0d1a 13       		.uleb128 0x13
 3383 0d1b E2150000 		.4byte	.LASF302
 3384 0d1f 01       		.byte	0x1
 3385 0d20 69       		.byte	0x69
 3386 0d21 FF0C0000 		.4byte	0xcff
 3387 0d25 02       		.uleb128 0x2
 3388 0d26 91       		.byte	0x91
 3389 0d27 74       		.sleb128 -12
 3390 0d28 13       		.uleb128 0x13
 3391 0d29 82090000 		.4byte	.LASF303
 3392 0d2d 01       		.byte	0x1
 3393 0d2e 6A       		.byte	0x6a
 3394 0d2f CA0C0000 		.4byte	0xcca
 3395 0d33 02       		.uleb128 0x2
 3396 0d34 91       		.byte	0x91
 3397 0d35 70       		.sleb128 -16
 3398 0d36 14       		.uleb128 0x14
 3399 0d37 646C7900 		.ascii	"dly\000"
 3400 0d3b 01       		.byte	0x1
 3401 0d3c 6B       		.byte	0x6b
 3402 0d3d AE010000 		.4byte	0x1ae
 3403 0d41 02       		.uleb128 0x2
 3404 0d42 91       		.byte	0x91
 3405 0d43 6C       		.sleb128 -20
 3406 0d44 13       		.uleb128 0x13
 3407 0d45 9D130000 		.4byte	.LASF304
 3408 0d49 01       		.byte	0x1
 3409 0d4a 6C       		.byte	0x6c
 3410 0d4b AE010000 		.4byte	0x1ae
 3411 0d4f 02       		.uleb128 0x2
 3412 0d50 91       		.byte	0x91
 3413 0d51 68       		.sleb128 -24
 3414 0d52 14       		.uleb128 0x14
 3415 0d53 6F707400 		.ascii	"opt\000"
 3416 0d57 01       		.byte	0x1
 3417 0d58 6D       		.byte	0x6d
 3418 0d59 61010000 		.4byte	0x161
 3419 0d5d 02       		.uleb128 0x2
 3420 0d5e 91       		.byte	0x91
 3421 0d5f 00       		.sleb128 0
 3422 0d60 13       		.uleb128 0x13
 3423 0d61 38070000 		.4byte	.LASF305
ARM GAS  C:\Users\ADMINI~1\AppData\Local\Temp\ccofok6U.s 			page 84


 3424 0d65 01       		.byte	0x1
 3425 0d66 6E       		.byte	0x6e
 3426 0d67 A80A0000 		.4byte	0xaa8
 3427 0d6b 02       		.uleb128 0x2
 3428 0d6c 91       		.byte	0x91
 3429 0d6d 04       		.sleb128 4
 3430 0d6e 13       		.uleb128 0x13
 3431 0d6f AE020000 		.4byte	.LASF306
 3432 0d73 01       		.byte	0x1
 3433 0d74 6F       		.byte	0x6f
 3434 0d75 BA000000 		.4byte	0xba
 3435 0d79 02       		.uleb128 0x2
 3436 0d7a 91       		.byte	0x91
 3437 0d7b 08       		.sleb128 8
 3438 0d7c 13       		.uleb128 0x13
 3439 0d7d DE090000 		.4byte	.LASF307
 3440 0d81 01       		.byte	0x1
 3441 0d82 70       		.byte	0x70
 3442 0d83 8B0D0000 		.4byte	0xd8b
 3443 0d87 02       		.uleb128 0x2
 3444 0d88 91       		.byte	0x91
 3445 0d89 0C       		.sleb128 12
 3446 0d8a 00       		.byte	0
 3447 0d8b 05       		.uleb128 0x5
 3448 0d8c 04       		.byte	0x4
 3449 0d8d 5B060000 		.4byte	0x65b
 3450 0d91 15       		.uleb128 0x15
 3451 0d92 CB150000 		.4byte	.LASF310
 3452 0d96 01       		.byte	0x1
 3453 0d97 6001     		.2byte	0x160
 3454 0d99 AE010000 		.4byte	0x1ae
 3455 0d9d 00000000 		.4byte	.LFB1
 3456 0da1 D0000000 		.4byte	.LFE1-.LFB1
 3457 0da5 01       		.uleb128 0x1
 3458 0da6 9C       		.byte	0x9c
 3459 0da7 D90D0000 		.4byte	0xdd9
 3460 0dab 16       		.uleb128 0x16
 3461 0dac E2150000 		.4byte	.LASF302
 3462 0db0 01       		.byte	0x1
 3463 0db1 6001     		.2byte	0x160
 3464 0db3 FF0C0000 		.4byte	0xcff
 3465 0db7 02       		.uleb128 0x2
 3466 0db8 91       		.byte	0x91
 3467 0db9 6C       		.sleb128 -20
 3468 0dba 16       		.uleb128 0x16
 3469 0dbb DE090000 		.4byte	.LASF307
 3470 0dbf 01       		.byte	0x1
 3471 0dc0 6101     		.2byte	0x161
 3472 0dc2 8B0D0000 		.4byte	0xd8b
 3473 0dc6 02       		.uleb128 0x2
 3474 0dc7 91       		.byte	0x91
 3475 0dc8 68       		.sleb128 -24
 3476 0dc9 17       		.uleb128 0x17
 3477 0dca 7D0E0000 		.4byte	.LASF312
 3478 0dce 01       		.byte	0x1
 3479 0dcf 6301     		.2byte	0x163
 3480 0dd1 AE010000 		.4byte	0x1ae
ARM GAS  C:\Users\ADMINI~1\AppData\Local\Temp\ccofok6U.s 			page 85


 3481 0dd5 02       		.uleb128 0x2
 3482 0dd6 91       		.byte	0x91
 3483 0dd7 74       		.sleb128 -12
 3484 0dd8 00       		.byte	0
 3485 0dd9 18       		.uleb128 0x18
 3486 0dda 45110000 		.4byte	.LASF309
 3487 0dde 01       		.byte	0x1
 3488 0ddf DF01     		.2byte	0x1df
 3489 0de1 00000000 		.4byte	.LFB2
 3490 0de5 B4000000 		.4byte	.LFE2-.LFB2
 3491 0de9 01       		.uleb128 0x1
 3492 0dea 9C       		.byte	0x9c
 3493 0deb 4A0E0000 		.4byte	0xe4a
 3494 0def 16       		.uleb128 0x16
 3495 0df0 E2150000 		.4byte	.LASF302
 3496 0df4 01       		.byte	0x1
 3497 0df5 DF01     		.2byte	0x1df
 3498 0df7 FF0C0000 		.4byte	0xcff
 3499 0dfb 02       		.uleb128 0x2
 3500 0dfc 91       		.byte	0x91
 3501 0dfd 74       		.sleb128 -12
 3502 0dfe 19       		.uleb128 0x19
 3503 0dff 646C7900 		.ascii	"dly\000"
 3504 0e03 01       		.byte	0x1
 3505 0e04 E001     		.2byte	0x1e0
 3506 0e06 AE010000 		.4byte	0x1ae
 3507 0e0a 02       		.uleb128 0x2
 3508 0e0b 91       		.byte	0x91
 3509 0e0c 70       		.sleb128 -16
 3510 0e0d 16       		.uleb128 0x16
 3511 0e0e 9D130000 		.4byte	.LASF304
 3512 0e12 01       		.byte	0x1
 3513 0e13 E101     		.2byte	0x1e1
 3514 0e15 AE010000 		.4byte	0x1ae
 3515 0e19 02       		.uleb128 0x2
 3516 0e1a 91       		.byte	0x91
 3517 0e1b 6C       		.sleb128 -20
 3518 0e1c 16       		.uleb128 0x16
 3519 0e1d 38070000 		.4byte	.LASF305
 3520 0e21 01       		.byte	0x1
 3521 0e22 E201     		.2byte	0x1e2
 3522 0e24 A80A0000 		.4byte	0xaa8
 3523 0e28 02       		.uleb128 0x2
 3524 0e29 91       		.byte	0x91
 3525 0e2a 68       		.sleb128 -24
 3526 0e2b 16       		.uleb128 0x16
 3527 0e2c AE020000 		.4byte	.LASF306
 3528 0e30 01       		.byte	0x1
 3529 0e31 E301     		.2byte	0x1e3
 3530 0e33 BA000000 		.4byte	0xba
 3531 0e37 02       		.uleb128 0x2
 3532 0e38 91       		.byte	0x91
 3533 0e39 00       		.sleb128 0
 3534 0e3a 16       		.uleb128 0x16
 3535 0e3b DE090000 		.4byte	.LASF307
 3536 0e3f 01       		.byte	0x1
 3537 0e40 E401     		.2byte	0x1e4
ARM GAS  C:\Users\ADMINI~1\AppData\Local\Temp\ccofok6U.s 			page 86


 3538 0e42 8B0D0000 		.4byte	0xd8b
 3539 0e46 02       		.uleb128 0x2
 3540 0e47 91       		.byte	0x91
 3541 0e48 04       		.sleb128 4
 3542 0e49 00       		.byte	0
 3543 0e4a 15       		.uleb128 0x15
 3544 0e4b 29050000 		.4byte	.LASF311
 3545 0e4f 01       		.byte	0x1
 3546 0e50 4E02     		.2byte	0x24e
 3547 0e52 37000000 		.4byte	0x37
 3548 0e56 00000000 		.4byte	.LFB3
 3549 0e5a 34010000 		.4byte	.LFE3-.LFB3
 3550 0e5e 01       		.uleb128 0x1
 3551 0e5f 9C       		.byte	0x9c
 3552 0e60 A10E0000 		.4byte	0xea1
 3553 0e64 16       		.uleb128 0x16
 3554 0e65 E2150000 		.4byte	.LASF302
 3555 0e69 01       		.byte	0x1
 3556 0e6a 4E02     		.2byte	0x24e
 3557 0e6c FF0C0000 		.4byte	0xcff
 3558 0e70 02       		.uleb128 0x2
 3559 0e71 91       		.byte	0x91
 3560 0e72 6C       		.sleb128 -20
 3561 0e73 16       		.uleb128 0x16
 3562 0e74 DE090000 		.4byte	.LASF307
 3563 0e78 01       		.byte	0x1
 3564 0e79 4F02     		.2byte	0x24f
 3565 0e7b 8B0D0000 		.4byte	0xd8b
 3566 0e7f 02       		.uleb128 0x2
 3567 0e80 91       		.byte	0x91
 3568 0e81 68       		.sleb128 -24
 3569 0e82 17       		.uleb128 0x17
 3570 0e83 2F100000 		.4byte	.LASF313
 3571 0e87 01       		.byte	0x1
 3572 0e88 5102     		.2byte	0x251
 3573 0e8a FF0C0000 		.4byte	0xcff
 3574 0e8e 02       		.uleb128 0x2
 3575 0e8f 91       		.byte	0x91
 3576 0e90 70       		.sleb128 -16
 3577 0e91 17       		.uleb128 0x17
 3578 0e92 B3100000 		.4byte	.LASF314
 3579 0e96 01       		.byte	0x1
 3580 0e97 5202     		.2byte	0x252
 3581 0e99 37000000 		.4byte	0x37
 3582 0e9d 02       		.uleb128 0x2
 3583 0e9e 91       		.byte	0x91
 3584 0e9f 77       		.sleb128 -9
 3585 0ea0 00       		.byte	0
 3586 0ea1 15       		.uleb128 0x15
 3587 0ea2 06140000 		.4byte	.LASF315
 3588 0ea6 01       		.byte	0x1
 3589 0ea7 CC02     		.2byte	0x2cc
 3590 0ea9 98010000 		.4byte	0x198
 3591 0ead 00000000 		.4byte	.LFB4
 3592 0eb1 7C000000 		.4byte	.LFE4-.LFB4
 3593 0eb5 01       		.uleb128 0x1
 3594 0eb6 9C       		.byte	0x9c
ARM GAS  C:\Users\ADMINI~1\AppData\Local\Temp\ccofok6U.s 			page 87


 3595 0eb7 E90E0000 		.4byte	0xee9
 3596 0ebb 16       		.uleb128 0x16
 3597 0ebc E2150000 		.4byte	.LASF302
 3598 0ec0 01       		.byte	0x1
 3599 0ec1 CC02     		.2byte	0x2cc
 3600 0ec3 FF0C0000 		.4byte	0xcff
 3601 0ec7 02       		.uleb128 0x2
 3602 0ec8 91       		.byte	0x91
 3603 0ec9 6C       		.sleb128 -20
 3604 0eca 16       		.uleb128 0x16
 3605 0ecb DE090000 		.4byte	.LASF307
 3606 0ecf 01       		.byte	0x1
 3607 0ed0 CD02     		.2byte	0x2cd
 3608 0ed2 8B0D0000 		.4byte	0xd8b
 3609 0ed6 02       		.uleb128 0x2
 3610 0ed7 91       		.byte	0x91
 3611 0ed8 68       		.sleb128 -24
 3612 0ed9 17       		.uleb128 0x17
 3613 0eda 08130000 		.4byte	.LASF316
 3614 0ede 01       		.byte	0x1
 3615 0edf CF02     		.2byte	0x2cf
 3616 0ee1 98010000 		.4byte	0x198
 3617 0ee5 02       		.uleb128 0x2
 3618 0ee6 91       		.byte	0x91
 3619 0ee7 77       		.sleb128 -9
 3620 0ee8 00       		.byte	0
 3621 0ee9 15       		.uleb128 0x15
 3622 0eea DA050000 		.4byte	.LASF317
 3623 0eee 01       		.byte	0x1
 3624 0eef 3403     		.2byte	0x334
 3625 0ef1 37000000 		.4byte	0x37
 3626 0ef5 00000000 		.4byte	.LFB5
 3627 0ef9 48010000 		.4byte	.LFE5-.LFB5
 3628 0efd 01       		.uleb128 0x1
 3629 0efe 9C       		.byte	0x9c
 3630 0eff 5E0F0000 		.4byte	0xf5e
 3631 0f03 16       		.uleb128 0x16
 3632 0f04 E2150000 		.4byte	.LASF302
 3633 0f08 01       		.byte	0x1
 3634 0f09 3403     		.2byte	0x334
 3635 0f0b FF0C0000 		.4byte	0xcff
 3636 0f0f 02       		.uleb128 0x2
 3637 0f10 91       		.byte	0x91
 3638 0f11 6C       		.sleb128 -20
 3639 0f12 19       		.uleb128 0x19
 3640 0f13 6F707400 		.ascii	"opt\000"
 3641 0f17 01       		.byte	0x1
 3642 0f18 3503     		.2byte	0x335
 3643 0f1a 61010000 		.4byte	0x161
 3644 0f1e 02       		.uleb128 0x2
 3645 0f1f 91       		.byte	0x91
 3646 0f20 6A       		.sleb128 -22
 3647 0f21 16       		.uleb128 0x16
 3648 0f22 AE020000 		.4byte	.LASF306
 3649 0f26 01       		.byte	0x1
 3650 0f27 3603     		.2byte	0x336
 3651 0f29 BA000000 		.4byte	0xba
ARM GAS  C:\Users\ADMINI~1\AppData\Local\Temp\ccofok6U.s 			page 88


 3652 0f2d 02       		.uleb128 0x2
 3653 0f2e 91       		.byte	0x91
 3654 0f2f 64       		.sleb128 -28
 3655 0f30 16       		.uleb128 0x16
 3656 0f31 DE090000 		.4byte	.LASF307
 3657 0f35 01       		.byte	0x1
 3658 0f36 3703     		.2byte	0x337
 3659 0f38 8B0D0000 		.4byte	0xd8b
 3660 0f3c 02       		.uleb128 0x2
 3661 0f3d 91       		.byte	0x91
 3662 0f3e 60       		.sleb128 -32
 3663 0f3f 17       		.uleb128 0x17
 3664 0f40 7B070000 		.4byte	.LASF318
 3665 0f44 01       		.byte	0x1
 3666 0f45 3903     		.2byte	0x339
 3667 0f47 A80A0000 		.4byte	0xaa8
 3668 0f4b 02       		.uleb128 0x2
 3669 0f4c 91       		.byte	0x91
 3670 0f4d 70       		.sleb128 -16
 3671 0f4e 17       		.uleb128 0x17
 3672 0f4f B3100000 		.4byte	.LASF314
 3673 0f53 01       		.byte	0x1
 3674 0f54 3A03     		.2byte	0x33a
 3675 0f56 37000000 		.4byte	0x37
 3676 0f5a 02       		.uleb128 0x2
 3677 0f5b 91       		.byte	0x91
 3678 0f5c 77       		.sleb128 -9
 3679 0f5d 00       		.byte	0
 3680 0f5e 1A       		.uleb128 0x1a
 3681 0f5f 4A050000 		.4byte	.LASF319
 3682 0f63 01       		.byte	0x1
 3683 0f64 AD03     		.2byte	0x3ad
 3684 0f66 00000000 		.4byte	.LFB6
 3685 0f6a 5C000000 		.4byte	.LFE6-.LFB6
 3686 0f6e 01       		.uleb128 0x1
 3687 0f6f 9C       		.byte	0x9c
 3688 0f70 840F0000 		.4byte	0xf84
 3689 0f74 16       		.uleb128 0x16
 3690 0f75 E2150000 		.4byte	.LASF302
 3691 0f79 01       		.byte	0x1
 3692 0f7a AD03     		.2byte	0x3ad
 3693 0f7c FF0C0000 		.4byte	0xcff
 3694 0f80 02       		.uleb128 0x2
 3695 0f81 91       		.byte	0x91
 3696 0f82 74       		.sleb128 -12
 3697 0f83 00       		.byte	0
 3698 0f84 1A       		.uleb128 0x1a
 3699 0f85 D40B0000 		.4byte	.LASF320
 3700 0f89 01       		.byte	0x1
 3701 0f8a D103     		.2byte	0x3d1
 3702 0f8c 00000000 		.4byte	.LFB7
 3703 0f90 40000000 		.4byte	.LFE7-.LFB7
 3704 0f94 01       		.uleb128 0x1
 3705 0f95 9C       		.byte	0x9c
 3706 0f96 AA0F0000 		.4byte	0xfaa
 3707 0f9a 16       		.uleb128 0x16
 3708 0f9b E2150000 		.4byte	.LASF302
ARM GAS  C:\Users\ADMINI~1\AppData\Local\Temp\ccofok6U.s 			page 89


 3709 0f9f 01       		.byte	0x1
 3710 0fa0 D103     		.2byte	0x3d1
 3711 0fa2 FF0C0000 		.4byte	0xcff
 3712 0fa6 02       		.uleb128 0x2
 3713 0fa7 91       		.byte	0x91
 3714 0fa8 74       		.sleb128 -12
 3715 0fa9 00       		.byte	0
 3716 0faa 1A       		.uleb128 0x1a
 3717 0fab B3110000 		.4byte	.LASF321
 3718 0faf 01       		.byte	0x1
 3719 0fb0 DF03     		.2byte	0x3df
 3720 0fb2 00000000 		.4byte	.LFB8
 3721 0fb6 6C000000 		.4byte	.LFE8-.LFB8
 3722 0fba 01       		.uleb128 0x1
 3723 0fbb 9C       		.byte	0x9c
 3724 0fbc EE0F0000 		.4byte	0xfee
 3725 0fc0 16       		.uleb128 0x16
 3726 0fc1 E2150000 		.4byte	.LASF302
 3727 0fc5 01       		.byte	0x1
 3728 0fc6 DF03     		.2byte	0x3df
 3729 0fc8 FF0C0000 		.4byte	0xcff
 3730 0fcc 02       		.uleb128 0x2
 3731 0fcd 91       		.byte	0x91
 3732 0fce 6C       		.sleb128 -20
 3733 0fcf 17       		.uleb128 0x17
 3734 0fd0 D1080000 		.4byte	.LASF322
 3735 0fd4 01       		.byte	0x1
 3736 0fd5 E103     		.2byte	0x3e1
 3737 0fd7 FF0C0000 		.4byte	0xcff
 3738 0fdb 02       		.uleb128 0x2
 3739 0fdc 91       		.byte	0x91
 3740 0fdd 70       		.sleb128 -16
 3741 0fde 17       		.uleb128 0x17
 3742 0fdf 480A0000 		.4byte	.LASF323
 3743 0fe3 01       		.byte	0x1
 3744 0fe4 E203     		.2byte	0x3e2
 3745 0fe6 FF0C0000 		.4byte	0xcff
 3746 0fea 02       		.uleb128 0x2
 3747 0feb 91       		.byte	0x91
 3748 0fec 74       		.sleb128 -12
 3749 0fed 00       		.byte	0
 3750 0fee 18       		.uleb128 0x18
 3751 0fef F3040000 		.4byte	.LASF324
 3752 0ff3 01       		.byte	0x1
 3753 0ff4 1104     		.2byte	0x411
 3754 0ff6 00000000 		.4byte	.LFB9
 3755 0ffa 50010000 		.4byte	.LFE9-.LFB9
 3756 0ffe 01       		.uleb128 0x1
 3757 0fff 9C       		.byte	0x9c
 3758 1000 14100000 		.4byte	0x1014
 3759 1004 16       		.uleb128 0x16
 3760 1005 DE090000 		.4byte	.LASF307
 3761 1009 01       		.byte	0x1
 3762 100a 1104     		.2byte	0x411
 3763 100c 8B0D0000 		.4byte	0xd8b
 3764 1010 02       		.uleb128 0x2
 3765 1011 91       		.byte	0x91
ARM GAS  C:\Users\ADMINI~1\AppData\Local\Temp\ccofok6U.s 			page 90


 3766 1012 64       		.sleb128 -28
 3767 1013 00       		.byte	0
 3768 1014 1A       		.uleb128 0x1a
 3769 1015 DF100000 		.4byte	.LASF325
 3770 1019 01       		.byte	0x1
 3771 101a 6104     		.2byte	0x461
 3772 101c 00000000 		.4byte	.LFB10
 3773 1020 7C000000 		.4byte	.LFE10-.LFB10
 3774 1024 01       		.uleb128 0x1
 3775 1025 9C       		.byte	0x9c
 3776 1026 58100000 		.4byte	0x1058
 3777 102a 16       		.uleb128 0x16
 3778 102b E2150000 		.4byte	.LASF302
 3779 102f 01       		.byte	0x1
 3780 1030 6104     		.2byte	0x461
 3781 1032 FF0C0000 		.4byte	0xcff
 3782 1036 02       		.uleb128 0x2
 3783 1037 91       		.byte	0x91
 3784 1038 6C       		.sleb128 -20
 3785 1039 17       		.uleb128 0x17
 3786 103a 1D130000 		.4byte	.LASF326
 3787 103e 01       		.byte	0x1
 3788 103f 6304     		.2byte	0x463
 3789 1041 FF0C0000 		.4byte	0xcff
 3790 1045 02       		.uleb128 0x2
 3791 1046 91       		.byte	0x91
 3792 1047 74       		.sleb128 -12
 3793 1048 17       		.uleb128 0x17
 3794 1049 7A0B0000 		.4byte	.LASF327
 3795 104d 01       		.byte	0x1
 3796 104e 6404     		.2byte	0x464
 3797 1050 FF0C0000 		.4byte	0xcff
 3798 1054 02       		.uleb128 0x2
 3799 1055 91       		.byte	0x91
 3800 1056 70       		.sleb128 -16
 3801 1057 00       		.byte	0
 3802 1058 18       		.uleb128 0x18
 3803 1059 30000000 		.4byte	.LASF328
 3804 105d 01       		.byte	0x1
 3805 105e 8C04     		.2byte	0x48c
 3806 1060 00000000 		.4byte	.LFB11
 3807 1064 D4000000 		.4byte	.LFE11-.LFB11
 3808 1068 01       		.uleb128 0x1
 3809 1069 9C       		.byte	0x9c
 3810 106a E6100000 		.4byte	0x10e6
 3811 106e 16       		.uleb128 0x16
 3812 106f 38110000 		.4byte	.LASF329
 3813 1073 01       		.byte	0x1
 3814 1074 8C04     		.2byte	0x48c
 3815 1076 BA000000 		.4byte	0xba
 3816 107a 02       		.uleb128 0x2
 3817 107b 91       		.byte	0x91
 3818 107c 54       		.sleb128 -44
 3819 107d 1B       		.uleb128 0x1b
 3820 107e 65727200 		.ascii	"err\000"
 3821 1082 01       		.byte	0x1
 3822 1083 8E04     		.2byte	0x48e
ARM GAS  C:\Users\ADMINI~1\AppData\Local\Temp\ccofok6U.s 			page 91


 3823 1085 5B060000 		.4byte	0x65b
 3824 1089 02       		.uleb128 0x2
 3825 108a 91       		.byte	0x91
 3826 108b 62       		.sleb128 -30
 3827 108c 17       		.uleb128 0x17
 3828 108d 7B070000 		.4byte	.LASF318
 3829 1091 01       		.byte	0x1
 3830 1092 8F04     		.2byte	0x48f
 3831 1094 A80A0000 		.4byte	0xaa8
 3832 1098 02       		.uleb128 0x2
 3833 1099 91       		.byte	0x91
 3834 109a 64       		.sleb128 -28
 3835 109b 17       		.uleb128 0x17
 3836 109c E2150000 		.4byte	.LASF302
 3837 10a0 01       		.byte	0x1
 3838 10a1 9004     		.2byte	0x490
 3839 10a3 FF0C0000 		.4byte	0xcff
 3840 10a7 02       		.uleb128 0x2
 3841 10a8 91       		.byte	0x91
 3842 10a9 74       		.sleb128 -12
 3843 10aa 17       		.uleb128 0x17
 3844 10ab D1080000 		.4byte	.LASF322
 3845 10af 01       		.byte	0x1
 3846 10b0 9104     		.2byte	0x491
 3847 10b2 FF0C0000 		.4byte	0xcff
 3848 10b6 02       		.uleb128 0x2
 3849 10b7 91       		.byte	0x91
 3850 10b8 68       		.sleb128 -24
 3851 10b9 1B       		.uleb128 0x1b
 3852 10ba 747300   		.ascii	"ts\000"
 3853 10bd 01       		.byte	0x1
 3854 10be 9304     		.2byte	0x493
 3855 10c0 E8000000 		.4byte	0xe8
 3856 10c4 02       		.uleb128 0x2
 3857 10c5 91       		.byte	0x91
 3858 10c6 5C       		.sleb128 -36
 3859 10c7 17       		.uleb128 0x17
 3860 10c8 79040000 		.4byte	.LASF330
 3861 10cc 01       		.byte	0x1
 3862 10cd 9604     		.2byte	0x496
 3863 10cf E8000000 		.4byte	0xe8
 3864 10d3 02       		.uleb128 0x2
 3865 10d4 91       		.byte	0x91
 3866 10d5 70       		.sleb128 -16
 3867 10d6 17       		.uleb128 0x17
 3868 10d7 18070000 		.4byte	.LASF331
 3869 10db 01       		.byte	0x1
 3870 10dc 9704     		.2byte	0x497
 3871 10de E8000000 		.4byte	0xe8
 3872 10e2 02       		.uleb128 0x2
 3873 10e3 91       		.byte	0x91
 3874 10e4 6C       		.sleb128 -20
 3875 10e5 00       		.byte	0
 3876 10e6 1C       		.uleb128 0x1c
 3877 10e7 86130000 		.4byte	.LASF332
 3878 10eb 01       		.byte	0x1
 3879 10ec E304     		.2byte	0x4e3
ARM GAS  C:\Users\ADMINI~1\AppData\Local\Temp\ccofok6U.s 			page 92


 3880 10ee 00000000 		.4byte	.LFB12
 3881 10f2 24000000 		.4byte	.LFE12-.LFB12
 3882 10f6 01       		.uleb128 0x1
 3883 10f7 9C       		.byte	0x9c
 3884 10f8 1A110000 		.4byte	0x111a
 3885 10fc 1B       		.uleb128 0x1b
 3886 10fd 65727200 		.ascii	"err\000"
 3887 1101 01       		.byte	0x1
 3888 1102 E504     		.2byte	0x4e5
 3889 1104 5B060000 		.4byte	0x65b
 3890 1108 02       		.uleb128 0x2
 3891 1109 91       		.byte	0x91
 3892 110a 76       		.sleb128 -10
 3893 110b 1B       		.uleb128 0x1b
 3894 110c 747300   		.ascii	"ts\000"
 3895 110f 01       		.byte	0x1
 3896 1110 E704     		.2byte	0x4e7
 3897 1112 E8000000 		.4byte	0xe8
 3898 1116 02       		.uleb128 0x2
 3899 1117 91       		.byte	0x91
 3900 1118 70       		.sleb128 -16
 3901 1119 00       		.byte	0
 3902 111a 1C       		.uleb128 0x1c
 3903 111b 160A0000 		.4byte	.LASF333
 3904 111f 01       		.byte	0x1
 3905 1120 F804     		.2byte	0x4f8
 3906 1122 00000000 		.4byte	.LFB13
 3907 1126 20000000 		.4byte	.LFE13-.LFB13
 3908 112a 01       		.uleb128 0x1
 3909 112b 9C       		.byte	0x9c
 3910 112c 40110000 		.4byte	0x1140
 3911 1130 1B       		.uleb128 0x1b
 3912 1131 65727200 		.ascii	"err\000"
 3913 1135 01       		.byte	0x1
 3914 1136 FA04     		.2byte	0x4fa
 3915 1138 5B060000 		.4byte	0x65b
 3916 113c 02       		.uleb128 0x2
 3917 113d 91       		.byte	0x91
 3918 113e 76       		.sleb128 -10
 3919 113f 00       		.byte	0
 3920 1140 1D       		.uleb128 0x1d
 3921 1141 6D0E0000 		.4byte	.LASF334
 3922 1145 05       		.byte	0x5
 3923 1146 2405     		.2byte	0x524
 3924 1148 40010000 		.4byte	0x140
 3925 114c 1D       		.uleb128 0x1d
 3926 114d A90B0000 		.4byte	.LASF335
 3927 1151 05       		.byte	0x5
 3928 1152 2B05     		.2byte	0x52b
 3929 1154 98010000 		.4byte	0x198
 3930 1158 1D       		.uleb128 0x1d
 3931 1159 76130000 		.4byte	.LASF336
 3932 115d 05       		.byte	0x5
 3933 115e BE05     		.2byte	0x5be
 3934 1160 FF0C0000 		.4byte	0xcff
 3935 1164 1D       		.uleb128 0x1d
 3936 1165 89100000 		.4byte	.LASF337
ARM GAS  C:\Users\ADMINI~1\AppData\Local\Temp\ccofok6U.s 			page 93


 3937 1169 05       		.byte	0x5
 3938 116a BF05     		.2byte	0x5bf
 3939 116c 4B010000 		.4byte	0x14b
 3940 1170 1D       		.uleb128 0x1d
 3941 1171 DA010000 		.4byte	.LASF338
 3942 1175 05       		.byte	0x5
 3943 1176 C105     		.2byte	0x5c1
 3944 1178 FF0C0000 		.4byte	0xcff
 3945 117c 1D       		.uleb128 0x1d
 3946 117d 82040000 		.4byte	.LASF339
 3947 1181 05       		.byte	0x5
 3948 1182 C305     		.2byte	0x5c3
 3949 1184 10070000 		.4byte	0x710
 3950 1188 1D       		.uleb128 0x1d
 3951 1189 84120000 		.4byte	.LASF340
 3952 118d 05       		.byte	0x5
 3953 118e C605     		.2byte	0x5c6
 3954 1190 4B010000 		.4byte	0x14b
 3955 1194 1D       		.uleb128 0x1d
 3956 1195 A0030000 		.4byte	.LASF341
 3957 1199 05       		.byte	0x5
 3958 119a C805     		.2byte	0x5c8
 3959 119c B7070000 		.4byte	0x7b7
 3960 11a0 1D       		.uleb128 0x1d
 3961 11a1 57120000 		.4byte	.LASF342
 3962 11a5 05       		.byte	0x5
 3963 11a6 CA05     		.2byte	0x5ca
 3964 11a8 E8000000 		.4byte	0xe8
 3965 11ac 1D       		.uleb128 0x1d
 3966 11ad C0040000 		.4byte	.LASF343
 3967 11b1 05       		.byte	0x5
 3968 11b2 CC05     		.2byte	0x5cc
 3969 11b4 AE010000 		.4byte	0x1ae
 3970 11b8 1D       		.uleb128 0x1d
 3971 11b9 0E130000 		.4byte	.LASF344
 3972 11bd 05       		.byte	0x5
 3973 11be CD05     		.2byte	0x5cd
 3974 11c0 FE000000 		.4byte	0xfe
 3975 11c4 1D       		.uleb128 0x1d
 3976 11c5 09070000 		.4byte	.LASF345
 3977 11c9 05       		.byte	0x5
 3978 11ca CE05     		.2byte	0x5ce
 3979 11cc FE000000 		.4byte	0xfe
 3980 11d0 1D       		.uleb128 0x1d
 3981 11d1 410D0000 		.4byte	.LASF346
 3982 11d5 05       		.byte	0x5
 3983 11d6 FD05     		.2byte	0x5fd
 3984 11d8 DC110000 		.4byte	0x11dc
 3985 11dc 1E       		.uleb128 0x1e
 3986 11dd D2000000 		.4byte	0xd2
 3987 11e1 1D       		.uleb128 0x1d
 3988 11e2 A1150000 		.4byte	.LASF347
 3989 11e6 05       		.byte	0x5
 3990 11e7 FF05     		.2byte	0x5ff
 3991 11e9 ED110000 		.4byte	0x11ed
 3992 11ed 1E       		.uleb128 0x1e
 3993 11ee 77010000 		.4byte	0x177
ARM GAS  C:\Users\ADMINI~1\AppData\Local\Temp\ccofok6U.s 			page 94


 3994 11f2 1D       		.uleb128 0x1d
 3995 11f3 FC110000 		.4byte	.LASF348
 3996 11f7 05       		.byte	0x5
 3997 11f8 0606     		.2byte	0x606
 3998 11fa FE110000 		.4byte	0x11fe
 3999 11fe 1E       		.uleb128 0x1e
 4000 11ff 6C010000 		.4byte	0x16c
 4001 1203 1D       		.uleb128 0x1d
 4002 1204 B3010000 		.4byte	.LASF349
 4003 1208 05       		.byte	0x5
 4004 1209 0706     		.2byte	0x607
 4005 120b ED110000 		.4byte	0x11ed
 4006 120f 1D       		.uleb128 0x1d
 4007 1210 B7090000 		.4byte	.LASF350
 4008 1214 05       		.byte	0x5
 4009 1215 0806     		.2byte	0x608
 4010 1217 1B120000 		.4byte	0x121b
 4011 121b 1E       		.uleb128 0x1e
 4012 121c DC0C0000 		.4byte	0xcdc
 4013 1220 1D       		.uleb128 0x1d
 4014 1221 DD040000 		.4byte	.LASF351
 4015 1225 05       		.byte	0x5
 4016 1226 0906     		.2byte	0x609
 4017 1228 DC110000 		.4byte	0x11dc
 4018 122c 1D       		.uleb128 0x1d
 4019 122d 82070000 		.4byte	.LASF352
 4020 1231 05       		.byte	0x5
 4021 1232 0A06     		.2byte	0x60a
 4022 1234 DC110000 		.4byte	0x11dc
 4023 1238 00       		.byte	0
 4024              		.section	.debug_abbrev,"",%progbits
 4025              	.Ldebug_abbrev0:
 4026 0000 01       		.uleb128 0x1
 4027 0001 11       		.uleb128 0x11
 4028 0002 01       		.byte	0x1
 4029 0003 25       		.uleb128 0x25
 4030 0004 0E       		.uleb128 0xe
 4031 0005 13       		.uleb128 0x13
 4032 0006 0B       		.uleb128 0xb
 4033 0007 03       		.uleb128 0x3
 4034 0008 0E       		.uleb128 0xe
 4035 0009 1B       		.uleb128 0x1b
 4036 000a 0E       		.uleb128 0xe
 4037 000b 55       		.uleb128 0x55
 4038 000c 17       		.uleb128 0x17
 4039 000d 11       		.uleb128 0x11
 4040 000e 01       		.uleb128 0x1
 4041 000f 10       		.uleb128 0x10
 4042 0010 17       		.uleb128 0x17
 4043 0011 00       		.byte	0
 4044 0012 00       		.byte	0
 4045 0013 02       		.uleb128 0x2
 4046 0014 16       		.uleb128 0x16
 4047 0015 00       		.byte	0
 4048 0016 03       		.uleb128 0x3
 4049 0017 0E       		.uleb128 0xe
 4050 0018 3A       		.uleb128 0x3a
ARM GAS  C:\Users\ADMINI~1\AppData\Local\Temp\ccofok6U.s 			page 95


 4051 0019 0B       		.uleb128 0xb
 4052 001a 3B       		.uleb128 0x3b
 4053 001b 0B       		.uleb128 0xb
 4054 001c 49       		.uleb128 0x49
 4055 001d 13       		.uleb128 0x13
 4056 001e 00       		.byte	0
 4057 001f 00       		.byte	0
 4058 0020 03       		.uleb128 0x3
 4059 0021 24       		.uleb128 0x24
 4060 0022 00       		.byte	0
 4061 0023 0B       		.uleb128 0xb
 4062 0024 0B       		.uleb128 0xb
 4063 0025 3E       		.uleb128 0x3e
 4064 0026 0B       		.uleb128 0xb
 4065 0027 03       		.uleb128 0x3
 4066 0028 0E       		.uleb128 0xe
 4067 0029 00       		.byte	0
 4068 002a 00       		.byte	0
 4069 002b 04       		.uleb128 0x4
 4070 002c 24       		.uleb128 0x24
 4071 002d 00       		.byte	0
 4072 002e 0B       		.uleb128 0xb
 4073 002f 0B       		.uleb128 0xb
 4074 0030 3E       		.uleb128 0x3e
 4075 0031 0B       		.uleb128 0xb
 4076 0032 03       		.uleb128 0x3
 4077 0033 08       		.uleb128 0x8
 4078 0034 00       		.byte	0
 4079 0035 00       		.byte	0
 4080 0036 05       		.uleb128 0x5
 4081 0037 0F       		.uleb128 0xf
 4082 0038 00       		.byte	0
 4083 0039 0B       		.uleb128 0xb
 4084 003a 0B       		.uleb128 0xb
 4085 003b 49       		.uleb128 0x49
 4086 003c 13       		.uleb128 0x13
 4087 003d 00       		.byte	0
 4088 003e 00       		.byte	0
 4089 003f 06       		.uleb128 0x6
 4090 0040 15       		.uleb128 0x15
 4091 0041 01       		.byte	0x1
 4092 0042 27       		.uleb128 0x27
 4093 0043 19       		.uleb128 0x19
 4094 0044 01       		.uleb128 0x1
 4095 0045 13       		.uleb128 0x13
 4096 0046 00       		.byte	0
 4097 0047 00       		.byte	0
 4098 0048 07       		.uleb128 0x7
 4099 0049 05       		.uleb128 0x5
 4100 004a 00       		.byte	0
 4101 004b 49       		.uleb128 0x49
 4102 004c 13       		.uleb128 0x13
 4103 004d 00       		.byte	0
 4104 004e 00       		.byte	0
 4105 004f 08       		.uleb128 0x8
 4106 0050 0F       		.uleb128 0xf
 4107 0051 00       		.byte	0
ARM GAS  C:\Users\ADMINI~1\AppData\Local\Temp\ccofok6U.s 			page 96


 4108 0052 0B       		.uleb128 0xb
 4109 0053 0B       		.uleb128 0xb
 4110 0054 00       		.byte	0
 4111 0055 00       		.byte	0
 4112 0056 09       		.uleb128 0x9
 4113 0057 04       		.uleb128 0x4
 4114 0058 01       		.byte	0x1
 4115 0059 03       		.uleb128 0x3
 4116 005a 0E       		.uleb128 0xe
 4117 005b 0B       		.uleb128 0xb
 4118 005c 0B       		.uleb128 0xb
 4119 005d 49       		.uleb128 0x49
 4120 005e 13       		.uleb128 0x13
 4121 005f 3A       		.uleb128 0x3a
 4122 0060 0B       		.uleb128 0xb
 4123 0061 3B       		.uleb128 0x3b
 4124 0062 05       		.uleb128 0x5
 4125 0063 01       		.uleb128 0x1
 4126 0064 13       		.uleb128 0x13
 4127 0065 00       		.byte	0
 4128 0066 00       		.byte	0
 4129 0067 0A       		.uleb128 0xa
 4130 0068 28       		.uleb128 0x28
 4131 0069 00       		.byte	0
 4132 006a 03       		.uleb128 0x3
 4133 006b 0E       		.uleb128 0xe
 4134 006c 1C       		.uleb128 0x1c
 4135 006d 0B       		.uleb128 0xb
 4136 006e 00       		.byte	0
 4137 006f 00       		.byte	0
 4138 0070 0B       		.uleb128 0xb
 4139 0071 28       		.uleb128 0x28
 4140 0072 00       		.byte	0
 4141 0073 03       		.uleb128 0x3
 4142 0074 0E       		.uleb128 0xe
 4143 0075 1C       		.uleb128 0x1c
 4144 0076 05       		.uleb128 0x5
 4145 0077 00       		.byte	0
 4146 0078 00       		.byte	0
 4147 0079 0C       		.uleb128 0xc
 4148 007a 16       		.uleb128 0x16
 4149 007b 00       		.byte	0
 4150 007c 03       		.uleb128 0x3
 4151 007d 0E       		.uleb128 0xe
 4152 007e 3A       		.uleb128 0x3a
 4153 007f 0B       		.uleb128 0xb
 4154 0080 3B       		.uleb128 0x3b
 4155 0081 05       		.uleb128 0x5
 4156 0082 49       		.uleb128 0x49
 4157 0083 13       		.uleb128 0x13
 4158 0084 00       		.byte	0
 4159 0085 00       		.byte	0
 4160 0086 0D       		.uleb128 0xd
 4161 0087 13       		.uleb128 0x13
 4162 0088 01       		.byte	0x1
 4163 0089 03       		.uleb128 0x3
 4164 008a 0E       		.uleb128 0xe
ARM GAS  C:\Users\ADMINI~1\AppData\Local\Temp\ccofok6U.s 			page 97


 4165 008b 0B       		.uleb128 0xb
 4166 008c 0B       		.uleb128 0xb
 4167 008d 3A       		.uleb128 0x3a
 4168 008e 0B       		.uleb128 0xb
 4169 008f 3B       		.uleb128 0x3b
 4170 0090 05       		.uleb128 0x5
 4171 0091 01       		.uleb128 0x1
 4172 0092 13       		.uleb128 0x13
 4173 0093 00       		.byte	0
 4174 0094 00       		.byte	0
 4175 0095 0E       		.uleb128 0xe
 4176 0096 0D       		.uleb128 0xd
 4177 0097 00       		.byte	0
 4178 0098 03       		.uleb128 0x3
 4179 0099 0E       		.uleb128 0xe
 4180 009a 3A       		.uleb128 0x3a
 4181 009b 0B       		.uleb128 0xb
 4182 009c 3B       		.uleb128 0x3b
 4183 009d 05       		.uleb128 0x5
 4184 009e 49       		.uleb128 0x49
 4185 009f 13       		.uleb128 0x13
 4186 00a0 38       		.uleb128 0x38
 4187 00a1 0B       		.uleb128 0xb
 4188 00a2 00       		.byte	0
 4189 00a3 00       		.byte	0
 4190 00a4 0F       		.uleb128 0xf
 4191 00a5 0D       		.uleb128 0xd
 4192 00a6 00       		.byte	0
 4193 00a7 03       		.uleb128 0x3
 4194 00a8 08       		.uleb128 0x8
 4195 00a9 3A       		.uleb128 0x3a
 4196 00aa 0B       		.uleb128 0xb
 4197 00ab 3B       		.uleb128 0x3b
 4198 00ac 05       		.uleb128 0x5
 4199 00ad 49       		.uleb128 0x49
 4200 00ae 13       		.uleb128 0x13
 4201 00af 38       		.uleb128 0x38
 4202 00b0 0B       		.uleb128 0xb
 4203 00b1 00       		.byte	0
 4204 00b2 00       		.byte	0
 4205 00b3 10       		.uleb128 0x10
 4206 00b4 01       		.uleb128 0x1
 4207 00b5 01       		.byte	0x1
 4208 00b6 49       		.uleb128 0x49
 4209 00b7 13       		.uleb128 0x13
 4210 00b8 01       		.uleb128 0x1
 4211 00b9 13       		.uleb128 0x13
 4212 00ba 00       		.byte	0
 4213 00bb 00       		.byte	0
 4214 00bc 11       		.uleb128 0x11
 4215 00bd 21       		.uleb128 0x21
 4216 00be 00       		.byte	0
 4217 00bf 49       		.uleb128 0x49
 4218 00c0 13       		.uleb128 0x13
 4219 00c1 2F       		.uleb128 0x2f
 4220 00c2 0B       		.uleb128 0xb
 4221 00c3 00       		.byte	0
ARM GAS  C:\Users\ADMINI~1\AppData\Local\Temp\ccofok6U.s 			page 98


 4222 00c4 00       		.byte	0
 4223 00c5 12       		.uleb128 0x12
 4224 00c6 2E       		.uleb128 0x2e
 4225 00c7 01       		.byte	0x1
 4226 00c8 3F       		.uleb128 0x3f
 4227 00c9 19       		.uleb128 0x19
 4228 00ca 03       		.uleb128 0x3
 4229 00cb 0E       		.uleb128 0xe
 4230 00cc 3A       		.uleb128 0x3a
 4231 00cd 0B       		.uleb128 0xb
 4232 00ce 3B       		.uleb128 0x3b
 4233 00cf 0B       		.uleb128 0xb
 4234 00d0 27       		.uleb128 0x27
 4235 00d1 19       		.uleb128 0x19
 4236 00d2 11       		.uleb128 0x11
 4237 00d3 01       		.uleb128 0x1
 4238 00d4 12       		.uleb128 0x12
 4239 00d5 06       		.uleb128 0x6
 4240 00d6 40       		.uleb128 0x40
 4241 00d7 18       		.uleb128 0x18
 4242 00d8 9642     		.uleb128 0x2116
 4243 00da 19       		.uleb128 0x19
 4244 00db 01       		.uleb128 0x1
 4245 00dc 13       		.uleb128 0x13
 4246 00dd 00       		.byte	0
 4247 00de 00       		.byte	0
 4248 00df 13       		.uleb128 0x13
 4249 00e0 05       		.uleb128 0x5
 4250 00e1 00       		.byte	0
 4251 00e2 03       		.uleb128 0x3
 4252 00e3 0E       		.uleb128 0xe
 4253 00e4 3A       		.uleb128 0x3a
 4254 00e5 0B       		.uleb128 0xb
 4255 00e6 3B       		.uleb128 0x3b
 4256 00e7 0B       		.uleb128 0xb
 4257 00e8 49       		.uleb128 0x49
 4258 00e9 13       		.uleb128 0x13
 4259 00ea 02       		.uleb128 0x2
 4260 00eb 18       		.uleb128 0x18
 4261 00ec 00       		.byte	0
 4262 00ed 00       		.byte	0
 4263 00ee 14       		.uleb128 0x14
 4264 00ef 05       		.uleb128 0x5
 4265 00f0 00       		.byte	0
 4266 00f1 03       		.uleb128 0x3
 4267 00f2 08       		.uleb128 0x8
 4268 00f3 3A       		.uleb128 0x3a
 4269 00f4 0B       		.uleb128 0xb
 4270 00f5 3B       		.uleb128 0x3b
 4271 00f6 0B       		.uleb128 0xb
 4272 00f7 49       		.uleb128 0x49
 4273 00f8 13       		.uleb128 0x13
 4274 00f9 02       		.uleb128 0x2
 4275 00fa 18       		.uleb128 0x18
 4276 00fb 00       		.byte	0
 4277 00fc 00       		.byte	0
 4278 00fd 15       		.uleb128 0x15
ARM GAS  C:\Users\ADMINI~1\AppData\Local\Temp\ccofok6U.s 			page 99


 4279 00fe 2E       		.uleb128 0x2e
 4280 00ff 01       		.byte	0x1
 4281 0100 3F       		.uleb128 0x3f
 4282 0101 19       		.uleb128 0x19
 4283 0102 03       		.uleb128 0x3
 4284 0103 0E       		.uleb128 0xe
 4285 0104 3A       		.uleb128 0x3a
 4286 0105 0B       		.uleb128 0xb
 4287 0106 3B       		.uleb128 0x3b
 4288 0107 05       		.uleb128 0x5
 4289 0108 27       		.uleb128 0x27
 4290 0109 19       		.uleb128 0x19
 4291 010a 49       		.uleb128 0x49
 4292 010b 13       		.uleb128 0x13
 4293 010c 11       		.uleb128 0x11
 4294 010d 01       		.uleb128 0x1
 4295 010e 12       		.uleb128 0x12
 4296 010f 06       		.uleb128 0x6
 4297 0110 40       		.uleb128 0x40
 4298 0111 18       		.uleb128 0x18
 4299 0112 9642     		.uleb128 0x2116
 4300 0114 19       		.uleb128 0x19
 4301 0115 01       		.uleb128 0x1
 4302 0116 13       		.uleb128 0x13
 4303 0117 00       		.byte	0
 4304 0118 00       		.byte	0
 4305 0119 16       		.uleb128 0x16
 4306 011a 05       		.uleb128 0x5
 4307 011b 00       		.byte	0
 4308 011c 03       		.uleb128 0x3
 4309 011d 0E       		.uleb128 0xe
 4310 011e 3A       		.uleb128 0x3a
 4311 011f 0B       		.uleb128 0xb
 4312 0120 3B       		.uleb128 0x3b
 4313 0121 05       		.uleb128 0x5
 4314 0122 49       		.uleb128 0x49
 4315 0123 13       		.uleb128 0x13
 4316 0124 02       		.uleb128 0x2
 4317 0125 18       		.uleb128 0x18
 4318 0126 00       		.byte	0
 4319 0127 00       		.byte	0
 4320 0128 17       		.uleb128 0x17
 4321 0129 34       		.uleb128 0x34
 4322 012a 00       		.byte	0
 4323 012b 03       		.uleb128 0x3
 4324 012c 0E       		.uleb128 0xe
 4325 012d 3A       		.uleb128 0x3a
 4326 012e 0B       		.uleb128 0xb
 4327 012f 3B       		.uleb128 0x3b
 4328 0130 05       		.uleb128 0x5
 4329 0131 49       		.uleb128 0x49
 4330 0132 13       		.uleb128 0x13
 4331 0133 02       		.uleb128 0x2
 4332 0134 18       		.uleb128 0x18
 4333 0135 00       		.byte	0
 4334 0136 00       		.byte	0
 4335 0137 18       		.uleb128 0x18
ARM GAS  C:\Users\ADMINI~1\AppData\Local\Temp\ccofok6U.s 			page 100


 4336 0138 2E       		.uleb128 0x2e
 4337 0139 01       		.byte	0x1
 4338 013a 3F       		.uleb128 0x3f
 4339 013b 19       		.uleb128 0x19
 4340 013c 03       		.uleb128 0x3
 4341 013d 0E       		.uleb128 0xe
 4342 013e 3A       		.uleb128 0x3a
 4343 013f 0B       		.uleb128 0xb
 4344 0140 3B       		.uleb128 0x3b
 4345 0141 05       		.uleb128 0x5
 4346 0142 27       		.uleb128 0x27
 4347 0143 19       		.uleb128 0x19
 4348 0144 11       		.uleb128 0x11
 4349 0145 01       		.uleb128 0x1
 4350 0146 12       		.uleb128 0x12
 4351 0147 06       		.uleb128 0x6
 4352 0148 40       		.uleb128 0x40
 4353 0149 18       		.uleb128 0x18
 4354 014a 9642     		.uleb128 0x2116
 4355 014c 19       		.uleb128 0x19
 4356 014d 01       		.uleb128 0x1
 4357 014e 13       		.uleb128 0x13
 4358 014f 00       		.byte	0
 4359 0150 00       		.byte	0
 4360 0151 19       		.uleb128 0x19
 4361 0152 05       		.uleb128 0x5
 4362 0153 00       		.byte	0
 4363 0154 03       		.uleb128 0x3
 4364 0155 08       		.uleb128 0x8
 4365 0156 3A       		.uleb128 0x3a
 4366 0157 0B       		.uleb128 0xb
 4367 0158 3B       		.uleb128 0x3b
 4368 0159 05       		.uleb128 0x5
 4369 015a 49       		.uleb128 0x49
 4370 015b 13       		.uleb128 0x13
 4371 015c 02       		.uleb128 0x2
 4372 015d 18       		.uleb128 0x18
 4373 015e 00       		.byte	0
 4374 015f 00       		.byte	0
 4375 0160 1A       		.uleb128 0x1a
 4376 0161 2E       		.uleb128 0x2e
 4377 0162 01       		.byte	0x1
 4378 0163 3F       		.uleb128 0x3f
 4379 0164 19       		.uleb128 0x19
 4380 0165 03       		.uleb128 0x3
 4381 0166 0E       		.uleb128 0xe
 4382 0167 3A       		.uleb128 0x3a
 4383 0168 0B       		.uleb128 0xb
 4384 0169 3B       		.uleb128 0x3b
 4385 016a 05       		.uleb128 0x5
 4386 016b 27       		.uleb128 0x27
 4387 016c 19       		.uleb128 0x19
 4388 016d 11       		.uleb128 0x11
 4389 016e 01       		.uleb128 0x1
 4390 016f 12       		.uleb128 0x12
 4391 0170 06       		.uleb128 0x6
 4392 0171 40       		.uleb128 0x40
ARM GAS  C:\Users\ADMINI~1\AppData\Local\Temp\ccofok6U.s 			page 101


 4393 0172 18       		.uleb128 0x18
 4394 0173 9742     		.uleb128 0x2117
 4395 0175 19       		.uleb128 0x19
 4396 0176 01       		.uleb128 0x1
 4397 0177 13       		.uleb128 0x13
 4398 0178 00       		.byte	0
 4399 0179 00       		.byte	0
 4400 017a 1B       		.uleb128 0x1b
 4401 017b 34       		.uleb128 0x34
 4402 017c 00       		.byte	0
 4403 017d 03       		.uleb128 0x3
 4404 017e 08       		.uleb128 0x8
 4405 017f 3A       		.uleb128 0x3a
 4406 0180 0B       		.uleb128 0xb
 4407 0181 3B       		.uleb128 0x3b
 4408 0182 05       		.uleb128 0x5
 4409 0183 49       		.uleb128 0x49
 4410 0184 13       		.uleb128 0x13
 4411 0185 02       		.uleb128 0x2
 4412 0186 18       		.uleb128 0x18
 4413 0187 00       		.byte	0
 4414 0188 00       		.byte	0
 4415 0189 1C       		.uleb128 0x1c
 4416 018a 2E       		.uleb128 0x2e
 4417 018b 01       		.byte	0x1
 4418 018c 03       		.uleb128 0x3
 4419 018d 0E       		.uleb128 0xe
 4420 018e 3A       		.uleb128 0x3a
 4421 018f 0B       		.uleb128 0xb
 4422 0190 3B       		.uleb128 0x3b
 4423 0191 05       		.uleb128 0x5
 4424 0192 27       		.uleb128 0x27
 4425 0193 19       		.uleb128 0x19
 4426 0194 11       		.uleb128 0x11
 4427 0195 01       		.uleb128 0x1
 4428 0196 12       		.uleb128 0x12
 4429 0197 06       		.uleb128 0x6
 4430 0198 40       		.uleb128 0x40
 4431 0199 18       		.uleb128 0x18
 4432 019a 9642     		.uleb128 0x2116
 4433 019c 19       		.uleb128 0x19
 4434 019d 01       		.uleb128 0x1
 4435 019e 13       		.uleb128 0x13
 4436 019f 00       		.byte	0
 4437 01a0 00       		.byte	0
 4438 01a1 1D       		.uleb128 0x1d
 4439 01a2 34       		.uleb128 0x34
 4440 01a3 00       		.byte	0
 4441 01a4 03       		.uleb128 0x3
 4442 01a5 0E       		.uleb128 0xe
 4443 01a6 3A       		.uleb128 0x3a
 4444 01a7 0B       		.uleb128 0xb
 4445 01a8 3B       		.uleb128 0x3b
 4446 01a9 05       		.uleb128 0x5
 4447 01aa 49       		.uleb128 0x49
 4448 01ab 13       		.uleb128 0x13
 4449 01ac 3F       		.uleb128 0x3f
ARM GAS  C:\Users\ADMINI~1\AppData\Local\Temp\ccofok6U.s 			page 102


 4450 01ad 19       		.uleb128 0x19
 4451 01ae 3C       		.uleb128 0x3c
 4452 01af 19       		.uleb128 0x19
 4453 01b0 00       		.byte	0
 4454 01b1 00       		.byte	0
 4455 01b2 1E       		.uleb128 0x1e
 4456 01b3 26       		.uleb128 0x26
 4457 01b4 00       		.byte	0
 4458 01b5 49       		.uleb128 0x49
 4459 01b6 13       		.uleb128 0x13
 4460 01b7 00       		.byte	0
 4461 01b8 00       		.byte	0
 4462 01b9 00       		.byte	0
 4463              		.section	.debug_aranges,"",%progbits
 4464 0000 84000000 		.4byte	0x84
 4465 0004 0200     		.2byte	0x2
 4466 0006 00000000 		.4byte	.Ldebug_info0
 4467 000a 04       		.byte	0x4
 4468 000b 00       		.byte	0
 4469 000c 0000     		.2byte	0
 4470 000e 0000     		.2byte	0
 4471 0010 00000000 		.4byte	.LFB0
 4472 0014 1C010000 		.4byte	.LFE0-.LFB0
 4473 0018 00000000 		.4byte	.LFB1
 4474 001c D0000000 		.4byte	.LFE1-.LFB1
 4475 0020 00000000 		.4byte	.LFB2
 4476 0024 B4000000 		.4byte	.LFE2-.LFB2
 4477 0028 00000000 		.4byte	.LFB3
 4478 002c 34010000 		.4byte	.LFE3-.LFB3
 4479 0030 00000000 		.4byte	.LFB4
 4480 0034 7C000000 		.4byte	.LFE4-.LFB4
 4481 0038 00000000 		.4byte	.LFB5
 4482 003c 48010000 		.4byte	.LFE5-.LFB5
 4483 0040 00000000 		.4byte	.LFB6
 4484 0044 5C000000 		.4byte	.LFE6-.LFB6
 4485 0048 00000000 		.4byte	.LFB7
 4486 004c 40000000 		.4byte	.LFE7-.LFB7
 4487 0050 00000000 		.4byte	.LFB8
 4488 0054 6C000000 		.4byte	.LFE8-.LFB8
 4489 0058 00000000 		.4byte	.LFB9
 4490 005c 50010000 		.4byte	.LFE9-.LFB9
 4491 0060 00000000 		.4byte	.LFB10
 4492 0064 7C000000 		.4byte	.LFE10-.LFB10
 4493 0068 00000000 		.4byte	.LFB11
 4494 006c D4000000 		.4byte	.LFE11-.LFB11
 4495 0070 00000000 		.4byte	.LFB12
 4496 0074 24000000 		.4byte	.LFE12-.LFB12
 4497 0078 00000000 		.4byte	.LFB13
 4498 007c 20000000 		.4byte	.LFE13-.LFB13
 4499 0080 00000000 		.4byte	0
 4500 0084 00000000 		.4byte	0
 4501              		.section	.debug_ranges,"",%progbits
 4502              	.Ldebug_ranges0:
 4503 0000 00000000 		.4byte	.LFB0
 4504 0004 1C010000 		.4byte	.LFE0
 4505 0008 00000000 		.4byte	.LFB1
 4506 000c D0000000 		.4byte	.LFE1
ARM GAS  C:\Users\ADMINI~1\AppData\Local\Temp\ccofok6U.s 			page 103


 4507 0010 00000000 		.4byte	.LFB2
 4508 0014 B4000000 		.4byte	.LFE2
 4509 0018 00000000 		.4byte	.LFB3
 4510 001c 34010000 		.4byte	.LFE3
 4511 0020 00000000 		.4byte	.LFB4
 4512 0024 7C000000 		.4byte	.LFE4
 4513 0028 00000000 		.4byte	.LFB5
 4514 002c 48010000 		.4byte	.LFE5
 4515 0030 00000000 		.4byte	.LFB6
 4516 0034 5C000000 		.4byte	.LFE6
 4517 0038 00000000 		.4byte	.LFB7
 4518 003c 40000000 		.4byte	.LFE7
 4519 0040 00000000 		.4byte	.LFB8
 4520 0044 6C000000 		.4byte	.LFE8
 4521 0048 00000000 		.4byte	.LFB9
 4522 004c 50010000 		.4byte	.LFE9
 4523 0050 00000000 		.4byte	.LFB10
 4524 0054 7C000000 		.4byte	.LFE10
 4525 0058 00000000 		.4byte	.LFB11
 4526 005c D4000000 		.4byte	.LFE11
 4527 0060 00000000 		.4byte	.LFB12
 4528 0064 24000000 		.4byte	.LFE12
 4529 0068 00000000 		.4byte	.LFB13
 4530 006c 20000000 		.4byte	.LFE13
 4531 0070 00000000 		.4byte	0
 4532 0074 00000000 		.4byte	0
 4533              		.section	.debug_line,"",%progbits
 4534              	.Ldebug_line0:
 4535 0000 13030000 		.section	.debug_str,"MS",%progbits,1
 4535      0200CC00 
 4535      00000201 
 4535      FB0E0D00 
 4535      01010101 
 4536              	.LASF232:
 4537 0000 6F735F74 		.ascii	"os_tcb\000"
 4537      636200
 4538              	.LASF110:
 4539 0007 4F535F45 		.ascii	"OS_ERR_PRIO_INVALID\000"
 4539      52525F50 
 4539      52494F5F 
 4539      494E5641 
 4539      4C494400 
 4540              	.LASF205:
 4541 001b 4F535F45 		.ascii	"OS_ERR\000"
 4541      525200
 4542              	.LASF22:
 4543 0022 4F535F43 		.ascii	"OS_CTX_SW_CTR\000"
 4543      54585F53 
 4543      575F4354 
 4543      5200
 4544              	.LASF328:
 4545 0030 4F535F54 		.ascii	"OS_TmrTask\000"
 4545      6D725461 
 4545      736B00
 4546              	.LASF190:
 4547 003b 4F535F45 		.ascii	"OS_ERR_TMR_ISR\000"
 4547      52525F54 
ARM GAS  C:\Users\ADMINI~1\AppData\Local\Temp\ccofok6U.s 			page 104


 4547      4D525F49 
 4547      535200
 4548              	.LASF177:
 4549 004a 4F535F45 		.ascii	"OS_ERR_TIME_INVALID_MINUTES\000"
 4549      52525F54 
 4549      494D455F 
 4549      494E5641 
 4549      4C49445F 
 4550              	.LASF39:
 4551 0066 4F535F45 		.ascii	"OS_ERR_A\000"
 4551      52525F41 
 4551      00
 4552              	.LASF41:
 4553 006f 4F535F45 		.ascii	"OS_ERR_B\000"
 4553      52525F42 
 4553      00
 4554              	.LASF42:
 4555 0078 4F535F45 		.ascii	"OS_ERR_C\000"
 4555      52525F43 
 4555      00
 4556              	.LASF44:
 4557 0081 4F535F45 		.ascii	"OS_ERR_D\000"
 4557      52525F44 
 4557      00
 4558              	.LASF46:
 4559 008a 4F535F45 		.ascii	"OS_ERR_E\000"
 4559      52525F45 
 4559      00
 4560              	.LASF47:
 4561 0093 4F535F45 		.ascii	"OS_ERR_F\000"
 4561      52525F46 
 4561      00
 4562              	.LASF355:
 4563 009c 443A5C43 		.ascii	"D:\\CYTEST\\Micrium_CY8CKIT-044_OS3\\Examples\\Cypr"
 4563      59544553 
 4563      545C4D69 
 4563      63726975 
 4563      6D5F4359 
 4564 00cb 6573735C 		.ascii	"ess\\CY8CKIT-044\\OS3\\PSoC\\OS3.cydsn\000"
 4564      43593843 
 4564      4B49542D 
 4564      3034345C 
 4564      4F53335C 
 4565              	.LASF54:
 4566 00ee 4F535F45 		.ascii	"OS_ERR_H\000"
 4566      52525F48 
 4566      00
 4567              	.LASF55:
 4568 00f7 4F535F45 		.ascii	"OS_ERR_I\000"
 4568      52525F49 
 4568      00
 4569              	.LASF63:
 4570 0100 4F535F45 		.ascii	"OS_ERR_J\000"
 4570      52525F4A 
 4570      00
 4571              	.LASF64:
 4572 0109 4F535F45 		.ascii	"OS_ERR_K\000"
ARM GAS  C:\Users\ADMINI~1\AppData\Local\Temp\ccofok6U.s 			page 105


 4572      52525F4B 
 4572      00
 4573              	.LASF65:
 4574 0112 4F535F45 		.ascii	"OS_ERR_L\000"
 4574      52525F4C 
 4574      00
 4575              	.LASF67:
 4576 011b 4F535F45 		.ascii	"OS_ERR_M\000"
 4576      52525F4D 
 4576      00
 4577              	.LASF84:
 4578 0124 4F535F45 		.ascii	"OS_ERR_N\000"
 4578      52525F4E 
 4578      00
 4579              	.LASF87:
 4580 012d 4F535F45 		.ascii	"OS_ERR_O\000"
 4580      52525F4F 
 4580      00
 4581              	.LASF97:
 4582 0136 4F535F45 		.ascii	"OS_ERR_P\000"
 4582      52525F50 
 4582      00
 4583              	.LASF112:
 4584 013f 4F535F45 		.ascii	"OS_ERR_Q\000"
 4584      52525F51 
 4584      00
 4585              	.LASF117:
 4586 0148 4F535F45 		.ascii	"OS_ERR_R\000"
 4586      52525F52 
 4586      00
 4587              	.LASF121:
 4588 0151 4F535F45 		.ascii	"OS_ERR_S\000"
 4588      52525F53 
 4588      00
 4589              	.LASF138:
 4590 015a 4F535F45 		.ascii	"OS_ERR_T\000"
 4590      52525F54 
 4590      00
 4591              	.LASF198:
 4592 0163 4F535F45 		.ascii	"OS_ERR_U\000"
 4592      52525F55 
 4592      00
 4593              	.LASF199:
 4594 016c 4F535F45 		.ascii	"OS_ERR_V\000"
 4594      52525F56 
 4594      00
 4595              	.LASF200:
 4596 0175 4F535F45 		.ascii	"OS_ERR_W\000"
 4596      52525F57 
 4596      00
 4597              	.LASF201:
 4598 017e 4F535F45 		.ascii	"OS_ERR_X\000"
 4598      52525F58 
 4598      00
 4599              	.LASF187:
 4600 0187 4F535F45 		.ascii	"OS_ERR_TMR_INVALID_PERIOD\000"
 4600      52525F54 
ARM GAS  C:\Users\ADMINI~1\AppData\Local\Temp\ccofok6U.s 			page 106


 4600      4D525F49 
 4600      4E56414C 
 4600      49445F50 
 4601              	.LASF356:
 4602 01a1 6F735F65 		.ascii	"os_err\000"
 4602      727200
 4603              	.LASF217:
 4604 01a8 4E627245 		.ascii	"NbrEntries\000"
 4604      6E747269 
 4604      657300
 4605              	.LASF349:
 4606 01b3 4F534366 		.ascii	"OSCfg_TmrTaskRate_Hz\000"
 4606      675F546D 
 4606      72546173 
 4606      6B526174 
 4606      655F487A 
 4607              	.LASF59:
 4608 01c8 4F535F45 		.ascii	"OS_ERR_INT_Q_SIZE\000"
 4608      52525F49 
 4608      4E545F51 
 4608      5F53495A 
 4608      4500
 4609              	.LASF338:
 4610 01da 4F53546D 		.ascii	"OSTmrListPtr\000"
 4610      724C6973 
 4610      74507472 
 4610      00
 4611              	.LASF43:
 4612 01e7 4F535F45 		.ascii	"OS_ERR_CREATE_ISR\000"
 4612      52525F43 
 4612      52454154 
 4612      455F4953 
 4612      5200
 4613              	.LASF229:
 4614 01f9 4F776E65 		.ascii	"OwnerNestingCtr\000"
 4614      724E6573 
 4614      74696E67 
 4614      43747200 
 4615              	.LASF20:
 4616 0209 4F535F43 		.ascii	"OS_CPU_USAGE\000"
 4616      50555F55 
 4616      53414745 
 4616      00
 4617              	.LASF171:
 4618 0216 4F535F45 		.ascii	"OS_ERR_TICK_STK_SIZE_INVALID\000"
 4618      52525F54 
 4618      49434B5F 
 4618      53544B5F 
 4618      53495A45 
 4619              	.LASF9:
 4620 0233 4350555F 		.ascii	"CPU_INT32U\000"
 4620      494E5433 
 4620      325500
 4621              	.LASF219:
 4622 023e 4F535F4D 		.ascii	"OS_MUTEX\000"
 4622      55544558 
 4622      00
ARM GAS  C:\Users\ADMINI~1\AppData\Local\Temp\ccofok6U.s 			page 107


 4623              	.LASF135:
 4624 0247 4F535F45 		.ascii	"OS_ERR_STK_INVALID\000"
 4624      52525F53 
 4624      544B5F49 
 4624      4E56414C 
 4624      494400
 4625              	.LASF260:
 4626 025a 466C6167 		.ascii	"FlagsOpt\000"
 4626      734F7074 
 4626      00
 4627              	.LASF151:
 4628 0263 4F535F45 		.ascii	"OS_ERR_TASK_RESUME_ISR\000"
 4628      52525F54 
 4628      41534B5F 
 4628      52455355 
 4628      4D455F49 
 4629              	.LASF105:
 4630 027a 4F535F45 		.ascii	"OS_ERR_PEND_WOULD_BLOCK\000"
 4630      52525F50 
 4630      454E445F 
 4630      574F554C 
 4630      445F424C 
 4631              	.LASF139:
 4632 0292 4F535F45 		.ascii	"OS_ERR_TASK_CHANGE_PRIO_ISR\000"
 4632      52525F54 
 4632      41534B5F 
 4632      4348414E 
 4632      47455F50 
 4633              	.LASF306:
 4634 02ae 705F6361 		.ascii	"p_callback_arg\000"
 4634      6C6C6261 
 4634      636B5F61 
 4634      726700
 4635              	.LASF249:
 4636 02bd 4D757465 		.ascii	"MutexGrpHeadPtr\000"
 4636      78477270 
 4636      48656164 
 4636      50747200 
 4637              	.LASF62:
 4638 02cd 4F535F45 		.ascii	"OS_ERR_ILLEGAL_DEL_RUN_TIME\000"
 4638      52525F49 
 4638      4C4C4547 
 4638      414C5F44 
 4638      454C5F52 
 4639              	.LASF129:
 4640 02e9 4F535F45 		.ascii	"OS_ERR_STAT_RESET_ISR\000"
 4640      52525F53 
 4640      5441545F 
 4640      52455345 
 4640      545F4953 
 4641              	.LASF104:
 4642 02ff 4F535F45 		.ascii	"OS_ERR_PEND_LOCKED\000"
 4642      52525F50 
 4642      454E445F 
 4642      4C4F434B 
 4642      454400
 4643              	.LASF353:
ARM GAS  C:\Users\ADMINI~1\AppData\Local\Temp\ccofok6U.s 			page 108


 4644 0312 474E5520 		.ascii	"GNU C11 5.4.1 20160609 (release) [ARM/embedded-5-br"
 4644      43313120 
 4644      352E342E 
 4644      31203230 
 4644      31363036 
 4645 0345 616E6368 		.ascii	"anch revision 237715] -mcpu=cortex-m0 -mthumb -g -O"
 4645      20726576 
 4645      6973696F 
 4645      6E203233 
 4645      37373135 
 4646 0378 30202D66 		.ascii	"0 -ffunction-sections -ffat-lto-objects\000"
 4646      66756E63 
 4646      74696F6E 
 4646      2D736563 
 4646      74696F6E 
 4647              	.LASF341:
 4648 03a0 4F53546D 		.ascii	"OSTmrTaskTCB\000"
 4648      72546173 
 4648      6B544342 
 4648      00
 4649              	.LASF149:
 4650 03ad 4F535F45 		.ascii	"OS_ERR_TASK_NOT_SUSPENDED\000"
 4650      52525F54 
 4650      41534B5F 
 4650      4E4F545F 
 4650      53555350 
 4651              	.LASF83:
 4652 03c7 4F535F45 		.ascii	"OS_ERR_MUTEX_OVF\000"
 4652      52525F4D 
 4652      55544558 
 4652      5F4F5646 
 4652      00
 4653              	.LASF147:
 4654 03d8 4F535F45 		.ascii	"OS_ERR_TASK_NOT_DLY\000"
 4654      52525F54 
 4654      41534B5F 
 4654      4E4F545F 
 4654      444C5900 
 4655              	.LASF224:
 4656 03ec 44626750 		.ascii	"DbgPrevPtr\000"
 4656      72657650 
 4656      747200
 4657              	.LASF57:
 4658 03f7 4F535F45 		.ascii	"OS_ERR_INT_Q\000"
 4658      52525F49 
 4658      4E545F51 
 4658      00
 4659              	.LASF225:
 4660 0404 4462674E 		.ascii	"DbgNextPtr\000"
 4660      65787450 
 4660      747200
 4661              	.LASF274:
 4662 040f 53636865 		.ascii	"SchedLockTimeMax\000"
 4662      644C6F63 
 4662      6B54696D 
 4662      654D6178 
 4662      00
ARM GAS  C:\Users\ADMINI~1\AppData\Local\Temp\ccofok6U.s 			page 109


 4663              	.LASF161:
 4664 0420 4F535F45 		.ascii	"OS_ERR_TASK_WAITING\000"
 4664      52525F54 
 4664      41534B5F 
 4664      57414954 
 4664      494E4700 
 4665              	.LASF286:
 4666 0434 53746174 		.ascii	"State\000"
 4666      6500
 4667              	.LASF40:
 4668 043a 4F535F45 		.ascii	"OS_ERR_ACCEPT_ISR\000"
 4668      52525F41 
 4668      43434550 
 4668      545F4953 
 4668      5200
 4669              	.LASF159:
 4670 044c 4F535F45 		.ascii	"OS_ERR_TASK_SUSPEND_ISR\000"
 4670      52525F54 
 4670      41534B5F 
 4670      53555350 
 4670      454E445F 
 4671              	.LASF82:
 4672 0464 4F535F45 		.ascii	"OS_ERR_MUTEX_NESTING\000"
 4672      52525F4D 
 4672      55544558 
 4672      5F4E4553 
 4672      54494E47 
 4673              	.LASF330:
 4674 0479 74735F73 		.ascii	"ts_start\000"
 4674      74617274 
 4674      00
 4675              	.LASF339:
 4676 0482 4F53546D 		.ascii	"OSTmrMutex\000"
 4676      724D7574 
 4676      657800
 4677              	.LASF188:
 4678 048d 4F535F45 		.ascii	"OS_ERR_TMR_INVALID_STATE\000"
 4678      52525F54 
 4678      4D525F49 
 4678      4E56414C 
 4678      49445F53 
 4679              	.LASF244:
 4680 04a6 50656E64 		.ascii	"PendOn\000"
 4680      4F6E00
 4681              	.LASF88:
 4682 04ad 4F535F45 		.ascii	"OS_ERR_OBJ_CREATED\000"
 4682      52525F4F 
 4682      424A5F43 
 4682      52454154 
 4682      454400
 4683              	.LASF343:
 4684 04c0 4F53546D 		.ascii	"OSTmrTickCtr\000"
 4684      72546963 
 4684      6B437472 
 4684      00
 4685              	.LASF277:
 4686 04cd 5443425F 		.ascii	"TCB_Ptr\000"
ARM GAS  C:\Users\ADMINI~1\AppData\Local\Temp\ccofok6U.s 			page 110


 4686      50747200 
 4687              	.LASF298:
 4688 04d5 5461696C 		.ascii	"TailPtr\000"
 4688      50747200 
 4689              	.LASF351:
 4690 04dd 4F534366 		.ascii	"OSCfg_TmrTaskStkLimit\000"
 4690      675F546D 
 4690      72546173 
 4690      6B53746B 
 4690      4C696D69 
 4691              	.LASF324:
 4692 04f3 4F535F54 		.ascii	"OS_TmrInit\000"
 4692      6D72496E 
 4692      697400
 4693              	.LASF157:
 4694 04fe 4F535F45 		.ascii	"OS_ERR_TASK_SUSPEND_IDLE\000"
 4694      52525F54 
 4694      41534B5F 
 4694      53555350 
 4694      454E445F 
 4695              	.LASF58:
 4696 0517 4F535F45 		.ascii	"OS_ERR_INT_Q_FULL\000"
 4696      52525F49 
 4696      4E545F51 
 4696      5F46554C 
 4696      4C00
 4697              	.LASF311:
 4698 0529 4F53546D 		.ascii	"OSTmrStart\000"
 4698      72537461 
 4698      727400
 4699              	.LASF292:
 4700 0534 5264794D 		.ascii	"RdyMsgPtr\000"
 4700      73675074 
 4700      7200
 4701              	.LASF300:
 4702 053e 6F735F70 		.ascii	"os_pend_obj\000"
 4702      656E645F 
 4702      6F626A00 
 4703              	.LASF319:
 4704 054a 4F535F54 		.ascii	"OS_TmrClr\000"
 4704      6D72436C 
 4704      7200
 4705              	.LASF56:
 4706 0554 4F535F45 		.ascii	"OS_ERR_ILLEGAL_CREATE_RUN_TIME\000"
 4706      52525F49 
 4706      4C4C4547 
 4706      414C5F43 
 4706      52454154 
 4707              	.LASF258:
 4708 0573 466C6167 		.ascii	"FlagsPend\000"
 4708      7350656E 
 4708      6400
 4709              	.LASF186:
 4710 057d 4F535F45 		.ascii	"OS_ERR_TMR_INVALID_DLY\000"
 4710      52525F54 
 4710      4D525F49 
 4710      4E56414C 
ARM GAS  C:\Users\ADMINI~1\AppData\Local\Temp\ccofok6U.s 			page 111


 4710      49445F44 
 4711              	.LASF28:
 4712 0594 4F535F4F 		.ascii	"OS_OBJ_QTY\000"
 4712      424A5F51 
 4712      545900
 4713              	.LASF228:
 4714 059f 4F776E65 		.ascii	"OwnerTCBPtr\000"
 4714      72544342 
 4714      50747200 
 4715              	.LASF264:
 4716 05ab 43747853 		.ascii	"CtxSwCtr\000"
 4716      77437472 
 4716      00
 4717              	.LASF152:
 4718 05b4 4F535F45 		.ascii	"OS_ERR_TASK_RESUME_PRIO\000"
 4718      52525F54 
 4718      41534B5F 
 4718      52455355 
 4718      4D455F50 
 4719              	.LASF31:
 4720 05cc 4F535F50 		.ascii	"OS_PRIO\000"
 4720      52494F00 
 4721              	.LASF13:
 4722 05d4 666C6F61 		.ascii	"float\000"
 4722      7400
 4723              	.LASF317:
 4724 05da 4F53546D 		.ascii	"OSTmrStop\000"
 4724      7253746F 
 4724      7000
 4725              	.LASF106:
 4726 05e4 4F535F45 		.ascii	"OS_ERR_POST_NULL_PTR\000"
 4726      52525F50 
 4726      4F53545F 
 4726      4E554C4C 
 4726      5F505452 
 4727              	.LASF86:
 4728 05f9 4F535F45 		.ascii	"OS_ERR_NO_MORE_ID_AVAIL\000"
 4728      52525F4E 
 4728      4F5F4D4F 
 4728      52455F49 
 4728      445F4156 
 4729              	.LASF75:
 4730 0611 4F535F45 		.ascii	"OS_ERR_MEM_INVALID_P_DATA\000"
 4730      52525F4D 
 4730      454D5F49 
 4730      4E56414C 
 4730      49445F50 
 4731              	.LASF191:
 4732 062b 4F535F45 		.ascii	"OS_ERR_TMR_NO_CALLBACK\000"
 4732      52525F54 
 4732      4D525F4E 
 4732      4F5F4341 
 4732      4C4C4241 
 4733              	.LASF184:
 4734 0642 4F535F45 		.ascii	"OS_ERR_TMR_INACTIVE\000"
 4734      52525F54 
 4734      4D525F49 
ARM GAS  C:\Users\ADMINI~1\AppData\Local\Temp\ccofok6U.s 			page 112


 4734      4E414354 
 4734      49564500 
 4735              	.LASF164:
 4736 0656 4F535F45 		.ascii	"OS_ERR_TLS_ID_INVALID\000"
 4736      52525F54 
 4736      4C535F49 
 4736      445F494E 
 4736      56414C49 
 4737              	.LASF11:
 4738 066c 6C6F6E67 		.ascii	"long long unsigned int\000"
 4738      206C6F6E 
 4738      6720756E 
 4738      7369676E 
 4738      65642069 
 4739              	.LASF154:
 4740 0683 4F535F45 		.ascii	"OS_ERR_TASK_RUNNING\000"
 4740      52525F54 
 4740      41534B5F 
 4740      52554E4E 
 4740      494E4700 
 4741              	.LASF271:
 4742 0697 53746B55 		.ascii	"StkUsed\000"
 4742      73656400 
 4743              	.LASF189:
 4744 069f 4F535F45 		.ascii	"OS_ERR_TMR_INVALID\000"
 4744      52525F54 
 4744      4D525F49 
 4744      4E56414C 
 4744      494400
 4745              	.LASF287:
 4746 06b2 4F535F50 		.ascii	"OS_PEND_DATA\000"
 4746      454E445F 
 4746      44415441 
 4746      00
 4747              	.LASF158:
 4748 06bf 4F535F45 		.ascii	"OS_ERR_TASK_SUSPEND_INT_HANDLER\000"
 4748      52525F54 
 4748      41534B5F 
 4748      53555350 
 4748      454E445F 
 4749              	.LASF143:
 4750 06df 4F535F45 		.ascii	"OS_ERR_TASK_DEL_INVALID\000"
 4750      52525F54 
 4750      41534B5F 
 4750      44454C5F 
 4750      494E5641 
 4751              	.LASF284:
 4752 06f7 52656D61 		.ascii	"Remain\000"
 4752      696E00
 4753              	.LASF278:
 4754 06fe 4E627255 		.ascii	"NbrUpdated\000"
 4754      70646174 
 4754      656400
 4755              	.LASF345:
 4756 0709 4F53546D 		.ascii	"OSTmrUpdateCtr\000"
 4756      72557064 
 4756      61746543 
ARM GAS  C:\Users\ADMINI~1\AppData\Local\Temp\ccofok6U.s 			page 113


 4756      747200
 4757              	.LASF331:
 4758 0718 74735F64 		.ascii	"ts_delta\000"
 4758      656C7461 
 4758      00
 4759              	.LASF194:
 4760 0721 4F535F45 		.ascii	"OS_ERR_TMR_STK_INVALID\000"
 4760      52525F54 
 4760      4D525F53 
 4760      544B5F49 
 4760      4E56414C 
 4761              	.LASF305:
 4762 0738 705F6361 		.ascii	"p_callback\000"
 4762      6C6C6261 
 4762      636B00
 4763              	.LASF4:
 4764 0743 4350555F 		.ascii	"CPU_INT08U\000"
 4764      494E5430 
 4764      385500
 4765              	.LASF212:
 4766 074e 6F735F6D 		.ascii	"os_msg\000"
 4766      736700
 4767              	.LASF163:
 4768 0755 4F535F45 		.ascii	"OS_ERR_TCB_INVALID\000"
 4768      52525F54 
 4768      43425F49 
 4768      4E56414C 
 4768      494400
 4769              	.LASF250:
 4770 0768 53746B53 		.ascii	"StkSize\000"
 4770      697A6500 
 4771              	.LASF240:
 4772 0770 53746B42 		.ascii	"StkBasePtr\000"
 4772      61736550 
 4772      747200
 4773              	.LASF318:
 4774 077b 705F666E 		.ascii	"p_fnct\000"
 4774      637400
 4775              	.LASF352:
 4776 0782 4F534366 		.ascii	"OSCfg_TmrTaskStkSize\000"
 4776      675F546D 
 4776      72546173 
 4776      6B53746B 
 4776      53697A65 
 4777              	.LASF114:
 4778 0797 4F535F45 		.ascii	"OS_ERR_Q_EMPTY\000"
 4778      52525F51 
 4778      5F454D50 
 4778      545900
 4779              	.LASF179:
 4780 07a6 4F535F45 		.ascii	"OS_ERR_TIME_INVALID_MILLISECONDS\000"
 4780      52525F54 
 4780      494D455F 
 4780      494E5641 
 4780      4C49445F 
 4781              	.LASF33:
 4782 07c7 4F535F52 		.ascii	"OS_REG\000"
ARM GAS  C:\Users\ADMINI~1\AppData\Local\Temp\ccofok6U.s 			page 114


 4782      454700
 4783              	.LASF85:
 4784 07ce 4F535F45 		.ascii	"OS_ERR_NAME\000"
 4784      52525F4E 
 4784      414D4500 
 4785              	.LASF36:
 4786 07da 4F535F53 		.ascii	"OS_STATUS\000"
 4786      54415455 
 4786      5300
 4787              	.LASF246:
 4788 07e4 5461736B 		.ascii	"TaskState\000"
 4788      53746174 
 4788      6500
 4789              	.LASF168:
 4790 07ee 4F535F45 		.ascii	"OS_ERR_TLS_DESTRUCT_ASSIGNED\000"
 4790      52525F54 
 4790      4C535F44 
 4790      45535452 
 4790      5543545F 
 4791              	.LASF80:
 4792 080b 4F535F45 		.ascii	"OS_ERR_MUTEX_NOT_OWNER\000"
 4792      52525F4D 
 4792      55544558 
 4792      5F4E4F54 
 4792      5F4F574E 
 4793              	.LASF26:
 4794 0822 4F535F4D 		.ascii	"OS_MSG_SIZE\000"
 4794      53475F53 
 4794      495A4500 
 4795              	.LASF176:
 4796 082e 4F535F45 		.ascii	"OS_ERR_TIME_INVALID_HOURS\000"
 4796      52525F54 
 4796      494D455F 
 4796      494E5641 
 4796      4C49445F 
 4797              	.LASF192:
 4798 0848 4F535F45 		.ascii	"OS_ERR_TMR_NON_AVAIL\000"
 4798      52525F54 
 4798      4D525F4E 
 4798      4F4E5F41 
 4798      5641494C 
 4799              	.LASF0:
 4800 085d 4350555F 		.ascii	"CPU_CHAR\000"
 4800      43484152 
 4800      00
 4801              	.LASF140:
 4802 0866 4F535F45 		.ascii	"OS_ERR_TASK_CREATE_ISR\000"
 4802      52525F54 
 4802      41534B5F 
 4802      43524541 
 4802      54455F49 
 4803              	.LASF21:
 4804 087d 4F535F43 		.ascii	"OS_CTR\000"
 4804      545200
 4805              	.LASF17:
 4806 0884 4350555F 		.ascii	"CPU_STK_SIZE\000"
 4806      53544B5F 
ARM GAS  C:\Users\ADMINI~1\AppData\Local\Temp\ccofok6U.s 			page 115


 4806      53495A45 
 4806      00
 4807              	.LASF25:
 4808 0891 4F535F4D 		.ascii	"OS_MSG_QTY\000"
 4808      53475F51 
 4808      545900
 4809              	.LASF94:
 4810 089c 4F535F45 		.ascii	"OS_ERR_OS_RUNNING\000"
 4810      52525F4F 
 4810      535F5255 
 4810      4E4E494E 
 4810      4700
 4811              	.LASF272:
 4812 08ae 53746B46 		.ascii	"StkFree\000"
 4812      72656500 
 4813              	.LASF253:
 4814 08b6 5469636B 		.ascii	"TickCtrPrev\000"
 4814      43747250 
 4814      72657600 
 4815              	.LASF216:
 4816 08c2 4E627245 		.ascii	"NbrEntriesSize\000"
 4816      6E747269 
 4816      65735369 
 4816      7A6500
 4817              	.LASF322:
 4818 08d1 705F746D 		.ascii	"p_tmr_next\000"
 4818      725F6E65 
 4818      787400
 4819              	.LASF182:
 4820 08dc 4F535F45 		.ascii	"OS_ERR_TIME_ZERO_DLY\000"
 4820      52525F54 
 4820      494D455F 
 4820      5A45524F 
 4820      5F444C59 
 4821              	.LASF238:
 4822 08f1 5469636B 		.ascii	"TickPrevPtr\000"
 4822      50726576 
 4822      50747200 
 4823              	.LASF259:
 4824 08fd 466C6167 		.ascii	"FlagsRdy\000"
 4824      73526479 
 4824      00
 4825              	.LASF131:
 4826 0906 4F535F45 		.ascii	"OS_ERR_STAT_STK_INVALID\000"
 4826      52525F53 
 4826      5441545F 
 4826      53544B5F 
 4826      494E5641 
 4827              	.LASF49:
 4828 091e 4F535F45 		.ascii	"OS_ERR_FLAG_GRP_DEPLETED\000"
 4828      52525F46 
 4828      4C41475F 
 4828      4752505F 
 4828      4445504C 
 4829              	.LASF71:
 4830 0937 4F535F45 		.ascii	"OS_ERR_MEM_INVALID_BLKS\000"
 4830      52525F4D 
ARM GAS  C:\Users\ADMINI~1\AppData\Local\Temp\ccofok6U.s 			page 116


 4830      454D5F49 
 4830      4E56414C 
 4830      49445F42 
 4831              	.LASF248:
 4832 094f 42617365 		.ascii	"BasePrio\000"
 4832      5072696F 
 4832      00
 4833              	.LASF256:
 4834 0958 4D736751 		.ascii	"MsgQPendTimeMax\000"
 4834      50656E64 
 4834      54696D65 
 4834      4D617800 
 4835              	.LASF95:
 4836 0968 4F535F45 		.ascii	"OS_ERR_OS_NOT_INIT\000"
 4836      52525F4F 
 4836      535F4E4F 
 4836      545F494E 
 4836      495400
 4837              	.LASF206:
 4838 097b 4F535F4D 		.ascii	"OS_MSG\000"
 4838      534700
 4839              	.LASF303:
 4840 0982 705F6E61 		.ascii	"p_name\000"
 4840      6D6500
 4841              	.LASF185:
 4842 0989 4F535F45 		.ascii	"OS_ERR_TMR_INVALID_DEST\000"
 4842      52525F54 
 4842      4D525F49 
 4842      4E56414C 
 4842      49445F44 
 4843              	.LASF123:
 4844 09a1 4F535F45 		.ascii	"OS_ERR_SCHED_LOCK_ISR\000"
 4844      52525F53 
 4844      43484544 
 4844      5F4C4F43 
 4844      4B5F4953 
 4845              	.LASF350:
 4846 09b7 4F534366 		.ascii	"OSCfg_TmrTaskStkBasePtr\000"
 4846      675F546D 
 4846      72546173 
 4846      6B53746B 
 4846      42617365 
 4847              	.LASF45:
 4848 09cf 4F535F45 		.ascii	"OS_ERR_DEL_ISR\000"
 4848      52525F44 
 4848      454C5F49 
 4848      535200
 4849              	.LASF307:
 4850 09de 705F6572 		.ascii	"p_err\000"
 4850      7200
 4851              	.LASF308:
 4852 09e4 4F53546D 		.ascii	"OSTmrCreate\000"
 4852      72437265 
 4852      61746500 
 4853              	.LASF115:
 4854 09f0 4F535F45 		.ascii	"OS_ERR_Q_MAX\000"
 4854      52525F51 
ARM GAS  C:\Users\ADMINI~1\AppData\Local\Temp\ccofok6U.s 			page 117


 4854      5F4D4158 
 4854      00
 4855              	.LASF236:
 4856 09fd 50726576 		.ascii	"PrevPtr\000"
 4856      50747200 
 4857              	.LASF2:
 4858 0a05 63686172 		.ascii	"char\000"
 4858      00
 4859              	.LASF29:
 4860 0a0a 4F535F4F 		.ascii	"OS_OBJ_TYPE\000"
 4860      424A5F54 
 4860      59504500 
 4861              	.LASF333:
 4862 0a16 4F535F54 		.ascii	"OS_TmrUnlock\000"
 4862      6D72556E 
 4862      6C6F636B 
 4862      00
 4863              	.LASF167:
 4864 0a23 4F535F45 		.ascii	"OS_ERR_TLS_NOT_EN\000"
 4864      52525F54 
 4864      4C535F4E 
 4864      4F545F45 
 4864      4E00
 4865              	.LASF92:
 4866 0a35 4F535F45 		.ascii	"OS_ERR_OPT_INVALID\000"
 4866      52525F4F 
 4866      50545F49 
 4866      4E56414C 
 4866      494400
 4867              	.LASF323:
 4868 0a48 705F746D 		.ascii	"p_tmr_prev\000"
 4868      725F7072 
 4868      657600
 4869              	.LASF122:
 4870 0a53 4F535F45 		.ascii	"OS_ERR_SCHED_INVALID_TIME_SLICE\000"
 4870      52525F53 
 4870      43484544 
 4870      5F494E56 
 4870      414C4944 
 4871              	.LASF96:
 4872 0a73 4F535F45 		.ascii	"OS_ERR_OS_NO_APP_TASK\000"
 4872      52525F4F 
 4872      535F4E4F 
 4872      5F415050 
 4872      5F544153 
 4873              	.LASF254:
 4874 0a89 4D736751 		.ascii	"MsgQ\000"
 4874      00
 4875              	.LASF32:
 4876 0a8e 4F535F52 		.ascii	"OS_RATE_HZ\000"
 4876      4154455F 
 4876      485A00
 4877              	.LASF241:
 4878 0a99 5461736B 		.ascii	"TaskEntryAddr\000"
 4878      456E7472 
 4878      79416464 
 4878      7200
ARM GAS  C:\Users\ADMINI~1\AppData\Local\Temp\ccofok6U.s 			page 118


 4879              	.LASF354:
 4880 0aa7 2E2E5C2E 		.ascii	"..\\..\\..\\..\\..\\..\\Software\\uCOS-III\\Source\\"
 4880      2E5C2E2E 
 4880      5C2E2E5C 
 4880      2E2E5C2E 
 4880      2E5C536F 
 4881 0ad2 6F735F74 		.ascii	"os_tmr.c\000"
 4881      6D722E63 
 4881      00
 4882              	.LASF130:
 4883 0adb 4F535F45 		.ascii	"OS_ERR_STAT_PRIO_INVALID\000"
 4883      52525F53 
 4883      5441545F 
 4883      5052494F 
 4883      5F494E56 
 4884              	.LASF180:
 4885 0af4 4F535F45 		.ascii	"OS_ERR_TIME_NOT_DLY\000"
 4885      52525F54 
 4885      494D455F 
 4885      4E4F545F 
 4885      444C5900 
 4886              	.LASF222:
 4887 0b08 4E616D65 		.ascii	"NamePtr\000"
 4887      50747200 
 4888              	.LASF245:
 4889 0b10 50656E64 		.ascii	"PendStatus\000"
 4889      53746174 
 4889      757300
 4890              	.LASF211:
 4891 0b1b 4F535F4D 		.ascii	"OS_MSG_Q\000"
 4891      53475F51 
 4891      00
 4892              	.LASF221:
 4893 0b24 54797065 		.ascii	"Type\000"
 4893      00
 4894              	.LASF203:
 4895 0b29 4F535F45 		.ascii	"OS_ERR_YIELD_ISR\000"
 4895      52525F59 
 4895      49454C44 
 4895      5F495352 
 4895      00
 4896              	.LASF89:
 4897 0b3a 4F535F45 		.ascii	"OS_ERR_OBJ_DEL\000"
 4897      52525F4F 
 4897      424A5F44 
 4897      454C00
 4898              	.LASF19:
 4899 0b49 4350555F 		.ascii	"CPU_TS\000"
 4899      545300
 4900              	.LASF12:
 4901 0b50 6C6F6E67 		.ascii	"long long int\000"
 4901      206C6F6E 
 4901      6720696E 
 4901      7400
 4902              	.LASF51:
 4903 0b5e 4F535F45 		.ascii	"OS_ERR_FLAG_PEND_OPT\000"
 4903      52525F46 
ARM GAS  C:\Users\ADMINI~1\AppData\Local\Temp\ccofok6U.s 			page 119


 4903      4C41475F 
 4903      50454E44 
 4903      5F4F5054 
 4904              	.LASF233:
 4905 0b73 53746B50 		.ascii	"StkPtr\000"
 4905      747200
 4906              	.LASF327:
 4907 0b7a 705F746D 		.ascii	"p_tmr2\000"
 4907      723200
 4908              	.LASF282:
 4909 0b81 43616C6C 		.ascii	"CallbackPtr\000"
 4909      6261636B 
 4909      50747200 
 4910              	.LASF162:
 4911 0b8d 4F535F45 		.ascii	"OS_ERR_TASK_SUSPEND_CTR_OVF\000"
 4911      52525F54 
 4911      41534B5F 
 4911      53555350 
 4911      454E445F 
 4912              	.LASF335:
 4913 0ba9 4F535275 		.ascii	"OSRunning\000"
 4913      6E6E696E 
 4913      6700
 4914              	.LASF116:
 4915 0bb3 4F535F45 		.ascii	"OS_ERR_Q_SIZE\000"
 4915      52525F51 
 4915      5F53495A 
 4915      4500
 4916              	.LASF266:
 4917 0bc1 4379636C 		.ascii	"CyclesStart\000"
 4917      65735374 
 4917      61727400 
 4918              	.LASF285:
 4919 0bcd 50657269 		.ascii	"Period\000"
 4919      6F6400
 4920              	.LASF320:
 4921 0bd4 4F535F54 		.ascii	"OS_TmrDbgListAdd\000"
 4921      6D724462 
 4921      674C6973 
 4921      74416464 
 4921      00
 4922              	.LASF289:
 4923 0be5 54434250 		.ascii	"TCBPtr\000"
 4923      747200
 4924              	.LASF101:
 4925 0bec 4F535F45 		.ascii	"OS_ERR_PEND_ABORT_SELF\000"
 4925      52525F50 
 4925      454E445F 
 4925      41424F52 
 4925      545F5345 
 4926              	.LASF6:
 4927 0c03 4350555F 		.ascii	"CPU_INT16U\000"
 4927      494E5431 
 4927      365500
 4928              	.LASF120:
 4929 0c0e 4F535F45 		.ascii	"OS_ERR_ROUND_ROBIN_DISABLED\000"
 4929      52525F52 
ARM GAS  C:\Users\ADMINI~1\AppData\Local\Temp\ccofok6U.s 			page 120


 4929      4F554E44 
 4929      5F524F42 
 4929      494E5F44 
 4930              	.LASF72:
 4931 0c2a 4F535F45 		.ascii	"OS_ERR_MEM_INVALID_PART\000"
 4931      52525F4D 
 4931      454D5F49 
 4931      4E56414C 
 4931      49445F50 
 4932              	.LASF90:
 4933 0c42 4F535F45 		.ascii	"OS_ERR_OBJ_PTR_NULL\000"
 4933      52525F4F 
 4933      424A5F50 
 4933      54525F4E 
 4933      554C4C00 
 4934              	.LASF118:
 4935 0c56 4F535F45 		.ascii	"OS_ERR_REG_ID_INVALID\000"
 4935      52525F52 
 4935      45475F49 
 4935      445F494E 
 4935      56414C49 
 4936              	.LASF37:
 4937 0c6c 4F535F54 		.ascii	"OS_TICK\000"
 4937      49434B00 
 4938              	.LASF69:
 4939 0c74 4F535F45 		.ascii	"OS_ERR_MEM_FULL\000"
 4939      52525F4D 
 4939      454D5F46 
 4939      554C4C00 
 4940              	.LASF146:
 4941 0c84 4F535F45 		.ascii	"OS_ERR_TASK_NO_MORE_TCB\000"
 4941      52525F54 
 4941      41534B5F 
 4941      4E4F5F4D 
 4941      4F52455F 
 4942              	.LASF74:
 4943 0c9c 4F535F45 		.ascii	"OS_ERR_MEM_INVALID_P_MEM\000"
 4943      52525F4D 
 4943      454D5F49 
 4943      4E56414C 
 4943      49445F50 
 4944              	.LASF18:
 4945 0cb5 4350555F 		.ascii	"CPU_TS32\000"
 4945      54533332 
 4945      00
 4946              	.LASF261:
 4947 0cbe 53757370 		.ascii	"SuspendCtr\000"
 4947      656E6443 
 4947      747200
 4948              	.LASF235:
 4949 0cc9 53746B4C 		.ascii	"StkLimitPtr\000"
 4949      696D6974 
 4949      50747200 
 4950              	.LASF265:
 4951 0cd5 4379636C 		.ascii	"CyclesDelta\000"
 4951      65734465 
 4951      6C746100 
ARM GAS  C:\Users\ADMINI~1\AppData\Local\Temp\ccofok6U.s 			page 121


 4952              	.LASF34:
 4953 0ce1 4F535F53 		.ascii	"OS_SEM_CTR\000"
 4953      454D5F43 
 4953      545200
 4954              	.LASF195:
 4955 0cec 4F535F45 		.ascii	"OS_ERR_TMR_STK_SIZE_INVALID\000"
 4955      52525F54 
 4955      4D525F53 
 4955      544B5F53 
 4955      495A455F 
 4956              	.LASF172:
 4957 0d08 4F535F45 		.ascii	"OS_ERR_TICK_WHEEL_SIZE\000"
 4957      52525F54 
 4957      49434B5F 
 4957      57484545 
 4957      4C5F5349 
 4958              	.LASF237:
 4959 0d1f 5469636B 		.ascii	"TickNextPtr\000"
 4959      4E657874 
 4959      50747200 
 4960              	.LASF148:
 4961 0d2b 4F535F45 		.ascii	"OS_ERR_TASK_NOT_EXIST\000"
 4961      52525F54 
 4961      41534B5F 
 4961      4E4F545F 
 4961      45584953 
 4962              	.LASF346:
 4963 0d41 4F534366 		.ascii	"OSCfg_StkSizeMin\000"
 4963      675F5374 
 4963      6B53697A 
 4963      654D696E 
 4963      00
 4964              	.LASF145:
 4965 0d52 4F535F45 		.ascii	"OS_ERR_TASK_INVALID\000"
 4965      52525F54 
 4965      41534B5F 
 4965      494E5641 
 4965      4C494400 
 4966              	.LASF193:
 4967 0d66 4F535F45 		.ascii	"OS_ERR_TMR_PRIO_INVALID\000"
 4967      52525F54 
 4967      4D525F50 
 4967      52494F5F 
 4967      494E5641 
 4968              	.LASF160:
 4969 0d7e 4F535F45 		.ascii	"OS_ERR_TASK_SUSPEND_PRIO\000"
 4969      52525F54 
 4969      41534B5F 
 4969      53555350 
 4969      454E445F 
 4970              	.LASF291:
 4971 0d97 5264794F 		.ascii	"RdyObjPtr\000"
 4971      626A5074 
 4971      7200
 4972              	.LASF61:
 4973 0da1 4F535F45 		.ascii	"OS_ERR_INT_Q_STK_SIZE_INVALID\000"
 4973      52525F49 
ARM GAS  C:\Users\ADMINI~1\AppData\Local\Temp\ccofok6U.s 			page 122


 4973      4E545F51 
 4973      5F53544B 
 4973      5F53495A 
 4974              	.LASF165:
 4975 0dbf 4F535F45 		.ascii	"OS_ERR_TLS_ISR\000"
 4975      52525F54 
 4975      4C535F49 
 4975      535200
 4976              	.LASF197:
 4977 0dce 4F535F45 		.ascii	"OS_ERR_TMR_INVALID_CALLBACK\000"
 4977      52525F54 
 4977      4D525F49 
 4977      4E56414C 
 4977      49445F43 
 4978              	.LASF144:
 4979 0dea 4F535F45 		.ascii	"OS_ERR_TASK_DEL_ISR\000"
 4979      52525F54 
 4979      41534B5F 
 4979      44454C5F 
 4979      49535200 
 4980              	.LASF269:
 4981 0dfe 53656D50 		.ascii	"SemPendTime\000"
 4981      656E6454 
 4981      696D6500 
 4982              	.LASF111:
 4983 0e0a 4F535F45 		.ascii	"OS_ERR_PTR_INVALID\000"
 4983      52525F50 
 4983      54525F49 
 4983      4E56414C 
 4983      494400
 4984              	.LASF133:
 4985 0e1d 4F535F45 		.ascii	"OS_ERR_STATE_INVALID\000"
 4985      52525F53 
 4985      54415445 
 4985      5F494E56 
 4985      414C4944 
 4986              	.LASF207:
 4987 0e32 4E657874 		.ascii	"NextPtr\000"
 4987      50747200 
 4988              	.LASF93:
 4989 0e3a 4F535F45 		.ascii	"OS_ERR_OS_NOT_RUNNING\000"
 4989      52525F4F 
 4989      535F4E4F 
 4989      545F5255 
 4989      4E4E494E 
 4990              	.LASF255:
 4991 0e50 4D736751 		.ascii	"MsgQPendTime\000"
 4991      50656E64 
 4991      54696D65 
 4991      00
 4992              	.LASF220:
 4993 0e5d 6F735F6D 		.ascii	"os_mutex\000"
 4993      75746578 
 4993      00
 4994              	.LASF280:
 4995 0e66 4F535F54 		.ascii	"OS_TMR\000"
 4995      4D5200
ARM GAS  C:\Users\ADMINI~1\AppData\Local\Temp\ccofok6U.s 			page 123


 4996              	.LASF334:
 4997 0e6d 4F53496E 		.ascii	"OSIntNestingCtr\000"
 4997      744E6573 
 4997      74696E67 
 4997      43747200 
 4998              	.LASF312:
 4999 0e7d 72656D61 		.ascii	"remain\000"
 4999      696E00
 5000              	.LASF239:
 5001 0e84 5469636B 		.ascii	"TickListPtr\000"
 5001      4C697374 
 5001      50747200 
 5002              	.LASF181:
 5003 0e90 4F535F45 		.ascii	"OS_ERR_TIME_SET_ISR\000"
 5003      52525F54 
 5003      494D455F 
 5003      5345545F 
 5003      49535200 
 5004              	.LASF119:
 5005 0ea4 4F535F45 		.ascii	"OS_ERR_ROUND_ROBIN_1\000"
 5005      52525F52 
 5005      4F554E44 
 5005      5F524F42 
 5005      494E5F31 
 5006              	.LASF73:
 5007 0eb9 4F535F45 		.ascii	"OS_ERR_MEM_INVALID_P_BLK\000"
 5007      52525F4D 
 5007      454D5F49 
 5007      4E56414C 
 5007      49445F50 
 5008              	.LASF70:
 5009 0ed2 4F535F45 		.ascii	"OS_ERR_MEM_INVALID_P_ADDR\000"
 5009      52525F4D 
 5009      454D5F49 
 5009      4E56414C 
 5009      49445F50 
 5010              	.LASF294:
 5011 0eec 52647954 		.ascii	"RdyTS\000"
 5011      5300
 5012              	.LASF66:
 5013 0ef2 4F535F45 		.ascii	"OS_ERR_LOCK_NESTING_OVF\000"
 5013      52525F4C 
 5013      4F434B5F 
 5013      4E455354 
 5013      494E475F 
 5014              	.LASF155:
 5015 0f0a 4F535F45 		.ascii	"OS_ERR_TASK_STK_CHK_ISR\000"
 5015      52525F54 
 5015      41534B5F 
 5015      53544B5F 
 5015      43484B5F 
 5016              	.LASF276:
 5017 0f22 6F735F74 		.ascii	"os_tick_list\000"
 5017      69636B5F 
 5017      6C697374 
 5017      00
 5018              	.LASF8:
ARM GAS  C:\Users\ADMINI~1\AppData\Local\Temp\ccofok6U.s 			page 124


 5019 0f2f 73686F72 		.ascii	"short int\000"
 5019      7420696E 
 5019      7400
 5020              	.LASF293:
 5021 0f39 5264794D 		.ascii	"RdyMsgSize\000"
 5021      73675369 
 5021      7A6500
 5022              	.LASF281:
 5023 0f44 6F735F74 		.ascii	"os_tmr\000"
 5023      6D7200
 5024              	.LASF78:
 5025 0f4b 4F535F45 		.ascii	"OS_ERR_MSG_POOL_EMPTY\000"
 5025      52525F4D 
 5025      53475F50 
 5025      4F4F4C5F 
 5025      454D5054 
 5026              	.LASF273:
 5027 0f61 496E7444 		.ascii	"IntDisTimeMax\000"
 5027      69735469 
 5027      6D654D61 
 5027      7800
 5028              	.LASF126:
 5029 0f6f 4F535F45 		.ascii	"OS_ERR_SCHED_UNLOCK_ISR\000"
 5029      52525F53 
 5029      43484544 
 5029      5F554E4C 
 5029      4F434B5F 
 5030              	.LASF270:
 5031 0f87 53656D50 		.ascii	"SemPendTimeMax\000"
 5031      656E6454 
 5031      696D654D 
 5031      617800
 5032              	.LASF279:
 5033 0f96 4F535F54 		.ascii	"OS_TMR_CALLBACK_PTR\000"
 5033      4D525F43 
 5033      414C4C42 
 5033      41434B5F 
 5033      50545200 
 5034              	.LASF268:
 5035 0faa 4379636C 		.ascii	"CyclesTotalPrev\000"
 5035      6573546F 
 5035      74616C50 
 5035      72657600 
 5036              	.LASF227:
 5037 0fba 4D757465 		.ascii	"MutexGrpNextPtr\000"
 5037      78477270 
 5037      4E657874 
 5037      50747200 
 5038              	.LASF275:
 5039 0fca 4F535F54 		.ascii	"OS_TICK_LIST\000"
 5039      49434B5F 
 5039      4C495354 
 5039      00
 5040              	.LASF170:
 5041 0fd7 4F535F45 		.ascii	"OS_ERR_TICK_STK_INVALID\000"
 5041      52525F54 
 5041      49434B5F 
ARM GAS  C:\Users\ADMINI~1\AppData\Local\Temp\ccofok6U.s 			page 125


 5041      53544B5F 
 5041      494E5641 
 5042              	.LASF79:
 5043 0fef 4F535F45 		.ascii	"OS_ERR_MSG_POOL_NULL_PTR\000"
 5043      52525F4D 
 5043      53475F50 
 5043      4F4F4C5F 
 5043      4E554C4C 
 5044              	.LASF27:
 5045 1008 4F535F4E 		.ascii	"OS_NESTING_CTR\000"
 5045      45535449 
 5045      4E475F43 
 5045      545200
 5046              	.LASF267:
 5047 1017 4379636C 		.ascii	"CyclesTotal\000"
 5047      6573546F 
 5047      74616C00 
 5048              	.LASF299:
 5049 1023 4F535F50 		.ascii	"OS_PEND_OBJ\000"
 5049      454E445F 
 5049      4F424A00 
 5050              	.LASF313:
 5051 102f 705F6E65 		.ascii	"p_next\000"
 5051      787400
 5052              	.LASF153:
 5053 1036 4F535F45 		.ascii	"OS_ERR_TASK_RESUME_SELF\000"
 5053      52525F54 
 5053      41534B5F 
 5053      52455355 
 5053      4D455F53 
 5054              	.LASF263:
 5055 104e 43505555 		.ascii	"CPUUsageMax\000"
 5055      73616765 
 5055      4D617800 
 5056              	.LASF223:
 5057 105a 50656E64 		.ascii	"PendList\000"
 5057      4C697374 
 5057      00
 5058              	.LASF91:
 5059 1063 4F535F45 		.ascii	"OS_ERR_OBJ_TYPE\000"
 5059      52525F4F 
 5059      424A5F54 
 5059      59504500 
 5060              	.LASF243:
 5061 1073 50656E64 		.ascii	"PendDataTblPtr\000"
 5061      44617461 
 5061      54626C50 
 5061      747200
 5062              	.LASF251:
 5063 1082 53656D43 		.ascii	"SemCtr\000"
 5063      747200
 5064              	.LASF337:
 5065 1089 4F53546D 		.ascii	"OSTmrListEntries\000"
 5065      724C6973 
 5065      74456E74 
 5065      72696573 
 5065      00
ARM GAS  C:\Users\ADMINI~1\AppData\Local\Temp\ccofok6U.s 			page 126


 5066              	.LASF214:
 5067 109a 496E5074 		.ascii	"InPtr\000"
 5067      7200
 5068              	.LASF252:
 5069 10a0 5469636B 		.ascii	"TickRemain\000"
 5069      52656D61 
 5069      696E00
 5070              	.LASF297:
 5071 10ab 48656164 		.ascii	"HeadPtr\000"
 5071      50747200 
 5072              	.LASF314:
 5073 10b3 73756363 		.ascii	"success\000"
 5073      65737300 
 5074              	.LASF100:
 5075 10bb 4F535F45 		.ascii	"OS_ERR_PEND_ABORT_NONE\000"
 5075      52525F50 
 5075      454E445F 
 5075      41424F52 
 5075      545F4E4F 
 5076              	.LASF10:
 5077 10d2 756E7369 		.ascii	"unsigned int\000"
 5077      676E6564 
 5077      20696E74 
 5077      00
 5078              	.LASF325:
 5079 10df 4F535F54 		.ascii	"OS_TmrUnlink\000"
 5079      6D72556E 
 5079      6C696E6B 
 5079      00
 5080              	.LASF209:
 5081 10ec 4D736753 		.ascii	"MsgSize\000"
 5081      697A6500 
 5082              	.LASF81:
 5083 10f4 4F535F45 		.ascii	"OS_ERR_MUTEX_OWNER\000"
 5083      52525F4D 
 5083      55544558 
 5083      5F4F574E 
 5083      455200
 5084              	.LASF132:
 5085 1107 4F535F45 		.ascii	"OS_ERR_STAT_STK_SIZE_INVALID\000"
 5085      52525F53 
 5085      5441545F 
 5085      53544B5F 
 5085      53495A45 
 5086              	.LASF50:
 5087 1124 4F535F45 		.ascii	"OS_ERR_FLAG_NOT_RDY\000"
 5087      52525F46 
 5087      4C41475F 
 5087      4E4F545F 
 5087      52445900 
 5088              	.LASF329:
 5089 1138 705F6172 		.ascii	"p_arg\000"
 5089      6700
 5090              	.LASF234:
 5091 113e 45787450 		.ascii	"ExtPtr\000"
 5091      747200
 5092              	.LASF309:
ARM GAS  C:\Users\ADMINI~1\AppData\Local\Temp\ccofok6U.s 			page 127


 5093 1145 4F53546D 		.ascii	"OSTmrSet\000"
 5093      72536574 
 5093      00
 5094              	.LASF301:
 5095 114e 73697A65 		.ascii	"sizetype\000"
 5095      74797065 
 5095      00
 5096              	.LASF99:
 5097 1157 4F535F45 		.ascii	"OS_ERR_PEND_ABORT_ISR\000"
 5097      52525F50 
 5097      454E445F 
 5097      41424F52 
 5097      545F4953 
 5098              	.LASF15:
 5099 116d 4350555F 		.ascii	"CPU_ADDR\000"
 5099      41444452 
 5099      00
 5100              	.LASF107:
 5101 1176 4F535F45 		.ascii	"OS_ERR_POST_ISR\000"
 5101      52525F50 
 5101      4F53545F 
 5101      49535200 
 5102              	.LASF173:
 5103 1186 4F535F45 		.ascii	"OS_ERR_TIME_DLY_ISR\000"
 5103      52525F54 
 5103      494D455F 
 5103      444C595F 
 5103      49535200 
 5104              	.LASF137:
 5105 119a 4F535F45 		.ascii	"OS_ERR_STK_LIMIT_INVALID\000"
 5105      52525F53 
 5105      544B5F4C 
 5105      494D4954 
 5105      5F494E56 
 5106              	.LASF321:
 5107 11b3 4F535F54 		.ascii	"OS_TmrDbgListRemove\000"
 5107      6D724462 
 5107      674C6973 
 5107      7452656D 
 5107      6F766500 
 5108              	.LASF1:
 5109 11c7 4350555F 		.ascii	"CPU_BOOLEAN\000"
 5109      424F4F4C 
 5109      45414E00 
 5110              	.LASF23:
 5111 11d3 4F535F43 		.ascii	"OS_CYCLES\000"
 5111      59434C45 
 5111      5300
 5112              	.LASF231:
 5113 11dd 4F535F54 		.ascii	"OS_TCB\000"
 5113      434200
 5114              	.LASF136:
 5115 11e4 4F535F45 		.ascii	"OS_ERR_STK_SIZE_INVALID\000"
 5115      52525F53 
 5115      544B5F53 
 5115      495A455F 
 5115      494E5641 
ARM GAS  C:\Users\ADMINI~1\AppData\Local\Temp\ccofok6U.s 			page 128


 5116              	.LASF348:
 5117 11fc 4F534366 		.ascii	"OSCfg_TmrTaskPrio\000"
 5117      675F546D 
 5117      72546173 
 5117      6B507269 
 5117      6F00
 5118              	.LASF53:
 5119 120e 4F535F45 		.ascii	"OS_ERR_G\000"
 5119      52525F47 
 5119      00
 5120              	.LASF196:
 5121 1217 4F535F45 		.ascii	"OS_ERR_TMR_STOPPED\000"
 5121      52525F54 
 5121      4D525F53 
 5121      544F5050 
 5121      454400
 5122              	.LASF3:
 5123 122a 756E7369 		.ascii	"unsigned char\000"
 5123      676E6564 
 5123      20636861 
 5123      7200
 5124              	.LASF150:
 5125 1238 4F535F45 		.ascii	"OS_ERR_TASK_OPT\000"
 5125      52525F54 
 5125      41534B5F 
 5125      4F505400 
 5126              	.LASF183:
 5127 1248 4F535F45 		.ascii	"OS_ERR_TIMEOUT\000"
 5127      52525F54 
 5127      494D454F 
 5127      555400
 5128              	.LASF342:
 5129 1257 4F53546D 		.ascii	"OSTmrTaskTimeMax\000"
 5129      72546173 
 5129      6B54696D 
 5129      654D6178 
 5129      00
 5130              	.LASF35:
 5131 1268 4F535F53 		.ascii	"OS_STATE\000"
 5131      54415445 
 5131      00
 5132              	.LASF30:
 5133 1271 4F535F4F 		.ascii	"OS_OPT\000"
 5133      505400
 5134              	.LASF230:
 5135 1278 4F535F54 		.ascii	"OS_TASK_PTR\000"
 5135      41534B5F 
 5135      50545200 
 5136              	.LASF340:
 5137 1284 4F53546D 		.ascii	"OSTmrQty\000"
 5137      72517479 
 5137      00
 5138              	.LASF68:
 5139 128d 4F535F45 		.ascii	"OS_ERR_MEM_CREATE_ISR\000"
 5139      52525F4D 
 5139      454D5F43 
 5139      52454154 
ARM GAS  C:\Users\ADMINI~1\AppData\Local\Temp\ccofok6U.s 			page 129


 5139      455F4953 
 5140              	.LASF134:
 5141 12a3 4F535F45 		.ascii	"OS_ERR_STATUS_INVALID\000"
 5141      52525F53 
 5141      54415455 
 5141      535F494E 
 5141      56414C49 
 5142              	.LASF202:
 5143 12b9 4F535F45 		.ascii	"OS_ERR_Y\000"
 5143      52525F59 
 5143      00
 5144              	.LASF103:
 5145 12c2 4F535F45 		.ascii	"OS_ERR_PEND_ISR\000"
 5145      52525F50 
 5145      454E445F 
 5145      49535200 
 5146              	.LASF204:
 5147 12d2 4F535F45 		.ascii	"OS_ERR_Z\000"
 5147      52525F5A 
 5147      00
 5148              	.LASF226:
 5149 12db 4462674E 		.ascii	"DbgNamePtr\000"
 5149      616D6550 
 5149      747200
 5150              	.LASF215:
 5151 12e6 4F757450 		.ascii	"OutPtr\000"
 5151      747200
 5152              	.LASF242:
 5153 12ed 5461736B 		.ascii	"TaskEntryArg\000"
 5153      456E7472 
 5153      79417267 
 5153      00
 5154              	.LASF113:
 5155 12fa 4F535F45 		.ascii	"OS_ERR_Q_FULL\000"
 5155      52525F51 
 5155      5F46554C 
 5155      4C00
 5156              	.LASF316:
 5157 1308 73746174 		.ascii	"state\000"
 5157      6500
 5158              	.LASF344:
 5159 130e 4F53546D 		.ascii	"OSTmrUpdateCnt\000"
 5159      72557064 
 5159      61746543 
 5159      6E7400
 5160              	.LASF326:
 5161 131d 705F746D 		.ascii	"p_tmr1\000"
 5161      723100
 5162              	.LASF60:
 5163 1324 4F535F45 		.ascii	"OS_ERR_INT_Q_STK_INVALID\000"
 5163      52525F49 
 5163      4E545F51 
 5163      5F53544B 
 5163      5F494E56 
 5164              	.LASF178:
 5165 133d 4F535F45 		.ascii	"OS_ERR_TIME_INVALID_SECONDS\000"
 5165      52525F54 
ARM GAS  C:\Users\ADMINI~1\AppData\Local\Temp\ccofok6U.s 			page 130


 5165      494D455F 
 5165      494E5641 
 5165      4C49445F 
 5166              	.LASF141:
 5167 1359 4F535F45 		.ascii	"OS_ERR_TASK_DEL\000"
 5167      52525F54 
 5167      41534B5F 
 5167      44454C00 
 5168              	.LASF295:
 5169 1369 4F535F50 		.ascii	"OS_PEND_LIST\000"
 5169      454E445F 
 5169      4C495354 
 5169      00
 5170              	.LASF336:
 5171 1376 4F53546D 		.ascii	"OSTmrDbgListPtr\000"
 5171      72446267 
 5171      4C697374 
 5171      50747200 
 5172              	.LASF332:
 5173 1386 4F535F54 		.ascii	"OS_TmrLock\000"
 5173      6D724C6F 
 5173      636B00
 5174              	.LASF5:
 5175 1391 7369676E 		.ascii	"signed char\000"
 5175      65642063 
 5175      68617200 
 5176              	.LASF304:
 5177 139d 70657269 		.ascii	"period\000"
 5177      6F6400
 5178              	.LASF210:
 5179 13a4 4D736754 		.ascii	"MsgTS\000"
 5179      5300
 5180              	.LASF48:
 5181 13aa 4F535F45 		.ascii	"OS_ERR_FATAL_RETURN\000"
 5181      52525F46 
 5181      4154414C 
 5181      5F524554 
 5181      55524E00 
 5182              	.LASF7:
 5183 13be 73686F72 		.ascii	"short unsigned int\000"
 5183      7420756E 
 5183      7369676E 
 5183      65642069 
 5183      6E7400
 5184              	.LASF24:
 5185 13d1 4F535F46 		.ascii	"OS_FLAGS\000"
 5185      4C414753 
 5185      00
 5186              	.LASF208:
 5187 13da 4D736750 		.ascii	"MsgPtr\000"
 5187      747200
 5188              	.LASF166:
 5189 13e1 4F535F45 		.ascii	"OS_ERR_TLS_NO_MORE_AVAIL\000"
 5189      52525F54 
 5189      4C535F4E 
 5189      4F5F4D4F 
 5189      52455F41 
ARM GAS  C:\Users\ADMINI~1\AppData\Local\Temp\ccofok6U.s 			page 131


 5190              	.LASF38:
 5191 13fa 4F535F45 		.ascii	"OS_ERR_NONE\000"
 5191      52525F4E 
 5191      4F4E4500 
 5192              	.LASF315:
 5193 1406 4F53546D 		.ascii	"OSTmrStateGet\000"
 5193      72537461 
 5193      74654765 
 5193      7400
 5194              	.LASF288:
 5195 1414 6F735F70 		.ascii	"os_pend_data\000"
 5195      656E645F 
 5195      64617461 
 5195      00
 5196              	.LASF124:
 5197 1421 4F535F45 		.ascii	"OS_ERR_SCHED_LOCKED\000"
 5197      52525F53 
 5197      43484544 
 5197      5F4C4F43 
 5197      4B454400 
 5198              	.LASF52:
 5199 1435 4F535F45 		.ascii	"OS_ERR_FLUSH_ISR\000"
 5199      52525F46 
 5199      4C555348 
 5199      5F495352 
 5199      00
 5200              	.LASF247:
 5201 1446 5072696F 		.ascii	"Prio\000"
 5201      00
 5202              	.LASF14:
 5203 144b 646F7562 		.ascii	"double\000"
 5203      6C6500
 5204              	.LASF98:
 5205 1452 4F535F45 		.ascii	"OS_ERR_PEND_ABORT\000"
 5205      52525F50 
 5205      454E445F 
 5205      41424F52 
 5205      5400
 5206              	.LASF262:
 5207 1464 43505555 		.ascii	"CPUUsage\000"
 5207      73616765 
 5207      00
 5208              	.LASF125:
 5209 146d 4F535F45 		.ascii	"OS_ERR_SCHED_NOT_LOCKED\000"
 5209      52525F53 
 5209      43484544 
 5209      5F4E4F54 
 5209      5F4C4F43 
 5210              	.LASF109:
 5211 1485 4F535F45 		.ascii	"OS_ERR_PRIO\000"
 5211      52525F50 
 5211      52494F00 
 5212              	.LASF102:
 5213 1491 4F535F45 		.ascii	"OS_ERR_PEND_DEL\000"
 5213      52525F50 
 5213      454E445F 
 5213      44454C00 
ARM GAS  C:\Users\ADMINI~1\AppData\Local\Temp\ccofok6U.s 			page 132


 5214              	.LASF290:
 5215 14a1 50656E64 		.ascii	"PendObjPtr\000"
 5215      4F626A50 
 5215      747200
 5216              	.LASF218:
 5217 14ac 4E627245 		.ascii	"NbrEntriesMax\000"
 5217      6E747269 
 5217      65734D61 
 5217      7800
 5218              	.LASF296:
 5219 14ba 6F735F70 		.ascii	"os_pend_list\000"
 5219      656E645F 
 5219      6C697374 
 5219      00
 5220              	.LASF76:
 5221 14c7 4F535F45 		.ascii	"OS_ERR_MEM_INVALID_SIZE\000"
 5221      52525F4D 
 5221      454D5F49 
 5221      4E56414C 
 5221      49445F53 
 5222              	.LASF156:
 5223 14df 4F535F45 		.ascii	"OS_ERR_TASK_SUSPENDED\000"
 5223      52525F54 
 5223      41534B5F 
 5223      53555350 
 5223      454E4445 
 5224              	.LASF128:
 5225 14f5 4F535F45 		.ascii	"OS_ERR_SET_ISR\000"
 5225      52525F53 
 5225      45545F49 
 5225      535200
 5226              	.LASF257:
 5227 1504 52656754 		.ascii	"RegTbl\000"
 5227      626C00
 5228              	.LASF283:
 5229 150b 43616C6C 		.ascii	"CallbackPtrArg\000"
 5229      6261636B 
 5229      50747241 
 5229      726700
 5230              	.LASF127:
 5231 151a 4F535F45 		.ascii	"OS_ERR_SEM_OVF\000"
 5231      52525F53 
 5231      454D5F4F 
 5231      564600
 5232              	.LASF142:
 5233 1529 4F535F45 		.ascii	"OS_ERR_TASK_DEL_IDLE\000"
 5233      52525F54 
 5233      41534B5F 
 5233      44454C5F 
 5233      49444C45 
 5234              	.LASF175:
 5235 153e 4F535F45 		.ascii	"OS_ERR_TIME_GET_ISR\000"
 5235      52525F54 
 5235      494D455F 
 5235      4745545F 
 5235      49535200 
 5236              	.LASF174:
ARM GAS  C:\Users\ADMINI~1\AppData\Local\Temp\ccofok6U.s 			page 133


 5237 1552 4F535F45 		.ascii	"OS_ERR_TIME_DLY_RESUME_ISR\000"
 5237      52525F54 
 5237      494D455F 
 5237      444C595F 
 5237      52455355 
 5238              	.LASF169:
 5239 156d 4F535F45 		.ascii	"OS_ERR_TICK_PRIO_INVALID\000"
 5239      52525F54 
 5239      49434B5F 
 5239      5052494F 
 5239      5F494E56 
 5240              	.LASF108:
 5241 1586 4F535F45 		.ascii	"OS_ERR_PRIO_EXIST\000"
 5241      52525F50 
 5241      52494F5F 
 5241      45584953 
 5241      5400
 5242              	.LASF213:
 5243 1598 6F735F6D 		.ascii	"os_msg_q\000"
 5243      73675F71 
 5243      00
 5244              	.LASF347:
 5245 15a1 4F534366 		.ascii	"OSCfg_TickRate_Hz\000"
 5245      675F5469 
 5245      636B5261 
 5245      74655F48 
 5245      7A00
 5246              	.LASF77:
 5247 15b3 4F535F45 		.ascii	"OS_ERR_MEM_NO_FREE_BLKS\000"
 5247      52525F4D 
 5247      454D5F4E 
 5247      4F5F4652 
 5247      45455F42 
 5248              	.LASF310:
 5249 15cb 4F53546D 		.ascii	"OSTmrRemainGet\000"
 5249      7252656D 
 5249      61696E47 
 5249      657400
 5250              	.LASF16:
 5251 15da 4350555F 		.ascii	"CPU_STK\000"
 5251      53544B00 
 5252              	.LASF302:
 5253 15e2 705F746D 		.ascii	"p_tmr\000"
 5253      7200
 5254              		.ident	"GCC: (GNU Tools for ARM Embedded Processors) 5.4.1 20160609 (release) [ARM/embedded-5-bran
