ARM GAS  C:\Users\ADMINI~1\AppData\Local\Temp\cc8eYrCa.s 			page 1


   1              		.syntax unified
   2              		.cpu cortex-m0
   3              		.fpu softvfp
   4              		.eabi_attribute 20, 1
   5              		.eabi_attribute 21, 1
   6              		.eabi_attribute 23, 3
   7              		.eabi_attribute 24, 1
   8              		.eabi_attribute 25, 1
   9              		.eabi_attribute 26, 1
  10              		.eabi_attribute 30, 6
  11              		.eabi_attribute 34, 0
  12              		.eabi_attribute 18, 4
  13              		.thumb
  14              		.syntax unified
  15              		.file	"os_tick.c"
  16              		.text
  17              	.Ltext0:
  18              		.cfi_sections	.debug_frame
  19              		.section	.text.OS_TickTask,"ax",%progbits
  20              		.align	2
  21              		.global	OS_TickTask
  22              		.code	16
  23              		.thumb_func
  24              		.type	OS_TickTask, %function
  25              	OS_TickTask:
  26              	.LFB0:
  27              		.file 1 "..\\..\\..\\..\\..\\..\\Software\\uCOS-III\\Source\\os_tick.c"
   1:..\..\..\..\..\..\Software\uCOS-III\Source/os_tick.c **** /*
   2:..\..\..\..\..\..\Software\uCOS-III\Source/os_tick.c **** ***************************************************************************************************
   3:..\..\..\..\..\..\Software\uCOS-III\Source/os_tick.c **** *                                                      uC/OS-III
   4:..\..\..\..\..\..\Software\uCOS-III\Source/os_tick.c **** *                                                 The Real-Time Kernel
   5:..\..\..\..\..\..\Software\uCOS-III\Source/os_tick.c **** *
   6:..\..\..\..\..\..\Software\uCOS-III\Source/os_tick.c **** *                                  (c) Copyright 2009-2015; Micrium, Inc.; Weston, FL
   7:..\..\..\..\..\..\Software\uCOS-III\Source/os_tick.c **** *                           All rights reserved.  Protected by international copyright laws.
   8:..\..\..\..\..\..\Software\uCOS-III\Source/os_tick.c **** *
   9:..\..\..\..\..\..\Software\uCOS-III\Source/os_tick.c **** *                                                   TICK MANAGEMENT
  10:..\..\..\..\..\..\Software\uCOS-III\Source/os_tick.c **** *
  11:..\..\..\..\..\..\Software\uCOS-III\Source/os_tick.c **** * File    : OS_TICK.C
  12:..\..\..\..\..\..\Software\uCOS-III\Source/os_tick.c **** * By      : JJL
  13:..\..\..\..\..\..\Software\uCOS-III\Source/os_tick.c **** * Version : V3.05.01
  14:..\..\..\..\..\..\Software\uCOS-III\Source/os_tick.c **** *
  15:..\..\..\..\..\..\Software\uCOS-III\Source/os_tick.c **** * LICENSING TERMS:
  16:..\..\..\..\..\..\Software\uCOS-III\Source/os_tick.c **** * ---------------
  17:..\..\..\..\..\..\Software\uCOS-III\Source/os_tick.c **** *           uC/OS-III is provided in source form for FREE short-term evaluation, for educational us
  18:..\..\..\..\..\..\Software\uCOS-III\Source/os_tick.c **** *           for peaceful research.  If you plan or intend to use uC/OS-III in a commercial applicat
  19:..\..\..\..\..\..\Software\uCOS-III\Source/os_tick.c **** *           product then, you need to contact Micrium to properly license uC/OS-III for its use in 
  20:..\..\..\..\..\..\Software\uCOS-III\Source/os_tick.c **** *           application/product.   We provide ALL the source code for your convenience and to help 
  21:..\..\..\..\..\..\Software\uCOS-III\Source/os_tick.c **** *           experience uC/OS-III.  The fact that the source is provided does NOT mean that you can 
  22:..\..\..\..\..\..\Software\uCOS-III\Source/os_tick.c **** *           it commercially without paying a licensing fee.
  23:..\..\..\..\..\..\Software\uCOS-III\Source/os_tick.c **** *
  24:..\..\..\..\..\..\Software\uCOS-III\Source/os_tick.c **** *           Knowledge of the source code may NOT be used to develop a similar product.
  25:..\..\..\..\..\..\Software\uCOS-III\Source/os_tick.c **** *
  26:..\..\..\..\..\..\Software\uCOS-III\Source/os_tick.c **** *           Please help us continue to provide the embedded community with the finest software avai
  27:..\..\..\..\..\..\Software\uCOS-III\Source/os_tick.c **** *           Your honesty is greatly appreciated.
  28:..\..\..\..\..\..\Software\uCOS-III\Source/os_tick.c **** *
  29:..\..\..\..\..\..\Software\uCOS-III\Source/os_tick.c **** *           You can find our product's user manual, API reference, release notes and
  30:..\..\..\..\..\..\Software\uCOS-III\Source/os_tick.c **** *           more information at https://doc.micrium.com.
ARM GAS  C:\Users\ADMINI~1\AppData\Local\Temp\cc8eYrCa.s 			page 2


  31:..\..\..\..\..\..\Software\uCOS-III\Source/os_tick.c **** *           You can contact us at www.micrium.com.
  32:..\..\..\..\..\..\Software\uCOS-III\Source/os_tick.c **** ***************************************************************************************************
  33:..\..\..\..\..\..\Software\uCOS-III\Source/os_tick.c **** */
  34:..\..\..\..\..\..\Software\uCOS-III\Source/os_tick.c **** 
  35:..\..\..\..\..\..\Software\uCOS-III\Source/os_tick.c **** #define  MICRIUM_SOURCE
  36:..\..\..\..\..\..\Software\uCOS-III\Source/os_tick.c **** #include "os.h"
  37:..\..\..\..\..\..\Software\uCOS-III\Source/os_tick.c **** 
  38:..\..\..\..\..\..\Software\uCOS-III\Source/os_tick.c **** #ifdef VSC_INCLUDE_SOURCE_FILE_NAMES
  39:..\..\..\..\..\..\Software\uCOS-III\Source/os_tick.c **** const  CPU_CHAR  *os_tick__c = "$Id: $";
  40:..\..\..\..\..\..\Software\uCOS-III\Source/os_tick.c **** #endif
  41:..\..\..\..\..\..\Software\uCOS-III\Source/os_tick.c **** 
  42:..\..\..\..\..\..\Software\uCOS-III\Source/os_tick.c **** #if (OS_CFG_TASK_TICK_EN == DEF_ENABLED)
  43:..\..\..\..\..\..\Software\uCOS-III\Source/os_tick.c **** /*
  44:..\..\..\..\..\..\Software\uCOS-III\Source/os_tick.c **** ***************************************************************************************************
  45:..\..\..\..\..\..\Software\uCOS-III\Source/os_tick.c **** *                                                 FUNCTION PROTOTYPES
  46:..\..\..\..\..\..\Software\uCOS-III\Source/os_tick.c **** ***************************************************************************************************
  47:..\..\..\..\..\..\Software\uCOS-III\Source/os_tick.c **** */
  48:..\..\..\..\..\..\Software\uCOS-III\Source/os_tick.c **** 
  49:..\..\..\..\..\..\Software\uCOS-III\Source/os_tick.c **** static  CPU_TS  OS_TickListUpdateDly     (OS_TICK ticks);
  50:..\..\..\..\..\..\Software\uCOS-III\Source/os_tick.c **** static  CPU_TS  OS_TickListUpdateTimeout (OS_TICK ticks);
  51:..\..\..\..\..\..\Software\uCOS-III\Source/os_tick.c **** 
  52:..\..\..\..\..\..\Software\uCOS-III\Source/os_tick.c **** /*
  53:..\..\..\..\..\..\Software\uCOS-III\Source/os_tick.c **** ***************************************************************************************************
  54:..\..\..\..\..\..\Software\uCOS-III\Source/os_tick.c **** *                                                      TICK TASK
  55:..\..\..\..\..\..\Software\uCOS-III\Source/os_tick.c **** *
  56:..\..\..\..\..\..\Software\uCOS-III\Source/os_tick.c **** * Description: This task is internal to uC/OS-III and is triggered by the tick interrupt.
  57:..\..\..\..\..\..\Software\uCOS-III\Source/os_tick.c **** *
  58:..\..\..\..\..\..\Software\uCOS-III\Source/os_tick.c **** * Arguments  : p_arg     is an argument passed to the task when the task is created (unused).
  59:..\..\..\..\..\..\Software\uCOS-III\Source/os_tick.c **** *
  60:..\..\..\..\..\..\Software\uCOS-III\Source/os_tick.c **** * Returns    : none
  61:..\..\..\..\..\..\Software\uCOS-III\Source/os_tick.c **** *
  62:..\..\..\..\..\..\Software\uCOS-III\Source/os_tick.c **** * Note(s)    : This function is INTERNAL to uC/OS-III and your application should not call it.
  63:..\..\..\..\..\..\Software\uCOS-III\Source/os_tick.c **** ***************************************************************************************************
  64:..\..\..\..\..\..\Software\uCOS-III\Source/os_tick.c **** */
  65:..\..\..\..\..\..\Software\uCOS-III\Source/os_tick.c **** 
  66:..\..\..\..\..\..\Software\uCOS-III\Source/os_tick.c **** void  OS_TickTask (void  *p_arg)
  67:..\..\..\..\..\..\Software\uCOS-III\Source/os_tick.c **** {
  28              		.loc 1 67 0
  29              		.cfi_startproc
  30              		@ args = 0, pretend = 0, frame = 32
  31              		@ frame_needed = 1, uses_anonymous_args = 0
  32 0000 80B5     		push	{r7, lr}
  33              		.cfi_def_cfa_offset 8
  34              		.cfi_offset 7, -8
  35              		.cfi_offset 14, -4
  36 0002 88B0     		sub	sp, sp, #32
  37              		.cfi_def_cfa_offset 40
  38 0004 00AF     		add	r7, sp, #0
  39              		.cfi_def_cfa_register 7
  40 0006 7860     		str	r0, [r7, #4]
  68:..\..\..\..\..\..\Software\uCOS-III\Source/os_tick.c ****     OS_ERR   err;
  69:..\..\..\..\..\..\Software\uCOS-III\Source/os_tick.c **** #if (OS_CFG_TS_EN == DEF_ENABLED)
  70:..\..\..\..\..\..\Software\uCOS-III\Source/os_tick.c ****     CPU_TS   ts_delta;
  71:..\..\..\..\..\..\Software\uCOS-III\Source/os_tick.c ****     CPU_TS   ts_delta_dly;
  72:..\..\..\..\..\..\Software\uCOS-III\Source/os_tick.c ****     CPU_TS   ts_delta_timeout;
  73:..\..\..\..\..\..\Software\uCOS-III\Source/os_tick.c **** #endif
  74:..\..\..\..\..\..\Software\uCOS-III\Source/os_tick.c **** #if (OS_CFG_DYN_TICK_EN == DEF_ENABLED)
ARM GAS  C:\Users\ADMINI~1\AppData\Local\Temp\cc8eYrCa.s 			page 3


  75:..\..\..\..\..\..\Software\uCOS-III\Source/os_tick.c ****     OS_TICK  tick_step_dly;
  76:..\..\..\..\..\..\Software\uCOS-III\Source/os_tick.c ****     OS_TICK  tick_step_timeout;
  77:..\..\..\..\..\..\Software\uCOS-III\Source/os_tick.c **** #endif
  78:..\..\..\..\..\..\Software\uCOS-III\Source/os_tick.c ****     OS_TICK  tick_step;
  79:..\..\..\..\..\..\Software\uCOS-III\Source/os_tick.c ****     CPU_SR_ALLOC();
  41              		.loc 1 79 0
  42 0008 0023     		movs	r3, #0
  43 000a FB61     		str	r3, [r7, #28]
  44              	.L4:
  80:..\..\..\..\..\..\Software\uCOS-III\Source/os_tick.c **** 
  81:..\..\..\..\..\..\Software\uCOS-III\Source/os_tick.c **** 
  82:..\..\..\..\..\..\Software\uCOS-III\Source/os_tick.c ****     (void)&p_arg;                                               /* Prevent compiler warning        
  83:..\..\..\..\..\..\Software\uCOS-III\Source/os_tick.c **** 
  84:..\..\..\..\..\..\Software\uCOS-III\Source/os_tick.c ****     while (DEF_ON) {
  85:..\..\..\..\..\..\Software\uCOS-III\Source/os_tick.c ****         (void)OSTaskSemPend(0u,
  45              		.loc 1 85 0
  46 000c 0A23     		movs	r3, #10
  47 000e FB18     		adds	r3, r7, r3
  48 0010 0022     		movs	r2, #0
  49 0012 0021     		movs	r1, #0
  50 0014 0020     		movs	r0, #0
  51 0016 FFF7FEFF 		bl	OSTaskSemPend
  86:..\..\..\..\..\..\Software\uCOS-III\Source/os_tick.c ****                             OS_OPT_PEND_BLOCKING,
  87:..\..\..\..\..\..\Software\uCOS-III\Source/os_tick.c ****                             DEF_NULL,
  88:..\..\..\..\..\..\Software\uCOS-III\Source/os_tick.c ****                             &err);                              /* Wait for signal from tick interr
  89:..\..\..\..\..\..\Software\uCOS-III\Source/os_tick.c ****         if (err == OS_ERR_NONE) {
  52              		.loc 1 89 0
  53 001a 0A23     		movs	r3, #10
  54 001c FB18     		adds	r3, r7, r3
  55 001e 1B88     		ldrh	r3, [r3]
  56 0020 002B     		cmp	r3, #0
  57 0022 F3D1     		bne	.L4
  90:..\..\..\..\..\..\Software\uCOS-III\Source/os_tick.c ****             OS_CRITICAL_ENTER();
  58              		.loc 1 90 0
  59 0024 FFF7FEFF 		bl	CPU_SR_Save
  60 0028 0300     		movs	r3, r0
  61 002a FB61     		str	r3, [r7, #28]
  62 002c FFF7FEFF 		bl	CPU_IntDisMeasStart
  91:..\..\..\..\..\..\Software\uCOS-III\Source/os_tick.c **** 
  92:..\..\..\..\..\..\Software\uCOS-III\Source/os_tick.c **** #if (OS_CFG_DYN_TICK_EN == DEF_ENABLED)
  93:..\..\..\..\..\..\Software\uCOS-III\Source/os_tick.c ****             tick_step = OSTickCtrPend;
  94:..\..\..\..\..\..\Software\uCOS-III\Source/os_tick.c ****             OSTickCtr += tick_step;
  95:..\..\..\..\..\..\Software\uCOS-III\Source/os_tick.c ****             OSTickCtrPend = 0;
  96:..\..\..\..\..\..\Software\uCOS-III\Source/os_tick.c **** #else
  97:..\..\..\..\..\..\Software\uCOS-III\Source/os_tick.c ****             tick_step = 1u;                                     /* Always tick once when dynamic ti
  63              		.loc 1 97 0
  64 0030 0123     		movs	r3, #1
  65 0032 BB61     		str	r3, [r7, #24]
  98:..\..\..\..\..\..\Software\uCOS-III\Source/os_tick.c ****             OSTickCtr++;                                        /* Keep track of the number of tick
  66              		.loc 1 98 0
  67 0034 114B     		ldr	r3, .L5
  68 0036 1B68     		ldr	r3, [r3]
  69 0038 5A1C     		adds	r2, r3, #1
  70 003a 104B     		ldr	r3, .L5
  71 003c 1A60     		str	r2, [r3]
  99:..\..\..\..\..\..\Software\uCOS-III\Source/os_tick.c **** #endif
 100:..\..\..\..\..\..\Software\uCOS-III\Source/os_tick.c **** 
ARM GAS  C:\Users\ADMINI~1\AppData\Local\Temp\cc8eYrCa.s 			page 4


 101:..\..\..\..\..\..\Software\uCOS-III\Source/os_tick.c **** #if (defined(TRACE_CFG_EN) && (TRACE_CFG_EN == DEF_ENABLED))
 102:..\..\..\..\..\..\Software\uCOS-III\Source/os_tick.c ****             TRACE_OS_TICK_INCREMENT(OSTickCtr);                 /* Record the event.               
 103:..\..\..\..\..\..\Software\uCOS-III\Source/os_tick.c **** #endif
 104:..\..\..\..\..\..\Software\uCOS-III\Source/os_tick.c **** 
 105:..\..\..\..\..\..\Software\uCOS-III\Source/os_tick.c **** #if (OS_CFG_TS_EN == DEF_ENABLED)
 106:..\..\..\..\..\..\Software\uCOS-III\Source/os_tick.c ****             ts_delta_dly     = OS_TickListUpdateDly(tick_step);
  72              		.loc 1 106 0
  73 003e BB69     		ldr	r3, [r7, #24]
  74 0040 1800     		movs	r0, r3
  75 0042 FFF7FEFF 		bl	OS_TickListUpdateDly
  76 0046 0300     		movs	r3, r0
  77 0048 7B61     		str	r3, [r7, #20]
 107:..\..\..\..\..\..\Software\uCOS-III\Source/os_tick.c ****             ts_delta_timeout = OS_TickListUpdateTimeout(tick_step);
  78              		.loc 1 107 0
  79 004a BB69     		ldr	r3, [r7, #24]
  80 004c 1800     		movs	r0, r3
  81 004e FFF7FEFF 		bl	OS_TickListUpdateTimeout
  82 0052 0300     		movs	r3, r0
  83 0054 3B61     		str	r3, [r7, #16]
 108:..\..\..\..\..\..\Software\uCOS-III\Source/os_tick.c ****             ts_delta         = ts_delta_dly + ts_delta_timeout; /* Compute total execution time of 
  84              		.loc 1 108 0
  85 0056 7A69     		ldr	r2, [r7, #20]
  86 0058 3B69     		ldr	r3, [r7, #16]
  87 005a D318     		adds	r3, r2, r3
  88 005c FB60     		str	r3, [r7, #12]
 109:..\..\..\..\..\..\Software\uCOS-III\Source/os_tick.c ****             if (OSTickTaskTimeMax < ts_delta) {
  89              		.loc 1 109 0
  90 005e 084B     		ldr	r3, .L5+4
  91 0060 1A68     		ldr	r2, [r3]
  92 0062 FB68     		ldr	r3, [r7, #12]
  93 0064 9A42     		cmp	r2, r3
  94 0066 02D2     		bcs	.L3
 110:..\..\..\..\..\..\Software\uCOS-III\Source/os_tick.c ****                 OSTickTaskTimeMax = ts_delta;
  95              		.loc 1 110 0
  96 0068 054B     		ldr	r3, .L5+4
  97 006a FA68     		ldr	r2, [r7, #12]
  98 006c 1A60     		str	r2, [r3]
  99              	.L3:
 111:..\..\..\..\..\..\Software\uCOS-III\Source/os_tick.c ****             }
 112:..\..\..\..\..\..\Software\uCOS-III\Source/os_tick.c **** #else
 113:..\..\..\..\..\..\Software\uCOS-III\Source/os_tick.c ****             (void)OS_TickListUpdateDly(tick_step);
 114:..\..\..\..\..\..\Software\uCOS-III\Source/os_tick.c ****             (void)OS_TickListUpdateTimeout(tick_step);
 115:..\..\..\..\..\..\Software\uCOS-III\Source/os_tick.c **** #endif
 116:..\..\..\..\..\..\Software\uCOS-III\Source/os_tick.c **** 
 117:..\..\..\..\..\..\Software\uCOS-III\Source/os_tick.c **** #if (OS_CFG_DYN_TICK_EN == DEF_ENABLED)
 118:..\..\..\..\..\..\Software\uCOS-III\Source/os_tick.c ****             tick_step_dly = (OS_TICK)-1;
 119:..\..\..\..\..\..\Software\uCOS-III\Source/os_tick.c ****             tick_step_timeout = (OS_TICK)-1;
 120:..\..\..\..\..\..\Software\uCOS-III\Source/os_tick.c ****             if(OSTickListDly.TCB_Ptr != DEF_NULL) {
 121:..\..\..\..\..\..\Software\uCOS-III\Source/os_tick.c ****                 tick_step_dly = OSTickListDly.TCB_Ptr->TickRemain;
 122:..\..\..\..\..\..\Software\uCOS-III\Source/os_tick.c ****             }
 123:..\..\..\..\..\..\Software\uCOS-III\Source/os_tick.c ****             if(OSTickListTimeout.TCB_Ptr != DEF_NULL) {
 124:..\..\..\..\..\..\Software\uCOS-III\Source/os_tick.c ****                 tick_step_timeout = OSTickListTimeout.TCB_Ptr->TickRemain;
 125:..\..\..\..\..\..\Software\uCOS-III\Source/os_tick.c ****             }
 126:..\..\..\..\..\..\Software\uCOS-III\Source/os_tick.c ****             OSTickCtrStep = (tick_step_dly < tick_step_timeout) ? tick_step_dly : tick_step_timeout
 127:..\..\..\..\..\..\Software\uCOS-III\Source/os_tick.c ****             BSP_OS_TickNextSet(OSTickCtrStep);
 128:..\..\..\..\..\..\Software\uCOS-III\Source/os_tick.c **** #endif
 129:..\..\..\..\..\..\Software\uCOS-III\Source/os_tick.c ****             OS_CRITICAL_EXIT();
ARM GAS  C:\Users\ADMINI~1\AppData\Local\Temp\cc8eYrCa.s 			page 5


 100              		.loc 1 129 0
 101 006e FFF7FEFF 		bl	CPU_IntDisMeasStop
 102 0072 FB69     		ldr	r3, [r7, #28]
 103 0074 1800     		movs	r0, r3
 104 0076 FFF7FEFF 		bl	CPU_SR_Restore
 130:..\..\..\..\..\..\Software\uCOS-III\Source/os_tick.c ****         }
 131:..\..\..\..\..\..\Software\uCOS-III\Source/os_tick.c ****     }
 105              		.loc 1 131 0
 106 007a C7E7     		b	.L4
 107              	.L6:
 108              		.align	2
 109              	.L5:
 110 007c 00000000 		.word	OSTickCtr
 111 0080 00000000 		.word	OSTickTaskTimeMax
 112              		.cfi_endproc
 113              	.LFE0:
 114              		.size	OS_TickTask, .-OS_TickTask
 115              		.section	.rodata
 116              		.align	2
 117              	.LC11:
 118 0000 75432F4F 		.ascii	"uC/OS-III Tick Task\000"
 118      532D4949 
 118      49205469 
 118      636B2054 
 118      61736B00 
 119              		.section	.text.OS_TickTaskInit,"ax",%progbits
 120              		.align	2
 121              		.global	OS_TickTaskInit
 122              		.code	16
 123              		.thumb_func
 124              		.type	OS_TickTaskInit, %function
 125              	OS_TickTaskInit:
 126              	.LFB1:
 132:..\..\..\..\..\..\Software\uCOS-III\Source/os_tick.c **** }
 133:..\..\..\..\..\..\Software\uCOS-III\Source/os_tick.c **** 
 134:..\..\..\..\..\..\Software\uCOS-III\Source/os_tick.c **** /*
 135:..\..\..\..\..\..\Software\uCOS-III\Source/os_tick.c **** ***************************************************************************************************
 136:..\..\..\..\..\..\Software\uCOS-III\Source/os_tick.c **** *                                                 INITIALIZE TICK TASK
 137:..\..\..\..\..\..\Software\uCOS-III\Source/os_tick.c **** *
 138:..\..\..\..\..\..\Software\uCOS-III\Source/os_tick.c **** * Description: This function is called by OSInit() to create the tick task.
 139:..\..\..\..\..\..\Software\uCOS-III\Source/os_tick.c **** *
 140:..\..\..\..\..\..\Software\uCOS-III\Source/os_tick.c **** * Arguments  : p_err   is a pointer to a variable that will hold the value of an error code:
 141:..\..\..\..\..\..\Software\uCOS-III\Source/os_tick.c **** *
 142:..\..\..\..\..\..\Software\uCOS-III\Source/os_tick.c **** *                          OS_ERR_TICK_STK_INVALID   if the pointer to the tick task stack is a NUL
 143:..\..\..\..\..\..\Software\uCOS-III\Source/os_tick.c **** *                          OS_ERR_TICK_STK_SIZE      indicates that the specified stack size
 144:..\..\..\..\..\..\Software\uCOS-III\Source/os_tick.c **** *                          OS_ERR_PRIO_INVALID       if the priority you specified in the configura
 145:..\..\..\..\..\..\Software\uCOS-III\Source/os_tick.c **** *                                                      (There could be only one task at the Idle Ta
 146:..\..\..\..\..\..\Software\uCOS-III\Source/os_tick.c **** *                                                      (Maybe the priority you specified is higher 
 147:..\..\..\..\..\..\Software\uCOS-III\Source/os_tick.c **** *                          OS_ERR_??                 other error code returned by OSTaskCreate()
 148:..\..\..\..\..\..\Software\uCOS-III\Source/os_tick.c **** *
 149:..\..\..\..\..\..\Software\uCOS-III\Source/os_tick.c **** * Returns    : none
 150:..\..\..\..\..\..\Software\uCOS-III\Source/os_tick.c **** *
 151:..\..\..\..\..\..\Software\uCOS-III\Source/os_tick.c **** * Note(s)    : This function is INTERNAL to uC/OS-III and your application should not call it.
 152:..\..\..\..\..\..\Software\uCOS-III\Source/os_tick.c **** ***************************************************************************************************
 153:..\..\..\..\..\..\Software\uCOS-III\Source/os_tick.c **** */
 154:..\..\..\..\..\..\Software\uCOS-III\Source/os_tick.c **** 
 155:..\..\..\..\..\..\Software\uCOS-III\Source/os_tick.c **** void  OS_TickTaskInit (OS_ERR  *p_err)
ARM GAS  C:\Users\ADMINI~1\AppData\Local\Temp\cc8eYrCa.s 			page 6


 156:..\..\..\..\..\..\Software\uCOS-III\Source/os_tick.c **** {
 127              		.loc 1 156 0
 128              		.cfi_startproc
 129              		@ args = 0, pretend = 0, frame = 8
 130              		@ frame_needed = 1, uses_anonymous_args = 0
 131 0000 F0B5     		push	{r4, r5, r6, r7, lr}
 132              		.cfi_def_cfa_offset 20
 133              		.cfi_offset 4, -20
 134              		.cfi_offset 5, -16
 135              		.cfi_offset 6, -12
 136              		.cfi_offset 7, -8
 137              		.cfi_offset 14, -4
 138 0002 8DB0     		sub	sp, sp, #52
 139              		.cfi_def_cfa_offset 72
 140 0004 0AAF     		add	r7, sp, #40
 141              		.cfi_def_cfa 7, 32
 142 0006 7860     		str	r0, [r7, #4]
 157:..\..\..\..\..\..\Software\uCOS-III\Source/os_tick.c ****     OSTickCtr                    = 0u;                          /* Clear the tick counter          
 143              		.loc 1 157 0
 144 0008 284B     		ldr	r3, .L12
 145 000a 0022     		movs	r2, #0
 146 000c 1A60     		str	r2, [r3]
 158:..\..\..\..\..\..\Software\uCOS-III\Source/os_tick.c **** 
 159:..\..\..\..\..\..\Software\uCOS-III\Source/os_tick.c **** #if (OS_CFG_DYN_TICK_EN == DEF_ENABLED)
 160:..\..\..\..\..\..\Software\uCOS-III\Source/os_tick.c ****     OSTickCtrStep                = (OS_TICK)-1;
 161:..\..\..\..\..\..\Software\uCOS-III\Source/os_tick.c ****     OSTickCtrPend                = 0u;
 162:..\..\..\..\..\..\Software\uCOS-III\Source/os_tick.c **** #endif
 163:..\..\..\..\..\..\Software\uCOS-III\Source/os_tick.c **** 
 164:..\..\..\..\..\..\Software\uCOS-III\Source/os_tick.c ****     OSTickListDly.TCB_Ptr        = DEF_NULL;
 147              		.loc 1 164 0
 148 000e 284B     		ldr	r3, .L12+4
 149 0010 0022     		movs	r2, #0
 150 0012 1A60     		str	r2, [r3]
 165:..\..\..\..\..\..\Software\uCOS-III\Source/os_tick.c ****     OSTickListTimeout.TCB_Ptr    = DEF_NULL;
 151              		.loc 1 165 0
 152 0014 274B     		ldr	r3, .L12+8
 153 0016 0022     		movs	r2, #0
 154 0018 1A60     		str	r2, [r3]
 166:..\..\..\..\..\..\Software\uCOS-III\Source/os_tick.c **** 
 167:..\..\..\..\..\..\Software\uCOS-III\Source/os_tick.c **** #if (OS_CFG_DBG_EN == DEF_ENABLED)
 168:..\..\..\..\..\..\Software\uCOS-III\Source/os_tick.c ****     OSTickListDly.NbrEntries     = 0u;
 155              		.loc 1 168 0
 156 001a 254B     		ldr	r3, .L12+4
 157 001c 0022     		movs	r2, #0
 158 001e 9A80     		strh	r2, [r3, #4]
 169:..\..\..\..\..\..\Software\uCOS-III\Source/os_tick.c ****     OSTickListDly.NbrUpdated     = 0u;
 159              		.loc 1 169 0
 160 0020 234B     		ldr	r3, .L12+4
 161 0022 0022     		movs	r2, #0
 162 0024 DA80     		strh	r2, [r3, #6]
 170:..\..\..\..\..\..\Software\uCOS-III\Source/os_tick.c **** 
 171:..\..\..\..\..\..\Software\uCOS-III\Source/os_tick.c ****     OSTickListTimeout.NbrEntries = 0u;
 163              		.loc 1 171 0
 164 0026 234B     		ldr	r3, .L12+8
 165 0028 0022     		movs	r2, #0
 166 002a 9A80     		strh	r2, [r3, #4]
 172:..\..\..\..\..\..\Software\uCOS-III\Source/os_tick.c ****     OSTickListTimeout.NbrUpdated = 0u;
ARM GAS  C:\Users\ADMINI~1\AppData\Local\Temp\cc8eYrCa.s 			page 7


 167              		.loc 1 172 0
 168 002c 214B     		ldr	r3, .L12+8
 169 002e 0022     		movs	r2, #0
 170 0030 DA80     		strh	r2, [r3, #6]
 173:..\..\..\..\..\..\Software\uCOS-III\Source/os_tick.c **** #endif
 174:..\..\..\..\..\..\Software\uCOS-III\Source/os_tick.c **** 
 175:..\..\..\..\..\..\Software\uCOS-III\Source/os_tick.c ****                                                                 /* --------------- CREATE THE TICK 
 176:..\..\..\..\..\..\Software\uCOS-III\Source/os_tick.c ****     if (OSCfg_TickTaskStkBasePtr == DEF_NULL) {
 171              		.loc 1 176 0
 172 0032 214B     		ldr	r3, .L12+12
 173 0034 1B68     		ldr	r3, [r3]
 174 0036 002B     		cmp	r3, #0
 175 0038 03D1     		bne	.L8
 177:..\..\..\..\..\..\Software\uCOS-III\Source/os_tick.c ****        *p_err = OS_ERR_TICK_STK_INVALID;
 176              		.loc 1 177 0
 177 003a 7B68     		ldr	r3, [r7, #4]
 178 003c 1F4A     		ldr	r2, .L12+16
 179 003e 1A80     		strh	r2, [r3]
 178:..\..\..\..\..\..\Software\uCOS-III\Source/os_tick.c ****         return;
 180              		.loc 1 178 0
 181 0040 31E0     		b	.L7
 182              	.L8:
 179:..\..\..\..\..\..\Software\uCOS-III\Source/os_tick.c ****     }
 180:..\..\..\..\..\..\Software\uCOS-III\Source/os_tick.c **** 
 181:..\..\..\..\..\..\Software\uCOS-III\Source/os_tick.c ****     if (OSCfg_TickTaskStkSize < OSCfg_StkSizeMin) {
 183              		.loc 1 181 0
 184 0042 1F4B     		ldr	r3, .L12+20
 185 0044 1A68     		ldr	r2, [r3]
 186 0046 1F4B     		ldr	r3, .L12+24
 187 0048 1B68     		ldr	r3, [r3]
 188 004a 9A42     		cmp	r2, r3
 189 004c 03D2     		bcs	.L10
 182:..\..\..\..\..\..\Software\uCOS-III\Source/os_tick.c ****        *p_err = OS_ERR_TICK_STK_SIZE_INVALID;
 190              		.loc 1 182 0
 191 004e 7B68     		ldr	r3, [r7, #4]
 192 0050 1D4A     		ldr	r2, .L12+28
 193 0052 1A80     		strh	r2, [r3]
 183:..\..\..\..\..\..\Software\uCOS-III\Source/os_tick.c ****         return;
 194              		.loc 1 183 0
 195 0054 27E0     		b	.L7
 196              	.L10:
 184:..\..\..\..\..\..\Software\uCOS-III\Source/os_tick.c ****     }
 185:..\..\..\..\..\..\Software\uCOS-III\Source/os_tick.c **** 
 186:..\..\..\..\..\..\Software\uCOS-III\Source/os_tick.c ****     if (OSCfg_TickTaskPrio >= (OS_CFG_PRIO_MAX - 1u)) {         /* Only one task at the 'Idle Task'
 197              		.loc 1 186 0
 198 0056 1D4B     		ldr	r3, .L12+32
 199 0058 1B78     		ldrb	r3, [r3]
 200 005a 1E2B     		cmp	r3, #30
 201 005c 03D9     		bls	.L11
 187:..\..\..\..\..\..\Software\uCOS-III\Source/os_tick.c ****        *p_err = OS_ERR_TICK_PRIO_INVALID;
 202              		.loc 1 187 0
 203 005e 7B68     		ldr	r3, [r7, #4]
 204 0060 1B4A     		ldr	r2, .L12+36
 205 0062 1A80     		strh	r2, [r3]
 188:..\..\..\..\..\..\Software\uCOS-III\Source/os_tick.c ****         return;
 206              		.loc 1 188 0
 207 0064 1FE0     		b	.L7
ARM GAS  C:\Users\ADMINI~1\AppData\Local\Temp\cc8eYrCa.s 			page 8


 208              	.L11:
 189:..\..\..\..\..\..\Software\uCOS-III\Source/os_tick.c ****     }
 190:..\..\..\..\..\..\Software\uCOS-III\Source/os_tick.c **** 
 191:..\..\..\..\..\..\Software\uCOS-III\Source/os_tick.c ****     OSTaskCreate(&OSTickTaskTCB,
 209              		.loc 1 191 0
 210 0066 194B     		ldr	r3, .L12+32
 211 0068 1A78     		ldrb	r2, [r3]
 212 006a 134B     		ldr	r3, .L12+12
 213 006c 1968     		ldr	r1, [r3]
 214 006e 194B     		ldr	r3, .L12+40
 215 0070 1868     		ldr	r0, [r3]
 216 0072 134B     		ldr	r3, .L12+20
 217 0074 1B68     		ldr	r3, [r3]
 218 0076 184C     		ldr	r4, .L12+44
 219 0078 A446     		mov	ip, r4
 220 007a 184E     		ldr	r6, .L12+48
 221 007c 184D     		ldr	r5, .L12+52
 222 007e 7C68     		ldr	r4, [r7, #4]
 223 0080 0894     		str	r4, [sp, #32]
 224 0082 0B24     		movs	r4, #11
 225 0084 0794     		str	r4, [sp, #28]
 226 0086 0024     		movs	r4, #0
 227 0088 0694     		str	r4, [sp, #24]
 228 008a 0024     		movs	r4, #0
 229 008c 0594     		str	r4, [sp, #20]
 230 008e 0024     		movs	r4, #0
 231 0090 0494     		str	r4, [sp, #16]
 232 0092 0393     		str	r3, [sp, #12]
 233 0094 0290     		str	r0, [sp, #8]
 234 0096 0191     		str	r1, [sp, #4]
 235 0098 0092     		str	r2, [sp]
 236 009a 0023     		movs	r3, #0
 237 009c 6246     		mov	r2, ip
 238 009e 3100     		movs	r1, r6
 239 00a0 2800     		movs	r0, r5
 240 00a2 FFF7FEFF 		bl	OSTaskCreate
 241              	.L7:
 192:..\..\..\..\..\..\Software\uCOS-III\Source/os_tick.c ****                  (CPU_CHAR   *)((void *)"uC/OS-III Tick Task"),
 193:..\..\..\..\..\..\Software\uCOS-III\Source/os_tick.c ****                  OS_TickTask,
 194:..\..\..\..\..\..\Software\uCOS-III\Source/os_tick.c ****                  DEF_NULL,
 195:..\..\..\..\..\..\Software\uCOS-III\Source/os_tick.c ****                  OSCfg_TickTaskPrio,
 196:..\..\..\..\..\..\Software\uCOS-III\Source/os_tick.c ****                  OSCfg_TickTaskStkBasePtr,
 197:..\..\..\..\..\..\Software\uCOS-III\Source/os_tick.c ****                  OSCfg_TickTaskStkLimit,
 198:..\..\..\..\..\..\Software\uCOS-III\Source/os_tick.c ****                  OSCfg_TickTaskStkSize,
 199:..\..\..\..\..\..\Software\uCOS-III\Source/os_tick.c ****                  0u,
 200:..\..\..\..\..\..\Software\uCOS-III\Source/os_tick.c ****                  0u,
 201:..\..\..\..\..\..\Software\uCOS-III\Source/os_tick.c ****                  DEF_NULL,
 202:..\..\..\..\..\..\Software\uCOS-III\Source/os_tick.c ****                  (OS_OPT_TASK_STK_CHK | OS_OPT_TASK_STK_CLR | OS_OPT_TASK_NO_TLS),
 203:..\..\..\..\..\..\Software\uCOS-III\Source/os_tick.c ****                  p_err);
 204:..\..\..\..\..\..\Software\uCOS-III\Source/os_tick.c **** }
 242              		.loc 1 204 0
 243 00a6 BD46     		mov	sp, r7
 244 00a8 03B0     		add	sp, sp, #12
 245              		@ sp needed
 246 00aa F0BD     		pop	{r4, r5, r6, r7, pc}
 247              	.L13:
 248              		.align	2
ARM GAS  C:\Users\ADMINI~1\AppData\Local\Temp\cc8eYrCa.s 			page 9


 249              	.L12:
 250 00ac 00000000 		.word	OSTickCtr
 251 00b0 00000000 		.word	OSTickListDly
 252 00b4 00000000 		.word	OSTickListTimeout
 253 00b8 00000000 		.word	OSCfg_TickTaskStkBasePtr
 254 00bc 12720000 		.word	29202
 255 00c0 00000000 		.word	OSCfg_TickTaskStkSize
 256 00c4 00000000 		.word	OSCfg_StkSizeMin
 257 00c8 13720000 		.word	29203
 258 00cc 00000000 		.word	OSCfg_TickTaskPrio
 259 00d0 11720000 		.word	29201
 260 00d4 00000000 		.word	OSCfg_TickTaskStkLimit
 261 00d8 00000000 		.word	OS_TickTask
 262 00dc 00000000 		.word	.LC11
 263 00e0 00000000 		.word	OSTickTaskTCB
 264              		.cfi_endproc
 265              	.LFE1:
 266              		.size	OS_TickTaskInit, .-OS_TickTaskInit
 267              		.section	.text.OS_TickListInsert,"ax",%progbits
 268              		.align	2
 269              		.global	OS_TickListInsert
 270              		.code	16
 271              		.thumb_func
 272              		.type	OS_TickListInsert, %function
 273              	OS_TickListInsert:
 274              	.LFB2:
 205:..\..\..\..\..\..\Software\uCOS-III\Source/os_tick.c **** 
 206:..\..\..\..\..\..\Software\uCOS-III\Source/os_tick.c **** /*
 207:..\..\..\..\..\..\Software\uCOS-III\Source/os_tick.c **** ***************************************************************************************************
 208:..\..\..\..\..\..\Software\uCOS-III\Source/os_tick.c **** *                                                      INSERT
 209:..\..\..\..\..\..\Software\uCOS-III\Source/os_tick.c **** *
 210:..\..\..\..\..\..\Software\uCOS-III\Source/os_tick.c **** * Description: This task is internal to uC/OS-III and allows the insertion of a task in a tick list
 211:..\..\..\..\..\..\Software\uCOS-III\Source/os_tick.c **** *
 212:..\..\..\..\..\..\Software\uCOS-III\Source/os_tick.c **** * Arguments  : p_list      is a pointer to the desired list
 213:..\..\..\..\..\..\Software\uCOS-III\Source/os_tick.c **** *
 214:..\..\..\..\..\..\Software\uCOS-III\Source/os_tick.c **** *              p_tcb       is a pointer to the TCB to insert in the list
 215:..\..\..\..\..\..\Software\uCOS-III\Source/os_tick.c **** *
 216:..\..\..\..\..\..\Software\uCOS-III\Source/os_tick.c **** *              time        is the amount of time remaining (in ticks) for the task to become ready
 217:..\..\..\..\..\..\Software\uCOS-III\Source/os_tick.c **** *
 218:..\..\..\..\..\..\Software\uCOS-III\Source/os_tick.c **** * Returns    : none
 219:..\..\..\..\..\..\Software\uCOS-III\Source/os_tick.c **** *
 220:..\..\..\..\..\..\Software\uCOS-III\Source/os_tick.c **** * Note(s)    : This function is INTERNAL to uC/OS-III and your application should not call it.
 221:..\..\..\..\..\..\Software\uCOS-III\Source/os_tick.c **** ***************************************************************************************************
 222:..\..\..\..\..\..\Software\uCOS-III\Source/os_tick.c **** */
 223:..\..\..\..\..\..\Software\uCOS-III\Source/os_tick.c **** 
 224:..\..\..\..\..\..\Software\uCOS-III\Source/os_tick.c **** void  OS_TickListInsert (OS_TICK_LIST  *p_list,
 225:..\..\..\..\..\..\Software\uCOS-III\Source/os_tick.c ****                          OS_TCB        *p_tcb,
 226:..\..\..\..\..\..\Software\uCOS-III\Source/os_tick.c ****                          OS_TICK        time)
 227:..\..\..\..\..\..\Software\uCOS-III\Source/os_tick.c **** {
 275              		.loc 1 227 0
 276              		.cfi_startproc
 277              		@ args = 0, pretend = 0, frame = 32
 278              		@ frame_needed = 1, uses_anonymous_args = 0
 279 0000 80B5     		push	{r7, lr}
 280              		.cfi_def_cfa_offset 8
 281              		.cfi_offset 7, -8
 282              		.cfi_offset 14, -4
ARM GAS  C:\Users\ADMINI~1\AppData\Local\Temp\cc8eYrCa.s 			page 10


 283 0002 88B0     		sub	sp, sp, #32
 284              		.cfi_def_cfa_offset 40
 285 0004 00AF     		add	r7, sp, #0
 286              		.cfi_def_cfa_register 7
 287 0006 F860     		str	r0, [r7, #12]
 288 0008 B960     		str	r1, [r7, #8]
 289 000a 7A60     		str	r2, [r7, #4]
 228:..\..\..\..\..\..\Software\uCOS-III\Source/os_tick.c ****     OS_TCB  *p_tcb1;
 229:..\..\..\..\..\..\Software\uCOS-III\Source/os_tick.c ****     OS_TCB  *p_tcb2;
 230:..\..\..\..\..\..\Software\uCOS-III\Source/os_tick.c ****     OS_TICK  remain;
 231:..\..\..\..\..\..\Software\uCOS-III\Source/os_tick.c **** #if (OS_CFG_DYN_TICK_EN == DEF_ENABLED)
 232:..\..\..\..\..\..\Software\uCOS-III\Source/os_tick.c ****     OS_TICK  tick_step = (OS_TICK)-1;
 233:..\..\..\..\..\..\Software\uCOS-III\Source/os_tick.c **** #endif
 234:..\..\..\..\..\..\Software\uCOS-III\Source/os_tick.c **** 
 235:..\..\..\..\..\..\Software\uCOS-III\Source/os_tick.c **** 
 236:..\..\..\..\..\..\Software\uCOS-III\Source/os_tick.c ****     if (p_list->TCB_Ptr == DEF_NULL) {                          /* Is the list empty?              
 290              		.loc 1 236 0
 291 000c FB68     		ldr	r3, [r7, #12]
 292 000e 1B68     		ldr	r3, [r3]
 293 0010 002B     		cmp	r3, #0
 294 0012 12D1     		bne	.L15
 237:..\..\..\..\..\..\Software\uCOS-III\Source/os_tick.c ****         p_tcb->TickRemain  = time;                              /* Yes, Store time in TCB          
 295              		.loc 1 237 0
 296 0014 BB68     		ldr	r3, [r7, #8]
 297 0016 7A68     		ldr	r2, [r7, #4]
 298 0018 1A65     		str	r2, [r3, #80]
 238:..\..\..\..\..\..\Software\uCOS-III\Source/os_tick.c ****         p_tcb->TickNextPtr = DEF_NULL;
 299              		.loc 1 238 0
 300 001a BB68     		ldr	r3, [r7, #8]
 301 001c 0022     		movs	r2, #0
 302 001e 9A61     		str	r2, [r3, #24]
 239:..\..\..\..\..\..\Software\uCOS-III\Source/os_tick.c ****         p_tcb->TickPrevPtr = DEF_NULL;
 303              		.loc 1 239 0
 304 0020 BB68     		ldr	r3, [r7, #8]
 305 0022 0022     		movs	r2, #0
 306 0024 DA61     		str	r2, [r3, #28]
 240:..\..\..\..\..\..\Software\uCOS-III\Source/os_tick.c ****         p_tcb->TickListPtr = p_list;                            /* Link to this list               
 307              		.loc 1 240 0
 308 0026 BB68     		ldr	r3, [r7, #8]
 309 0028 FA68     		ldr	r2, [r7, #12]
 310 002a 1A62     		str	r2, [r3, #32]
 241:..\..\..\..\..\..\Software\uCOS-III\Source/os_tick.c ****         p_list->TCB_Ptr    = p_tcb;                             /* Point to TCB of task to place in
 311              		.loc 1 241 0
 312 002c FB68     		ldr	r3, [r7, #12]
 313 002e BA68     		ldr	r2, [r7, #8]
 314 0030 1A60     		str	r2, [r3]
 242:..\..\..\..\..\..\Software\uCOS-III\Source/os_tick.c **** #if (OS_CFG_DBG_EN == DEF_ENABLED)
 243:..\..\..\..\..\..\Software\uCOS-III\Source/os_tick.c ****         p_list->NbrEntries = 1u;                                /* List contains 1 entry           
 315              		.loc 1 243 0
 316 0032 FB68     		ldr	r3, [r7, #12]
 317 0034 0122     		movs	r2, #1
 318 0036 9A80     		strh	r2, [r3, #4]
 319 0038 74E0     		b	.L14
 320              	.L15:
 244:..\..\..\..\..\..\Software\uCOS-III\Source/os_tick.c **** #endif
 245:..\..\..\..\..\..\Software\uCOS-III\Source/os_tick.c **** #if (OS_CFG_DYN_TICK_EN == DEF_ENABLED)
 246:..\..\..\..\..\..\Software\uCOS-III\Source/os_tick.c ****         tick_step = time;
ARM GAS  C:\Users\ADMINI~1\AppData\Local\Temp\cc8eYrCa.s 			page 11


 247:..\..\..\..\..\..\Software\uCOS-III\Source/os_tick.c **** #endif
 248:..\..\..\..\..\..\Software\uCOS-III\Source/os_tick.c ****     } else {
 249:..\..\..\..\..\..\Software\uCOS-III\Source/os_tick.c ****         p_tcb1 = p_list->TCB_Ptr;
 321              		.loc 1 249 0
 322 003a FB68     		ldr	r3, [r7, #12]
 323 003c 1B68     		ldr	r3, [r3]
 324 003e FB61     		str	r3, [r7, #28]
 250:..\..\..\..\..\..\Software\uCOS-III\Source/os_tick.c ****         p_tcb2 = p_list->TCB_Ptr;                               /* No,  Insert somewhere in the lis
 325              		.loc 1 250 0
 326 0040 FB68     		ldr	r3, [r7, #12]
 327 0042 1B68     		ldr	r3, [r3]
 328 0044 BB61     		str	r3, [r7, #24]
 251:..\..\..\..\..\..\Software\uCOS-III\Source/os_tick.c ****         remain = time;
 329              		.loc 1 251 0
 330 0046 7B68     		ldr	r3, [r7, #4]
 331 0048 7B61     		str	r3, [r7, #20]
 252:..\..\..\..\..\..\Software\uCOS-III\Source/os_tick.c ****         while (p_tcb2 != DEF_NULL) {
 332              		.loc 1 252 0
 333 004a 53E0     		b	.L17
 334              	.L21:
 253:..\..\..\..\..\..\Software\uCOS-III\Source/os_tick.c ****             if (remain <= p_tcb2->TickRemain) {
 335              		.loc 1 253 0
 336 004c BB69     		ldr	r3, [r7, #24]
 337 004e 1A6D     		ldr	r2, [r3, #80]
 338 0050 7B69     		ldr	r3, [r7, #20]
 339 0052 9A42     		cmp	r2, r3
 340 0054 44D3     		bcc	.L18
 254:..\..\..\..\..\..\Software\uCOS-III\Source/os_tick.c ****                 if (p_tcb2->TickPrevPtr == DEF_NULL) {          /* Insert before the first entry in
 341              		.loc 1 254 0
 342 0056 BB69     		ldr	r3, [r7, #24]
 343 0058 DB69     		ldr	r3, [r3, #28]
 344 005a 002B     		cmp	r3, #0
 345 005c 1ED1     		bne	.L19
 255:..\..\..\..\..\..\Software\uCOS-III\Source/os_tick.c ****                     p_tcb->TickRemain   = remain;               /* Yes, Store remaining time       
 346              		.loc 1 255 0
 347 005e BB68     		ldr	r3, [r7, #8]
 348 0060 7A69     		ldr	r2, [r7, #20]
 349 0062 1A65     		str	r2, [r3, #80]
 256:..\..\..\..\..\..\Software\uCOS-III\Source/os_tick.c ****                     p_tcb->TickPrevPtr  = DEF_NULL;
 350              		.loc 1 256 0
 351 0064 BB68     		ldr	r3, [r7, #8]
 352 0066 0022     		movs	r2, #0
 353 0068 DA61     		str	r2, [r3, #28]
 257:..\..\..\..\..\..\Software\uCOS-III\Source/os_tick.c ****                     p_tcb->TickNextPtr  = p_tcb2;    
 354              		.loc 1 257 0
 355 006a BB68     		ldr	r3, [r7, #8]
 356 006c BA69     		ldr	r2, [r7, #24]
 357 006e 9A61     		str	r2, [r3, #24]
 258:..\..\..\..\..\..\Software\uCOS-III\Source/os_tick.c ****                     p_tcb->TickListPtr  = p_list;               /* Link TCB to this list           
 358              		.loc 1 258 0
 359 0070 BB68     		ldr	r3, [r7, #8]
 360 0072 FA68     		ldr	r2, [r7, #12]
 361 0074 1A62     		str	r2, [r3, #32]
 259:..\..\..\..\..\..\Software\uCOS-III\Source/os_tick.c ****                     p_tcb2->TickRemain -= remain;               /* Reduce time of next entry in the
 362              		.loc 1 259 0
 363 0076 BB69     		ldr	r3, [r7, #24]
 364 0078 1A6D     		ldr	r2, [r3, #80]
ARM GAS  C:\Users\ADMINI~1\AppData\Local\Temp\cc8eYrCa.s 			page 12


 365 007a 7B69     		ldr	r3, [r7, #20]
 366 007c D21A     		subs	r2, r2, r3
 367 007e BB69     		ldr	r3, [r7, #24]
 368 0080 1A65     		str	r2, [r3, #80]
 260:..\..\..\..\..\..\Software\uCOS-III\Source/os_tick.c ****                     p_tcb2->TickPrevPtr = p_tcb;
 369              		.loc 1 260 0
 370 0082 BB69     		ldr	r3, [r7, #24]
 371 0084 BA68     		ldr	r2, [r7, #8]
 372 0086 DA61     		str	r2, [r3, #28]
 261:..\..\..\..\..\..\Software\uCOS-III\Source/os_tick.c ****                     p_list->TCB_Ptr     = p_tcb;                /* Add TCB to the list             
 373              		.loc 1 261 0
 374 0088 FB68     		ldr	r3, [r7, #12]
 375 008a BA68     		ldr	r2, [r7, #8]
 376 008c 1A60     		str	r2, [r3]
 262:..\..\..\..\..\..\Software\uCOS-III\Source/os_tick.c **** #if (OS_CFG_DBG_EN == DEF_ENABLED)
 263:..\..\..\..\..\..\Software\uCOS-III\Source/os_tick.c ****                     p_list->NbrEntries++;                       /* List contains an extra entry    
 377              		.loc 1 263 0
 378 008e FB68     		ldr	r3, [r7, #12]
 379 0090 9B88     		ldrh	r3, [r3, #4]
 380 0092 0133     		adds	r3, r3, #1
 381 0094 9AB2     		uxth	r2, r3
 382 0096 FB68     		ldr	r3, [r7, #12]
 383 0098 9A80     		strh	r2, [r3, #4]
 264:..\..\..\..\..\..\Software\uCOS-III\Source/os_tick.c **** #endif
 265:..\..\..\..\..\..\Software\uCOS-III\Source/os_tick.c **** #if (OS_CFG_DYN_TICK_EN == DEF_ENABLED)
 266:..\..\..\..\..\..\Software\uCOS-III\Source/os_tick.c ****                     tick_step = remain;
 267:..\..\..\..\..\..\Software\uCOS-III\Source/os_tick.c **** #endif
 268:..\..\..\..\..\..\Software\uCOS-III\Source/os_tick.c ****                 } else {                                        /* No,  Insert somewhere further in
 269:..\..\..\..\..\..\Software\uCOS-III\Source/os_tick.c ****                     p_tcb1              = p_tcb2->TickPrevPtr;
 270:..\..\..\..\..\..\Software\uCOS-III\Source/os_tick.c ****                     p_tcb->TickRemain   = remain;               /* Store remaining time            
 271:..\..\..\..\..\..\Software\uCOS-III\Source/os_tick.c ****                     p_tcb->TickPrevPtr  = p_tcb1;
 272:..\..\..\..\..\..\Software\uCOS-III\Source/os_tick.c ****                     p_tcb->TickNextPtr  = p_tcb2;    
 273:..\..\..\..\..\..\Software\uCOS-III\Source/os_tick.c ****                     p_tcb->TickListPtr  = p_list;               /* TCB points to this list         
 274:..\..\..\..\..\..\Software\uCOS-III\Source/os_tick.c ****                     p_tcb2->TickRemain -= remain;               /* Reduce time of next entry in the
 275:..\..\..\..\..\..\Software\uCOS-III\Source/os_tick.c ****                     p_tcb2->TickPrevPtr = p_tcb;
 276:..\..\..\..\..\..\Software\uCOS-III\Source/os_tick.c ****                     p_tcb1->TickNextPtr = p_tcb;
 277:..\..\..\..\..\..\Software\uCOS-III\Source/os_tick.c **** #if (OS_CFG_DBG_EN == DEF_ENABLED)
 278:..\..\..\..\..\..\Software\uCOS-III\Source/os_tick.c ****                     p_list->NbrEntries++;                       /* List contains an extra entry    
 279:..\..\..\..\..\..\Software\uCOS-III\Source/os_tick.c **** #endif
 280:..\..\..\..\..\..\Software\uCOS-III\Source/os_tick.c ****                 }
 281:..\..\..\..\..\..\Software\uCOS-III\Source/os_tick.c **** 
 282:..\..\..\..\..\..\Software\uCOS-III\Source/os_tick.c **** #if (OS_CFG_DYN_TICK_EN == DEF_ENABLED)
 283:..\..\..\..\..\..\Software\uCOS-III\Source/os_tick.c ****                 if (tick_step < OSTickCtrStep) {
 284:..\..\..\..\..\..\Software\uCOS-III\Source/os_tick.c ****                     OSTickCtrStep = tick_step;
 285:..\..\..\..\..\..\Software\uCOS-III\Source/os_tick.c ****                     BSP_OS_TickNextSet(tick_step);
 286:..\..\..\..\..\..\Software\uCOS-III\Source/os_tick.c ****                 }
 287:..\..\..\..\..\..\Software\uCOS-III\Source/os_tick.c **** #endif
 288:..\..\..\..\..\..\Software\uCOS-III\Source/os_tick.c **** 
 289:..\..\..\..\..\..\Software\uCOS-III\Source/os_tick.c ****                 return;
 384              		.loc 1 289 0
 385 009a 43E0     		b	.L14
 386              	.L19:
 269:..\..\..\..\..\..\Software\uCOS-III\Source/os_tick.c ****                     p_tcb->TickRemain   = remain;               /* Store remaining time            
 387              		.loc 1 269 0
 388 009c BB69     		ldr	r3, [r7, #24]
 389 009e DB69     		ldr	r3, [r3, #28]
 390 00a0 FB61     		str	r3, [r7, #28]
ARM GAS  C:\Users\ADMINI~1\AppData\Local\Temp\cc8eYrCa.s 			page 13


 270:..\..\..\..\..\..\Software\uCOS-III\Source/os_tick.c ****                     p_tcb->TickPrevPtr  = p_tcb1;
 391              		.loc 1 270 0
 392 00a2 BB68     		ldr	r3, [r7, #8]
 393 00a4 7A69     		ldr	r2, [r7, #20]
 394 00a6 1A65     		str	r2, [r3, #80]
 271:..\..\..\..\..\..\Software\uCOS-III\Source/os_tick.c ****                     p_tcb->TickNextPtr  = p_tcb2;    
 395              		.loc 1 271 0
 396 00a8 BB68     		ldr	r3, [r7, #8]
 397 00aa FA69     		ldr	r2, [r7, #28]
 398 00ac DA61     		str	r2, [r3, #28]
 272:..\..\..\..\..\..\Software\uCOS-III\Source/os_tick.c ****                     p_tcb->TickListPtr  = p_list;               /* TCB points to this list         
 399              		.loc 1 272 0
 400 00ae BB68     		ldr	r3, [r7, #8]
 401 00b0 BA69     		ldr	r2, [r7, #24]
 402 00b2 9A61     		str	r2, [r3, #24]
 273:..\..\..\..\..\..\Software\uCOS-III\Source/os_tick.c ****                     p_tcb2->TickRemain -= remain;               /* Reduce time of next entry in the
 403              		.loc 1 273 0
 404 00b4 BB68     		ldr	r3, [r7, #8]
 405 00b6 FA68     		ldr	r2, [r7, #12]
 406 00b8 1A62     		str	r2, [r3, #32]
 274:..\..\..\..\..\..\Software\uCOS-III\Source/os_tick.c ****                     p_tcb2->TickPrevPtr = p_tcb;
 407              		.loc 1 274 0
 408 00ba BB69     		ldr	r3, [r7, #24]
 409 00bc 1A6D     		ldr	r2, [r3, #80]
 410 00be 7B69     		ldr	r3, [r7, #20]
 411 00c0 D21A     		subs	r2, r2, r3
 412 00c2 BB69     		ldr	r3, [r7, #24]
 413 00c4 1A65     		str	r2, [r3, #80]
 275:..\..\..\..\..\..\Software\uCOS-III\Source/os_tick.c ****                     p_tcb1->TickNextPtr = p_tcb;
 414              		.loc 1 275 0
 415 00c6 BB69     		ldr	r3, [r7, #24]
 416 00c8 BA68     		ldr	r2, [r7, #8]
 417 00ca DA61     		str	r2, [r3, #28]
 276:..\..\..\..\..\..\Software\uCOS-III\Source/os_tick.c **** #if (OS_CFG_DBG_EN == DEF_ENABLED)
 418              		.loc 1 276 0
 419 00cc FB69     		ldr	r3, [r7, #28]
 420 00ce BA68     		ldr	r2, [r7, #8]
 421 00d0 9A61     		str	r2, [r3, #24]
 278:..\..\..\..\..\..\Software\uCOS-III\Source/os_tick.c **** #endif
 422              		.loc 1 278 0
 423 00d2 FB68     		ldr	r3, [r7, #12]
 424 00d4 9B88     		ldrh	r3, [r3, #4]
 425 00d6 0133     		adds	r3, r3, #1
 426 00d8 9AB2     		uxth	r2, r3
 427 00da FB68     		ldr	r3, [r7, #12]
 428 00dc 9A80     		strh	r2, [r3, #4]
 429              		.loc 1 289 0
 430 00de 21E0     		b	.L14
 431              	.L18:
 290:..\..\..\..\..\..\Software\uCOS-III\Source/os_tick.c ****             } else {
 291:..\..\..\..\..\..\Software\uCOS-III\Source/os_tick.c ****                 remain -= p_tcb2->TickRemain;                   /* Point to the next TCB in the lis
 432              		.loc 1 291 0
 433 00e0 BB69     		ldr	r3, [r7, #24]
 434 00e2 1B6D     		ldr	r3, [r3, #80]
 435 00e4 7A69     		ldr	r2, [r7, #20]
 436 00e6 D31A     		subs	r3, r2, r3
 437 00e8 7B61     		str	r3, [r7, #20]
ARM GAS  C:\Users\ADMINI~1\AppData\Local\Temp\cc8eYrCa.s 			page 14


 292:..\..\..\..\..\..\Software\uCOS-III\Source/os_tick.c ****                 p_tcb1  = p_tcb2;
 438              		.loc 1 292 0
 439 00ea BB69     		ldr	r3, [r7, #24]
 440 00ec FB61     		str	r3, [r7, #28]
 293:..\..\..\..\..\..\Software\uCOS-III\Source/os_tick.c ****                 p_tcb2  = p_tcb2->TickNextPtr;
 441              		.loc 1 293 0
 442 00ee BB69     		ldr	r3, [r7, #24]
 443 00f0 9B69     		ldr	r3, [r3, #24]
 444 00f2 BB61     		str	r3, [r7, #24]
 445              	.L17:
 252:..\..\..\..\..\..\Software\uCOS-III\Source/os_tick.c ****             if (remain <= p_tcb2->TickRemain) {
 446              		.loc 1 252 0
 447 00f4 BB69     		ldr	r3, [r7, #24]
 448 00f6 002B     		cmp	r3, #0
 449 00f8 A8D1     		bne	.L21
 294:..\..\..\..\..\..\Software\uCOS-III\Source/os_tick.c ****             }                 
 295:..\..\..\..\..\..\Software\uCOS-III\Source/os_tick.c ****         }
 296:..\..\..\..\..\..\Software\uCOS-III\Source/os_tick.c ****         p_tcb->TickRemain   = remain;                       
 450              		.loc 1 296 0
 451 00fa BB68     		ldr	r3, [r7, #8]
 452 00fc 7A69     		ldr	r2, [r7, #20]
 453 00fe 1A65     		str	r2, [r3, #80]
 297:..\..\..\..\..\..\Software\uCOS-III\Source/os_tick.c ****         p_tcb->TickPrevPtr  = p_tcb1;
 454              		.loc 1 297 0
 455 0100 BB68     		ldr	r3, [r7, #8]
 456 0102 FA69     		ldr	r2, [r7, #28]
 457 0104 DA61     		str	r2, [r3, #28]
 298:..\..\..\..\..\..\Software\uCOS-III\Source/os_tick.c ****         p_tcb->TickNextPtr  = DEF_NULL;
 458              		.loc 1 298 0
 459 0106 BB68     		ldr	r3, [r7, #8]
 460 0108 0022     		movs	r2, #0
 461 010a 9A61     		str	r2, [r3, #24]
 299:..\..\..\..\..\..\Software\uCOS-III\Source/os_tick.c ****         p_tcb->TickListPtr  = p_list;                           /* Link the list to the TCB        
 462              		.loc 1 299 0
 463 010c BB68     		ldr	r3, [r7, #8]
 464 010e FA68     		ldr	r2, [r7, #12]
 465 0110 1A62     		str	r2, [r3, #32]
 300:..\..\..\..\..\..\Software\uCOS-III\Source/os_tick.c ****         p_tcb1->TickNextPtr = p_tcb;
 466              		.loc 1 300 0
 467 0112 FB69     		ldr	r3, [r7, #28]
 468 0114 BA68     		ldr	r2, [r7, #8]
 469 0116 9A61     		str	r2, [r3, #24]
 301:..\..\..\..\..\..\Software\uCOS-III\Source/os_tick.c **** #if (OS_CFG_DBG_EN == DEF_ENABLED)
 302:..\..\..\..\..\..\Software\uCOS-III\Source/os_tick.c ****         p_list->NbrEntries++;                                   /* List contains an extra entry    
 470              		.loc 1 302 0
 471 0118 FB68     		ldr	r3, [r7, #12]
 472 011a 9B88     		ldrh	r3, [r3, #4]
 473 011c 0133     		adds	r3, r3, #1
 474 011e 9AB2     		uxth	r2, r3
 475 0120 FB68     		ldr	r3, [r7, #12]
 476 0122 9A80     		strh	r2, [r3, #4]
 477              	.L14:
 303:..\..\..\..\..\..\Software\uCOS-III\Source/os_tick.c **** #endif
 304:..\..\..\..\..\..\Software\uCOS-III\Source/os_tick.c ****     }
 305:..\..\..\..\..\..\Software\uCOS-III\Source/os_tick.c **** 
 306:..\..\..\..\..\..\Software\uCOS-III\Source/os_tick.c **** #if (OS_CFG_DYN_TICK_EN == DEF_ENABLED)
 307:..\..\..\..\..\..\Software\uCOS-III\Source/os_tick.c ****     if (tick_step < OSTickCtrStep) {
ARM GAS  C:\Users\ADMINI~1\AppData\Local\Temp\cc8eYrCa.s 			page 15


 308:..\..\..\..\..\..\Software\uCOS-III\Source/os_tick.c ****         OSTickCtrStep = tick_step;
 309:..\..\..\..\..\..\Software\uCOS-III\Source/os_tick.c ****         BSP_OS_TickNextSet(tick_step);
 310:..\..\..\..\..\..\Software\uCOS-III\Source/os_tick.c ****     }
 311:..\..\..\..\..\..\Software\uCOS-III\Source/os_tick.c **** #endif
 312:..\..\..\..\..\..\Software\uCOS-III\Source/os_tick.c **** }
 478              		.loc 1 312 0
 479 0124 BD46     		mov	sp, r7
 480 0126 08B0     		add	sp, sp, #32
 481              		@ sp needed
 482 0128 80BD     		pop	{r7, pc}
 483              		.cfi_endproc
 484              	.LFE2:
 485              		.size	OS_TickListInsert, .-OS_TickListInsert
 486              		.global	__aeabi_uidiv
 487 012a C046     		.section	.text.OS_TickListInsertDly,"ax",%progbits
 488              		.align	2
 489              		.global	OS_TickListInsertDly
 490              		.code	16
 491              		.thumb_func
 492              		.type	OS_TickListInsertDly, %function
 493              	OS_TickListInsertDly:
 494              	.LFB3:
 313:..\..\..\..\..\..\Software\uCOS-III\Source/os_tick.c **** 
 314:..\..\..\..\..\..\Software\uCOS-III\Source/os_tick.c **** /*
 315:..\..\..\..\..\..\Software\uCOS-III\Source/os_tick.c **** ***************************************************************************************************
 316:..\..\..\..\..\..\Software\uCOS-III\Source/os_tick.c **** *                                            ADD TASK TO DELAYED TICK LIST
 317:..\..\..\..\..\..\Software\uCOS-III\Source/os_tick.c **** *
 318:..\..\..\..\..\..\Software\uCOS-III\Source/os_tick.c **** * Description: This function is called to place a task in a list of task waiting for either time to
 319:..\..\..\..\..\..\Software\uCOS-III\Source/os_tick.c **** *
 320:..\..\..\..\..\..\Software\uCOS-III\Source/os_tick.c **** * Arguments  : p_tcb          is a pointer to the OS_TCB of the task to add to the tick list
 321:..\..\..\..\..\..\Software\uCOS-III\Source/os_tick.c **** *              -----
 322:..\..\..\..\..\..\Software\uCOS-III\Source/os_tick.c **** *
 323:..\..\..\..\..\..\Software\uCOS-III\Source/os_tick.c **** *              time           represents either the 'match' value of OSTickCtr or a relative time f
 324:..\..\..\..\..\..\Software\uCOS-III\Source/os_tick.c **** *                             value of OSTickCtr as specified by the 'opt' argument..
 325:..\..\..\..\..\..\Software\uCOS-III\Source/os_tick.c **** *
 326:..\..\..\..\..\..\Software\uCOS-III\Source/os_tick.c **** *                             relative when 'opt' is set to OS_OPT_TIME_DLY
 327:..\..\..\..\..\..\Software\uCOS-III\Source/os_tick.c **** *                             relative when 'opt' is set to OS_OPT_TIME_TIMEOUT
 328:..\..\..\..\..\..\Software\uCOS-III\Source/os_tick.c **** *                             match    when 'opt' is set to OS_OPT_TIME_MATCH
 329:..\..\..\..\..\..\Software\uCOS-III\Source/os_tick.c **** *                             periodic when 'opt' is set to OS_OPT_TIME_PERIODIC
 330:..\..\..\..\..\..\Software\uCOS-III\Source/os_tick.c **** *
 331:..\..\..\..\..\..\Software\uCOS-III\Source/os_tick.c **** *              opt            is an option specifying how to calculate time.  The valid values are:
 332:..\..\..\..\..\..\Software\uCOS-III\Source/os_tick.c **** *              ---
 333:..\..\..\..\..\..\Software\uCOS-III\Source/os_tick.c **** *                                 OS_OPT_TIME_DLY
 334:..\..\..\..\..\..\Software\uCOS-III\Source/os_tick.c **** *                                 OS_OPT_TIME_TIMEOUT
 335:..\..\..\..\..\..\Software\uCOS-III\Source/os_tick.c **** *                                 OS_OPT_TIME_PERIODIC
 336:..\..\..\..\..\..\Software\uCOS-III\Source/os_tick.c **** *                                 OS_OPT_TIME_MATCH
 337:..\..\..\..\..\..\Software\uCOS-III\Source/os_tick.c **** *
 338:..\..\..\..\..\..\Software\uCOS-III\Source/os_tick.c **** *              p_err          is a pointer to a variable that will contain an error code returned b
 339:..\..\..\..\..\..\Software\uCOS-III\Source/os_tick.c **** *              -----
 340:..\..\..\..\..\..\Software\uCOS-III\Source/os_tick.c **** *                                 OS_ERR_NONE           the call was successful and the time delay 
 341:..\..\..\..\..\..\Software\uCOS-III\Source/os_tick.c **** *                                 OS_ERR_TIME_ZERO_DLY  if delay is zero or already occurred.
 342:..\..\..\..\..\..\Software\uCOS-III\Source/os_tick.c **** *
 343:..\..\..\..\..\..\Software\uCOS-III\Source/os_tick.c **** * Returns    : None
 344:..\..\..\..\..\..\Software\uCOS-III\Source/os_tick.c **** *
 345:..\..\..\..\..\..\Software\uCOS-III\Source/os_tick.c **** * Note(s)    : 1) This function is INTERNAL to uC/OS-III and your application MUST NOT call it.
 346:..\..\..\..\..\..\Software\uCOS-III\Source/os_tick.c **** *
 347:..\..\..\..\..\..\Software\uCOS-III\Source/os_tick.c **** *              2) This function is assumed to be called with interrupts disabled.
ARM GAS  C:\Users\ADMINI~1\AppData\Local\Temp\cc8eYrCa.s 			page 16


 348:..\..\..\..\..\..\Software\uCOS-III\Source/os_tick.c **** ***************************************************************************************************
 349:..\..\..\..\..\..\Software\uCOS-III\Source/os_tick.c **** */
 350:..\..\..\..\..\..\Software\uCOS-III\Source/os_tick.c **** 
 351:..\..\..\..\..\..\Software\uCOS-III\Source/os_tick.c **** void  OS_TickListInsertDly (OS_TCB   *p_tcb,
 352:..\..\..\..\..\..\Software\uCOS-III\Source/os_tick.c ****                             OS_TICK   time,
 353:..\..\..\..\..\..\Software\uCOS-III\Source/os_tick.c ****                             OS_OPT    opt,
 354:..\..\..\..\..\..\Software\uCOS-III\Source/os_tick.c ****                             OS_ERR   *p_err)
 355:..\..\..\..\..\..\Software\uCOS-III\Source/os_tick.c **** {
 495              		.loc 1 355 0
 496              		.cfi_startproc
 497              		@ args = 0, pretend = 0, frame = 24
 498              		@ frame_needed = 1, uses_anonymous_args = 0
 499 0000 90B5     		push	{r4, r7, lr}
 500              		.cfi_def_cfa_offset 12
 501              		.cfi_offset 4, -12
 502              		.cfi_offset 7, -8
 503              		.cfi_offset 14, -4
 504 0002 87B0     		sub	sp, sp, #28
 505              		.cfi_def_cfa_offset 40
 506 0004 00AF     		add	r7, sp, #0
 507              		.cfi_def_cfa_register 7
 508 0006 F860     		str	r0, [r7, #12]
 509 0008 B960     		str	r1, [r7, #8]
 510 000a 3B60     		str	r3, [r7]
 511 000c BB1D     		adds	r3, r7, #6
 512 000e 1A80     		strh	r2, [r3]
 356:..\..\..\..\..\..\Software\uCOS-III\Source/os_tick.c ****     OS_TICK   remain;
 357:..\..\..\..\..\..\Software\uCOS-III\Source/os_tick.c ****     OS_TICK   tick_ctr;
 358:..\..\..\..\..\..\Software\uCOS-III\Source/os_tick.c **** 
 359:..\..\..\..\..\..\Software\uCOS-III\Source/os_tick.c **** 
 360:..\..\..\..\..\..\Software\uCOS-III\Source/os_tick.c **** #if (OS_CFG_DYN_TICK_EN == DEF_ENABLED)
 361:..\..\..\..\..\..\Software\uCOS-III\Source/os_tick.c ****     tick_ctr = BSP_OS_TickGet();
 362:..\..\..\..\..\..\Software\uCOS-III\Source/os_tick.c **** #else
 363:..\..\..\..\..\..\Software\uCOS-III\Source/os_tick.c ****     tick_ctr = OSTickCtr;
 513              		.loc 1 363 0
 514 0010 374B     		ldr	r3, .L32
 515 0012 1B68     		ldr	r3, [r3]
 516 0014 3B61     		str	r3, [r7, #16]
 364:..\..\..\..\..\..\Software\uCOS-III\Source/os_tick.c **** #endif
 365:..\..\..\..\..\..\Software\uCOS-III\Source/os_tick.c **** 
 366:..\..\..\..\..\..\Software\uCOS-III\Source/os_tick.c ****     if (opt == OS_OPT_TIME_MATCH) {                             /* MATCH to absolute OSTickCtr valu
 517              		.loc 1 366 0
 518 0016 BB1D     		adds	r3, r7, #6
 519 0018 1B88     		ldrh	r3, [r3]
 520 001a 042B     		cmp	r3, #4
 521 001c 11D1     		bne	.L23
 367:..\..\..\..\..\..\Software\uCOS-III\Source/os_tick.c ****         remain = time - tick_ctr;
 522              		.loc 1 367 0
 523 001e BA68     		ldr	r2, [r7, #8]
 524 0020 3B69     		ldr	r3, [r7, #16]
 525 0022 D31A     		subs	r3, r2, r3
 526 0024 7B61     		str	r3, [r7, #20]
 368:..\..\..\..\..\..\Software\uCOS-III\Source/os_tick.c ****         if ((remain > OS_TICK_TH_RDY) ||                        /* If delay already occurred, ...  
 527              		.loc 1 368 0
 528 0026 7B69     		ldr	r3, [r7, #20]
 529 0028 324A     		ldr	r2, .L32+4
 530 002a 9342     		cmp	r3, r2
ARM GAS  C:\Users\ADMINI~1\AppData\Local\Temp\cc8eYrCa.s 			page 17


 531 002c 02D8     		bhi	.L24
 532              		.loc 1 368 0 is_stmt 0 discriminator 1
 533 002e 7B69     		ldr	r3, [r7, #20]
 534 0030 002B     		cmp	r3, #0
 535 0032 48D1     		bne	.L25
 536              	.L24:
 369:..\..\..\..\..\..\Software\uCOS-III\Source/os_tick.c ****             (remain == 0u)) {
 370:..\..\..\..\..\..\Software\uCOS-III\Source/os_tick.c ****             p_tcb->TickRemain = 0u;
 537              		.loc 1 370 0 is_stmt 1
 538 0034 FB68     		ldr	r3, [r7, #12]
 539 0036 0022     		movs	r2, #0
 540 0038 1A65     		str	r2, [r3, #80]
 371:..\..\..\..\..\..\Software\uCOS-III\Source/os_tick.c ****            *p_err             =  OS_ERR_TIME_ZERO_DLY;          /* ... do NOT delay.               
 541              		.loc 1 371 0
 542 003a 3B68     		ldr	r3, [r7]
 543 003c 2E4A     		ldr	r2, .L32+8
 544 003e 1A80     		strh	r2, [r3]
 372:..\..\..\..\..\..\Software\uCOS-III\Source/os_tick.c ****             return;
 545              		.loc 1 372 0
 546 0040 53E0     		b	.L22
 547              	.L23:
 373:..\..\..\..\..\..\Software\uCOS-III\Source/os_tick.c ****         }
 374:..\..\..\..\..\..\Software\uCOS-III\Source/os_tick.c **** 
 375:..\..\..\..\..\..\Software\uCOS-III\Source/os_tick.c ****     } else if (opt == OS_OPT_TIME_PERIODIC) {                   /* PERIODIC mode.                  
 548              		.loc 1 375 0
 549 0042 BB1D     		adds	r3, r7, #6
 550 0044 1B88     		ldrh	r3, [r3]
 551 0046 082B     		cmp	r3, #8
 552 0048 3BD1     		bne	.L27
 376:..\..\..\..\..\..\Software\uCOS-III\Source/os_tick.c ****         if ((tick_ctr - p_tcb->TickCtrPrev) > time) {
 553              		.loc 1 376 0
 554 004a FB68     		ldr	r3, [r7, #12]
 555 004c 5B6D     		ldr	r3, [r3, #84]
 556 004e 3A69     		ldr	r2, [r7, #16]
 557 0050 D21A     		subs	r2, r2, r3
 558 0052 BB68     		ldr	r3, [r7, #8]
 559 0054 9A42     		cmp	r2, r3
 560 0056 07D9     		bls	.L28
 377:..\..\..\..\..\..\Software\uCOS-III\Source/os_tick.c ****             remain             = time;                          /* ... first time we load .TickCtrP
 561              		.loc 1 377 0
 562 0058 BB68     		ldr	r3, [r7, #8]
 563 005a 7B61     		str	r3, [r7, #20]
 378:..\..\..\..\..\..\Software\uCOS-III\Source/os_tick.c ****             p_tcb->TickCtrPrev = tick_ctr + time;
 564              		.loc 1 378 0
 565 005c 3A69     		ldr	r2, [r7, #16]
 566 005e BB68     		ldr	r3, [r7, #8]
 567 0060 D218     		adds	r2, r2, r3
 568 0062 FB68     		ldr	r3, [r7, #12]
 569 0064 5A65     		str	r2, [r3, #84]
 570 0066 2EE0     		b	.L25
 571              	.L28:
 379:..\..\..\..\..\..\Software\uCOS-III\Source/os_tick.c ****         } else {
 380:..\..\..\..\..\..\Software\uCOS-III\Source/os_tick.c ****             remain = time - (tick_ctr - p_tcb->TickCtrPrev);
 572              		.loc 1 380 0
 573 0068 FB68     		ldr	r3, [r7, #12]
 574 006a 5A6D     		ldr	r2, [r3, #84]
 575 006c 3B69     		ldr	r3, [r7, #16]
ARM GAS  C:\Users\ADMINI~1\AppData\Local\Temp\cc8eYrCa.s 			page 18


 576 006e D21A     		subs	r2, r2, r3
 577 0070 BB68     		ldr	r3, [r7, #8]
 578 0072 D318     		adds	r3, r2, r3
 579 0074 7B61     		str	r3, [r7, #20]
 381:..\..\..\..\..\..\Software\uCOS-III\Source/os_tick.c ****             if ((remain > OS_TICK_TH_RDY) ||                    /* If delay time has already passed
 580              		.loc 1 381 0
 581 0076 7B69     		ldr	r3, [r7, #20]
 582 0078 1E4A     		ldr	r2, .L32+4
 583 007a 9342     		cmp	r3, r2
 584 007c 02D8     		bhi	.L30
 585              		.loc 1 381 0 is_stmt 0 discriminator 1
 586 007e 7B69     		ldr	r3, [r7, #20]
 587 0080 002B     		cmp	r3, #0
 588 0082 17D1     		bne	.L31
 589              	.L30:
 382:..\..\..\..\..\..\Software\uCOS-III\Source/os_tick.c ****                 (remain == 0u)) {
 383:..\..\..\..\..\..\Software\uCOS-III\Source/os_tick.c ****                 p_tcb->TickCtrPrev += time + time * ((tick_ctr - p_tcb->TickCtrPrev) / time); /* Tr
 590              		.loc 1 383 0 is_stmt 1
 591 0084 FB68     		ldr	r3, [r7, #12]
 592 0086 5C6D     		ldr	r4, [r3, #84]
 593 0088 FB68     		ldr	r3, [r7, #12]
 594 008a 5B6D     		ldr	r3, [r3, #84]
 595 008c 3A69     		ldr	r2, [r7, #16]
 596 008e D31A     		subs	r3, r2, r3
 597 0090 B968     		ldr	r1, [r7, #8]
 598 0092 1800     		movs	r0, r3
 599 0094 FFF7FEFF 		bl	__aeabi_uidiv
 600 0098 0300     		movs	r3, r0
 601 009a 0133     		adds	r3, r3, #1
 602 009c BA68     		ldr	r2, [r7, #8]
 603 009e 5343     		muls	r3, r2
 604 00a0 E218     		adds	r2, r4, r3
 605 00a2 FB68     		ldr	r3, [r7, #12]
 606 00a4 5A65     		str	r2, [r3, #84]
 384:..\..\..\..\..\..\Software\uCOS-III\Source/os_tick.c ****                 p_tcb->TickRemain   = 0u;
 607              		.loc 1 384 0
 608 00a6 FB68     		ldr	r3, [r7, #12]
 609 00a8 0022     		movs	r2, #0
 610 00aa 1A65     		str	r2, [r3, #80]
 385:..\..\..\..\..\..\Software\uCOS-III\Source/os_tick.c ****                *p_err               =  OS_ERR_TIME_ZERO_DLY;    /* ... do NOT delay.               
 611              		.loc 1 385 0
 612 00ac 3B68     		ldr	r3, [r7]
 613 00ae 124A     		ldr	r2, .L32+8
 614 00b0 1A80     		strh	r2, [r3]
 386:..\..\..\..\..\..\Software\uCOS-III\Source/os_tick.c ****                 return;
 615              		.loc 1 386 0
 616 00b2 1AE0     		b	.L22
 617              	.L31:
 387:..\..\..\..\..\..\Software\uCOS-III\Source/os_tick.c ****             }
 388:..\..\..\..\..\..\Software\uCOS-III\Source/os_tick.c ****             p_tcb->TickCtrPrev += time;
 618              		.loc 1 388 0
 619 00b4 FB68     		ldr	r3, [r7, #12]
 620 00b6 5A6D     		ldr	r2, [r3, #84]
 621 00b8 BB68     		ldr	r3, [r7, #8]
 622 00ba D218     		adds	r2, r2, r3
 623 00bc FB68     		ldr	r3, [r7, #12]
 624 00be 5A65     		str	r2, [r3, #84]
ARM GAS  C:\Users\ADMINI~1\AppData\Local\Temp\cc8eYrCa.s 			page 19


 625 00c0 01E0     		b	.L25
 626              	.L27:
 389:..\..\..\..\..\..\Software\uCOS-III\Source/os_tick.c ****         }
 390:..\..\..\..\..\..\Software\uCOS-III\Source/os_tick.c **** 
 391:..\..\..\..\..\..\Software\uCOS-III\Source/os_tick.c ****     } else {                                                    /* RELATIVE time delay mode        
 392:..\..\..\..\..\..\Software\uCOS-III\Source/os_tick.c ****         remain = time;
 627              		.loc 1 392 0
 628 00c2 BB68     		ldr	r3, [r7, #8]
 629 00c4 7B61     		str	r3, [r7, #20]
 630              	.L25:
 393:..\..\..\..\..\..\Software\uCOS-III\Source/os_tick.c ****     }
 394:..\..\..\..\..\..\Software\uCOS-III\Source/os_tick.c **** 
 395:..\..\..\..\..\..\Software\uCOS-III\Source/os_tick.c ****    *p_err = OS_ERR_NONE;
 631              		.loc 1 395 0
 632 00c6 3B68     		ldr	r3, [r7]
 633 00c8 0022     		movs	r2, #0
 634 00ca 1A80     		strh	r2, [r3]
 396:..\..\..\..\..\..\Software\uCOS-III\Source/os_tick.c **** 
 397:..\..\..\..\..\..\Software\uCOS-III\Source/os_tick.c ****     p_tcb->TaskState = OS_TASK_STATE_DLY;
 635              		.loc 1 397 0
 636 00cc FB68     		ldr	r3, [r7, #12]
 637 00ce 3622     		movs	r2, #54
 638 00d0 0121     		movs	r1, #1
 639 00d2 9954     		strb	r1, [r3, r2]
 398:..\..\..\..\..\..\Software\uCOS-III\Source/os_tick.c ****     OS_TickListInsert(&OSTickListDly, p_tcb, remain + (tick_ctr - OSTickCtr));
 640              		.loc 1 398 0
 641 00d4 064B     		ldr	r3, .L32
 642 00d6 1B68     		ldr	r3, [r3]
 643 00d8 3A69     		ldr	r2, [r7, #16]
 644 00da D21A     		subs	r2, r2, r3
 645 00dc 7B69     		ldr	r3, [r7, #20]
 646 00de D218     		adds	r2, r2, r3
 647 00e0 F968     		ldr	r1, [r7, #12]
 648 00e2 064B     		ldr	r3, .L32+12
 649 00e4 1800     		movs	r0, r3
 650 00e6 FFF7FEFF 		bl	OS_TickListInsert
 651              	.L22:
 399:..\..\..\..\..\..\Software\uCOS-III\Source/os_tick.c **** }
 652              		.loc 1 399 0
 653 00ea BD46     		mov	sp, r7
 654 00ec 07B0     		add	sp, sp, #28
 655              		@ sp needed
 656 00ee 90BD     		pop	{r4, r7, pc}
 657              	.L33:
 658              		.align	2
 659              	.L32:
 660 00f0 00000000 		.word	OSTickCtr
 661 00f4 0000FFFF 		.word	-65536
 662 00f8 7E720000 		.word	29310
 663 00fc 00000000 		.word	OSTickListDly
 664              		.cfi_endproc
 665              	.LFE3:
 666              		.size	OS_TickListInsertDly, .-OS_TickListInsertDly
 667              		.section	.text.OS_TickListRemove,"ax",%progbits
 668              		.align	2
 669              		.global	OS_TickListRemove
 670              		.code	16
ARM GAS  C:\Users\ADMINI~1\AppData\Local\Temp\cc8eYrCa.s 			page 20


 671              		.thumb_func
 672              		.type	OS_TickListRemove, %function
 673              	OS_TickListRemove:
 674              	.LFB4:
 400:..\..\..\..\..\..\Software\uCOS-III\Source/os_tick.c **** 
 401:..\..\..\..\..\..\Software\uCOS-III\Source/os_tick.c **** /*
 402:..\..\..\..\..\..\Software\uCOS-III\Source/os_tick.c **** ***************************************************************************************************
 403:..\..\..\..\..\..\Software\uCOS-III\Source/os_tick.c **** *                                         REMOVE A TASK FROM THE TICK LIST
 404:..\..\..\..\..\..\Software\uCOS-III\Source/os_tick.c **** *
 405:..\..\..\..\..\..\Software\uCOS-III\Source/os_tick.c **** * Description: This function is called to remove a task from the tick list
 406:..\..\..\..\..\..\Software\uCOS-III\Source/os_tick.c **** *
 407:..\..\..\..\..\..\Software\uCOS-III\Source/os_tick.c **** * Arguments  : p_tcb          Is a pointer to the OS_TCB to remove.
 408:..\..\..\..\..\..\Software\uCOS-III\Source/os_tick.c **** *              -----
 409:..\..\..\..\..\..\Software\uCOS-III\Source/os_tick.c **** *
 410:..\..\..\..\..\..\Software\uCOS-III\Source/os_tick.c **** * Returns    : none
 411:..\..\..\..\..\..\Software\uCOS-III\Source/os_tick.c **** *
 412:..\..\..\..\..\..\Software\uCOS-III\Source/os_tick.c **** * Note(s)    : 1) This function is INTERNAL to uC/OS-III and your application MUST NOT call it.
 413:..\..\..\..\..\..\Software\uCOS-III\Source/os_tick.c **** *
 414:..\..\..\..\..\..\Software\uCOS-III\Source/os_tick.c **** *              2) This function is assumed to be called with interrupts disabled.
 415:..\..\..\..\..\..\Software\uCOS-III\Source/os_tick.c **** ***************************************************************************************************
 416:..\..\..\..\..\..\Software\uCOS-III\Source/os_tick.c **** */
 417:..\..\..\..\..\..\Software\uCOS-III\Source/os_tick.c **** 
 418:..\..\..\..\..\..\Software\uCOS-III\Source/os_tick.c **** void  OS_TickListRemove (OS_TCB  *p_tcb)
 419:..\..\..\..\..\..\Software\uCOS-III\Source/os_tick.c **** {
 675              		.loc 1 419 0
 676              		.cfi_startproc
 677              		@ args = 0, pretend = 0, frame = 24
 678              		@ frame_needed = 1, uses_anonymous_args = 0
 679 0000 80B5     		push	{r7, lr}
 680              		.cfi_def_cfa_offset 8
 681              		.cfi_offset 7, -8
 682              		.cfi_offset 14, -4
 683 0002 86B0     		sub	sp, sp, #24
 684              		.cfi_def_cfa_offset 32
 685 0004 00AF     		add	r7, sp, #0
 686              		.cfi_def_cfa_register 7
 687 0006 7860     		str	r0, [r7, #4]
 420:..\..\..\..\..\..\Software\uCOS-III\Source/os_tick.c ****     OS_TICK_LIST  *p_list;
 421:..\..\..\..\..\..\Software\uCOS-III\Source/os_tick.c ****     OS_TCB        *p_tcb1;
 422:..\..\..\..\..\..\Software\uCOS-III\Source/os_tick.c ****     OS_TCB        *p_tcb2;
 423:..\..\..\..\..\..\Software\uCOS-III\Source/os_tick.c **** 
 424:..\..\..\..\..\..\Software\uCOS-III\Source/os_tick.c **** 
 425:..\..\..\..\..\..\Software\uCOS-III\Source/os_tick.c ****     p_list = p_tcb->TickListPtr;
 688              		.loc 1 425 0
 689 0008 7B68     		ldr	r3, [r7, #4]
 690 000a 1B6A     		ldr	r3, [r3, #32]
 691 000c 7B61     		str	r3, [r7, #20]
 426:..\..\..\..\..\..\Software\uCOS-III\Source/os_tick.c ****     p_tcb1 = p_tcb->TickPrevPtr;
 692              		.loc 1 426 0
 693 000e 7B68     		ldr	r3, [r7, #4]
 694 0010 DB69     		ldr	r3, [r3, #28]
 695 0012 3B61     		str	r3, [r7, #16]
 427:..\..\..\..\..\..\Software\uCOS-III\Source/os_tick.c ****     p_tcb2 = p_tcb->TickNextPtr;
 696              		.loc 1 427 0
 697 0014 7B68     		ldr	r3, [r7, #4]
 698 0016 9B69     		ldr	r3, [r3, #24]
 699 0018 FB60     		str	r3, [r7, #12]
ARM GAS  C:\Users\ADMINI~1\AppData\Local\Temp\cc8eYrCa.s 			page 21


 428:..\..\..\..\..\..\Software\uCOS-III\Source/os_tick.c ****     if (p_tcb1 == DEF_NULL) {
 700              		.loc 1 428 0
 701 001a 3B69     		ldr	r3, [r7, #16]
 702 001c 002B     		cmp	r3, #0
 703 001e 2CD1     		bne	.L35
 429:..\..\..\..\..\..\Software\uCOS-III\Source/os_tick.c ****         if (p_tcb2 == DEF_NULL) {                               /* Remove ONLY entry in the list?  
 704              		.loc 1 429 0
 705 0020 FB68     		ldr	r3, [r7, #12]
 706 0022 002B     		cmp	r3, #0
 707 0024 0CD1     		bne	.L36
 430:..\..\..\..\..\..\Software\uCOS-III\Source/os_tick.c ****             p_list->TCB_Ptr    = DEF_NULL;
 708              		.loc 1 430 0
 709 0026 7B69     		ldr	r3, [r7, #20]
 710 0028 0022     		movs	r2, #0
 711 002a 1A60     		str	r2, [r3]
 431:..\..\..\..\..\..\Software\uCOS-III\Source/os_tick.c **** #if (OS_CFG_DBG_EN == DEF_ENABLED)
 432:..\..\..\..\..\..\Software\uCOS-III\Source/os_tick.c ****             p_list->NbrEntries = 0u;
 712              		.loc 1 432 0
 713 002c 7B69     		ldr	r3, [r7, #20]
 714 002e 0022     		movs	r2, #0
 715 0030 9A80     		strh	r2, [r3, #4]
 433:..\..\..\..\..\..\Software\uCOS-III\Source/os_tick.c **** #endif
 434:..\..\..\..\..\..\Software\uCOS-III\Source/os_tick.c ****             p_tcb->TickRemain   = 0u;
 716              		.loc 1 434 0
 717 0032 7B68     		ldr	r3, [r7, #4]
 718 0034 0022     		movs	r2, #0
 719 0036 1A65     		str	r2, [r3, #80]
 435:..\..\..\..\..\..\Software\uCOS-III\Source/os_tick.c ****             p_tcb->TickListPtr  = DEF_NULL;
 720              		.loc 1 435 0
 721 0038 7B68     		ldr	r3, [r7, #4]
 722 003a 0022     		movs	r2, #0
 723 003c 1A62     		str	r2, [r3, #32]
 436:..\..\..\..\..\..\Software\uCOS-III\Source/os_tick.c ****         } else {
 437:..\..\..\..\..\..\Software\uCOS-III\Source/os_tick.c ****             p_tcb2->TickPrevPtr = DEF_NULL;
 438:..\..\..\..\..\..\Software\uCOS-III\Source/os_tick.c ****             p_tcb2->TickRemain += p_tcb->TickRemain;            /* Add back the ticks to the delta 
 439:..\..\..\..\..\..\Software\uCOS-III\Source/os_tick.c ****             p_list->TCB_Ptr    = p_tcb2;
 440:..\..\..\..\..\..\Software\uCOS-III\Source/os_tick.c **** #if (OS_CFG_DBG_EN == DEF_ENABLED)
 441:..\..\..\..\..\..\Software\uCOS-III\Source/os_tick.c ****             p_list->NbrEntries--;
 442:..\..\..\..\..\..\Software\uCOS-III\Source/os_tick.c **** #endif
 443:..\..\..\..\..\..\Software\uCOS-III\Source/os_tick.c ****             p_tcb->TickNextPtr  = DEF_NULL;
 444:..\..\..\..\..\..\Software\uCOS-III\Source/os_tick.c ****             p_tcb->TickRemain   = 0u;
 445:..\..\..\..\..\..\Software\uCOS-III\Source/os_tick.c ****             p_tcb->TickListPtr  = DEF_NULL;
 446:..\..\..\..\..\..\Software\uCOS-III\Source/os_tick.c ****         }
 447:..\..\..\..\..\..\Software\uCOS-III\Source/os_tick.c ****     } else {
 448:..\..\..\..\..\..\Software\uCOS-III\Source/os_tick.c ****         p_tcb1->TickNextPtr = p_tcb2;    
 449:..\..\..\..\..\..\Software\uCOS-III\Source/os_tick.c ****         if (p_tcb2 != DEF_NULL) {
 450:..\..\..\..\..\..\Software\uCOS-III\Source/os_tick.c ****             p_tcb2->TickPrevPtr = p_tcb1;
 451:..\..\..\..\..\..\Software\uCOS-III\Source/os_tick.c ****             p_tcb2->TickRemain += p_tcb->TickRemain;            /* Add back the ticks to the delta 
 452:..\..\..\..\..\..\Software\uCOS-III\Source/os_tick.c ****         }
 453:..\..\..\..\..\..\Software\uCOS-III\Source/os_tick.c ****         p_tcb->TickPrevPtr  = DEF_NULL;
 454:..\..\..\..\..\..\Software\uCOS-III\Source/os_tick.c **** #if (OS_CFG_DBG_EN == DEF_ENABLED)
 455:..\..\..\..\..\..\Software\uCOS-III\Source/os_tick.c ****         p_list->NbrEntries--;
 456:..\..\..\..\..\..\Software\uCOS-III\Source/os_tick.c **** #endif
 457:..\..\..\..\..\..\Software\uCOS-III\Source/os_tick.c ****         p_tcb->TickNextPtr  = DEF_NULL;
 458:..\..\..\..\..\..\Software\uCOS-III\Source/os_tick.c ****         p_tcb->TickRemain   = 0u;
 459:..\..\..\..\..\..\Software\uCOS-III\Source/os_tick.c ****         p_tcb->TickListPtr  = DEF_NULL;
 460:..\..\..\..\..\..\Software\uCOS-III\Source/os_tick.c ****     }
ARM GAS  C:\Users\ADMINI~1\AppData\Local\Temp\cc8eYrCa.s 			page 22


 461:..\..\..\..\..\..\Software\uCOS-III\Source/os_tick.c **** }
 724              		.loc 1 461 0
 725 003e 3EE0     		b	.L40
 726              	.L36:
 437:..\..\..\..\..\..\Software\uCOS-III\Source/os_tick.c ****             p_tcb2->TickRemain += p_tcb->TickRemain;            /* Add back the ticks to the delta 
 727              		.loc 1 437 0
 728 0040 FB68     		ldr	r3, [r7, #12]
 729 0042 0022     		movs	r2, #0
 730 0044 DA61     		str	r2, [r3, #28]
 438:..\..\..\..\..\..\Software\uCOS-III\Source/os_tick.c ****             p_list->TCB_Ptr    = p_tcb2;
 731              		.loc 1 438 0
 732 0046 FB68     		ldr	r3, [r7, #12]
 733 0048 1A6D     		ldr	r2, [r3, #80]
 734 004a 7B68     		ldr	r3, [r7, #4]
 735 004c 1B6D     		ldr	r3, [r3, #80]
 736 004e D218     		adds	r2, r2, r3
 737 0050 FB68     		ldr	r3, [r7, #12]
 738 0052 1A65     		str	r2, [r3, #80]
 439:..\..\..\..\..\..\Software\uCOS-III\Source/os_tick.c **** #if (OS_CFG_DBG_EN == DEF_ENABLED)
 739              		.loc 1 439 0
 740 0054 7B69     		ldr	r3, [r7, #20]
 741 0056 FA68     		ldr	r2, [r7, #12]
 742 0058 1A60     		str	r2, [r3]
 441:..\..\..\..\..\..\Software\uCOS-III\Source/os_tick.c **** #endif
 743              		.loc 1 441 0
 744 005a 7B69     		ldr	r3, [r7, #20]
 745 005c 9B88     		ldrh	r3, [r3, #4]
 746 005e 013B     		subs	r3, r3, #1
 747 0060 9AB2     		uxth	r2, r3
 748 0062 7B69     		ldr	r3, [r7, #20]
 749 0064 9A80     		strh	r2, [r3, #4]
 443:..\..\..\..\..\..\Software\uCOS-III\Source/os_tick.c ****             p_tcb->TickRemain   = 0u;
 750              		.loc 1 443 0
 751 0066 7B68     		ldr	r3, [r7, #4]
 752 0068 0022     		movs	r2, #0
 753 006a 9A61     		str	r2, [r3, #24]
 444:..\..\..\..\..\..\Software\uCOS-III\Source/os_tick.c ****             p_tcb->TickListPtr  = DEF_NULL;
 754              		.loc 1 444 0
 755 006c 7B68     		ldr	r3, [r7, #4]
 756 006e 0022     		movs	r2, #0
 757 0070 1A65     		str	r2, [r3, #80]
 445:..\..\..\..\..\..\Software\uCOS-III\Source/os_tick.c ****         }
 758              		.loc 1 445 0
 759 0072 7B68     		ldr	r3, [r7, #4]
 760 0074 0022     		movs	r2, #0
 761 0076 1A62     		str	r2, [r3, #32]
 762              		.loc 1 461 0
 763 0078 21E0     		b	.L40
 764              	.L35:
 448:..\..\..\..\..\..\Software\uCOS-III\Source/os_tick.c ****         if (p_tcb2 != DEF_NULL) {
 765              		.loc 1 448 0
 766 007a 3B69     		ldr	r3, [r7, #16]
 767 007c FA68     		ldr	r2, [r7, #12]
 768 007e 9A61     		str	r2, [r3, #24]
 449:..\..\..\..\..\..\Software\uCOS-III\Source/os_tick.c ****             p_tcb2->TickPrevPtr = p_tcb1;
 769              		.loc 1 449 0
 770 0080 FB68     		ldr	r3, [r7, #12]
ARM GAS  C:\Users\ADMINI~1\AppData\Local\Temp\cc8eYrCa.s 			page 23


 771 0082 002B     		cmp	r3, #0
 772 0084 09D0     		beq	.L39
 450:..\..\..\..\..\..\Software\uCOS-III\Source/os_tick.c ****             p_tcb2->TickRemain += p_tcb->TickRemain;            /* Add back the ticks to the delta 
 773              		.loc 1 450 0
 774 0086 FB68     		ldr	r3, [r7, #12]
 775 0088 3A69     		ldr	r2, [r7, #16]
 776 008a DA61     		str	r2, [r3, #28]
 451:..\..\..\..\..\..\Software\uCOS-III\Source/os_tick.c ****         }
 777              		.loc 1 451 0
 778 008c FB68     		ldr	r3, [r7, #12]
 779 008e 1A6D     		ldr	r2, [r3, #80]
 780 0090 7B68     		ldr	r3, [r7, #4]
 781 0092 1B6D     		ldr	r3, [r3, #80]
 782 0094 D218     		adds	r2, r2, r3
 783 0096 FB68     		ldr	r3, [r7, #12]
 784 0098 1A65     		str	r2, [r3, #80]
 785              	.L39:
 453:..\..\..\..\..\..\Software\uCOS-III\Source/os_tick.c **** #if (OS_CFG_DBG_EN == DEF_ENABLED)
 786              		.loc 1 453 0
 787 009a 7B68     		ldr	r3, [r7, #4]
 788 009c 0022     		movs	r2, #0
 789 009e DA61     		str	r2, [r3, #28]
 455:..\..\..\..\..\..\Software\uCOS-III\Source/os_tick.c **** #endif
 790              		.loc 1 455 0
 791 00a0 7B69     		ldr	r3, [r7, #20]
 792 00a2 9B88     		ldrh	r3, [r3, #4]
 793 00a4 013B     		subs	r3, r3, #1
 794 00a6 9AB2     		uxth	r2, r3
 795 00a8 7B69     		ldr	r3, [r7, #20]
 796 00aa 9A80     		strh	r2, [r3, #4]
 457:..\..\..\..\..\..\Software\uCOS-III\Source/os_tick.c ****         p_tcb->TickRemain   = 0u;
 797              		.loc 1 457 0
 798 00ac 7B68     		ldr	r3, [r7, #4]
 799 00ae 0022     		movs	r2, #0
 800 00b0 9A61     		str	r2, [r3, #24]
 458:..\..\..\..\..\..\Software\uCOS-III\Source/os_tick.c ****         p_tcb->TickListPtr  = DEF_NULL;
 801              		.loc 1 458 0
 802 00b2 7B68     		ldr	r3, [r7, #4]
 803 00b4 0022     		movs	r2, #0
 804 00b6 1A65     		str	r2, [r3, #80]
 459:..\..\..\..\..\..\Software\uCOS-III\Source/os_tick.c ****     }
 805              		.loc 1 459 0
 806 00b8 7B68     		ldr	r3, [r7, #4]
 807 00ba 0022     		movs	r2, #0
 808 00bc 1A62     		str	r2, [r3, #32]
 809              	.L40:
 810              		.loc 1 461 0
 811 00be C046     		nop
 812 00c0 BD46     		mov	sp, r7
 813 00c2 06B0     		add	sp, sp, #24
 814              		@ sp needed
 815 00c4 80BD     		pop	{r7, pc}
 816              		.cfi_endproc
 817              	.LFE4:
 818              		.size	OS_TickListRemove, .-OS_TickListRemove
 819 00c6 C046     		.section	.text.OS_TickListUpdateDly,"ax",%progbits
 820              		.align	2
ARM GAS  C:\Users\ADMINI~1\AppData\Local\Temp\cc8eYrCa.s 			page 24


 821              		.code	16
 822              		.thumb_func
 823              		.type	OS_TickListUpdateDly, %function
 824              	OS_TickListUpdateDly:
 825              	.LFB5:
 462:..\..\..\..\..\..\Software\uCOS-III\Source/os_tick.c **** 
 463:..\..\..\..\..\..\Software\uCOS-III\Source/os_tick.c **** /*
 464:..\..\..\..\..\..\Software\uCOS-III\Source/os_tick.c **** ***************************************************************************************************
 465:..\..\..\..\..\..\Software\uCOS-III\Source/os_tick.c **** *                                           UPDATE THE LIST OF TASKS DELAYED
 466:..\..\..\..\..\..\Software\uCOS-III\Source/os_tick.c **** *
 467:..\..\..\..\..\..\Software\uCOS-III\Source/os_tick.c **** * Description: This function updates the delta list which contains tasks that have been delayed.
 468:..\..\..\..\..\..\Software\uCOS-III\Source/os_tick.c **** *
 469:..\..\..\..\..\..\Software\uCOS-III\Source/os_tick.c **** * Arguments  : non
 470:..\..\..\..\..\..\Software\uCOS-III\Source/os_tick.c **** *
 471:..\..\..\..\..\..\Software\uCOS-III\Source/os_tick.c **** * Returns    : none
 472:..\..\..\..\..\..\Software\uCOS-III\Source/os_tick.c **** *
 473:..\..\..\..\..\..\Software\uCOS-III\Source/os_tick.c **** * Note(s)    : 1) This function is INTERNAL to uC/OS-III and your application MUST NOT call it.
 474:..\..\..\..\..\..\Software\uCOS-III\Source/os_tick.c **** ***************************************************************************************************
 475:..\..\..\..\..\..\Software\uCOS-III\Source/os_tick.c **** */
 476:..\..\..\..\..\..\Software\uCOS-III\Source/os_tick.c **** 
 477:..\..\..\..\..\..\Software\uCOS-III\Source/os_tick.c **** static  CPU_TS  OS_TickListUpdateDly (OS_TICK ticks)
 478:..\..\..\..\..\..\Software\uCOS-III\Source/os_tick.c **** {
 826              		.loc 1 478 0
 827              		.cfi_startproc
 828              		@ args = 0, pretend = 0, frame = 32
 829              		@ frame_needed = 1, uses_anonymous_args = 0
 830 0000 80B5     		push	{r7, lr}
 831              		.cfi_def_cfa_offset 8
 832              		.cfi_offset 7, -8
 833              		.cfi_offset 14, -4
 834 0002 88B0     		sub	sp, sp, #32
 835              		.cfi_def_cfa_offset 40
 836 0004 00AF     		add	r7, sp, #0
 837              		.cfi_def_cfa_register 7
 838 0006 7860     		str	r0, [r7, #4]
 479:..\..\..\..\..\..\Software\uCOS-III\Source/os_tick.c ****     OS_TCB       *p_tcb;
 480:..\..\..\..\..\..\Software\uCOS-III\Source/os_tick.c ****     OS_TICK_LIST *p_list;
 481:..\..\..\..\..\..\Software\uCOS-III\Source/os_tick.c **** #if (OS_CFG_TS_EN == DEF_ENABLED)
 482:..\..\..\..\..\..\Software\uCOS-III\Source/os_tick.c ****     CPU_TS        ts_start;
 483:..\..\..\..\..\..\Software\uCOS-III\Source/os_tick.c ****     CPU_TS        ts_delta_dly;
 484:..\..\..\..\..\..\Software\uCOS-III\Source/os_tick.c **** #endif
 485:..\..\..\..\..\..\Software\uCOS-III\Source/os_tick.c **** #if (OS_CFG_DBG_EN == DEF_ENABLED)
 486:..\..\..\..\..\..\Software\uCOS-III\Source/os_tick.c ****     OS_OBJ_QTY    nbr_updated;
 487:..\..\..\..\..\..\Software\uCOS-III\Source/os_tick.c **** #endif
 488:..\..\..\..\..\..\Software\uCOS-III\Source/os_tick.c ****                                                                         
 489:..\..\..\..\..\..\Software\uCOS-III\Source/os_tick.c ****                                                                 /*  ========= UPDATE TASKS WAITING 
 490:..\..\..\..\..\..\Software\uCOS-III\Source/os_tick.c **** #if (OS_CFG_TS_EN == DEF_ENABLED)
 491:..\..\..\..\..\..\Software\uCOS-III\Source/os_tick.c ****     ts_start    = OS_TS_GET();
 839              		.loc 1 491 0
 840 0008 FFF7FEFF 		bl	CPU_TS_TmrRd
 841 000c 0300     		movs	r3, r0
 842 000e 7B61     		str	r3, [r7, #20]
 492:..\..\..\..\..\..\Software\uCOS-III\Source/os_tick.c **** #endif
 493:..\..\..\..\..\..\Software\uCOS-III\Source/os_tick.c **** #if (OS_CFG_DBG_EN == DEF_ENABLED)
 494:..\..\..\..\..\..\Software\uCOS-III\Source/os_tick.c ****     nbr_updated = (OS_OBJ_QTY)0u;
 843              		.loc 1 494 0
 844 0010 1A23     		movs	r3, #26
ARM GAS  C:\Users\ADMINI~1\AppData\Local\Temp\cc8eYrCa.s 			page 25


 845 0012 FB18     		adds	r3, r7, r3
 846 0014 0022     		movs	r2, #0
 847 0016 1A80     		strh	r2, [r3]
 495:..\..\..\..\..\..\Software\uCOS-III\Source/os_tick.c **** #endif
 496:..\..\..\..\..\..\Software\uCOS-III\Source/os_tick.c ****     p_list      = &OSTickListDly;
 848              		.loc 1 496 0
 849 0018 3C4B     		ldr	r3, .L52
 850 001a 3B61     		str	r3, [r7, #16]
 497:..\..\..\..\..\..\Software\uCOS-III\Source/os_tick.c ****     p_tcb       = p_list->TCB_Ptr;                                      
 851              		.loc 1 497 0
 852 001c 3B69     		ldr	r3, [r7, #16]
 853 001e 1B68     		ldr	r3, [r3]
 854 0020 FB61     		str	r3, [r7, #28]
 498:..\..\..\..\..\..\Software\uCOS-III\Source/os_tick.c ****     if (p_tcb != DEF_NULL) {
 855              		.loc 1 498 0
 856 0022 FB69     		ldr	r3, [r7, #28]
 857 0024 002B     		cmp	r3, #0
 858 0026 61D0     		beq	.L42
 499:..\..\..\..\..\..\Software\uCOS-III\Source/os_tick.c ****         if (p_tcb->TickRemain <= ticks) {
 859              		.loc 1 499 0
 860 0028 FB69     		ldr	r3, [r7, #28]
 861 002a 1A6D     		ldr	r2, [r3, #80]
 862 002c 7B68     		ldr	r3, [r7, #4]
 863 002e 9A42     		cmp	r2, r3
 864 0030 08D8     		bhi	.L43
 500:..\..\..\..\..\..\Software\uCOS-III\Source/os_tick.c ****             ticks = ticks - p_tcb->TickRemain;
 865              		.loc 1 500 0
 866 0032 FB69     		ldr	r3, [r7, #28]
 867 0034 1B6D     		ldr	r3, [r3, #80]
 868 0036 7A68     		ldr	r2, [r7, #4]
 869 0038 D31A     		subs	r3, r2, r3
 870 003a 7B60     		str	r3, [r7, #4]
 501:..\..\..\..\..\..\Software\uCOS-III\Source/os_tick.c ****             p_tcb->TickRemain = 0u;
 871              		.loc 1 501 0
 872 003c FB69     		ldr	r3, [r7, #28]
 873 003e 0022     		movs	r2, #0
 874 0040 1A65     		str	r2, [r3, #80]
 875 0042 4FE0     		b	.L45
 876              	.L43:
 502:..\..\..\..\..\..\Software\uCOS-III\Source/os_tick.c ****         } else {
 503:..\..\..\..\..\..\Software\uCOS-III\Source/os_tick.c ****             p_tcb->TickRemain -= ticks;
 877              		.loc 1 503 0
 878 0044 FB69     		ldr	r3, [r7, #28]
 879 0046 1A6D     		ldr	r2, [r3, #80]
 880 0048 7B68     		ldr	r3, [r7, #4]
 881 004a D21A     		subs	r2, r2, r3
 882 004c FB69     		ldr	r3, [r7, #28]
 883 004e 1A65     		str	r2, [r3, #80]
 504:..\..\..\..\..\..\Software\uCOS-III\Source/os_tick.c ****         }
 505:..\..\..\..\..\..\Software\uCOS-III\Source/os_tick.c **** 
 506:..\..\..\..\..\..\Software\uCOS-III\Source/os_tick.c ****         while (p_tcb->TickRemain == 0u) {
 884              		.loc 1 506 0
 885 0050 48E0     		b	.L45
 886              	.L50:
 507:..\..\..\..\..\..\Software\uCOS-III\Source/os_tick.c **** #if (OS_CFG_DBG_EN == DEF_ENABLED)
 508:..\..\..\..\..\..\Software\uCOS-III\Source/os_tick.c ****             nbr_updated++;                                      /* Keep track of the number of TCBs
 887              		.loc 1 508 0
ARM GAS  C:\Users\ADMINI~1\AppData\Local\Temp\cc8eYrCa.s 			page 26


 888 0052 1A23     		movs	r3, #26
 889 0054 FB18     		adds	r3, r7, r3
 890 0056 1A88     		ldrh	r2, [r3]
 891 0058 1A23     		movs	r3, #26
 892 005a FB18     		adds	r3, r7, r3
 893 005c 0132     		adds	r2, r2, #1
 894 005e 1A80     		strh	r2, [r3]
 509:..\..\..\..\..\..\Software\uCOS-III\Source/os_tick.c **** #endif
 510:..\..\..\..\..\..\Software\uCOS-III\Source/os_tick.c ****             if (p_tcb->TaskState == OS_TASK_STATE_DLY) {
 895              		.loc 1 510 0
 896 0060 FB69     		ldr	r3, [r7, #28]
 897 0062 3622     		movs	r2, #54
 898 0064 9B5C     		ldrb	r3, [r3, r2]
 899 0066 012B     		cmp	r3, #1
 900 0068 08D1     		bne	.L46
 511:..\..\..\..\..\..\Software\uCOS-III\Source/os_tick.c ****                 p_tcb->TaskState = OS_TASK_STATE_RDY;
 901              		.loc 1 511 0
 902 006a FB69     		ldr	r3, [r7, #28]
 903 006c 3622     		movs	r2, #54
 904 006e 0021     		movs	r1, #0
 905 0070 9954     		strb	r1, [r3, r2]
 512:..\..\..\..\..\..\Software\uCOS-III\Source/os_tick.c ****                 OS_RdyListInsert(p_tcb);                        /* Insert the task in the ready lis
 906              		.loc 1 512 0
 907 0072 FB69     		ldr	r3, [r7, #28]
 908 0074 1800     		movs	r0, r3
 909 0076 FFF7FEFF 		bl	OS_RdyListInsert
 910 007a 08E0     		b	.L47
 911              	.L46:
 513:..\..\..\..\..\..\Software\uCOS-III\Source/os_tick.c ****             } else if (p_tcb->TaskState == OS_TASK_STATE_DLY_SUSPENDED) {
 912              		.loc 1 513 0
 913 007c FB69     		ldr	r3, [r7, #28]
 914 007e 3622     		movs	r2, #54
 915 0080 9B5C     		ldrb	r3, [r3, r2]
 916 0082 052B     		cmp	r3, #5
 917 0084 03D1     		bne	.L47
 514:..\..\..\..\..\..\Software\uCOS-III\Source/os_tick.c ****                 p_tcb->TaskState = OS_TASK_STATE_SUSPENDED;
 918              		.loc 1 514 0
 919 0086 FB69     		ldr	r3, [r7, #28]
 920 0088 3622     		movs	r2, #54
 921 008a 0421     		movs	r1, #4
 922 008c 9954     		strb	r1, [r3, r2]
 923              	.L47:
 515:..\..\..\..\..\..\Software\uCOS-III\Source/os_tick.c ****             }
 516:..\..\..\..\..\..\Software\uCOS-III\Source/os_tick.c **** 
 517:..\..\..\..\..\..\Software\uCOS-III\Source/os_tick.c ****             p_list->TCB_Ptr = p_tcb->TickNextPtr;
 924              		.loc 1 517 0
 925 008e FB69     		ldr	r3, [r7, #28]
 926 0090 9A69     		ldr	r2, [r3, #24]
 927 0092 3B69     		ldr	r3, [r7, #16]
 928 0094 1A60     		str	r2, [r3]
 518:..\..\..\..\..\..\Software\uCOS-III\Source/os_tick.c ****             p_tcb           = p_list->TCB_Ptr;                  /* Get 'p_tcb' again for loop      
 929              		.loc 1 518 0
 930 0096 3B69     		ldr	r3, [r7, #16]
 931 0098 1B68     		ldr	r3, [r3]
 932 009a FB61     		str	r3, [r7, #28]
 519:..\..\..\..\..\..\Software\uCOS-III\Source/os_tick.c ****             if (p_tcb == DEF_NULL) {
 933              		.loc 1 519 0
ARM GAS  C:\Users\ADMINI~1\AppData\Local\Temp\cc8eYrCa.s 			page 27


 934 009c FB69     		ldr	r3, [r7, #28]
 935 009e 002B     		cmp	r3, #0
 936 00a0 03D1     		bne	.L48
 520:..\..\..\..\..\..\Software\uCOS-III\Source/os_tick.c **** #if (OS_CFG_DBG_EN == DEF_ENABLED)
 521:..\..\..\..\..\..\Software\uCOS-III\Source/os_tick.c ****                 p_list->NbrEntries = 0u;
 937              		.loc 1 521 0
 938 00a2 3B69     		ldr	r3, [r7, #16]
 939 00a4 0022     		movs	r2, #0
 940 00a6 9A80     		strh	r2, [r3, #4]
 522:..\..\..\..\..\..\Software\uCOS-III\Source/os_tick.c **** #endif
 523:..\..\..\..\..\..\Software\uCOS-III\Source/os_tick.c ****                 break;
 941              		.loc 1 523 0
 942 00a8 20E0     		b	.L42
 943              	.L48:
 524:..\..\..\..\..\..\Software\uCOS-III\Source/os_tick.c ****             } else {
 525:..\..\..\..\..\..\Software\uCOS-III\Source/os_tick.c **** #if (OS_CFG_DBG_EN == DEF_ENABLED)
 526:..\..\..\..\..\..\Software\uCOS-III\Source/os_tick.c ****                 p_list->NbrEntries--;
 944              		.loc 1 526 0
 945 00aa 3B69     		ldr	r3, [r7, #16]
 946 00ac 9B88     		ldrh	r3, [r3, #4]
 947 00ae 013B     		subs	r3, r3, #1
 948 00b0 9AB2     		uxth	r2, r3
 949 00b2 3B69     		ldr	r3, [r7, #16]
 950 00b4 9A80     		strh	r2, [r3, #4]
 527:..\..\..\..\..\..\Software\uCOS-III\Source/os_tick.c **** #endif
 528:..\..\..\..\..\..\Software\uCOS-III\Source/os_tick.c ****                 p_tcb->TickPrevPtr = DEF_NULL;
 951              		.loc 1 528 0
 952 00b6 FB69     		ldr	r3, [r7, #28]
 953 00b8 0022     		movs	r2, #0
 954 00ba DA61     		str	r2, [r3, #28]
 529:..\..\..\..\..\..\Software\uCOS-III\Source/os_tick.c ****             }
 530:..\..\..\..\..\..\Software\uCOS-III\Source/os_tick.c **** 
 531:..\..\..\..\..\..\Software\uCOS-III\Source/os_tick.c ****             if (p_tcb->TickRemain <= ticks) {
 955              		.loc 1 531 0
 956 00bc FB69     		ldr	r3, [r7, #28]
 957 00be 1A6D     		ldr	r2, [r3, #80]
 958 00c0 7B68     		ldr	r3, [r7, #4]
 959 00c2 9A42     		cmp	r2, r3
 960 00c4 08D8     		bhi	.L49
 532:..\..\..\..\..\..\Software\uCOS-III\Source/os_tick.c ****                 ticks = ticks - p_tcb->TickRemain;
 961              		.loc 1 532 0
 962 00c6 FB69     		ldr	r3, [r7, #28]
 963 00c8 1B6D     		ldr	r3, [r3, #80]
 964 00ca 7A68     		ldr	r2, [r7, #4]
 965 00cc D31A     		subs	r3, r2, r3
 966 00ce 7B60     		str	r3, [r7, #4]
 533:..\..\..\..\..\..\Software\uCOS-III\Source/os_tick.c ****                 p_tcb->TickRemain = 0u;
 967              		.loc 1 533 0
 968 00d0 FB69     		ldr	r3, [r7, #28]
 969 00d2 0022     		movs	r2, #0
 970 00d4 1A65     		str	r2, [r3, #80]
 971 00d6 05E0     		b	.L45
 972              	.L49:
 534:..\..\..\..\..\..\Software\uCOS-III\Source/os_tick.c ****             } else {
 535:..\..\..\..\..\..\Software\uCOS-III\Source/os_tick.c ****                 p_tcb->TickRemain -= ticks;
 973              		.loc 1 535 0
 974 00d8 FB69     		ldr	r3, [r7, #28]
ARM GAS  C:\Users\ADMINI~1\AppData\Local\Temp\cc8eYrCa.s 			page 28


 975 00da 1A6D     		ldr	r2, [r3, #80]
 976 00dc 7B68     		ldr	r3, [r7, #4]
 977 00de D21A     		subs	r2, r2, r3
 978 00e0 FB69     		ldr	r3, [r7, #28]
 979 00e2 1A65     		str	r2, [r3, #80]
 980              	.L45:
 506:..\..\..\..\..\..\Software\uCOS-III\Source/os_tick.c **** #if (OS_CFG_DBG_EN == DEF_ENABLED)
 981              		.loc 1 506 0
 982 00e4 FB69     		ldr	r3, [r7, #28]
 983 00e6 1B6D     		ldr	r3, [r3, #80]
 984 00e8 002B     		cmp	r3, #0
 985 00ea B2D0     		beq	.L50
 986              	.L42:
 536:..\..\..\..\..\..\Software\uCOS-III\Source/os_tick.c ****             }
 537:..\..\..\..\..\..\Software\uCOS-III\Source/os_tick.c ****         }
 538:..\..\..\..\..\..\Software\uCOS-III\Source/os_tick.c ****     }
 539:..\..\..\..\..\..\Software\uCOS-III\Source/os_tick.c **** #if (OS_CFG_DBG_EN == DEF_ENABLED)
 540:..\..\..\..\..\..\Software\uCOS-III\Source/os_tick.c ****     p_list->NbrUpdated = nbr_updated;
 987              		.loc 1 540 0
 988 00ec 3B69     		ldr	r3, [r7, #16]
 989 00ee 1A22     		movs	r2, #26
 990 00f0 BA18     		adds	r2, r7, r2
 991 00f2 1288     		ldrh	r2, [r2]
 992 00f4 DA80     		strh	r2, [r3, #6]
 541:..\..\..\..\..\..\Software\uCOS-III\Source/os_tick.c **** #endif
 542:..\..\..\..\..\..\Software\uCOS-III\Source/os_tick.c **** #if (OS_CFG_TS_EN == DEF_ENABLED)
 543:..\..\..\..\..\..\Software\uCOS-III\Source/os_tick.c ****     ts_delta_dly       = OS_TS_GET() - ts_start;                /* Measure execution time of the up
 993              		.loc 1 543 0
 994 00f6 FFF7FEFF 		bl	CPU_TS_TmrRd
 995 00fa 0200     		movs	r2, r0
 996 00fc 7B69     		ldr	r3, [r7, #20]
 997 00fe D31A     		subs	r3, r2, r3
 998 0100 FB60     		str	r3, [r7, #12]
 544:..\..\..\..\..\..\Software\uCOS-III\Source/os_tick.c **** #endif
 545:..\..\..\..\..\..\Software\uCOS-III\Source/os_tick.c **** 
 546:..\..\..\..\..\..\Software\uCOS-III\Source/os_tick.c **** #if (OS_CFG_TS_EN == DEF_ENABLED)
 547:..\..\..\..\..\..\Software\uCOS-III\Source/os_tick.c ****     return (ts_delta_dly);
 999              		.loc 1 547 0
 1000 0102 FB68     		ldr	r3, [r7, #12]
 548:..\..\..\..\..\..\Software\uCOS-III\Source/os_tick.c **** #else
 549:..\..\..\..\..\..\Software\uCOS-III\Source/os_tick.c ****     return (0u);
 550:..\..\..\..\..\..\Software\uCOS-III\Source/os_tick.c **** #endif
 551:..\..\..\..\..\..\Software\uCOS-III\Source/os_tick.c **** }
 1001              		.loc 1 551 0
 1002 0104 1800     		movs	r0, r3
 1003 0106 BD46     		mov	sp, r7
 1004 0108 08B0     		add	sp, sp, #32
 1005              		@ sp needed
 1006 010a 80BD     		pop	{r7, pc}
 1007              	.L53:
 1008              		.align	2
 1009              	.L52:
 1010 010c 00000000 		.word	OSTickListDly
 1011              		.cfi_endproc
 1012              	.LFE5:
 1013              		.size	OS_TickListUpdateDly, .-OS_TickListUpdateDly
 1014              		.section	.text.OS_TickListUpdateTimeout,"ax",%progbits
ARM GAS  C:\Users\ADMINI~1\AppData\Local\Temp\cc8eYrCa.s 			page 29


 1015              		.align	2
 1016              		.code	16
 1017              		.thumb_func
 1018              		.type	OS_TickListUpdateTimeout, %function
 1019              	OS_TickListUpdateTimeout:
 1020              	.LFB6:
 552:..\..\..\..\..\..\Software\uCOS-III\Source/os_tick.c **** 
 553:..\..\..\..\..\..\Software\uCOS-III\Source/os_tick.c **** 
 554:..\..\..\..\..\..\Software\uCOS-III\Source/os_tick.c **** /*
 555:..\..\..\..\..\..\Software\uCOS-III\Source/os_tick.c **** ***************************************************************************************************
 556:..\..\..\..\..\..\Software\uCOS-III\Source/os_tick.c **** *                                       UPDATE THE LIST OF TASKS PENDING WITH TIMEOUT
 557:..\..\..\..\..\..\Software\uCOS-III\Source/os_tick.c **** *
 558:..\..\..\..\..\..\Software\uCOS-III\Source/os_tick.c **** * Description: This function updales the delta list which contains tasks that are pending with a ti
 559:..\..\..\..\..\..\Software\uCOS-III\Source/os_tick.c **** *
 560:..\..\..\..\..\..\Software\uCOS-III\Source/os_tick.c **** * Arguments  : non
 561:..\..\..\..\..\..\Software\uCOS-III\Source/os_tick.c **** *
 562:..\..\..\..\..\..\Software\uCOS-III\Source/os_tick.c **** * Returns    : none
 563:..\..\..\..\..\..\Software\uCOS-III\Source/os_tick.c **** *
 564:..\..\..\..\..\..\Software\uCOS-III\Source/os_tick.c **** * Note(s)    : 1) This function is INTERNAL to uC/OS-III and your application MUST NOT call it.
 565:..\..\..\..\..\..\Software\uCOS-III\Source/os_tick.c **** ***************************************************************************************************
 566:..\..\..\..\..\..\Software\uCOS-III\Source/os_tick.c **** */
 567:..\..\..\..\..\..\Software\uCOS-III\Source/os_tick.c **** 
 568:..\..\..\..\..\..\Software\uCOS-III\Source/os_tick.c **** static  CPU_TS  OS_TickListUpdateTimeout (OS_TICK ticks)
 569:..\..\..\..\..\..\Software\uCOS-III\Source/os_tick.c **** {
 1021              		.loc 1 569 0
 1022              		.cfi_startproc
 1023              		@ args = 0, pretend = 0, frame = 40
 1024              		@ frame_needed = 1, uses_anonymous_args = 0
 1025 0000 90B5     		push	{r4, r7, lr}
 1026              		.cfi_def_cfa_offset 12
 1027              		.cfi_offset 4, -12
 1028              		.cfi_offset 7, -8
 1029              		.cfi_offset 14, -4
 1030 0002 8BB0     		sub	sp, sp, #44
 1031              		.cfi_def_cfa_offset 56
 1032 0004 00AF     		add	r7, sp, #0
 1033              		.cfi_def_cfa_register 7
 1034 0006 7860     		str	r0, [r7, #4]
 570:..\..\..\..\..\..\Software\uCOS-III\Source/os_tick.c ****     OS_TCB       *p_tcb;
 571:..\..\..\..\..\..\Software\uCOS-III\Source/os_tick.c ****     OS_TICK_LIST *p_list;
 572:..\..\..\..\..\..\Software\uCOS-III\Source/os_tick.c **** #if (OS_CFG_TS_EN == DEF_ENABLED)
 573:..\..\..\..\..\..\Software\uCOS-III\Source/os_tick.c ****     CPU_TS        ts_start;
 574:..\..\..\..\..\..\Software\uCOS-III\Source/os_tick.c ****     CPU_TS        ts_delta_timeout;
 575:..\..\..\..\..\..\Software\uCOS-III\Source/os_tick.c **** #endif
 576:..\..\..\..\..\..\Software\uCOS-III\Source/os_tick.c **** #if (OS_CFG_DBG_EN == DEF_ENABLED)
 577:..\..\..\..\..\..\Software\uCOS-III\Source/os_tick.c ****     OS_OBJ_QTY    nbr_updated;
 578:..\..\..\..\..\..\Software\uCOS-III\Source/os_tick.c **** #endif
 579:..\..\..\..\..\..\Software\uCOS-III\Source/os_tick.c **** #if (OS_CFG_MUTEX_EN == DEF_ENABLED)
 580:..\..\..\..\..\..\Software\uCOS-III\Source/os_tick.c ****     OS_TCB       *p_tcb_owner;
 581:..\..\..\..\..\..\Software\uCOS-III\Source/os_tick.c ****     OS_PRIO       prio_new;
 582:..\..\..\..\..\..\Software\uCOS-III\Source/os_tick.c **** #endif
 583:..\..\..\..\..\..\Software\uCOS-III\Source/os_tick.c **** 
 584:..\..\..\..\..\..\Software\uCOS-III\Source/os_tick.c ****                                                                 /*  ======= UPDATE TASKS WAITING WI
 585:..\..\..\..\..\..\Software\uCOS-III\Source/os_tick.c **** #if (OS_CFG_TS_EN == DEF_ENABLED)
 586:..\..\..\..\..\..\Software\uCOS-III\Source/os_tick.c ****     ts_start    = OS_TS_GET();
 1035              		.loc 1 586 0
 1036 0008 FFF7FEFF 		bl	CPU_TS_TmrRd
ARM GAS  C:\Users\ADMINI~1\AppData\Local\Temp\cc8eYrCa.s 			page 30


 1037 000c 0300     		movs	r3, r0
 1038 000e BB61     		str	r3, [r7, #24]
 587:..\..\..\..\..\..\Software\uCOS-III\Source/os_tick.c **** #endif
 588:..\..\..\..\..\..\Software\uCOS-III\Source/os_tick.c **** #if (OS_CFG_DBG_EN == DEF_ENABLED)
 589:..\..\..\..\..\..\Software\uCOS-III\Source/os_tick.c ****     nbr_updated = 0u;
 1039              		.loc 1 589 0
 1040 0010 2223     		movs	r3, #34
 1041 0012 FB18     		adds	r3, r7, r3
 1042 0014 0022     		movs	r2, #0
 1043 0016 1A80     		strh	r2, [r3]
 590:..\..\..\..\..\..\Software\uCOS-III\Source/os_tick.c **** #endif
 591:..\..\..\..\..\..\Software\uCOS-III\Source/os_tick.c ****     p_list      = &OSTickListTimeout;
 1044              		.loc 1 591 0
 1045 0018 6C4B     		ldr	r3, .L68
 1046 001a 7B61     		str	r3, [r7, #20]
 592:..\..\..\..\..\..\Software\uCOS-III\Source/os_tick.c ****     p_tcb       = p_list->TCB_Ptr;                                  
 1047              		.loc 1 592 0
 1048 001c 7B69     		ldr	r3, [r7, #20]
 1049 001e 1B68     		ldr	r3, [r3]
 1050 0020 7B62     		str	r3, [r7, #36]
 593:..\..\..\..\..\..\Software\uCOS-III\Source/os_tick.c ****     if (p_tcb != DEF_NULL) {
 1051              		.loc 1 593 0
 1052 0022 7B6A     		ldr	r3, [r7, #36]
 1053 0024 002B     		cmp	r3, #0
 1054 0026 00D1     		bne	.LCB882
 1055 0028 C0E0     		b	.L55	@long jump
 1056              	.LCB882:
 594:..\..\..\..\..\..\Software\uCOS-III\Source/os_tick.c **** #if 0
 595:..\..\..\..\..\..\Software\uCOS-III\Source/os_tick.c ****         p_tcb->TickRemain--;
 596:..\..\..\..\..\..\Software\uCOS-III\Source/os_tick.c **** #else
 597:..\..\..\..\..\..\Software\uCOS-III\Source/os_tick.c ****         if (p_tcb->TickRemain <= ticks) {
 1057              		.loc 1 597 0
 1058 002a 7B6A     		ldr	r3, [r7, #36]
 1059 002c 1A6D     		ldr	r2, [r3, #80]
 1060 002e 7B68     		ldr	r3, [r7, #4]
 1061 0030 9A42     		cmp	r2, r3
 1062 0032 08D8     		bhi	.L56
 598:..\..\..\..\..\..\Software\uCOS-III\Source/os_tick.c ****             ticks = ticks - p_tcb->TickRemain;
 1063              		.loc 1 598 0
 1064 0034 7B6A     		ldr	r3, [r7, #36]
 1065 0036 1B6D     		ldr	r3, [r3, #80]
 1066 0038 7A68     		ldr	r2, [r7, #4]
 1067 003a D31A     		subs	r3, r2, r3
 1068 003c 7B60     		str	r3, [r7, #4]
 599:..\..\..\..\..\..\Software\uCOS-III\Source/os_tick.c ****             p_tcb->TickRemain = 0u;
 1069              		.loc 1 599 0
 1070 003e 7B6A     		ldr	r3, [r7, #36]
 1071 0040 0022     		movs	r2, #0
 1072 0042 1A65     		str	r2, [r3, #80]
 1073 0044 ADE0     		b	.L58
 1074              	.L56:
 600:..\..\..\..\..\..\Software\uCOS-III\Source/os_tick.c ****         } else {
 601:..\..\..\..\..\..\Software\uCOS-III\Source/os_tick.c ****             p_tcb->TickRemain -= ticks;
 1075              		.loc 1 601 0
 1076 0046 7B6A     		ldr	r3, [r7, #36]
 1077 0048 1A6D     		ldr	r2, [r3, #80]
 1078 004a 7B68     		ldr	r3, [r7, #4]
ARM GAS  C:\Users\ADMINI~1\AppData\Local\Temp\cc8eYrCa.s 			page 31


 1079 004c D21A     		subs	r2, r2, r3
 1080 004e 7B6A     		ldr	r3, [r7, #36]
 1081 0050 1A65     		str	r2, [r3, #80]
 602:..\..\..\..\..\..\Software\uCOS-III\Source/os_tick.c ****         }
 603:..\..\..\..\..\..\Software\uCOS-III\Source/os_tick.c **** #endif
 604:..\..\..\..\..\..\Software\uCOS-III\Source/os_tick.c ****         while (p_tcb->TickRemain == 0u) {
 1082              		.loc 1 604 0
 1083 0052 A6E0     		b	.L58
 1084              	.L66:
 605:..\..\..\..\..\..\Software\uCOS-III\Source/os_tick.c **** #if (OS_CFG_DBG_EN == DEF_ENABLED)
 606:..\..\..\..\..\..\Software\uCOS-III\Source/os_tick.c ****             nbr_updated++;
 1085              		.loc 1 606 0
 1086 0054 2223     		movs	r3, #34
 1087 0056 FB18     		adds	r3, r7, r3
 1088 0058 1A88     		ldrh	r2, [r3]
 1089 005a 2223     		movs	r3, #34
 1090 005c FB18     		adds	r3, r7, r3
 1091 005e 0132     		adds	r2, r2, #1
 1092 0060 1A80     		strh	r2, [r3]
 607:..\..\..\..\..\..\Software\uCOS-III\Source/os_tick.c **** #endif
 608:..\..\..\..\..\..\Software\uCOS-III\Source/os_tick.c **** 
 609:..\..\..\..\..\..\Software\uCOS-III\Source/os_tick.c **** #if (OS_CFG_MUTEX_EN == DEF_ENABLED)
 610:..\..\..\..\..\..\Software\uCOS-III\Source/os_tick.c ****             p_tcb_owner = DEF_NULL;
 1093              		.loc 1 610 0
 1094 0062 0023     		movs	r3, #0
 1095 0064 FB61     		str	r3, [r7, #28]
 611:..\..\..\..\..\..\Software\uCOS-III\Source/os_tick.c ****             if (p_tcb->PendOn == OS_TASK_PEND_ON_MUTEX) {
 1096              		.loc 1 611 0
 1097 0066 7B6A     		ldr	r3, [r7, #36]
 1098 0068 3422     		movs	r2, #52
 1099 006a 9B5C     		ldrb	r3, [r3, r2]
 1100 006c 042B     		cmp	r3, #4
 1101 006e 04D1     		bne	.L59
 612:..\..\..\..\..\..\Software\uCOS-III\Source/os_tick.c ****                 p_tcb_owner = ((OS_MUTEX *)p_tcb->PendDataTblPtr->PendObjPtr)->OwnerTCBPtr;
 1102              		.loc 1 612 0
 1103 0070 7B6A     		ldr	r3, [r7, #36]
 1104 0072 1B6B     		ldr	r3, [r3, #48]
 1105 0074 DB68     		ldr	r3, [r3, #12]
 1106 0076 5B6A     		ldr	r3, [r3, #36]
 1107 0078 FB61     		str	r3, [r7, #28]
 1108              	.L59:
 613:..\..\..\..\..\..\Software\uCOS-III\Source/os_tick.c ****             }
 614:..\..\..\..\..\..\Software\uCOS-III\Source/os_tick.c **** #endif
 615:..\..\..\..\..\..\Software\uCOS-III\Source/os_tick.c **** 
 616:..\..\..\..\..\..\Software\uCOS-III\Source/os_tick.c **** #if (OS_MSG_EN == DEF_ENABLED)
 617:..\..\..\..\..\..\Software\uCOS-III\Source/os_tick.c ****             p_tcb->MsgPtr  = DEF_NULL;
 1109              		.loc 1 617 0
 1110 007a 7B6A     		ldr	r3, [r7, #36]
 1111 007c 0022     		movs	r2, #0
 1112 007e 9A65     		str	r2, [r3, #88]
 618:..\..\..\..\..\..\Software\uCOS-III\Source/os_tick.c ****             p_tcb->MsgSize = 0u;
 1113              		.loc 1 618 0
 1114 0080 7B6A     		ldr	r3, [r7, #36]
 1115 0082 5C22     		movs	r2, #92
 1116 0084 0021     		movs	r1, #0
 1117 0086 9952     		strh	r1, [r3, r2]
 619:..\..\..\..\..\..\Software\uCOS-III\Source/os_tick.c **** #endif
ARM GAS  C:\Users\ADMINI~1\AppData\Local\Temp\cc8eYrCa.s 			page 32


 620:..\..\..\..\..\..\Software\uCOS-III\Source/os_tick.c **** #if (OS_CFG_TS_EN == DEF_ENABLED)
 621:..\..\..\..\..\..\Software\uCOS-III\Source/os_tick.c ****             p_tcb->TS      = OS_TS_GET();
 1118              		.loc 1 621 0
 1119 0088 FFF7FEFF 		bl	CPU_TS_TmrRd
 1120 008c 0200     		movs	r2, r0
 1121 008e 7B6A     		ldr	r3, [r7, #36]
 1122 0090 9A64     		str	r2, [r3, #72]
 622:..\..\..\..\..\..\Software\uCOS-III\Source/os_tick.c **** #endif
 623:..\..\..\..\..\..\Software\uCOS-III\Source/os_tick.c ****             OS_PendListRemove(p_tcb);                           /* Remove from wait list           
 1123              		.loc 1 623 0
 1124 0092 7B6A     		ldr	r3, [r7, #36]
 1125 0094 1800     		movs	r0, r3
 1126 0096 FFF7FEFF 		bl	OS_PendListRemove
 624:..\..\..\..\..\..\Software\uCOS-III\Source/os_tick.c ****             if (p_tcb->TaskState == OS_TASK_STATE_PEND_TIMEOUT) {
 1127              		.loc 1 624 0
 1128 009a 7B6A     		ldr	r3, [r7, #36]
 1129 009c 3622     		movs	r2, #54
 1130 009e 9B5C     		ldrb	r3, [r3, r2]
 1131 00a0 032B     		cmp	r3, #3
 1132 00a2 08D1     		bne	.L60
 625:..\..\..\..\..\..\Software\uCOS-III\Source/os_tick.c ****                 OS_RdyListInsert(p_tcb);                        /* Insert the task in the ready lis
 1133              		.loc 1 625 0
 1134 00a4 7B6A     		ldr	r3, [r7, #36]
 1135 00a6 1800     		movs	r0, r3
 1136 00a8 FFF7FEFF 		bl	OS_RdyListInsert
 626:..\..\..\..\..\..\Software\uCOS-III\Source/os_tick.c ****                 p_tcb->TaskState  = OS_TASK_STATE_RDY;
 1137              		.loc 1 626 0
 1138 00ac 7B6A     		ldr	r3, [r7, #36]
 1139 00ae 3622     		movs	r2, #54
 1140 00b0 0021     		movs	r1, #0
 1141 00b2 9954     		strb	r1, [r3, r2]
 1142 00b4 08E0     		b	.L61
 1143              	.L60:
 627:..\..\..\..\..\..\Software\uCOS-III\Source/os_tick.c ****             } else if (p_tcb->TaskState == OS_TASK_STATE_PEND_TIMEOUT_SUSPENDED) {
 1144              		.loc 1 627 0
 1145 00b6 7B6A     		ldr	r3, [r7, #36]
 1146 00b8 3622     		movs	r2, #54
 1147 00ba 9B5C     		ldrb	r3, [r3, r2]
 1148 00bc 072B     		cmp	r3, #7
 1149 00be 03D1     		bne	.L61
 628:..\..\..\..\..\..\Software\uCOS-III\Source/os_tick.c **** 
 629:..\..\..\..\..\..\Software\uCOS-III\Source/os_tick.c ****                 p_tcb->TaskState  = OS_TASK_STATE_SUSPENDED;
 1150              		.loc 1 629 0
 1151 00c0 7B6A     		ldr	r3, [r7, #36]
 1152 00c2 3622     		movs	r2, #54
 1153 00c4 0421     		movs	r1, #4
 1154 00c6 9954     		strb	r1, [r3, r2]
 1155              	.L61:
 630:..\..\..\..\..\..\Software\uCOS-III\Source/os_tick.c ****             }
 631:..\..\..\..\..\..\Software\uCOS-III\Source/os_tick.c ****             p_tcb->PendStatus = OS_STATUS_PEND_TIMEOUT;         /* Indicate pend timed out         
 1156              		.loc 1 631 0
 1157 00c8 7B6A     		ldr	r3, [r7, #36]
 1158 00ca 3522     		movs	r2, #53
 1159 00cc 0321     		movs	r1, #3
 1160 00ce 9954     		strb	r1, [r3, r2]
 632:..\..\..\..\..\..\Software\uCOS-III\Source/os_tick.c ****             p_tcb->PendOn     = OS_TASK_PEND_ON_NOTHING;        /* Indicate no longer pending      
 1161              		.loc 1 632 0
ARM GAS  C:\Users\ADMINI~1\AppData\Local\Temp\cc8eYrCa.s 			page 33


 1162 00d0 7B6A     		ldr	r3, [r7, #36]
 1163 00d2 3422     		movs	r2, #52
 1164 00d4 0021     		movs	r1, #0
 1165 00d6 9954     		strb	r1, [r3, r2]
 633:..\..\..\..\..\..\Software\uCOS-III\Source/os_tick.c **** 
 634:..\..\..\..\..\..\Software\uCOS-III\Source/os_tick.c **** #if (OS_CFG_MUTEX_EN == DEF_ENABLED)
 635:..\..\..\..\..\..\Software\uCOS-III\Source/os_tick.c ****             if(p_tcb_owner != DEF_NULL) {
 1166              		.loc 1 635 0
 1167 00d8 FB69     		ldr	r3, [r7, #28]
 1168 00da 002B     		cmp	r3, #0
 1169 00dc 36D0     		beq	.L62
 636:..\..\..\..\..\..\Software\uCOS-III\Source/os_tick.c ****                 if ((p_tcb_owner->Prio != p_tcb_owner->BasePrio) &&
 1170              		.loc 1 636 0
 1171 00de FB69     		ldr	r3, [r7, #28]
 1172 00e0 3722     		movs	r2, #55
 1173 00e2 9A5C     		ldrb	r2, [r3, r2]
 1174 00e4 FB69     		ldr	r3, [r7, #28]
 1175 00e6 3821     		movs	r1, #56
 1176 00e8 5B5C     		ldrb	r3, [r3, r1]
 1177 00ea 9A42     		cmp	r2, r3
 1178 00ec 2ED0     		beq	.L62
 637:..\..\..\..\..\..\Software\uCOS-III\Source/os_tick.c ****                     (p_tcb_owner->Prio == p_tcb->Prio)) {       /* Has the owner inherited a priori
 1179              		.loc 1 637 0 discriminator 1
 1180 00ee FB69     		ldr	r3, [r7, #28]
 1181 00f0 3722     		movs	r2, #55
 1182 00f2 9A5C     		ldrb	r2, [r3, r2]
 1183 00f4 7B6A     		ldr	r3, [r7, #36]
 1184 00f6 3721     		movs	r1, #55
 1185 00f8 5B5C     		ldrb	r3, [r3, r1]
 636:..\..\..\..\..\..\Software\uCOS-III\Source/os_tick.c ****                 if ((p_tcb_owner->Prio != p_tcb_owner->BasePrio) &&
 1186              		.loc 1 636 0 discriminator 1
 1187 00fa 9A42     		cmp	r2, r3
 1188 00fc 26D1     		bne	.L62
 638:..\..\..\..\..\..\Software\uCOS-III\Source/os_tick.c ****                     prio_new = OS_MutexGrpPrioFindHighest(p_tcb_owner);
 1189              		.loc 1 638 0
 1190 00fe 1323     		movs	r3, #19
 1191 0100 FC18     		adds	r4, r7, r3
 1192 0102 FB69     		ldr	r3, [r7, #28]
 1193 0104 1800     		movs	r0, r3
 1194 0106 FFF7FEFF 		bl	OS_MutexGrpPrioFindHighest
 1195 010a 0300     		movs	r3, r0
 1196 010c 2370     		strb	r3, [r4]
 639:..\..\..\..\..\..\Software\uCOS-III\Source/os_tick.c ****                     prio_new = prio_new > p_tcb_owner->BasePrio ? p_tcb_owner->BasePrio : prio_new;
 1197              		.loc 1 639 0
 1198 010e FB69     		ldr	r3, [r7, #28]
 1199 0110 3822     		movs	r2, #56
 1200 0112 995C     		ldrb	r1, [r3, r2]
 1201 0114 1323     		movs	r3, #19
 1202 0116 FA18     		adds	r2, r7, r3
 1203 0118 1323     		movs	r3, #19
 1204 011a FB18     		adds	r3, r7, r3
 1205 011c 1C78     		ldrb	r4, [r3]
 1206 011e 0B1C     		adds	r3, r1, #0
 1207 0120 D8B2     		uxtb	r0, r3
 1208 0122 E1B2     		uxtb	r1, r4
 1209 0124 8842     		cmp	r0, r1
 1210 0126 00D9     		bls	.L63
ARM GAS  C:\Users\ADMINI~1\AppData\Local\Temp\cc8eYrCa.s 			page 34


 1211 0128 231C     		adds	r3, r4, #0
 1212              	.L63:
 1213 012a 1370     		strb	r3, [r2]
 640:..\..\..\..\..\..\Software\uCOS-III\Source/os_tick.c ****                     if(prio_new != p_tcb_owner->Prio) {
 1214              		.loc 1 640 0
 1215 012c FB69     		ldr	r3, [r7, #28]
 1216 012e 3722     		movs	r2, #55
 1217 0130 9B5C     		ldrb	r3, [r3, r2]
 1218 0132 1322     		movs	r2, #19
 1219 0134 BA18     		adds	r2, r7, r2
 1220 0136 1278     		ldrb	r2, [r2]
 1221 0138 9A42     		cmp	r2, r3
 1222 013a 07D0     		beq	.L62
 641:..\..\..\..\..\..\Software\uCOS-III\Source/os_tick.c ****                         OS_TaskChangePrio(p_tcb_owner, prio_new);
 1223              		.loc 1 641 0
 1224 013c 1323     		movs	r3, #19
 1225 013e FB18     		adds	r3, r7, r3
 1226 0140 1A78     		ldrb	r2, [r3]
 1227 0142 FB69     		ldr	r3, [r7, #28]
 1228 0144 1100     		movs	r1, r2
 1229 0146 1800     		movs	r0, r3
 1230 0148 FFF7FEFF 		bl	OS_TaskChangePrio
 1231              	.L62:
 642:..\..\..\..\..\..\Software\uCOS-III\Source/os_tick.c ****             #if (defined(TRACE_CFG_EN) && (TRACE_CFG_EN == DEF_ENABLED))
 643:..\..\..\..\..\..\Software\uCOS-III\Source/os_tick.c ****                                       TRACE_OS_MUTEX_TASK_PRIO_DISINHERIT(p_tcb_owner, p_tcb_owner-
 644:..\..\..\..\..\..\Software\uCOS-III\Source/os_tick.c ****             #endif
 645:..\..\..\..\..\..\Software\uCOS-III\Source/os_tick.c ****                     }
 646:..\..\..\..\..\..\Software\uCOS-III\Source/os_tick.c ****                 }
 647:..\..\..\..\..\..\Software\uCOS-III\Source/os_tick.c ****             }
 648:..\..\..\..\..\..\Software\uCOS-III\Source/os_tick.c **** #endif
 649:..\..\..\..\..\..\Software\uCOS-III\Source/os_tick.c **** 
 650:..\..\..\..\..\..\Software\uCOS-III\Source/os_tick.c ****             p_list->TCB_Ptr = p_tcb->TickNextPtr;
 1232              		.loc 1 650 0
 1233 014c 7B6A     		ldr	r3, [r7, #36]
 1234 014e 9A69     		ldr	r2, [r3, #24]
 1235 0150 7B69     		ldr	r3, [r7, #20]
 1236 0152 1A60     		str	r2, [r3]
 651:..\..\..\..\..\..\Software\uCOS-III\Source/os_tick.c ****             p_tcb           = p_list->TCB_Ptr;                  /* Get 'p_tcb' again for loop      
 1237              		.loc 1 651 0
 1238 0154 7B69     		ldr	r3, [r7, #20]
 1239 0156 1B68     		ldr	r3, [r3]
 1240 0158 7B62     		str	r3, [r7, #36]
 652:..\..\..\..\..\..\Software\uCOS-III\Source/os_tick.c ****             if (p_tcb == DEF_NULL) {
 1241              		.loc 1 652 0
 1242 015a 7B6A     		ldr	r3, [r7, #36]
 1243 015c 002B     		cmp	r3, #0
 1244 015e 03D1     		bne	.L64
 653:..\..\..\..\..\..\Software\uCOS-III\Source/os_tick.c **** #if (OS_CFG_DBG_EN == DEF_ENABLED)
 654:..\..\..\..\..\..\Software\uCOS-III\Source/os_tick.c ****                 p_list->NbrEntries = 0u;
 1245              		.loc 1 654 0
 1246 0160 7B69     		ldr	r3, [r7, #20]
 1247 0162 0022     		movs	r2, #0
 1248 0164 9A80     		strh	r2, [r3, #4]
 655:..\..\..\..\..\..\Software\uCOS-III\Source/os_tick.c **** #endif
 656:..\..\..\..\..\..\Software\uCOS-III\Source/os_tick.c ****                 break;
 1249              		.loc 1 656 0
 1250 0166 21E0     		b	.L55
ARM GAS  C:\Users\ADMINI~1\AppData\Local\Temp\cc8eYrCa.s 			page 35


 1251              	.L64:
 657:..\..\..\..\..\..\Software\uCOS-III\Source/os_tick.c ****             } else {
 658:..\..\..\..\..\..\Software\uCOS-III\Source/os_tick.c **** #if (OS_CFG_DBG_EN == DEF_ENABLED)
 659:..\..\..\..\..\..\Software\uCOS-III\Source/os_tick.c ****                 p_list->NbrEntries--;
 1252              		.loc 1 659 0
 1253 0168 7B69     		ldr	r3, [r7, #20]
 1254 016a 9B88     		ldrh	r3, [r3, #4]
 1255 016c 013B     		subs	r3, r3, #1
 1256 016e 9AB2     		uxth	r2, r3
 1257 0170 7B69     		ldr	r3, [r7, #20]
 1258 0172 9A80     		strh	r2, [r3, #4]
 660:..\..\..\..\..\..\Software\uCOS-III\Source/os_tick.c **** #endif
 661:..\..\..\..\..\..\Software\uCOS-III\Source/os_tick.c ****                 p_tcb->TickPrevPtr = DEF_NULL;
 1259              		.loc 1 661 0
 1260 0174 7B6A     		ldr	r3, [r7, #36]
 1261 0176 0022     		movs	r2, #0
 1262 0178 DA61     		str	r2, [r3, #28]
 662:..\..\..\..\..\..\Software\uCOS-III\Source/os_tick.c ****             }
 663:..\..\..\..\..\..\Software\uCOS-III\Source/os_tick.c ****             if (p_tcb->TickRemain <= ticks) {
 1263              		.loc 1 663 0
 1264 017a 7B6A     		ldr	r3, [r7, #36]
 1265 017c 1A6D     		ldr	r2, [r3, #80]
 1266 017e 7B68     		ldr	r3, [r7, #4]
 1267 0180 9A42     		cmp	r2, r3
 1268 0182 08D8     		bhi	.L65
 664:..\..\..\..\..\..\Software\uCOS-III\Source/os_tick.c ****                 ticks = ticks - p_tcb->TickRemain;
 1269              		.loc 1 664 0
 1270 0184 7B6A     		ldr	r3, [r7, #36]
 1271 0186 1B6D     		ldr	r3, [r3, #80]
 1272 0188 7A68     		ldr	r2, [r7, #4]
 1273 018a D31A     		subs	r3, r2, r3
 1274 018c 7B60     		str	r3, [r7, #4]
 665:..\..\..\..\..\..\Software\uCOS-III\Source/os_tick.c ****                 p_tcb->TickRemain = 0u;
 1275              		.loc 1 665 0
 1276 018e 7B6A     		ldr	r3, [r7, #36]
 1277 0190 0022     		movs	r2, #0
 1278 0192 1A65     		str	r2, [r3, #80]
 1279 0194 05E0     		b	.L58
 1280              	.L65:
 666:..\..\..\..\..\..\Software\uCOS-III\Source/os_tick.c ****             } else {
 667:..\..\..\..\..\..\Software\uCOS-III\Source/os_tick.c ****                 p_tcb->TickRemain -= ticks;
 1281              		.loc 1 667 0
 1282 0196 7B6A     		ldr	r3, [r7, #36]
 1283 0198 1A6D     		ldr	r2, [r3, #80]
 1284 019a 7B68     		ldr	r3, [r7, #4]
 1285 019c D21A     		subs	r2, r2, r3
 1286 019e 7B6A     		ldr	r3, [r7, #36]
 1287 01a0 1A65     		str	r2, [r3, #80]
 1288              	.L58:
 604:..\..\..\..\..\..\Software\uCOS-III\Source/os_tick.c **** #if (OS_CFG_DBG_EN == DEF_ENABLED)
 1289              		.loc 1 604 0
 1290 01a2 7B6A     		ldr	r3, [r7, #36]
 1291 01a4 1B6D     		ldr	r3, [r3, #80]
 1292 01a6 002B     		cmp	r3, #0
 1293 01a8 00D1     		bne	.LCB1094
 1294 01aa 53E7     		b	.L66	@long jump
 1295              	.LCB1094:
ARM GAS  C:\Users\ADMINI~1\AppData\Local\Temp\cc8eYrCa.s 			page 36


 1296              	.L55:
 668:..\..\..\..\..\..\Software\uCOS-III\Source/os_tick.c ****             }
 669:..\..\..\..\..\..\Software\uCOS-III\Source/os_tick.c ****         }
 670:..\..\..\..\..\..\Software\uCOS-III\Source/os_tick.c ****     }
 671:..\..\..\..\..\..\Software\uCOS-III\Source/os_tick.c **** #if (OS_CFG_DBG_EN == DEF_ENABLED)
 672:..\..\..\..\..\..\Software\uCOS-III\Source/os_tick.c ****     p_list->NbrUpdated = nbr_updated;
 1297              		.loc 1 672 0
 1298 01ac 7B69     		ldr	r3, [r7, #20]
 1299 01ae 2222     		movs	r2, #34
 1300 01b0 BA18     		adds	r2, r7, r2
 1301 01b2 1288     		ldrh	r2, [r2]
 1302 01b4 DA80     		strh	r2, [r3, #6]
 673:..\..\..\..\..\..\Software\uCOS-III\Source/os_tick.c **** #endif
 674:..\..\..\..\..\..\Software\uCOS-III\Source/os_tick.c **** #if (OS_CFG_TS_EN == DEF_ENABLED)
 675:..\..\..\..\..\..\Software\uCOS-III\Source/os_tick.c ****     ts_delta_timeout   = OS_TS_GET() - ts_start;                /* Measure execution time of the up
 1303              		.loc 1 675 0
 1304 01b6 FFF7FEFF 		bl	CPU_TS_TmrRd
 1305 01ba 0200     		movs	r2, r0
 1306 01bc BB69     		ldr	r3, [r7, #24]
 1307 01be D31A     		subs	r3, r2, r3
 1308 01c0 FB60     		str	r3, [r7, #12]
 676:..\..\..\..\..\..\Software\uCOS-III\Source/os_tick.c **** #endif
 677:..\..\..\..\..\..\Software\uCOS-III\Source/os_tick.c **** 
 678:..\..\..\..\..\..\Software\uCOS-III\Source/os_tick.c **** #if (OS_CFG_TS_EN == DEF_ENABLED)
 679:..\..\..\..\..\..\Software\uCOS-III\Source/os_tick.c ****     return (ts_delta_timeout);
 1309              		.loc 1 679 0
 1310 01c2 FB68     		ldr	r3, [r7, #12]
 680:..\..\..\..\..\..\Software\uCOS-III\Source/os_tick.c **** #else
 681:..\..\..\..\..\..\Software\uCOS-III\Source/os_tick.c ****     return (0u);
 682:..\..\..\..\..\..\Software\uCOS-III\Source/os_tick.c **** #endif
 683:..\..\..\..\..\..\Software\uCOS-III\Source/os_tick.c **** }
 1311              		.loc 1 683 0
 1312 01c4 1800     		movs	r0, r3
 1313 01c6 BD46     		mov	sp, r7
 1314 01c8 0BB0     		add	sp, sp, #44
 1315              		@ sp needed
 1316 01ca 90BD     		pop	{r4, r7, pc}
 1317              	.L69:
 1318              		.align	2
 1319              	.L68:
 1320 01cc 00000000 		.word	OSTickListTimeout
 1321              		.cfi_endproc
 1322              	.LFE6:
 1323              		.size	OS_TickListUpdateTimeout, .-OS_TickListUpdateTimeout
 1324              		.text
 1325              	.Letext0:
 1326              		.file 2 "..\\..\\..\\..\\..\\..\\Software\\uC-CPU\\ARM-Cortex-M0\\GNU/cpu.h"
 1327              		.file 3 "..\\..\\..\\..\\..\\..\\Software\\uC-CPU/cpu_core.h"
 1328              		.file 4 "..\\..\\..\\..\\..\\..\\Software\\uCOS-III\\Source\\os_type.h"
 1329              		.file 5 "..\\..\\..\\..\\..\\..\\Software\\uCOS-III\\Source\\os.h"
 1330              		.section	.debug_info,"",%progbits
 1331              	.Ldebug_info0:
 1332 0000 610F0000 		.4byte	0xf61
 1333 0004 0400     		.2byte	0x4
 1334 0006 00000000 		.4byte	.Ldebug_abbrev0
 1335 000a 04       		.byte	0x4
 1336 000b 01       		.uleb128 0x1
ARM GAS  C:\Users\ADMINI~1\AppData\Local\Temp\cc8eYrCa.s 			page 37


 1337 000c 07030000 		.4byte	.LASF328
 1338 0010 0C       		.byte	0xc
 1339 0011 41120000 		.4byte	.LASF329
 1340 0015 91000000 		.4byte	.LASF330
 1341 0019 00000000 		.4byte	.Ldebug_ranges0+0
 1342 001d 00000000 		.4byte	0
 1343 0021 00000000 		.4byte	.Ldebug_line0
 1344 0025 02       		.uleb128 0x2
 1345 0026 EF070000 		.4byte	.LASF2
 1346 002a 02       		.byte	0x2
 1347 002b 7C       		.byte	0x7c
 1348 002c 30000000 		.4byte	0x30
 1349 0030 03       		.uleb128 0x3
 1350 0031 01       		.byte	0x1
 1351 0032 08       		.byte	0x8
 1352 0033 7F090000 		.4byte	.LASF0
 1353 0037 03       		.uleb128 0x3
 1354 0038 01       		.byte	0x1
 1355 0039 08       		.byte	0x8
 1356 003a 4C110000 		.4byte	.LASF1
 1357 003e 02       		.uleb128 0x2
 1358 003f F1060000 		.4byte	.LASF3
 1359 0043 02       		.byte	0x2
 1360 0044 7E       		.byte	0x7e
 1361 0045 37000000 		.4byte	0x37
 1362 0049 03       		.uleb128 0x3
 1363 004a 01       		.byte	0x1
 1364 004b 06       		.byte	0x6
 1365 004c C8120000 		.4byte	.LASF4
 1366 0050 02       		.uleb128 0x2
 1367 0051 300B0000 		.4byte	.LASF5
 1368 0055 02       		.byte	0x2
 1369 0056 80       		.byte	0x80
 1370 0057 5B000000 		.4byte	0x5b
 1371 005b 03       		.uleb128 0x3
 1372 005c 02       		.byte	0x2
 1373 005d 07       		.byte	0x7
 1374 005e EE120000 		.4byte	.LASF6
 1375 0062 03       		.uleb128 0x3
 1376 0063 02       		.byte	0x2
 1377 0064 05       		.byte	0x5
 1378 0065 870E0000 		.4byte	.LASF7
 1379 0069 02       		.uleb128 0x2
 1380 006a 29020000 		.4byte	.LASF8
 1381 006e 02       		.byte	0x2
 1382 006f 82       		.byte	0x82
 1383 0070 74000000 		.4byte	0x74
 1384 0074 03       		.uleb128 0x3
 1385 0075 04       		.byte	0x4
 1386 0076 07       		.byte	0x7
 1387 0077 23100000 		.4byte	.LASF9
 1388 007b 04       		.uleb128 0x4
 1389 007c 04       		.byte	0x4
 1390 007d 05       		.byte	0x5
 1391 007e 696E7400 		.ascii	"int\000"
 1392 0082 03       		.uleb128 0x3
 1393 0083 08       		.byte	0x8
ARM GAS  C:\Users\ADMINI~1\AppData\Local\Temp\cc8eYrCa.s 			page 38


 1394 0084 07       		.byte	0x7
 1395 0085 3B060000 		.4byte	.LASF10
 1396 0089 03       		.uleb128 0x3
 1397 008a 08       		.byte	0x8
 1398 008b 05       		.byte	0x5
 1399 008c AC0A0000 		.4byte	.LASF11
 1400 0090 03       		.uleb128 0x3
 1401 0091 04       		.byte	0x4
 1402 0092 04       		.byte	0x4
 1403 0093 A1050000 		.4byte	.LASF12
 1404 0097 03       		.uleb128 0x3
 1405 0098 08       		.byte	0x8
 1406 0099 04       		.byte	0x4
 1407 009a 7F130000 		.4byte	.LASF13
 1408 009e 05       		.uleb128 0x5
 1409 009f 04       		.byte	0x4
 1410 00a0 A4000000 		.4byte	0xa4
 1411 00a4 06       		.uleb128 0x6
 1412 00a5 AF000000 		.4byte	0xaf
 1413 00a9 07       		.uleb128 0x7
 1414 00aa AF000000 		.4byte	0xaf
 1415 00ae 00       		.byte	0
 1416 00af 08       		.uleb128 0x8
 1417 00b0 04       		.byte	0x4
 1418 00b1 02       		.uleb128 0x2
 1419 00b2 A8100000 		.4byte	.LASF14
 1420 00b6 02       		.byte	0x2
 1421 00b7 BA       		.byte	0xba
 1422 00b8 69000000 		.4byte	0x69
 1423 00bc 02       		.uleb128 0x2
 1424 00bd DE140000 		.4byte	.LASF15
 1425 00c1 02       		.byte	0x2
 1426 00c2 E5       		.byte	0xe5
 1427 00c3 69000000 		.4byte	0x69
 1428 00c7 02       		.uleb128 0x2
 1429 00c8 0F080000 		.4byte	.LASF16
 1430 00cc 02       		.byte	0x2
 1431 00cd E6       		.byte	0xe6
 1432 00ce B1000000 		.4byte	0xb1
 1433 00d2 09       		.uleb128 0x9
 1434 00d3 CE090000 		.4byte	.LASF17
 1435 00d7 02       		.byte	0x2
 1436 00d8 3301     		.2byte	0x133
 1437 00da 69000000 		.4byte	0x69
 1438 00de 02       		.uleb128 0x2
 1439 00df EB0B0000 		.4byte	.LASF18
 1440 00e3 03       		.byte	0x3
 1441 00e4 C3       		.byte	0xc3
 1442 00e5 69000000 		.4byte	0x69
 1443 00e9 02       		.uleb128 0x2
 1444 00ea A50A0000 		.4byte	.LASF19
 1445 00ee 03       		.byte	0x3
 1446 00ef C6       		.byte	0xc6
 1447 00f0 DE000000 		.4byte	0xde
 1448 00f4 02       		.uleb128 0x2
 1449 00f5 FF010000 		.4byte	.LASF20
 1450 00f9 04       		.byte	0x4
ARM GAS  C:\Users\ADMINI~1\AppData\Local\Temp\cc8eYrCa.s 			page 39


 1451 00fa 32       		.byte	0x32
 1452 00fb 50000000 		.4byte	0x50
 1453 00ff 02       		.uleb128 0x2
 1454 0100 22000000 		.4byte	.LASF21
 1455 0104 04       		.byte	0x4
 1456 0105 36       		.byte	0x36
 1457 0106 69000000 		.4byte	0x69
 1458 010a 02       		.uleb128 0x2
 1459 010b 00110000 		.4byte	.LASF22
 1460 010f 04       		.byte	0x4
 1461 0110 38       		.byte	0x38
 1462 0111 69000000 		.4byte	0x69
 1463 0115 02       		.uleb128 0x2
 1464 0116 01130000 		.4byte	.LASF23
 1465 011a 04       		.byte	0x4
 1466 011b 3A       		.byte	0x3a
 1467 011c 69000000 		.4byte	0x69
 1468 0120 02       		.uleb128 0x2
 1469 0121 1C080000 		.4byte	.LASF24
 1470 0125 04       		.byte	0x4
 1471 0126 41       		.byte	0x41
 1472 0127 50000000 		.4byte	0x50
 1473 012b 02       		.uleb128 0x2
 1474 012c B4070000 		.4byte	.LASF25
 1475 0130 04       		.byte	0x4
 1476 0131 42       		.byte	0x42
 1477 0132 50000000 		.4byte	0x50
 1478 0136 02       		.uleb128 0x2
 1479 0137 450F0000 		.4byte	.LASF26
 1480 013b 04       		.byte	0x4
 1481 013c 44       		.byte	0x44
 1482 013d 3E000000 		.4byte	0x3e
 1483 0141 02       		.uleb128 0x2
 1484 0142 61050000 		.4byte	.LASF27
 1485 0146 04       		.byte	0x4
 1486 0147 46       		.byte	0x46
 1487 0148 50000000 		.4byte	0x50
 1488 014c 02       		.uleb128 0x2
 1489 014d 91090000 		.4byte	.LASF28
 1490 0151 04       		.byte	0x4
 1491 0152 47       		.byte	0x47
 1492 0153 69000000 		.4byte	0x69
 1493 0157 02       		.uleb128 0x2
 1494 0158 82110000 		.4byte	.LASF29
 1495 015c 04       		.byte	0x4
 1496 015d 49       		.byte	0x49
 1497 015e 50000000 		.4byte	0x50
 1498 0162 02       		.uleb128 0x2
 1499 0163 99050000 		.4byte	.LASF30
 1500 0167 04       		.byte	0x4
 1501 0168 4D       		.byte	0x4d
 1502 0169 3E000000 		.4byte	0x3e
 1503 016d 02       		.uleb128 0x2
 1504 016e 59070000 		.4byte	.LASF31
 1505 0172 04       		.byte	0x4
 1506 0173 56       		.byte	0x56
 1507 0174 69000000 		.4byte	0x69
ARM GAS  C:\Users\ADMINI~1\AppData\Local\Temp\cc8eYrCa.s 			page 40


 1508 0178 02       		.uleb128 0x2
 1509 0179 280C0000 		.4byte	.LASF32
 1510 017d 04       		.byte	0x4
 1511 017e 5A       		.byte	0x5a
 1512 017f 69000000 		.4byte	0x69
 1513 0183 02       		.uleb128 0x2
 1514 0184 79110000 		.4byte	.LASF33
 1515 0188 04       		.byte	0x4
 1516 0189 5C       		.byte	0x5c
 1517 018a 3E000000 		.4byte	0x3e
 1518 018e 02       		.uleb128 0x2
 1519 018f 6C070000 		.4byte	.LASF34
 1520 0193 04       		.byte	0x4
 1521 0194 5E       		.byte	0x5e
 1522 0195 3E000000 		.4byte	0x3e
 1523 0199 02       		.uleb128 0x2
 1524 019a A20B0000 		.4byte	.LASF35
 1525 019e 04       		.byte	0x4
 1526 019f 60       		.byte	0x60
 1527 01a0 69000000 		.4byte	0x69
 1528 01a4 0A       		.uleb128 0xa
 1529 01a5 96010000 		.4byte	.LASF331
 1530 01a9 02       		.byte	0x2
 1531 01aa 5B000000 		.4byte	0x5b
 1532 01ae 05       		.byte	0x5
 1533 01af E201     		.2byte	0x1e2
 1534 01b1 46060000 		.4byte	0x646
 1535 01b5 0B       		.uleb128 0xb
 1536 01b6 2A130000 		.4byte	.LASF36
 1537 01ba 00       		.byte	0
 1538 01bb 0C       		.uleb128 0xc
 1539 01bc 5B000000 		.4byte	.LASF37
 1540 01c0 1027     		.2byte	0x2710
 1541 01c2 0C       		.uleb128 0xc
 1542 01c3 3C040000 		.4byte	.LASF38
 1543 01c7 1127     		.2byte	0x2711
 1544 01c9 0C       		.uleb128 0xc
 1545 01ca 64000000 		.4byte	.LASF39
 1546 01ce F82A     		.2byte	0x2af8
 1547 01d0 0C       		.uleb128 0xc
 1548 01d1 6D000000 		.4byte	.LASF40
 1549 01d5 E02E     		.2byte	0x2ee0
 1550 01d7 0C       		.uleb128 0xc
 1551 01d8 D1010000 		.4byte	.LASF41
 1552 01dc E12E     		.2byte	0x2ee1
 1553 01de 0C       		.uleb128 0xc
 1554 01df 76000000 		.4byte	.LASF42
 1555 01e3 C832     		.2byte	0x32c8
 1556 01e5 0C       		.uleb128 0xc
 1557 01e6 55090000 		.4byte	.LASF43
 1558 01ea C932     		.2byte	0x32c9
 1559 01ec 0C       		.uleb128 0xc
 1560 01ed 7F000000 		.4byte	.LASF44
 1561 01f1 B036     		.2byte	0x36b0
 1562 01f3 0C       		.uleb128 0xc
 1563 01f4 88000000 		.4byte	.LASF45
 1564 01f8 983A     		.2byte	0x3a98
ARM GAS  C:\Users\ADMINI~1\AppData\Local\Temp\cc8eYrCa.s 			page 41


 1565 01fa 0C       		.uleb128 0xc
 1566 01fb DA120000 		.4byte	.LASF46
 1567 01ff 993A     		.2byte	0x3a99
 1568 0201 0C       		.uleb128 0xc
 1569 0202 B3080000 		.4byte	.LASF47
 1570 0206 FD3A     		.2byte	0x3afd
 1571 0208 0C       		.uleb128 0xc
 1572 0209 68100000 		.4byte	.LASF48
 1573 020d FE3A     		.2byte	0x3afe
 1574 020f 0C       		.uleb128 0xc
 1575 0210 BA0A0000 		.4byte	.LASF49
 1576 0214 FF3A     		.2byte	0x3aff
 1577 0216 0C       		.uleb128 0xc
 1578 0217 69130000 		.4byte	.LASF50
 1579 021b 003B     		.2byte	0x3b00
 1580 021d 0C       		.uleb128 0xc
 1581 021e 30110000 		.4byte	.LASF51
 1582 0222 803E     		.2byte	0x3e80
 1583 0224 0C       		.uleb128 0xc
 1584 0225 E3000000 		.4byte	.LASF52
 1585 0229 6842     		.2byte	0x4268
 1586 022b 0C       		.uleb128 0xc
 1587 022c EC000000 		.4byte	.LASF53
 1588 0230 5046     		.2byte	0x4650
 1589 0232 0C       		.uleb128 0xc
 1590 0233 21050000 		.4byte	.LASF54
 1591 0237 5146     		.2byte	0x4651
 1592 0239 0C       		.uleb128 0xc
 1593 023a ED030000 		.4byte	.LASF55
 1594 023e 5246     		.2byte	0x4652
 1595 0240 0C       		.uleb128 0xc
 1596 0241 F9040000 		.4byte	.LASF56
 1597 0245 5346     		.2byte	0x4653
 1598 0247 0C       		.uleb128 0xc
 1599 0248 BF010000 		.4byte	.LASF57
 1600 024c 5446     		.2byte	0x4654
 1601 024e 0C       		.uleb128 0xc
 1602 024f 76120000 		.4byte	.LASF58
 1603 0253 5546     		.2byte	0x4655
 1604 0255 0C       		.uleb128 0xc
 1605 0256 E80C0000 		.4byte	.LASF59
 1606 025a 5646     		.2byte	0x4656
 1607 025c 0C       		.uleb128 0xc
 1608 025d C2020000 		.4byte	.LASF60
 1609 0261 5746     		.2byte	0x4657
 1610 0263 0C       		.uleb128 0xc
 1611 0264 F5000000 		.4byte	.LASF61
 1612 0268 384A     		.2byte	0x4a38
 1613 026a 0C       		.uleb128 0xc
 1614 026b FE000000 		.4byte	.LASF62
 1615 026f 204E     		.2byte	0x4e20
 1616 0271 0C       		.uleb128 0xc
 1617 0272 07010000 		.4byte	.LASF63
 1618 0276 0852     		.2byte	0x5208
 1619 0278 0C       		.uleb128 0xc
 1620 0279 4A0E0000 		.4byte	.LASF64
 1621 027d 0952     		.2byte	0x5209
ARM GAS  C:\Users\ADMINI~1\AppData\Local\Temp\cc8eYrCa.s 			page 42


 1622 027f 0C       		.uleb128 0xc
 1623 0280 10010000 		.4byte	.LASF65
 1624 0284 F055     		.2byte	0x55f0
 1625 0286 0C       		.uleb128 0xc
 1626 0287 B8110000 		.4byte	.LASF66
 1627 028b B956     		.2byte	0x56b9
 1628 028d 0C       		.uleb128 0xc
 1629 028e AA0B0000 		.4byte	.LASF67
 1630 0292 BA56     		.2byte	0x56ba
 1631 0294 0C       		.uleb128 0xc
 1632 0295 2A0E0000 		.4byte	.LASF68
 1633 0299 BB56     		.2byte	0x56bb
 1634 029b 0C       		.uleb128 0xc
 1635 029c CC080000 		.4byte	.LASF69
 1636 02a0 BC56     		.2byte	0x56bc
 1637 02a2 0C       		.uleb128 0xc
 1638 02a3 570B0000 		.4byte	.LASF70
 1639 02a7 BD56     		.2byte	0x56bd
 1640 02a9 0C       		.uleb128 0xc
 1641 02aa 110E0000 		.4byte	.LASF71
 1642 02ae BE56     		.2byte	0x56be
 1643 02b0 0C       		.uleb128 0xc
 1644 02b1 D20B0000 		.4byte	.LASF72
 1645 02b5 BF56     		.2byte	0x56bf
 1646 02b7 0C       		.uleb128 0xc
 1647 02b8 D4050000 		.4byte	.LASF73
 1648 02bc C056     		.2byte	0x56c0
 1649 02be 0C       		.uleb128 0xc
 1650 02bf FB130000 		.4byte	.LASF74
 1651 02c3 C156     		.2byte	0x56c1
 1652 02c5 0C       		.uleb128 0xc
 1653 02c6 C6140000 		.4byte	.LASF75
 1654 02ca C256     		.2byte	0x56c2
 1655 02cc 0C       		.uleb128 0xc
 1656 02cd 9C0E0000 		.4byte	.LASF76
 1657 02d1 1D57     		.2byte	0x571d
 1658 02d3 0C       		.uleb128 0xc
 1659 02d4 2C0F0000 		.4byte	.LASF77
 1660 02d8 1E57     		.2byte	0x571e
 1661 02da 0C       		.uleb128 0xc
 1662 02db 9D070000 		.4byte	.LASF78
 1663 02df 8157     		.2byte	0x5781
 1664 02e1 0C       		.uleb128 0xc
 1665 02e2 38100000 		.4byte	.LASF79
 1666 02e6 8257     		.2byte	0x5782
 1667 02e8 0C       		.uleb128 0xc
 1668 02e9 66040000 		.4byte	.LASF80
 1669 02ed 8357     		.2byte	0x5783
 1670 02ef 0C       		.uleb128 0xc
 1671 02f0 BD030000 		.4byte	.LASF81
 1672 02f4 8457     		.2byte	0x5784
 1673 02f6 0C       		.uleb128 0xc
 1674 02f7 19010000 		.4byte	.LASF82
 1675 02fb D859     		.2byte	0x59d8
 1676 02fd 0C       		.uleb128 0xc
 1677 02fe 60070000 		.4byte	.LASF83
 1678 0302 D959     		.2byte	0x59d9
ARM GAS  C:\Users\ADMINI~1\AppData\Local\Temp\cc8eYrCa.s 			page 43


 1679 0304 0C       		.uleb128 0xc
 1680 0305 BC050000 		.4byte	.LASF84
 1681 0309 DA59     		.2byte	0x59da
 1682 030b 0C       		.uleb128 0xc
 1683 030c 22010000 		.4byte	.LASF85
 1684 0310 C05D     		.2byte	0x5dc0
 1685 0312 0C       		.uleb128 0xc
 1686 0313 BD040000 		.4byte	.LASF86
 1687 0317 C15D     		.2byte	0x5dc1
 1688 0319 0C       		.uleb128 0xc
 1689 031a 960A0000 		.4byte	.LASF87
 1690 031e C25D     		.2byte	0x5dc2
 1691 0320 0C       		.uleb128 0xc
 1692 0321 6F0B0000 		.4byte	.LASF88
 1693 0325 C35D     		.2byte	0x5dc3
 1694 0327 0C       		.uleb128 0xc
 1695 0328 990F0000 		.4byte	.LASF89
 1696 032c C45D     		.2byte	0x5dc4
 1697 032e 0C       		.uleb128 0xc
 1698 032f BB090000 		.4byte	.LASF90
 1699 0333 255E     		.2byte	0x5e25
 1700 0335 0C       		.uleb128 0xc
 1701 0336 930D0000 		.4byte	.LASF91
 1702 033a 895E     		.2byte	0x5e89
 1703 033c 0C       		.uleb128 0xc
 1704 033d 27080000 		.4byte	.LASF92
 1705 0341 8A5E     		.2byte	0x5e8a
 1706 0343 0C       		.uleb128 0xc
 1707 0344 07090000 		.4byte	.LASF93
 1708 0348 8B5E     		.2byte	0x5e8b
 1709 034a 0C       		.uleb128 0xc
 1710 034b F5090000 		.4byte	.LASF94
 1711 034f 8C5E     		.2byte	0x5e8c
 1712 0351 0C       		.uleb128 0xc
 1713 0352 2B010000 		.4byte	.LASF95
 1714 0356 A861     		.2byte	0x61a8
 1715 0358 0C       		.uleb128 0xc
 1716 0359 86130000 		.4byte	.LASF96
 1717 035d A961     		.2byte	0x61a9
 1718 035f 0C       		.uleb128 0xc
 1719 0360 92100000 		.4byte	.LASF97
 1720 0364 AA61     		.2byte	0x61aa
 1721 0366 0C       		.uleb128 0xc
 1722 0367 0C100000 		.4byte	.LASF98
 1723 036b AB61     		.2byte	0x61ab
 1724 036d 0C       		.uleb128 0xc
 1725 036e 190B0000 		.4byte	.LASF99
 1726 0372 AC61     		.2byte	0x61ac
 1727 0374 0C       		.uleb128 0xc
 1728 0375 C5130000 		.4byte	.LASF100
 1729 0379 AD61     		.2byte	0x61ad
 1730 037b 0C       		.uleb128 0xc
 1731 037c ED110000 		.4byte	.LASF101
 1732 0380 AE61     		.2byte	0x61ae
 1733 0382 0C       		.uleb128 0xc
 1734 0383 F4020000 		.4byte	.LASF102
 1735 0387 AF61     		.2byte	0x61af
ARM GAS  C:\Users\ADMINI~1\AppData\Local\Temp\cc8eYrCa.s 			page 44


 1736 0389 0C       		.uleb128 0xc
 1737 038a 7E020000 		.4byte	.LASF103
 1738 038e B061     		.2byte	0x61b0
 1739 0390 0C       		.uleb128 0xc
 1740 0391 A7050000 		.4byte	.LASF104
 1741 0395 0D62     		.2byte	0x620d
 1742 0397 0C       		.uleb128 0xc
 1743 0398 B1100000 		.4byte	.LASF105
 1744 039c 0E62     		.2byte	0x620e
 1745 039e 0C       		.uleb128 0xc
 1746 039f AB140000 		.4byte	.LASF106
 1747 03a3 7162     		.2byte	0x6271
 1748 03a5 0C       		.uleb128 0xc
 1749 03a6 B9130000 		.4byte	.LASF107
 1750 03aa 7262     		.2byte	0x6272
 1751 03ac 0C       		.uleb128 0xc
 1752 03ad 07000000 		.4byte	.LASF108
 1753 03b1 7362     		.2byte	0x6273
 1754 03b3 0C       		.uleb128 0xc
 1755 03b4 630D0000 		.4byte	.LASF109
 1756 03b8 D562     		.2byte	0x62d5
 1757 03ba 0C       		.uleb128 0xc
 1758 03bb 34010000 		.4byte	.LASF110
 1759 03bf 9065     		.2byte	0x6590
 1760 03c1 0C       		.uleb128 0xc
 1761 03c2 25120000 		.4byte	.LASF111
 1762 03c6 9165     		.2byte	0x6591
 1763 03c8 0C       		.uleb128 0xc
 1764 03c9 29070000 		.4byte	.LASF112
 1765 03cd 9265     		.2byte	0x6592
 1766 03cf 0C       		.uleb128 0xc
 1767 03d0 6A090000 		.4byte	.LASF113
 1768 03d4 9365     		.2byte	0x6593
 1769 03d6 0C       		.uleb128 0xc
 1770 03d7 F80A0000 		.4byte	.LASF114
 1771 03db 9465     		.2byte	0x6594
 1772 03dd 0C       		.uleb128 0xc
 1773 03de 3D010000 		.4byte	.LASF115
 1774 03e2 7869     		.2byte	0x6978
 1775 03e4 0C       		.uleb128 0xc
 1776 03e5 830B0000 		.4byte	.LASF116
 1777 03e9 7969     		.2byte	0x6979
 1778 03eb 0C       		.uleb128 0xc
 1779 03ec FC0D0000 		.4byte	.LASF117
 1780 03f0 7A69     		.2byte	0x697a
 1781 03f2 0C       		.uleb128 0xc
 1782 03f3 3B0B0000 		.4byte	.LASF118
 1783 03f7 7B69     		.2byte	0x697b
 1784 03f9 0C       		.uleb128 0xc
 1785 03fa 46010000 		.4byte	.LASF119
 1786 03fe 606D     		.2byte	0x6d60
 1787 0400 0C       		.uleb128 0xc
 1788 0401 D5090000 		.4byte	.LASF120
 1789 0405 616D     		.2byte	0x6d61
 1790 0407 0C       		.uleb128 0xc
 1791 0408 3F090000 		.4byte	.LASF121
 1792 040c 626D     		.2byte	0x6d62
ARM GAS  C:\Users\ADMINI~1\AppData\Local\Temp\cc8eYrCa.s 			page 45


 1793 040e 0C       		.uleb128 0xc
 1794 040f 55130000 		.4byte	.LASF122
 1795 0413 636D     		.2byte	0x6d63
 1796 0415 0C       		.uleb128 0xc
 1797 0416 A1130000 		.4byte	.LASF123
 1798 041a 646D     		.2byte	0x6d64
 1799 041c 0C       		.uleb128 0xc
 1800 041d C00E0000 		.4byte	.LASF124
 1801 0421 656D     		.2byte	0x6d65
 1802 0423 0C       		.uleb128 0xc
 1803 0424 3F140000 		.4byte	.LASF125
 1804 0428 C56D     		.2byte	0x6dc5
 1805 042a 0C       		.uleb128 0xc
 1806 042b 29140000 		.4byte	.LASF126
 1807 042f C66D     		.2byte	0x6dc6
 1808 0431 0C       		.uleb128 0xc
 1809 0432 DE020000 		.4byte	.LASF127
 1810 0436 296E     		.2byte	0x6e29
 1811 0438 0C       		.uleb128 0xc
 1812 0439 1E0A0000 		.4byte	.LASF128
 1813 043d 2A6E     		.2byte	0x6e2a
 1814 043f 0C       		.uleb128 0xc
 1815 0440 9B080000 		.4byte	.LASF129
 1816 0444 2B6E     		.2byte	0x6e2b
 1817 0446 0C       		.uleb128 0xc
 1818 0447 4B100000 		.4byte	.LASF130
 1819 044b 2C6E     		.2byte	0x6e2c
 1820 044d 0C       		.uleb128 0xc
 1821 044e 760D0000 		.4byte	.LASF131
 1822 0452 2D6E     		.2byte	0x6e2d
 1823 0454 0C       		.uleb128 0xc
 1824 0455 CE110000 		.4byte	.LASF132
 1825 0459 2E6E     		.2byte	0x6e2e
 1826 045b 0C       		.uleb128 0xc
 1827 045c 3D020000 		.4byte	.LASF133
 1828 0460 2F6E     		.2byte	0x6e2f
 1829 0462 0C       		.uleb128 0xc
 1830 0463 18110000 		.4byte	.LASF134
 1831 0467 306E     		.2byte	0x6e30
 1832 0469 0C       		.uleb128 0xc
 1833 046a D5100000 		.4byte	.LASF135
 1834 046e 316E     		.2byte	0x6e31
 1835 0470 0C       		.uleb128 0xc
 1836 0471 4F010000 		.4byte	.LASF136
 1837 0475 4871     		.2byte	0x7148
 1838 0477 0C       		.uleb128 0xc
 1839 0478 96020000 		.4byte	.LASF137
 1840 047c 4971     		.2byte	0x7149
 1841 047e 0C       		.uleb128 0xc
 1842 047f F8070000 		.4byte	.LASF138
 1843 0483 4A71     		.2byte	0x714a
 1844 0485 0C       		.uleb128 0xc
 1845 0486 AB120000 		.4byte	.LASF139
 1846 048a 4B71     		.2byte	0x714b
 1847 048c 0C       		.uleb128 0xc
 1848 048d 4E140000 		.4byte	.LASF140
 1849 0491 4C71     		.2byte	0x714c
ARM GAS  C:\Users\ADMINI~1\AppData\Local\Temp\cc8eYrCa.s 			page 46


 1850 0493 0C       		.uleb128 0xc
 1851 0494 AE060000 		.4byte	.LASF141
 1852 0498 4D71     		.2byte	0x714d
 1853 049a 0C       		.uleb128 0xc
 1854 049b 430D0000 		.4byte	.LASF142
 1855 049f 4E71     		.2byte	0x714e
 1856 04a1 0C       		.uleb128 0xc
 1857 04a2 990C0000 		.4byte	.LASF143
 1858 04a6 4F71     		.2byte	0x714f
 1859 04a8 0C       		.uleb128 0xc
 1860 04a9 BA0B0000 		.4byte	.LASF144
 1861 04ad 5071     		.2byte	0x7150
 1862 04af 0C       		.uleb128 0xc
 1863 04b0 CE030000 		.4byte	.LASF145
 1864 04b4 5171     		.2byte	0x7151
 1865 04b6 0C       		.uleb128 0xc
 1866 04b7 720C0000 		.4byte	.LASF146
 1867 04bb 5271     		.2byte	0x7152
 1868 04bd 0C       		.uleb128 0xc
 1869 04be A3030000 		.4byte	.LASF147
 1870 04c2 5371     		.2byte	0x7153
 1871 04c4 0C       		.uleb128 0xc
 1872 04c5 5A110000 		.4byte	.LASF148
 1873 04c9 5471     		.2byte	0x7154
 1874 04cb 0C       		.uleb128 0xc
 1875 04cc 59020000 		.4byte	.LASF149
 1876 04d0 5571     		.2byte	0x7155
 1877 04d2 0C       		.uleb128 0xc
 1878 04d3 81050000 		.4byte	.LASF150
 1879 04d7 5671     		.2byte	0x7156
 1880 04d9 0C       		.uleb128 0xc
 1881 04da 6C0F0000 		.4byte	.LASF151
 1882 04de 5771     		.2byte	0x7157
 1883 04e0 0C       		.uleb128 0xc
 1884 04e1 52060000 		.4byte	.LASF152
 1885 04e5 5871     		.2byte	0x7158
 1886 04e7 0C       		.uleb128 0xc
 1887 04e8 620E0000 		.4byte	.LASF153
 1888 04ec 5971     		.2byte	0x7159
 1889 04ee 0C       		.uleb128 0xc
 1890 04ef 13140000 		.4byte	.LASF154
 1891 04f3 5A71     		.2byte	0x715a
 1892 04f5 0C       		.uleb128 0xc
 1893 04f6 E0040000 		.4byte	.LASF155
 1894 04fa 5B71     		.2byte	0x715b
 1895 04fc 0C       		.uleb128 0xc
 1896 04fd 8E060000 		.4byte	.LASF156
 1897 0501 5C71     		.2byte	0x715c
 1898 0503 0C       		.uleb128 0xc
 1899 0504 4E040000 		.4byte	.LASF157
 1900 0508 5D71     		.2byte	0x715d
 1901 050a 0C       		.uleb128 0xc
 1902 050b C50C0000 		.4byte	.LASF158
 1903 050f 5E71     		.2byte	0x715e
 1904 0511 0C       		.uleb128 0xc
 1905 0512 16040000 		.4byte	.LASF159
 1906 0516 5F71     		.2byte	0x715f
ARM GAS  C:\Users\ADMINI~1\AppData\Local\Temp\cc8eYrCa.s 			page 47


 1907 0518 0C       		.uleb128 0xc
 1908 0519 DC0A0000 		.4byte	.LASF160
 1909 051d 6071     		.2byte	0x7160
 1910 051f 0C       		.uleb128 0xc
 1911 0520 03070000 		.4byte	.LASF161
 1912 0524 AD71     		.2byte	0x71ad
 1913 0526 0C       		.uleb128 0xc
 1914 0527 25060000 		.4byte	.LASF162
 1915 052b C071     		.2byte	0x71c0
 1916 052d 0C       		.uleb128 0xc
 1917 052e 060D0000 		.4byte	.LASF163
 1918 0532 C171     		.2byte	0x71c1
 1919 0534 0C       		.uleb128 0xc
 1920 0535 11130000 		.4byte	.LASF164
 1921 0539 C271     		.2byte	0x71c2
 1922 053b 0C       		.uleb128 0xc
 1923 053c A9090000 		.4byte	.LASF165
 1924 0540 C371     		.2byte	0x71c3
 1925 0542 0C       		.uleb128 0xc
 1926 0543 80070000 		.4byte	.LASF166
 1927 0547 C471     		.2byte	0x71c4
 1928 0549 0C       		.uleb128 0xc
 1929 054a 92140000 		.4byte	.LASF167
 1930 054e 1172     		.2byte	0x7211
 1931 0550 0C       		.uleb128 0xc
 1932 0551 140F0000 		.4byte	.LASF168
 1933 0555 1272     		.2byte	0x7212
 1934 0557 0C       		.uleb128 0xc
 1935 0558 0C020000 		.4byte	.LASF169
 1936 055c 1372     		.2byte	0x7213
 1937 055e 0C       		.uleb128 0xc
 1938 055f 4F0C0000 		.4byte	.LASF170
 1939 0563 1472     		.2byte	0x7214
 1940 0565 0C       		.uleb128 0xc
 1941 0566 C1100000 		.4byte	.LASF171
 1942 056a 7572     		.2byte	0x7275
 1943 056c 0C       		.uleb128 0xc
 1944 056d 77140000 		.4byte	.LASF172
 1945 0571 7672     		.2byte	0x7276
 1946 0573 0C       		.uleb128 0xc
 1947 0574 63140000 		.4byte	.LASF173
 1948 0578 7772     		.2byte	0x7277
 1949 057a 0C       		.uleb128 0xc
 1950 057b C0070000 		.4byte	.LASF174
 1951 057f 7872     		.2byte	0x7278
 1952 0581 0C       		.uleb128 0xc
 1953 0582 3F000000 		.4byte	.LASF175
 1954 0586 7972     		.2byte	0x7279
 1955 0588 0C       		.uleb128 0xc
 1956 0589 8F120000 		.4byte	.LASF176
 1957 058d 7A72     		.2byte	0x727a
 1958 058f 0C       		.uleb128 0xc
 1959 0590 38070000 		.4byte	.LASF177
 1960 0594 7B72     		.2byte	0x727b
 1961 0596 0C       		.uleb128 0xc
 1962 0597 370A0000 		.4byte	.LASF178
 1963 059b 7C72     		.2byte	0x727c
ARM GAS  C:\Users\ADMINI~1\AppData\Local\Temp\cc8eYrCa.s 			page 48


 1964 059d 0C       		.uleb128 0xc
 1965 059e D20D0000 		.4byte	.LASF179
 1966 05a2 7D72     		.2byte	0x727d
 1967 05a4 0C       		.uleb128 0xc
 1968 05a5 5C080000 		.4byte	.LASF180
 1969 05a9 7E72     		.2byte	0x727e
 1970 05ab 0C       		.uleb128 0xc
 1971 05ac 6A110000 		.4byte	.LASF181
 1972 05b0 D972     		.2byte	0x72d9
 1973 05b2 0C       		.uleb128 0xc
 1974 05b3 11060000 		.4byte	.LASF182
 1975 05b7 3D73     		.2byte	0x733d
 1976 05b9 0C       		.uleb128 0xc
 1977 05ba 21090000 		.4byte	.LASF183
 1978 05be 3E73     		.2byte	0x733e
 1979 05c0 0C       		.uleb128 0xc
 1980 05c1 4A050000 		.4byte	.LASF184
 1981 05c5 3F73     		.2byte	0x733f
 1982 05c7 0C       		.uleb128 0xc
 1983 05c8 7C010000 		.4byte	.LASF185
 1984 05cc 4073     		.2byte	0x7340
 1985 05ce 0C       		.uleb128 0xc
 1986 05cf 84040000 		.4byte	.LASF186
 1987 05d3 4173     		.2byte	0x7341
 1988 05d5 0C       		.uleb128 0xc
 1989 05d6 6E060000 		.4byte	.LASF187
 1990 05da 4273     		.2byte	0x7342
 1991 05dc 0C       		.uleb128 0xc
 1992 05dd 30000000 		.4byte	.LASF188
 1993 05e1 4373     		.2byte	0x7343
 1994 05e3 0C       		.uleb128 0xc
 1995 05e4 FA050000 		.4byte	.LASF189
 1996 05e8 4473     		.2byte	0x7344
 1997 05ea 0C       		.uleb128 0xc
 1998 05eb DA070000 		.4byte	.LASF190
 1999 05ef 4573     		.2byte	0x7345
 2000 05f1 0C       		.uleb128 0xc
 2001 05f2 AD0C0000 		.4byte	.LASF191
 2002 05f6 4673     		.2byte	0x7346
 2003 05f8 0C       		.uleb128 0xc
 2004 05f9 DA060000 		.4byte	.LASF192
 2005 05fd 4773     		.2byte	0x7347
 2006 05ff 0C       		.uleb128 0xc
 2007 0600 330C0000 		.4byte	.LASF193
 2008 0604 4873     		.2byte	0x7348
 2009 0606 0C       		.uleb128 0xc
 2010 0607 39110000 		.4byte	.LASF194
 2011 060b 4973     		.2byte	0x7349
 2012 060d 0C       		.uleb128 0xc
 2013 060e 150D0000 		.4byte	.LASF195
 2014 0612 4A73     		.2byte	0x734a
 2015 0614 0C       		.uleb128 0xc
 2016 0615 58010000 		.4byte	.LASF196
 2017 0619 3075     		.2byte	0x7530
 2018 061b 0C       		.uleb128 0xc
 2019 061c 61010000 		.4byte	.LASF197
 2020 0620 1879     		.2byte	0x7918
ARM GAS  C:\Users\ADMINI~1\AppData\Local\Temp\cc8eYrCa.s 			page 49


 2021 0622 0C       		.uleb128 0xc
 2022 0623 6A010000 		.4byte	.LASF198
 2023 0627 007D     		.2byte	0x7d00
 2024 0629 0C       		.uleb128 0xc
 2025 062a 73010000 		.4byte	.LASF199
 2026 062e E880     		.2byte	0x80e8
 2027 0630 0C       		.uleb128 0xc
 2028 0631 E4110000 		.4byte	.LASF200
 2029 0635 D084     		.2byte	0x84d0
 2030 0637 0C       		.uleb128 0xc
 2031 0638 850A0000 		.4byte	.LASF201
 2032 063c D184     		.2byte	0x84d1
 2033 063e 0C       		.uleb128 0xc
 2034 063f FD110000 		.4byte	.LASF202
 2035 0643 B888     		.2byte	0x88b8
 2036 0645 00       		.byte	0
 2037 0646 09       		.uleb128 0x9
 2038 0647 1B000000 		.4byte	.LASF203
 2039 064b 05       		.byte	0x5
 2040 064c B502     		.2byte	0x2b5
 2041 064e A4010000 		.4byte	0x1a4
 2042 0652 09       		.uleb128 0x9
 2043 0653 1A090000 		.4byte	.LASF204
 2044 0657 05       		.byte	0x5
 2045 0658 C402     		.2byte	0x2c4
 2046 065a 5E060000 		.4byte	0x65e
 2047 065e 0D       		.uleb128 0xd
 2048 065f FC060000 		.4byte	.LASF210
 2049 0663 10       		.byte	0x10
 2050 0664 05       		.byte	0x5
 2051 0665 A303     		.2byte	0x3a3
 2052 0667 A0060000 		.4byte	0x6a0
 2053 066b 0E       		.uleb128 0xe
 2054 066c 8B0D0000 		.4byte	.LASF205
 2055 0670 05       		.byte	0x5
 2056 0671 A403     		.2byte	0x3a4
 2057 0673 D60B0000 		.4byte	0xbd6
 2058 0677 00       		.byte	0
 2059 0678 0E       		.uleb128 0xe
 2060 0679 0A130000 		.4byte	.LASF206
 2061 067d 05       		.byte	0x5
 2062 067e A503     		.2byte	0x3a5
 2063 0680 AF000000 		.4byte	0xaf
 2064 0684 04       		.byte	0x4
 2065 0685 0E       		.uleb128 0xe
 2066 0686 30100000 		.4byte	.LASF207
 2067 068a 05       		.byte	0x5
 2068 068b A603     		.2byte	0x3a6
 2069 068d 2B010000 		.4byte	0x12b
 2070 0691 08       		.byte	0x8
 2071 0692 0E       		.uleb128 0xe
 2072 0693 D4120000 		.4byte	.LASF208
 2073 0697 05       		.byte	0x5
 2074 0698 A803     		.2byte	0x3a8
 2075 069a E9000000 		.4byte	0xe9
 2076 069e 0C       		.byte	0xc
 2077 069f 00       		.byte	0
ARM GAS  C:\Users\ADMINI~1\AppData\Local\Temp\cc8eYrCa.s 			page 50


 2078 06a0 09       		.uleb128 0x9
 2079 06a1 5E0A0000 		.4byte	.LASF209
 2080 06a5 05       		.byte	0x5
 2081 06a6 C602     		.2byte	0x2c6
 2082 06a8 AC060000 		.4byte	0x6ac
 2083 06ac 0D       		.uleb128 0xd
 2084 06ad BD140000 		.4byte	.LASF211
 2085 06b1 10       		.byte	0x10
 2086 06b2 05       		.byte	0x5
 2087 06b3 BA03     		.2byte	0x3ba
 2088 06b5 FB060000 		.4byte	0x6fb
 2089 06b9 0E       		.uleb128 0xe
 2090 06ba CB0F0000 		.4byte	.LASF212
 2091 06be 05       		.byte	0x5
 2092 06bf BB03     		.2byte	0x3bb
 2093 06c1 D60B0000 		.4byte	0xbd6
 2094 06c5 00       		.byte	0
 2095 06c6 0E       		.uleb128 0xe
 2096 06c7 11120000 		.4byte	.LASF213
 2097 06cb 05       		.byte	0x5
 2098 06cc BC03     		.2byte	0x3bc
 2099 06ce D60B0000 		.4byte	0xbd6
 2100 06d2 04       		.byte	0x4
 2101 06d3 0E       		.uleb128 0xe
 2102 06d4 4D080000 		.4byte	.LASF214
 2103 06d8 05       		.byte	0x5
 2104 06d9 BD03     		.2byte	0x3bd
 2105 06db 20010000 		.4byte	0x120
 2106 06df 08       		.byte	0x8
 2107 06e0 0E       		.uleb128 0xe
 2108 06e1 B4010000 		.4byte	.LASF215
 2109 06e5 05       		.byte	0x5
 2110 06e6 BE03     		.2byte	0x3be
 2111 06e8 20010000 		.4byte	0x120
 2112 06ec 0A       		.byte	0xa
 2113 06ed 0E       		.uleb128 0xe
 2114 06ee E0130000 		.4byte	.LASF216
 2115 06f2 05       		.byte	0x5
 2116 06f3 C003     		.2byte	0x3c0
 2117 06f5 20010000 		.4byte	0x120
 2118 06f9 0C       		.byte	0xc
 2119 06fa 00       		.byte	0
 2120 06fb 09       		.uleb128 0x9
 2121 06fc 34020000 		.4byte	.LASF217
 2122 0700 05       		.byte	0x5
 2123 0701 C802     		.2byte	0x2c8
 2124 0703 07070000 		.4byte	0x707
 2125 0707 0D       		.uleb128 0xd
 2126 0708 B60D0000 		.4byte	.LASF218
 2127 070c 30       		.byte	0x30
 2128 070d 05       		.byte	0x5
 2129 070e D003     		.2byte	0x3d0
 2130 0710 96070000 		.4byte	0x796
 2131 0714 0E       		.uleb128 0xe
 2132 0715 670A0000 		.4byte	.LASF219
 2133 0719 05       		.byte	0x5
 2134 071a D303     		.2byte	0x3d3
ARM GAS  C:\Users\ADMINI~1\AppData\Local\Temp\cc8eYrCa.s 			page 51


 2135 071c 4C010000 		.4byte	0x14c
 2136 0720 00       		.byte	0
 2137 0721 0E       		.uleb128 0xe
 2138 0722 4B0A0000 		.4byte	.LASF220
 2139 0726 05       		.byte	0x5
 2140 0727 D603     		.2byte	0x3d6
 2141 0729 D00B0000 		.4byte	0xbd0
 2142 072d 04       		.byte	0x4
 2143 072e 0E       		.uleb128 0xe
 2144 072f 900F0000 		.4byte	.LASF221
 2145 0733 05       		.byte	0x5
 2146 0734 D803     		.2byte	0x3d8
 2147 0736 150B0000 		.4byte	0xb15
 2148 073a 08       		.byte	0x8
 2149 073b 0E       		.uleb128 0xe
 2150 073c E2030000 		.4byte	.LASF222
 2151 0740 05       		.byte	0x5
 2152 0741 DA03     		.2byte	0x3da
 2153 0743 DC0B0000 		.4byte	0xbdc
 2154 0747 14       		.byte	0x14
 2155 0748 0E       		.uleb128 0xe
 2156 0749 FA030000 		.4byte	.LASF223
 2157 074d 05       		.byte	0x5
 2158 074e DB03     		.2byte	0x3db
 2159 0750 DC0B0000 		.4byte	0xbdc
 2160 0754 18       		.byte	0x18
 2161 0755 0E       		.uleb128 0xe
 2162 0756 06120000 		.4byte	.LASF224
 2163 075a 05       		.byte	0x5
 2164 075b DC03     		.2byte	0x3dc
 2165 075d D00B0000 		.4byte	0xbd0
 2166 0761 1C       		.byte	0x1c
 2167 0762 0E       		.uleb128 0xe
 2168 0763 F70E0000 		.4byte	.LASF225
 2169 0767 05       		.byte	0x5
 2170 0768 DF03     		.2byte	0x3df
 2171 076a DC0B0000 		.4byte	0xbdc
 2172 076e 20       		.byte	0x20
 2173 076f 0E       		.uleb128 0xe
 2174 0770 6C050000 		.4byte	.LASF226
 2175 0774 05       		.byte	0x5
 2176 0775 E003     		.2byte	0x3e0
 2177 0777 BE0B0000 		.4byte	0xbbe
 2178 077b 24       		.byte	0x24
 2179 077c 0E       		.uleb128 0xe
 2180 077d E3010000 		.4byte	.LASF227
 2181 0781 05       		.byte	0x5
 2182 0782 E103     		.2byte	0x3e1
 2183 0784 36010000 		.4byte	0x136
 2184 0788 28       		.byte	0x28
 2185 0789 0F       		.uleb128 0xf
 2186 078a 545300   		.ascii	"TS\000"
 2187 078d 05       		.byte	0x5
 2188 078e E303     		.2byte	0x3e3
 2189 0790 E9000000 		.4byte	0xe9
 2190 0794 2C       		.byte	0x2c
 2191 0795 00       		.byte	0
ARM GAS  C:\Users\ADMINI~1\AppData\Local\Temp\cc8eYrCa.s 			page 52


 2192 0796 09       		.uleb128 0x9
 2193 0797 9C110000 		.4byte	.LASF228
 2194 079b 05       		.byte	0x5
 2195 079c D402     		.2byte	0x2d4
 2196 079e 9E000000 		.4byte	0x9e
 2197 07a2 09       		.uleb128 0x9
 2198 07a3 0A110000 		.4byte	.LASF229
 2199 07a7 05       		.byte	0x5
 2200 07a8 D902     		.2byte	0x2d9
 2201 07aa AE070000 		.4byte	0x7ae
 2202 07ae 0D       		.uleb128 0xd
 2203 07af 00000000 		.4byte	.LASF230
 2204 07b3 C4       		.byte	0xc4
 2205 07b4 05       		.byte	0x5
 2206 07b5 5004     		.2byte	0x450
 2207 07b7 520A0000 		.4byte	0xa52
 2208 07bb 0E       		.uleb128 0xe
 2209 07bc CF0A0000 		.4byte	.LASF231
 2210 07c0 05       		.byte	0x5
 2211 07c1 5104     		.2byte	0x451
 2212 07c3 E20B0000 		.4byte	0xbe2
 2213 07c7 00       		.byte	0
 2214 07c8 0E       		.uleb128 0xe
 2215 07c9 82100000 		.4byte	.LASF232
 2216 07cd 05       		.byte	0x5
 2217 07ce 5304     		.2byte	0x453
 2218 07d0 AF000000 		.4byte	0xaf
 2219 07d4 04       		.byte	0x4
 2220 07d5 0E       		.uleb128 0xe
 2221 07d6 4B0A0000 		.4byte	.LASF220
 2222 07da 05       		.byte	0x5
 2223 07db 5604     		.2byte	0x456
 2224 07dd D00B0000 		.4byte	0xbd0
 2225 07e1 08       		.byte	0x8
 2226 07e2 0E       		.uleb128 0xe
 2227 07e3 FF0B0000 		.4byte	.LASF233
 2228 07e7 05       		.byte	0x5
 2229 07e8 5A04     		.2byte	0x45a
 2230 07ea E20B0000 		.4byte	0xbe2
 2231 07ee 0C       		.byte	0xc
 2232 07ef 0E       		.uleb128 0xe
 2233 07f0 8B0D0000 		.4byte	.LASF205
 2234 07f4 05       		.byte	0x5
 2235 07f5 5D04     		.2byte	0x45d
 2236 07f7 BE0B0000 		.4byte	0xbbe
 2237 07fb 10       		.byte	0x10
 2238 07fc 0E       		.uleb128 0xe
 2239 07fd 77090000 		.4byte	.LASF234
 2240 0801 05       		.byte	0x5
 2241 0802 5E04     		.2byte	0x45e
 2242 0804 BE0B0000 		.4byte	0xbbe
 2243 0808 14       		.byte	0x14
 2244 0809 0E       		.uleb128 0xe
 2245 080a 660C0000 		.4byte	.LASF235
 2246 080e 05       		.byte	0x5
 2247 080f 6104     		.2byte	0x461
 2248 0811 BE0B0000 		.4byte	0xbbe
ARM GAS  C:\Users\ADMINI~1\AppData\Local\Temp\cc8eYrCa.s 			page 53


 2249 0815 18       		.byte	0x18
 2250 0816 0E       		.uleb128 0xe
 2251 0817 86080000 		.4byte	.LASF236
 2252 081b 05       		.byte	0x5
 2253 081c 6204     		.2byte	0x462
 2254 081e BE0B0000 		.4byte	0xbbe
 2255 0822 1C       		.byte	0x1c
 2256 0823 0E       		.uleb128 0xe
 2257 0824 C60D0000 		.4byte	.LASF237
 2258 0828 05       		.byte	0x5
 2259 0829 6404     		.2byte	0x464
 2260 082b E80B0000 		.4byte	0xbe8
 2261 082f 20       		.byte	0x20
 2262 0830 0E       		.uleb128 0xe
 2263 0831 1E070000 		.4byte	.LASF238
 2264 0835 05       		.byte	0x5
 2265 0836 6804     		.2byte	0x468
 2266 0838 E20B0000 		.4byte	0xbe2
 2267 083c 24       		.byte	0x24
 2268 083d 0E       		.uleb128 0xe
 2269 083e 100A0000 		.4byte	.LASF239
 2270 0842 05       		.byte	0x5
 2271 0843 7004     		.2byte	0x470
 2272 0845 96070000 		.4byte	0x796
 2273 0849 28       		.byte	0x28
 2274 084a 0E       		.uleb128 0xe
 2275 084b 18120000 		.4byte	.LASF240
 2276 084f 05       		.byte	0x5
 2277 0850 7104     		.2byte	0x471
 2278 0852 AF000000 		.4byte	0xaf
 2279 0856 2C       		.byte	0x2c
 2280 0857 0E       		.uleb128 0xe
 2281 0858 A90F0000 		.4byte	.LASF241
 2282 085c 05       		.byte	0x5
 2283 085d 7404     		.2byte	0x474
 2284 085f C40B0000 		.4byte	0xbc4
 2285 0863 30       		.byte	0x30
 2286 0864 0E       		.uleb128 0xe
 2287 0865 9D040000 		.4byte	.LASF242
 2288 0869 05       		.byte	0x5
 2289 086a 7504     		.2byte	0x475
 2290 086c 83010000 		.4byte	0x183
 2291 0870 34       		.byte	0x34
 2292 0871 0E       		.uleb128 0xe
 2293 0872 530A0000 		.4byte	.LASF243
 2294 0876 05       		.byte	0x5
 2295 0877 7604     		.2byte	0x476
 2296 0879 8E010000 		.4byte	0x18e
 2297 087d 35       		.byte	0x35
 2298 087e 0E       		.uleb128 0xe
 2299 087f 76070000 		.4byte	.LASF244
 2300 0883 05       		.byte	0x5
 2301 0884 7804     		.2byte	0x478
 2302 0886 83010000 		.4byte	0x183
 2303 088a 36       		.byte	0x36
 2304 088b 0E       		.uleb128 0xe
 2305 088c 7A130000 		.4byte	.LASF245
ARM GAS  C:\Users\ADMINI~1\AppData\Local\Temp\cc8eYrCa.s 			page 54


 2306 0890 05       		.byte	0x5
 2307 0891 7904     		.2byte	0x479
 2308 0893 62010000 		.4byte	0x162
 2309 0897 37       		.byte	0x37
 2310 0898 0E       		.uleb128 0xe
 2311 0899 E4080000 		.4byte	.LASF246
 2312 089d 05       		.byte	0x5
 2313 089e 7B04     		.2byte	0x47b
 2314 08a0 62010000 		.4byte	0x162
 2315 08a4 38       		.byte	0x38
 2316 08a5 0E       		.uleb128 0xe
 2317 08a6 B2020000 		.4byte	.LASF247
 2318 08aa 05       		.byte	0x5
 2319 08ab 7C04     		.2byte	0x47c
 2320 08ad DC0B0000 		.4byte	0xbdc
 2321 08b1 3C       		.byte	0x3c
 2322 08b2 0E       		.uleb128 0xe
 2323 08b3 16070000 		.4byte	.LASF248
 2324 08b7 05       		.byte	0x5
 2325 08b8 8004     		.2byte	0x480
 2326 08ba C7000000 		.4byte	0xc7
 2327 08be 40       		.byte	0x40
 2328 08bf 0F       		.uleb128 0xf
 2329 08c0 4F707400 		.ascii	"Opt\000"
 2330 08c4 05       		.byte	0x5
 2331 08c5 8204     		.2byte	0x482
 2332 08c7 57010000 		.4byte	0x157
 2333 08cb 44       		.byte	0x44
 2334 08cc 0F       		.uleb128 0xf
 2335 08cd 545300   		.ascii	"TS\000"
 2336 08d0 05       		.byte	0x5
 2337 08d1 8804     		.2byte	0x488
 2338 08d3 E9000000 		.4byte	0xe9
 2339 08d7 48       		.byte	0x48
 2340 08d8 0E       		.uleb128 0xe
 2341 08d9 B80F0000 		.4byte	.LASF249
 2342 08dd 05       		.byte	0x5
 2343 08de 8D04     		.2byte	0x48d
 2344 08e0 78010000 		.4byte	0x178
 2345 08e4 4C       		.byte	0x4c
 2346 08e5 0E       		.uleb128 0xe
 2347 08e6 E40F0000 		.4byte	.LASF250
 2348 08ea 05       		.byte	0x5
 2349 08eb 9104     		.2byte	0x491
 2350 08ed 99010000 		.4byte	0x199
 2351 08f1 50       		.byte	0x50
 2352 08f2 0E       		.uleb128 0xe
 2353 08f3 41080000 		.4byte	.LASF251
 2354 08f7 05       		.byte	0x5
 2355 08f8 9204     		.2byte	0x492
 2356 08fa 99010000 		.4byte	0x199
 2357 08fe 54       		.byte	0x54
 2358 08ff 0E       		.uleb128 0xe
 2359 0900 0A130000 		.4byte	.LASF206
 2360 0904 05       		.byte	0x5
 2361 0905 9B04     		.2byte	0x49b
 2362 0907 AF000000 		.4byte	0xaf
ARM GAS  C:\Users\ADMINI~1\AppData\Local\Temp\cc8eYrCa.s 			page 55


 2363 090b 58       		.byte	0x58
 2364 090c 0E       		.uleb128 0xe
 2365 090d 30100000 		.4byte	.LASF207
 2366 0911 05       		.byte	0x5
 2367 0912 9C04     		.2byte	0x49c
 2368 0914 2B010000 		.4byte	0x12b
 2369 0918 5C       		.byte	0x5c
 2370 0919 0E       		.uleb128 0xe
 2371 091a 0B0A0000 		.4byte	.LASF252
 2372 091e 05       		.byte	0x5
 2373 091f A004     		.2byte	0x4a0
 2374 0921 A0060000 		.4byte	0x6a0
 2375 0925 60       		.byte	0x60
 2376 0926 0E       		.uleb128 0xe
 2377 0927 A90D0000 		.4byte	.LASF253
 2378 092b 05       		.byte	0x5
 2379 092c A204     		.2byte	0x4a2
 2380 092e E9000000 		.4byte	0xe9
 2381 0932 70       		.byte	0x70
 2382 0933 0E       		.uleb128 0xe
 2383 0934 F7080000 		.4byte	.LASF254
 2384 0938 05       		.byte	0x5
 2385 0939 A304     		.2byte	0x4a3
 2386 093b E9000000 		.4byte	0xe9
 2387 093f 74       		.byte	0x74
 2388 0940 0E       		.uleb128 0xe
 2389 0941 38140000 		.4byte	.LASF255
 2390 0945 05       		.byte	0x5
 2391 0946 A804     		.2byte	0x4a8
 2392 0948 EE0B0000 		.4byte	0xbee
 2393 094c 78       		.byte	0x78
 2394 094d 0E       		.uleb128 0xe
 2395 094e 40050000 		.4byte	.LASF256
 2396 0952 05       		.byte	0x5
 2397 0953 AC04     		.2byte	0x4ac
 2398 0955 15010000 		.4byte	0x115
 2399 0959 7C       		.byte	0x7c
 2400 095a 0E       		.uleb128 0xe
 2401 095b 92080000 		.4byte	.LASF257
 2402 095f 05       		.byte	0x5
 2403 0960 AD04     		.2byte	0x4ad
 2404 0962 15010000 		.4byte	0x115
 2405 0966 80       		.byte	0x80
 2406 0967 0E       		.uleb128 0xe
 2407 0968 50020000 		.4byte	.LASF258
 2408 096c 05       		.byte	0x5
 2409 096d AE04     		.2byte	0x4ae
 2410 096f 57010000 		.4byte	0x157
 2411 0973 84       		.byte	0x84
 2412 0974 0E       		.uleb128 0xe
 2413 0975 F40B0000 		.4byte	.LASF259
 2414 0979 05       		.byte	0x5
 2415 097a B204     		.2byte	0x4b2
 2416 097c 36010000 		.4byte	0x136
 2417 0980 86       		.byte	0x86
 2418 0981 0E       		.uleb128 0xe
 2419 0982 98130000 		.4byte	.LASF260
ARM GAS  C:\Users\ADMINI~1\AppData\Local\Temp\cc8eYrCa.s 			page 56


 2420 0986 05       		.byte	0x5
 2421 0987 B604     		.2byte	0x4b6
 2422 0989 F4000000 		.4byte	0xf4
 2423 098d 88       		.byte	0x88
 2424 098e 0E       		.uleb128 0xe
 2425 098f 840F0000 		.4byte	.LASF261
 2426 0993 05       		.byte	0x5
 2427 0994 B704     		.2byte	0x4b7
 2428 0996 F4000000 		.4byte	0xf4
 2429 099a 8A       		.byte	0x8a
 2430 099b 0E       		.uleb128 0xe
 2431 099c 78050000 		.4byte	.LASF262
 2432 09a0 05       		.byte	0x5
 2433 09a1 B804     		.2byte	0x4b8
 2434 09a3 FF000000 		.4byte	0xff
 2435 09a7 8C       		.byte	0x8c
 2436 09a8 0E       		.uleb128 0xe
 2437 09a9 1C0C0000 		.4byte	.LASF263
 2438 09ad 05       		.byte	0x5
 2439 09ae B904     		.2byte	0x4b9
 2440 09b0 E9000000 		.4byte	0xe9
 2441 09b4 90       		.byte	0x90
 2442 09b5 0E       		.uleb128 0xe
 2443 09b6 060B0000 		.4byte	.LASF264
 2444 09ba 05       		.byte	0x5
 2445 09bb BA04     		.2byte	0x4ba
 2446 09bd E9000000 		.4byte	0xe9
 2447 09c1 94       		.byte	0x94
 2448 09c2 0E       		.uleb128 0xe
 2449 09c3 540F0000 		.4byte	.LASF265
 2450 09c7 05       		.byte	0x5
 2451 09c8 BB04     		.2byte	0x4bb
 2452 09ca 0A010000 		.4byte	0x10a
 2453 09ce 98       		.byte	0x98
 2454 09cf 0E       		.uleb128 0xe
 2455 09d0 E70E0000 		.4byte	.LASF266
 2456 09d4 05       		.byte	0x5
 2457 09d5 BC04     		.2byte	0x4bc
 2458 09d7 0A010000 		.4byte	0x10a
 2459 09db 9C       		.byte	0x9c
 2460 09dc 0E       		.uleb128 0xe
 2461 09dd 570D0000 		.4byte	.LASF267
 2462 09e1 05       		.byte	0x5
 2463 09e2 BE04     		.2byte	0x4be
 2464 09e4 E9000000 		.4byte	0xe9
 2465 09e8 A0       		.byte	0xa0
 2466 09e9 0E       		.uleb128 0xe
 2467 09ea D80E0000 		.4byte	.LASF268
 2468 09ee 05       		.byte	0x5
 2469 09ef BF04     		.2byte	0x4bf
 2470 09f1 E9000000 		.4byte	0xe9
 2471 09f5 A4       		.byte	0xa4
 2472 09f6 0E       		.uleb128 0xe
 2473 09f7 66060000 		.4byte	.LASF269
 2474 09fb 05       		.byte	0x5
 2475 09fc C304     		.2byte	0x4c3
 2476 09fe C7000000 		.4byte	0xc7
ARM GAS  C:\Users\ADMINI~1\AppData\Local\Temp\cc8eYrCa.s 			page 57


 2477 0a02 A8       		.byte	0xa8
 2478 0a03 0E       		.uleb128 0xe
 2479 0a04 39080000 		.4byte	.LASF270
 2480 0a08 05       		.byte	0x5
 2481 0a09 C404     		.2byte	0x4c4
 2482 0a0b C7000000 		.4byte	0xc7
 2483 0a0f AC       		.byte	0xac
 2484 0a10 0E       		.uleb128 0xe
 2485 0a11 B20E0000 		.4byte	.LASF271
 2486 0a15 05       		.byte	0x5
 2487 0a16 C804     		.2byte	0x4c8
 2488 0a18 E9000000 		.4byte	0xe9
 2489 0a1c B0       		.byte	0xb0
 2490 0a1d 0E       		.uleb128 0xe
 2491 0a1e 05040000 		.4byte	.LASF272
 2492 0a22 05       		.byte	0x5
 2493 0a23 CB04     		.2byte	0x4cb
 2494 0a25 E9000000 		.4byte	0xe9
 2495 0a29 B4       		.byte	0xb4
 2496 0a2a 0E       		.uleb128 0xe
 2497 0a2b E2030000 		.4byte	.LASF222
 2498 0a2f 05       		.byte	0x5
 2499 0a30 CF04     		.2byte	0x4cf
 2500 0a32 BE0B0000 		.4byte	0xbbe
 2501 0a36 B8       		.byte	0xb8
 2502 0a37 0E       		.uleb128 0xe
 2503 0a38 FA030000 		.4byte	.LASF223
 2504 0a3c 05       		.byte	0x5
 2505 0a3d D004     		.2byte	0x4d0
 2506 0a3f BE0B0000 		.4byte	0xbbe
 2507 0a43 BC       		.byte	0xbc
 2508 0a44 0E       		.uleb128 0xe
 2509 0a45 06120000 		.4byte	.LASF224
 2510 0a49 05       		.byte	0x5
 2511 0a4a D104     		.2byte	0x4d1
 2512 0a4c D00B0000 		.4byte	0xbd0
 2513 0a50 C0       		.byte	0xc0
 2514 0a51 00       		.byte	0
 2515 0a52 09       		.uleb128 0x9
 2516 0a53 070F0000 		.4byte	.LASF273
 2517 0a57 05       		.byte	0x5
 2518 0a58 E702     		.2byte	0x2e7
 2519 0a5a 5E0A0000 		.4byte	0xa5e
 2520 0a5e 0D       		.uleb128 0xd
 2521 0a5f 7A0E0000 		.4byte	.LASF274
 2522 0a63 08       		.byte	0x8
 2523 0a64 05       		.byte	0x5
 2524 0a65 DF04     		.2byte	0x4df
 2525 0a67 930A0000 		.4byte	0xa93
 2526 0a6b 0E       		.uleb128 0xe
 2527 0a6c D0040000 		.4byte	.LASF275
 2528 0a70 05       		.byte	0x5
 2529 0a71 E004     		.2byte	0x4e0
 2530 0a73 BE0B0000 		.4byte	0xbbe
 2531 0a77 00       		.byte	0
 2532 0a78 0E       		.uleb128 0xe
 2533 0a79 B4010000 		.4byte	.LASF215
ARM GAS  C:\Users\ADMINI~1\AppData\Local\Temp\cc8eYrCa.s 			page 58


 2534 0a7d 05       		.byte	0x5
 2535 0a7e E204     		.2byte	0x4e2
 2536 0a80 41010000 		.4byte	0x141
 2537 0a84 04       		.byte	0x4
 2538 0a85 0E       		.uleb128 0xe
 2539 0a86 C6060000 		.4byte	.LASF276
 2540 0a8a 05       		.byte	0x5
 2541 0a8b E304     		.2byte	0x4e3
 2542 0a8d 41010000 		.4byte	0x141
 2543 0a91 06       		.byte	0x6
 2544 0a92 00       		.byte	0
 2545 0a93 09       		.uleb128 0x9
 2546 0a94 81060000 		.4byte	.LASF277
 2547 0a98 05       		.byte	0x5
 2548 0a99 EC02     		.2byte	0x2ec
 2549 0a9b 9F0A0000 		.4byte	0xa9f
 2550 0a9f 0D       		.uleb128 0xd
 2551 0aa0 36130000 		.4byte	.LASF278
 2552 0aa4 20       		.byte	0x20
 2553 0aa5 05       		.byte	0x5
 2554 0aa6 2803     		.2byte	0x328
 2555 0aa8 150B0000 		.4byte	0xb15
 2556 0aac 0E       		.uleb128 0xe
 2557 0aad 77090000 		.4byte	.LASF234
 2558 0ab1 05       		.byte	0x5
 2559 0ab2 2903     		.2byte	0x329
 2560 0ab4 C40B0000 		.4byte	0xbc4
 2561 0ab8 00       		.byte	0
 2562 0ab9 0E       		.uleb128 0xe
 2563 0aba 8B0D0000 		.4byte	.LASF205
 2564 0abe 05       		.byte	0x5
 2565 0abf 2A03     		.2byte	0x32a
 2566 0ac1 C40B0000 		.4byte	0xbc4
 2567 0ac5 04       		.byte	0x4
 2568 0ac6 0E       		.uleb128 0xe
 2569 0ac7 120B0000 		.4byte	.LASF279
 2570 0acb 05       		.byte	0x5
 2571 0acc 2B03     		.2byte	0x32b
 2572 0ace BE0B0000 		.4byte	0xbbe
 2573 0ad2 08       		.byte	0x8
 2574 0ad3 0E       		.uleb128 0xe
 2575 0ad4 D5130000 		.4byte	.LASF280
 2576 0ad8 05       		.byte	0x5
 2577 0ad9 2C03     		.2byte	0x32c
 2578 0adb CA0B0000 		.4byte	0xbca
 2579 0adf 0C       		.byte	0xc
 2580 0ae0 0E       		.uleb128 0xe
 2581 0ae1 DE0C0000 		.4byte	.LASF281
 2582 0ae5 05       		.byte	0x5
 2583 0ae6 2D03     		.2byte	0x32d
 2584 0ae8 CA0B0000 		.4byte	0xbca
 2585 0aec 10       		.byte	0x10
 2586 0aed 0E       		.uleb128 0xe
 2587 0aee 0B050000 		.4byte	.LASF282
 2588 0af2 05       		.byte	0x5
 2589 0af3 2E03     		.2byte	0x32e
 2590 0af5 AF000000 		.4byte	0xaf
ARM GAS  C:\Users\ADMINI~1\AppData\Local\Temp\cc8eYrCa.s 			page 59


 2591 0af9 14       		.byte	0x14
 2592 0afa 0E       		.uleb128 0xe
 2593 0afb 910E0000 		.4byte	.LASF283
 2594 0aff 05       		.byte	0x5
 2595 0b00 2F03     		.2byte	0x32f
 2596 0b02 2B010000 		.4byte	0x12b
 2597 0b06 18       		.byte	0x18
 2598 0b07 0E       		.uleb128 0xe
 2599 0b08 440E0000 		.4byte	.LASF284
 2600 0b0c 05       		.byte	0x5
 2601 0b0d 3103     		.2byte	0x331
 2602 0b0f E9000000 		.4byte	0xe9
 2603 0b13 1C       		.byte	0x1c
 2604 0b14 00       		.byte	0
 2605 0b15 09       		.uleb128 0x9
 2606 0b16 BB120000 		.4byte	.LASF285
 2607 0b1a 05       		.byte	0x5
 2608 0b1b ED02     		.2byte	0x2ed
 2609 0b1d 210B0000 		.4byte	0xb21
 2610 0b21 0D       		.uleb128 0xd
 2611 0b22 EE130000 		.4byte	.LASF286
 2612 0b26 0C       		.byte	0xc
 2613 0b27 05       		.byte	0x5
 2614 0b28 3603     		.2byte	0x336
 2615 0b2a 560B0000 		.4byte	0xb56
 2616 0b2e 0E       		.uleb128 0xe
 2617 0b2f EF0F0000 		.4byte	.LASF287
 2618 0b33 05       		.byte	0x5
 2619 0b34 3703     		.2byte	0x337
 2620 0b36 C40B0000 		.4byte	0xbc4
 2621 0b3a 00       		.byte	0
 2622 0b3b 0E       		.uleb128 0xe
 2623 0b3c D8040000 		.4byte	.LASF288
 2624 0b40 05       		.byte	0x5
 2625 0b41 3803     		.2byte	0x338
 2626 0b43 C40B0000 		.4byte	0xbc4
 2627 0b47 04       		.byte	0x4
 2628 0b48 0E       		.uleb128 0xe
 2629 0b49 B4010000 		.4byte	.LASF215
 2630 0b4d 05       		.byte	0x5
 2631 0b4e 3A03     		.2byte	0x33a
 2632 0b50 41010000 		.4byte	0x141
 2633 0b54 08       		.byte	0x8
 2634 0b55 00       		.byte	0
 2635 0b56 09       		.uleb128 0x9
 2636 0b57 600F0000 		.4byte	.LASF289
 2637 0b5b 05       		.byte	0x5
 2638 0b5c EE02     		.2byte	0x2ee
 2639 0b5e 620B0000 		.4byte	0xb62
 2640 0b62 0D       		.uleb128 0xd
 2641 0b63 15050000 		.4byte	.LASF290
 2642 0b67 20       		.byte	0x20
 2643 0b68 05       		.byte	0x5
 2644 0b69 4E03     		.2byte	0x34e
 2645 0b6b BE0B0000 		.4byte	0xbbe
 2646 0b6f 0E       		.uleb128 0xe
 2647 0b70 670A0000 		.4byte	.LASF219
ARM GAS  C:\Users\ADMINI~1\AppData\Local\Temp\cc8eYrCa.s 			page 60


 2648 0b74 05       		.byte	0x5
 2649 0b75 5003     		.2byte	0x350
 2650 0b77 4C010000 		.4byte	0x14c
 2651 0b7b 00       		.byte	0
 2652 0b7c 0E       		.uleb128 0xe
 2653 0b7d 4B0A0000 		.4byte	.LASF220
 2654 0b81 05       		.byte	0x5
 2655 0b82 5303     		.2byte	0x353
 2656 0b84 D00B0000 		.4byte	0xbd0
 2657 0b88 04       		.byte	0x4
 2658 0b89 0E       		.uleb128 0xe
 2659 0b8a 900F0000 		.4byte	.LASF221
 2660 0b8e 05       		.byte	0x5
 2661 0b8f 5503     		.2byte	0x355
 2662 0b91 150B0000 		.4byte	0xb15
 2663 0b95 08       		.byte	0x8
 2664 0b96 0E       		.uleb128 0xe
 2665 0b97 E2030000 		.4byte	.LASF222
 2666 0b9b 05       		.byte	0x5
 2667 0b9c 5703     		.2byte	0x357
 2668 0b9e AF000000 		.4byte	0xaf
 2669 0ba2 14       		.byte	0x14
 2670 0ba3 0E       		.uleb128 0xe
 2671 0ba4 FA030000 		.4byte	.LASF223
 2672 0ba8 05       		.byte	0x5
 2673 0ba9 5803     		.2byte	0x358
 2674 0bab AF000000 		.4byte	0xaf
 2675 0baf 18       		.byte	0x18
 2676 0bb0 0E       		.uleb128 0xe
 2677 0bb1 06120000 		.4byte	.LASF224
 2678 0bb5 05       		.byte	0x5
 2679 0bb6 5903     		.2byte	0x359
 2680 0bb8 D00B0000 		.4byte	0xbd0
 2681 0bbc 1C       		.byte	0x1c
 2682 0bbd 00       		.byte	0
 2683 0bbe 05       		.uleb128 0x5
 2684 0bbf 04       		.byte	0x4
 2685 0bc0 A2070000 		.4byte	0x7a2
 2686 0bc4 05       		.uleb128 0x5
 2687 0bc5 04       		.byte	0x4
 2688 0bc6 930A0000 		.4byte	0xa93
 2689 0bca 05       		.uleb128 0x5
 2690 0bcb 04       		.byte	0x4
 2691 0bcc 560B0000 		.4byte	0xb56
 2692 0bd0 05       		.uleb128 0x5
 2693 0bd1 04       		.byte	0x4
 2694 0bd2 25000000 		.4byte	0x25
 2695 0bd6 05       		.uleb128 0x5
 2696 0bd7 04       		.byte	0x4
 2697 0bd8 52060000 		.4byte	0x652
 2698 0bdc 05       		.uleb128 0x5
 2699 0bdd 04       		.byte	0x4
 2700 0bde FB060000 		.4byte	0x6fb
 2701 0be2 05       		.uleb128 0x5
 2702 0be3 04       		.byte	0x4
 2703 0be4 BC000000 		.4byte	0xbc
 2704 0be8 05       		.uleb128 0x5
ARM GAS  C:\Users\ADMINI~1\AppData\Local\Temp\cc8eYrCa.s 			page 61


 2705 0be9 04       		.byte	0x4
 2706 0bea 520A0000 		.4byte	0xa52
 2707 0bee 10       		.uleb128 0x10
 2708 0bef 6D010000 		.4byte	0x16d
 2709 0bf3 FE0B0000 		.4byte	0xbfe
 2710 0bf7 11       		.uleb128 0x11
 2711 0bf8 FE0B0000 		.4byte	0xbfe
 2712 0bfc 00       		.byte	0
 2713 0bfd 00       		.byte	0
 2714 0bfe 03       		.uleb128 0x3
 2715 0bff 04       		.byte	0x4
 2716 0c00 07       		.byte	0x7
 2717 0c01 89100000 		.4byte	.LASF291
 2718 0c05 12       		.uleb128 0x12
 2719 0c06 9D090000 		.4byte	.LASF297
 2720 0c0a 01       		.byte	0x1
 2721 0c0b 42       		.byte	0x42
 2722 0c0c 00000000 		.4byte	.LFB0
 2723 0c10 84000000 		.4byte	.LFE0-.LFB0
 2724 0c14 01       		.uleb128 0x1
 2725 0c15 9C       		.byte	0x9c
 2726 0c16 7D0C0000 		.4byte	0xc7d
 2727 0c1a 13       		.uleb128 0x13
 2728 0c1b 7C100000 		.4byte	.LASF299
 2729 0c1f 01       		.byte	0x1
 2730 0c20 42       		.byte	0x42
 2731 0c21 AF000000 		.4byte	0xaf
 2732 0c25 02       		.uleb128 0x2
 2733 0c26 91       		.byte	0x91
 2734 0c27 5C       		.sleb128 -36
 2735 0c28 14       		.uleb128 0x14
 2736 0c29 65727200 		.ascii	"err\000"
 2737 0c2d 01       		.byte	0x1
 2738 0c2e 44       		.byte	0x44
 2739 0c2f 46060000 		.4byte	0x646
 2740 0c33 02       		.uleb128 0x2
 2741 0c34 91       		.byte	0x91
 2742 0c35 62       		.sleb128 -30
 2743 0c36 15       		.uleb128 0x15
 2744 0c37 D1060000 		.4byte	.LASF292
 2745 0c3b 01       		.byte	0x1
 2746 0c3c 46       		.byte	0x46
 2747 0c3d E9000000 		.4byte	0xe9
 2748 0c41 02       		.uleb128 0x2
 2749 0c42 91       		.byte	0x91
 2750 0c43 64       		.sleb128 -28
 2751 0c44 15       		.uleb128 0x15
 2752 0c45 84090000 		.4byte	.LASF293
 2753 0c49 01       		.byte	0x1
 2754 0c4a 47       		.byte	0x47
 2755 0c4b E9000000 		.4byte	0xe9
 2756 0c4f 02       		.uleb128 0x2
 2757 0c50 91       		.byte	0x91
 2758 0c51 6C       		.sleb128 -20
 2759 0c52 15       		.uleb128 0x15
 2760 0c53 0B0C0000 		.4byte	.LASF294
 2761 0c57 01       		.byte	0x1
ARM GAS  C:\Users\ADMINI~1\AppData\Local\Temp\cc8eYrCa.s 			page 62


 2762 0c58 48       		.byte	0x48
 2763 0c59 E9000000 		.4byte	0xe9
 2764 0c5d 02       		.uleb128 0x2
 2765 0c5e 91       		.byte	0x91
 2766 0c5f 68       		.sleb128 -24
 2767 0c60 15       		.uleb128 0x15
 2768 0c61 ED080000 		.4byte	.LASF295
 2769 0c65 01       		.byte	0x1
 2770 0c66 4E       		.byte	0x4e
 2771 0c67 99010000 		.4byte	0x199
 2772 0c6b 02       		.uleb128 0x2
 2773 0c6c 91       		.byte	0x91
 2774 0c6d 70       		.sleb128 -16
 2775 0c6e 15       		.uleb128 0x15
 2776 0c6f F3050000 		.4byte	.LASF296
 2777 0c73 01       		.byte	0x1
 2778 0c74 4F       		.byte	0x4f
 2779 0c75 D2000000 		.4byte	0xd2
 2780 0c79 02       		.uleb128 0x2
 2781 0c7a 91       		.byte	0x91
 2782 0c7b 74       		.sleb128 -12
 2783 0c7c 00       		.byte	0
 2784 0c7d 12       		.uleb128 0x12
 2785 0c7e A8110000 		.4byte	.LASF298
 2786 0c82 01       		.byte	0x1
 2787 0c83 9B       		.byte	0x9b
 2788 0c84 00000000 		.4byte	.LFB1
 2789 0c88 E4000000 		.4byte	.LFE1-.LFB1
 2790 0c8c 01       		.uleb128 0x1
 2791 0c8d 9C       		.byte	0x9c
 2792 0c8e A10C0000 		.4byte	0xca1
 2793 0c92 13       		.uleb128 0x13
 2794 0c93 64090000 		.4byte	.LASF300
 2795 0c97 01       		.byte	0x1
 2796 0c98 9B       		.byte	0x9b
 2797 0c99 A10C0000 		.4byte	0xca1
 2798 0c9d 02       		.uleb128 0x2
 2799 0c9e 91       		.byte	0x91
 2800 0c9f 64       		.sleb128 -28
 2801 0ca0 00       		.byte	0
 2802 0ca1 05       		.uleb128 0x5
 2803 0ca2 04       		.byte	0x4
 2804 0ca3 46060000 		.4byte	0x646
 2805 0ca7 16       		.uleb128 0x16
 2806 0ca8 310D0000 		.4byte	.LASF301
 2807 0cac 01       		.byte	0x1
 2808 0cad E0       		.byte	0xe0
 2809 0cae 00000000 		.4byte	.LFB2
 2810 0cb2 2A010000 		.4byte	.LFE2-.LFB2
 2811 0cb6 01       		.uleb128 0x1
 2812 0cb7 9C       		.byte	0x9c
 2813 0cb8 110D0000 		.4byte	0xd11
 2814 0cbc 13       		.uleb128 0x13
 2815 0cbd 11110000 		.4byte	.LASF302
 2816 0cc1 01       		.byte	0x1
 2817 0cc2 E0       		.byte	0xe0
 2818 0cc3 E80B0000 		.4byte	0xbe8
ARM GAS  C:\Users\ADMINI~1\AppData\Local\Temp\cc8eYrCa.s 			page 63


 2819 0cc7 02       		.uleb128 0x2
 2820 0cc8 91       		.byte	0x91
 2821 0cc9 64       		.sleb128 -28
 2822 0cca 13       		.uleb128 0x13
 2823 0ccb D60A0000 		.4byte	.LASF303
 2824 0ccf 01       		.byte	0x1
 2825 0cd0 E1       		.byte	0xe1
 2826 0cd1 BE0B0000 		.4byte	0xbbe
 2827 0cd5 02       		.uleb128 0x2
 2828 0cd6 91       		.byte	0x91
 2829 0cd7 60       		.sleb128 -32
 2830 0cd8 13       		.uleb128 0x13
 2831 0cd9 EE050000 		.4byte	.LASF304
 2832 0cdd 01       		.byte	0x1
 2833 0cde E2       		.byte	0xe2
 2834 0cdf 99010000 		.4byte	0x199
 2835 0ce3 02       		.uleb128 0x2
 2836 0ce4 91       		.byte	0x91
 2837 0ce5 5C       		.sleb128 -36
 2838 0ce6 15       		.uleb128 0x15
 2839 0ce7 33120000 		.4byte	.LASF305
 2840 0ceb 01       		.byte	0x1
 2841 0cec E4       		.byte	0xe4
 2842 0ced BE0B0000 		.4byte	0xbbe
 2843 0cf1 02       		.uleb128 0x2
 2844 0cf2 91       		.byte	0x91
 2845 0cf3 74       		.sleb128 -12
 2846 0cf4 15       		.uleb128 0x15
 2847 0cf5 3A120000 		.4byte	.LASF306
 2848 0cf9 01       		.byte	0x1
 2849 0cfa E5       		.byte	0xe5
 2850 0cfb BE0B0000 		.4byte	0xbbe
 2851 0cff 02       		.uleb128 0x2
 2852 0d00 91       		.byte	0x91
 2853 0d01 70       		.sleb128 -16
 2854 0d02 15       		.uleb128 0x15
 2855 0d03 BF0D0000 		.4byte	.LASF307
 2856 0d07 01       		.byte	0x1
 2857 0d08 E6       		.byte	0xe6
 2858 0d09 99010000 		.4byte	0x199
 2859 0d0d 02       		.uleb128 0x2
 2860 0d0e 91       		.byte	0x91
 2861 0d0f 6C       		.sleb128 -20
 2862 0d10 00       		.byte	0
 2863 0d11 17       		.uleb128 0x17
 2864 0d12 71080000 		.4byte	.LASF308
 2865 0d16 01       		.byte	0x1
 2866 0d17 5F01     		.2byte	0x15f
 2867 0d19 00000000 		.4byte	.LFB3
 2868 0d1d 00010000 		.4byte	.LFE3-.LFB3
 2869 0d21 01       		.uleb128 0x1
 2870 0d22 9C       		.byte	0x9c
 2871 0d23 820D0000 		.4byte	0xd82
 2872 0d27 18       		.uleb128 0x18
 2873 0d28 D60A0000 		.4byte	.LASF303
 2874 0d2c 01       		.byte	0x1
 2875 0d2d 5F01     		.2byte	0x15f
ARM GAS  C:\Users\ADMINI~1\AppData\Local\Temp\cc8eYrCa.s 			page 64


 2876 0d2f BE0B0000 		.4byte	0xbbe
 2877 0d33 02       		.uleb128 0x2
 2878 0d34 91       		.byte	0x91
 2879 0d35 64       		.sleb128 -28
 2880 0d36 18       		.uleb128 0x18
 2881 0d37 EE050000 		.4byte	.LASF304
 2882 0d3b 01       		.byte	0x1
 2883 0d3c 6001     		.2byte	0x160
 2884 0d3e 99010000 		.4byte	0x199
 2885 0d42 02       		.uleb128 0x2
 2886 0d43 91       		.byte	0x91
 2887 0d44 60       		.sleb128 -32
 2888 0d45 19       		.uleb128 0x19
 2889 0d46 6F707400 		.ascii	"opt\000"
 2890 0d4a 01       		.byte	0x1
 2891 0d4b 6101     		.2byte	0x161
 2892 0d4d 57010000 		.4byte	0x157
 2893 0d51 02       		.uleb128 0x2
 2894 0d52 91       		.byte	0x91
 2895 0d53 5E       		.sleb128 -34
 2896 0d54 18       		.uleb128 0x18
 2897 0d55 64090000 		.4byte	.LASF300
 2898 0d59 01       		.byte	0x1
 2899 0d5a 6201     		.2byte	0x162
 2900 0d5c A10C0000 		.4byte	0xca1
 2901 0d60 02       		.uleb128 0x2
 2902 0d61 91       		.byte	0x91
 2903 0d62 58       		.sleb128 -40
 2904 0d63 1A       		.uleb128 0x1a
 2905 0d64 BF0D0000 		.4byte	.LASF307
 2906 0d68 01       		.byte	0x1
 2907 0d69 6401     		.2byte	0x164
 2908 0d6b 99010000 		.4byte	0x199
 2909 0d6f 02       		.uleb128 0x2
 2910 0d70 91       		.byte	0x91
 2911 0d71 6C       		.sleb128 -20
 2912 0d72 1A       		.uleb128 0x1a
 2913 0d73 990B0000 		.4byte	.LASF309
 2914 0d77 01       		.byte	0x1
 2915 0d78 6501     		.2byte	0x165
 2916 0d7a 99010000 		.4byte	0x199
 2917 0d7e 02       		.uleb128 0x2
 2918 0d7f 91       		.byte	0x91
 2919 0d80 68       		.sleb128 -24
 2920 0d81 00       		.byte	0
 2921 0d82 1B       		.uleb128 0x1b
 2922 0d83 43130000 		.4byte	.LASF310
 2923 0d87 01       		.byte	0x1
 2924 0d88 A201     		.2byte	0x1a2
 2925 0d8a 00000000 		.4byte	.LFB4
 2926 0d8e C6000000 		.4byte	.LFE4-.LFB4
 2927 0d92 01       		.uleb128 0x1
 2928 0d93 9C       		.byte	0x9c
 2929 0d94 D50D0000 		.4byte	0xdd5
 2930 0d98 18       		.uleb128 0x18
 2931 0d99 D60A0000 		.4byte	.LASF303
 2932 0d9d 01       		.byte	0x1
ARM GAS  C:\Users\ADMINI~1\AppData\Local\Temp\cc8eYrCa.s 			page 65


 2933 0d9e A201     		.2byte	0x1a2
 2934 0da0 BE0B0000 		.4byte	0xbbe
 2935 0da4 02       		.uleb128 0x2
 2936 0da5 91       		.byte	0x91
 2937 0da6 64       		.sleb128 -28
 2938 0da7 1A       		.uleb128 0x1a
 2939 0da8 11110000 		.4byte	.LASF302
 2940 0dac 01       		.byte	0x1
 2941 0dad A401     		.2byte	0x1a4
 2942 0daf E80B0000 		.4byte	0xbe8
 2943 0db3 02       		.uleb128 0x2
 2944 0db4 91       		.byte	0x91
 2945 0db5 74       		.sleb128 -12
 2946 0db6 1A       		.uleb128 0x1a
 2947 0db7 33120000 		.4byte	.LASF305
 2948 0dbb 01       		.byte	0x1
 2949 0dbc A501     		.2byte	0x1a5
 2950 0dbe BE0B0000 		.4byte	0xbbe
 2951 0dc2 02       		.uleb128 0x2
 2952 0dc3 91       		.byte	0x91
 2953 0dc4 70       		.sleb128 -16
 2954 0dc5 1A       		.uleb128 0x1a
 2955 0dc6 3A120000 		.4byte	.LASF306
 2956 0dca 01       		.byte	0x1
 2957 0dcb A601     		.2byte	0x1a6
 2958 0dcd BE0B0000 		.4byte	0xbbe
 2959 0dd1 02       		.uleb128 0x2
 2960 0dd2 91       		.byte	0x91
 2961 0dd3 6C       		.sleb128 -20
 2962 0dd4 00       		.byte	0
 2963 0dd5 1C       		.uleb128 0x1c
 2964 0dd6 F70F0000 		.4byte	.LASF314
 2965 0dda 01       		.byte	0x1
 2966 0ddb DD01     		.2byte	0x1dd
 2967 0ddd E9000000 		.4byte	0xe9
 2968 0de1 00000000 		.4byte	.LFB5
 2969 0de5 10010000 		.4byte	.LFE5-.LFB5
 2970 0de9 01       		.uleb128 0x1
 2971 0dea 9C       		.byte	0x9c
 2972 0deb 4A0E0000 		.4byte	0xe4a
 2973 0def 18       		.uleb128 0x18
 2974 0df0 39090000 		.4byte	.LASF311
 2975 0df4 01       		.byte	0x1
 2976 0df5 DD01     		.2byte	0x1dd
 2977 0df7 99010000 		.4byte	0x199
 2978 0dfb 02       		.uleb128 0x2
 2979 0dfc 91       		.byte	0x91
 2980 0dfd 5C       		.sleb128 -36
 2981 0dfe 1A       		.uleb128 0x1a
 2982 0dff D60A0000 		.4byte	.LASF303
 2983 0e03 01       		.byte	0x1
 2984 0e04 DF01     		.2byte	0x1df
 2985 0e06 BE0B0000 		.4byte	0xbbe
 2986 0e0a 02       		.uleb128 0x2
 2987 0e0b 91       		.byte	0x91
 2988 0e0c 74       		.sleb128 -12
 2989 0e0d 1A       		.uleb128 0x1a
ARM GAS  C:\Users\ADMINI~1\AppData\Local\Temp\cc8eYrCa.s 			page 66


 2990 0e0e 11110000 		.4byte	.LASF302
 2991 0e12 01       		.byte	0x1
 2992 0e13 E001     		.2byte	0x1e0
 2993 0e15 E80B0000 		.4byte	0xbe8
 2994 0e19 02       		.uleb128 0x2
 2995 0e1a 91       		.byte	0x91
 2996 0e1b 68       		.sleb128 -24
 2997 0e1c 1A       		.uleb128 0x1a
 2998 0e1d 7B040000 		.4byte	.LASF312
 2999 0e21 01       		.byte	0x1
 3000 0e22 E201     		.2byte	0x1e2
 3001 0e24 E9000000 		.4byte	0xe9
 3002 0e28 02       		.uleb128 0x2
 3003 0e29 91       		.byte	0x91
 3004 0e2a 6C       		.sleb128 -20
 3005 0e2b 1A       		.uleb128 0x1a
 3006 0e2c 84090000 		.4byte	.LASF293
 3007 0e30 01       		.byte	0x1
 3008 0e31 E301     		.2byte	0x1e3
 3009 0e33 E9000000 		.4byte	0xe9
 3010 0e37 02       		.uleb128 0x2
 3011 0e38 91       		.byte	0x91
 3012 0e39 64       		.sleb128 -28
 3013 0e3a 1A       		.uleb128 0x1a
 3014 0e3b F3010000 		.4byte	.LASF313
 3015 0e3f 01       		.byte	0x1
 3016 0e40 E601     		.2byte	0x1e6
 3017 0e42 41010000 		.4byte	0x141
 3018 0e46 02       		.uleb128 0x2
 3019 0e47 91       		.byte	0x91
 3020 0e48 72       		.sleb128 -14
 3021 0e49 00       		.byte	0
 3022 0e4a 1C       		.uleb128 0x1c
 3023 0e4b A4040000 		.4byte	.LASF315
 3024 0e4f 01       		.byte	0x1
 3025 0e50 3802     		.2byte	0x238
 3026 0e52 E9000000 		.4byte	0xe9
 3027 0e56 00000000 		.4byte	.LFB6
 3028 0e5a D0010000 		.4byte	.LFE6-.LFB6
 3029 0e5e 01       		.uleb128 0x1
 3030 0e5f 9C       		.byte	0x9c
 3031 0e60 DD0E0000 		.4byte	0xedd
 3032 0e64 18       		.uleb128 0x18
 3033 0e65 39090000 		.4byte	.LASF311
 3034 0e69 01       		.byte	0x1
 3035 0e6a 3802     		.2byte	0x238
 3036 0e6c 99010000 		.4byte	0x199
 3037 0e70 02       		.uleb128 0x2
 3038 0e71 91       		.byte	0x91
 3039 0e72 4C       		.sleb128 -52
 3040 0e73 1A       		.uleb128 0x1a
 3041 0e74 D60A0000 		.4byte	.LASF303
 3042 0e78 01       		.byte	0x1
 3043 0e79 3A02     		.2byte	0x23a
 3044 0e7b BE0B0000 		.4byte	0xbbe
 3045 0e7f 02       		.uleb128 0x2
 3046 0e80 91       		.byte	0x91
ARM GAS  C:\Users\ADMINI~1\AppData\Local\Temp\cc8eYrCa.s 			page 67


 3047 0e81 6C       		.sleb128 -20
 3048 0e82 1A       		.uleb128 0x1a
 3049 0e83 11110000 		.4byte	.LASF302
 3050 0e87 01       		.byte	0x1
 3051 0e88 3B02     		.2byte	0x23b
 3052 0e8a E80B0000 		.4byte	0xbe8
 3053 0e8e 02       		.uleb128 0x2
 3054 0e8f 91       		.byte	0x91
 3055 0e90 5C       		.sleb128 -36
 3056 0e91 1A       		.uleb128 0x1a
 3057 0e92 7B040000 		.4byte	.LASF312
 3058 0e96 01       		.byte	0x1
 3059 0e97 3D02     		.2byte	0x23d
 3060 0e99 E9000000 		.4byte	0xe9
 3061 0e9d 02       		.uleb128 0x2
 3062 0e9e 91       		.byte	0x91
 3063 0e9f 60       		.sleb128 -32
 3064 0ea0 1A       		.uleb128 0x1a
 3065 0ea1 0B0C0000 		.4byte	.LASF294
 3066 0ea5 01       		.byte	0x1
 3067 0ea6 3E02     		.2byte	0x23e
 3068 0ea8 E9000000 		.4byte	0xe9
 3069 0eac 02       		.uleb128 0x2
 3070 0ead 91       		.byte	0x91
 3071 0eae 54       		.sleb128 -44
 3072 0eaf 1A       		.uleb128 0x1a
 3073 0eb0 F3010000 		.4byte	.LASF313
 3074 0eb4 01       		.byte	0x1
 3075 0eb5 4102     		.2byte	0x241
 3076 0eb7 41010000 		.4byte	0x141
 3077 0ebb 02       		.uleb128 0x2
 3078 0ebc 91       		.byte	0x91
 3079 0ebd 6A       		.sleb128 -22
 3080 0ebe 1A       		.uleb128 0x1a
 3081 0ebf BF0F0000 		.4byte	.LASF316
 3082 0ec3 01       		.byte	0x1
 3083 0ec4 4402     		.2byte	0x244
 3084 0ec6 BE0B0000 		.4byte	0xbbe
 3085 0eca 02       		.uleb128 0x2
 3086 0ecb 91       		.byte	0x91
 3087 0ecc 64       		.sleb128 -28
 3088 0ecd 1A       		.uleb128 0x1a
 3089 0ece DB0F0000 		.4byte	.LASF317
 3090 0ed2 01       		.byte	0x1
 3091 0ed3 4502     		.2byte	0x245
 3092 0ed5 62010000 		.4byte	0x162
 3093 0ed9 02       		.uleb128 0x2
 3094 0eda 91       		.byte	0x91
 3095 0edb 5B       		.sleb128 -37
 3096 0edc 00       		.byte	0
 3097 0edd 1D       		.uleb128 0x1d
 3098 0ede D10F0000 		.4byte	.LASF318
 3099 0ee2 05       		.byte	0x5
 3100 0ee3 AD05     		.2byte	0x5ad
 3101 0ee5 99010000 		.4byte	0x199
 3102 0ee9 1D       		.uleb128 0x1d
 3103 0eea 70020000 		.4byte	.LASF319
ARM GAS  C:\Users\ADMINI~1\AppData\Local\Temp\cc8eYrCa.s 			page 68


 3104 0eee 05       		.byte	0x5
 3105 0eef B205     		.2byte	0x5b2
 3106 0ef1 A2070000 		.4byte	0x7a2
 3107 0ef5 1D       		.uleb128 0x1d
 3108 0ef6 EE100000 		.4byte	.LASF320
 3109 0efa 05       		.byte	0x5
 3110 0efb B405     		.2byte	0x5b4
 3111 0efd E9000000 		.4byte	0xe9
 3112 0f01 1D       		.uleb128 0x1d
 3113 0f02 95030000 		.4byte	.LASF321
 3114 0f06 05       		.byte	0x5
 3115 0f07 B605     		.2byte	0x5b6
 3116 0f09 520A0000 		.4byte	0xa52
 3117 0f0d 1D       		.uleb128 0x1d
 3118 0f0e 2A040000 		.4byte	.LASF322
 3119 0f12 05       		.byte	0x5
 3120 0f13 B705     		.2byte	0x5b7
 3121 0f15 520A0000 		.4byte	0xa52
 3122 0f19 1D       		.uleb128 0x1d
 3123 0f1a 880C0000 		.4byte	.LASF323
 3124 0f1e 05       		.byte	0x5
 3125 0f1f FD05     		.2byte	0x5fd
 3126 0f21 250F0000 		.4byte	0xf25
 3127 0f25 1E       		.uleb128 0x1e
 3128 0f26 C7000000 		.4byte	0xc7
 3129 0f2a 1D       		.uleb128 0x1d
 3130 0f2b 89110000 		.4byte	.LASF324
 3131 0f2f 05       		.byte	0x5
 3132 0f30 0006     		.2byte	0x600
 3133 0f32 360F0000 		.4byte	0xf36
 3134 0f36 1E       		.uleb128 0x1e
 3135 0f37 62010000 		.4byte	0x162
 3136 0f3b 1D       		.uleb128 0x1d
 3137 0f3c 6C0A0000 		.4byte	.LASF325
 3138 0f40 05       		.byte	0x5
 3139 0f41 0106     		.2byte	0x601
 3140 0f43 470F0000 		.4byte	0xf47
 3141 0f47 1E       		.uleb128 0x1e
 3142 0f48 E20B0000 		.4byte	0xbe2
 3143 0f4c 1D       		.uleb128 0x1d
 3144 0f4d 9D010000 		.4byte	.LASF326
 3145 0f51 05       		.byte	0x5
 3146 0f52 0206     		.2byte	0x602
 3147 0f54 250F0000 		.4byte	0xf25
 3148 0f58 1D       		.uleb128 0x1d
 3149 0f59 E60D0000 		.4byte	.LASF327
 3150 0f5d 05       		.byte	0x5
 3151 0f5e 0306     		.2byte	0x603
 3152 0f60 250F0000 		.4byte	0xf25
 3153 0f64 00       		.byte	0
 3154              		.section	.debug_abbrev,"",%progbits
 3155              	.Ldebug_abbrev0:
 3156 0000 01       		.uleb128 0x1
 3157 0001 11       		.uleb128 0x11
 3158 0002 01       		.byte	0x1
 3159 0003 25       		.uleb128 0x25
 3160 0004 0E       		.uleb128 0xe
ARM GAS  C:\Users\ADMINI~1\AppData\Local\Temp\cc8eYrCa.s 			page 69


 3161 0005 13       		.uleb128 0x13
 3162 0006 0B       		.uleb128 0xb
 3163 0007 03       		.uleb128 0x3
 3164 0008 0E       		.uleb128 0xe
 3165 0009 1B       		.uleb128 0x1b
 3166 000a 0E       		.uleb128 0xe
 3167 000b 55       		.uleb128 0x55
 3168 000c 17       		.uleb128 0x17
 3169 000d 11       		.uleb128 0x11
 3170 000e 01       		.uleb128 0x1
 3171 000f 10       		.uleb128 0x10
 3172 0010 17       		.uleb128 0x17
 3173 0011 00       		.byte	0
 3174 0012 00       		.byte	0
 3175 0013 02       		.uleb128 0x2
 3176 0014 16       		.uleb128 0x16
 3177 0015 00       		.byte	0
 3178 0016 03       		.uleb128 0x3
 3179 0017 0E       		.uleb128 0xe
 3180 0018 3A       		.uleb128 0x3a
 3181 0019 0B       		.uleb128 0xb
 3182 001a 3B       		.uleb128 0x3b
 3183 001b 0B       		.uleb128 0xb
 3184 001c 49       		.uleb128 0x49
 3185 001d 13       		.uleb128 0x13
 3186 001e 00       		.byte	0
 3187 001f 00       		.byte	0
 3188 0020 03       		.uleb128 0x3
 3189 0021 24       		.uleb128 0x24
 3190 0022 00       		.byte	0
 3191 0023 0B       		.uleb128 0xb
 3192 0024 0B       		.uleb128 0xb
 3193 0025 3E       		.uleb128 0x3e
 3194 0026 0B       		.uleb128 0xb
 3195 0027 03       		.uleb128 0x3
 3196 0028 0E       		.uleb128 0xe
 3197 0029 00       		.byte	0
 3198 002a 00       		.byte	0
 3199 002b 04       		.uleb128 0x4
 3200 002c 24       		.uleb128 0x24
 3201 002d 00       		.byte	0
 3202 002e 0B       		.uleb128 0xb
 3203 002f 0B       		.uleb128 0xb
 3204 0030 3E       		.uleb128 0x3e
 3205 0031 0B       		.uleb128 0xb
 3206 0032 03       		.uleb128 0x3
 3207 0033 08       		.uleb128 0x8
 3208 0034 00       		.byte	0
 3209 0035 00       		.byte	0
 3210 0036 05       		.uleb128 0x5
 3211 0037 0F       		.uleb128 0xf
 3212 0038 00       		.byte	0
 3213 0039 0B       		.uleb128 0xb
 3214 003a 0B       		.uleb128 0xb
 3215 003b 49       		.uleb128 0x49
 3216 003c 13       		.uleb128 0x13
 3217 003d 00       		.byte	0
ARM GAS  C:\Users\ADMINI~1\AppData\Local\Temp\cc8eYrCa.s 			page 70


 3218 003e 00       		.byte	0
 3219 003f 06       		.uleb128 0x6
 3220 0040 15       		.uleb128 0x15
 3221 0041 01       		.byte	0x1
 3222 0042 27       		.uleb128 0x27
 3223 0043 19       		.uleb128 0x19
 3224 0044 01       		.uleb128 0x1
 3225 0045 13       		.uleb128 0x13
 3226 0046 00       		.byte	0
 3227 0047 00       		.byte	0
 3228 0048 07       		.uleb128 0x7
 3229 0049 05       		.uleb128 0x5
 3230 004a 00       		.byte	0
 3231 004b 49       		.uleb128 0x49
 3232 004c 13       		.uleb128 0x13
 3233 004d 00       		.byte	0
 3234 004e 00       		.byte	0
 3235 004f 08       		.uleb128 0x8
 3236 0050 0F       		.uleb128 0xf
 3237 0051 00       		.byte	0
 3238 0052 0B       		.uleb128 0xb
 3239 0053 0B       		.uleb128 0xb
 3240 0054 00       		.byte	0
 3241 0055 00       		.byte	0
 3242 0056 09       		.uleb128 0x9
 3243 0057 16       		.uleb128 0x16
 3244 0058 00       		.byte	0
 3245 0059 03       		.uleb128 0x3
 3246 005a 0E       		.uleb128 0xe
 3247 005b 3A       		.uleb128 0x3a
 3248 005c 0B       		.uleb128 0xb
 3249 005d 3B       		.uleb128 0x3b
 3250 005e 05       		.uleb128 0x5
 3251 005f 49       		.uleb128 0x49
 3252 0060 13       		.uleb128 0x13
 3253 0061 00       		.byte	0
 3254 0062 00       		.byte	0
 3255 0063 0A       		.uleb128 0xa
 3256 0064 04       		.uleb128 0x4
 3257 0065 01       		.byte	0x1
 3258 0066 03       		.uleb128 0x3
 3259 0067 0E       		.uleb128 0xe
 3260 0068 0B       		.uleb128 0xb
 3261 0069 0B       		.uleb128 0xb
 3262 006a 49       		.uleb128 0x49
 3263 006b 13       		.uleb128 0x13
 3264 006c 3A       		.uleb128 0x3a
 3265 006d 0B       		.uleb128 0xb
 3266 006e 3B       		.uleb128 0x3b
 3267 006f 05       		.uleb128 0x5
 3268 0070 01       		.uleb128 0x1
 3269 0071 13       		.uleb128 0x13
 3270 0072 00       		.byte	0
 3271 0073 00       		.byte	0
 3272 0074 0B       		.uleb128 0xb
 3273 0075 28       		.uleb128 0x28
 3274 0076 00       		.byte	0
ARM GAS  C:\Users\ADMINI~1\AppData\Local\Temp\cc8eYrCa.s 			page 71


 3275 0077 03       		.uleb128 0x3
 3276 0078 0E       		.uleb128 0xe
 3277 0079 1C       		.uleb128 0x1c
 3278 007a 0B       		.uleb128 0xb
 3279 007b 00       		.byte	0
 3280 007c 00       		.byte	0
 3281 007d 0C       		.uleb128 0xc
 3282 007e 28       		.uleb128 0x28
 3283 007f 00       		.byte	0
 3284 0080 03       		.uleb128 0x3
 3285 0081 0E       		.uleb128 0xe
 3286 0082 1C       		.uleb128 0x1c
 3287 0083 05       		.uleb128 0x5
 3288 0084 00       		.byte	0
 3289 0085 00       		.byte	0
 3290 0086 0D       		.uleb128 0xd
 3291 0087 13       		.uleb128 0x13
 3292 0088 01       		.byte	0x1
 3293 0089 03       		.uleb128 0x3
 3294 008a 0E       		.uleb128 0xe
 3295 008b 0B       		.uleb128 0xb
 3296 008c 0B       		.uleb128 0xb
 3297 008d 3A       		.uleb128 0x3a
 3298 008e 0B       		.uleb128 0xb
 3299 008f 3B       		.uleb128 0x3b
 3300 0090 05       		.uleb128 0x5
 3301 0091 01       		.uleb128 0x1
 3302 0092 13       		.uleb128 0x13
 3303 0093 00       		.byte	0
 3304 0094 00       		.byte	0
 3305 0095 0E       		.uleb128 0xe
 3306 0096 0D       		.uleb128 0xd
 3307 0097 00       		.byte	0
 3308 0098 03       		.uleb128 0x3
 3309 0099 0E       		.uleb128 0xe
 3310 009a 3A       		.uleb128 0x3a
 3311 009b 0B       		.uleb128 0xb
 3312 009c 3B       		.uleb128 0x3b
 3313 009d 05       		.uleb128 0x5
 3314 009e 49       		.uleb128 0x49
 3315 009f 13       		.uleb128 0x13
 3316 00a0 38       		.uleb128 0x38
 3317 00a1 0B       		.uleb128 0xb
 3318 00a2 00       		.byte	0
 3319 00a3 00       		.byte	0
 3320 00a4 0F       		.uleb128 0xf
 3321 00a5 0D       		.uleb128 0xd
 3322 00a6 00       		.byte	0
 3323 00a7 03       		.uleb128 0x3
 3324 00a8 08       		.uleb128 0x8
 3325 00a9 3A       		.uleb128 0x3a
 3326 00aa 0B       		.uleb128 0xb
 3327 00ab 3B       		.uleb128 0x3b
 3328 00ac 05       		.uleb128 0x5
 3329 00ad 49       		.uleb128 0x49
 3330 00ae 13       		.uleb128 0x13
 3331 00af 38       		.uleb128 0x38
ARM GAS  C:\Users\ADMINI~1\AppData\Local\Temp\cc8eYrCa.s 			page 72


 3332 00b0 0B       		.uleb128 0xb
 3333 00b1 00       		.byte	0
 3334 00b2 00       		.byte	0
 3335 00b3 10       		.uleb128 0x10
 3336 00b4 01       		.uleb128 0x1
 3337 00b5 01       		.byte	0x1
 3338 00b6 49       		.uleb128 0x49
 3339 00b7 13       		.uleb128 0x13
 3340 00b8 01       		.uleb128 0x1
 3341 00b9 13       		.uleb128 0x13
 3342 00ba 00       		.byte	0
 3343 00bb 00       		.byte	0
 3344 00bc 11       		.uleb128 0x11
 3345 00bd 21       		.uleb128 0x21
 3346 00be 00       		.byte	0
 3347 00bf 49       		.uleb128 0x49
 3348 00c0 13       		.uleb128 0x13
 3349 00c1 2F       		.uleb128 0x2f
 3350 00c2 0B       		.uleb128 0xb
 3351 00c3 00       		.byte	0
 3352 00c4 00       		.byte	0
 3353 00c5 12       		.uleb128 0x12
 3354 00c6 2E       		.uleb128 0x2e
 3355 00c7 01       		.byte	0x1
 3356 00c8 3F       		.uleb128 0x3f
 3357 00c9 19       		.uleb128 0x19
 3358 00ca 03       		.uleb128 0x3
 3359 00cb 0E       		.uleb128 0xe
 3360 00cc 3A       		.uleb128 0x3a
 3361 00cd 0B       		.uleb128 0xb
 3362 00ce 3B       		.uleb128 0x3b
 3363 00cf 0B       		.uleb128 0xb
 3364 00d0 27       		.uleb128 0x27
 3365 00d1 19       		.uleb128 0x19
 3366 00d2 11       		.uleb128 0x11
 3367 00d3 01       		.uleb128 0x1
 3368 00d4 12       		.uleb128 0x12
 3369 00d5 06       		.uleb128 0x6
 3370 00d6 40       		.uleb128 0x40
 3371 00d7 18       		.uleb128 0x18
 3372 00d8 9642     		.uleb128 0x2116
 3373 00da 19       		.uleb128 0x19
 3374 00db 01       		.uleb128 0x1
 3375 00dc 13       		.uleb128 0x13
 3376 00dd 00       		.byte	0
 3377 00de 00       		.byte	0
 3378 00df 13       		.uleb128 0x13
 3379 00e0 05       		.uleb128 0x5
 3380 00e1 00       		.byte	0
 3381 00e2 03       		.uleb128 0x3
 3382 00e3 0E       		.uleb128 0xe
 3383 00e4 3A       		.uleb128 0x3a
 3384 00e5 0B       		.uleb128 0xb
 3385 00e6 3B       		.uleb128 0x3b
 3386 00e7 0B       		.uleb128 0xb
 3387 00e8 49       		.uleb128 0x49
 3388 00e9 13       		.uleb128 0x13
ARM GAS  C:\Users\ADMINI~1\AppData\Local\Temp\cc8eYrCa.s 			page 73


 3389 00ea 02       		.uleb128 0x2
 3390 00eb 18       		.uleb128 0x18
 3391 00ec 00       		.byte	0
 3392 00ed 00       		.byte	0
 3393 00ee 14       		.uleb128 0x14
 3394 00ef 34       		.uleb128 0x34
 3395 00f0 00       		.byte	0
 3396 00f1 03       		.uleb128 0x3
 3397 00f2 08       		.uleb128 0x8
 3398 00f3 3A       		.uleb128 0x3a
 3399 00f4 0B       		.uleb128 0xb
 3400 00f5 3B       		.uleb128 0x3b
 3401 00f6 0B       		.uleb128 0xb
 3402 00f7 49       		.uleb128 0x49
 3403 00f8 13       		.uleb128 0x13
 3404 00f9 02       		.uleb128 0x2
 3405 00fa 18       		.uleb128 0x18
 3406 00fb 00       		.byte	0
 3407 00fc 00       		.byte	0
 3408 00fd 15       		.uleb128 0x15
 3409 00fe 34       		.uleb128 0x34
 3410 00ff 00       		.byte	0
 3411 0100 03       		.uleb128 0x3
 3412 0101 0E       		.uleb128 0xe
 3413 0102 3A       		.uleb128 0x3a
 3414 0103 0B       		.uleb128 0xb
 3415 0104 3B       		.uleb128 0x3b
 3416 0105 0B       		.uleb128 0xb
 3417 0106 49       		.uleb128 0x49
 3418 0107 13       		.uleb128 0x13
 3419 0108 02       		.uleb128 0x2
 3420 0109 18       		.uleb128 0x18
 3421 010a 00       		.byte	0
 3422 010b 00       		.byte	0
 3423 010c 16       		.uleb128 0x16
 3424 010d 2E       		.uleb128 0x2e
 3425 010e 01       		.byte	0x1
 3426 010f 3F       		.uleb128 0x3f
 3427 0110 19       		.uleb128 0x19
 3428 0111 03       		.uleb128 0x3
 3429 0112 0E       		.uleb128 0xe
 3430 0113 3A       		.uleb128 0x3a
 3431 0114 0B       		.uleb128 0xb
 3432 0115 3B       		.uleb128 0x3b
 3433 0116 0B       		.uleb128 0xb
 3434 0117 27       		.uleb128 0x27
 3435 0118 19       		.uleb128 0x19
 3436 0119 11       		.uleb128 0x11
 3437 011a 01       		.uleb128 0x1
 3438 011b 12       		.uleb128 0x12
 3439 011c 06       		.uleb128 0x6
 3440 011d 40       		.uleb128 0x40
 3441 011e 18       		.uleb128 0x18
 3442 011f 9742     		.uleb128 0x2117
 3443 0121 19       		.uleb128 0x19
 3444 0122 01       		.uleb128 0x1
 3445 0123 13       		.uleb128 0x13
ARM GAS  C:\Users\ADMINI~1\AppData\Local\Temp\cc8eYrCa.s 			page 74


 3446 0124 00       		.byte	0
 3447 0125 00       		.byte	0
 3448 0126 17       		.uleb128 0x17
 3449 0127 2E       		.uleb128 0x2e
 3450 0128 01       		.byte	0x1
 3451 0129 3F       		.uleb128 0x3f
 3452 012a 19       		.uleb128 0x19
 3453 012b 03       		.uleb128 0x3
 3454 012c 0E       		.uleb128 0xe
 3455 012d 3A       		.uleb128 0x3a
 3456 012e 0B       		.uleb128 0xb
 3457 012f 3B       		.uleb128 0x3b
 3458 0130 05       		.uleb128 0x5
 3459 0131 27       		.uleb128 0x27
 3460 0132 19       		.uleb128 0x19
 3461 0133 11       		.uleb128 0x11
 3462 0134 01       		.uleb128 0x1
 3463 0135 12       		.uleb128 0x12
 3464 0136 06       		.uleb128 0x6
 3465 0137 40       		.uleb128 0x40
 3466 0138 18       		.uleb128 0x18
 3467 0139 9642     		.uleb128 0x2116
 3468 013b 19       		.uleb128 0x19
 3469 013c 01       		.uleb128 0x1
 3470 013d 13       		.uleb128 0x13
 3471 013e 00       		.byte	0
 3472 013f 00       		.byte	0
 3473 0140 18       		.uleb128 0x18
 3474 0141 05       		.uleb128 0x5
 3475 0142 00       		.byte	0
 3476 0143 03       		.uleb128 0x3
 3477 0144 0E       		.uleb128 0xe
 3478 0145 3A       		.uleb128 0x3a
 3479 0146 0B       		.uleb128 0xb
 3480 0147 3B       		.uleb128 0x3b
 3481 0148 05       		.uleb128 0x5
 3482 0149 49       		.uleb128 0x49
 3483 014a 13       		.uleb128 0x13
 3484 014b 02       		.uleb128 0x2
 3485 014c 18       		.uleb128 0x18
 3486 014d 00       		.byte	0
 3487 014e 00       		.byte	0
 3488 014f 19       		.uleb128 0x19
 3489 0150 05       		.uleb128 0x5
 3490 0151 00       		.byte	0
 3491 0152 03       		.uleb128 0x3
 3492 0153 08       		.uleb128 0x8
 3493 0154 3A       		.uleb128 0x3a
 3494 0155 0B       		.uleb128 0xb
 3495 0156 3B       		.uleb128 0x3b
 3496 0157 05       		.uleb128 0x5
 3497 0158 49       		.uleb128 0x49
 3498 0159 13       		.uleb128 0x13
 3499 015a 02       		.uleb128 0x2
 3500 015b 18       		.uleb128 0x18
 3501 015c 00       		.byte	0
 3502 015d 00       		.byte	0
ARM GAS  C:\Users\ADMINI~1\AppData\Local\Temp\cc8eYrCa.s 			page 75


 3503 015e 1A       		.uleb128 0x1a
 3504 015f 34       		.uleb128 0x34
 3505 0160 00       		.byte	0
 3506 0161 03       		.uleb128 0x3
 3507 0162 0E       		.uleb128 0xe
 3508 0163 3A       		.uleb128 0x3a
 3509 0164 0B       		.uleb128 0xb
 3510 0165 3B       		.uleb128 0x3b
 3511 0166 05       		.uleb128 0x5
 3512 0167 49       		.uleb128 0x49
 3513 0168 13       		.uleb128 0x13
 3514 0169 02       		.uleb128 0x2
 3515 016a 18       		.uleb128 0x18
 3516 016b 00       		.byte	0
 3517 016c 00       		.byte	0
 3518 016d 1B       		.uleb128 0x1b
 3519 016e 2E       		.uleb128 0x2e
 3520 016f 01       		.byte	0x1
 3521 0170 3F       		.uleb128 0x3f
 3522 0171 19       		.uleb128 0x19
 3523 0172 03       		.uleb128 0x3
 3524 0173 0E       		.uleb128 0xe
 3525 0174 3A       		.uleb128 0x3a
 3526 0175 0B       		.uleb128 0xb
 3527 0176 3B       		.uleb128 0x3b
 3528 0177 05       		.uleb128 0x5
 3529 0178 27       		.uleb128 0x27
 3530 0179 19       		.uleb128 0x19
 3531 017a 11       		.uleb128 0x11
 3532 017b 01       		.uleb128 0x1
 3533 017c 12       		.uleb128 0x12
 3534 017d 06       		.uleb128 0x6
 3535 017e 40       		.uleb128 0x40
 3536 017f 18       		.uleb128 0x18
 3537 0180 9742     		.uleb128 0x2117
 3538 0182 19       		.uleb128 0x19
 3539 0183 01       		.uleb128 0x1
 3540 0184 13       		.uleb128 0x13
 3541 0185 00       		.byte	0
 3542 0186 00       		.byte	0
 3543 0187 1C       		.uleb128 0x1c
 3544 0188 2E       		.uleb128 0x2e
 3545 0189 01       		.byte	0x1
 3546 018a 03       		.uleb128 0x3
 3547 018b 0E       		.uleb128 0xe
 3548 018c 3A       		.uleb128 0x3a
 3549 018d 0B       		.uleb128 0xb
 3550 018e 3B       		.uleb128 0x3b
 3551 018f 05       		.uleb128 0x5
 3552 0190 27       		.uleb128 0x27
 3553 0191 19       		.uleb128 0x19
 3554 0192 49       		.uleb128 0x49
 3555 0193 13       		.uleb128 0x13
 3556 0194 11       		.uleb128 0x11
 3557 0195 01       		.uleb128 0x1
 3558 0196 12       		.uleb128 0x12
 3559 0197 06       		.uleb128 0x6
ARM GAS  C:\Users\ADMINI~1\AppData\Local\Temp\cc8eYrCa.s 			page 76


 3560 0198 40       		.uleb128 0x40
 3561 0199 18       		.uleb128 0x18
 3562 019a 9642     		.uleb128 0x2116
 3563 019c 19       		.uleb128 0x19
 3564 019d 01       		.uleb128 0x1
 3565 019e 13       		.uleb128 0x13
 3566 019f 00       		.byte	0
 3567 01a0 00       		.byte	0
 3568 01a1 1D       		.uleb128 0x1d
 3569 01a2 34       		.uleb128 0x34
 3570 01a3 00       		.byte	0
 3571 01a4 03       		.uleb128 0x3
 3572 01a5 0E       		.uleb128 0xe
 3573 01a6 3A       		.uleb128 0x3a
 3574 01a7 0B       		.uleb128 0xb
 3575 01a8 3B       		.uleb128 0x3b
 3576 01a9 05       		.uleb128 0x5
 3577 01aa 49       		.uleb128 0x49
 3578 01ab 13       		.uleb128 0x13
 3579 01ac 3F       		.uleb128 0x3f
 3580 01ad 19       		.uleb128 0x19
 3581 01ae 3C       		.uleb128 0x3c
 3582 01af 19       		.uleb128 0x19
 3583 01b0 00       		.byte	0
 3584 01b1 00       		.byte	0
 3585 01b2 1E       		.uleb128 0x1e
 3586 01b3 26       		.uleb128 0x26
 3587 01b4 00       		.byte	0
 3588 01b5 49       		.uleb128 0x49
 3589 01b6 13       		.uleb128 0x13
 3590 01b7 00       		.byte	0
 3591 01b8 00       		.byte	0
 3592 01b9 00       		.byte	0
 3593              		.section	.debug_aranges,"",%progbits
 3594 0000 4C000000 		.4byte	0x4c
 3595 0004 0200     		.2byte	0x2
 3596 0006 00000000 		.4byte	.Ldebug_info0
 3597 000a 04       		.byte	0x4
 3598 000b 00       		.byte	0
 3599 000c 0000     		.2byte	0
 3600 000e 0000     		.2byte	0
 3601 0010 00000000 		.4byte	.LFB0
 3602 0014 84000000 		.4byte	.LFE0-.LFB0
 3603 0018 00000000 		.4byte	.LFB1
 3604 001c E4000000 		.4byte	.LFE1-.LFB1
 3605 0020 00000000 		.4byte	.LFB2
 3606 0024 2A010000 		.4byte	.LFE2-.LFB2
 3607 0028 00000000 		.4byte	.LFB3
 3608 002c 00010000 		.4byte	.LFE3-.LFB3
 3609 0030 00000000 		.4byte	.LFB4
 3610 0034 C6000000 		.4byte	.LFE4-.LFB4
 3611 0038 00000000 		.4byte	.LFB5
 3612 003c 10010000 		.4byte	.LFE5-.LFB5
 3613 0040 00000000 		.4byte	.LFB6
 3614 0044 D0010000 		.4byte	.LFE6-.LFB6
 3615 0048 00000000 		.4byte	0
 3616 004c 00000000 		.4byte	0
ARM GAS  C:\Users\ADMINI~1\AppData\Local\Temp\cc8eYrCa.s 			page 77


 3617              		.section	.debug_ranges,"",%progbits
 3618              	.Ldebug_ranges0:
 3619 0000 00000000 		.4byte	.LFB0
 3620 0004 84000000 		.4byte	.LFE0
 3621 0008 00000000 		.4byte	.LFB1
 3622 000c E4000000 		.4byte	.LFE1
 3623 0010 00000000 		.4byte	.LFB2
 3624 0014 2A010000 		.4byte	.LFE2
 3625 0018 00000000 		.4byte	.LFB3
 3626 001c 00010000 		.4byte	.LFE3
 3627 0020 00000000 		.4byte	.LFB4
 3628 0024 C6000000 		.4byte	.LFE4
 3629 0028 00000000 		.4byte	.LFB5
 3630 002c 10010000 		.4byte	.LFE5
 3631 0030 00000000 		.4byte	.LFB6
 3632 0034 D0010000 		.4byte	.LFE6
 3633 0038 00000000 		.4byte	0
 3634 003c 00000000 		.4byte	0
 3635              		.section	.debug_line,"",%progbits
 3636              	.Ldebug_line0:
 3637 0000 54020000 		.section	.debug_str,"MS",%progbits,1
 3637      0200CD00 
 3637      00000201 
 3637      FB0E0D00 
 3637      01010101 
 3638              	.LASF230:
 3639 0000 6F735F74 		.ascii	"os_tcb\000"
 3639      636200
 3640              	.LASF108:
 3641 0007 4F535F45 		.ascii	"OS_ERR_PRIO_INVALID\000"
 3641      52525F50 
 3641      52494F5F 
 3641      494E5641 
 3641      4C494400 
 3642              	.LASF203:
 3643 001b 4F535F45 		.ascii	"OS_ERR\000"
 3643      525200
 3644              	.LASF21:
 3645 0022 4F535F43 		.ascii	"OS_CTX_SW_CTR\000"
 3645      54585F53 
 3645      575F4354 
 3645      5200
 3646              	.LASF188:
 3647 0030 4F535F45 		.ascii	"OS_ERR_TMR_ISR\000"
 3647      52525F54 
 3647      4D525F49 
 3647      535200
 3648              	.LASF175:
 3649 003f 4F535F45 		.ascii	"OS_ERR_TIME_INVALID_MINUTES\000"
 3649      52525F54 
 3649      494D455F 
 3649      494E5641 
 3649      4C49445F 
 3650              	.LASF37:
 3651 005b 4F535F45 		.ascii	"OS_ERR_A\000"
 3651      52525F41 
 3651      00
ARM GAS  C:\Users\ADMINI~1\AppData\Local\Temp\cc8eYrCa.s 			page 78


 3652              	.LASF39:
 3653 0064 4F535F45 		.ascii	"OS_ERR_B\000"
 3653      52525F42 
 3653      00
 3654              	.LASF40:
 3655 006d 4F535F45 		.ascii	"OS_ERR_C\000"
 3655      52525F43 
 3655      00
 3656              	.LASF42:
 3657 0076 4F535F45 		.ascii	"OS_ERR_D\000"
 3657      52525F44 
 3657      00
 3658              	.LASF44:
 3659 007f 4F535F45 		.ascii	"OS_ERR_E\000"
 3659      52525F45 
 3659      00
 3660              	.LASF45:
 3661 0088 4F535F45 		.ascii	"OS_ERR_F\000"
 3661      52525F46 
 3661      00
 3662              	.LASF330:
 3663 0091 443A5C43 		.ascii	"D:\\CYTEST\\Micrium_CY8CKIT-044_OS3\\Examples\\Cypr"
 3663      59544553 
 3663      545C4D69 
 3663      63726975 
 3663      6D5F4359 
 3664 00c0 6573735C 		.ascii	"ess\\CY8CKIT-044\\OS3\\PSoC\\OS3.cydsn\000"
 3664      43593843 
 3664      4B49542D 
 3664      3034345C 
 3664      4F53335C 
 3665              	.LASF52:
 3666 00e3 4F535F45 		.ascii	"OS_ERR_H\000"
 3666      52525F48 
 3666      00
 3667              	.LASF53:
 3668 00ec 4F535F45 		.ascii	"OS_ERR_I\000"
 3668      52525F49 
 3668      00
 3669              	.LASF61:
 3670 00f5 4F535F45 		.ascii	"OS_ERR_J\000"
 3670      52525F4A 
 3670      00
 3671              	.LASF62:
 3672 00fe 4F535F45 		.ascii	"OS_ERR_K\000"
 3672      52525F4B 
 3672      00
 3673              	.LASF63:
 3674 0107 4F535F45 		.ascii	"OS_ERR_L\000"
 3674      52525F4C 
 3674      00
 3675              	.LASF65:
 3676 0110 4F535F45 		.ascii	"OS_ERR_M\000"
 3676      52525F4D 
 3676      00
 3677              	.LASF82:
 3678 0119 4F535F45 		.ascii	"OS_ERR_N\000"
ARM GAS  C:\Users\ADMINI~1\AppData\Local\Temp\cc8eYrCa.s 			page 79


 3678      52525F4E 
 3678      00
 3679              	.LASF85:
 3680 0122 4F535F45 		.ascii	"OS_ERR_O\000"
 3680      52525F4F 
 3680      00
 3681              	.LASF95:
 3682 012b 4F535F45 		.ascii	"OS_ERR_P\000"
 3682      52525F50 
 3682      00
 3683              	.LASF110:
 3684 0134 4F535F45 		.ascii	"OS_ERR_Q\000"
 3684      52525F51 
 3684      00
 3685              	.LASF115:
 3686 013d 4F535F45 		.ascii	"OS_ERR_R\000"
 3686      52525F52 
 3686      00
 3687              	.LASF119:
 3688 0146 4F535F45 		.ascii	"OS_ERR_S\000"
 3688      52525F53 
 3688      00
 3689              	.LASF136:
 3690 014f 4F535F45 		.ascii	"OS_ERR_T\000"
 3690      52525F54 
 3690      00
 3691              	.LASF196:
 3692 0158 4F535F45 		.ascii	"OS_ERR_U\000"
 3692      52525F55 
 3692      00
 3693              	.LASF197:
 3694 0161 4F535F45 		.ascii	"OS_ERR_V\000"
 3694      52525F56 
 3694      00
 3695              	.LASF198:
 3696 016a 4F535F45 		.ascii	"OS_ERR_W\000"
 3696      52525F57 
 3696      00
 3697              	.LASF199:
 3698 0173 4F535F45 		.ascii	"OS_ERR_X\000"
 3698      52525F58 
 3698      00
 3699              	.LASF185:
 3700 017c 4F535F45 		.ascii	"OS_ERR_TMR_INVALID_PERIOD\000"
 3700      52525F54 
 3700      4D525F49 
 3700      4E56414C 
 3700      49445F50 
 3701              	.LASF331:
 3702 0196 6F735F65 		.ascii	"os_err\000"
 3702      727200
 3703              	.LASF326:
 3704 019d 4F534366 		.ascii	"OSCfg_TickTaskStkLimit\000"
 3704      675F5469 
 3704      636B5461 
 3704      736B5374 
 3704      6B4C696D 
ARM GAS  C:\Users\ADMINI~1\AppData\Local\Temp\cc8eYrCa.s 			page 80


 3705              	.LASF215:
 3706 01b4 4E627245 		.ascii	"NbrEntries\000"
 3706      6E747269 
 3706      657300
 3707              	.LASF57:
 3708 01bf 4F535F45 		.ascii	"OS_ERR_INT_Q_SIZE\000"
 3708      52525F49 
 3708      4E545F51 
 3708      5F53495A 
 3708      4500
 3709              	.LASF41:
 3710 01d1 4F535F45 		.ascii	"OS_ERR_CREATE_ISR\000"
 3710      52525F43 
 3710      52454154 
 3710      455F4953 
 3710      5200
 3711              	.LASF227:
 3712 01e3 4F776E65 		.ascii	"OwnerNestingCtr\000"
 3712      724E6573 
 3712      74696E67 
 3712      43747200 
 3713              	.LASF313:
 3714 01f3 6E62725F 		.ascii	"nbr_updated\000"
 3714      75706461 
 3714      74656400 
 3715              	.LASF20:
 3716 01ff 4F535F43 		.ascii	"OS_CPU_USAGE\000"
 3716      50555F55 
 3716      53414745 
 3716      00
 3717              	.LASF169:
 3718 020c 4F535F45 		.ascii	"OS_ERR_TICK_STK_SIZE_INVALID\000"
 3718      52525F54 
 3718      49434B5F 
 3718      53544B5F 
 3718      53495A45 
 3719              	.LASF8:
 3720 0229 4350555F 		.ascii	"CPU_INT32U\000"
 3720      494E5433 
 3720      325500
 3721              	.LASF217:
 3722 0234 4F535F4D 		.ascii	"OS_MUTEX\000"
 3722      55544558 
 3722      00
 3723              	.LASF133:
 3724 023d 4F535F45 		.ascii	"OS_ERR_STK_INVALID\000"
 3724      52525F53 
 3724      544B5F49 
 3724      4E56414C 
 3724      494400
 3725              	.LASF258:
 3726 0250 466C6167 		.ascii	"FlagsOpt\000"
 3726      734F7074 
 3726      00
 3727              	.LASF149:
 3728 0259 4F535F45 		.ascii	"OS_ERR_TASK_RESUME_ISR\000"
 3728      52525F54 
ARM GAS  C:\Users\ADMINI~1\AppData\Local\Temp\cc8eYrCa.s 			page 81


 3728      41534B5F 
 3728      52455355 
 3728      4D455F49 
 3729              	.LASF319:
 3730 0270 4F535469 		.ascii	"OSTickTaskTCB\000"
 3730      636B5461 
 3730      736B5443 
 3730      4200
 3731              	.LASF103:
 3732 027e 4F535F45 		.ascii	"OS_ERR_PEND_WOULD_BLOCK\000"
 3732      52525F50 
 3732      454E445F 
 3732      574F554C 
 3732      445F424C 
 3733              	.LASF137:
 3734 0296 4F535F45 		.ascii	"OS_ERR_TASK_CHANGE_PRIO_ISR\000"
 3734      52525F54 
 3734      41534B5F 
 3734      4348414E 
 3734      47455F50 
 3735              	.LASF247:
 3736 02b2 4D757465 		.ascii	"MutexGrpHeadPtr\000"
 3736      78477270 
 3736      48656164 
 3736      50747200 
 3737              	.LASF60:
 3738 02c2 4F535F45 		.ascii	"OS_ERR_ILLEGAL_DEL_RUN_TIME\000"
 3738      52525F49 
 3738      4C4C4547 
 3738      414C5F44 
 3738      454C5F52 
 3739              	.LASF127:
 3740 02de 4F535F45 		.ascii	"OS_ERR_STAT_RESET_ISR\000"
 3740      52525F53 
 3740      5441545F 
 3740      52455345 
 3740      545F4953 
 3741              	.LASF102:
 3742 02f4 4F535F45 		.ascii	"OS_ERR_PEND_LOCKED\000"
 3742      52525F50 
 3742      454E445F 
 3742      4C4F434B 
 3742      454400
 3743              	.LASF328:
 3744 0307 474E5520 		.ascii	"GNU C11 5.4.1 20160609 (release) [ARM/embedded-5-br"
 3744      43313120 
 3744      352E342E 
 3744      31203230 
 3744      31363036 
 3745 033a 616E6368 		.ascii	"anch revision 237715] -mcpu=cortex-m0 -mthumb -g -O"
 3745      20726576 
 3745      6973696F 
 3745      6E203233 
 3745      37373135 
 3746 036d 30202D66 		.ascii	"0 -ffunction-sections -ffat-lto-objects\000"
 3746      66756E63 
 3746      74696F6E 
ARM GAS  C:\Users\ADMINI~1\AppData\Local\Temp\cc8eYrCa.s 			page 82


 3746      2D736563 
 3746      74696F6E 
 3747              	.LASF321:
 3748 0395 4F535469 		.ascii	"OSTickListDly\000"
 3748      636B4C69 
 3748      7374446C 
 3748      7900
 3749              	.LASF147:
 3750 03a3 4F535F45 		.ascii	"OS_ERR_TASK_NOT_SUSPENDED\000"
 3750      52525F54 
 3750      41534B5F 
 3750      4E4F545F 
 3750      53555350 
 3751              	.LASF81:
 3752 03bd 4F535F45 		.ascii	"OS_ERR_MUTEX_OVF\000"
 3752      52525F4D 
 3752      55544558 
 3752      5F4F5646 
 3752      00
 3753              	.LASF145:
 3754 03ce 4F535F45 		.ascii	"OS_ERR_TASK_NOT_DLY\000"
 3754      52525F54 
 3754      41534B5F 
 3754      4E4F545F 
 3754      444C5900 
 3755              	.LASF222:
 3756 03e2 44626750 		.ascii	"DbgPrevPtr\000"
 3756      72657650 
 3756      747200
 3757              	.LASF55:
 3758 03ed 4F535F45 		.ascii	"OS_ERR_INT_Q\000"
 3758      52525F49 
 3758      4E545F51 
 3758      00
 3759              	.LASF223:
 3760 03fa 4462674E 		.ascii	"DbgNextPtr\000"
 3760      65787450 
 3760      747200
 3761              	.LASF272:
 3762 0405 53636865 		.ascii	"SchedLockTimeMax\000"
 3762      644C6F63 
 3762      6B54696D 
 3762      654D6178 
 3762      00
 3763              	.LASF159:
 3764 0416 4F535F45 		.ascii	"OS_ERR_TASK_WAITING\000"
 3764      52525F54 
 3764      41534B5F 
 3764      57414954 
 3764      494E4700 
 3765              	.LASF322:
 3766 042a 4F535469 		.ascii	"OSTickListTimeout\000"
 3766      636B4C69 
 3766      73745469 
 3766      6D656F75 
 3766      7400
 3767              	.LASF38:
ARM GAS  C:\Users\ADMINI~1\AppData\Local\Temp\cc8eYrCa.s 			page 83


 3768 043c 4F535F45 		.ascii	"OS_ERR_ACCEPT_ISR\000"
 3768      52525F41 
 3768      43434550 
 3768      545F4953 
 3768      5200
 3769              	.LASF157:
 3770 044e 4F535F45 		.ascii	"OS_ERR_TASK_SUSPEND_ISR\000"
 3770      52525F54 
 3770      41534B5F 
 3770      53555350 
 3770      454E445F 
 3771              	.LASF80:
 3772 0466 4F535F45 		.ascii	"OS_ERR_MUTEX_NESTING\000"
 3772      52525F4D 
 3772      55544558 
 3772      5F4E4553 
 3772      54494E47 
 3773              	.LASF312:
 3774 047b 74735F73 		.ascii	"ts_start\000"
 3774      74617274 
 3774      00
 3775              	.LASF186:
 3776 0484 4F535F45 		.ascii	"OS_ERR_TMR_INVALID_STATE\000"
 3776      52525F54 
 3776      4D525F49 
 3776      4E56414C 
 3776      49445F53 
 3777              	.LASF242:
 3778 049d 50656E64 		.ascii	"PendOn\000"
 3778      4F6E00
 3779              	.LASF315:
 3780 04a4 4F535F54 		.ascii	"OS_TickListUpdateTimeout\000"
 3780      69636B4C 
 3780      69737455 
 3780      70646174 
 3780      6554696D 
 3781              	.LASF86:
 3782 04bd 4F535F45 		.ascii	"OS_ERR_OBJ_CREATED\000"
 3782      52525F4F 
 3782      424A5F43 
 3782      52454154 
 3782      454400
 3783              	.LASF275:
 3784 04d0 5443425F 		.ascii	"TCB_Ptr\000"
 3784      50747200 
 3785              	.LASF288:
 3786 04d8 5461696C 		.ascii	"TailPtr\000"
 3786      50747200 
 3787              	.LASF155:
 3788 04e0 4F535F45 		.ascii	"OS_ERR_TASK_SUSPEND_IDLE\000"
 3788      52525F54 
 3788      41534B5F 
 3788      53555350 
 3788      454E445F 
 3789              	.LASF56:
 3790 04f9 4F535F45 		.ascii	"OS_ERR_INT_Q_FULL\000"
 3790      52525F49 
ARM GAS  C:\Users\ADMINI~1\AppData\Local\Temp\cc8eYrCa.s 			page 84


 3790      4E545F51 
 3790      5F46554C 
 3790      4C00
 3791              	.LASF282:
 3792 050b 5264794D 		.ascii	"RdyMsgPtr\000"
 3792      73675074 
 3792      7200
 3793              	.LASF290:
 3794 0515 6F735F70 		.ascii	"os_pend_obj\000"
 3794      656E645F 
 3794      6F626A00 
 3795              	.LASF54:
 3796 0521 4F535F45 		.ascii	"OS_ERR_ILLEGAL_CREATE_RUN_TIME\000"
 3796      52525F49 
 3796      4C4C4547 
 3796      414C5F43 
 3796      52454154 
 3797              	.LASF256:
 3798 0540 466C6167 		.ascii	"FlagsPend\000"
 3798      7350656E 
 3798      6400
 3799              	.LASF184:
 3800 054a 4F535F45 		.ascii	"OS_ERR_TMR_INVALID_DLY\000"
 3800      52525F54 
 3800      4D525F49 
 3800      4E56414C 
 3800      49445F44 
 3801              	.LASF27:
 3802 0561 4F535F4F 		.ascii	"OS_OBJ_QTY\000"
 3802      424A5F51 
 3802      545900
 3803              	.LASF226:
 3804 056c 4F776E65 		.ascii	"OwnerTCBPtr\000"
 3804      72544342 
 3804      50747200 
 3805              	.LASF262:
 3806 0578 43747853 		.ascii	"CtxSwCtr\000"
 3806      77437472 
 3806      00
 3807              	.LASF150:
 3808 0581 4F535F45 		.ascii	"OS_ERR_TASK_RESUME_PRIO\000"
 3808      52525F54 
 3808      41534B5F 
 3808      52455355 
 3808      4D455F50 
 3809              	.LASF30:
 3810 0599 4F535F50 		.ascii	"OS_PRIO\000"
 3810      52494F00 
 3811              	.LASF12:
 3812 05a1 666C6F61 		.ascii	"float\000"
 3812      7400
 3813              	.LASF104:
 3814 05a7 4F535F45 		.ascii	"OS_ERR_POST_NULL_PTR\000"
 3814      52525F50 
 3814      4F53545F 
 3814      4E554C4C 
 3814      5F505452 
ARM GAS  C:\Users\ADMINI~1\AppData\Local\Temp\cc8eYrCa.s 			page 85


 3815              	.LASF84:
 3816 05bc 4F535F45 		.ascii	"OS_ERR_NO_MORE_ID_AVAIL\000"
 3816      52525F4E 
 3816      4F5F4D4F 
 3816      52455F49 
 3816      445F4156 
 3817              	.LASF73:
 3818 05d4 4F535F45 		.ascii	"OS_ERR_MEM_INVALID_P_DATA\000"
 3818      52525F4D 
 3818      454D5F49 
 3818      4E56414C 
 3818      49445F50 
 3819              	.LASF304:
 3820 05ee 74696D65 		.ascii	"time\000"
 3820      00
 3821              	.LASF296:
 3822 05f3 6370755F 		.ascii	"cpu_sr\000"
 3822      737200
 3823              	.LASF189:
 3824 05fa 4F535F45 		.ascii	"OS_ERR_TMR_NO_CALLBACK\000"
 3824      52525F54 
 3824      4D525F4E 
 3824      4F5F4341 
 3824      4C4C4241 
 3825              	.LASF182:
 3826 0611 4F535F45 		.ascii	"OS_ERR_TMR_INACTIVE\000"
 3826      52525F54 
 3826      4D525F49 
 3826      4E414354 
 3826      49564500 
 3827              	.LASF162:
 3828 0625 4F535F45 		.ascii	"OS_ERR_TLS_ID_INVALID\000"
 3828      52525F54 
 3828      4C535F49 
 3828      445F494E 
 3828      56414C49 
 3829              	.LASF10:
 3830 063b 6C6F6E67 		.ascii	"long long unsigned int\000"
 3830      206C6F6E 
 3830      6720756E 
 3830      7369676E 
 3830      65642069 
 3831              	.LASF152:
 3832 0652 4F535F45 		.ascii	"OS_ERR_TASK_RUNNING\000"
 3832      52525F54 
 3832      41534B5F 
 3832      52554E4E 
 3832      494E4700 
 3833              	.LASF269:
 3834 0666 53746B55 		.ascii	"StkUsed\000"
 3834      73656400 
 3835              	.LASF187:
 3836 066e 4F535F45 		.ascii	"OS_ERR_TMR_INVALID\000"
 3836      52525F54 
 3836      4D525F49 
 3836      4E56414C 
 3836      494400
ARM GAS  C:\Users\ADMINI~1\AppData\Local\Temp\cc8eYrCa.s 			page 86


 3837              	.LASF277:
 3838 0681 4F535F50 		.ascii	"OS_PEND_DATA\000"
 3838      454E445F 
 3838      44415441 
 3838      00
 3839              	.LASF156:
 3840 068e 4F535F45 		.ascii	"OS_ERR_TASK_SUSPEND_INT_HANDLER\000"
 3840      52525F54 
 3840      41534B5F 
 3840      53555350 
 3840      454E445F 
 3841              	.LASF141:
 3842 06ae 4F535F45 		.ascii	"OS_ERR_TASK_DEL_INVALID\000"
 3842      52525F54 
 3842      41534B5F 
 3842      44454C5F 
 3842      494E5641 
 3843              	.LASF276:
 3844 06c6 4E627255 		.ascii	"NbrUpdated\000"
 3844      70646174 
 3844      656400
 3845              	.LASF292:
 3846 06d1 74735F64 		.ascii	"ts_delta\000"
 3846      656C7461 
 3846      00
 3847              	.LASF192:
 3848 06da 4F535F45 		.ascii	"OS_ERR_TMR_STK_INVALID\000"
 3848      52525F54 
 3848      4D525F53 
 3848      544B5F49 
 3848      4E56414C 
 3849              	.LASF3:
 3850 06f1 4350555F 		.ascii	"CPU_INT08U\000"
 3850      494E5430 
 3850      385500
 3851              	.LASF210:
 3852 06fc 6F735F6D 		.ascii	"os_msg\000"
 3852      736700
 3853              	.LASF161:
 3854 0703 4F535F45 		.ascii	"OS_ERR_TCB_INVALID\000"
 3854      52525F54 
 3854      43425F49 
 3854      4E56414C 
 3854      494400
 3855              	.LASF248:
 3856 0716 53746B53 		.ascii	"StkSize\000"
 3856      697A6500 
 3857              	.LASF238:
 3858 071e 53746B42 		.ascii	"StkBasePtr\000"
 3858      61736550 
 3858      747200
 3859              	.LASF112:
 3860 0729 4F535F45 		.ascii	"OS_ERR_Q_EMPTY\000"
 3860      52525F51 
 3860      5F454D50 
 3860      545900
 3861              	.LASF177:
ARM GAS  C:\Users\ADMINI~1\AppData\Local\Temp\cc8eYrCa.s 			page 87


 3862 0738 4F535F45 		.ascii	"OS_ERR_TIME_INVALID_MILLISECONDS\000"
 3862      52525F54 
 3862      494D455F 
 3862      494E5641 
 3862      4C49445F 
 3863              	.LASF31:
 3864 0759 4F535F52 		.ascii	"OS_REG\000"
 3864      454700
 3865              	.LASF83:
 3866 0760 4F535F45 		.ascii	"OS_ERR_NAME\000"
 3866      52525F4E 
 3866      414D4500 
 3867              	.LASF34:
 3868 076c 4F535F53 		.ascii	"OS_STATUS\000"
 3868      54415455 
 3868      5300
 3869              	.LASF244:
 3870 0776 5461736B 		.ascii	"TaskState\000"
 3870      53746174 
 3870      6500
 3871              	.LASF166:
 3872 0780 4F535F45 		.ascii	"OS_ERR_TLS_DESTRUCT_ASSIGNED\000"
 3872      52525F54 
 3872      4C535F44 
 3872      45535452 
 3872      5543545F 
 3873              	.LASF78:
 3874 079d 4F535F45 		.ascii	"OS_ERR_MUTEX_NOT_OWNER\000"
 3874      52525F4D 
 3874      55544558 
 3874      5F4E4F54 
 3874      5F4F574E 
 3875              	.LASF25:
 3876 07b4 4F535F4D 		.ascii	"OS_MSG_SIZE\000"
 3876      53475F53 
 3876      495A4500 
 3877              	.LASF174:
 3878 07c0 4F535F45 		.ascii	"OS_ERR_TIME_INVALID_HOURS\000"
 3878      52525F54 
 3878      494D455F 
 3878      494E5641 
 3878      4C49445F 
 3879              	.LASF190:
 3880 07da 4F535F45 		.ascii	"OS_ERR_TMR_NON_AVAIL\000"
 3880      52525F54 
 3880      4D525F4E 
 3880      4F4E5F41 
 3880      5641494C 
 3881              	.LASF2:
 3882 07ef 4350555F 		.ascii	"CPU_CHAR\000"
 3882      43484152 
 3882      00
 3883              	.LASF138:
 3884 07f8 4F535F45 		.ascii	"OS_ERR_TASK_CREATE_ISR\000"
 3884      52525F54 
 3884      41534B5F 
 3884      43524541 
ARM GAS  C:\Users\ADMINI~1\AppData\Local\Temp\cc8eYrCa.s 			page 88


 3884      54455F49 
 3885              	.LASF16:
 3886 080f 4350555F 		.ascii	"CPU_STK_SIZE\000"
 3886      53544B5F 
 3886      53495A45 
 3886      00
 3887              	.LASF24:
 3888 081c 4F535F4D 		.ascii	"OS_MSG_QTY\000"
 3888      53475F51 
 3888      545900
 3889              	.LASF92:
 3890 0827 4F535F45 		.ascii	"OS_ERR_OS_RUNNING\000"
 3890      52525F4F 
 3890      535F5255 
 3890      4E4E494E 
 3890      4700
 3891              	.LASF270:
 3892 0839 53746B46 		.ascii	"StkFree\000"
 3892      72656500 
 3893              	.LASF251:
 3894 0841 5469636B 		.ascii	"TickCtrPrev\000"
 3894      43747250 
 3894      72657600 
 3895              	.LASF214:
 3896 084d 4E627245 		.ascii	"NbrEntriesSize\000"
 3896      6E747269 
 3896      65735369 
 3896      7A6500
 3897              	.LASF180:
 3898 085c 4F535F45 		.ascii	"OS_ERR_TIME_ZERO_DLY\000"
 3898      52525F54 
 3898      494D455F 
 3898      5A45524F 
 3898      5F444C59 
 3899              	.LASF308:
 3900 0871 4F535F54 		.ascii	"OS_TickListInsertDly\000"
 3900      69636B4C 
 3900      69737449 
 3900      6E736572 
 3900      74446C79 
 3901              	.LASF236:
 3902 0886 5469636B 		.ascii	"TickPrevPtr\000"
 3902      50726576 
 3902      50747200 
 3903              	.LASF257:
 3904 0892 466C6167 		.ascii	"FlagsRdy\000"
 3904      73526479 
 3904      00
 3905              	.LASF129:
 3906 089b 4F535F45 		.ascii	"OS_ERR_STAT_STK_INVALID\000"
 3906      52525F53 
 3906      5441545F 
 3906      53544B5F 
 3906      494E5641 
 3907              	.LASF47:
 3908 08b3 4F535F45 		.ascii	"OS_ERR_FLAG_GRP_DEPLETED\000"
 3908      52525F46 
ARM GAS  C:\Users\ADMINI~1\AppData\Local\Temp\cc8eYrCa.s 			page 89


 3908      4C41475F 
 3908      4752505F 
 3908      4445504C 
 3909              	.LASF69:
 3910 08cc 4F535F45 		.ascii	"OS_ERR_MEM_INVALID_BLKS\000"
 3910      52525F4D 
 3910      454D5F49 
 3910      4E56414C 
 3910      49445F42 
 3911              	.LASF246:
 3912 08e4 42617365 		.ascii	"BasePrio\000"
 3912      5072696F 
 3912      00
 3913              	.LASF295:
 3914 08ed 7469636B 		.ascii	"tick_step\000"
 3914      5F737465 
 3914      7000
 3915              	.LASF254:
 3916 08f7 4D736751 		.ascii	"MsgQPendTimeMax\000"
 3916      50656E64 
 3916      54696D65 
 3916      4D617800 
 3917              	.LASF93:
 3918 0907 4F535F45 		.ascii	"OS_ERR_OS_NOT_INIT\000"
 3918      52525F4F 
 3918      535F4E4F 
 3918      545F494E 
 3918      495400
 3919              	.LASF204:
 3920 091a 4F535F4D 		.ascii	"OS_MSG\000"
 3920      534700
 3921              	.LASF183:
 3922 0921 4F535F45 		.ascii	"OS_ERR_TMR_INVALID_DEST\000"
 3922      52525F54 
 3922      4D525F49 
 3922      4E56414C 
 3922      49445F44 
 3923              	.LASF311:
 3924 0939 7469636B 		.ascii	"ticks\000"
 3924      7300
 3925              	.LASF121:
 3926 093f 4F535F45 		.ascii	"OS_ERR_SCHED_LOCK_ISR\000"
 3926      52525F53 
 3926      43484544 
 3926      5F4C4F43 
 3926      4B5F4953 
 3927              	.LASF43:
 3928 0955 4F535F45 		.ascii	"OS_ERR_DEL_ISR\000"
 3928      52525F44 
 3928      454C5F49 
 3928      535200
 3929              	.LASF300:
 3930 0964 705F6572 		.ascii	"p_err\000"
 3930      7200
 3931              	.LASF113:
 3932 096a 4F535F45 		.ascii	"OS_ERR_Q_MAX\000"
 3932      52525F51 
ARM GAS  C:\Users\ADMINI~1\AppData\Local\Temp\cc8eYrCa.s 			page 90


 3932      5F4D4158 
 3932      00
 3933              	.LASF234:
 3934 0977 50726576 		.ascii	"PrevPtr\000"
 3934      50747200 
 3935              	.LASF0:
 3936 097f 63686172 		.ascii	"char\000"
 3936      00
 3937              	.LASF293:
 3938 0984 74735F64 		.ascii	"ts_delta_dly\000"
 3938      656C7461 
 3938      5F646C79 
 3938      00
 3939              	.LASF28:
 3940 0991 4F535F4F 		.ascii	"OS_OBJ_TYPE\000"
 3940      424A5F54 
 3940      59504500 
 3941              	.LASF297:
 3942 099d 4F535F54 		.ascii	"OS_TickTask\000"
 3942      69636B54 
 3942      61736B00 
 3943              	.LASF165:
 3944 09a9 4F535F45 		.ascii	"OS_ERR_TLS_NOT_EN\000"
 3944      52525F54 
 3944      4C535F4E 
 3944      4F545F45 
 3944      4E00
 3945              	.LASF90:
 3946 09bb 4F535F45 		.ascii	"OS_ERR_OPT_INVALID\000"
 3946      52525F4F 
 3946      50545F49 
 3946      4E56414C 
 3946      494400
 3947              	.LASF17:
 3948 09ce 4350555F 		.ascii	"CPU_SR\000"
 3948      535200
 3949              	.LASF120:
 3950 09d5 4F535F45 		.ascii	"OS_ERR_SCHED_INVALID_TIME_SLICE\000"
 3950      52525F53 
 3950      43484544 
 3950      5F494E56 
 3950      414C4944 
 3951              	.LASF94:
 3952 09f5 4F535F45 		.ascii	"OS_ERR_OS_NO_APP_TASK\000"
 3952      52525F4F 
 3952      535F4E4F 
 3952      5F415050 
 3952      5F544153 
 3953              	.LASF252:
 3954 0a0b 4D736751 		.ascii	"MsgQ\000"
 3954      00
 3955              	.LASF239:
 3956 0a10 5461736B 		.ascii	"TaskEntryAddr\000"
 3956      456E7472 
 3956      79416464 
 3956      7200
 3957              	.LASF128:
ARM GAS  C:\Users\ADMINI~1\AppData\Local\Temp\cc8eYrCa.s 			page 91


 3958 0a1e 4F535F45 		.ascii	"OS_ERR_STAT_PRIO_INVALID\000"
 3958      52525F53 
 3958      5441545F 
 3958      5052494F 
 3958      5F494E56 
 3959              	.LASF178:
 3960 0a37 4F535F45 		.ascii	"OS_ERR_TIME_NOT_DLY\000"
 3960      52525F54 
 3960      494D455F 
 3960      4E4F545F 
 3960      444C5900 
 3961              	.LASF220:
 3962 0a4b 4E616D65 		.ascii	"NamePtr\000"
 3962      50747200 
 3963              	.LASF243:
 3964 0a53 50656E64 		.ascii	"PendStatus\000"
 3964      53746174 
 3964      757300
 3965              	.LASF209:
 3966 0a5e 4F535F4D 		.ascii	"OS_MSG_Q\000"
 3966      53475F51 
 3966      00
 3967              	.LASF219:
 3968 0a67 54797065 		.ascii	"Type\000"
 3968      00
 3969              	.LASF325:
 3970 0a6c 4F534366 		.ascii	"OSCfg_TickTaskStkBasePtr\000"
 3970      675F5469 
 3970      636B5461 
 3970      736B5374 
 3970      6B426173 
 3971              	.LASF201:
 3972 0a85 4F535F45 		.ascii	"OS_ERR_YIELD_ISR\000"
 3972      52525F59 
 3972      49454C44 
 3972      5F495352 
 3972      00
 3973              	.LASF87:
 3974 0a96 4F535F45 		.ascii	"OS_ERR_OBJ_DEL\000"
 3974      52525F4F 
 3974      424A5F44 
 3974      454C00
 3975              	.LASF19:
 3976 0aa5 4350555F 		.ascii	"CPU_TS\000"
 3976      545300
 3977              	.LASF11:
 3978 0aac 6C6F6E67 		.ascii	"long long int\000"
 3978      206C6F6E 
 3978      6720696E 
 3978      7400
 3979              	.LASF49:
 3980 0aba 4F535F45 		.ascii	"OS_ERR_FLAG_PEND_OPT\000"
 3980      52525F46 
 3980      4C41475F 
 3980      50454E44 
 3980      5F4F5054 
 3981              	.LASF231:
ARM GAS  C:\Users\ADMINI~1\AppData\Local\Temp\cc8eYrCa.s 			page 92


 3982 0acf 53746B50 		.ascii	"StkPtr\000"
 3982      747200
 3983              	.LASF303:
 3984 0ad6 705F7463 		.ascii	"p_tcb\000"
 3984      6200
 3985              	.LASF160:
 3986 0adc 4F535F45 		.ascii	"OS_ERR_TASK_SUSPEND_CTR_OVF\000"
 3986      52525F54 
 3986      41534B5F 
 3986      53555350 
 3986      454E445F 
 3987              	.LASF114:
 3988 0af8 4F535F45 		.ascii	"OS_ERR_Q_SIZE\000"
 3988      52525F51 
 3988      5F53495A 
 3988      4500
 3989              	.LASF264:
 3990 0b06 4379636C 		.ascii	"CyclesStart\000"
 3990      65735374 
 3990      61727400 
 3991              	.LASF279:
 3992 0b12 54434250 		.ascii	"TCBPtr\000"
 3992      747200
 3993              	.LASF99:
 3994 0b19 4F535F45 		.ascii	"OS_ERR_PEND_ABORT_SELF\000"
 3994      52525F50 
 3994      454E445F 
 3994      41424F52 
 3994      545F5345 
 3995              	.LASF5:
 3996 0b30 4350555F 		.ascii	"CPU_INT16U\000"
 3996      494E5431 
 3996      365500
 3997              	.LASF118:
 3998 0b3b 4F535F45 		.ascii	"OS_ERR_ROUND_ROBIN_DISABLED\000"
 3998      52525F52 
 3998      4F554E44 
 3998      5F524F42 
 3998      494E5F44 
 3999              	.LASF70:
 4000 0b57 4F535F45 		.ascii	"OS_ERR_MEM_INVALID_PART\000"
 4000      52525F4D 
 4000      454D5F49 
 4000      4E56414C 
 4000      49445F50 
 4001              	.LASF88:
 4002 0b6f 4F535F45 		.ascii	"OS_ERR_OBJ_PTR_NULL\000"
 4002      52525F4F 
 4002      424A5F50 
 4002      54525F4E 
 4002      554C4C00 
 4003              	.LASF116:
 4004 0b83 4F535F45 		.ascii	"OS_ERR_REG_ID_INVALID\000"
 4004      52525F52 
 4004      45475F49 
 4004      445F494E 
 4004      56414C49 
ARM GAS  C:\Users\ADMINI~1\AppData\Local\Temp\cc8eYrCa.s 			page 93


 4005              	.LASF309:
 4006 0b99 7469636B 		.ascii	"tick_ctr\000"
 4006      5F637472 
 4006      00
 4007              	.LASF35:
 4008 0ba2 4F535F54 		.ascii	"OS_TICK\000"
 4008      49434B00 
 4009              	.LASF67:
 4010 0baa 4F535F45 		.ascii	"OS_ERR_MEM_FULL\000"
 4010      52525F4D 
 4010      454D5F46 
 4010      554C4C00 
 4011              	.LASF144:
 4012 0bba 4F535F45 		.ascii	"OS_ERR_TASK_NO_MORE_TCB\000"
 4012      52525F54 
 4012      41534B5F 
 4012      4E4F5F4D 
 4012      4F52455F 
 4013              	.LASF72:
 4014 0bd2 4F535F45 		.ascii	"OS_ERR_MEM_INVALID_P_MEM\000"
 4014      52525F4D 
 4014      454D5F49 
 4014      4E56414C 
 4014      49445F50 
 4015              	.LASF18:
 4016 0beb 4350555F 		.ascii	"CPU_TS32\000"
 4016      54533332 
 4016      00
 4017              	.LASF259:
 4018 0bf4 53757370 		.ascii	"SuspendCtr\000"
 4018      656E6443 
 4018      747200
 4019              	.LASF233:
 4020 0bff 53746B4C 		.ascii	"StkLimitPtr\000"
 4020      696D6974 
 4020      50747200 
 4021              	.LASF294:
 4022 0c0b 74735F64 		.ascii	"ts_delta_timeout\000"
 4022      656C7461 
 4022      5F74696D 
 4022      656F7574 
 4022      00
 4023              	.LASF263:
 4024 0c1c 4379636C 		.ascii	"CyclesDelta\000"
 4024      65734465 
 4024      6C746100 
 4025              	.LASF32:
 4026 0c28 4F535F53 		.ascii	"OS_SEM_CTR\000"
 4026      454D5F43 
 4026      545200
 4027              	.LASF193:
 4028 0c33 4F535F45 		.ascii	"OS_ERR_TMR_STK_SIZE_INVALID\000"
 4028      52525F54 
 4028      4D525F53 
 4028      544B5F53 
 4028      495A455F 
 4029              	.LASF170:
ARM GAS  C:\Users\ADMINI~1\AppData\Local\Temp\cc8eYrCa.s 			page 94


 4030 0c4f 4F535F45 		.ascii	"OS_ERR_TICK_WHEEL_SIZE\000"
 4030      52525F54 
 4030      49434B5F 
 4030      57484545 
 4030      4C5F5349 
 4031              	.LASF235:
 4032 0c66 5469636B 		.ascii	"TickNextPtr\000"
 4032      4E657874 
 4032      50747200 
 4033              	.LASF146:
 4034 0c72 4F535F45 		.ascii	"OS_ERR_TASK_NOT_EXIST\000"
 4034      52525F54 
 4034      41534B5F 
 4034      4E4F545F 
 4034      45584953 
 4035              	.LASF323:
 4036 0c88 4F534366 		.ascii	"OSCfg_StkSizeMin\000"
 4036      675F5374 
 4036      6B53697A 
 4036      654D696E 
 4036      00
 4037              	.LASF143:
 4038 0c99 4F535F45 		.ascii	"OS_ERR_TASK_INVALID\000"
 4038      52525F54 
 4038      41534B5F 
 4038      494E5641 
 4038      4C494400 
 4039              	.LASF191:
 4040 0cad 4F535F45 		.ascii	"OS_ERR_TMR_PRIO_INVALID\000"
 4040      52525F54 
 4040      4D525F50 
 4040      52494F5F 
 4040      494E5641 
 4041              	.LASF158:
 4042 0cc5 4F535F45 		.ascii	"OS_ERR_TASK_SUSPEND_PRIO\000"
 4042      52525F54 
 4042      41534B5F 
 4042      53555350 
 4042      454E445F 
 4043              	.LASF281:
 4044 0cde 5264794F 		.ascii	"RdyObjPtr\000"
 4044      626A5074 
 4044      7200
 4045              	.LASF59:
 4046 0ce8 4F535F45 		.ascii	"OS_ERR_INT_Q_STK_SIZE_INVALID\000"
 4046      52525F49 
 4046      4E545F51 
 4046      5F53544B 
 4046      5F53495A 
 4047              	.LASF163:
 4048 0d06 4F535F45 		.ascii	"OS_ERR_TLS_ISR\000"
 4048      52525F54 
 4048      4C535F49 
 4048      535200
 4049              	.LASF195:
 4050 0d15 4F535F45 		.ascii	"OS_ERR_TMR_INVALID_CALLBACK\000"
 4050      52525F54 
ARM GAS  C:\Users\ADMINI~1\AppData\Local\Temp\cc8eYrCa.s 			page 95


 4050      4D525F49 
 4050      4E56414C 
 4050      49445F43 
 4051              	.LASF301:
 4052 0d31 4F535F54 		.ascii	"OS_TickListInsert\000"
 4052      69636B4C 
 4052      69737449 
 4052      6E736572 
 4052      7400
 4053              	.LASF142:
 4054 0d43 4F535F45 		.ascii	"OS_ERR_TASK_DEL_ISR\000"
 4054      52525F54 
 4054      41534B5F 
 4054      44454C5F 
 4054      49535200 
 4055              	.LASF267:
 4056 0d57 53656D50 		.ascii	"SemPendTime\000"
 4056      656E6454 
 4056      696D6500 
 4057              	.LASF109:
 4058 0d63 4F535F45 		.ascii	"OS_ERR_PTR_INVALID\000"
 4058      52525F50 
 4058      54525F49 
 4058      4E56414C 
 4058      494400
 4059              	.LASF131:
 4060 0d76 4F535F45 		.ascii	"OS_ERR_STATE_INVALID\000"
 4060      52525F53 
 4060      54415445 
 4060      5F494E56 
 4060      414C4944 
 4061              	.LASF205:
 4062 0d8b 4E657874 		.ascii	"NextPtr\000"
 4062      50747200 
 4063              	.LASF91:
 4064 0d93 4F535F45 		.ascii	"OS_ERR_OS_NOT_RUNNING\000"
 4064      52525F4F 
 4064      535F4E4F 
 4064      545F5255 
 4064      4E4E494E 
 4065              	.LASF253:
 4066 0da9 4D736751 		.ascii	"MsgQPendTime\000"
 4066      50656E64 
 4066      54696D65 
 4066      00
 4067              	.LASF218:
 4068 0db6 6F735F6D 		.ascii	"os_mutex\000"
 4068      75746578 
 4068      00
 4069              	.LASF307:
 4070 0dbf 72656D61 		.ascii	"remain\000"
 4070      696E00
 4071              	.LASF237:
 4072 0dc6 5469636B 		.ascii	"TickListPtr\000"
 4072      4C697374 
 4072      50747200 
 4073              	.LASF179:
ARM GAS  C:\Users\ADMINI~1\AppData\Local\Temp\cc8eYrCa.s 			page 96


 4074 0dd2 4F535F45 		.ascii	"OS_ERR_TIME_SET_ISR\000"
 4074      52525F54 
 4074      494D455F 
 4074      5345545F 
 4074      49535200 
 4075              	.LASF327:
 4076 0de6 4F534366 		.ascii	"OSCfg_TickTaskStkSize\000"
 4076      675F5469 
 4076      636B5461 
 4076      736B5374 
 4076      6B53697A 
 4077              	.LASF117:
 4078 0dfc 4F535F45 		.ascii	"OS_ERR_ROUND_ROBIN_1\000"
 4078      52525F52 
 4078      4F554E44 
 4078      5F524F42 
 4078      494E5F31 
 4079              	.LASF71:
 4080 0e11 4F535F45 		.ascii	"OS_ERR_MEM_INVALID_P_BLK\000"
 4080      52525F4D 
 4080      454D5F49 
 4080      4E56414C 
 4080      49445F50 
 4081              	.LASF68:
 4082 0e2a 4F535F45 		.ascii	"OS_ERR_MEM_INVALID_P_ADDR\000"
 4082      52525F4D 
 4082      454D5F49 
 4082      4E56414C 
 4082      49445F50 
 4083              	.LASF284:
 4084 0e44 52647954 		.ascii	"RdyTS\000"
 4084      5300
 4085              	.LASF64:
 4086 0e4a 4F535F45 		.ascii	"OS_ERR_LOCK_NESTING_OVF\000"
 4086      52525F4C 
 4086      4F434B5F 
 4086      4E455354 
 4086      494E475F 
 4087              	.LASF153:
 4088 0e62 4F535F45 		.ascii	"OS_ERR_TASK_STK_CHK_ISR\000"
 4088      52525F54 
 4088      41534B5F 
 4088      53544B5F 
 4088      43484B5F 
 4089              	.LASF274:
 4090 0e7a 6F735F74 		.ascii	"os_tick_list\000"
 4090      69636B5F 
 4090      6C697374 
 4090      00
 4091              	.LASF7:
 4092 0e87 73686F72 		.ascii	"short int\000"
 4092      7420696E 
 4092      7400
 4093              	.LASF283:
 4094 0e91 5264794D 		.ascii	"RdyMsgSize\000"
 4094      73675369 
 4094      7A6500
ARM GAS  C:\Users\ADMINI~1\AppData\Local\Temp\cc8eYrCa.s 			page 97


 4095              	.LASF76:
 4096 0e9c 4F535F45 		.ascii	"OS_ERR_MSG_POOL_EMPTY\000"
 4096      52525F4D 
 4096      53475F50 
 4096      4F4F4C5F 
 4096      454D5054 
 4097              	.LASF271:
 4098 0eb2 496E7444 		.ascii	"IntDisTimeMax\000"
 4098      69735469 
 4098      6D654D61 
 4098      7800
 4099              	.LASF124:
 4100 0ec0 4F535F45 		.ascii	"OS_ERR_SCHED_UNLOCK_ISR\000"
 4100      52525F53 
 4100      43484544 
 4100      5F554E4C 
 4100      4F434B5F 
 4101              	.LASF268:
 4102 0ed8 53656D50 		.ascii	"SemPendTimeMax\000"
 4102      656E6454 
 4102      696D654D 
 4102      617800
 4103              	.LASF266:
 4104 0ee7 4379636C 		.ascii	"CyclesTotalPrev\000"
 4104      6573546F 
 4104      74616C50 
 4104      72657600 
 4105              	.LASF225:
 4106 0ef7 4D757465 		.ascii	"MutexGrpNextPtr\000"
 4106      78477270 
 4106      4E657874 
 4106      50747200 
 4107              	.LASF273:
 4108 0f07 4F535F54 		.ascii	"OS_TICK_LIST\000"
 4108      49434B5F 
 4108      4C495354 
 4108      00
 4109              	.LASF168:
 4110 0f14 4F535F45 		.ascii	"OS_ERR_TICK_STK_INVALID\000"
 4110      52525F54 
 4110      49434B5F 
 4110      53544B5F 
 4110      494E5641 
 4111              	.LASF77:
 4112 0f2c 4F535F45 		.ascii	"OS_ERR_MSG_POOL_NULL_PTR\000"
 4112      52525F4D 
 4112      53475F50 
 4112      4F4F4C5F 
 4112      4E554C4C 
 4113              	.LASF26:
 4114 0f45 4F535F4E 		.ascii	"OS_NESTING_CTR\000"
 4114      45535449 
 4114      4E475F43 
 4114      545200
 4115              	.LASF265:
 4116 0f54 4379636C 		.ascii	"CyclesTotal\000"
 4116      6573546F 
ARM GAS  C:\Users\ADMINI~1\AppData\Local\Temp\cc8eYrCa.s 			page 98


 4116      74616C00 
 4117              	.LASF289:
 4118 0f60 4F535F50 		.ascii	"OS_PEND_OBJ\000"
 4118      454E445F 
 4118      4F424A00 
 4119              	.LASF151:
 4120 0f6c 4F535F45 		.ascii	"OS_ERR_TASK_RESUME_SELF\000"
 4120      52525F54 
 4120      41534B5F 
 4120      52455355 
 4120      4D455F53 
 4121              	.LASF261:
 4122 0f84 43505555 		.ascii	"CPUUsageMax\000"
 4122      73616765 
 4122      4D617800 
 4123              	.LASF221:
 4124 0f90 50656E64 		.ascii	"PendList\000"
 4124      4C697374 
 4124      00
 4125              	.LASF89:
 4126 0f99 4F535F45 		.ascii	"OS_ERR_OBJ_TYPE\000"
 4126      52525F4F 
 4126      424A5F54 
 4126      59504500 
 4127              	.LASF241:
 4128 0fa9 50656E64 		.ascii	"PendDataTblPtr\000"
 4128      44617461 
 4128      54626C50 
 4128      747200
 4129              	.LASF249:
 4130 0fb8 53656D43 		.ascii	"SemCtr\000"
 4130      747200
 4131              	.LASF316:
 4132 0fbf 705F7463 		.ascii	"p_tcb_owner\000"
 4132      625F6F77 
 4132      6E657200 
 4133              	.LASF212:
 4134 0fcb 496E5074 		.ascii	"InPtr\000"
 4134      7200
 4135              	.LASF318:
 4136 0fd1 4F535469 		.ascii	"OSTickCtr\000"
 4136      636B4374 
 4136      7200
 4137              	.LASF317:
 4138 0fdb 7072696F 		.ascii	"prio_new\000"
 4138      5F6E6577 
 4138      00
 4139              	.LASF250:
 4140 0fe4 5469636B 		.ascii	"TickRemain\000"
 4140      52656D61 
 4140      696E00
 4141              	.LASF287:
 4142 0fef 48656164 		.ascii	"HeadPtr\000"
 4142      50747200 
 4143              	.LASF314:
 4144 0ff7 4F535F54 		.ascii	"OS_TickListUpdateDly\000"
 4144      69636B4C 
ARM GAS  C:\Users\ADMINI~1\AppData\Local\Temp\cc8eYrCa.s 			page 99


 4144      69737455 
 4144      70646174 
 4144      65446C79 
 4145              	.LASF98:
 4146 100c 4F535F45 		.ascii	"OS_ERR_PEND_ABORT_NONE\000"
 4146      52525F50 
 4146      454E445F 
 4146      41424F52 
 4146      545F4E4F 
 4147              	.LASF9:
 4148 1023 756E7369 		.ascii	"unsigned int\000"
 4148      676E6564 
 4148      20696E74 
 4148      00
 4149              	.LASF207:
 4150 1030 4D736753 		.ascii	"MsgSize\000"
 4150      697A6500 
 4151              	.LASF79:
 4152 1038 4F535F45 		.ascii	"OS_ERR_MUTEX_OWNER\000"
 4152      52525F4D 
 4152      55544558 
 4152      5F4F574E 
 4152      455200
 4153              	.LASF130:
 4154 104b 4F535F45 		.ascii	"OS_ERR_STAT_STK_SIZE_INVALID\000"
 4154      52525F53 
 4154      5441545F 
 4154      53544B5F 
 4154      53495A45 
 4155              	.LASF48:
 4156 1068 4F535F45 		.ascii	"OS_ERR_FLAG_NOT_RDY\000"
 4156      52525F46 
 4156      4C41475F 
 4156      4E4F545F 
 4156      52445900 
 4157              	.LASF299:
 4158 107c 705F6172 		.ascii	"p_arg\000"
 4158      6700
 4159              	.LASF232:
 4160 1082 45787450 		.ascii	"ExtPtr\000"
 4160      747200
 4161              	.LASF291:
 4162 1089 73697A65 		.ascii	"sizetype\000"
 4162      74797065 
 4162      00
 4163              	.LASF97:
 4164 1092 4F535F45 		.ascii	"OS_ERR_PEND_ABORT_ISR\000"
 4164      52525F50 
 4164      454E445F 
 4164      41424F52 
 4164      545F4953 
 4165              	.LASF14:
 4166 10a8 4350555F 		.ascii	"CPU_ADDR\000"
 4166      41444452 
 4166      00
 4167              	.LASF105:
 4168 10b1 4F535F45 		.ascii	"OS_ERR_POST_ISR\000"
ARM GAS  C:\Users\ADMINI~1\AppData\Local\Temp\cc8eYrCa.s 			page 100


 4168      52525F50 
 4168      4F53545F 
 4168      49535200 
 4169              	.LASF171:
 4170 10c1 4F535F45 		.ascii	"OS_ERR_TIME_DLY_ISR\000"
 4170      52525F54 
 4170      494D455F 
 4170      444C595F 
 4170      49535200 
 4171              	.LASF135:
 4172 10d5 4F535F45 		.ascii	"OS_ERR_STK_LIMIT_INVALID\000"
 4172      52525F53 
 4172      544B5F4C 
 4172      494D4954 
 4172      5F494E56 
 4173              	.LASF320:
 4174 10ee 4F535469 		.ascii	"OSTickTaskTimeMax\000"
 4174      636B5461 
 4174      736B5469 
 4174      6D654D61 
 4174      7800
 4175              	.LASF22:
 4176 1100 4F535F43 		.ascii	"OS_CYCLES\000"
 4176      59434C45 
 4176      5300
 4177              	.LASF229:
 4178 110a 4F535F54 		.ascii	"OS_TCB\000"
 4178      434200
 4179              	.LASF302:
 4180 1111 705F6C69 		.ascii	"p_list\000"
 4180      737400
 4181              	.LASF134:
 4182 1118 4F535F45 		.ascii	"OS_ERR_STK_SIZE_INVALID\000"
 4182      52525F53 
 4182      544B5F53 
 4182      495A455F 
 4182      494E5641 
 4183              	.LASF51:
 4184 1130 4F535F45 		.ascii	"OS_ERR_G\000"
 4184      52525F47 
 4184      00
 4185              	.LASF194:
 4186 1139 4F535F45 		.ascii	"OS_ERR_TMR_STOPPED\000"
 4186      52525F54 
 4186      4D525F53 
 4186      544F5050 
 4186      454400
 4187              	.LASF1:
 4188 114c 756E7369 		.ascii	"unsigned char\000"
 4188      676E6564 
 4188      20636861 
 4188      7200
 4189              	.LASF148:
 4190 115a 4F535F45 		.ascii	"OS_ERR_TASK_OPT\000"
 4190      52525F54 
 4190      41534B5F 
 4190      4F505400 
ARM GAS  C:\Users\ADMINI~1\AppData\Local\Temp\cc8eYrCa.s 			page 101


 4191              	.LASF181:
 4192 116a 4F535F45 		.ascii	"OS_ERR_TIMEOUT\000"
 4192      52525F54 
 4192      494D454F 
 4192      555400
 4193              	.LASF33:
 4194 1179 4F535F53 		.ascii	"OS_STATE\000"
 4194      54415445 
 4194      00
 4195              	.LASF29:
 4196 1182 4F535F4F 		.ascii	"OS_OPT\000"
 4196      505400
 4197              	.LASF324:
 4198 1189 4F534366 		.ascii	"OSCfg_TickTaskPrio\000"
 4198      675F5469 
 4198      636B5461 
 4198      736B5072 
 4198      696F00
 4199              	.LASF228:
 4200 119c 4F535F54 		.ascii	"OS_TASK_PTR\000"
 4200      41534B5F 
 4200      50545200 
 4201              	.LASF298:
 4202 11a8 4F535F54 		.ascii	"OS_TickTaskInit\000"
 4202      69636B54 
 4202      61736B49 
 4202      6E697400 
 4203              	.LASF66:
 4204 11b8 4F535F45 		.ascii	"OS_ERR_MEM_CREATE_ISR\000"
 4204      52525F4D 
 4204      454D5F43 
 4204      52454154 
 4204      455F4953 
 4205              	.LASF132:
 4206 11ce 4F535F45 		.ascii	"OS_ERR_STATUS_INVALID\000"
 4206      52525F53 
 4206      54415455 
 4206      535F494E 
 4206      56414C49 
 4207              	.LASF200:
 4208 11e4 4F535F45 		.ascii	"OS_ERR_Y\000"
 4208      52525F59 
 4208      00
 4209              	.LASF101:
 4210 11ed 4F535F45 		.ascii	"OS_ERR_PEND_ISR\000"
 4210      52525F50 
 4210      454E445F 
 4210      49535200 
 4211              	.LASF202:
 4212 11fd 4F535F45 		.ascii	"OS_ERR_Z\000"
 4212      52525F5A 
 4212      00
 4213              	.LASF224:
 4214 1206 4462674E 		.ascii	"DbgNamePtr\000"
 4214      616D6550 
 4214      747200
 4215              	.LASF213:
ARM GAS  C:\Users\ADMINI~1\AppData\Local\Temp\cc8eYrCa.s 			page 102


 4216 1211 4F757450 		.ascii	"OutPtr\000"
 4216      747200
 4217              	.LASF240:
 4218 1218 5461736B 		.ascii	"TaskEntryArg\000"
 4218      456E7472 
 4218      79417267 
 4218      00
 4219              	.LASF111:
 4220 1225 4F535F45 		.ascii	"OS_ERR_Q_FULL\000"
 4220      52525F51 
 4220      5F46554C 
 4220      4C00
 4221              	.LASF305:
 4222 1233 705F7463 		.ascii	"p_tcb1\000"
 4222      623100
 4223              	.LASF306:
 4224 123a 705F7463 		.ascii	"p_tcb2\000"
 4224      623200
 4225              	.LASF329:
 4226 1241 2E2E5C2E 		.ascii	"..\\..\\..\\..\\..\\..\\Software\\uCOS-III\\Source\\"
 4226      2E5C2E2E 
 4226      5C2E2E5C 
 4226      2E2E5C2E 
 4226      2E5C536F 
 4227 126c 6F735F74 		.ascii	"os_tick.c\000"
 4227      69636B2E 
 4227      6300
 4228              	.LASF58:
 4229 1276 4F535F45 		.ascii	"OS_ERR_INT_Q_STK_INVALID\000"
 4229      52525F49 
 4229      4E545F51 
 4229      5F53544B 
 4229      5F494E56 
 4230              	.LASF176:
 4231 128f 4F535F45 		.ascii	"OS_ERR_TIME_INVALID_SECONDS\000"
 4231      52525F54 
 4231      494D455F 
 4231      494E5641 
 4231      4C49445F 
 4232              	.LASF139:
 4233 12ab 4F535F45 		.ascii	"OS_ERR_TASK_DEL\000"
 4233      52525F54 
 4233      41534B5F 
 4233      44454C00 
 4234              	.LASF285:
 4235 12bb 4F535F50 		.ascii	"OS_PEND_LIST\000"
 4235      454E445F 
 4235      4C495354 
 4235      00
 4236              	.LASF4:
 4237 12c8 7369676E 		.ascii	"signed char\000"
 4237      65642063 
 4237      68617200 
 4238              	.LASF208:
 4239 12d4 4D736754 		.ascii	"MsgTS\000"
 4239      5300
 4240              	.LASF46:
ARM GAS  C:\Users\ADMINI~1\AppData\Local\Temp\cc8eYrCa.s 			page 103


 4241 12da 4F535F45 		.ascii	"OS_ERR_FATAL_RETURN\000"
 4241      52525F46 
 4241      4154414C 
 4241      5F524554 
 4241      55524E00 
 4242              	.LASF6:
 4243 12ee 73686F72 		.ascii	"short unsigned int\000"
 4243      7420756E 
 4243      7369676E 
 4243      65642069 
 4243      6E7400
 4244              	.LASF23:
 4245 1301 4F535F46 		.ascii	"OS_FLAGS\000"
 4245      4C414753 
 4245      00
 4246              	.LASF206:
 4247 130a 4D736750 		.ascii	"MsgPtr\000"
 4247      747200
 4248              	.LASF164:
 4249 1311 4F535F45 		.ascii	"OS_ERR_TLS_NO_MORE_AVAIL\000"
 4249      52525F54 
 4249      4C535F4E 
 4249      4F5F4D4F 
 4249      52455F41 
 4250              	.LASF36:
 4251 132a 4F535F45 		.ascii	"OS_ERR_NONE\000"
 4251      52525F4E 
 4251      4F4E4500 
 4252              	.LASF278:
 4253 1336 6F735F70 		.ascii	"os_pend_data\000"
 4253      656E645F 
 4253      64617461 
 4253      00
 4254              	.LASF310:
 4255 1343 4F535F54 		.ascii	"OS_TickListRemove\000"
 4255      69636B4C 
 4255      69737452 
 4255      656D6F76 
 4255      6500
 4256              	.LASF122:
 4257 1355 4F535F45 		.ascii	"OS_ERR_SCHED_LOCKED\000"
 4257      52525F53 
 4257      43484544 
 4257      5F4C4F43 
 4257      4B454400 
 4258              	.LASF50:
 4259 1369 4F535F45 		.ascii	"OS_ERR_FLUSH_ISR\000"
 4259      52525F46 
 4259      4C555348 
 4259      5F495352 
 4259      00
 4260              	.LASF245:
 4261 137a 5072696F 		.ascii	"Prio\000"
 4261      00
 4262              	.LASF13:
 4263 137f 646F7562 		.ascii	"double\000"
 4263      6C6500
ARM GAS  C:\Users\ADMINI~1\AppData\Local\Temp\cc8eYrCa.s 			page 104


 4264              	.LASF96:
 4265 1386 4F535F45 		.ascii	"OS_ERR_PEND_ABORT\000"
 4265      52525F50 
 4265      454E445F 
 4265      41424F52 
 4265      5400
 4266              	.LASF260:
 4267 1398 43505555 		.ascii	"CPUUsage\000"
 4267      73616765 
 4267      00
 4268              	.LASF123:
 4269 13a1 4F535F45 		.ascii	"OS_ERR_SCHED_NOT_LOCKED\000"
 4269      52525F53 
 4269      43484544 
 4269      5F4E4F54 
 4269      5F4C4F43 
 4270              	.LASF107:
 4271 13b9 4F535F45 		.ascii	"OS_ERR_PRIO\000"
 4271      52525F50 
 4271      52494F00 
 4272              	.LASF100:
 4273 13c5 4F535F45 		.ascii	"OS_ERR_PEND_DEL\000"
 4273      52525F50 
 4273      454E445F 
 4273      44454C00 
 4274              	.LASF280:
 4275 13d5 50656E64 		.ascii	"PendObjPtr\000"
 4275      4F626A50 
 4275      747200
 4276              	.LASF216:
 4277 13e0 4E627245 		.ascii	"NbrEntriesMax\000"
 4277      6E747269 
 4277      65734D61 
 4277      7800
 4278              	.LASF286:
 4279 13ee 6F735F70 		.ascii	"os_pend_list\000"
 4279      656E645F 
 4279      6C697374 
 4279      00
 4280              	.LASF74:
 4281 13fb 4F535F45 		.ascii	"OS_ERR_MEM_INVALID_SIZE\000"
 4281      52525F4D 
 4281      454D5F49 
 4281      4E56414C 
 4281      49445F53 
 4282              	.LASF154:
 4283 1413 4F535F45 		.ascii	"OS_ERR_TASK_SUSPENDED\000"
 4283      52525F54 
 4283      41534B5F 
 4283      53555350 
 4283      454E4445 
 4284              	.LASF126:
 4285 1429 4F535F45 		.ascii	"OS_ERR_SET_ISR\000"
 4285      52525F53 
 4285      45545F49 
 4285      535200
 4286              	.LASF255:
ARM GAS  C:\Users\ADMINI~1\AppData\Local\Temp\cc8eYrCa.s 			page 105


 4287 1438 52656754 		.ascii	"RegTbl\000"
 4287      626C00
 4288              	.LASF125:
 4289 143f 4F535F45 		.ascii	"OS_ERR_SEM_OVF\000"
 4289      52525F53 
 4289      454D5F4F 
 4289      564600
 4290              	.LASF140:
 4291 144e 4F535F45 		.ascii	"OS_ERR_TASK_DEL_IDLE\000"
 4291      52525F54 
 4291      41534B5F 
 4291      44454C5F 
 4291      49444C45 
 4292              	.LASF173:
 4293 1463 4F535F45 		.ascii	"OS_ERR_TIME_GET_ISR\000"
 4293      52525F54 
 4293      494D455F 
 4293      4745545F 
 4293      49535200 
 4294              	.LASF172:
 4295 1477 4F535F45 		.ascii	"OS_ERR_TIME_DLY_RESUME_ISR\000"
 4295      52525F54 
 4295      494D455F 
 4295      444C595F 
 4295      52455355 
 4296              	.LASF167:
 4297 1492 4F535F45 		.ascii	"OS_ERR_TICK_PRIO_INVALID\000"
 4297      52525F54 
 4297      49434B5F 
 4297      5052494F 
 4297      5F494E56 
 4298              	.LASF106:
 4299 14ab 4F535F45 		.ascii	"OS_ERR_PRIO_EXIST\000"
 4299      52525F50 
 4299      52494F5F 
 4299      45584953 
 4299      5400
 4300              	.LASF211:
 4301 14bd 6F735F6D 		.ascii	"os_msg_q\000"
 4301      73675F71 
 4301      00
 4302              	.LASF75:
 4303 14c6 4F535F45 		.ascii	"OS_ERR_MEM_NO_FREE_BLKS\000"
 4303      52525F4D 
 4303      454D5F4E 
 4303      4F5F4652 
 4303      45455F42 
 4304              	.LASF15:
 4305 14de 4350555F 		.ascii	"CPU_STK\000"
 4305      53544B00 
 4306              		.ident	"GCC: (GNU Tools for ARM Embedded Processors) 5.4.1 20160609 (release) [ARM/embedded-5-bran
