ARM GAS  C:\Users\ADMINI~1\AppData\Local\Temp\ccofok6U.s 			page 1


   1              		.syntax unified
   2              		.cpu cortex-m0
   3              		.fpu softvfp
   4              		.eabi_attribute 20, 1
   5              		.eabi_attribute 21, 1
   6              		.eabi_attribute 23, 3
   7              		.eabi_attribute 24, 1
   8              		.eabi_attribute 25, 1
   9              		.eabi_attribute 26, 1
  10              		.eabi_attribute 30, 6
  11              		.eabi_attribute 34, 0
  12              		.eabi_attribute 18, 4
  13              		.thumb
  14              		.syntax unified
  15              		.file	"os_tmr.c"
  16              		.text
  17              	.Ltext0:
  18              		.cfi_sections	.debug_frame
  19              		.section	.text.OSTmrCreate,"ax",%progbits
  20              		.align	2
  21              		.global	OSTmrCreate
  22              		.code	16
  23              		.thumb_func
  24              		.type	OSTmrCreate, %function
  25              	OSTmrCreate:
  26              	.LFB0:
  27              		.file 1 "..\\..\\..\\..\\..\\..\\Software\\uCOS-III\\Source\\os_tmr.c"
   1:..\..\..\..\..\..\Software\uCOS-III\Source/os_tmr.c **** /*
   2:..\..\..\..\..\..\Software\uCOS-III\Source/os_tmr.c **** ***************************************************************************************************
   3:..\..\..\..\..\..\Software\uCOS-III\Source/os_tmr.c **** *                                                      uC/OS-III
   4:..\..\..\..\..\..\Software\uCOS-III\Source/os_tmr.c **** *                                                 The Real-Time Kernel
   5:..\..\..\..\..\..\Software\uCOS-III\Source/os_tmr.c **** *
   6:..\..\..\..\..\..\Software\uCOS-III\Source/os_tmr.c **** *                                  (c) Copyright 2009-2015; Micrium, Inc.; Weston, FL
   7:..\..\..\..\..\..\Software\uCOS-III\Source/os_tmr.c **** *                           All rights reserved.  Protected by international copyright laws.
   8:..\..\..\..\..\..\Software\uCOS-III\Source/os_tmr.c **** *
   9:..\..\..\..\..\..\Software\uCOS-III\Source/os_tmr.c **** *                                                   TIMER MANAGEMENT
  10:..\..\..\..\..\..\Software\uCOS-III\Source/os_tmr.c **** *
  11:..\..\..\..\..\..\Software\uCOS-III\Source/os_tmr.c **** * File    : OS_TMR.C
  12:..\..\..\..\..\..\Software\uCOS-III\Source/os_tmr.c **** * By      : JJL
  13:..\..\..\..\..\..\Software\uCOS-III\Source/os_tmr.c **** * Version : V3.05.01
  14:..\..\..\..\..\..\Software\uCOS-III\Source/os_tmr.c **** *
  15:..\..\..\..\..\..\Software\uCOS-III\Source/os_tmr.c **** * LICENSING TERMS:
  16:..\..\..\..\..\..\Software\uCOS-III\Source/os_tmr.c **** * ---------------
  17:..\..\..\..\..\..\Software\uCOS-III\Source/os_tmr.c **** *           uC/OS-III is provided in source form for FREE short-term evaluation, for educational us
  18:..\..\..\..\..\..\Software\uCOS-III\Source/os_tmr.c **** *           for peaceful research.  If you plan or intend to use uC/OS-III in a commercial applicat
  19:..\..\..\..\..\..\Software\uCOS-III\Source/os_tmr.c **** *           product then, you need to contact Micrium to properly license uC/OS-III for its use in 
  20:..\..\..\..\..\..\Software\uCOS-III\Source/os_tmr.c **** *           application/product.   We provide ALL the source code for your convenience and to help 
  21:..\..\..\..\..\..\Software\uCOS-III\Source/os_tmr.c **** *           experience uC/OS-III.  The fact that the source is provided does NOT mean that you can 
  22:..\..\..\..\..\..\Software\uCOS-III\Source/os_tmr.c **** *           it commercially without paying a licensing fee.
  23:..\..\..\..\..\..\Software\uCOS-III\Source/os_tmr.c **** *
  24:..\..\..\..\..\..\Software\uCOS-III\Source/os_tmr.c **** *           Knowledge of the source code may NOT be used to develop a similar product.
  25:..\..\..\..\..\..\Software\uCOS-III\Source/os_tmr.c **** *
  26:..\..\..\..\..\..\Software\uCOS-III\Source/os_tmr.c **** *           Please help us continue to provide the embedded community with the finest software avai
  27:..\..\..\..\..\..\Software\uCOS-III\Source/os_tmr.c **** *           Your honesty is greatly appreciated.
  28:..\..\..\..\..\..\Software\uCOS-III\Source/os_tmr.c **** *
  29:..\..\..\..\..\..\Software\uCOS-III\Source/os_tmr.c **** *           You can find our product's user manual, API reference, release notes and
  30:..\..\..\..\..\..\Software\uCOS-III\Source/os_tmr.c **** *           more information at https://doc.micrium.com.
ARM GAS  C:\Users\ADMINI~1\AppData\Local\Temp\ccofok6U.s 			page 2


  31:..\..\..\..\..\..\Software\uCOS-III\Source/os_tmr.c **** *           You can contact us at www.micrium.com.
  32:..\..\..\..\..\..\Software\uCOS-III\Source/os_tmr.c **** ***************************************************************************************************
  33:..\..\..\..\..\..\Software\uCOS-III\Source/os_tmr.c **** */
  34:..\..\..\..\..\..\Software\uCOS-III\Source/os_tmr.c **** 
  35:..\..\..\..\..\..\Software\uCOS-III\Source/os_tmr.c **** #define  MICRIUM_SOURCE
  36:..\..\..\..\..\..\Software\uCOS-III\Source/os_tmr.c **** #include "os.h"
  37:..\..\..\..\..\..\Software\uCOS-III\Source/os_tmr.c **** 
  38:..\..\..\..\..\..\Software\uCOS-III\Source/os_tmr.c **** #ifdef VSC_INCLUDE_SOURCE_FILE_NAMES
  39:..\..\..\..\..\..\Software\uCOS-III\Source/os_tmr.c **** const  CPU_CHAR  *os_tmr__c = "$Id: $";
  40:..\..\..\..\..\..\Software\uCOS-III\Source/os_tmr.c **** #endif
  41:..\..\..\..\..\..\Software\uCOS-III\Source/os_tmr.c **** 
  42:..\..\..\..\..\..\Software\uCOS-III\Source/os_tmr.c **** 
  43:..\..\..\..\..\..\Software\uCOS-III\Source/os_tmr.c **** #if (OS_CFG_TMR_EN == DEF_ENABLED)
  44:..\..\..\..\..\..\Software\uCOS-III\Source/os_tmr.c **** /*
  45:..\..\..\..\..\..\Software\uCOS-III\Source/os_tmr.c **** ***************************************************************************************************
  46:..\..\..\..\..\..\Software\uCOS-III\Source/os_tmr.c **** *                                               LOCAL FUNCTION PROTOTYPES
  47:..\..\..\..\..\..\Software\uCOS-III\Source/os_tmr.c **** ***************************************************************************************************
  48:..\..\..\..\..\..\Software\uCOS-III\Source/os_tmr.c **** */
  49:..\..\..\..\..\..\Software\uCOS-III\Source/os_tmr.c **** 
  50:..\..\..\..\..\..\Software\uCOS-III\Source/os_tmr.c **** static  void  OS_TmrLock   (void);
  51:..\..\..\..\..\..\Software\uCOS-III\Source/os_tmr.c **** static  void  OS_TmrUnlock (void);
  52:..\..\..\..\..\..\Software\uCOS-III\Source/os_tmr.c **** 
  53:..\..\..\..\..\..\Software\uCOS-III\Source/os_tmr.c **** 
  54:..\..\..\..\..\..\Software\uCOS-III\Source/os_tmr.c **** /*
  55:..\..\..\..\..\..\Software\uCOS-III\Source/os_tmr.c **** ***************************************************************************************************
  56:..\..\..\..\..\..\Software\uCOS-III\Source/os_tmr.c **** *                                                   CREATE A TIMER
  57:..\..\..\..\..\..\Software\uCOS-III\Source/os_tmr.c **** *
  58:..\..\..\..\..\..\Software\uCOS-III\Source/os_tmr.c **** * Description: This function is called by your application code to create a timer.
  59:..\..\..\..\..\..\Software\uCOS-III\Source/os_tmr.c **** *
  60:..\..\..\..\..\..\Software\uCOS-III\Source/os_tmr.c **** * Arguments  : p_tmr           Is a pointer to a timer control block
  61:..\..\..\..\..\..\Software\uCOS-III\Source/os_tmr.c **** *
  62:..\..\..\..\..\..\Software\uCOS-III\Source/os_tmr.c **** *              p_name          Is a pointer to an ASCII string that is used to name the timer.  Nam
  63:..\..\..\..\..\..\Software\uCOS-III\Source/os_tmr.c **** *                              debugging.
  64:..\..\..\..\..\..\Software\uCOS-III\Source/os_tmr.c **** *
  65:..\..\..\..\..\..\Software\uCOS-III\Source/os_tmr.c **** *              dly             Initial delay.
  66:..\..\..\..\..\..\Software\uCOS-III\Source/os_tmr.c **** *                              If the timer is configured for ONE-SHOT mode, this is the timeout us
  67:..\..\..\..\..\..\Software\uCOS-III\Source/os_tmr.c **** *                              If the timer is configured for PERIODIC mode, this is the first time
  68:..\..\..\..\..\..\Software\uCOS-III\Source/os_tmr.c **** *                              before the timer starts entering periodic mode
  69:..\..\..\..\..\..\Software\uCOS-III\Source/os_tmr.c **** *
  70:..\..\..\..\..\..\Software\uCOS-III\Source/os_tmr.c **** *              period          The 'period' being repeated for the timer.
  71:..\..\..\..\..\..\Software\uCOS-III\Source/os_tmr.c **** *                              If you specified 'OS_OPT_TMR_PERIODIC' as an option, when the timer 
  72:..\..\..\..\..\..\Software\uCOS-III\Source/os_tmr.c **** *                              automatically restart with the same period.
  73:..\..\..\..\..\..\Software\uCOS-III\Source/os_tmr.c **** *
  74:..\..\..\..\..\..\Software\uCOS-III\Source/os_tmr.c **** *              opt             Specifies either:
  75:..\..\..\..\..\..\Software\uCOS-III\Source/os_tmr.c **** *
  76:..\..\..\..\..\..\Software\uCOS-III\Source/os_tmr.c **** *                                  OS_OPT_TMR_ONE_SHOT       The timer counts down only once
  77:..\..\..\..\..\..\Software\uCOS-III\Source/os_tmr.c **** *                                  OS_OPT_TMR_PERIODIC       The timer counts down and then reloads
  78:..\..\..\..\..\..\Software\uCOS-III\Source/os_tmr.c **** *
  79:..\..\..\..\..\..\Software\uCOS-III\Source/os_tmr.c **** *              p_callback      Is a pointer to a callback function that will be called when the tim
  80:..\..\..\..\..\..\Software\uCOS-III\Source/os_tmr.c **** *                              callback function must be declared as follows:
  81:..\..\..\..\..\..\Software\uCOS-III\Source/os_tmr.c **** *
  82:..\..\..\..\..\..\Software\uCOS-III\Source/os_tmr.c **** *                                  void  MyCallback (OS_TMR *p_tmr, void *p_arg);
  83:..\..\..\..\..\..\Software\uCOS-III\Source/os_tmr.c **** *
  84:..\..\..\..\..\..\Software\uCOS-III\Source/os_tmr.c **** *              p_callback_arg  Is an argument (a pointer) that is passed to the callback function w
  85:..\..\..\..\..\..\Software\uCOS-III\Source/os_tmr.c **** *
  86:..\..\..\..\..\..\Software\uCOS-III\Source/os_tmr.c **** *              p_err           Is a pointer to an error code.  '*p_err' will contain one of the fol
  87:..\..\..\..\..\..\Software\uCOS-III\Source/os_tmr.c **** *
ARM GAS  C:\Users\ADMINI~1\AppData\Local\Temp\ccofok6U.s 			page 3


  88:..\..\..\..\..\..\Software\uCOS-III\Source/os_tmr.c **** *                                 OS_ERR_NONE                    The call succeeded
  89:..\..\..\..\..\..\Software\uCOS-III\Source/os_tmr.c **** *                                 OS_ERR_ILLEGAL_CREATE_RUN_TIME If you are trying to create the ti
  90:..\..\..\..\..\..\Software\uCOS-III\Source/os_tmr.c **** *                                                                  OSStart()
  91:..\..\..\..\..\..\Software\uCOS-III\Source/os_tmr.c **** *                                 OS_ERR_OBJ_PTR_NULL            Is 'p_tmr' is a NULL pointer
  92:..\..\..\..\..\..\Software\uCOS-III\Source/os_tmr.c **** *                                 OS_ERR_OPT_INVALID             You specified an invalid option
  93:..\..\..\..\..\..\Software\uCOS-III\Source/os_tmr.c **** *                                 OS_ERR_TMR_INVALID_CALLBACK    You specified an invalid callback 
  94:..\..\..\..\..\..\Software\uCOS-III\Source/os_tmr.c **** *                                 OS_ERR_TMR_INVALID_DLY         You specified an invalid delay
  95:..\..\..\..\..\..\Software\uCOS-III\Source/os_tmr.c **** *                                 OS_ERR_TMR_INVALID_PERIOD      You specified an invalid period
  96:..\..\..\..\..\..\Software\uCOS-III\Source/os_tmr.c **** *                                 OS_ERR_TMR_ISR                 If the call was made from an ISR
  97:..\..\..\..\..\..\Software\uCOS-III\Source/os_tmr.c **** *
  98:..\..\..\..\..\..\Software\uCOS-III\Source/os_tmr.c **** * Returns    : none
  99:..\..\..\..\..\..\Software\uCOS-III\Source/os_tmr.c **** *
 100:..\..\..\..\..\..\Software\uCOS-III\Source/os_tmr.c **** * Note(s)    : 1) This function only creates the timer.  In other words, the timer is not started w
 101:..\..\..\..\..\..\Software\uCOS-III\Source/os_tmr.c **** *                 start the timer, call OSTmrStart().
 102:..\..\..\..\..\..\Software\uCOS-III\Source/os_tmr.c **** ***************************************************************************************************
 103:..\..\..\..\..\..\Software\uCOS-III\Source/os_tmr.c **** */
 104:..\..\..\..\..\..\Software\uCOS-III\Source/os_tmr.c **** 
 105:..\..\..\..\..\..\Software\uCOS-III\Source/os_tmr.c **** void  OSTmrCreate (OS_TMR               *p_tmr,
 106:..\..\..\..\..\..\Software\uCOS-III\Source/os_tmr.c ****                    CPU_CHAR             *p_name,
 107:..\..\..\..\..\..\Software\uCOS-III\Source/os_tmr.c ****                    OS_TICK               dly,
 108:..\..\..\..\..\..\Software\uCOS-III\Source/os_tmr.c ****                    OS_TICK               period,
 109:..\..\..\..\..\..\Software\uCOS-III\Source/os_tmr.c ****                    OS_OPT                opt,
 110:..\..\..\..\..\..\Software\uCOS-III\Source/os_tmr.c ****                    OS_TMR_CALLBACK_PTR   p_callback,
 111:..\..\..\..\..\..\Software\uCOS-III\Source/os_tmr.c ****                    void                 *p_callback_arg,
 112:..\..\..\..\..\..\Software\uCOS-III\Source/os_tmr.c ****                    OS_ERR               *p_err)
 113:..\..\..\..\..\..\Software\uCOS-III\Source/os_tmr.c **** {
  28              		.loc 1 113 0
  29              		.cfi_startproc
  30              		@ args = 16, pretend = 0, frame = 16
  31              		@ frame_needed = 1, uses_anonymous_args = 0
  32 0000 80B5     		push	{r7, lr}
  33              		.cfi_def_cfa_offset 8
  34              		.cfi_offset 7, -8
  35              		.cfi_offset 14, -4
  36 0002 84B0     		sub	sp, sp, #16
  37              		.cfi_def_cfa_offset 24
  38 0004 00AF     		add	r7, sp, #0
  39              		.cfi_def_cfa_register 7
  40 0006 F860     		str	r0, [r7, #12]
  41 0008 B960     		str	r1, [r7, #8]
  42 000a 7A60     		str	r2, [r7, #4]
  43 000c 3B60     		str	r3, [r7]
 114:..\..\..\..\..\..\Software\uCOS-III\Source/os_tmr.c **** #ifdef OS_SAFETY_CRITICAL
 115:..\..\..\..\..\..\Software\uCOS-III\Source/os_tmr.c ****     if (p_err == DEF_NULL) {
 116:..\..\..\..\..\..\Software\uCOS-III\Source/os_tmr.c ****         OS_SAFETY_CRITICAL_EXCEPTION();
 117:..\..\..\..\..\..\Software\uCOS-III\Source/os_tmr.c ****         return;
 118:..\..\..\..\..\..\Software\uCOS-III\Source/os_tmr.c ****     }
 119:..\..\..\..\..\..\Software\uCOS-III\Source/os_tmr.c **** #endif
 120:..\..\..\..\..\..\Software\uCOS-III\Source/os_tmr.c **** 
 121:..\..\..\..\..\..\Software\uCOS-III\Source/os_tmr.c **** #ifdef OS_SAFETY_CRITICAL_IEC61508
 122:..\..\..\..\..\..\Software\uCOS-III\Source/os_tmr.c ****     if (OSSafetyCriticalStartFlag == DEF_TRUE) {
 123:..\..\..\..\..\..\Software\uCOS-III\Source/os_tmr.c ****        *p_err = OS_ERR_ILLEGAL_CREATE_RUN_TIME;
 124:..\..\..\..\..\..\Software\uCOS-III\Source/os_tmr.c ****         return;
 125:..\..\..\..\..\..\Software\uCOS-III\Source/os_tmr.c ****     }
 126:..\..\..\..\..\..\Software\uCOS-III\Source/os_tmr.c **** #endif
 127:..\..\..\..\..\..\Software\uCOS-III\Source/os_tmr.c **** 
 128:..\..\..\..\..\..\Software\uCOS-III\Source/os_tmr.c **** #if (OS_CFG_CALLED_FROM_ISR_CHK_EN == DEF_ENABLED)
ARM GAS  C:\Users\ADMINI~1\AppData\Local\Temp\ccofok6U.s 			page 4


 129:..\..\..\..\..\..\Software\uCOS-III\Source/os_tmr.c ****     if (OSIntNestingCtr > 0u) {                                 /* See if trying to call from an IS
  44              		.loc 1 129 0
  45 000e 394B     		ldr	r3, .L17
  46 0010 1B78     		ldrb	r3, [r3]
  47 0012 002B     		cmp	r3, #0
  48 0014 03D0     		beq	.L2
 130:..\..\..\..\..\..\Software\uCOS-III\Source/os_tmr.c ****        *p_err = OS_ERR_TMR_ISR;
  49              		.loc 1 130 0
  50 0016 7B6A     		ldr	r3, [r7, #36]
  51 0018 374A     		ldr	r2, .L17+4
  52 001a 1A80     		strh	r2, [r3]
 131:..\..\..\..\..\..\Software\uCOS-III\Source/os_tmr.c ****         return;
  53              		.loc 1 131 0
  54 001c 66E0     		b	.L1
  55              	.L2:
 132:..\..\..\..\..\..\Software\uCOS-III\Source/os_tmr.c ****     }
 133:..\..\..\..\..\..\Software\uCOS-III\Source/os_tmr.c **** #endif
 134:..\..\..\..\..\..\Software\uCOS-III\Source/os_tmr.c **** 
 135:..\..\..\..\..\..\Software\uCOS-III\Source/os_tmr.c **** #if (OS_CFG_ARG_CHK_EN == DEF_ENABLED)
 136:..\..\..\..\..\..\Software\uCOS-III\Source/os_tmr.c ****     if (p_tmr == DEF_NULL) {                                    /* Validate 'p_tmr'                
  56              		.loc 1 136 0
  57 001e FB68     		ldr	r3, [r7, #12]
  58 0020 002B     		cmp	r3, #0
  59 0022 03D1     		bne	.L4
 137:..\..\..\..\..\..\Software\uCOS-III\Source/os_tmr.c ****        *p_err = OS_ERR_OBJ_PTR_NULL;
  60              		.loc 1 137 0
  61 0024 7B6A     		ldr	r3, [r7, #36]
  62 0026 354A     		ldr	r2, .L17+8
  63 0028 1A80     		strh	r2, [r3]
 138:..\..\..\..\..\..\Software\uCOS-III\Source/os_tmr.c ****         return;
  64              		.loc 1 138 0
  65 002a 5FE0     		b	.L1
  66              	.L4:
 139:..\..\..\..\..\..\Software\uCOS-III\Source/os_tmr.c ****     }
 140:..\..\..\..\..\..\Software\uCOS-III\Source/os_tmr.c **** 
 141:..\..\..\..\..\..\Software\uCOS-III\Source/os_tmr.c ****     switch (opt) {
  67              		.loc 1 141 0
  68 002c 1823     		movs	r3, #24
  69 002e FB18     		adds	r3, r7, r3
  70 0030 1B88     		ldrh	r3, [r3]
  71 0032 012B     		cmp	r3, #1
  72 0034 0FD0     		beq	.L6
  73 0036 022B     		cmp	r3, #2
  74 0038 14D1     		bne	.L14
 142:..\..\..\..\..\..\Software\uCOS-III\Source/os_tmr.c ****         case OS_OPT_TMR_PERIODIC:
 143:..\..\..\..\..\..\Software\uCOS-III\Source/os_tmr.c ****              if (period == 0u) {
  75              		.loc 1 143 0
  76 003a 3B68     		ldr	r3, [r7]
  77 003c 002B     		cmp	r3, #0
  78 003e 03D1     		bne	.L8
 144:..\..\..\..\..\..\Software\uCOS-III\Source/os_tmr.c ****                 *p_err = OS_ERR_TMR_INVALID_PERIOD;
  79              		.loc 1 144 0
  80 0040 7B6A     		ldr	r3, [r7, #36]
  81 0042 2F4A     		ldr	r2, .L17+12
  82 0044 1A80     		strh	r2, [r3]
 145:..\..\..\..\..\..\Software\uCOS-III\Source/os_tmr.c ****                  return;
  83              		.loc 1 145 0
ARM GAS  C:\Users\ADMINI~1\AppData\Local\Temp\ccofok6U.s 			page 5


  84 0046 51E0     		b	.L1
  85              	.L8:
 146:..\..\..\..\..\..\Software\uCOS-III\Source/os_tmr.c ****              }
 147:..\..\..\..\..\..\Software\uCOS-III\Source/os_tmr.c **** 
 148:..\..\..\..\..\..\Software\uCOS-III\Source/os_tmr.c ****              if (p_callback == DEF_NULL) {                      /* No point in a periodic timer wit
  86              		.loc 1 148 0
  87 0048 FB69     		ldr	r3, [r7, #28]
  88 004a 002B     		cmp	r3, #0
  89 004c 0ED1     		bne	.L15
 149:..\..\..\..\..\..\Software\uCOS-III\Source/os_tmr.c ****                 *p_err = OS_ERR_TMR_INVALID_CALLBACK;
  90              		.loc 1 149 0
  91 004e 7B6A     		ldr	r3, [r7, #36]
  92 0050 2C4A     		ldr	r2, .L17+16
  93 0052 1A80     		strh	r2, [r3]
 150:..\..\..\..\..\..\Software\uCOS-III\Source/os_tmr.c ****                  return;
  94              		.loc 1 150 0
  95 0054 4AE0     		b	.L1
  96              	.L6:
 151:..\..\..\..\..\..\Software\uCOS-III\Source/os_tmr.c ****              }
 152:..\..\..\..\..\..\Software\uCOS-III\Source/os_tmr.c ****              break;
 153:..\..\..\..\..\..\Software\uCOS-III\Source/os_tmr.c **** 
 154:..\..\..\..\..\..\Software\uCOS-III\Source/os_tmr.c ****         case OS_OPT_TMR_ONE_SHOT:
 155:..\..\..\..\..\..\Software\uCOS-III\Source/os_tmr.c ****              if (dly == 0u) {
  97              		.loc 1 155 0
  98 0056 7B68     		ldr	r3, [r7, #4]
  99 0058 002B     		cmp	r3, #0
 100 005a 09D1     		bne	.L16
 156:..\..\..\..\..\..\Software\uCOS-III\Source/os_tmr.c ****                 *p_err = OS_ERR_TMR_INVALID_DLY;
 101              		.loc 1 156 0
 102 005c 7B6A     		ldr	r3, [r7, #36]
 103 005e 2A4A     		ldr	r2, .L17+20
 104 0060 1A80     		strh	r2, [r3]
 157:..\..\..\..\..\..\Software\uCOS-III\Source/os_tmr.c ****                  return;
 105              		.loc 1 157 0
 106 0062 43E0     		b	.L1
 107              	.L14:
 158:..\..\..\..\..\..\Software\uCOS-III\Source/os_tmr.c ****              }
 159:..\..\..\..\..\..\Software\uCOS-III\Source/os_tmr.c ****              break;
 160:..\..\..\..\..\..\Software\uCOS-III\Source/os_tmr.c **** 
 161:..\..\..\..\..\..\Software\uCOS-III\Source/os_tmr.c ****         default:
 162:..\..\..\..\..\..\Software\uCOS-III\Source/os_tmr.c ****             *p_err = OS_ERR_OPT_INVALID;
 108              		.loc 1 162 0
 109 0064 7B6A     		ldr	r3, [r7, #36]
 110 0066 294A     		ldr	r2, .L17+24
 111 0068 1A80     		strh	r2, [r3]
 163:..\..\..\..\..\..\Software\uCOS-III\Source/os_tmr.c ****              return;
 112              		.loc 1 163 0
 113 006a 3FE0     		b	.L1
 114              	.L15:
 152:..\..\..\..\..\..\Software\uCOS-III\Source/os_tmr.c **** 
 115              		.loc 1 152 0
 116 006c C046     		nop
 117 006e 00E0     		b	.L10
 118              	.L16:
 159:..\..\..\..\..\..\Software\uCOS-III\Source/os_tmr.c **** 
 119              		.loc 1 159 0
 120 0070 C046     		nop
ARM GAS  C:\Users\ADMINI~1\AppData\Local\Temp\ccofok6U.s 			page 6


 121              	.L10:
 164:..\..\..\..\..\..\Software\uCOS-III\Source/os_tmr.c ****     }
 165:..\..\..\..\..\..\Software\uCOS-III\Source/os_tmr.c **** #endif
 166:..\..\..\..\..\..\Software\uCOS-III\Source/os_tmr.c **** 
 167:..\..\..\..\..\..\Software\uCOS-III\Source/os_tmr.c ****     if (OSRunning == OS_STATE_OS_RUNNING) {                     /* Only lock when the kernel is run
 122              		.loc 1 167 0
 123 0072 274B     		ldr	r3, .L17+28
 124 0074 1B78     		ldrb	r3, [r3]
 125 0076 012B     		cmp	r3, #1
 126 0078 01D1     		bne	.L12
 168:..\..\..\..\..\..\Software\uCOS-III\Source/os_tmr.c ****         OS_TmrLock();
 127              		.loc 1 168 0
 128 007a FFF7FEFF 		bl	OS_TmrLock
 129              	.L12:
 169:..\..\..\..\..\..\Software\uCOS-III\Source/os_tmr.c ****     }
 170:..\..\..\..\..\..\Software\uCOS-III\Source/os_tmr.c **** 
 171:..\..\..\..\..\..\Software\uCOS-III\Source/os_tmr.c ****     p_tmr->State          = OS_TMR_STATE_STOPPED;               /* Initialize the timer fields     
 130              		.loc 1 171 0
 131 007e FB68     		ldr	r3, [r7, #12]
 132 0080 2622     		movs	r2, #38
 133 0082 0121     		movs	r1, #1
 134 0084 9954     		strb	r1, [r3, r2]
 172:..\..\..\..\..\..\Software\uCOS-III\Source/os_tmr.c **** #if (OS_OBJ_TYPE_REQ == DEF_ENABLED)
 173:..\..\..\..\..\..\Software\uCOS-III\Source/os_tmr.c ****     p_tmr->Type           = OS_OBJ_TYPE_TMR;
 135              		.loc 1 173 0
 136 0086 FB68     		ldr	r3, [r7, #12]
 137 0088 224A     		ldr	r2, .L17+32
 138 008a 1A60     		str	r2, [r3]
 174:..\..\..\..\..\..\Software\uCOS-III\Source/os_tmr.c **** #endif
 175:..\..\..\..\..\..\Software\uCOS-III\Source/os_tmr.c **** #if (OS_CFG_DBG_EN == DEF_ENABLED)
 176:..\..\..\..\..\..\Software\uCOS-III\Source/os_tmr.c ****     p_tmr->NamePtr        = p_name;
 139              		.loc 1 176 0
 140 008c FB68     		ldr	r3, [r7, #12]
 141 008e BA68     		ldr	r2, [r7, #8]
 142 0090 5A60     		str	r2, [r3, #4]
 177:..\..\..\..\..\..\Software\uCOS-III\Source/os_tmr.c **** #else
 178:..\..\..\..\..\..\Software\uCOS-III\Source/os_tmr.c ****     (void)&p_name;
 179:..\..\..\..\..\..\Software\uCOS-III\Source/os_tmr.c **** #endif
 180:..\..\..\..\..\..\Software\uCOS-III\Source/os_tmr.c ****     p_tmr->Dly            = dly;
 143              		.loc 1 180 0
 144 0092 FB68     		ldr	r3, [r7, #12]
 145 0094 7A68     		ldr	r2, [r7, #4]
 146 0096 DA61     		str	r2, [r3, #28]
 181:..\..\..\..\..\..\Software\uCOS-III\Source/os_tmr.c ****     p_tmr->Remain         = 0u;
 147              		.loc 1 181 0
 148 0098 FB68     		ldr	r3, [r7, #12]
 149 009a 0022     		movs	r2, #0
 150 009c 9A61     		str	r2, [r3, #24]
 182:..\..\..\..\..\..\Software\uCOS-III\Source/os_tmr.c ****     p_tmr->Period         = period;
 151              		.loc 1 182 0
 152 009e FB68     		ldr	r3, [r7, #12]
 153 00a0 3A68     		ldr	r2, [r7]
 154 00a2 1A62     		str	r2, [r3, #32]
 183:..\..\..\..\..\..\Software\uCOS-III\Source/os_tmr.c ****     p_tmr->Opt            = opt;
 155              		.loc 1 183 0
 156 00a4 FB68     		ldr	r3, [r7, #12]
 157 00a6 1822     		movs	r2, #24
ARM GAS  C:\Users\ADMINI~1\AppData\Local\Temp\ccofok6U.s 			page 7


 158 00a8 BA18     		adds	r2, r7, r2
 159 00aa 1288     		ldrh	r2, [r2]
 160 00ac 9A84     		strh	r2, [r3, #36]
 184:..\..\..\..\..\..\Software\uCOS-III\Source/os_tmr.c ****     p_tmr->CallbackPtr    = p_callback;
 161              		.loc 1 184 0
 162 00ae FB68     		ldr	r3, [r7, #12]
 163 00b0 FA69     		ldr	r2, [r7, #28]
 164 00b2 9A60     		str	r2, [r3, #8]
 185:..\..\..\..\..\..\Software\uCOS-III\Source/os_tmr.c ****     p_tmr->CallbackPtrArg = p_callback_arg;
 165              		.loc 1 185 0
 166 00b4 FB68     		ldr	r3, [r7, #12]
 167 00b6 3A6A     		ldr	r2, [r7, #32]
 168 00b8 DA60     		str	r2, [r3, #12]
 186:..\..\..\..\..\..\Software\uCOS-III\Source/os_tmr.c ****     p_tmr->NextPtr        = DEF_NULL;
 169              		.loc 1 186 0
 170 00ba FB68     		ldr	r3, [r7, #12]
 171 00bc 0022     		movs	r2, #0
 172 00be 1A61     		str	r2, [r3, #16]
 187:..\..\..\..\..\..\Software\uCOS-III\Source/os_tmr.c ****     p_tmr->PrevPtr        = DEF_NULL;
 173              		.loc 1 187 0
 174 00c0 FB68     		ldr	r3, [r7, #12]
 175 00c2 0022     		movs	r2, #0
 176 00c4 5A61     		str	r2, [r3, #20]
 188:..\..\..\..\..\..\Software\uCOS-III\Source/os_tmr.c **** 
 189:..\..\..\..\..\..\Software\uCOS-III\Source/os_tmr.c **** #if (OS_CFG_DBG_EN == DEF_ENABLED)
 190:..\..\..\..\..\..\Software\uCOS-III\Source/os_tmr.c ****     OS_TmrDbgListAdd(p_tmr);
 177              		.loc 1 190 0
 178 00c6 FB68     		ldr	r3, [r7, #12]
 179 00c8 1800     		movs	r0, r3
 180 00ca FFF7FEFF 		bl	OS_TmrDbgListAdd
 191:..\..\..\..\..\..\Software\uCOS-III\Source/os_tmr.c **** #endif
 192:..\..\..\..\..\..\Software\uCOS-III\Source/os_tmr.c **** #if (OS_CFG_DBG_EN == DEF_ENABLED)
 193:..\..\..\..\..\..\Software\uCOS-III\Source/os_tmr.c ****     OSTmrQty++;                                                 /* Keep track of the number of time
 181              		.loc 1 193 0
 182 00ce 124B     		ldr	r3, .L17+36
 183 00d0 1B88     		ldrh	r3, [r3]
 184 00d2 0133     		adds	r3, r3, #1
 185 00d4 9AB2     		uxth	r2, r3
 186 00d6 104B     		ldr	r3, .L17+36
 187 00d8 1A80     		strh	r2, [r3]
 194:..\..\..\..\..\..\Software\uCOS-III\Source/os_tmr.c **** #endif
 195:..\..\..\..\..\..\Software\uCOS-III\Source/os_tmr.c **** 
 196:..\..\..\..\..\..\Software\uCOS-III\Source/os_tmr.c ****     if (OSRunning == OS_STATE_OS_RUNNING) {
 188              		.loc 1 196 0
 189 00da 0D4B     		ldr	r3, .L17+28
 190 00dc 1B78     		ldrb	r3, [r3]
 191 00de 012B     		cmp	r3, #1
 192 00e0 01D1     		bne	.L13
 197:..\..\..\..\..\..\Software\uCOS-III\Source/os_tmr.c ****         OS_TmrUnlock();
 193              		.loc 1 197 0
 194 00e2 FFF7FEFF 		bl	OS_TmrUnlock
 195              	.L13:
 198:..\..\..\..\..\..\Software\uCOS-III\Source/os_tmr.c ****     }
 199:..\..\..\..\..\..\Software\uCOS-III\Source/os_tmr.c **** 
 200:..\..\..\..\..\..\Software\uCOS-III\Source/os_tmr.c ****    *p_err = OS_ERR_NONE;
 196              		.loc 1 200 0
 197 00e6 7B6A     		ldr	r3, [r7, #36]
ARM GAS  C:\Users\ADMINI~1\AppData\Local\Temp\ccofok6U.s 			page 8


 198 00e8 0022     		movs	r2, #0
 199 00ea 1A80     		strh	r2, [r3]
 200              	.L1:
 201:..\..\..\..\..\..\Software\uCOS-III\Source/os_tmr.c **** }
 201              		.loc 1 201 0
 202 00ec BD46     		mov	sp, r7
 203 00ee 04B0     		add	sp, sp, #16
 204              		@ sp needed
 205 00f0 80BD     		pop	{r7, pc}
 206              	.L18:
 207 00f2 C046     		.align	2
 208              	.L17:
 209 00f4 00000000 		.word	OSIntNestingCtr
 210 00f8 43730000 		.word	29507
 211 00fc C35D0000 		.word	24003
 212 0100 40730000 		.word	29504
 213 0104 4A730000 		.word	29514
 214 0108 3F730000 		.word	29503
 215 010c 255E0000 		.word	24101
 216 0110 00000000 		.word	OSRunning
 217 0114 544D5220 		.word	542264660
 218 0118 00000000 		.word	OSTmrQty
 219              		.cfi_endproc
 220              	.LFE0:
 221              		.size	OSTmrCreate, .-OSTmrCreate
 222              		.section	.text.OSTmrRemainGet,"ax",%progbits
 223              		.align	2
 224              		.global	OSTmrRemainGet
 225              		.code	16
 226              		.thumb_func
 227              		.type	OSTmrRemainGet, %function
 228              	OSTmrRemainGet:
 229              	.LFB1:
 202:..\..\..\..\..\..\Software\uCOS-III\Source/os_tmr.c **** 
 203:..\..\..\..\..\..\Software\uCOS-III\Source/os_tmr.c **** 
 204:..\..\..\..\..\..\Software\uCOS-III\Source/os_tmr.c **** /*
 205:..\..\..\..\..\..\Software\uCOS-III\Source/os_tmr.c **** ***************************************************************************************************
 206:..\..\..\..\..\..\Software\uCOS-III\Source/os_tmr.c **** *                                                   DELETE A TIMER
 207:..\..\..\..\..\..\Software\uCOS-III\Source/os_tmr.c **** *
 208:..\..\..\..\..\..\Software\uCOS-III\Source/os_tmr.c **** * Description: This function is called by your application code to delete a timer.
 209:..\..\..\..\..\..\Software\uCOS-III\Source/os_tmr.c **** *
 210:..\..\..\..\..\..\Software\uCOS-III\Source/os_tmr.c **** * Arguments  : p_tmr          Is a pointer to the timer to stop and delete.
 211:..\..\..\..\..\..\Software\uCOS-III\Source/os_tmr.c **** *
 212:..\..\..\..\..\..\Software\uCOS-III\Source/os_tmr.c **** *              p_err          Is a pointer to an error code.  '*p_err' will contain one of the foll
 213:..\..\..\..\..\..\Software\uCOS-III\Source/os_tmr.c **** *
 214:..\..\..\..\..\..\Software\uCOS-III\Source/os_tmr.c **** *                                 OS_ERR_NONE                    The call succeeded
 215:..\..\..\..\..\..\Software\uCOS-III\Source/os_tmr.c **** *                                 OS_ERR_ILLEGAL_DEL_RUN_TIME    If you are trying to delete the ti
 216:..\..\..\..\..\..\Software\uCOS-III\Source/os_tmr.c **** *                                                                  OSStart()
 217:..\..\..\..\..\..\Software\uCOS-III\Source/os_tmr.c **** *                                 OS_ERR_OBJ_TYPE                If 'p_tmr' is not pointing to a ti
 218:..\..\..\..\..\..\Software\uCOS-III\Source/os_tmr.c **** *                                 OS_ERR_OS_NOT_RUNNING          If uC/OS-III is not running yet
 219:..\..\..\..\..\..\Software\uCOS-III\Source/os_tmr.c **** *                                 OS_ERR_TMR_INACTIVE            If the timer was not created
 220:..\..\..\..\..\..\Software\uCOS-III\Source/os_tmr.c **** *                                 OS_ERR_TMR_INVALID             If 'p_tmr' is a NULL pointer
 221:..\..\..\..\..\..\Software\uCOS-III\Source/os_tmr.c **** *                                 OS_ERR_TMR_INVALID_STATE       The timer is in an invalid state
 222:..\..\..\..\..\..\Software\uCOS-III\Source/os_tmr.c **** *                                 OS_ERR_TMR_ISR                 If the function was called from an
 223:..\..\..\..\..\..\Software\uCOS-III\Source/os_tmr.c **** *
 224:..\..\..\..\..\..\Software\uCOS-III\Source/os_tmr.c **** * Returns    : DEF_TRUE   if the timer was deleted
 225:..\..\..\..\..\..\Software\uCOS-III\Source/os_tmr.c **** *              DEF_FALSE  if not or upon an error
ARM GAS  C:\Users\ADMINI~1\AppData\Local\Temp\ccofok6U.s 			page 9


 226:..\..\..\..\..\..\Software\uCOS-III\Source/os_tmr.c **** *
 227:..\..\..\..\..\..\Software\uCOS-III\Source/os_tmr.c **** * Note(s)    : none
 228:..\..\..\..\..\..\Software\uCOS-III\Source/os_tmr.c **** ***************************************************************************************************
 229:..\..\..\..\..\..\Software\uCOS-III\Source/os_tmr.c **** */
 230:..\..\..\..\..\..\Software\uCOS-III\Source/os_tmr.c **** 
 231:..\..\..\..\..\..\Software\uCOS-III\Source/os_tmr.c **** #if (OS_CFG_TMR_DEL_EN == DEF_ENABLED)
 232:..\..\..\..\..\..\Software\uCOS-III\Source/os_tmr.c **** CPU_BOOLEAN  OSTmrDel (OS_TMR  *p_tmr,
 233:..\..\..\..\..\..\Software\uCOS-III\Source/os_tmr.c ****                        OS_ERR  *p_err)
 234:..\..\..\..\..\..\Software\uCOS-III\Source/os_tmr.c **** {
 235:..\..\..\..\..\..\Software\uCOS-III\Source/os_tmr.c ****     CPU_BOOLEAN  success;
 236:..\..\..\..\..\..\Software\uCOS-III\Source/os_tmr.c **** 
 237:..\..\..\..\..\..\Software\uCOS-III\Source/os_tmr.c **** 
 238:..\..\..\..\..\..\Software\uCOS-III\Source/os_tmr.c **** 
 239:..\..\..\..\..\..\Software\uCOS-III\Source/os_tmr.c **** #ifdef OS_SAFETY_CRITICAL
 240:..\..\..\..\..\..\Software\uCOS-III\Source/os_tmr.c ****     if (p_err == DEF_NULL) {
 241:..\..\..\..\..\..\Software\uCOS-III\Source/os_tmr.c ****         OS_SAFETY_CRITICAL_EXCEPTION();
 242:..\..\..\..\..\..\Software\uCOS-III\Source/os_tmr.c ****         return (DEF_FALSE);
 243:..\..\..\..\..\..\Software\uCOS-III\Source/os_tmr.c ****     }
 244:..\..\..\..\..\..\Software\uCOS-III\Source/os_tmr.c **** #endif
 245:..\..\..\..\..\..\Software\uCOS-III\Source/os_tmr.c **** 
 246:..\..\..\..\..\..\Software\uCOS-III\Source/os_tmr.c **** #ifdef OS_SAFETY_CRITICAL_IEC61508
 247:..\..\..\..\..\..\Software\uCOS-III\Source/os_tmr.c ****     if (OSSafetyCriticalStartFlag == DEF_TRUE) {
 248:..\..\..\..\..\..\Software\uCOS-III\Source/os_tmr.c ****        *p_err = OS_ERR_ILLEGAL_DEL_RUN_TIME;
 249:..\..\..\..\..\..\Software\uCOS-III\Source/os_tmr.c ****         return (DEF_FALSE);
 250:..\..\..\..\..\..\Software\uCOS-III\Source/os_tmr.c ****     }
 251:..\..\..\..\..\..\Software\uCOS-III\Source/os_tmr.c **** #endif
 252:..\..\..\..\..\..\Software\uCOS-III\Source/os_tmr.c **** 
 253:..\..\..\..\..\..\Software\uCOS-III\Source/os_tmr.c **** #if (OS_CFG_CALLED_FROM_ISR_CHK_EN == DEF_ENABLED)
 254:..\..\..\..\..\..\Software\uCOS-III\Source/os_tmr.c ****     if (OSIntNestingCtr > 0u) {                                 /* See if trying to call from an IS
 255:..\..\..\..\..\..\Software\uCOS-III\Source/os_tmr.c ****        *p_err  = OS_ERR_TMR_ISR;
 256:..\..\..\..\..\..\Software\uCOS-III\Source/os_tmr.c ****         return (DEF_FALSE);
 257:..\..\..\..\..\..\Software\uCOS-III\Source/os_tmr.c ****     }
 258:..\..\..\..\..\..\Software\uCOS-III\Source/os_tmr.c **** #endif
 259:..\..\..\..\..\..\Software\uCOS-III\Source/os_tmr.c **** 
 260:..\..\..\..\..\..\Software\uCOS-III\Source/os_tmr.c **** #if (OS_CFG_INVALID_OS_CALLS_CHK_EN == DEF_ENABLED)             /* Is the kernel running?          
 261:..\..\..\..\..\..\Software\uCOS-III\Source/os_tmr.c ****     if (OSRunning != OS_STATE_OS_RUNNING) {
 262:..\..\..\..\..\..\Software\uCOS-III\Source/os_tmr.c ****        *p_err = OS_ERR_OS_NOT_RUNNING;
 263:..\..\..\..\..\..\Software\uCOS-III\Source/os_tmr.c ****         return (DEF_FALSE);
 264:..\..\..\..\..\..\Software\uCOS-III\Source/os_tmr.c ****     }
 265:..\..\..\..\..\..\Software\uCOS-III\Source/os_tmr.c **** #endif
 266:..\..\..\..\..\..\Software\uCOS-III\Source/os_tmr.c **** 
 267:..\..\..\..\..\..\Software\uCOS-III\Source/os_tmr.c **** #if (OS_CFG_ARG_CHK_EN == DEF_ENABLED)
 268:..\..\..\..\..\..\Software\uCOS-III\Source/os_tmr.c ****     if (p_tmr == DEF_NULL) {
 269:..\..\..\..\..\..\Software\uCOS-III\Source/os_tmr.c ****        *p_err = OS_ERR_TMR_INVALID;
 270:..\..\..\..\..\..\Software\uCOS-III\Source/os_tmr.c ****         return (DEF_FALSE);
 271:..\..\..\..\..\..\Software\uCOS-III\Source/os_tmr.c ****     }
 272:..\..\..\..\..\..\Software\uCOS-III\Source/os_tmr.c **** #endif
 273:..\..\..\..\..\..\Software\uCOS-III\Source/os_tmr.c **** 
 274:..\..\..\..\..\..\Software\uCOS-III\Source/os_tmr.c **** #if (OS_CFG_OBJ_TYPE_CHK_EN == DEF_ENABLED)
 275:..\..\..\..\..\..\Software\uCOS-III\Source/os_tmr.c ****     if (p_tmr->Type != OS_OBJ_TYPE_TMR) {                       /* Make sure timer was created     
 276:..\..\..\..\..\..\Software\uCOS-III\Source/os_tmr.c ****        *p_err = OS_ERR_OBJ_TYPE;
 277:..\..\..\..\..\..\Software\uCOS-III\Source/os_tmr.c ****         return (DEF_FALSE);
 278:..\..\..\..\..\..\Software\uCOS-III\Source/os_tmr.c ****     }
 279:..\..\..\..\..\..\Software\uCOS-III\Source/os_tmr.c **** #endif
 280:..\..\..\..\..\..\Software\uCOS-III\Source/os_tmr.c **** 
 281:..\..\..\..\..\..\Software\uCOS-III\Source/os_tmr.c ****     OS_TmrLock();
 282:..\..\..\..\..\..\Software\uCOS-III\Source/os_tmr.c **** 
ARM GAS  C:\Users\ADMINI~1\AppData\Local\Temp\ccofok6U.s 			page 10


 283:..\..\..\..\..\..\Software\uCOS-III\Source/os_tmr.c **** #if (OS_CFG_DBG_EN == DEF_ENABLED)
 284:..\..\..\..\..\..\Software\uCOS-III\Source/os_tmr.c ****     OS_TmrDbgListRemove(p_tmr);
 285:..\..\..\..\..\..\Software\uCOS-III\Source/os_tmr.c **** #endif
 286:..\..\..\..\..\..\Software\uCOS-III\Source/os_tmr.c **** 
 287:..\..\..\..\..\..\Software\uCOS-III\Source/os_tmr.c ****     switch (p_tmr->State) {
 288:..\..\..\..\..\..\Software\uCOS-III\Source/os_tmr.c ****         case OS_TMR_STATE_RUNNING:
 289:..\..\..\..\..\..\Software\uCOS-III\Source/os_tmr.c ****              OS_TmrUnlink(p_tmr);                               /* Remove from the list            
 290:..\..\..\..\..\..\Software\uCOS-III\Source/os_tmr.c ****              OS_TmrClr(p_tmr);
 291:..\..\..\..\..\..\Software\uCOS-III\Source/os_tmr.c **** #if (OS_CFG_DBG_EN == DEF_ENABLED)
 292:..\..\..\..\..\..\Software\uCOS-III\Source/os_tmr.c ****              OSTmrQty--;                                        /* One less timer                  
 293:..\..\..\..\..\..\Software\uCOS-III\Source/os_tmr.c **** #endif
 294:..\..\..\..\..\..\Software\uCOS-III\Source/os_tmr.c ****             *p_err   = OS_ERR_NONE;
 295:..\..\..\..\..\..\Software\uCOS-III\Source/os_tmr.c ****              success = DEF_TRUE;
 296:..\..\..\..\..\..\Software\uCOS-III\Source/os_tmr.c ****              break;
 297:..\..\..\..\..\..\Software\uCOS-III\Source/os_tmr.c **** 
 298:..\..\..\..\..\..\Software\uCOS-III\Source/os_tmr.c ****         case OS_TMR_STATE_STOPPED:                              /* Timer has not started or ...    
 299:..\..\..\..\..\..\Software\uCOS-III\Source/os_tmr.c ****         case OS_TMR_STATE_COMPLETED:                            /* ... timer has completed the ONE-
 300:..\..\..\..\..\..\Software\uCOS-III\Source/os_tmr.c ****              OS_TmrClr(p_tmr);                                  /* Clear timer fields              
 301:..\..\..\..\..\..\Software\uCOS-III\Source/os_tmr.c **** #if (OS_CFG_DBG_EN == DEF_ENABLED)
 302:..\..\..\..\..\..\Software\uCOS-III\Source/os_tmr.c ****              OSTmrQty--;                                        /* One less timer                  
 303:..\..\..\..\..\..\Software\uCOS-III\Source/os_tmr.c **** #endif
 304:..\..\..\..\..\..\Software\uCOS-III\Source/os_tmr.c ****             *p_err   = OS_ERR_NONE;
 305:..\..\..\..\..\..\Software\uCOS-III\Source/os_tmr.c ****              success = DEF_TRUE;
 306:..\..\..\..\..\..\Software\uCOS-III\Source/os_tmr.c ****              break;
 307:..\..\..\..\..\..\Software\uCOS-III\Source/os_tmr.c ****              
 308:..\..\..\..\..\..\Software\uCOS-III\Source/os_tmr.c ****         case OS_TMR_STATE_UNUSED:                               /* Already deleted                 
 309:..\..\..\..\..\..\Software\uCOS-III\Source/os_tmr.c ****             *p_err   = OS_ERR_TMR_INACTIVE;
 310:..\..\..\..\..\..\Software\uCOS-III\Source/os_tmr.c ****              success = DEF_FALSE;
 311:..\..\..\..\..\..\Software\uCOS-III\Source/os_tmr.c ****              break;
 312:..\..\..\..\..\..\Software\uCOS-III\Source/os_tmr.c **** 
 313:..\..\..\..\..\..\Software\uCOS-III\Source/os_tmr.c ****         default:
 314:..\..\..\..\..\..\Software\uCOS-III\Source/os_tmr.c ****             *p_err   = OS_ERR_TMR_INVALID_STATE;
 315:..\..\..\..\..\..\Software\uCOS-III\Source/os_tmr.c ****              success = DEF_FALSE;
 316:..\..\..\..\..\..\Software\uCOS-III\Source/os_tmr.c ****              break;
 317:..\..\..\..\..\..\Software\uCOS-III\Source/os_tmr.c ****     }
 318:..\..\..\..\..\..\Software\uCOS-III\Source/os_tmr.c **** 
 319:..\..\..\..\..\..\Software\uCOS-III\Source/os_tmr.c ****     OS_TmrUnlock();
 320:..\..\..\..\..\..\Software\uCOS-III\Source/os_tmr.c **** 
 321:..\..\..\..\..\..\Software\uCOS-III\Source/os_tmr.c ****     return (success);
 322:..\..\..\..\..\..\Software\uCOS-III\Source/os_tmr.c **** }
 323:..\..\..\..\..\..\Software\uCOS-III\Source/os_tmr.c **** #endif
 324:..\..\..\..\..\..\Software\uCOS-III\Source/os_tmr.c **** 
 325:..\..\..\..\..\..\Software\uCOS-III\Source/os_tmr.c **** 
 326:..\..\..\..\..\..\Software\uCOS-III\Source/os_tmr.c **** /*
 327:..\..\..\..\..\..\Software\uCOS-III\Source/os_tmr.c **** ***************************************************************************************************
 328:..\..\..\..\..\..\Software\uCOS-III\Source/os_tmr.c **** *                                    GET HOW MUCH TIME IS LEFT BEFORE A TIMER EXPIRES
 329:..\..\..\..\..\..\Software\uCOS-III\Source/os_tmr.c **** *
 330:..\..\..\..\..\..\Software\uCOS-III\Source/os_tmr.c **** * Description: This function is called to get the number of ticks before a timer times out.
 331:..\..\..\..\..\..\Software\uCOS-III\Source/os_tmr.c **** *
 332:..\..\..\..\..\..\Software\uCOS-III\Source/os_tmr.c **** * Arguments  : p_tmr    Is a pointer to the timer to obtain the remaining time from.
 333:..\..\..\..\..\..\Software\uCOS-III\Source/os_tmr.c **** *
 334:..\..\..\..\..\..\Software\uCOS-III\Source/os_tmr.c **** *              p_err    Is a pointer to an error code.  '*p_err' will contain one of the following:
 335:..\..\..\..\..\..\Software\uCOS-III\Source/os_tmr.c **** *
 336:..\..\..\..\..\..\Software\uCOS-III\Source/os_tmr.c **** *                           OS_ERR_NONE               The call succeeded
 337:..\..\..\..\..\..\Software\uCOS-III\Source/os_tmr.c **** *                           OS_ERR_OBJ_TYPE           If 'p_tmr' is not pointing to a timer
 338:..\..\..\..\..\..\Software\uCOS-III\Source/os_tmr.c **** *                           OS_ERR_OS_NOT_RUNNING     If uC/OS-III is not running yet
 339:..\..\..\..\..\..\Software\uCOS-III\Source/os_tmr.c **** *                           OS_ERR_TMR_INACTIVE       If 'p_tmr' points to a timer that is not acti
ARM GAS  C:\Users\ADMINI~1\AppData\Local\Temp\ccofok6U.s 			page 11


 340:..\..\..\..\..\..\Software\uCOS-III\Source/os_tmr.c **** *                           OS_ERR_TMR_INVALID        If 'p_tmr' is a NULL pointer
 341:..\..\..\..\..\..\Software\uCOS-III\Source/os_tmr.c **** *                           OS_ERR_TMR_INVALID_STATE  The timer is in an invalid state
 342:..\..\..\..\..\..\Software\uCOS-III\Source/os_tmr.c **** *                           OS_ERR_TMR_ISR            If the call was made from an ISR
 343:..\..\..\..\..\..\Software\uCOS-III\Source/os_tmr.c **** *
 344:..\..\..\..\..\..\Software\uCOS-III\Source/os_tmr.c **** * Returns    : The time remaining for the timer to expire.  The time represents 'timer' increments.
 345:..\..\..\..\..\..\Software\uCOS-III\Source/os_tmr.c **** *              OS_TmrTask() is signaled every 1/10 of a second then the returned value represents t
 346:..\..\..\..\..\..\Software\uCOS-III\Source/os_tmr.c **** *              a second remaining before the timer expires.
 347:..\..\..\..\..\..\Software\uCOS-III\Source/os_tmr.c **** *
 348:..\..\..\..\..\..\Software\uCOS-III\Source/os_tmr.c **** * Note(s)    : none
 349:..\..\..\..\..\..\Software\uCOS-III\Source/os_tmr.c **** ***************************************************************************************************
 350:..\..\..\..\..\..\Software\uCOS-III\Source/os_tmr.c **** */
 351:..\..\..\..\..\..\Software\uCOS-III\Source/os_tmr.c **** 
 352:..\..\..\..\..\..\Software\uCOS-III\Source/os_tmr.c **** OS_TICK  OSTmrRemainGet (OS_TMR  *p_tmr,
 353:..\..\..\..\..\..\Software\uCOS-III\Source/os_tmr.c ****                          OS_ERR  *p_err)
 354:..\..\..\..\..\..\Software\uCOS-III\Source/os_tmr.c **** {
 230              		.loc 1 354 0
 231              		.cfi_startproc
 232              		@ args = 0, pretend = 0, frame = 16
 233              		@ frame_needed = 1, uses_anonymous_args = 0
 234 0000 80B5     		push	{r7, lr}
 235              		.cfi_def_cfa_offset 8
 236              		.cfi_offset 7, -8
 237              		.cfi_offset 14, -4
 238 0002 84B0     		sub	sp, sp, #16
 239              		.cfi_def_cfa_offset 24
 240 0004 00AF     		add	r7, sp, #0
 241              		.cfi_def_cfa_register 7
 242 0006 7860     		str	r0, [r7, #4]
 243 0008 3960     		str	r1, [r7]
 355:..\..\..\..\..\..\Software\uCOS-III\Source/os_tmr.c ****     OS_TICK  remain;
 356:..\..\..\..\..\..\Software\uCOS-III\Source/os_tmr.c **** 
 357:..\..\..\..\..\..\Software\uCOS-III\Source/os_tmr.c **** 
 358:..\..\..\..\..\..\Software\uCOS-III\Source/os_tmr.c **** #ifdef OS_SAFETY_CRITICAL
 359:..\..\..\..\..\..\Software\uCOS-III\Source/os_tmr.c ****     if (p_err == DEF_NULL) {
 360:..\..\..\..\..\..\Software\uCOS-III\Source/os_tmr.c ****         OS_SAFETY_CRITICAL_EXCEPTION();
 361:..\..\..\..\..\..\Software\uCOS-III\Source/os_tmr.c ****         return (0u);
 362:..\..\..\..\..\..\Software\uCOS-III\Source/os_tmr.c ****     }
 363:..\..\..\..\..\..\Software\uCOS-III\Source/os_tmr.c **** #endif
 364:..\..\..\..\..\..\Software\uCOS-III\Source/os_tmr.c **** 
 365:..\..\..\..\..\..\Software\uCOS-III\Source/os_tmr.c **** #if (OS_CFG_CALLED_FROM_ISR_CHK_EN == DEF_ENABLED)
 366:..\..\..\..\..\..\Software\uCOS-III\Source/os_tmr.c ****     if (OSIntNestingCtr > 0u) {                                 /* See if trying to call from an IS
 244              		.loc 1 366 0
 245 000a 2C4B     		ldr	r3, .L34
 246 000c 1B78     		ldrb	r3, [r3]
 247 000e 002B     		cmp	r3, #0
 248 0010 04D0     		beq	.L20
 367:..\..\..\..\..\..\Software\uCOS-III\Source/os_tmr.c ****        *p_err = OS_ERR_TMR_ISR;
 249              		.loc 1 367 0
 250 0012 3B68     		ldr	r3, [r7]
 251 0014 2A4A     		ldr	r2, .L34+4
 252 0016 1A80     		strh	r2, [r3]
 368:..\..\..\..\..\..\Software\uCOS-III\Source/os_tmr.c ****         return (0u);
 253              		.loc 1 368 0
 254 0018 0023     		movs	r3, #0
 255 001a 4AE0     		b	.L21
 256              	.L20:
 369:..\..\..\..\..\..\Software\uCOS-III\Source/os_tmr.c ****     }
ARM GAS  C:\Users\ADMINI~1\AppData\Local\Temp\ccofok6U.s 			page 12


 370:..\..\..\..\..\..\Software\uCOS-III\Source/os_tmr.c **** #endif
 371:..\..\..\..\..\..\Software\uCOS-III\Source/os_tmr.c **** 
 372:..\..\..\..\..\..\Software\uCOS-III\Source/os_tmr.c **** #if (OS_CFG_INVALID_OS_CALLS_CHK_EN == DEF_ENABLED)             /* Is the kernel running?          
 373:..\..\..\..\..\..\Software\uCOS-III\Source/os_tmr.c ****     if (OSRunning != OS_STATE_OS_RUNNING) {
 374:..\..\..\..\..\..\Software\uCOS-III\Source/os_tmr.c ****        *p_err = OS_ERR_OS_NOT_RUNNING;
 375:..\..\..\..\..\..\Software\uCOS-III\Source/os_tmr.c ****         return (0u);
 376:..\..\..\..\..\..\Software\uCOS-III\Source/os_tmr.c ****     }
 377:..\..\..\..\..\..\Software\uCOS-III\Source/os_tmr.c **** #endif
 378:..\..\..\..\..\..\Software\uCOS-III\Source/os_tmr.c **** 
 379:..\..\..\..\..\..\Software\uCOS-III\Source/os_tmr.c **** #if (OS_CFG_ARG_CHK_EN == DEF_ENABLED)
 380:..\..\..\..\..\..\Software\uCOS-III\Source/os_tmr.c ****     if (p_tmr == DEF_NULL) {
 257              		.loc 1 380 0
 258 001c 7B68     		ldr	r3, [r7, #4]
 259 001e 002B     		cmp	r3, #0
 260 0020 04D1     		bne	.L22
 381:..\..\..\..\..\..\Software\uCOS-III\Source/os_tmr.c ****        *p_err = OS_ERR_TMR_INVALID;
 261              		.loc 1 381 0
 262 0022 3B68     		ldr	r3, [r7]
 263 0024 274A     		ldr	r2, .L34+8
 264 0026 1A80     		strh	r2, [r3]
 382:..\..\..\..\..\..\Software\uCOS-III\Source/os_tmr.c ****         return (0u);
 265              		.loc 1 382 0
 266 0028 0023     		movs	r3, #0
 267 002a 42E0     		b	.L21
 268              	.L22:
 383:..\..\..\..\..\..\Software\uCOS-III\Source/os_tmr.c ****     }
 384:..\..\..\..\..\..\Software\uCOS-III\Source/os_tmr.c **** #endif
 385:..\..\..\..\..\..\Software\uCOS-III\Source/os_tmr.c **** 
 386:..\..\..\..\..\..\Software\uCOS-III\Source/os_tmr.c **** #if (OS_CFG_OBJ_TYPE_CHK_EN == DEF_ENABLED)
 387:..\..\..\..\..\..\Software\uCOS-III\Source/os_tmr.c ****     if (p_tmr->Type != OS_OBJ_TYPE_TMR) {                       /* Make sure timer was created     
 388:..\..\..\..\..\..\Software\uCOS-III\Source/os_tmr.c ****        *p_err = OS_ERR_OBJ_TYPE;
 389:..\..\..\..\..\..\Software\uCOS-III\Source/os_tmr.c ****         return (0u);
 390:..\..\..\..\..\..\Software\uCOS-III\Source/os_tmr.c ****     }
 391:..\..\..\..\..\..\Software\uCOS-III\Source/os_tmr.c **** #endif
 392:..\..\..\..\..\..\Software\uCOS-III\Source/os_tmr.c **** 
 393:..\..\..\..\..\..\Software\uCOS-III\Source/os_tmr.c ****     OS_TmrLock();
 269              		.loc 1 393 0
 270 002c FFF7FEFF 		bl	OS_TmrLock
 394:..\..\..\..\..\..\Software\uCOS-III\Source/os_tmr.c **** 
 395:..\..\..\..\..\..\Software\uCOS-III\Source/os_tmr.c ****     switch (p_tmr->State) {
 271              		.loc 1 395 0
 272 0030 7B68     		ldr	r3, [r7, #4]
 273 0032 2622     		movs	r2, #38
 274 0034 9B5C     		ldrb	r3, [r3, r2]
 275 0036 012B     		cmp	r3, #1
 276 0038 0FD0     		beq	.L24
 277 003a 02DC     		bgt	.L25
 278 003c 002B     		cmp	r3, #0
 279 003e 29D0     		beq	.L26
 280 0040 2EE0     		b	.L23
 281              	.L25:
 282 0042 022B     		cmp	r3, #2
 283 0044 02D0     		beq	.L27
 284 0046 032B     		cmp	r3, #3
 285 0048 1ED0     		beq	.L28
 286 004a 29E0     		b	.L23
 287              	.L27:
ARM GAS  C:\Users\ADMINI~1\AppData\Local\Temp\ccofok6U.s 			page 13


 396:..\..\..\..\..\..\Software\uCOS-III\Source/os_tmr.c ****         case OS_TMR_STATE_RUNNING:
 397:..\..\..\..\..\..\Software\uCOS-III\Source/os_tmr.c ****              remain = p_tmr->Remain;
 288              		.loc 1 397 0
 289 004c 7B68     		ldr	r3, [r7, #4]
 290 004e 9B69     		ldr	r3, [r3, #24]
 291 0050 FB60     		str	r3, [r7, #12]
 398:..\..\..\..\..\..\Software\uCOS-III\Source/os_tmr.c ****             *p_err  = OS_ERR_NONE;
 292              		.loc 1 398 0
 293 0052 3B68     		ldr	r3, [r7]
 294 0054 0022     		movs	r2, #0
 295 0056 1A80     		strh	r2, [r3]
 399:..\..\..\..\..\..\Software\uCOS-III\Source/os_tmr.c ****              break;
 296              		.loc 1 399 0
 297 0058 28E0     		b	.L29
 298              	.L24:
 400:..\..\..\..\..\..\Software\uCOS-III\Source/os_tmr.c **** 
 401:..\..\..\..\..\..\Software\uCOS-III\Source/os_tmr.c ****         case OS_TMR_STATE_STOPPED:                              /* It's assumed that the timer has 
 402:..\..\..\..\..\..\Software\uCOS-III\Source/os_tmr.c ****              if (p_tmr->Opt == OS_OPT_TMR_PERIODIC) {
 299              		.loc 1 402 0
 300 005a 7B68     		ldr	r3, [r7, #4]
 301 005c 9B8C     		ldrh	r3, [r3, #36]
 302 005e 022B     		cmp	r3, #2
 303 0060 0BD1     		bne	.L30
 403:..\..\..\..\..\..\Software\uCOS-III\Source/os_tmr.c ****                  if (p_tmr->Dly == 0u) {
 304              		.loc 1 403 0
 305 0062 7B68     		ldr	r3, [r7, #4]
 306 0064 DB69     		ldr	r3, [r3, #28]
 307 0066 002B     		cmp	r3, #0
 308 0068 03D1     		bne	.L31
 404:..\..\..\..\..\..\Software\uCOS-III\Source/os_tmr.c ****                      remain = p_tmr->Period;
 309              		.loc 1 404 0
 310 006a 7B68     		ldr	r3, [r7, #4]
 311 006c 1B6A     		ldr	r3, [r3, #32]
 312 006e FB60     		str	r3, [r7, #12]
 313 0070 06E0     		b	.L33
 314              	.L31:
 405:..\..\..\..\..\..\Software\uCOS-III\Source/os_tmr.c ****                  } else {
 406:..\..\..\..\..\..\Software\uCOS-III\Source/os_tmr.c ****                      remain = p_tmr->Dly;
 315              		.loc 1 406 0
 316 0072 7B68     		ldr	r3, [r7, #4]
 317 0074 DB69     		ldr	r3, [r3, #28]
 318 0076 FB60     		str	r3, [r7, #12]
 319 0078 02E0     		b	.L33
 320              	.L30:
 407:..\..\..\..\..\..\Software\uCOS-III\Source/os_tmr.c ****                  }
 408:..\..\..\..\..\..\Software\uCOS-III\Source/os_tmr.c ****              } else {
 409:..\..\..\..\..\..\Software\uCOS-III\Source/os_tmr.c ****                  remain = p_tmr->Dly;
 321              		.loc 1 409 0
 322 007a 7B68     		ldr	r3, [r7, #4]
 323 007c DB69     		ldr	r3, [r3, #28]
 324 007e FB60     		str	r3, [r7, #12]
 325              	.L33:
 410:..\..\..\..\..\..\Software\uCOS-III\Source/os_tmr.c ****              }
 411:..\..\..\..\..\..\Software\uCOS-III\Source/os_tmr.c ****             *p_err = OS_ERR_NONE;
 326              		.loc 1 411 0
 327 0080 3B68     		ldr	r3, [r7]
 328 0082 0022     		movs	r2, #0
ARM GAS  C:\Users\ADMINI~1\AppData\Local\Temp\ccofok6U.s 			page 14


 329 0084 1A80     		strh	r2, [r3]
 412:..\..\..\..\..\..\Software\uCOS-III\Source/os_tmr.c ****              break;
 330              		.loc 1 412 0
 331 0086 11E0     		b	.L29
 332              	.L28:
 413:..\..\..\..\..\..\Software\uCOS-III\Source/os_tmr.c **** 
 414:..\..\..\..\..\..\Software\uCOS-III\Source/os_tmr.c ****         case OS_TMR_STATE_COMPLETED:                            /* Only ONE-SHOT that timed out can
 415:..\..\..\..\..\..\Software\uCOS-III\Source/os_tmr.c ****             *p_err  = OS_ERR_NONE;
 333              		.loc 1 415 0
 334 0088 3B68     		ldr	r3, [r7]
 335 008a 0022     		movs	r2, #0
 336 008c 1A80     		strh	r2, [r3]
 416:..\..\..\..\..\..\Software\uCOS-III\Source/os_tmr.c ****              remain = 0u;
 337              		.loc 1 416 0
 338 008e 0023     		movs	r3, #0
 339 0090 FB60     		str	r3, [r7, #12]
 417:..\..\..\..\..\..\Software\uCOS-III\Source/os_tmr.c ****              break;
 340              		.loc 1 417 0
 341 0092 0BE0     		b	.L29
 342              	.L26:
 418:..\..\..\..\..\..\Software\uCOS-III\Source/os_tmr.c **** 
 419:..\..\..\..\..\..\Software\uCOS-III\Source/os_tmr.c ****         case OS_TMR_STATE_UNUSED:
 420:..\..\..\..\..\..\Software\uCOS-III\Source/os_tmr.c ****             *p_err  = OS_ERR_TMR_INACTIVE;
 343              		.loc 1 420 0
 344 0094 3B68     		ldr	r3, [r7]
 345 0096 0C4A     		ldr	r2, .L34+12
 346 0098 1A80     		strh	r2, [r3]
 421:..\..\..\..\..\..\Software\uCOS-III\Source/os_tmr.c ****              remain = 0u;
 347              		.loc 1 421 0
 348 009a 0023     		movs	r3, #0
 349 009c FB60     		str	r3, [r7, #12]
 422:..\..\..\..\..\..\Software\uCOS-III\Source/os_tmr.c ****              break;
 350              		.loc 1 422 0
 351 009e 05E0     		b	.L29
 352              	.L23:
 423:..\..\..\..\..\..\Software\uCOS-III\Source/os_tmr.c **** 
 424:..\..\..\..\..\..\Software\uCOS-III\Source/os_tmr.c ****         default:
 425:..\..\..\..\..\..\Software\uCOS-III\Source/os_tmr.c ****             *p_err = OS_ERR_TMR_INVALID_STATE;
 353              		.loc 1 425 0
 354 00a0 3B68     		ldr	r3, [r7]
 355 00a2 0A4A     		ldr	r2, .L34+16
 356 00a4 1A80     		strh	r2, [r3]
 426:..\..\..\..\..\..\Software\uCOS-III\Source/os_tmr.c ****              remain = 0u;
 357              		.loc 1 426 0
 358 00a6 0023     		movs	r3, #0
 359 00a8 FB60     		str	r3, [r7, #12]
 427:..\..\..\..\..\..\Software\uCOS-III\Source/os_tmr.c ****              break;
 360              		.loc 1 427 0
 361 00aa C046     		nop
 362              	.L29:
 428:..\..\..\..\..\..\Software\uCOS-III\Source/os_tmr.c ****     }
 429:..\..\..\..\..\..\Software\uCOS-III\Source/os_tmr.c **** 
 430:..\..\..\..\..\..\Software\uCOS-III\Source/os_tmr.c ****     OS_TmrUnlock();
 363              		.loc 1 430 0
 364 00ac FFF7FEFF 		bl	OS_TmrUnlock
 431:..\..\..\..\..\..\Software\uCOS-III\Source/os_tmr.c **** 
 432:..\..\..\..\..\..\Software\uCOS-III\Source/os_tmr.c ****     return (remain);
ARM GAS  C:\Users\ADMINI~1\AppData\Local\Temp\ccofok6U.s 			page 15


 365              		.loc 1 432 0
 366 00b0 FB68     		ldr	r3, [r7, #12]
 367              	.L21:
 433:..\..\..\..\..\..\Software\uCOS-III\Source/os_tmr.c **** }
 368              		.loc 1 433 0
 369 00b2 1800     		movs	r0, r3
 370 00b4 BD46     		mov	sp, r7
 371 00b6 04B0     		add	sp, sp, #16
 372              		@ sp needed
 373 00b8 80BD     		pop	{r7, pc}
 374              	.L35:
 375 00ba C046     		.align	2
 376              	.L34:
 377 00bc 00000000 		.word	OSIntNestingCtr
 378 00c0 43730000 		.word	29507
 379 00c4 42730000 		.word	29506
 380 00c8 3D730000 		.word	29501
 381 00cc 41730000 		.word	29505
 382              		.cfi_endproc
 383              	.LFE1:
 384              		.size	OSTmrRemainGet, .-OSTmrRemainGet
 385              		.section	.text.OSTmrSet,"ax",%progbits
 386              		.align	2
 387              		.global	OSTmrSet
 388              		.code	16
 389              		.thumb_func
 390              		.type	OSTmrSet, %function
 391              	OSTmrSet:
 392              	.LFB2:
 434:..\..\..\..\..\..\Software\uCOS-III\Source/os_tmr.c **** 
 435:..\..\..\..\..\..\Software\uCOS-III\Source/os_tmr.c **** 
 436:..\..\..\..\..\..\Software\uCOS-III\Source/os_tmr.c **** /*
 437:..\..\..\..\..\..\Software\uCOS-III\Source/os_tmr.c **** ***************************************************************************************************
 438:..\..\..\..\..\..\Software\uCOS-III\Source/os_tmr.c **** *                                                    SET A TIMER
 439:..\..\..\..\..\..\Software\uCOS-III\Source/os_tmr.c **** *
 440:..\..\..\..\..\..\Software\uCOS-III\Source/os_tmr.c **** * Description: This function is called by your application code to set a timer.
 441:..\..\..\..\..\..\Software\uCOS-III\Source/os_tmr.c **** *
 442:..\..\..\..\..\..\Software\uCOS-III\Source/os_tmr.c **** * Arguments  : p_tmr           Is a pointer to a timer control block
 443:..\..\..\..\..\..\Software\uCOS-III\Source/os_tmr.c **** *
 444:..\..\..\..\..\..\Software\uCOS-III\Source/os_tmr.c **** *              dly             Initial delay.
 445:..\..\..\..\..\..\Software\uCOS-III\Source/os_tmr.c **** *                              If the timer is configured for ONE-SHOT mode, this is the timeout us
 446:..\..\..\..\..\..\Software\uCOS-III\Source/os_tmr.c **** *                              If the timer is configured for PERIODIC mode, this is the first time
 447:..\..\..\..\..\..\Software\uCOS-III\Source/os_tmr.c **** *                              before the timer starts entering periodic mode
 448:..\..\..\..\..\..\Software\uCOS-III\Source/os_tmr.c **** *
 449:..\..\..\..\..\..\Software\uCOS-III\Source/os_tmr.c **** *              period          The 'period' being repeated for the timer.
 450:..\..\..\..\..\..\Software\uCOS-III\Source/os_tmr.c **** *                              If you specified 'OS_OPT_TMR_PERIODIC' as an option, when the timer 
 451:..\..\..\..\..\..\Software\uCOS-III\Source/os_tmr.c **** *                              automatically restart with the same period.
 452:..\..\..\..\..\..\Software\uCOS-III\Source/os_tmr.c **** *
 453:..\..\..\..\..\..\Software\uCOS-III\Source/os_tmr.c **** *              p_callback      Is a pointer to a callback function that will be called when the tim
 454:..\..\..\..\..\..\Software\uCOS-III\Source/os_tmr.c **** *                              callback function must be declared as follows:
 455:..\..\..\..\..\..\Software\uCOS-III\Source/os_tmr.c **** *
 456:..\..\..\..\..\..\Software\uCOS-III\Source/os_tmr.c **** *                                  void  MyCallback (OS_TMR *p_tmr, void *p_arg);
 457:..\..\..\..\..\..\Software\uCOS-III\Source/os_tmr.c **** *
 458:..\..\..\..\..\..\Software\uCOS-III\Source/os_tmr.c **** *              p_callback_arg  Is an argument (a pointer) that is passed to the callback function w
 459:..\..\..\..\..\..\Software\uCOS-III\Source/os_tmr.c **** *
 460:..\..\..\..\..\..\Software\uCOS-III\Source/os_tmr.c **** *              p_err           Is a pointer to an error code.  '*p_err' will contain one of the fol
 461:..\..\..\..\..\..\Software\uCOS-III\Source/os_tmr.c **** *
ARM GAS  C:\Users\ADMINI~1\AppData\Local\Temp\ccofok6U.s 			page 16


 462:..\..\..\..\..\..\Software\uCOS-III\Source/os_tmr.c **** *                                 OS_ERR_NONE                    The timer was configured as expect
 463:..\..\..\..\..\..\Software\uCOS-III\Source/os_tmr.c **** *                                 OS_ERR_OBJ_TYPE                If the object type is invalid
 464:..\..\..\..\..\..\Software\uCOS-III\Source/os_tmr.c **** *                                 OS_ERR_OS_NOT_RUNNING          If uC/OS-III is not running yet
 465:..\..\..\..\..\..\Software\uCOS-III\Source/os_tmr.c **** *                                 OS_ERR_TMR_INVALID             If 'p_tmr' is a NULL pointer or in
 466:..\..\..\..\..\..\Software\uCOS-III\Source/os_tmr.c **** *                                 OS_ERR_TMR_INVALID_CALLBACK    you specified an invalid callback 
 467:..\..\..\..\..\..\Software\uCOS-III\Source/os_tmr.c **** *                                 OS_ERR_TMR_INVALID_DLY         You specified an invalid delay
 468:..\..\..\..\..\..\Software\uCOS-III\Source/os_tmr.c **** *                                 OS_ERR_TMR_INVALID_PERIOD      You specified an invalid period
 469:..\..\..\..\..\..\Software\uCOS-III\Source/os_tmr.c **** *                                 OS_ERR_TMR_ISR                 If the call was made from an ISR
 470:..\..\..\..\..\..\Software\uCOS-III\Source/os_tmr.c **** *
 471:..\..\..\..\..\..\Software\uCOS-III\Source/os_tmr.c **** * Returns    : none
 472:..\..\..\..\..\..\Software\uCOS-III\Source/os_tmr.c **** *
 473:..\..\..\..\..\..\Software\uCOS-III\Source/os_tmr.c **** * Note(s)    : 1) This function can be called on a running timer. The change to the delay and perio
 474:..\..\..\..\..\..\Software\uCOS-III\Source/os_tmr.c **** *                 take effect after the current period or delay has passed. Change to the callback 
 475:..\..\..\..\..\..\Software\uCOS-III\Source/os_tmr.c **** *                 effect immediately.
 476:..\..\..\..\..\..\Software\uCOS-III\Source/os_tmr.c **** ***************************************************************************************************
 477:..\..\..\..\..\..\Software\uCOS-III\Source/os_tmr.c **** */
 478:..\..\..\..\..\..\Software\uCOS-III\Source/os_tmr.c **** 
 479:..\..\..\..\..\..\Software\uCOS-III\Source/os_tmr.c **** void  OSTmrSet (OS_TMR               *p_tmr,
 480:..\..\..\..\..\..\Software\uCOS-III\Source/os_tmr.c ****                 OS_TICK               dly,
 481:..\..\..\..\..\..\Software\uCOS-III\Source/os_tmr.c ****                 OS_TICK               period,
 482:..\..\..\..\..\..\Software\uCOS-III\Source/os_tmr.c ****                 OS_TMR_CALLBACK_PTR   p_callback,
 483:..\..\..\..\..\..\Software\uCOS-III\Source/os_tmr.c ****                 void                 *p_callback_arg,
 484:..\..\..\..\..\..\Software\uCOS-III\Source/os_tmr.c ****                 OS_ERR               *p_err)
 485:..\..\..\..\..\..\Software\uCOS-III\Source/os_tmr.c **** {
 393              		.loc 1 485 0
 394              		.cfi_startproc
 395              		@ args = 8, pretend = 0, frame = 16
 396              		@ frame_needed = 1, uses_anonymous_args = 0
 397 0000 80B5     		push	{r7, lr}
 398              		.cfi_def_cfa_offset 8
 399              		.cfi_offset 7, -8
 400              		.cfi_offset 14, -4
 401 0002 84B0     		sub	sp, sp, #16
 402              		.cfi_def_cfa_offset 24
 403 0004 00AF     		add	r7, sp, #0
 404              		.cfi_def_cfa_register 7
 405 0006 F860     		str	r0, [r7, #12]
 406 0008 B960     		str	r1, [r7, #8]
 407 000a 7A60     		str	r2, [r7, #4]
 408 000c 3B60     		str	r3, [r7]
 486:..\..\..\..\..\..\Software\uCOS-III\Source/os_tmr.c **** #ifdef OS_SAFETY_CRITICAL
 487:..\..\..\..\..\..\Software\uCOS-III\Source/os_tmr.c ****     if (p_err == DEF_NULL) {
 488:..\..\..\..\..\..\Software\uCOS-III\Source/os_tmr.c ****         OS_SAFETY_CRITICAL_EXCEPTION();
 489:..\..\..\..\..\..\Software\uCOS-III\Source/os_tmr.c ****         return;
 490:..\..\..\..\..\..\Software\uCOS-III\Source/os_tmr.c ****     }
 491:..\..\..\..\..\..\Software\uCOS-III\Source/os_tmr.c **** #endif
 492:..\..\..\..\..\..\Software\uCOS-III\Source/os_tmr.c **** 
 493:..\..\..\..\..\..\Software\uCOS-III\Source/os_tmr.c **** #if (OS_CFG_CALLED_FROM_ISR_CHK_EN == DEF_ENABLED)
 494:..\..\..\..\..\..\Software\uCOS-III\Source/os_tmr.c ****     if (OSIntNestingCtr > 0u) {                                 /* See if trying to call from an IS
 409              		.loc 1 494 0
 410 000e 234B     		ldr	r3, .L50
 411 0010 1B78     		ldrb	r3, [r3]
 412 0012 002B     		cmp	r3, #0
 413 0014 03D0     		beq	.L37
 495:..\..\..\..\..\..\Software\uCOS-III\Source/os_tmr.c ****        *p_err = OS_ERR_TMR_ISR;
 414              		.loc 1 495 0
 415 0016 FB69     		ldr	r3, [r7, #28]
ARM GAS  C:\Users\ADMINI~1\AppData\Local\Temp\ccofok6U.s 			page 17


 416 0018 214A     		ldr	r2, .L50+4
 417 001a 1A80     		strh	r2, [r3]
 496:..\..\..\..\..\..\Software\uCOS-III\Source/os_tmr.c ****         return;
 418              		.loc 1 496 0
 419 001c 3BE0     		b	.L36
 420              	.L37:
 497:..\..\..\..\..\..\Software\uCOS-III\Source/os_tmr.c ****     }
 498:..\..\..\..\..\..\Software\uCOS-III\Source/os_tmr.c **** #endif
 499:..\..\..\..\..\..\Software\uCOS-III\Source/os_tmr.c **** 
 500:..\..\..\..\..\..\Software\uCOS-III\Source/os_tmr.c **** #if (OS_CFG_INVALID_OS_CALLS_CHK_EN == DEF_ENABLED)             /* Is the kernel running?          
 501:..\..\..\..\..\..\Software\uCOS-III\Source/os_tmr.c ****     if (OSRunning != OS_STATE_OS_RUNNING) {
 502:..\..\..\..\..\..\Software\uCOS-III\Source/os_tmr.c ****        *p_err = OS_ERR_OS_NOT_RUNNING;
 503:..\..\..\..\..\..\Software\uCOS-III\Source/os_tmr.c ****         return;
 504:..\..\..\..\..\..\Software\uCOS-III\Source/os_tmr.c ****     }
 505:..\..\..\..\..\..\Software\uCOS-III\Source/os_tmr.c **** #endif
 506:..\..\..\..\..\..\Software\uCOS-III\Source/os_tmr.c **** 
 507:..\..\..\..\..\..\Software\uCOS-III\Source/os_tmr.c **** #if (OS_CFG_ARG_CHK_EN == DEF_ENABLED)
 508:..\..\..\..\..\..\Software\uCOS-III\Source/os_tmr.c ****     if (p_tmr == DEF_NULL) {                                    /* Validate 'p_tmr'                
 421              		.loc 1 508 0
 422 001e FB68     		ldr	r3, [r7, #12]
 423 0020 002B     		cmp	r3, #0
 424 0022 03D1     		bne	.L39
 509:..\..\..\..\..\..\Software\uCOS-III\Source/os_tmr.c ****        *p_err = OS_ERR_TMR_INVALID;
 425              		.loc 1 509 0
 426 0024 FB69     		ldr	r3, [r7, #28]
 427 0026 1F4A     		ldr	r2, .L50+8
 428 0028 1A80     		strh	r2, [r3]
 510:..\..\..\..\..\..\Software\uCOS-III\Source/os_tmr.c ****         return;
 429              		.loc 1 510 0
 430 002a 34E0     		b	.L36
 431              	.L39:
 511:..\..\..\..\..\..\Software\uCOS-III\Source/os_tmr.c ****     }
 512:..\..\..\..\..\..\Software\uCOS-III\Source/os_tmr.c **** #endif
 513:..\..\..\..\..\..\Software\uCOS-III\Source/os_tmr.c **** 
 514:..\..\..\..\..\..\Software\uCOS-III\Source/os_tmr.c **** #if (OS_CFG_OBJ_TYPE_CHK_EN == DEF_ENABLED)
 515:..\..\..\..\..\..\Software\uCOS-III\Source/os_tmr.c ****     if (p_tmr->Type != OS_OBJ_TYPE_TMR) {                       /* Make sure timer was created     
 516:..\..\..\..\..\..\Software\uCOS-III\Source/os_tmr.c ****        *p_err = OS_ERR_OBJ_TYPE;
 517:..\..\..\..\..\..\Software\uCOS-III\Source/os_tmr.c ****         return;
 518:..\..\..\..\..\..\Software\uCOS-III\Source/os_tmr.c ****     }
 519:..\..\..\..\..\..\Software\uCOS-III\Source/os_tmr.c **** #endif
 520:..\..\..\..\..\..\Software\uCOS-III\Source/os_tmr.c **** 
 521:..\..\..\..\..\..\Software\uCOS-III\Source/os_tmr.c **** #if (OS_CFG_ARG_CHK_EN == DEF_ENABLED)
 522:..\..\..\..\..\..\Software\uCOS-III\Source/os_tmr.c ****     switch (p_tmr->Opt) {
 432              		.loc 1 522 0
 433 002c FB68     		ldr	r3, [r7, #12]
 434 002e 9B8C     		ldrh	r3, [r3, #36]
 435 0030 012B     		cmp	r3, #1
 436 0032 0FD0     		beq	.L41
 437 0034 022B     		cmp	r3, #2
 438 0036 14D1     		bne	.L47
 523:..\..\..\..\..\..\Software\uCOS-III\Source/os_tmr.c ****         case OS_OPT_TMR_PERIODIC:
 524:..\..\..\..\..\..\Software\uCOS-III\Source/os_tmr.c ****              if (period == 0u) {
 439              		.loc 1 524 0
 440 0038 7B68     		ldr	r3, [r7, #4]
 441 003a 002B     		cmp	r3, #0
 442 003c 03D1     		bne	.L43
 525:..\..\..\..\..\..\Software\uCOS-III\Source/os_tmr.c ****                 *p_err = OS_ERR_TMR_INVALID_PERIOD;
ARM GAS  C:\Users\ADMINI~1\AppData\Local\Temp\ccofok6U.s 			page 18


 443              		.loc 1 525 0
 444 003e FB69     		ldr	r3, [r7, #28]
 445 0040 194A     		ldr	r2, .L50+12
 446 0042 1A80     		strh	r2, [r3]
 526:..\..\..\..\..\..\Software\uCOS-III\Source/os_tmr.c ****                  return;
 447              		.loc 1 526 0
 448 0044 27E0     		b	.L36
 449              	.L43:
 527:..\..\..\..\..\..\Software\uCOS-III\Source/os_tmr.c ****              }
 528:..\..\..\..\..\..\Software\uCOS-III\Source/os_tmr.c **** 
 529:..\..\..\..\..\..\Software\uCOS-III\Source/os_tmr.c ****              if (p_callback == DEF_NULL) {                      /* No point in a periodic timer wit
 450              		.loc 1 529 0
 451 0046 3B68     		ldr	r3, [r7]
 452 0048 002B     		cmp	r3, #0
 453 004a 0ED1     		bne	.L48
 530:..\..\..\..\..\..\Software\uCOS-III\Source/os_tmr.c ****                 *p_err = OS_ERR_TMR_INVALID_CALLBACK;
 454              		.loc 1 530 0
 455 004c FB69     		ldr	r3, [r7, #28]
 456 004e 174A     		ldr	r2, .L50+16
 457 0050 1A80     		strh	r2, [r3]
 531:..\..\..\..\..\..\Software\uCOS-III\Source/os_tmr.c ****                  return;
 458              		.loc 1 531 0
 459 0052 20E0     		b	.L36
 460              	.L41:
 532:..\..\..\..\..\..\Software\uCOS-III\Source/os_tmr.c ****              }
 533:..\..\..\..\..\..\Software\uCOS-III\Source/os_tmr.c ****              break;
 534:..\..\..\..\..\..\Software\uCOS-III\Source/os_tmr.c **** 
 535:..\..\..\..\..\..\Software\uCOS-III\Source/os_tmr.c ****         case OS_OPT_TMR_ONE_SHOT:
 536:..\..\..\..\..\..\Software\uCOS-III\Source/os_tmr.c ****              if (dly == 0u) {
 461              		.loc 1 536 0
 462 0054 BB68     		ldr	r3, [r7, #8]
 463 0056 002B     		cmp	r3, #0
 464 0058 09D1     		bne	.L49
 537:..\..\..\..\..\..\Software\uCOS-III\Source/os_tmr.c ****                 *p_err = OS_ERR_TMR_INVALID_DLY;
 465              		.loc 1 537 0
 466 005a FB69     		ldr	r3, [r7, #28]
 467 005c 144A     		ldr	r2, .L50+20
 468 005e 1A80     		strh	r2, [r3]
 538:..\..\..\..\..\..\Software\uCOS-III\Source/os_tmr.c ****                  return;
 469              		.loc 1 538 0
 470 0060 19E0     		b	.L36
 471              	.L47:
 539:..\..\..\..\..\..\Software\uCOS-III\Source/os_tmr.c ****              }
 540:..\..\..\..\..\..\Software\uCOS-III\Source/os_tmr.c ****              break;
 541:..\..\..\..\..\..\Software\uCOS-III\Source/os_tmr.c **** 
 542:..\..\..\..\..\..\Software\uCOS-III\Source/os_tmr.c ****         default:
 543:..\..\..\..\..\..\Software\uCOS-III\Source/os_tmr.c ****             *p_err = OS_ERR_TMR_INVALID;
 472              		.loc 1 543 0
 473 0062 FB69     		ldr	r3, [r7, #28]
 474 0064 0F4A     		ldr	r2, .L50+8
 475 0066 1A80     		strh	r2, [r3]
 544:..\..\..\..\..\..\Software\uCOS-III\Source/os_tmr.c ****              return;
 476              		.loc 1 544 0
 477 0068 15E0     		b	.L36
 478              	.L48:
 533:..\..\..\..\..\..\Software\uCOS-III\Source/os_tmr.c **** 
 479              		.loc 1 533 0
ARM GAS  C:\Users\ADMINI~1\AppData\Local\Temp\ccofok6U.s 			page 19


 480 006a C046     		nop
 481 006c 00E0     		b	.L45
 482              	.L49:
 540:..\..\..\..\..\..\Software\uCOS-III\Source/os_tmr.c **** 
 483              		.loc 1 540 0
 484 006e C046     		nop
 485              	.L45:
 545:..\..\..\..\..\..\Software\uCOS-III\Source/os_tmr.c ****     }
 546:..\..\..\..\..\..\Software\uCOS-III\Source/os_tmr.c **** #endif
 547:..\..\..\..\..\..\Software\uCOS-III\Source/os_tmr.c **** 
 548:..\..\..\..\..\..\Software\uCOS-III\Source/os_tmr.c ****     OS_TmrLock();
 486              		.loc 1 548 0
 487 0070 FFF7FEFF 		bl	OS_TmrLock
 549:..\..\..\..\..\..\Software\uCOS-III\Source/os_tmr.c **** 
 550:..\..\..\..\..\..\Software\uCOS-III\Source/os_tmr.c ****     p_tmr->Dly            = dly;
 488              		.loc 1 550 0
 489 0074 FB68     		ldr	r3, [r7, #12]
 490 0076 BA68     		ldr	r2, [r7, #8]
 491 0078 DA61     		str	r2, [r3, #28]
 551:..\..\..\..\..\..\Software\uCOS-III\Source/os_tmr.c ****     p_tmr->Period         = period;
 492              		.loc 1 551 0
 493 007a FB68     		ldr	r3, [r7, #12]
 494 007c 7A68     		ldr	r2, [r7, #4]
 495 007e 1A62     		str	r2, [r3, #32]
 552:..\..\..\..\..\..\Software\uCOS-III\Source/os_tmr.c ****     p_tmr->CallbackPtr    = p_callback;
 496              		.loc 1 552 0
 497 0080 FB68     		ldr	r3, [r7, #12]
 498 0082 3A68     		ldr	r2, [r7]
 499 0084 9A60     		str	r2, [r3, #8]
 553:..\..\..\..\..\..\Software\uCOS-III\Source/os_tmr.c ****     p_tmr->CallbackPtrArg = p_callback_arg;
 500              		.loc 1 553 0
 501 0086 FB68     		ldr	r3, [r7, #12]
 502 0088 BA69     		ldr	r2, [r7, #24]
 503 008a DA60     		str	r2, [r3, #12]
 554:..\..\..\..\..\..\Software\uCOS-III\Source/os_tmr.c **** 
 555:..\..\..\..\..\..\Software\uCOS-III\Source/os_tmr.c ****    *p_err = OS_ERR_NONE;
 504              		.loc 1 555 0
 505 008c FB69     		ldr	r3, [r7, #28]
 506 008e 0022     		movs	r2, #0
 507 0090 1A80     		strh	r2, [r3]
 556:..\..\..\..\..\..\Software\uCOS-III\Source/os_tmr.c **** 
 557:..\..\..\..\..\..\Software\uCOS-III\Source/os_tmr.c ****     OS_TmrUnlock();
 508              		.loc 1 557 0
 509 0092 FFF7FEFF 		bl	OS_TmrUnlock
 510              	.L36:
 558:..\..\..\..\..\..\Software\uCOS-III\Source/os_tmr.c **** 
 559:..\..\..\..\..\..\Software\uCOS-III\Source/os_tmr.c **** }
 511              		.loc 1 559 0
 512 0096 BD46     		mov	sp, r7
 513 0098 04B0     		add	sp, sp, #16
 514              		@ sp needed
 515 009a 80BD     		pop	{r7, pc}
 516              	.L51:
 517              		.align	2
 518              	.L50:
 519 009c 00000000 		.word	OSIntNestingCtr
 520 00a0 43730000 		.word	29507
ARM GAS  C:\Users\ADMINI~1\AppData\Local\Temp\ccofok6U.s 			page 20


 521 00a4 42730000 		.word	29506
 522 00a8 40730000 		.word	29504
 523 00ac 4A730000 		.word	29514
 524 00b0 3F730000 		.word	29503
 525              		.cfi_endproc
 526              	.LFE2:
 527              		.size	OSTmrSet, .-OSTmrSet
 528              		.section	.text.OSTmrStart,"ax",%progbits
 529              		.align	2
 530              		.global	OSTmrStart
 531              		.code	16
 532              		.thumb_func
 533              		.type	OSTmrStart, %function
 534              	OSTmrStart:
 535              	.LFB3:
 560:..\..\..\..\..\..\Software\uCOS-III\Source/os_tmr.c **** 
 561:..\..\..\..\..\..\Software\uCOS-III\Source/os_tmr.c **** 
 562:..\..\..\..\..\..\Software\uCOS-III\Source/os_tmr.c **** /*
 563:..\..\..\..\..\..\Software\uCOS-III\Source/os_tmr.c **** ***************************************************************************************************
 564:..\..\..\..\..\..\Software\uCOS-III\Source/os_tmr.c **** *                                                   START A TIMER
 565:..\..\..\..\..\..\Software\uCOS-III\Source/os_tmr.c **** *
 566:..\..\..\..\..\..\Software\uCOS-III\Source/os_tmr.c **** * Description: This function is called by your application code to start a timer.
 567:..\..\..\..\..\..\Software\uCOS-III\Source/os_tmr.c **** *
 568:..\..\..\..\..\..\Software\uCOS-III\Source/os_tmr.c **** * Arguments  : p_tmr    Is a pointer to an OS_TMR
 569:..\..\..\..\..\..\Software\uCOS-III\Source/os_tmr.c **** *
 570:..\..\..\..\..\..\Software\uCOS-III\Source/os_tmr.c **** *              p_err    Is a pointer to an error code.  '*p_err' will contain one of the following:
 571:..\..\..\..\..\..\Software\uCOS-III\Source/os_tmr.c **** *
 572:..\..\..\..\..\..\Software\uCOS-III\Source/os_tmr.c **** *                           OS_ERR_NONE                The timer was started
 573:..\..\..\..\..\..\Software\uCOS-III\Source/os_tmr.c **** *                           OS_ERR_OBJ_TYPE            If 'p_tmr' is not pointing to a timer
 574:..\..\..\..\..\..\Software\uCOS-III\Source/os_tmr.c **** *                           OS_ERR_OS_NOT_RUNNING      If uC/OS-III is not running yet
 575:..\..\..\..\..\..\Software\uCOS-III\Source/os_tmr.c **** *                           OS_ERR_TMR_INACTIVE        If the timer was not created
 576:..\..\..\..\..\..\Software\uCOS-III\Source/os_tmr.c **** *                           OS_ERR_TMR_INVALID         If 'p_tmr' is a NULL pointer
 577:..\..\..\..\..\..\Software\uCOS-III\Source/os_tmr.c **** *                           OS_ERR_TMR_INVALID_STATE   The timer is in an invalid state
 578:..\..\..\..\..\..\Software\uCOS-III\Source/os_tmr.c **** *                           OS_ERR_TMR_ISR             If the call was made from an ISR
 579:..\..\..\..\..\..\Software\uCOS-III\Source/os_tmr.c **** *
 580:..\..\..\..\..\..\Software\uCOS-III\Source/os_tmr.c **** * Returns    : DEF_TRUE      is the timer was started
 581:..\..\..\..\..\..\Software\uCOS-III\Source/os_tmr.c **** *              DEF_FALSE     if not or upon an error
 582:..\..\..\..\..\..\Software\uCOS-III\Source/os_tmr.c **** *
 583:..\..\..\..\..\..\Software\uCOS-III\Source/os_tmr.c **** * Note(s)    : 1) When starting/restarting a timer, regardless if it is in PERIODIC or ONE-SHOT mod
 584:..\..\..\..\..\..\Software\uCOS-III\Source/os_tmr.c **** *                 linked to the timer list with the OS_OPT_LINK_DLY option. This option sets the in
 585:..\..\..\..\..\..\Software\uCOS-III\Source/os_tmr.c **** *                 time for the timer. For timers in PERIODIC mode, subsequent expiration times are 
 586:..\..\..\..\..\..\Software\uCOS-III\Source/os_tmr.c **** *                 the OS_TmrTask().
 587:..\..\..\..\..\..\Software\uCOS-III\Source/os_tmr.c **** ***************************************************************************************************
 588:..\..\..\..\..\..\Software\uCOS-III\Source/os_tmr.c **** */
 589:..\..\..\..\..\..\Software\uCOS-III\Source/os_tmr.c **** 
 590:..\..\..\..\..\..\Software\uCOS-III\Source/os_tmr.c **** CPU_BOOLEAN  OSTmrStart (OS_TMR  *p_tmr,
 591:..\..\..\..\..\..\Software\uCOS-III\Source/os_tmr.c ****                          OS_ERR  *p_err)
 592:..\..\..\..\..\..\Software\uCOS-III\Source/os_tmr.c **** {
 536              		.loc 1 592 0
 537              		.cfi_startproc
 538              		@ args = 0, pretend = 0, frame = 16
 539              		@ frame_needed = 1, uses_anonymous_args = 0
 540 0000 80B5     		push	{r7, lr}
 541              		.cfi_def_cfa_offset 8
 542              		.cfi_offset 7, -8
 543              		.cfi_offset 14, -4
 544 0002 84B0     		sub	sp, sp, #16
ARM GAS  C:\Users\ADMINI~1\AppData\Local\Temp\ccofok6U.s 			page 21


 545              		.cfi_def_cfa_offset 24
 546 0004 00AF     		add	r7, sp, #0
 547              		.cfi_def_cfa_register 7
 548 0006 7860     		str	r0, [r7, #4]
 549 0008 3960     		str	r1, [r7]
 593:..\..\..\..\..\..\Software\uCOS-III\Source/os_tmr.c ****     OS_TMR      *p_next;
 594:..\..\..\..\..\..\Software\uCOS-III\Source/os_tmr.c ****     CPU_BOOLEAN  success;
 595:..\..\..\..\..\..\Software\uCOS-III\Source/os_tmr.c **** 
 596:..\..\..\..\..\..\Software\uCOS-III\Source/os_tmr.c ****     
 597:..\..\..\..\..\..\Software\uCOS-III\Source/os_tmr.c **** 
 598:..\..\..\..\..\..\Software\uCOS-III\Source/os_tmr.c **** #ifdef OS_SAFETY_CRITICAL
 599:..\..\..\..\..\..\Software\uCOS-III\Source/os_tmr.c ****     if (p_err == DEF_NULL) {
 600:..\..\..\..\..\..\Software\uCOS-III\Source/os_tmr.c ****         OS_SAFETY_CRITICAL_EXCEPTION();
 601:..\..\..\..\..\..\Software\uCOS-III\Source/os_tmr.c ****         return (DEF_FALSE);
 602:..\..\..\..\..\..\Software\uCOS-III\Source/os_tmr.c ****     }
 603:..\..\..\..\..\..\Software\uCOS-III\Source/os_tmr.c **** #endif
 604:..\..\..\..\..\..\Software\uCOS-III\Source/os_tmr.c **** 
 605:..\..\..\..\..\..\Software\uCOS-III\Source/os_tmr.c **** #if (OS_CFG_CALLED_FROM_ISR_CHK_EN == DEF_ENABLED)
 606:..\..\..\..\..\..\Software\uCOS-III\Source/os_tmr.c ****     if (OSIntNestingCtr > 0u) {                                 /* See if trying to call from an IS
 550              		.loc 1 606 0
 551 000a 434B     		ldr	r3, .L66
 552 000c 1B78     		ldrb	r3, [r3]
 553 000e 002B     		cmp	r3, #0
 554 0010 04D0     		beq	.L53
 607:..\..\..\..\..\..\Software\uCOS-III\Source/os_tmr.c ****        *p_err = OS_ERR_TMR_ISR;
 555              		.loc 1 607 0
 556 0012 3B68     		ldr	r3, [r7]
 557 0014 414A     		ldr	r2, .L66+4
 558 0016 1A80     		strh	r2, [r3]
 608:..\..\..\..\..\..\Software\uCOS-III\Source/os_tmr.c ****         return (DEF_FALSE);
 559              		.loc 1 608 0
 560 0018 0023     		movs	r3, #0
 561 001a 78E0     		b	.L54
 562              	.L53:
 609:..\..\..\..\..\..\Software\uCOS-III\Source/os_tmr.c ****     }
 610:..\..\..\..\..\..\Software\uCOS-III\Source/os_tmr.c **** #endif
 611:..\..\..\..\..\..\Software\uCOS-III\Source/os_tmr.c **** 
 612:..\..\..\..\..\..\Software\uCOS-III\Source/os_tmr.c **** #if (OS_CFG_INVALID_OS_CALLS_CHK_EN == DEF_ENABLED)             /* Is the kernel running?          
 613:..\..\..\..\..\..\Software\uCOS-III\Source/os_tmr.c ****     if (OSRunning != OS_STATE_OS_RUNNING) {
 614:..\..\..\..\..\..\Software\uCOS-III\Source/os_tmr.c ****        *p_err = OS_ERR_OS_NOT_RUNNING;
 615:..\..\..\..\..\..\Software\uCOS-III\Source/os_tmr.c ****         return (DEF_FALSE);
 616:..\..\..\..\..\..\Software\uCOS-III\Source/os_tmr.c ****     }
 617:..\..\..\..\..\..\Software\uCOS-III\Source/os_tmr.c **** #endif
 618:..\..\..\..\..\..\Software\uCOS-III\Source/os_tmr.c **** 
 619:..\..\..\..\..\..\Software\uCOS-III\Source/os_tmr.c **** #if (OS_CFG_ARG_CHK_EN == DEF_ENABLED)
 620:..\..\..\..\..\..\Software\uCOS-III\Source/os_tmr.c ****     if (p_tmr == DEF_NULL) {
 563              		.loc 1 620 0
 564 001c 7B68     		ldr	r3, [r7, #4]
 565 001e 002B     		cmp	r3, #0
 566 0020 04D1     		bne	.L55
 621:..\..\..\..\..\..\Software\uCOS-III\Source/os_tmr.c ****        *p_err = OS_ERR_TMR_INVALID;
 567              		.loc 1 621 0
 568 0022 3B68     		ldr	r3, [r7]
 569 0024 3E4A     		ldr	r2, .L66+8
 570 0026 1A80     		strh	r2, [r3]
 622:..\..\..\..\..\..\Software\uCOS-III\Source/os_tmr.c ****         return (DEF_FALSE);
 571              		.loc 1 622 0
ARM GAS  C:\Users\ADMINI~1\AppData\Local\Temp\ccofok6U.s 			page 22


 572 0028 0023     		movs	r3, #0
 573 002a 70E0     		b	.L54
 574              	.L55:
 623:..\..\..\..\..\..\Software\uCOS-III\Source/os_tmr.c ****     }
 624:..\..\..\..\..\..\Software\uCOS-III\Source/os_tmr.c **** #endif
 625:..\..\..\..\..\..\Software\uCOS-III\Source/os_tmr.c **** 
 626:..\..\..\..\..\..\Software\uCOS-III\Source/os_tmr.c **** #if (OS_CFG_OBJ_TYPE_CHK_EN == DEF_ENABLED)
 627:..\..\..\..\..\..\Software\uCOS-III\Source/os_tmr.c ****     if (p_tmr->Type != OS_OBJ_TYPE_TMR) {                       /* Make sure timer was created     
 628:..\..\..\..\..\..\Software\uCOS-III\Source/os_tmr.c ****        *p_err = OS_ERR_OBJ_TYPE;
 629:..\..\..\..\..\..\Software\uCOS-III\Source/os_tmr.c ****         return (DEF_FALSE);
 630:..\..\..\..\..\..\Software\uCOS-III\Source/os_tmr.c ****     }
 631:..\..\..\..\..\..\Software\uCOS-III\Source/os_tmr.c **** #endif
 632:..\..\..\..\..\..\Software\uCOS-III\Source/os_tmr.c **** 
 633:..\..\..\..\..\..\Software\uCOS-III\Source/os_tmr.c ****     OS_TmrLock();
 575              		.loc 1 633 0
 576 002c FFF7FEFF 		bl	OS_TmrLock
 634:..\..\..\..\..\..\Software\uCOS-III\Source/os_tmr.c **** 
 635:..\..\..\..\..\..\Software\uCOS-III\Source/os_tmr.c ****     switch (p_tmr->State) {
 577              		.loc 1 635 0
 578 0030 7B68     		ldr	r3, [r7, #4]
 579 0032 2622     		movs	r2, #38
 580 0034 9B5C     		ldrb	r3, [r3, r2]
 581 0036 012B     		cmp	r3, #1
 582 0038 14D0     		beq	.L57
 583 003a 02DC     		bgt	.L58
 584 003c 002B     		cmp	r3, #0
 585 003e 51D0     		beq	.L59
 586 0040 58E0     		b	.L56
 587              	.L58:
 588 0042 022B     		cmp	r3, #2
 589 0044 02D0     		beq	.L60
 590 0046 032B     		cmp	r3, #3
 591 0048 0CD0     		beq	.L57
 592 004a 53E0     		b	.L56
 593              	.L60:
 636:..\..\..\..\..\..\Software\uCOS-III\Source/os_tmr.c ****         case OS_TMR_STATE_RUNNING:                              /* Restart the timer               
 637:..\..\..\..\..\..\Software\uCOS-III\Source/os_tmr.c ****              p_tmr->Remain = p_tmr->Dly;
 594              		.loc 1 637 0
 595 004c 7B68     		ldr	r3, [r7, #4]
 596 004e DA69     		ldr	r2, [r3, #28]
 597 0050 7B68     		ldr	r3, [r7, #4]
 598 0052 9A61     		str	r2, [r3, #24]
 638:..\..\..\..\..\..\Software\uCOS-III\Source/os_tmr.c ****             *p_err         = OS_ERR_NONE;
 599              		.loc 1 638 0
 600 0054 3B68     		ldr	r3, [r7]
 601 0056 0022     		movs	r2, #0
 602 0058 1A80     		strh	r2, [r3]
 639:..\..\..\..\..\..\Software\uCOS-III\Source/os_tmr.c ****              success       = DEF_TRUE;
 603              		.loc 1 639 0
 604 005a 0F23     		movs	r3, #15
 605 005c FB18     		adds	r3, r7, r3
 606 005e 0122     		movs	r2, #1
 607 0060 1A70     		strb	r2, [r3]
 640:..\..\..\..\..\..\Software\uCOS-III\Source/os_tmr.c ****              break;
 608              		.loc 1 640 0
 609 0062 4FE0     		b	.L61
 610              	.L57:
ARM GAS  C:\Users\ADMINI~1\AppData\Local\Temp\ccofok6U.s 			page 23


 641:..\..\..\..\..\..\Software\uCOS-III\Source/os_tmr.c **** 
 642:..\..\..\..\..\..\Software\uCOS-III\Source/os_tmr.c ****         case OS_TMR_STATE_STOPPED:                              /* Start the timer                 
 643:..\..\..\..\..\..\Software\uCOS-III\Source/os_tmr.c ****         case OS_TMR_STATE_COMPLETED:
 644:..\..\..\..\..\..\Software\uCOS-III\Source/os_tmr.c ****              p_tmr->State  = OS_TMR_STATE_RUNNING;
 611              		.loc 1 644 0
 612 0064 7B68     		ldr	r3, [r7, #4]
 613 0066 2622     		movs	r2, #38
 614 0068 0221     		movs	r1, #2
 615 006a 9954     		strb	r1, [r3, r2]
 645:..\..\..\..\..\..\Software\uCOS-III\Source/os_tmr.c ****              if (p_tmr->Dly == 0u) {
 616              		.loc 1 645 0
 617 006c 7B68     		ldr	r3, [r7, #4]
 618 006e DB69     		ldr	r3, [r3, #28]
 619 0070 002B     		cmp	r3, #0
 620 0072 04D1     		bne	.L62
 646:..\..\..\..\..\..\Software\uCOS-III\Source/os_tmr.c ****                  p_tmr->Remain = p_tmr->Period;
 621              		.loc 1 646 0
 622 0074 7B68     		ldr	r3, [r7, #4]
 623 0076 1A6A     		ldr	r2, [r3, #32]
 624 0078 7B68     		ldr	r3, [r7, #4]
 625 007a 9A61     		str	r2, [r3, #24]
 626 007c 03E0     		b	.L63
 627              	.L62:
 647:..\..\..\..\..\..\Software\uCOS-III\Source/os_tmr.c ****              } else {
 648:..\..\..\..\..\..\Software\uCOS-III\Source/os_tmr.c ****                  p_tmr->Remain = p_tmr->Dly;
 628              		.loc 1 648 0
 629 007e 7B68     		ldr	r3, [r7, #4]
 630 0080 DA69     		ldr	r2, [r3, #28]
 631 0082 7B68     		ldr	r3, [r7, #4]
 632 0084 9A61     		str	r2, [r3, #24]
 633              	.L63:
 649:..\..\..\..\..\..\Software\uCOS-III\Source/os_tmr.c ****              }
 650:..\..\..\..\..\..\Software\uCOS-III\Source/os_tmr.c ****              if (OSTmrListPtr ==  DEF_NULL) {                   /* Link into timer list            
 634              		.loc 1 650 0
 635 0086 274B     		ldr	r3, .L66+12
 636 0088 1B68     		ldr	r3, [r3]
 637 008a 002B     		cmp	r3, #0
 638 008c 0CD1     		bne	.L64
 651:..\..\..\..\..\..\Software\uCOS-III\Source/os_tmr.c ****                  p_tmr->NextPtr   = DEF_NULL;                   /* This is the first timer in the l
 639              		.loc 1 651 0
 640 008e 7B68     		ldr	r3, [r7, #4]
 641 0090 0022     		movs	r2, #0
 642 0092 1A61     		str	r2, [r3, #16]
 652:..\..\..\..\..\..\Software\uCOS-III\Source/os_tmr.c ****                  p_tmr->PrevPtr   = DEF_NULL;
 643              		.loc 1 652 0
 644 0094 7B68     		ldr	r3, [r7, #4]
 645 0096 0022     		movs	r2, #0
 646 0098 5A61     		str	r2, [r3, #20]
 653:..\..\..\..\..\..\Software\uCOS-III\Source/os_tmr.c ****                  OSTmrListPtr     = p_tmr;
 647              		.loc 1 653 0
 648 009a 224B     		ldr	r3, .L66+12
 649 009c 7A68     		ldr	r2, [r7, #4]
 650 009e 1A60     		str	r2, [r3]
 654:..\..\..\..\..\..\Software\uCOS-III\Source/os_tmr.c **** #if (OS_CFG_DBG_EN == DEF_ENABLED)
 655:..\..\..\..\..\..\Software\uCOS-III\Source/os_tmr.c ****                  OSTmrListEntries = 1u;
 651              		.loc 1 655 0
 652 00a0 214B     		ldr	r3, .L66+16
ARM GAS  C:\Users\ADMINI~1\AppData\Local\Temp\ccofok6U.s 			page 24


 653 00a2 0122     		movs	r2, #1
 654 00a4 1A80     		strh	r2, [r3]
 655 00a6 15E0     		b	.L65
 656              	.L64:
 656:..\..\..\..\..\..\Software\uCOS-III\Source/os_tmr.c **** #endif
 657:..\..\..\..\..\..\Software\uCOS-III\Source/os_tmr.c ****              } else {
 658:..\..\..\..\..\..\Software\uCOS-III\Source/os_tmr.c ****                  p_next           = OSTmrListPtr;               /* Insert at the beginning of the l
 657              		.loc 1 658 0
 658 00a8 1E4B     		ldr	r3, .L66+12
 659 00aa 1B68     		ldr	r3, [r3]
 660 00ac BB60     		str	r3, [r7, #8]
 659:..\..\..\..\..\..\Software\uCOS-III\Source/os_tmr.c ****                  p_tmr->NextPtr   = OSTmrListPtr;
 661              		.loc 1 659 0
 662 00ae 1D4B     		ldr	r3, .L66+12
 663 00b0 1A68     		ldr	r2, [r3]
 664 00b2 7B68     		ldr	r3, [r7, #4]
 665 00b4 1A61     		str	r2, [r3, #16]
 660:..\..\..\..\..\..\Software\uCOS-III\Source/os_tmr.c ****                  p_tmr->PrevPtr   = DEF_NULL;
 666              		.loc 1 660 0
 667 00b6 7B68     		ldr	r3, [r7, #4]
 668 00b8 0022     		movs	r2, #0
 669 00ba 5A61     		str	r2, [r3, #20]
 661:..\..\..\..\..\..\Software\uCOS-III\Source/os_tmr.c ****                  p_next->PrevPtr  = p_tmr;
 670              		.loc 1 661 0
 671 00bc BB68     		ldr	r3, [r7, #8]
 672 00be 7A68     		ldr	r2, [r7, #4]
 673 00c0 5A61     		str	r2, [r3, #20]
 662:..\..\..\..\..\..\Software\uCOS-III\Source/os_tmr.c ****                  OSTmrListPtr     = p_tmr;
 674              		.loc 1 662 0
 675 00c2 184B     		ldr	r3, .L66+12
 676 00c4 7A68     		ldr	r2, [r7, #4]
 677 00c6 1A60     		str	r2, [r3]
 663:..\..\..\..\..\..\Software\uCOS-III\Source/os_tmr.c **** #if (OS_CFG_DBG_EN == DEF_ENABLED)
 664:..\..\..\..\..\..\Software\uCOS-III\Source/os_tmr.c ****                  OSTmrListEntries++;
 678              		.loc 1 664 0
 679 00c8 174B     		ldr	r3, .L66+16
 680 00ca 1B88     		ldrh	r3, [r3]
 681 00cc 0133     		adds	r3, r3, #1
 682 00ce 9AB2     		uxth	r2, r3
 683 00d0 154B     		ldr	r3, .L66+16
 684 00d2 1A80     		strh	r2, [r3]
 685              	.L65:
 665:..\..\..\..\..\..\Software\uCOS-III\Source/os_tmr.c **** #endif
 666:..\..\..\..\..\..\Software\uCOS-III\Source/os_tmr.c ****              }
 667:..\..\..\..\..\..\Software\uCOS-III\Source/os_tmr.c ****             *p_err   = OS_ERR_NONE;
 686              		.loc 1 667 0
 687 00d4 3B68     		ldr	r3, [r7]
 688 00d6 0022     		movs	r2, #0
 689 00d8 1A80     		strh	r2, [r3]
 668:..\..\..\..\..\..\Software\uCOS-III\Source/os_tmr.c ****              success = DEF_TRUE;
 690              		.loc 1 668 0
 691 00da 0F23     		movs	r3, #15
 692 00dc FB18     		adds	r3, r7, r3
 693 00de 0122     		movs	r2, #1
 694 00e0 1A70     		strb	r2, [r3]
 669:..\..\..\..\..\..\Software\uCOS-III\Source/os_tmr.c ****              break;
 695              		.loc 1 669 0
ARM GAS  C:\Users\ADMINI~1\AppData\Local\Temp\ccofok6U.s 			page 25


 696 00e2 0FE0     		b	.L61
 697              	.L59:
 670:..\..\..\..\..\..\Software\uCOS-III\Source/os_tmr.c **** 
 671:..\..\..\..\..\..\Software\uCOS-III\Source/os_tmr.c ****         case OS_TMR_STATE_UNUSED:                               /* Timer not created               
 672:..\..\..\..\..\..\Software\uCOS-III\Source/os_tmr.c ****             *p_err   = OS_ERR_TMR_INACTIVE;
 698              		.loc 1 672 0
 699 00e4 3B68     		ldr	r3, [r7]
 700 00e6 114A     		ldr	r2, .L66+20
 701 00e8 1A80     		strh	r2, [r3]
 673:..\..\..\..\..\..\Software\uCOS-III\Source/os_tmr.c ****              success = DEF_FALSE;
 702              		.loc 1 673 0
 703 00ea 0F23     		movs	r3, #15
 704 00ec FB18     		adds	r3, r7, r3
 705 00ee 0022     		movs	r2, #0
 706 00f0 1A70     		strb	r2, [r3]
 674:..\..\..\..\..\..\Software\uCOS-III\Source/os_tmr.c ****              break;
 707              		.loc 1 674 0
 708 00f2 07E0     		b	.L61
 709              	.L56:
 675:..\..\..\..\..\..\Software\uCOS-III\Source/os_tmr.c **** 
 676:..\..\..\..\..\..\Software\uCOS-III\Source/os_tmr.c ****         default:
 677:..\..\..\..\..\..\Software\uCOS-III\Source/os_tmr.c ****             *p_err = OS_ERR_TMR_INVALID_STATE;
 710              		.loc 1 677 0
 711 00f4 3B68     		ldr	r3, [r7]
 712 00f6 0E4A     		ldr	r2, .L66+24
 713 00f8 1A80     		strh	r2, [r3]
 678:..\..\..\..\..\..\Software\uCOS-III\Source/os_tmr.c ****              success = DEF_FALSE;
 714              		.loc 1 678 0
 715 00fa 0F23     		movs	r3, #15
 716 00fc FB18     		adds	r3, r7, r3
 717 00fe 0022     		movs	r2, #0
 718 0100 1A70     		strb	r2, [r3]
 679:..\..\..\..\..\..\Software\uCOS-III\Source/os_tmr.c ****              break;
 719              		.loc 1 679 0
 720 0102 C046     		nop
 721              	.L61:
 680:..\..\..\..\..\..\Software\uCOS-III\Source/os_tmr.c ****     }
 681:..\..\..\..\..\..\Software\uCOS-III\Source/os_tmr.c **** 
 682:..\..\..\..\..\..\Software\uCOS-III\Source/os_tmr.c ****     OS_TmrUnlock();
 722              		.loc 1 682 0
 723 0104 FFF7FEFF 		bl	OS_TmrUnlock
 683:..\..\..\..\..\..\Software\uCOS-III\Source/os_tmr.c **** 
 684:..\..\..\..\..\..\Software\uCOS-III\Source/os_tmr.c ****     return (success);
 724              		.loc 1 684 0
 725 0108 0F23     		movs	r3, #15
 726 010a FB18     		adds	r3, r7, r3
 727 010c 1B78     		ldrb	r3, [r3]
 728              	.L54:
 685:..\..\..\..\..\..\Software\uCOS-III\Source/os_tmr.c **** }
 729              		.loc 1 685 0
 730 010e 1800     		movs	r0, r3
 731 0110 BD46     		mov	sp, r7
 732 0112 04B0     		add	sp, sp, #16
 733              		@ sp needed
 734 0114 80BD     		pop	{r7, pc}
 735              	.L67:
 736 0116 C046     		.align	2
ARM GAS  C:\Users\ADMINI~1\AppData\Local\Temp\ccofok6U.s 			page 26


 737              	.L66:
 738 0118 00000000 		.word	OSIntNestingCtr
 739 011c 43730000 		.word	29507
 740 0120 42730000 		.word	29506
 741 0124 00000000 		.word	OSTmrListPtr
 742 0128 00000000 		.word	OSTmrListEntries
 743 012c 3D730000 		.word	29501
 744 0130 41730000 		.word	29505
 745              		.cfi_endproc
 746              	.LFE3:
 747              		.size	OSTmrStart, .-OSTmrStart
 748              		.section	.text.OSTmrStateGet,"ax",%progbits
 749              		.align	2
 750              		.global	OSTmrStateGet
 751              		.code	16
 752              		.thumb_func
 753              		.type	OSTmrStateGet, %function
 754              	OSTmrStateGet:
 755              	.LFB4:
 686:..\..\..\..\..\..\Software\uCOS-III\Source/os_tmr.c **** 
 687:..\..\..\..\..\..\Software\uCOS-III\Source/os_tmr.c **** 
 688:..\..\..\..\..\..\Software\uCOS-III\Source/os_tmr.c **** /*
 689:..\..\..\..\..\..\Software\uCOS-III\Source/os_tmr.c **** ***************************************************************************************************
 690:..\..\..\..\..\..\Software\uCOS-III\Source/os_tmr.c **** *                                           FIND OUT WHAT STATE A TIMER IS IN
 691:..\..\..\..\..\..\Software\uCOS-III\Source/os_tmr.c **** *
 692:..\..\..\..\..\..\Software\uCOS-III\Source/os_tmr.c **** * Description: This function is called to determine what state the timer is in:
 693:..\..\..\..\..\..\Software\uCOS-III\Source/os_tmr.c **** *
 694:..\..\..\..\..\..\Software\uCOS-III\Source/os_tmr.c **** *                  OS_TMR_STATE_UNUSED     the timer has not been created
 695:..\..\..\..\..\..\Software\uCOS-III\Source/os_tmr.c **** *                  OS_TMR_STATE_STOPPED    the timer has been created but has not been started or h
 696:..\..\..\..\..\..\Software\uCOS-III\Source/os_tmr.c **** *                  OS_TMR_STATE_COMPLETED  the timer is in ONE-SHOT mode and has completed it's tim
 697:..\..\..\..\..\..\Software\uCOS-III\Source/os_tmr.c **** *                  OS_TMR_SATE_RUNNING     the timer is currently running
 698:..\..\..\..\..\..\Software\uCOS-III\Source/os_tmr.c **** *
 699:..\..\..\..\..\..\Software\uCOS-III\Source/os_tmr.c **** * Arguments  : p_tmr    Is a pointer to the desired timer
 700:..\..\..\..\..\..\Software\uCOS-III\Source/os_tmr.c **** *
 701:..\..\..\..\..\..\Software\uCOS-III\Source/os_tmr.c **** *              p_err    Is a pointer to an error code.  '*p_err' will contain one of the following:
 702:..\..\..\..\..\..\Software\uCOS-III\Source/os_tmr.c **** *
 703:..\..\..\..\..\..\Software\uCOS-III\Source/os_tmr.c **** *                           OS_ERR_NONE               The return value reflects the state of the ti
 704:..\..\..\..\..\..\Software\uCOS-III\Source/os_tmr.c **** *                           OS_ERR_OBJ_TYPE           If 'p_tmr' is not pointing to a timer
 705:..\..\..\..\..\..\Software\uCOS-III\Source/os_tmr.c **** *                           OS_ERR_OS_NOT_RUNNING     If uC/OS-III is not running yet
 706:..\..\..\..\..\..\Software\uCOS-III\Source/os_tmr.c **** *                           OS_ERR_TMR_INVALID        If 'p_tmr' is a NULL pointer
 707:..\..\..\..\..\..\Software\uCOS-III\Source/os_tmr.c **** *                           OS_ERR_TMR_INVALID_STATE  If the timer is not in a valid state
 708:..\..\..\..\..\..\Software\uCOS-III\Source/os_tmr.c **** *                           OS_ERR_TMR_ISR            If the call was made from an ISR
 709:..\..\..\..\..\..\Software\uCOS-III\Source/os_tmr.c **** *
 710:..\..\..\..\..\..\Software\uCOS-III\Source/os_tmr.c **** * Returns    : The current state of the timer (see description).
 711:..\..\..\..\..\..\Software\uCOS-III\Source/os_tmr.c **** *
 712:..\..\..\..\..\..\Software\uCOS-III\Source/os_tmr.c **** * Note(s)    : none
 713:..\..\..\..\..\..\Software\uCOS-III\Source/os_tmr.c **** ***************************************************************************************************
 714:..\..\..\..\..\..\Software\uCOS-III\Source/os_tmr.c **** */
 715:..\..\..\..\..\..\Software\uCOS-III\Source/os_tmr.c **** 
 716:..\..\..\..\..\..\Software\uCOS-III\Source/os_tmr.c **** OS_STATE  OSTmrStateGet (OS_TMR  *p_tmr,
 717:..\..\..\..\..\..\Software\uCOS-III\Source/os_tmr.c ****                          OS_ERR  *p_err)
 718:..\..\..\..\..\..\Software\uCOS-III\Source/os_tmr.c **** {
 756              		.loc 1 718 0
 757              		.cfi_startproc
 758              		@ args = 0, pretend = 0, frame = 16
 759              		@ frame_needed = 1, uses_anonymous_args = 0
 760 0000 80B5     		push	{r7, lr}
ARM GAS  C:\Users\ADMINI~1\AppData\Local\Temp\ccofok6U.s 			page 27


 761              		.cfi_def_cfa_offset 8
 762              		.cfi_offset 7, -8
 763              		.cfi_offset 14, -4
 764 0002 84B0     		sub	sp, sp, #16
 765              		.cfi_def_cfa_offset 24
 766 0004 00AF     		add	r7, sp, #0
 767              		.cfi_def_cfa_register 7
 768 0006 7860     		str	r0, [r7, #4]
 769 0008 3960     		str	r1, [r7]
 719:..\..\..\..\..\..\Software\uCOS-III\Source/os_tmr.c ****     OS_STATE  state;
 720:..\..\..\..\..\..\Software\uCOS-III\Source/os_tmr.c **** 
 721:..\..\..\..\..\..\Software\uCOS-III\Source/os_tmr.c **** 
 722:..\..\..\..\..\..\Software\uCOS-III\Source/os_tmr.c **** 
 723:..\..\..\..\..\..\Software\uCOS-III\Source/os_tmr.c **** #ifdef OS_SAFETY_CRITICAL
 724:..\..\..\..\..\..\Software\uCOS-III\Source/os_tmr.c ****     if (p_err == DEF_NULL) {
 725:..\..\..\..\..\..\Software\uCOS-III\Source/os_tmr.c ****         OS_SAFETY_CRITICAL_EXCEPTION();
 726:..\..\..\..\..\..\Software\uCOS-III\Source/os_tmr.c ****         return (OS_TMR_STATE_UNUSED);
 727:..\..\..\..\..\..\Software\uCOS-III\Source/os_tmr.c ****     }
 728:..\..\..\..\..\..\Software\uCOS-III\Source/os_tmr.c **** #endif
 729:..\..\..\..\..\..\Software\uCOS-III\Source/os_tmr.c **** 
 730:..\..\..\..\..\..\Software\uCOS-III\Source/os_tmr.c **** #if (OS_CFG_CALLED_FROM_ISR_CHK_EN == DEF_ENABLED)
 731:..\..\..\..\..\..\Software\uCOS-III\Source/os_tmr.c ****     if (OSIntNestingCtr > 0u) {                                 /* See if trying to call from an IS
 770              		.loc 1 731 0
 771 000a 184B     		ldr	r3, .L75
 772 000c 1B78     		ldrb	r3, [r3]
 773 000e 002B     		cmp	r3, #0
 774 0010 04D0     		beq	.L69
 732:..\..\..\..\..\..\Software\uCOS-III\Source/os_tmr.c ****        *p_err = OS_ERR_TMR_ISR;
 775              		.loc 1 732 0
 776 0012 3B68     		ldr	r3, [r7]
 777 0014 164A     		ldr	r2, .L75+4
 778 0016 1A80     		strh	r2, [r3]
 733:..\..\..\..\..\..\Software\uCOS-III\Source/os_tmr.c ****         return (OS_TMR_STATE_UNUSED);
 779              		.loc 1 733 0
 780 0018 0023     		movs	r3, #0
 781 001a 22E0     		b	.L70
 782              	.L69:
 734:..\..\..\..\..\..\Software\uCOS-III\Source/os_tmr.c ****     }
 735:..\..\..\..\..\..\Software\uCOS-III\Source/os_tmr.c **** #endif
 736:..\..\..\..\..\..\Software\uCOS-III\Source/os_tmr.c **** 
 737:..\..\..\..\..\..\Software\uCOS-III\Source/os_tmr.c **** #if (OS_CFG_INVALID_OS_CALLS_CHK_EN == DEF_ENABLED)             /* Is the kernel running?          
 738:..\..\..\..\..\..\Software\uCOS-III\Source/os_tmr.c ****     if (OSRunning != OS_STATE_OS_RUNNING) {
 739:..\..\..\..\..\..\Software\uCOS-III\Source/os_tmr.c ****        *p_err = OS_ERR_OS_NOT_RUNNING;
 740:..\..\..\..\..\..\Software\uCOS-III\Source/os_tmr.c ****         return (OS_TMR_STATE_UNUSED);
 741:..\..\..\..\..\..\Software\uCOS-III\Source/os_tmr.c ****     }
 742:..\..\..\..\..\..\Software\uCOS-III\Source/os_tmr.c **** #endif
 743:..\..\..\..\..\..\Software\uCOS-III\Source/os_tmr.c **** 
 744:..\..\..\..\..\..\Software\uCOS-III\Source/os_tmr.c **** #if (OS_CFG_ARG_CHK_EN == DEF_ENABLED)
 745:..\..\..\..\..\..\Software\uCOS-III\Source/os_tmr.c ****     if (p_tmr == DEF_NULL) {
 783              		.loc 1 745 0
 784 001c 7B68     		ldr	r3, [r7, #4]
 785 001e 002B     		cmp	r3, #0
 786 0020 04D1     		bne	.L71
 746:..\..\..\..\..\..\Software\uCOS-III\Source/os_tmr.c ****        *p_err = OS_ERR_TMR_INVALID;
 787              		.loc 1 746 0
 788 0022 3B68     		ldr	r3, [r7]
 789 0024 134A     		ldr	r2, .L75+8
ARM GAS  C:\Users\ADMINI~1\AppData\Local\Temp\ccofok6U.s 			page 28


 790 0026 1A80     		strh	r2, [r3]
 747:..\..\..\..\..\..\Software\uCOS-III\Source/os_tmr.c ****         return (OS_TMR_STATE_UNUSED);
 791              		.loc 1 747 0
 792 0028 0023     		movs	r3, #0
 793 002a 1AE0     		b	.L70
 794              	.L71:
 748:..\..\..\..\..\..\Software\uCOS-III\Source/os_tmr.c ****     }
 749:..\..\..\..\..\..\Software\uCOS-III\Source/os_tmr.c **** #endif
 750:..\..\..\..\..\..\Software\uCOS-III\Source/os_tmr.c **** 
 751:..\..\..\..\..\..\Software\uCOS-III\Source/os_tmr.c **** #if (OS_CFG_OBJ_TYPE_CHK_EN == DEF_ENABLED)
 752:..\..\..\..\..\..\Software\uCOS-III\Source/os_tmr.c ****     if (p_tmr->Type != OS_OBJ_TYPE_TMR) {                       /* Make sure timer was created     
 753:..\..\..\..\..\..\Software\uCOS-III\Source/os_tmr.c ****        *p_err = OS_ERR_OBJ_TYPE;
 754:..\..\..\..\..\..\Software\uCOS-III\Source/os_tmr.c ****         return (OS_TMR_STATE_UNUSED);
 755:..\..\..\..\..\..\Software\uCOS-III\Source/os_tmr.c ****     }
 756:..\..\..\..\..\..\Software\uCOS-III\Source/os_tmr.c **** #endif
 757:..\..\..\..\..\..\Software\uCOS-III\Source/os_tmr.c **** 
 758:..\..\..\..\..\..\Software\uCOS-III\Source/os_tmr.c ****     OS_TmrLock();
 795              		.loc 1 758 0
 796 002c FFF7FEFF 		bl	OS_TmrLock
 759:..\..\..\..\..\..\Software\uCOS-III\Source/os_tmr.c **** 
 760:..\..\..\..\..\..\Software\uCOS-III\Source/os_tmr.c ****     state = p_tmr->State;
 797              		.loc 1 760 0
 798 0030 0F23     		movs	r3, #15
 799 0032 FB18     		adds	r3, r7, r3
 800 0034 7A68     		ldr	r2, [r7, #4]
 801 0036 2621     		movs	r1, #38
 802 0038 525C     		ldrb	r2, [r2, r1]
 803 003a 1A70     		strb	r2, [r3]
 761:..\..\..\..\..\..\Software\uCOS-III\Source/os_tmr.c ****     switch (state) {
 804              		.loc 1 761 0
 805 003c 0F23     		movs	r3, #15
 806 003e FB18     		adds	r3, r7, r3
 807 0040 1B78     		ldrb	r3, [r3]
 808 0042 0033     		adds	r3, r3, #0
 809 0044 032B     		cmp	r3, #3
 810 0046 03D8     		bhi	.L72
 762:..\..\..\..\..\..\Software\uCOS-III\Source/os_tmr.c ****         case OS_TMR_STATE_UNUSED:
 763:..\..\..\..\..\..\Software\uCOS-III\Source/os_tmr.c ****         case OS_TMR_STATE_STOPPED:
 764:..\..\..\..\..\..\Software\uCOS-III\Source/os_tmr.c ****         case OS_TMR_STATE_COMPLETED:
 765:..\..\..\..\..\..\Software\uCOS-III\Source/os_tmr.c ****         case OS_TMR_STATE_RUNNING:
 766:..\..\..\..\..\..\Software\uCOS-III\Source/os_tmr.c ****             *p_err = OS_ERR_NONE;
 811              		.loc 1 766 0
 812 0048 3B68     		ldr	r3, [r7]
 813 004a 0022     		movs	r2, #0
 814 004c 1A80     		strh	r2, [r3]
 767:..\..\..\..\..\..\Software\uCOS-III\Source/os_tmr.c ****              break;
 815              		.loc 1 767 0
 816 004e 03E0     		b	.L74
 817              	.L72:
 768:..\..\..\..\..\..\Software\uCOS-III\Source/os_tmr.c **** 
 769:..\..\..\..\..\..\Software\uCOS-III\Source/os_tmr.c ****         default:
 770:..\..\..\..\..\..\Software\uCOS-III\Source/os_tmr.c ****             *p_err = OS_ERR_TMR_INVALID_STATE;
 818              		.loc 1 770 0
 819 0050 3B68     		ldr	r3, [r7]
 820 0052 094A     		ldr	r2, .L75+12
 821 0054 1A80     		strh	r2, [r3]
 771:..\..\..\..\..\..\Software\uCOS-III\Source/os_tmr.c ****              break;
ARM GAS  C:\Users\ADMINI~1\AppData\Local\Temp\ccofok6U.s 			page 29


 822              		.loc 1 771 0
 823 0056 C046     		nop
 824              	.L74:
 772:..\..\..\..\..\..\Software\uCOS-III\Source/os_tmr.c ****     }
 773:..\..\..\..\..\..\Software\uCOS-III\Source/os_tmr.c **** 
 774:..\..\..\..\..\..\Software\uCOS-III\Source/os_tmr.c ****     OS_TmrUnlock();
 825              		.loc 1 774 0
 826 0058 FFF7FEFF 		bl	OS_TmrUnlock
 775:..\..\..\..\..\..\Software\uCOS-III\Source/os_tmr.c **** 
 776:..\..\..\..\..\..\Software\uCOS-III\Source/os_tmr.c ****     return (state);
 827              		.loc 1 776 0
 828 005c 0F23     		movs	r3, #15
 829 005e FB18     		adds	r3, r7, r3
 830 0060 1B78     		ldrb	r3, [r3]
 831              	.L70:
 777:..\..\..\..\..\..\Software\uCOS-III\Source/os_tmr.c **** }
 832              		.loc 1 777 0
 833 0062 1800     		movs	r0, r3
 834 0064 BD46     		mov	sp, r7
 835 0066 04B0     		add	sp, sp, #16
 836              		@ sp needed
 837 0068 80BD     		pop	{r7, pc}
 838              	.L76:
 839 006a C046     		.align	2
 840              	.L75:
 841 006c 00000000 		.word	OSIntNestingCtr
 842 0070 43730000 		.word	29507
 843 0074 42730000 		.word	29506
 844 0078 41730000 		.word	29505
 845              		.cfi_endproc
 846              	.LFE4:
 847              		.size	OSTmrStateGet, .-OSTmrStateGet
 848              		.section	.text.OSTmrStop,"ax",%progbits
 849              		.align	2
 850              		.global	OSTmrStop
 851              		.code	16
 852              		.thumb_func
 853              		.type	OSTmrStop, %function
 854              	OSTmrStop:
 855              	.LFB5:
 778:..\..\..\..\..\..\Software\uCOS-III\Source/os_tmr.c **** 
 779:..\..\..\..\..\..\Software\uCOS-III\Source/os_tmr.c **** 
 780:..\..\..\..\..\..\Software\uCOS-III\Source/os_tmr.c **** /*
 781:..\..\..\..\..\..\Software\uCOS-III\Source/os_tmr.c **** ***************************************************************************************************
 782:..\..\..\..\..\..\Software\uCOS-III\Source/os_tmr.c **** *                                                    STOP A TIMER
 783:..\..\..\..\..\..\Software\uCOS-III\Source/os_tmr.c **** *
 784:..\..\..\..\..\..\Software\uCOS-III\Source/os_tmr.c **** * Description: This function is called by your application code to stop a timer.
 785:..\..\..\..\..\..\Software\uCOS-III\Source/os_tmr.c **** *
 786:..\..\..\..\..\..\Software\uCOS-III\Source/os_tmr.c **** * Arguments  : p_tmr          Is a pointer to the timer to stop.
 787:..\..\..\..\..\..\Software\uCOS-III\Source/os_tmr.c **** *
 788:..\..\..\..\..\..\Software\uCOS-III\Source/os_tmr.c **** *              opt            Allows you to specify an option to this functions which can be:
 789:..\..\..\..\..\..\Software\uCOS-III\Source/os_tmr.c **** *
 790:..\..\..\..\..\..\Software\uCOS-III\Source/os_tmr.c **** *                               OS_OPT_TMR_NONE            Do nothing special but stop the timer
 791:..\..\..\..\..\..\Software\uCOS-III\Source/os_tmr.c **** *                               OS_OPT_TMR_CALLBACK        Execute the callback function, pass it t
 792:..\..\..\..\..\..\Software\uCOS-III\Source/os_tmr.c **** *                                                          specified when the timer was created.
 793:..\..\..\..\..\..\Software\uCOS-III\Source/os_tmr.c **** *                               OS_OPT_TMR_CALLBACK_ARG    Execute the callback function, pass it t
 794:..\..\..\..\..\..\Software\uCOS-III\Source/os_tmr.c **** *                                                          specified in THIS function call
ARM GAS  C:\Users\ADMINI~1\AppData\Local\Temp\ccofok6U.s 			page 30


 795:..\..\..\..\..\..\Software\uCOS-III\Source/os_tmr.c **** *
 796:..\..\..\..\..\..\Software\uCOS-III\Source/os_tmr.c **** *              callback_arg   Is a pointer to a 'new' callback argument that can be passed to the c
 797:..\..\..\..\..\..\Software\uCOS-III\Source/os_tmr.c **** *                               instead of the timer's callback argument.  In other words, use 'cal
 798:..\..\..\..\..\..\Software\uCOS-III\Source/os_tmr.c **** *                               THIS function INSTEAD of p_tmr->OSTmrCallbackArg
 799:..\..\..\..\..\..\Software\uCOS-III\Source/os_tmr.c **** *
 800:..\..\..\..\..\..\Software\uCOS-III\Source/os_tmr.c **** *              p_err          Is a pointer to an error code.  '*p_err' will contain one of the foll
 801:..\..\..\..\..\..\Software\uCOS-III\Source/os_tmr.c **** *
 802:..\..\..\..\..\..\Software\uCOS-III\Source/os_tmr.c **** *                               OS_ERR_NONE                The timer has stopped
 803:..\..\..\..\..\..\Software\uCOS-III\Source/os_tmr.c **** *                               OS_ERR_OBJ_TYPE            If 'p_tmr' is not pointing to a timer
 804:..\..\..\..\..\..\Software\uCOS-III\Source/os_tmr.c **** *                               OS_ERR_OPT_INVALID         If you specified an invalid option for '
 805:..\..\..\..\..\..\Software\uCOS-III\Source/os_tmr.c **** *                               OS_ERR_OS_NOT_RUNNING      If uC/OS-III is not running yet
 806:..\..\..\..\..\..\Software\uCOS-III\Source/os_tmr.c **** *                               OS_ERR_TMR_INACTIVE        If the timer was not created
 807:..\..\..\..\..\..\Software\uCOS-III\Source/os_tmr.c **** *                               OS_ERR_TMR_INVALID         If 'p_tmr' is a NULL pointer
 808:..\..\..\..\..\..\Software\uCOS-III\Source/os_tmr.c **** *                               OS_ERR_TMR_INVALID_STATE   The timer is in an invalid state
 809:..\..\..\..\..\..\Software\uCOS-III\Source/os_tmr.c **** *                               OS_ERR_TMR_ISR             If the function was called from an ISR
 810:..\..\..\..\..\..\Software\uCOS-III\Source/os_tmr.c **** *                               OS_ERR_TMR_NO_CALLBACK     If the timer does not have a callback fu
 811:..\..\..\..\..\..\Software\uCOS-III\Source/os_tmr.c **** *                               OS_ERR_TMR_STOPPED         If the timer was already stopped
 812:..\..\..\..\..\..\Software\uCOS-III\Source/os_tmr.c **** *
 813:..\..\..\..\..\..\Software\uCOS-III\Source/os_tmr.c **** * Returns    : DEF_TRUE       If we stopped the timer (if the timer is already stopped, we also ret
 814:..\..\..\..\..\..\Software\uCOS-III\Source/os_tmr.c **** *              DEF_FALSE      If not
 815:..\..\..\..\..\..\Software\uCOS-III\Source/os_tmr.c **** *
 816:..\..\..\..\..\..\Software\uCOS-III\Source/os_tmr.c **** * Note(s)    : none
 817:..\..\..\..\..\..\Software\uCOS-III\Source/os_tmr.c **** ***************************************************************************************************
 818:..\..\..\..\..\..\Software\uCOS-III\Source/os_tmr.c **** */
 819:..\..\..\..\..\..\Software\uCOS-III\Source/os_tmr.c **** 
 820:..\..\..\..\..\..\Software\uCOS-III\Source/os_tmr.c **** CPU_BOOLEAN  OSTmrStop (OS_TMR  *p_tmr,
 821:..\..\..\..\..\..\Software\uCOS-III\Source/os_tmr.c ****                         OS_OPT   opt,
 822:..\..\..\..\..\..\Software\uCOS-III\Source/os_tmr.c ****                         void    *p_callback_arg,
 823:..\..\..\..\..\..\Software\uCOS-III\Source/os_tmr.c ****                         OS_ERR  *p_err)
 824:..\..\..\..\..\..\Software\uCOS-III\Source/os_tmr.c **** {
 856              		.loc 1 824 0
 857              		.cfi_startproc
 858              		@ args = 0, pretend = 0, frame = 24
 859              		@ frame_needed = 1, uses_anonymous_args = 0
 860 0000 80B5     		push	{r7, lr}
 861              		.cfi_def_cfa_offset 8
 862              		.cfi_offset 7, -8
 863              		.cfi_offset 14, -4
 864 0002 86B0     		sub	sp, sp, #24
 865              		.cfi_def_cfa_offset 32
 866 0004 00AF     		add	r7, sp, #0
 867              		.cfi_def_cfa_register 7
 868 0006 F860     		str	r0, [r7, #12]
 869 0008 7A60     		str	r2, [r7, #4]
 870 000a 3B60     		str	r3, [r7]
 871 000c 0A23     		movs	r3, #10
 872 000e FB18     		adds	r3, r7, r3
 873 0010 0A1C     		adds	r2, r1, #0
 874 0012 1A80     		strh	r2, [r3]
 825:..\..\..\..\..\..\Software\uCOS-III\Source/os_tmr.c ****     OS_TMR_CALLBACK_PTR  p_fnct;
 826:..\..\..\..\..\..\Software\uCOS-III\Source/os_tmr.c ****     CPU_BOOLEAN          success;
 827:..\..\..\..\..\..\Software\uCOS-III\Source/os_tmr.c **** 
 828:..\..\..\..\..\..\Software\uCOS-III\Source/os_tmr.c **** 
 829:..\..\..\..\..\..\Software\uCOS-III\Source/os_tmr.c **** 
 830:..\..\..\..\..\..\Software\uCOS-III\Source/os_tmr.c **** #ifdef OS_SAFETY_CRITICAL
 831:..\..\..\..\..\..\Software\uCOS-III\Source/os_tmr.c ****     if (p_err == DEF_NULL) {
 832:..\..\..\..\..\..\Software\uCOS-III\Source/os_tmr.c ****         OS_SAFETY_CRITICAL_EXCEPTION();
ARM GAS  C:\Users\ADMINI~1\AppData\Local\Temp\ccofok6U.s 			page 31


 833:..\..\..\..\..\..\Software\uCOS-III\Source/os_tmr.c ****         return (DEF_FALSE);
 834:..\..\..\..\..\..\Software\uCOS-III\Source/os_tmr.c ****     }
 835:..\..\..\..\..\..\Software\uCOS-III\Source/os_tmr.c **** #endif
 836:..\..\..\..\..\..\Software\uCOS-III\Source/os_tmr.c **** 
 837:..\..\..\..\..\..\Software\uCOS-III\Source/os_tmr.c **** #if (OS_CFG_CALLED_FROM_ISR_CHK_EN == DEF_ENABLED)
 838:..\..\..\..\..\..\Software\uCOS-III\Source/os_tmr.c ****     if (OSIntNestingCtr > 0u) {                                 /* See if trying to call from an IS
 875              		.loc 1 838 0
 876 0014 444B     		ldr	r3, .L97
 877 0016 1B78     		ldrb	r3, [r3]
 878 0018 002B     		cmp	r3, #0
 879 001a 04D0     		beq	.L78
 839:..\..\..\..\..\..\Software\uCOS-III\Source/os_tmr.c ****        *p_err = OS_ERR_TMR_ISR;
 880              		.loc 1 839 0
 881 001c 3B68     		ldr	r3, [r7]
 882 001e 434A     		ldr	r2, .L97+4
 883 0020 1A80     		strh	r2, [r3]
 840:..\..\..\..\..\..\Software\uCOS-III\Source/os_tmr.c ****         return (DEF_FALSE);
 884              		.loc 1 840 0
 885 0022 0023     		movs	r3, #0
 886 0024 7BE0     		b	.L79
 887              	.L78:
 841:..\..\..\..\..\..\Software\uCOS-III\Source/os_tmr.c ****     }
 842:..\..\..\..\..\..\Software\uCOS-III\Source/os_tmr.c **** #endif
 843:..\..\..\..\..\..\Software\uCOS-III\Source/os_tmr.c **** 
 844:..\..\..\..\..\..\Software\uCOS-III\Source/os_tmr.c **** #if (OS_CFG_INVALID_OS_CALLS_CHK_EN == DEF_ENABLED)             /* Is the kernel running?          
 845:..\..\..\..\..\..\Software\uCOS-III\Source/os_tmr.c ****     if (OSRunning != OS_STATE_OS_RUNNING) {
 846:..\..\..\..\..\..\Software\uCOS-III\Source/os_tmr.c ****        *p_err = OS_ERR_OS_NOT_RUNNING;
 847:..\..\..\..\..\..\Software\uCOS-III\Source/os_tmr.c ****         return (DEF_FALSE);
 848:..\..\..\..\..\..\Software\uCOS-III\Source/os_tmr.c ****     }
 849:..\..\..\..\..\..\Software\uCOS-III\Source/os_tmr.c **** #endif
 850:..\..\..\..\..\..\Software\uCOS-III\Source/os_tmr.c **** 
 851:..\..\..\..\..\..\Software\uCOS-III\Source/os_tmr.c **** #if (OS_CFG_ARG_CHK_EN == DEF_ENABLED)
 852:..\..\..\..\..\..\Software\uCOS-III\Source/os_tmr.c ****     if (p_tmr == DEF_NULL) {
 888              		.loc 1 852 0
 889 0026 FB68     		ldr	r3, [r7, #12]
 890 0028 002B     		cmp	r3, #0
 891 002a 04D1     		bne	.L80
 853:..\..\..\..\..\..\Software\uCOS-III\Source/os_tmr.c ****        *p_err = OS_ERR_TMR_INVALID;
 892              		.loc 1 853 0
 893 002c 3B68     		ldr	r3, [r7]
 894 002e 404A     		ldr	r2, .L97+8
 895 0030 1A80     		strh	r2, [r3]
 854:..\..\..\..\..\..\Software\uCOS-III\Source/os_tmr.c ****         return (DEF_FALSE);
 896              		.loc 1 854 0
 897 0032 0023     		movs	r3, #0
 898 0034 73E0     		b	.L79
 899              	.L80:
 855:..\..\..\..\..\..\Software\uCOS-III\Source/os_tmr.c ****     }
 856:..\..\..\..\..\..\Software\uCOS-III\Source/os_tmr.c **** #endif
 857:..\..\..\..\..\..\Software\uCOS-III\Source/os_tmr.c **** 
 858:..\..\..\..\..\..\Software\uCOS-III\Source/os_tmr.c **** #if (OS_CFG_OBJ_TYPE_CHK_EN == DEF_ENABLED)
 859:..\..\..\..\..\..\Software\uCOS-III\Source/os_tmr.c ****     if (p_tmr->Type != OS_OBJ_TYPE_TMR) {                       /* Make sure timer was created     
 860:..\..\..\..\..\..\Software\uCOS-III\Source/os_tmr.c ****        *p_err = OS_ERR_OBJ_TYPE;
 861:..\..\..\..\..\..\Software\uCOS-III\Source/os_tmr.c ****         return (DEF_FALSE);
 862:..\..\..\..\..\..\Software\uCOS-III\Source/os_tmr.c ****     }
 863:..\..\..\..\..\..\Software\uCOS-III\Source/os_tmr.c **** #endif
 864:..\..\..\..\..\..\Software\uCOS-III\Source/os_tmr.c **** 
ARM GAS  C:\Users\ADMINI~1\AppData\Local\Temp\ccofok6U.s 			page 32


 865:..\..\..\..\..\..\Software\uCOS-III\Source/os_tmr.c ****     OS_TmrLock();
 900              		.loc 1 865 0
 901 0036 FFF7FEFF 		bl	OS_TmrLock
 866:..\..\..\..\..\..\Software\uCOS-III\Source/os_tmr.c **** 
 867:..\..\..\..\..\..\Software\uCOS-III\Source/os_tmr.c ****     switch (p_tmr->State) {
 902              		.loc 1 867 0
 903 003a FB68     		ldr	r3, [r7, #12]
 904 003c 2622     		movs	r2, #38
 905 003e 9B5C     		ldrb	r3, [r3, r2]
 906 0040 012B     		cmp	r3, #1
 907 0042 4FD0     		beq	.L82
 908 0044 02DC     		bgt	.L83
 909 0046 002B     		cmp	r3, #0
 910 0048 54D0     		beq	.L84
 911 004a 5BE0     		b	.L81
 912              	.L83:
 913 004c 022B     		cmp	r3, #2
 914 004e 02D0     		beq	.L85
 915 0050 032B     		cmp	r3, #3
 916 0052 47D0     		beq	.L82
 917 0054 56E0     		b	.L81
 918              	.L85:
 868:..\..\..\..\..\..\Software\uCOS-III\Source/os_tmr.c ****         case OS_TMR_STATE_RUNNING:
 869:..\..\..\..\..\..\Software\uCOS-III\Source/os_tmr.c ****             *p_err = OS_ERR_NONE;
 919              		.loc 1 869 0
 920 0056 3B68     		ldr	r3, [r7]
 921 0058 0022     		movs	r2, #0
 922 005a 1A80     		strh	r2, [r3]
 870:..\..\..\..\..\..\Software\uCOS-III\Source/os_tmr.c ****              switch (opt) {
 923              		.loc 1 870 0
 924 005c 0A23     		movs	r3, #10
 925 005e FB18     		adds	r3, r7, r3
 926 0060 1B88     		ldrh	r3, [r3]
 927 0062 032B     		cmp	r3, #3
 928 0064 04D0     		beq	.L87
 929 0066 042B     		cmp	r3, #4
 930 0068 17D0     		beq	.L88
 931 006a 002B     		cmp	r3, #0
 932 006c 29D0     		beq	.L89
 933 006e 2DE0     		b	.L96
 934              	.L87:
 871:..\..\..\..\..\..\Software\uCOS-III\Source/os_tmr.c ****                  case OS_OPT_TMR_CALLBACK:
 872:..\..\..\..\..\..\Software\uCOS-III\Source/os_tmr.c ****                       OS_TmrUnlink(p_tmr);                      /* Remove from timer list          
 935              		.loc 1 872 0
 936 0070 FB68     		ldr	r3, [r7, #12]
 937 0072 1800     		movs	r0, r3
 938 0074 FFF7FEFF 		bl	OS_TmrUnlink
 873:..\..\..\..\..\..\Software\uCOS-III\Source/os_tmr.c ****                       p_fnct = p_tmr->CallbackPtr;              /* Execute callback function ...   
 939              		.loc 1 873 0
 940 0078 FB68     		ldr	r3, [r7, #12]
 941 007a 9B68     		ldr	r3, [r3, #8]
 942 007c 3B61     		str	r3, [r7, #16]
 874:..\..\..\..\..\..\Software\uCOS-III\Source/os_tmr.c ****                       if (p_fnct != DEF_NULL) {                 /* ... if available                
 943              		.loc 1 874 0
 944 007e 3B69     		ldr	r3, [r7, #16]
 945 0080 002B     		cmp	r3, #0
 946 0082 06D0     		beq	.L90
ARM GAS  C:\Users\ADMINI~1\AppData\Local\Temp\ccofok6U.s 			page 33


 875:..\..\..\..\..\..\Software\uCOS-III\Source/os_tmr.c ****                         (*p_fnct)((void *)p_tmr, p_tmr->CallbackPtrArg); /* Use callback arg when t
 947              		.loc 1 875 0
 948 0084 FB68     		ldr	r3, [r7, #12]
 949 0086 D968     		ldr	r1, [r3, #12]
 950 0088 FA68     		ldr	r2, [r7, #12]
 951 008a 3B69     		ldr	r3, [r7, #16]
 952 008c 1000     		movs	r0, r2
 953 008e 9847     		blx	r3
 876:..\..\..\..\..\..\Software\uCOS-III\Source/os_tmr.c ****                       } else {
 877:..\..\..\..\..\..\Software\uCOS-III\Source/os_tmr.c ****                          *p_err = OS_ERR_TMR_NO_CALLBACK;
 878:..\..\..\..\..\..\Software\uCOS-III\Source/os_tmr.c ****                       }
 879:..\..\..\..\..\..\Software\uCOS-III\Source/os_tmr.c ****                       break;
 954              		.loc 1 879 0
 955 0090 23E0     		b	.L92
 956              	.L90:
 877:..\..\..\..\..\..\Software\uCOS-III\Source/os_tmr.c ****                       }
 957              		.loc 1 877 0
 958 0092 3B68     		ldr	r3, [r7]
 959 0094 274A     		ldr	r2, .L97+12
 960 0096 1A80     		strh	r2, [r3]
 961              		.loc 1 879 0
 962 0098 1FE0     		b	.L92
 963              	.L88:
 880:..\..\..\..\..\..\Software\uCOS-III\Source/os_tmr.c **** 
 881:..\..\..\..\..\..\Software\uCOS-III\Source/os_tmr.c ****                  case OS_OPT_TMR_CALLBACK_ARG:
 882:..\..\..\..\..\..\Software\uCOS-III\Source/os_tmr.c ****                       OS_TmrUnlink(p_tmr);                      /* Remove from timer list          
 964              		.loc 1 882 0
 965 009a FB68     		ldr	r3, [r7, #12]
 966 009c 1800     		movs	r0, r3
 967 009e FFF7FEFF 		bl	OS_TmrUnlink
 883:..\..\..\..\..\..\Software\uCOS-III\Source/os_tmr.c ****                       p_fnct = p_tmr->CallbackPtr;              /* Execute callback function if ava
 968              		.loc 1 883 0
 969 00a2 FB68     		ldr	r3, [r7, #12]
 970 00a4 9B68     		ldr	r3, [r3, #8]
 971 00a6 3B61     		str	r3, [r7, #16]
 884:..\..\..\..\..\..\Software\uCOS-III\Source/os_tmr.c ****                       if (p_fnct != DEF_NULL) {
 972              		.loc 1 884 0
 973 00a8 3B69     		ldr	r3, [r7, #16]
 974 00aa 002B     		cmp	r3, #0
 975 00ac 05D0     		beq	.L93
 885:..\..\..\..\..\..\Software\uCOS-III\Source/os_tmr.c ****                         (*p_fnct)((void *)p_tmr, p_callback_arg); /* .. using the 'callback_arg' pr
 976              		.loc 1 885 0
 977 00ae 7968     		ldr	r1, [r7, #4]
 978 00b0 FA68     		ldr	r2, [r7, #12]
 979 00b2 3B69     		ldr	r3, [r7, #16]
 980 00b4 1000     		movs	r0, r2
 981 00b6 9847     		blx	r3
 886:..\..\..\..\..\..\Software\uCOS-III\Source/os_tmr.c ****                       } else {
 887:..\..\..\..\..\..\Software\uCOS-III\Source/os_tmr.c ****                          *p_err = OS_ERR_TMR_NO_CALLBACK;
 888:..\..\..\..\..\..\Software\uCOS-III\Source/os_tmr.c ****                       }
 889:..\..\..\..\..\..\Software\uCOS-III\Source/os_tmr.c ****                       break;
 982              		.loc 1 889 0
 983 00b8 0FE0     		b	.L92
 984              	.L93:
 887:..\..\..\..\..\..\Software\uCOS-III\Source/os_tmr.c ****                       }
 985              		.loc 1 887 0
 986 00ba 3B68     		ldr	r3, [r7]
ARM GAS  C:\Users\ADMINI~1\AppData\Local\Temp\ccofok6U.s 			page 34


 987 00bc 1D4A     		ldr	r2, .L97+12
 988 00be 1A80     		strh	r2, [r3]
 989              		.loc 1 889 0
 990 00c0 0BE0     		b	.L92
 991              	.L89:
 890:..\..\..\..\..\..\Software\uCOS-III\Source/os_tmr.c **** 
 891:..\..\..\..\..\..\Software\uCOS-III\Source/os_tmr.c ****                  case OS_OPT_TMR_NONE:
 892:..\..\..\..\..\..\Software\uCOS-III\Source/os_tmr.c ****                       OS_TmrUnlink(p_tmr);                      /* Remove from timer list          
 992              		.loc 1 892 0
 993 00c2 FB68     		ldr	r3, [r7, #12]
 994 00c4 1800     		movs	r0, r3
 995 00c6 FFF7FEFF 		bl	OS_TmrUnlink
 893:..\..\..\..\..\..\Software\uCOS-III\Source/os_tmr.c ****                       break;
 996              		.loc 1 893 0
 997 00ca 06E0     		b	.L92
 998              	.L96:
 894:..\..\..\..\..\..\Software\uCOS-III\Source/os_tmr.c **** 
 895:..\..\..\..\..\..\Software\uCOS-III\Source/os_tmr.c ****                  default:
 896:..\..\..\..\..\..\Software\uCOS-III\Source/os_tmr.c ****                      OS_TmrUnlock();
 999              		.loc 1 896 0
 1000 00cc FFF7FEFF 		bl	OS_TmrUnlock
 897:..\..\..\..\..\..\Software\uCOS-III\Source/os_tmr.c ****                     *p_err = OS_ERR_OPT_INVALID;
 1001              		.loc 1 897 0
 1002 00d0 3B68     		ldr	r3, [r7]
 1003 00d2 194A     		ldr	r2, .L97+16
 1004 00d4 1A80     		strh	r2, [r3]
 898:..\..\..\..\..\..\Software\uCOS-III\Source/os_tmr.c ****                      return (DEF_FALSE);
 1005              		.loc 1 898 0
 1006 00d6 0023     		movs	r3, #0
 1007 00d8 21E0     		b	.L79
 1008              	.L92:
 899:..\..\..\..\..\..\Software\uCOS-III\Source/os_tmr.c ****              }
 900:..\..\..\..\..\..\Software\uCOS-III\Source/os_tmr.c ****              success = DEF_TRUE;
 1009              		.loc 1 900 0
 1010 00da 1723     		movs	r3, #23
 1011 00dc FB18     		adds	r3, r7, r3
 1012 00de 0122     		movs	r2, #1
 1013 00e0 1A70     		strb	r2, [r3]
 901:..\..\..\..\..\..\Software\uCOS-III\Source/os_tmr.c ****              break;
 1014              		.loc 1 901 0
 1015 00e2 17E0     		b	.L95
 1016              	.L82:
 902:..\..\..\..\..\..\Software\uCOS-III\Source/os_tmr.c **** 
 903:..\..\..\..\..\..\Software\uCOS-III\Source/os_tmr.c ****         case OS_TMR_STATE_COMPLETED:                            /* Timer has already completed the 
 904:..\..\..\..\..\..\Software\uCOS-III\Source/os_tmr.c ****         case OS_TMR_STATE_STOPPED:                              /* ... timer has not started yet.  
 905:..\..\..\..\..\..\Software\uCOS-III\Source/os_tmr.c ****             *p_err   = OS_ERR_TMR_STOPPED;
 1017              		.loc 1 905 0
 1018 00e4 3B68     		ldr	r3, [r7]
 1019 00e6 154A     		ldr	r2, .L97+20
 1020 00e8 1A80     		strh	r2, [r3]
 906:..\..\..\..\..\..\Software\uCOS-III\Source/os_tmr.c ****              success = DEF_TRUE;
 1021              		.loc 1 906 0
 1022 00ea 1723     		movs	r3, #23
 1023 00ec FB18     		adds	r3, r7, r3
 1024 00ee 0122     		movs	r2, #1
 1025 00f0 1A70     		strb	r2, [r3]
 907:..\..\..\..\..\..\Software\uCOS-III\Source/os_tmr.c ****              break;
ARM GAS  C:\Users\ADMINI~1\AppData\Local\Temp\ccofok6U.s 			page 35


 1026              		.loc 1 907 0
 1027 00f2 0FE0     		b	.L95
 1028              	.L84:
 908:..\..\..\..\..\..\Software\uCOS-III\Source/os_tmr.c **** 
 909:..\..\..\..\..\..\Software\uCOS-III\Source/os_tmr.c ****         case OS_TMR_STATE_UNUSED:                               /* Timer was not created           
 910:..\..\..\..\..\..\Software\uCOS-III\Source/os_tmr.c ****             *p_err   = OS_ERR_TMR_INACTIVE;
 1029              		.loc 1 910 0
 1030 00f4 3B68     		ldr	r3, [r7]
 1031 00f6 124A     		ldr	r2, .L97+24
 1032 00f8 1A80     		strh	r2, [r3]
 911:..\..\..\..\..\..\Software\uCOS-III\Source/os_tmr.c ****              success = DEF_FALSE;
 1033              		.loc 1 911 0
 1034 00fa 1723     		movs	r3, #23
 1035 00fc FB18     		adds	r3, r7, r3
 1036 00fe 0022     		movs	r2, #0
 1037 0100 1A70     		strb	r2, [r3]
 912:..\..\..\..\..\..\Software\uCOS-III\Source/os_tmr.c ****              break;
 1038              		.loc 1 912 0
 1039 0102 07E0     		b	.L95
 1040              	.L81:
 913:..\..\..\..\..\..\Software\uCOS-III\Source/os_tmr.c **** 
 914:..\..\..\..\..\..\Software\uCOS-III\Source/os_tmr.c ****         default:
 915:..\..\..\..\..\..\Software\uCOS-III\Source/os_tmr.c ****             *p_err   = OS_ERR_TMR_INVALID_STATE;
 1041              		.loc 1 915 0
 1042 0104 3B68     		ldr	r3, [r7]
 1043 0106 0F4A     		ldr	r2, .L97+28
 1044 0108 1A80     		strh	r2, [r3]
 916:..\..\..\..\..\..\Software\uCOS-III\Source/os_tmr.c ****              success = DEF_FALSE;
 1045              		.loc 1 916 0
 1046 010a 1723     		movs	r3, #23
 1047 010c FB18     		adds	r3, r7, r3
 1048 010e 0022     		movs	r2, #0
 1049 0110 1A70     		strb	r2, [r3]
 917:..\..\..\..\..\..\Software\uCOS-III\Source/os_tmr.c ****              break;
 1050              		.loc 1 917 0
 1051 0112 C046     		nop
 1052              	.L95:
 918:..\..\..\..\..\..\Software\uCOS-III\Source/os_tmr.c ****     }
 919:..\..\..\..\..\..\Software\uCOS-III\Source/os_tmr.c **** 
 920:..\..\..\..\..\..\Software\uCOS-III\Source/os_tmr.c ****     OS_TmrUnlock();
 1053              		.loc 1 920 0
 1054 0114 FFF7FEFF 		bl	OS_TmrUnlock
 921:..\..\..\..\..\..\Software\uCOS-III\Source/os_tmr.c **** 
 922:..\..\..\..\..\..\Software\uCOS-III\Source/os_tmr.c ****     return (success);
 1055              		.loc 1 922 0
 1056 0118 1723     		movs	r3, #23
 1057 011a FB18     		adds	r3, r7, r3
 1058 011c 1B78     		ldrb	r3, [r3]
 1059              	.L79:
 923:..\..\..\..\..\..\Software\uCOS-III\Source/os_tmr.c **** }
 1060              		.loc 1 923 0
 1061 011e 1800     		movs	r0, r3
 1062 0120 BD46     		mov	sp, r7
 1063 0122 06B0     		add	sp, sp, #24
 1064              		@ sp needed
 1065 0124 80BD     		pop	{r7, pc}
 1066              	.L98:
ARM GAS  C:\Users\ADMINI~1\AppData\Local\Temp\ccofok6U.s 			page 36


 1067 0126 C046     		.align	2
 1068              	.L97:
 1069 0128 00000000 		.word	OSIntNestingCtr
 1070 012c 43730000 		.word	29507
 1071 0130 42730000 		.word	29506
 1072 0134 44730000 		.word	29508
 1073 0138 255E0000 		.word	24101
 1074 013c 49730000 		.word	29513
 1075 0140 3D730000 		.word	29501
 1076 0144 41730000 		.word	29505
 1077              		.cfi_endproc
 1078              	.LFE5:
 1079              		.size	OSTmrStop, .-OSTmrStop
 1080              		.section	.rodata
 1081              		.align	2
 1082              	.LC10:
 1083 0000 3F544D52 		.ascii	"?TMR\000"
 1083      00
 1084              		.section	.text.OS_TmrClr,"ax",%progbits
 1085              		.align	2
 1086              		.global	OS_TmrClr
 1087              		.code	16
 1088              		.thumb_func
 1089              		.type	OS_TmrClr, %function
 1090              	OS_TmrClr:
 1091              	.LFB6:
 924:..\..\..\..\..\..\Software\uCOS-III\Source/os_tmr.c **** 
 925:..\..\..\..\..\..\Software\uCOS-III\Source/os_tmr.c **** 
 926:..\..\..\..\..\..\Software\uCOS-III\Source/os_tmr.c **** /*
 927:..\..\..\..\..\..\Software\uCOS-III\Source/os_tmr.c **** ***************************************************************************************************
 928:..\..\..\..\..\..\Software\uCOS-III\Source/os_tmr.c **** *                                                 CLEAR TIMER FIELDS
 929:..\..\..\..\..\..\Software\uCOS-III\Source/os_tmr.c **** *
 930:..\..\..\..\..\..\Software\uCOS-III\Source/os_tmr.c **** * Description: This function is called to clear all timer fields.
 931:..\..\..\..\..\..\Software\uCOS-III\Source/os_tmr.c **** *
 932:..\..\..\..\..\..\Software\uCOS-III\Source/os_tmr.c **** * Argument(s): p_tmr    Is a pointer to the timer to clear
 933:..\..\..\..\..\..\Software\uCOS-III\Source/os_tmr.c **** *              -----
 934:..\..\..\..\..\..\Software\uCOS-III\Source/os_tmr.c **** *
 935:..\..\..\..\..\..\Software\uCOS-III\Source/os_tmr.c **** * Returns    : none
 936:..\..\..\..\..\..\Software\uCOS-III\Source/os_tmr.c **** *
 937:..\..\..\..\..\..\Software\uCOS-III\Source/os_tmr.c **** * Note(s)    : 1) This function is INTERNAL to uC/OS-III and your application MUST NOT call it.
 938:..\..\..\..\..\..\Software\uCOS-III\Source/os_tmr.c **** ***************************************************************************************************
 939:..\..\..\..\..\..\Software\uCOS-III\Source/os_tmr.c **** */
 940:..\..\..\..\..\..\Software\uCOS-III\Source/os_tmr.c **** 
 941:..\..\..\..\..\..\Software\uCOS-III\Source/os_tmr.c **** void  OS_TmrClr (OS_TMR  *p_tmr)
 942:..\..\..\..\..\..\Software\uCOS-III\Source/os_tmr.c **** {
 1092              		.loc 1 942 0
 1093              		.cfi_startproc
 1094              		@ args = 0, pretend = 0, frame = 8
 1095              		@ frame_needed = 1, uses_anonymous_args = 0
 1096 0000 80B5     		push	{r7, lr}
 1097              		.cfi_def_cfa_offset 8
 1098              		.cfi_offset 7, -8
 1099              		.cfi_offset 14, -4
 1100 0002 82B0     		sub	sp, sp, #8
 1101              		.cfi_def_cfa_offset 16
 1102 0004 00AF     		add	r7, sp, #0
 1103              		.cfi_def_cfa_register 7
ARM GAS  C:\Users\ADMINI~1\AppData\Local\Temp\ccofok6U.s 			page 37


 1104 0006 7860     		str	r0, [r7, #4]
 943:..\..\..\..\..\..\Software\uCOS-III\Source/os_tmr.c ****     p_tmr->State          = OS_TMR_STATE_UNUSED;                /* Clear timer fields              
 1105              		.loc 1 943 0
 1106 0008 7B68     		ldr	r3, [r7, #4]
 1107 000a 2622     		movs	r2, #38
 1108 000c 0021     		movs	r1, #0
 1109 000e 9954     		strb	r1, [r3, r2]
 944:..\..\..\..\..\..\Software\uCOS-III\Source/os_tmr.c **** #if (OS_OBJ_TYPE_REQ == DEF_ENABLED)
 945:..\..\..\..\..\..\Software\uCOS-III\Source/os_tmr.c ****     p_tmr->Type           = OS_OBJ_TYPE_NONE;
 1110              		.loc 1 945 0
 1111 0010 7B68     		ldr	r3, [r7, #4]
 1112 0012 104A     		ldr	r2, .L100
 1113 0014 1A60     		str	r2, [r3]
 946:..\..\..\..\..\..\Software\uCOS-III\Source/os_tmr.c **** #endif
 947:..\..\..\..\..\..\Software\uCOS-III\Source/os_tmr.c **** #if (OS_CFG_DBG_EN == DEF_ENABLED)
 948:..\..\..\..\..\..\Software\uCOS-III\Source/os_tmr.c ****     p_tmr->NamePtr        = (CPU_CHAR *)((void *)"?TMR");
 1114              		.loc 1 948 0
 1115 0016 7B68     		ldr	r3, [r7, #4]
 1116 0018 0F4A     		ldr	r2, .L100+4
 1117 001a 5A60     		str	r2, [r3, #4]
 949:..\..\..\..\..\..\Software\uCOS-III\Source/os_tmr.c **** #endif
 950:..\..\..\..\..\..\Software\uCOS-III\Source/os_tmr.c ****     p_tmr->Dly            = 0u;
 1118              		.loc 1 950 0
 1119 001c 7B68     		ldr	r3, [r7, #4]
 1120 001e 0022     		movs	r2, #0
 1121 0020 DA61     		str	r2, [r3, #28]
 951:..\..\..\..\..\..\Software\uCOS-III\Source/os_tmr.c ****     p_tmr->Remain         = 0u;
 1122              		.loc 1 951 0
 1123 0022 7B68     		ldr	r3, [r7, #4]
 1124 0024 0022     		movs	r2, #0
 1125 0026 9A61     		str	r2, [r3, #24]
 952:..\..\..\..\..\..\Software\uCOS-III\Source/os_tmr.c ****     p_tmr->Period         = 0u;
 1126              		.loc 1 952 0
 1127 0028 7B68     		ldr	r3, [r7, #4]
 1128 002a 0022     		movs	r2, #0
 1129 002c 1A62     		str	r2, [r3, #32]
 953:..\..\..\..\..\..\Software\uCOS-III\Source/os_tmr.c ****     p_tmr->Opt            = 0u;
 1130              		.loc 1 953 0
 1131 002e 7B68     		ldr	r3, [r7, #4]
 1132 0030 0022     		movs	r2, #0
 1133 0032 9A84     		strh	r2, [r3, #36]
 954:..\..\..\..\..\..\Software\uCOS-III\Source/os_tmr.c ****     p_tmr->CallbackPtr    = DEF_NULL;
 1134              		.loc 1 954 0
 1135 0034 7B68     		ldr	r3, [r7, #4]
 1136 0036 0022     		movs	r2, #0
 1137 0038 9A60     		str	r2, [r3, #8]
 955:..\..\..\..\..\..\Software\uCOS-III\Source/os_tmr.c ****     p_tmr->CallbackPtrArg = DEF_NULL;
 1138              		.loc 1 955 0
 1139 003a 7B68     		ldr	r3, [r7, #4]
 1140 003c 0022     		movs	r2, #0
 1141 003e DA60     		str	r2, [r3, #12]
 956:..\..\..\..\..\..\Software\uCOS-III\Source/os_tmr.c ****     p_tmr->NextPtr        = DEF_NULL;
 1142              		.loc 1 956 0
 1143 0040 7B68     		ldr	r3, [r7, #4]
 1144 0042 0022     		movs	r2, #0
 1145 0044 1A61     		str	r2, [r3, #16]
 957:..\..\..\..\..\..\Software\uCOS-III\Source/os_tmr.c ****     p_tmr->PrevPtr        = DEF_NULL;
ARM GAS  C:\Users\ADMINI~1\AppData\Local\Temp\ccofok6U.s 			page 38


 1146              		.loc 1 957 0
 1147 0046 7B68     		ldr	r3, [r7, #4]
 1148 0048 0022     		movs	r2, #0
 1149 004a 5A61     		str	r2, [r3, #20]
 958:..\..\..\..\..\..\Software\uCOS-III\Source/os_tmr.c **** }
 1150              		.loc 1 958 0
 1151 004c C046     		nop
 1152 004e BD46     		mov	sp, r7
 1153 0050 02B0     		add	sp, sp, #8
 1154              		@ sp needed
 1155 0052 80BD     		pop	{r7, pc}
 1156              	.L101:
 1157              		.align	2
 1158              	.L100:
 1159 0054 4E4F4E45 		.word	1162760014
 1160 0058 00000000 		.word	.LC10
 1161              		.cfi_endproc
 1162              	.LFE6:
 1163              		.size	OS_TmrClr, .-OS_TmrClr
 1164              		.section	.text.OS_TmrDbgListAdd,"ax",%progbits
 1165              		.align	2
 1166              		.global	OS_TmrDbgListAdd
 1167              		.code	16
 1168              		.thumb_func
 1169              		.type	OS_TmrDbgListAdd, %function
 1170              	OS_TmrDbgListAdd:
 1171              	.LFB7:
 959:..\..\..\..\..\..\Software\uCOS-III\Source/os_tmr.c **** 
 960:..\..\..\..\..\..\Software\uCOS-III\Source/os_tmr.c **** 
 961:..\..\..\..\..\..\Software\uCOS-III\Source/os_tmr.c **** /*
 962:..\..\..\..\..\..\Software\uCOS-III\Source/os_tmr.c **** ***************************************************************************************************
 963:..\..\..\..\..\..\Software\uCOS-III\Source/os_tmr.c **** *                                         ADD/REMOVE TIMER TO/FROM DEBUG TABLE
 964:..\..\..\..\..\..\Software\uCOS-III\Source/os_tmr.c **** *
 965:..\..\..\..\..\..\Software\uCOS-III\Source/os_tmr.c **** * Description: These functions are called by uC/OS-III to add or remove a timer to/from a timer deb
 966:..\..\..\..\..\..\Software\uCOS-III\Source/os_tmr.c **** *
 967:..\..\..\..\..\..\Software\uCOS-III\Source/os_tmr.c **** * Arguments  : p_tmr     is a pointer to the timer to add/remove
 968:..\..\..\..\..\..\Software\uCOS-III\Source/os_tmr.c **** *
 969:..\..\..\..\..\..\Software\uCOS-III\Source/os_tmr.c **** * Returns    : none
 970:..\..\..\..\..\..\Software\uCOS-III\Source/os_tmr.c **** *
 971:..\..\..\..\..\..\Software\uCOS-III\Source/os_tmr.c **** * Note(s)    : These functions are INTERNAL to uC/OS-III and your application should not call it.
 972:..\..\..\..\..\..\Software\uCOS-III\Source/os_tmr.c **** ***************************************************************************************************
 973:..\..\..\..\..\..\Software\uCOS-III\Source/os_tmr.c **** */
 974:..\..\..\..\..\..\Software\uCOS-III\Source/os_tmr.c **** 
 975:..\..\..\..\..\..\Software\uCOS-III\Source/os_tmr.c **** 
 976:..\..\..\..\..\..\Software\uCOS-III\Source/os_tmr.c **** #if (OS_CFG_DBG_EN == DEF_ENABLED)
 977:..\..\..\..\..\..\Software\uCOS-III\Source/os_tmr.c **** void  OS_TmrDbgListAdd (OS_TMR  *p_tmr)
 978:..\..\..\..\..\..\Software\uCOS-III\Source/os_tmr.c **** {
 1172              		.loc 1 978 0
 1173              		.cfi_startproc
 1174              		@ args = 0, pretend = 0, frame = 8
 1175              		@ frame_needed = 1, uses_anonymous_args = 0
 1176 0000 80B5     		push	{r7, lr}
 1177              		.cfi_def_cfa_offset 8
 1178              		.cfi_offset 7, -8
 1179              		.cfi_offset 14, -4
 1180 0002 82B0     		sub	sp, sp, #8
 1181              		.cfi_def_cfa_offset 16
ARM GAS  C:\Users\ADMINI~1\AppData\Local\Temp\ccofok6U.s 			page 39


 1182 0004 00AF     		add	r7, sp, #0
 1183              		.cfi_def_cfa_register 7
 1184 0006 7860     		str	r0, [r7, #4]
 979:..\..\..\..\..\..\Software\uCOS-III\Source/os_tmr.c ****     p_tmr->DbgPrevPtr               = DEF_NULL;
 1185              		.loc 1 979 0
 1186 0008 7B68     		ldr	r3, [r7, #4]
 1187 000a 0022     		movs	r2, #0
 1188 000c 9A62     		str	r2, [r3, #40]
 980:..\..\..\..\..\..\Software\uCOS-III\Source/os_tmr.c ****     if (OSTmrDbgListPtr == DEF_NULL) {
 1189              		.loc 1 980 0
 1190 000e 0B4B     		ldr	r3, .L105
 1191 0010 1B68     		ldr	r3, [r3]
 1192 0012 002B     		cmp	r3, #0
 1193 0014 03D1     		bne	.L103
 981:..\..\..\..\..\..\Software\uCOS-III\Source/os_tmr.c ****         p_tmr->DbgNextPtr           = DEF_NULL;
 1194              		.loc 1 981 0
 1195 0016 7B68     		ldr	r3, [r7, #4]
 1196 0018 0022     		movs	r2, #0
 1197 001a DA62     		str	r2, [r3, #44]
 1198 001c 07E0     		b	.L104
 1199              	.L103:
 982:..\..\..\..\..\..\Software\uCOS-III\Source/os_tmr.c ****     } else {
 983:..\..\..\..\..\..\Software\uCOS-III\Source/os_tmr.c ****         p_tmr->DbgNextPtr           =  OSTmrDbgListPtr;
 1200              		.loc 1 983 0
 1201 001e 074B     		ldr	r3, .L105
 1202 0020 1A68     		ldr	r2, [r3]
 1203 0022 7B68     		ldr	r3, [r7, #4]
 1204 0024 DA62     		str	r2, [r3, #44]
 984:..\..\..\..\..\..\Software\uCOS-III\Source/os_tmr.c ****         OSTmrDbgListPtr->DbgPrevPtr =  p_tmr;
 1205              		.loc 1 984 0
 1206 0026 054B     		ldr	r3, .L105
 1207 0028 1B68     		ldr	r3, [r3]
 1208 002a 7A68     		ldr	r2, [r7, #4]
 1209 002c 9A62     		str	r2, [r3, #40]
 1210              	.L104:
 985:..\..\..\..\..\..\Software\uCOS-III\Source/os_tmr.c ****     }
 986:..\..\..\..\..\..\Software\uCOS-III\Source/os_tmr.c ****     OSTmrDbgListPtr                 =  p_tmr;
 1211              		.loc 1 986 0
 1212 002e 034B     		ldr	r3, .L105
 1213 0030 7A68     		ldr	r2, [r7, #4]
 1214 0032 1A60     		str	r2, [r3]
 987:..\..\..\..\..\..\Software\uCOS-III\Source/os_tmr.c **** }
 1215              		.loc 1 987 0
 1216 0034 C046     		nop
 1217 0036 BD46     		mov	sp, r7
 1218 0038 02B0     		add	sp, sp, #8
 1219              		@ sp needed
 1220 003a 80BD     		pop	{r7, pc}
 1221              	.L106:
 1222              		.align	2
 1223              	.L105:
 1224 003c 00000000 		.word	OSTmrDbgListPtr
 1225              		.cfi_endproc
 1226              	.LFE7:
 1227              		.size	OS_TmrDbgListAdd, .-OS_TmrDbgListAdd
 1228              		.section	.text.OS_TmrDbgListRemove,"ax",%progbits
 1229              		.align	2
ARM GAS  C:\Users\ADMINI~1\AppData\Local\Temp\ccofok6U.s 			page 40


 1230              		.global	OS_TmrDbgListRemove
 1231              		.code	16
 1232              		.thumb_func
 1233              		.type	OS_TmrDbgListRemove, %function
 1234              	OS_TmrDbgListRemove:
 1235              	.LFB8:
 988:..\..\..\..\..\..\Software\uCOS-III\Source/os_tmr.c **** 
 989:..\..\..\..\..\..\Software\uCOS-III\Source/os_tmr.c **** 
 990:..\..\..\..\..\..\Software\uCOS-III\Source/os_tmr.c **** 
 991:..\..\..\..\..\..\Software\uCOS-III\Source/os_tmr.c **** void  OS_TmrDbgListRemove (OS_TMR  *p_tmr)
 992:..\..\..\..\..\..\Software\uCOS-III\Source/os_tmr.c **** {
 1236              		.loc 1 992 0
 1237              		.cfi_startproc
 1238              		@ args = 0, pretend = 0, frame = 16
 1239              		@ frame_needed = 1, uses_anonymous_args = 0
 1240 0000 80B5     		push	{r7, lr}
 1241              		.cfi_def_cfa_offset 8
 1242              		.cfi_offset 7, -8
 1243              		.cfi_offset 14, -4
 1244 0002 84B0     		sub	sp, sp, #16
 1245              		.cfi_def_cfa_offset 24
 1246 0004 00AF     		add	r7, sp, #0
 1247              		.cfi_def_cfa_register 7
 1248 0006 7860     		str	r0, [r7, #4]
 993:..\..\..\..\..\..\Software\uCOS-III\Source/os_tmr.c ****     OS_TMR  *p_tmr_next;
 994:..\..\..\..\..\..\Software\uCOS-III\Source/os_tmr.c ****     OS_TMR  *p_tmr_prev;
 995:..\..\..\..\..\..\Software\uCOS-III\Source/os_tmr.c **** 
 996:..\..\..\..\..\..\Software\uCOS-III\Source/os_tmr.c **** 
 997:..\..\..\..\..\..\Software\uCOS-III\Source/os_tmr.c ****     p_tmr_prev = p_tmr->DbgPrevPtr;
 1249              		.loc 1 997 0
 1250 0008 7B68     		ldr	r3, [r7, #4]
 1251 000a 9B6A     		ldr	r3, [r3, #40]
 1252 000c FB60     		str	r3, [r7, #12]
 998:..\..\..\..\..\..\Software\uCOS-III\Source/os_tmr.c ****     p_tmr_next = p_tmr->DbgNextPtr;
 1253              		.loc 1 998 0
 1254 000e 7B68     		ldr	r3, [r7, #4]
 1255 0010 DB6A     		ldr	r3, [r3, #44]
 1256 0012 BB60     		str	r3, [r7, #8]
 999:..\..\..\..\..\..\Software\uCOS-III\Source/os_tmr.c **** 
1000:..\..\..\..\..\..\Software\uCOS-III\Source/os_tmr.c ****     if (p_tmr_prev == DEF_NULL) {
 1257              		.loc 1 1000 0
 1258 0014 FB68     		ldr	r3, [r7, #12]
 1259 0016 002B     		cmp	r3, #0
 1260 0018 0CD1     		bne	.L108
1001:..\..\..\..\..\..\Software\uCOS-III\Source/os_tmr.c ****         OSTmrDbgListPtr = p_tmr_next;
 1261              		.loc 1 1001 0
 1262 001a 134B     		ldr	r3, .L113
 1263 001c BA68     		ldr	r2, [r7, #8]
 1264 001e 1A60     		str	r2, [r3]
1002:..\..\..\..\..\..\Software\uCOS-III\Source/os_tmr.c ****         if (p_tmr_next != DEF_NULL) {
 1265              		.loc 1 1002 0
 1266 0020 BB68     		ldr	r3, [r7, #8]
 1267 0022 002B     		cmp	r3, #0
 1268 0024 02D0     		beq	.L109
1003:..\..\..\..\..\..\Software\uCOS-III\Source/os_tmr.c ****             p_tmr_next->DbgPrevPtr = DEF_NULL;
 1269              		.loc 1 1003 0
 1270 0026 BB68     		ldr	r3, [r7, #8]
ARM GAS  C:\Users\ADMINI~1\AppData\Local\Temp\ccofok6U.s 			page 41


 1271 0028 0022     		movs	r2, #0
 1272 002a 9A62     		str	r2, [r3, #40]
 1273              	.L109:
1004:..\..\..\..\..\..\Software\uCOS-III\Source/os_tmr.c ****         }
1005:..\..\..\..\..\..\Software\uCOS-III\Source/os_tmr.c ****         p_tmr->DbgNextPtr = DEF_NULL;
 1274              		.loc 1 1005 0
 1275 002c 7B68     		ldr	r3, [r7, #4]
 1276 002e 0022     		movs	r2, #0
 1277 0030 DA62     		str	r2, [r3, #44]
1006:..\..\..\..\..\..\Software\uCOS-III\Source/os_tmr.c **** 
1007:..\..\..\..\..\..\Software\uCOS-III\Source/os_tmr.c ****     } else if (p_tmr_next == DEF_NULL) {
1008:..\..\..\..\..\..\Software\uCOS-III\Source/os_tmr.c ****         p_tmr_prev->DbgNextPtr = DEF_NULL;
1009:..\..\..\..\..\..\Software\uCOS-III\Source/os_tmr.c ****         p_tmr->DbgPrevPtr      = DEF_NULL;
1010:..\..\..\..\..\..\Software\uCOS-III\Source/os_tmr.c **** 
1011:..\..\..\..\..\..\Software\uCOS-III\Source/os_tmr.c ****     } else {
1012:..\..\..\..\..\..\Software\uCOS-III\Source/os_tmr.c ****         p_tmr_prev->DbgNextPtr = p_tmr_next;
1013:..\..\..\..\..\..\Software\uCOS-III\Source/os_tmr.c ****         p_tmr_next->DbgPrevPtr = p_tmr_prev;
1014:..\..\..\..\..\..\Software\uCOS-III\Source/os_tmr.c ****         p_tmr->DbgNextPtr      = DEF_NULL;
1015:..\..\..\..\..\..\Software\uCOS-III\Source/os_tmr.c ****         p_tmr->DbgPrevPtr      = DEF_NULL;
1016:..\..\..\..\..\..\Software\uCOS-III\Source/os_tmr.c ****     }
1017:..\..\..\..\..\..\Software\uCOS-III\Source/os_tmr.c **** }
 1278              		.loc 1 1017 0
 1279 0032 15E0     		b	.L112
 1280              	.L108:
1007:..\..\..\..\..\..\Software\uCOS-III\Source/os_tmr.c ****         p_tmr_prev->DbgNextPtr = DEF_NULL;
 1281              		.loc 1 1007 0
 1282 0034 BB68     		ldr	r3, [r7, #8]
 1283 0036 002B     		cmp	r3, #0
 1284 0038 06D1     		bne	.L111
1008:..\..\..\..\..\..\Software\uCOS-III\Source/os_tmr.c ****         p_tmr->DbgPrevPtr      = DEF_NULL;
 1285              		.loc 1 1008 0
 1286 003a FB68     		ldr	r3, [r7, #12]
 1287 003c 0022     		movs	r2, #0
 1288 003e DA62     		str	r2, [r3, #44]
1009:..\..\..\..\..\..\Software\uCOS-III\Source/os_tmr.c **** 
 1289              		.loc 1 1009 0
 1290 0040 7B68     		ldr	r3, [r7, #4]
 1291 0042 0022     		movs	r2, #0
 1292 0044 9A62     		str	r2, [r3, #40]
 1293              		.loc 1 1017 0
 1294 0046 0BE0     		b	.L112
 1295              	.L111:
1012:..\..\..\..\..\..\Software\uCOS-III\Source/os_tmr.c ****         p_tmr_next->DbgPrevPtr = p_tmr_prev;
 1296              		.loc 1 1012 0
 1297 0048 FB68     		ldr	r3, [r7, #12]
 1298 004a BA68     		ldr	r2, [r7, #8]
 1299 004c DA62     		str	r2, [r3, #44]
1013:..\..\..\..\..\..\Software\uCOS-III\Source/os_tmr.c ****         p_tmr->DbgNextPtr      = DEF_NULL;
 1300              		.loc 1 1013 0
 1301 004e BB68     		ldr	r3, [r7, #8]
 1302 0050 FA68     		ldr	r2, [r7, #12]
 1303 0052 9A62     		str	r2, [r3, #40]
1014:..\..\..\..\..\..\Software\uCOS-III\Source/os_tmr.c ****         p_tmr->DbgPrevPtr      = DEF_NULL;
 1304              		.loc 1 1014 0
 1305 0054 7B68     		ldr	r3, [r7, #4]
 1306 0056 0022     		movs	r2, #0
 1307 0058 DA62     		str	r2, [r3, #44]
ARM GAS  C:\Users\ADMINI~1\AppData\Local\Temp\ccofok6U.s 			page 42


1015:..\..\..\..\..\..\Software\uCOS-III\Source/os_tmr.c ****     }
 1308              		.loc 1 1015 0
 1309 005a 7B68     		ldr	r3, [r7, #4]
 1310 005c 0022     		movs	r2, #0
 1311 005e 9A62     		str	r2, [r3, #40]
 1312              	.L112:
 1313              		.loc 1 1017 0
 1314 0060 C046     		nop
 1315 0062 BD46     		mov	sp, r7
 1316 0064 04B0     		add	sp, sp, #16
 1317              		@ sp needed
 1318 0066 80BD     		pop	{r7, pc}
 1319              	.L114:
 1320              		.align	2
 1321              	.L113:
 1322 0068 00000000 		.word	OSTmrDbgListPtr
 1323              		.cfi_endproc
 1324              	.LFE8:
 1325              		.size	OS_TmrDbgListRemove, .-OS_TmrDbgListRemove
 1326              		.global	__aeabi_uidiv
 1327              		.section	.rodata
 1328 0005 000000   		.align	2
 1329              	.LC23:
 1330 0008 4F532054 		.ascii	"OS Tmr Mutex\000"
 1330      6D72204D 
 1330      75746578 
 1330      00
 1331 0015 000000   		.align	2
 1332              	.LC32:
 1333 0018 75432F4F 		.ascii	"uC/OS-III Timer Task\000"
 1333      532D4949 
 1333      49205469 
 1333      6D657220 
 1333      5461736B 
 1334              		.section	.text.OS_TmrInit,"ax",%progbits
 1335              		.align	2
 1336              		.global	OS_TmrInit
 1337              		.code	16
 1338              		.thumb_func
 1339              		.type	OS_TmrInit, %function
 1340              	OS_TmrInit:
 1341              	.LFB9:
1018:..\..\..\..\..\..\Software\uCOS-III\Source/os_tmr.c **** #endif
1019:..\..\..\..\..\..\Software\uCOS-III\Source/os_tmr.c **** 
1020:..\..\..\..\..\..\Software\uCOS-III\Source/os_tmr.c **** 
1021:..\..\..\..\..\..\Software\uCOS-III\Source/os_tmr.c **** /*
1022:..\..\..\..\..\..\Software\uCOS-III\Source/os_tmr.c **** ***************************************************************************************************
1023:..\..\..\..\..\..\Software\uCOS-III\Source/os_tmr.c **** *                                             INITIALIZE THE TIMER MANAGER
1024:..\..\..\..\..\..\Software\uCOS-III\Source/os_tmr.c **** *
1025:..\..\..\..\..\..\Software\uCOS-III\Source/os_tmr.c **** * Description: This function is called by OSInit() to initialize the timer manager module.
1026:..\..\..\..\..\..\Software\uCOS-III\Source/os_tmr.c **** *
1027:..\..\..\..\..\..\Software\uCOS-III\Source/os_tmr.c **** * Argument(s): p_err    is a pointer to a variable that will contain an error code returned by this
1028:..\..\..\..\..\..\Software\uCOS-III\Source/os_tmr.c **** *
1029:..\..\..\..\..\..\Software\uCOS-III\Source/os_tmr.c **** *                           OS_ERR_NONE
1030:..\..\..\..\..\..\Software\uCOS-III\Source/os_tmr.c **** *                           OS_ERR_TMR_STK_INVALID       if you didn't specify a stack for the time
1031:..\..\..\..\..\..\Software\uCOS-III\Source/os_tmr.c **** *                           OS_ERR_TMR_STK_SIZE_INVALID  if you didn't allocate enough space for th
1032:..\..\..\..\..\..\Software\uCOS-III\Source/os_tmr.c **** *                           OS_ERR_PRIO_INVALID          if you specified the same priority as the 
ARM GAS  C:\Users\ADMINI~1\AppData\Local\Temp\ccofok6U.s 			page 43


1033:..\..\..\..\..\..\Software\uCOS-III\Source/os_tmr.c **** *                           OS_ERR_xxx                   any error code returned by OSTaskCreate()
1034:..\..\..\..\..\..\Software\uCOS-III\Source/os_tmr.c **** *
1035:..\..\..\..\..\..\Software\uCOS-III\Source/os_tmr.c **** * Returns    : none
1036:..\..\..\..\..\..\Software\uCOS-III\Source/os_tmr.c **** *
1037:..\..\..\..\..\..\Software\uCOS-III\Source/os_tmr.c **** * Note(s)    : 1) This function is INTERNAL to uC/OS-III and your application MUST NOT call it.
1038:..\..\..\..\..\..\Software\uCOS-III\Source/os_tmr.c **** ***************************************************************************************************
1039:..\..\..\..\..\..\Software\uCOS-III\Source/os_tmr.c **** */
1040:..\..\..\..\..\..\Software\uCOS-III\Source/os_tmr.c **** 
1041:..\..\..\..\..\..\Software\uCOS-III\Source/os_tmr.c **** void  OS_TmrInit (OS_ERR  *p_err)
1042:..\..\..\..\..\..\Software\uCOS-III\Source/os_tmr.c **** {
 1342              		.loc 1 1042 0
 1343              		.cfi_startproc
 1344              		@ args = 0, pretend = 0, frame = 8
 1345              		@ frame_needed = 1, uses_anonymous_args = 0
 1346 0000 F0B5     		push	{r4, r5, r6, r7, lr}
 1347              		.cfi_def_cfa_offset 20
 1348              		.cfi_offset 4, -20
 1349              		.cfi_offset 5, -16
 1350              		.cfi_offset 6, -12
 1351              		.cfi_offset 7, -8
 1352              		.cfi_offset 14, -4
 1353 0002 8DB0     		sub	sp, sp, #52
 1354              		.cfi_def_cfa_offset 72
 1355 0004 0AAF     		add	r7, sp, #40
 1356              		.cfi_def_cfa 7, 32
 1357 0006 7860     		str	r0, [r7, #4]
1043:..\..\..\..\..\..\Software\uCOS-III\Source/os_tmr.c **** #if (OS_CFG_DBG_EN == DEF_ENABLED)
1044:..\..\..\..\..\..\Software\uCOS-III\Source/os_tmr.c ****     OSTmrDbgListPtr = DEF_NULL;
 1358              		.loc 1 1044 0
 1359 0008 3B4B     		ldr	r3, .L124
 1360 000a 0022     		movs	r2, #0
 1361 000c 1A60     		str	r2, [r3]
1045:..\..\..\..\..\..\Software\uCOS-III\Source/os_tmr.c **** #endif
1046:..\..\..\..\..\..\Software\uCOS-III\Source/os_tmr.c **** 
1047:..\..\..\..\..\..\Software\uCOS-III\Source/os_tmr.c ****     OSTmrListPtr        = DEF_NULL;                             /* Create an empty timer list      
 1362              		.loc 1 1047 0
 1363 000e 3B4B     		ldr	r3, .L124+4
 1364 0010 0022     		movs	r2, #0
 1365 0012 1A60     		str	r2, [r3]
1048:..\..\..\..\..\..\Software\uCOS-III\Source/os_tmr.c **** #if (OS_CFG_DBG_EN == DEF_ENABLED)
1049:..\..\..\..\..\..\Software\uCOS-III\Source/os_tmr.c ****     OSTmrListEntries    = 0u;
 1366              		.loc 1 1049 0
 1367 0014 3A4B     		ldr	r3, .L124+8
 1368 0016 0022     		movs	r2, #0
 1369 0018 1A80     		strh	r2, [r3]
1050:..\..\..\..\..\..\Software\uCOS-III\Source/os_tmr.c **** #endif
1051:..\..\..\..\..\..\Software\uCOS-III\Source/os_tmr.c **** 
1052:..\..\..\..\..\..\Software\uCOS-III\Source/os_tmr.c ****     if (OSCfg_TmrTaskRate_Hz > 0u) {
 1370              		.loc 1 1052 0
 1371 001a 3A4B     		ldr	r3, .L124+12
 1372 001c 1B68     		ldr	r3, [r3]
 1373 001e 002B     		cmp	r3, #0
 1374 0020 0CD0     		beq	.L116
1053:..\..\..\..\..\..\Software\uCOS-III\Source/os_tmr.c ****         OSTmrUpdateCnt  = OSCfg_TickRate_Hz / OSCfg_TmrTaskRate_Hz;
 1375              		.loc 1 1053 0
 1376 0022 394B     		ldr	r3, .L124+16
 1377 0024 1A68     		ldr	r2, [r3]
ARM GAS  C:\Users\ADMINI~1\AppData\Local\Temp\ccofok6U.s 			page 44


 1378 0026 374B     		ldr	r3, .L124+12
 1379 0028 1B68     		ldr	r3, [r3]
 1380 002a 1900     		movs	r1, r3
 1381 002c 1000     		movs	r0, r2
 1382 002e FFF7FEFF 		bl	__aeabi_uidiv
 1383 0032 0300     		movs	r3, r0
 1384 0034 1A00     		movs	r2, r3
 1385 0036 354B     		ldr	r3, .L124+20
 1386 0038 1A60     		str	r2, [r3]
 1387 003a 09E0     		b	.L117
 1388              	.L116:
1054:..\..\..\..\..\..\Software\uCOS-III\Source/os_tmr.c ****     } else {
1055:..\..\..\..\..\..\Software\uCOS-III\Source/os_tmr.c ****         OSTmrUpdateCnt  = OSCfg_TickRate_Hz / 10u;
 1389              		.loc 1 1055 0
 1390 003c 324B     		ldr	r3, .L124+16
 1391 003e 1B68     		ldr	r3, [r3]
 1392 0040 0A21     		movs	r1, #10
 1393 0042 1800     		movs	r0, r3
 1394 0044 FFF7FEFF 		bl	__aeabi_uidiv
 1395 0048 0300     		movs	r3, r0
 1396 004a 1A00     		movs	r2, r3
 1397 004c 2F4B     		ldr	r3, .L124+20
 1398 004e 1A60     		str	r2, [r3]
 1399              	.L117:
1056:..\..\..\..\..\..\Software\uCOS-III\Source/os_tmr.c ****     }
1057:..\..\..\..\..\..\Software\uCOS-III\Source/os_tmr.c ****     OSTmrUpdateCtr      = OSTmrUpdateCnt;
 1400              		.loc 1 1057 0
 1401 0050 2E4B     		ldr	r3, .L124+20
 1402 0052 1A68     		ldr	r2, [r3]
 1403 0054 2E4B     		ldr	r3, .L124+24
 1404 0056 1A60     		str	r2, [r3]
1058:..\..\..\..\..\..\Software\uCOS-III\Source/os_tmr.c **** 
1059:..\..\..\..\..\..\Software\uCOS-III\Source/os_tmr.c ****     OSTmrTickCtr        = 0u;
 1405              		.loc 1 1059 0
 1406 0058 2E4B     		ldr	r3, .L124+28
 1407 005a 0022     		movs	r2, #0
 1408 005c 1A60     		str	r2, [r3]
1060:..\..\..\..\..\..\Software\uCOS-III\Source/os_tmr.c **** 
1061:..\..\..\..\..\..\Software\uCOS-III\Source/os_tmr.c **** #if (OS_CFG_TS_EN == DEF_ENABLED)
1062:..\..\..\..\..\..\Software\uCOS-III\Source/os_tmr.c ****     OSTmrTaskTimeMax    = 0u;
 1409              		.loc 1 1062 0
 1410 005e 2E4B     		ldr	r3, .L124+32
 1411 0060 0022     		movs	r2, #0
 1412 0062 1A60     		str	r2, [r3]
1063:..\..\..\..\..\..\Software\uCOS-III\Source/os_tmr.c **** #endif
1064:..\..\..\..\..\..\Software\uCOS-III\Source/os_tmr.c **** 
1065:..\..\..\..\..\..\Software\uCOS-III\Source/os_tmr.c **** #if (OS_CFG_MUTEX_EN == DEF_ENABLED)
1066:..\..\..\..\..\..\Software\uCOS-III\Source/os_tmr.c ****     OSMutexCreate(&OSTmrMutex,                                  /* Use a mutex to protect the timer
 1413              		.loc 1 1066 0
 1414 0064 7A68     		ldr	r2, [r7, #4]
 1415 0066 2D49     		ldr	r1, .L124+36
 1416 0068 2D4B     		ldr	r3, .L124+40
 1417 006a 1800     		movs	r0, r3
 1418 006c FFF7FEFF 		bl	OSMutexCreate
1067:..\..\..\..\..\..\Software\uCOS-III\Source/os_tmr.c ****                   (CPU_CHAR *)"OS Tmr Mutex", 
1068:..\..\..\..\..\..\Software\uCOS-III\Source/os_tmr.c ****                   p_err);
1069:..\..\..\..\..\..\Software\uCOS-III\Source/os_tmr.c ****     if (*p_err != OS_ERR_NONE) {
ARM GAS  C:\Users\ADMINI~1\AppData\Local\Temp\ccofok6U.s 			page 45


 1419              		.loc 1 1069 0
 1420 0070 7B68     		ldr	r3, [r7, #4]
 1421 0072 1B88     		ldrh	r3, [r3]
 1422 0074 002B     		cmp	r3, #0
 1423 0076 3AD1     		bne	.L123
1070:..\..\..\..\..\..\Software\uCOS-III\Source/os_tmr.c ****         return;
1071:..\..\..\..\..\..\Software\uCOS-III\Source/os_tmr.c ****     }
1072:..\..\..\..\..\..\Software\uCOS-III\Source/os_tmr.c **** #endif
1073:..\..\..\..\..\..\Software\uCOS-III\Source/os_tmr.c **** 
1074:..\..\..\..\..\..\Software\uCOS-III\Source/os_tmr.c ****                                                                 /* -------------- CREATE THE TIMER 
1075:..\..\..\..\..\..\Software\uCOS-III\Source/os_tmr.c ****     if (OSCfg_TmrTaskStkBasePtr == DEF_NULL) {
 1424              		.loc 1 1075 0
 1425 0078 2A4B     		ldr	r3, .L124+44
 1426 007a 1B68     		ldr	r3, [r3]
 1427 007c 002B     		cmp	r3, #0
 1428 007e 03D1     		bne	.L120
1076:..\..\..\..\..\..\Software\uCOS-III\Source/os_tmr.c ****        *p_err = OS_ERR_TMR_STK_INVALID;
 1429              		.loc 1 1076 0
 1430 0080 7B68     		ldr	r3, [r7, #4]
 1431 0082 294A     		ldr	r2, .L124+48
 1432 0084 1A80     		strh	r2, [r3]
1077:..\..\..\..\..\..\Software\uCOS-III\Source/os_tmr.c ****         return;
 1433              		.loc 1 1077 0
 1434 0086 33E0     		b	.L115
 1435              	.L120:
1078:..\..\..\..\..\..\Software\uCOS-III\Source/os_tmr.c ****     }
1079:..\..\..\..\..\..\Software\uCOS-III\Source/os_tmr.c **** 
1080:..\..\..\..\..\..\Software\uCOS-III\Source/os_tmr.c ****     if (OSCfg_TmrTaskStkSize < OSCfg_StkSizeMin) {
 1436              		.loc 1 1080 0
 1437 0088 284B     		ldr	r3, .L124+52
 1438 008a 1A68     		ldr	r2, [r3]
 1439 008c 284B     		ldr	r3, .L124+56
 1440 008e 1B68     		ldr	r3, [r3]
 1441 0090 9A42     		cmp	r2, r3
 1442 0092 03D2     		bcs	.L121
1081:..\..\..\..\..\..\Software\uCOS-III\Source/os_tmr.c ****        *p_err = OS_ERR_TMR_STK_SIZE_INVALID;
 1443              		.loc 1 1081 0
 1444 0094 7B68     		ldr	r3, [r7, #4]
 1445 0096 274A     		ldr	r2, .L124+60
 1446 0098 1A80     		strh	r2, [r3]
1082:..\..\..\..\..\..\Software\uCOS-III\Source/os_tmr.c ****         return;
 1447              		.loc 1 1082 0
 1448 009a 29E0     		b	.L115
 1449              	.L121:
1083:..\..\..\..\..\..\Software\uCOS-III\Source/os_tmr.c ****     }
1084:..\..\..\..\..\..\Software\uCOS-III\Source/os_tmr.c **** 
1085:..\..\..\..\..\..\Software\uCOS-III\Source/os_tmr.c ****     if (OSCfg_TmrTaskPrio >= (OS_CFG_PRIO_MAX - 1u)) {
 1450              		.loc 1 1085 0
 1451 009c 264B     		ldr	r3, .L124+64
 1452 009e 1B78     		ldrb	r3, [r3]
 1453 00a0 1E2B     		cmp	r3, #30
 1454 00a2 03D9     		bls	.L122
1086:..\..\..\..\..\..\Software\uCOS-III\Source/os_tmr.c ****        *p_err = OS_ERR_TMR_PRIO_INVALID;
 1455              		.loc 1 1086 0
 1456 00a4 7B68     		ldr	r3, [r7, #4]
 1457 00a6 254A     		ldr	r2, .L124+68
 1458 00a8 1A80     		strh	r2, [r3]
ARM GAS  C:\Users\ADMINI~1\AppData\Local\Temp\ccofok6U.s 			page 46


1087:..\..\..\..\..\..\Software\uCOS-III\Source/os_tmr.c ****         return;
 1459              		.loc 1 1087 0
 1460 00aa 21E0     		b	.L115
 1461              	.L122:
1088:..\..\..\..\..\..\Software\uCOS-III\Source/os_tmr.c ****     }
1089:..\..\..\..\..\..\Software\uCOS-III\Source/os_tmr.c **** 
1090:..\..\..\..\..\..\Software\uCOS-III\Source/os_tmr.c ****     OSTaskCreate(&OSTmrTaskTCB,
 1462              		.loc 1 1090 0
 1463 00ac 224B     		ldr	r3, .L124+64
 1464 00ae 1A78     		ldrb	r2, [r3]
 1465 00b0 1C4B     		ldr	r3, .L124+44
 1466 00b2 1968     		ldr	r1, [r3]
 1467 00b4 224B     		ldr	r3, .L124+72
 1468 00b6 1868     		ldr	r0, [r3]
 1469 00b8 1C4B     		ldr	r3, .L124+52
 1470 00ba 1B68     		ldr	r3, [r3]
 1471 00bc 214C     		ldr	r4, .L124+76
 1472 00be A446     		mov	ip, r4
 1473 00c0 214E     		ldr	r6, .L124+80
 1474 00c2 224D     		ldr	r5, .L124+84
 1475 00c4 7C68     		ldr	r4, [r7, #4]
 1476 00c6 0894     		str	r4, [sp, #32]
 1477 00c8 0B24     		movs	r4, #11
 1478 00ca 0794     		str	r4, [sp, #28]
 1479 00cc 0024     		movs	r4, #0
 1480 00ce 0694     		str	r4, [sp, #24]
 1481 00d0 0024     		movs	r4, #0
 1482 00d2 0594     		str	r4, [sp, #20]
 1483 00d4 0024     		movs	r4, #0
 1484 00d6 0494     		str	r4, [sp, #16]
 1485 00d8 0393     		str	r3, [sp, #12]
 1486 00da 0290     		str	r0, [sp, #8]
 1487 00dc 0191     		str	r1, [sp, #4]
 1488 00de 0092     		str	r2, [sp]
 1489 00e0 0023     		movs	r3, #0
 1490 00e2 6246     		mov	r2, ip
 1491 00e4 3100     		movs	r1, r6
 1492 00e6 2800     		movs	r0, r5
 1493 00e8 FFF7FEFF 		bl	OSTaskCreate
 1494 00ec 00E0     		b	.L115
 1495              	.L123:
1070:..\..\..\..\..\..\Software\uCOS-III\Source/os_tmr.c ****     }
 1496              		.loc 1 1070 0
 1497 00ee C046     		nop
 1498              	.L115:
1091:..\..\..\..\..\..\Software\uCOS-III\Source/os_tmr.c ****                  (CPU_CHAR   *)((void *)"uC/OS-III Timer Task"),
1092:..\..\..\..\..\..\Software\uCOS-III\Source/os_tmr.c ****                  OS_TmrTask,
1093:..\..\..\..\..\..\Software\uCOS-III\Source/os_tmr.c ****                  DEF_NULL,
1094:..\..\..\..\..\..\Software\uCOS-III\Source/os_tmr.c ****                  OSCfg_TmrTaskPrio,
1095:..\..\..\..\..\..\Software\uCOS-III\Source/os_tmr.c ****                  OSCfg_TmrTaskStkBasePtr,
1096:..\..\..\..\..\..\Software\uCOS-III\Source/os_tmr.c ****                  OSCfg_TmrTaskStkLimit,
1097:..\..\..\..\..\..\Software\uCOS-III\Source/os_tmr.c ****                  OSCfg_TmrTaskStkSize,
1098:..\..\..\..\..\..\Software\uCOS-III\Source/os_tmr.c ****                  0u,
1099:..\..\..\..\..\..\Software\uCOS-III\Source/os_tmr.c ****                  0u,
1100:..\..\..\..\..\..\Software\uCOS-III\Source/os_tmr.c ****                  DEF_NULL,
1101:..\..\..\..\..\..\Software\uCOS-III\Source/os_tmr.c ****                  (OS_OPT_TASK_STK_CHK | OS_OPT_TASK_STK_CLR | OS_OPT_TASK_NO_TLS),
1102:..\..\..\..\..\..\Software\uCOS-III\Source/os_tmr.c ****                  p_err);
ARM GAS  C:\Users\ADMINI~1\AppData\Local\Temp\ccofok6U.s 			page 47


1103:..\..\..\..\..\..\Software\uCOS-III\Source/os_tmr.c **** }
 1499              		.loc 1 1103 0
 1500 00f0 BD46     		mov	sp, r7
 1501 00f2 03B0     		add	sp, sp, #12
 1502              		@ sp needed
 1503 00f4 F0BD     		pop	{r4, r5, r6, r7, pc}
 1504              	.L125:
 1505 00f6 C046     		.align	2
 1506              	.L124:
 1507 00f8 00000000 		.word	OSTmrDbgListPtr
 1508 00fc 00000000 		.word	OSTmrListPtr
 1509 0100 00000000 		.word	OSTmrListEntries
 1510 0104 00000000 		.word	OSCfg_TmrTaskRate_Hz
 1511 0108 00000000 		.word	OSCfg_TickRate_Hz
 1512 010c 00000000 		.word	OSTmrUpdateCnt
 1513 0110 00000000 		.word	OSTmrUpdateCtr
 1514 0114 00000000 		.word	OSTmrTickCtr
 1515 0118 00000000 		.word	OSTmrTaskTimeMax
 1516 011c 08000000 		.word	.LC23
 1517 0120 00000000 		.word	OSTmrMutex
 1518 0124 00000000 		.word	OSCfg_TmrTaskStkBasePtr
 1519 0128 47730000 		.word	29511
 1520 012c 00000000 		.word	OSCfg_TmrTaskStkSize
 1521 0130 00000000 		.word	OSCfg_StkSizeMin
 1522 0134 48730000 		.word	29512
 1523 0138 00000000 		.word	OSCfg_TmrTaskPrio
 1524 013c 46730000 		.word	29510
 1525 0140 00000000 		.word	OSCfg_TmrTaskStkLimit
 1526 0144 00000000 		.word	OS_TmrTask
 1527 0148 18000000 		.word	.LC32
 1528 014c 00000000 		.word	OSTmrTaskTCB
 1529              		.cfi_endproc
 1530              	.LFE9:
 1531              		.size	OS_TmrInit, .-OS_TmrInit
 1532              		.section	.text.OS_TmrUnlink,"ax",%progbits
 1533              		.align	2
 1534              		.global	OS_TmrUnlink
 1535              		.code	16
 1536              		.thumb_func
 1537              		.type	OS_TmrUnlink, %function
 1538              	OS_TmrUnlink:
 1539              	.LFB10:
1104:..\..\..\..\..\..\Software\uCOS-III\Source/os_tmr.c **** 
1105:..\..\..\..\..\..\Software\uCOS-III\Source/os_tmr.c **** 
1106:..\..\..\..\..\..\Software\uCOS-III\Source/os_tmr.c **** /*
1107:..\..\..\..\..\..\Software\uCOS-III\Source/os_tmr.c **** ***************************************************************************************************
1108:..\..\..\..\..\..\Software\uCOS-III\Source/os_tmr.c **** *                                         REMOVE A TIMER FROM THE TIMER LIST
1109:..\..\..\..\..\..\Software\uCOS-III\Source/os_tmr.c **** *
1110:..\..\..\..\..\..\Software\uCOS-III\Source/os_tmr.c **** * Description: This function is called to remove the timer from the timer list.
1111:..\..\..\..\..\..\Software\uCOS-III\Source/os_tmr.c **** *
1112:..\..\..\..\..\..\Software\uCOS-III\Source/os_tmr.c **** * Arguments  : p_tmr          Is a pointer to the timer to remove.
1113:..\..\..\..\..\..\Software\uCOS-III\Source/os_tmr.c **** *              -----
1114:..\..\..\..\..\..\Software\uCOS-III\Source/os_tmr.c **** *
1115:..\..\..\..\..\..\Software\uCOS-III\Source/os_tmr.c **** * Returns    : none
1116:..\..\..\..\..\..\Software\uCOS-III\Source/os_tmr.c **** *
1117:..\..\..\..\..\..\Software\uCOS-III\Source/os_tmr.c **** * Note(s)    : 1) This function is INTERNAL to uC/OS-III and your application MUST NOT call it.
1118:..\..\..\..\..\..\Software\uCOS-III\Source/os_tmr.c **** ***************************************************************************************************
ARM GAS  C:\Users\ADMINI~1\AppData\Local\Temp\ccofok6U.s 			page 48


1119:..\..\..\..\..\..\Software\uCOS-III\Source/os_tmr.c **** */
1120:..\..\..\..\..\..\Software\uCOS-III\Source/os_tmr.c **** 
1121:..\..\..\..\..\..\Software\uCOS-III\Source/os_tmr.c **** void  OS_TmrUnlink (OS_TMR  *p_tmr)
1122:..\..\..\..\..\..\Software\uCOS-III\Source/os_tmr.c **** {
 1540              		.loc 1 1122 0
 1541              		.cfi_startproc
 1542              		@ args = 0, pretend = 0, frame = 16
 1543              		@ frame_needed = 1, uses_anonymous_args = 0
 1544 0000 80B5     		push	{r7, lr}
 1545              		.cfi_def_cfa_offset 8
 1546              		.cfi_offset 7, -8
 1547              		.cfi_offset 14, -4
 1548 0002 84B0     		sub	sp, sp, #16
 1549              		.cfi_def_cfa_offset 24
 1550 0004 00AF     		add	r7, sp, #0
 1551              		.cfi_def_cfa_register 7
 1552 0006 7860     		str	r0, [r7, #4]
1123:..\..\..\..\..\..\Software\uCOS-III\Source/os_tmr.c ****     OS_TMR  *p_tmr1;
1124:..\..\..\..\..\..\Software\uCOS-III\Source/os_tmr.c ****     OS_TMR  *p_tmr2;
1125:..\..\..\..\..\..\Software\uCOS-III\Source/os_tmr.c **** 
1126:..\..\..\..\..\..\Software\uCOS-III\Source/os_tmr.c **** 
1127:..\..\..\..\..\..\Software\uCOS-III\Source/os_tmr.c ****     if (OSTmrListPtr == p_tmr) {                                /* See if timer to remove is at the
 1553              		.loc 1 1127 0
 1554 0008 1A4B     		ldr	r3, .L130
 1555 000a 1A68     		ldr	r2, [r3]
 1556 000c 7B68     		ldr	r3, [r7, #4]
 1557 000e 9A42     		cmp	r2, r3
 1558 0010 0CD1     		bne	.L127
1128:..\..\..\..\..\..\Software\uCOS-III\Source/os_tmr.c ****         p_tmr1       = p_tmr->NextPtr;
 1559              		.loc 1 1128 0
 1560 0012 7B68     		ldr	r3, [r7, #4]
 1561 0014 1B69     		ldr	r3, [r3, #16]
 1562 0016 FB60     		str	r3, [r7, #12]
1129:..\..\..\..\..\..\Software\uCOS-III\Source/os_tmr.c ****         OSTmrListPtr = p_tmr1;
 1563              		.loc 1 1129 0
 1564 0018 164B     		ldr	r3, .L130
 1565 001a FA68     		ldr	r2, [r7, #12]
 1566 001c 1A60     		str	r2, [r3]
1130:..\..\..\..\..\..\Software\uCOS-III\Source/os_tmr.c ****         if (p_tmr1 != DEF_NULL) {
 1567              		.loc 1 1130 0
 1568 001e FB68     		ldr	r3, [r7, #12]
 1569 0020 002B     		cmp	r3, #0
 1570 0022 12D0     		beq	.L129
1131:..\..\..\..\..\..\Software\uCOS-III\Source/os_tmr.c ****             p_tmr1->PrevPtr = DEF_NULL;
 1571              		.loc 1 1131 0
 1572 0024 FB68     		ldr	r3, [r7, #12]
 1573 0026 0022     		movs	r2, #0
 1574 0028 5A61     		str	r2, [r3, #20]
 1575 002a 0EE0     		b	.L129
 1576              	.L127:
1132:..\..\..\..\..\..\Software\uCOS-III\Source/os_tmr.c ****         }
1133:..\..\..\..\..\..\Software\uCOS-III\Source/os_tmr.c ****     } else {
1134:..\..\..\..\..\..\Software\uCOS-III\Source/os_tmr.c ****         p_tmr1          = p_tmr->PrevPtr;                       /* Remove timer from somewhere in t
 1577              		.loc 1 1134 0
 1578 002c 7B68     		ldr	r3, [r7, #4]
 1579 002e 5B69     		ldr	r3, [r3, #20]
 1580 0030 FB60     		str	r3, [r7, #12]
ARM GAS  C:\Users\ADMINI~1\AppData\Local\Temp\ccofok6U.s 			page 49


1135:..\..\..\..\..\..\Software\uCOS-III\Source/os_tmr.c ****         p_tmr2          = p_tmr->NextPtr;
 1581              		.loc 1 1135 0
 1582 0032 7B68     		ldr	r3, [r7, #4]
 1583 0034 1B69     		ldr	r3, [r3, #16]
 1584 0036 BB60     		str	r3, [r7, #8]
1136:..\..\..\..\..\..\Software\uCOS-III\Source/os_tmr.c ****         p_tmr1->NextPtr = p_tmr2;
 1585              		.loc 1 1136 0
 1586 0038 FB68     		ldr	r3, [r7, #12]
 1587 003a BA68     		ldr	r2, [r7, #8]
 1588 003c 1A61     		str	r2, [r3, #16]
1137:..\..\..\..\..\..\Software\uCOS-III\Source/os_tmr.c ****         if (p_tmr2 != DEF_NULL) {
 1589              		.loc 1 1137 0
 1590 003e BB68     		ldr	r3, [r7, #8]
 1591 0040 002B     		cmp	r3, #0
 1592 0042 02D0     		beq	.L129
1138:..\..\..\..\..\..\Software\uCOS-III\Source/os_tmr.c ****             p_tmr2->PrevPtr = p_tmr1;
 1593              		.loc 1 1138 0
 1594 0044 BB68     		ldr	r3, [r7, #8]
 1595 0046 FA68     		ldr	r2, [r7, #12]
 1596 0048 5A61     		str	r2, [r3, #20]
 1597              	.L129:
1139:..\..\..\..\..\..\Software\uCOS-III\Source/os_tmr.c ****         }
1140:..\..\..\..\..\..\Software\uCOS-III\Source/os_tmr.c ****     }
1141:..\..\..\..\..\..\Software\uCOS-III\Source/os_tmr.c ****     p_tmr->State   = OS_TMR_STATE_STOPPED;
 1598              		.loc 1 1141 0
 1599 004a 7B68     		ldr	r3, [r7, #4]
 1600 004c 2622     		movs	r2, #38
 1601 004e 0121     		movs	r1, #1
 1602 0050 9954     		strb	r1, [r3, r2]
1142:..\..\..\..\..\..\Software\uCOS-III\Source/os_tmr.c ****     p_tmr->NextPtr = DEF_NULL;
 1603              		.loc 1 1142 0
 1604 0052 7B68     		ldr	r3, [r7, #4]
 1605 0054 0022     		movs	r2, #0
 1606 0056 1A61     		str	r2, [r3, #16]
1143:..\..\..\..\..\..\Software\uCOS-III\Source/os_tmr.c ****     p_tmr->PrevPtr = DEF_NULL;
 1607              		.loc 1 1143 0
 1608 0058 7B68     		ldr	r3, [r7, #4]
 1609 005a 0022     		movs	r2, #0
 1610 005c 5A61     		str	r2, [r3, #20]
1144:..\..\..\..\..\..\Software\uCOS-III\Source/os_tmr.c **** #if (OS_CFG_DBG_EN == DEF_ENABLED)
1145:..\..\..\..\..\..\Software\uCOS-III\Source/os_tmr.c ****     OSTmrListEntries--;
 1611              		.loc 1 1145 0
 1612 005e 064B     		ldr	r3, .L130+4
 1613 0060 1B88     		ldrh	r3, [r3]
 1614 0062 013B     		subs	r3, r3, #1
 1615 0064 9AB2     		uxth	r2, r3
 1616 0066 044B     		ldr	r3, .L130+4
 1617 0068 1A80     		strh	r2, [r3]
1146:..\..\..\..\..\..\Software\uCOS-III\Source/os_tmr.c **** #endif
1147:..\..\..\..\..\..\Software\uCOS-III\Source/os_tmr.c **** }
 1618              		.loc 1 1147 0
 1619 006a C046     		nop
 1620 006c BD46     		mov	sp, r7
 1621 006e 04B0     		add	sp, sp, #16
 1622              		@ sp needed
 1623 0070 80BD     		pop	{r7, pc}
 1624              	.L131:
ARM GAS  C:\Users\ADMINI~1\AppData\Local\Temp\ccofok6U.s 			page 50


 1625 0072 C046     		.align	2
 1626              	.L130:
 1627 0074 00000000 		.word	OSTmrListPtr
 1628 0078 00000000 		.word	OSTmrListEntries
 1629              		.cfi_endproc
 1630              	.LFE10:
 1631              		.size	OS_TmrUnlink, .-OS_TmrUnlink
 1632              		.section	.text.OS_TmrTask,"ax",%progbits
 1633              		.align	2
 1634              		.global	OS_TmrTask
 1635              		.code	16
 1636              		.thumb_func
 1637              		.type	OS_TmrTask, %function
 1638              	OS_TmrTask:
 1639              	.LFB11:
1148:..\..\..\..\..\..\Software\uCOS-III\Source/os_tmr.c **** 
1149:..\..\..\..\..\..\Software\uCOS-III\Source/os_tmr.c **** 
1150:..\..\..\..\..\..\Software\uCOS-III\Source/os_tmr.c **** /*
1151:..\..\..\..\..\..\Software\uCOS-III\Source/os_tmr.c **** ***************************************************************************************************
1152:..\..\..\..\..\..\Software\uCOS-III\Source/os_tmr.c **** *                                                 TIMER MANAGEMENT TASK
1153:..\..\..\..\..\..\Software\uCOS-III\Source/os_tmr.c **** *
1154:..\..\..\..\..\..\Software\uCOS-III\Source/os_tmr.c **** * Description: This task is created by OS_TmrInit().
1155:..\..\..\..\..\..\Software\uCOS-III\Source/os_tmr.c **** *
1156:..\..\..\..\..\..\Software\uCOS-III\Source/os_tmr.c **** * Arguments  : none
1157:..\..\..\..\..\..\Software\uCOS-III\Source/os_tmr.c **** *
1158:..\..\..\..\..\..\Software\uCOS-III\Source/os_tmr.c **** * Returns    : none
1159:..\..\..\..\..\..\Software\uCOS-III\Source/os_tmr.c **** *
1160:..\..\..\..\..\..\Software\uCOS-III\Source/os_tmr.c **** * Note(s)    : 1) This function is INTERNAL to uC/OS-III and your application MUST NOT call it.
1161:..\..\..\..\..\..\Software\uCOS-III\Source/os_tmr.c **** ***************************************************************************************************
1162:..\..\..\..\..\..\Software\uCOS-III\Source/os_tmr.c **** */
1163:..\..\..\..\..\..\Software\uCOS-III\Source/os_tmr.c **** 
1164:..\..\..\..\..\..\Software\uCOS-III\Source/os_tmr.c **** void  OS_TmrTask (void  *p_arg)
1165:..\..\..\..\..\..\Software\uCOS-III\Source/os_tmr.c **** {
 1640              		.loc 1 1165 0
 1641              		.cfi_startproc
 1642              		@ args = 0, pretend = 0, frame = 40
 1643              		@ frame_needed = 1, uses_anonymous_args = 0
 1644 0000 80B5     		push	{r7, lr}
 1645              		.cfi_def_cfa_offset 8
 1646              		.cfi_offset 7, -8
 1647              		.cfi_offset 14, -4
 1648 0002 8AB0     		sub	sp, sp, #40
 1649              		.cfi_def_cfa_offset 48
 1650 0004 00AF     		add	r7, sp, #0
 1651              		.cfi_def_cfa_register 7
 1652 0006 7860     		str	r0, [r7, #4]
 1653              	.L139:
1166:..\..\..\..\..\..\Software\uCOS-III\Source/os_tmr.c ****     OS_ERR               err;
1167:..\..\..\..\..\..\Software\uCOS-III\Source/os_tmr.c ****     OS_TMR_CALLBACK_PTR  p_fnct;
1168:..\..\..\..\..\..\Software\uCOS-III\Source/os_tmr.c ****     OS_TMR              *p_tmr;
1169:..\..\..\..\..\..\Software\uCOS-III\Source/os_tmr.c ****     OS_TMR              *p_tmr_next;
1170:..\..\..\..\..\..\Software\uCOS-III\Source/os_tmr.c **** #if (OS_CFG_DYN_TICK_EN != DEF_ENABLED)
1171:..\..\..\..\..\..\Software\uCOS-III\Source/os_tmr.c ****     CPU_TS               ts;
1172:..\..\..\..\..\..\Software\uCOS-III\Source/os_tmr.c **** #endif
1173:..\..\..\..\..\..\Software\uCOS-III\Source/os_tmr.c **** #if (OS_CFG_TS_EN == DEF_ENABLED)
1174:..\..\..\..\..\..\Software\uCOS-III\Source/os_tmr.c ****     CPU_TS               ts_start;
1175:..\..\..\..\..\..\Software\uCOS-III\Source/os_tmr.c ****     CPU_TS               ts_delta;
ARM GAS  C:\Users\ADMINI~1\AppData\Local\Temp\ccofok6U.s 			page 51


1176:..\..\..\..\..\..\Software\uCOS-III\Source/os_tmr.c **** #endif
1177:..\..\..\..\..\..\Software\uCOS-III\Source/os_tmr.c **** 
1178:..\..\..\..\..\..\Software\uCOS-III\Source/os_tmr.c **** 
1179:..\..\..\..\..\..\Software\uCOS-III\Source/os_tmr.c **** 
1180:..\..\..\..\..\..\Software\uCOS-III\Source/os_tmr.c ****     (void)p_arg;                                                /* Not using 'p_arg', prevent compi
1181:..\..\..\..\..\..\Software\uCOS-III\Source/os_tmr.c ****     while (DEF_ON) {
1182:..\..\..\..\..\..\Software\uCOS-III\Source/os_tmr.c **** #if (OS_CFG_DYN_TICK_EN != DEF_ENABLED)
1183:..\..\..\..\..\..\Software\uCOS-III\Source/os_tmr.c ****         (void)OSTaskSemPend( 0u,                                /* Wait for signal indicating time 
 1654              		.loc 1 1183 0
 1655 0008 1223     		movs	r3, #18
 1656 000a FB18     		adds	r3, r7, r3
 1657 000c 0C22     		movs	r2, #12
 1658 000e BA18     		adds	r2, r7, r2
 1659 0010 0021     		movs	r1, #0
 1660 0012 0020     		movs	r0, #0
 1661 0014 FFF7FEFF 		bl	OSTaskSemPend
1184:..\..\..\..\..\..\Software\uCOS-III\Source/os_tmr.c ****                              OS_OPT_PEND_BLOCKING,
1185:..\..\..\..\..\..\Software\uCOS-III\Source/os_tmr.c ****                             &ts,
1186:..\..\..\..\..\..\Software\uCOS-III\Source/os_tmr.c ****                             &err);
1187:..\..\..\..\..\..\Software\uCOS-III\Source/os_tmr.c ****         (void)err;
1188:..\..\..\..\..\..\Software\uCOS-III\Source/os_tmr.c **** #else
1189:..\..\..\..\..\..\Software\uCOS-III\Source/os_tmr.c ****         OSTimeDly(OSTmrUpdateCnt, OS_OPT_TIME_DLY, &err);
1190:..\..\..\..\..\..\Software\uCOS-III\Source/os_tmr.c ****         (void)err;
1191:..\..\..\..\..\..\Software\uCOS-III\Source/os_tmr.c **** #endif
1192:..\..\..\..\..\..\Software\uCOS-III\Source/os_tmr.c **** 
1193:..\..\..\..\..\..\Software\uCOS-III\Source/os_tmr.c **** 
1194:..\..\..\..\..\..\Software\uCOS-III\Source/os_tmr.c ****         OS_TmrLock();
 1662              		.loc 1 1194 0
 1663 0018 FFF7FEFF 		bl	OS_TmrLock
1195:..\..\..\..\..\..\Software\uCOS-III\Source/os_tmr.c **** #if (OS_CFG_TS_EN == DEF_ENABLED)
1196:..\..\..\..\..\..\Software\uCOS-III\Source/os_tmr.c ****         ts_start = OS_TS_GET();
 1664              		.loc 1 1196 0
 1665 001c FFF7FEFF 		bl	CPU_TS_TmrRd
 1666 0020 0300     		movs	r3, r0
 1667 0022 3B62     		str	r3, [r7, #32]
1197:..\..\..\..\..\..\Software\uCOS-III\Source/os_tmr.c **** #endif
1198:..\..\..\..\..\..\Software\uCOS-III\Source/os_tmr.c ****         OSTmrTickCtr++;                                         /* Increment the current time      
 1668              		.loc 1 1198 0
 1669 0024 284B     		ldr	r3, .L140
 1670 0026 1B68     		ldr	r3, [r3]
 1671 0028 5A1C     		adds	r2, r3, #1
 1672 002a 274B     		ldr	r3, .L140
 1673 002c 1A60     		str	r2, [r3]
1199:..\..\..\..\..\..\Software\uCOS-III\Source/os_tmr.c ****         p_tmr    = OSTmrListPtr;
 1674              		.loc 1 1199 0
 1675 002e 274B     		ldr	r3, .L140+4
 1676 0030 1B68     		ldr	r3, [r3]
 1677 0032 7B62     		str	r3, [r7, #36]
1200:..\..\..\..\..\..\Software\uCOS-III\Source/os_tmr.c ****         while (p_tmr != DEF_NULL) {                             /* Update all the timers in the lis
 1678              		.loc 1 1200 0
 1679 0034 34E0     		b	.L133
 1680              	.L137:
1201:..\..\..\..\..\..\Software\uCOS-III\Source/os_tmr.c ****             OSSchedLock(&err);
 1681              		.loc 1 1201 0
 1682 0036 1223     		movs	r3, #18
 1683 0038 FB18     		adds	r3, r7, r3
 1684 003a 1800     		movs	r0, r3
ARM GAS  C:\Users\ADMINI~1\AppData\Local\Temp\ccofok6U.s 			page 52


 1685 003c FFF7FEFF 		bl	OSSchedLock
1202:..\..\..\..\..\..\Software\uCOS-III\Source/os_tmr.c ****             (void)&err;
1203:..\..\..\..\..\..\Software\uCOS-III\Source/os_tmr.c ****             p_tmr_next = p_tmr->NextPtr;
 1686              		.loc 1 1203 0
 1687 0040 7B6A     		ldr	r3, [r7, #36]
 1688 0042 1B69     		ldr	r3, [r3, #16]
 1689 0044 BB61     		str	r3, [r7, #24]
1204:..\..\..\..\..\..\Software\uCOS-III\Source/os_tmr.c ****             p_tmr->Remain--;
 1690              		.loc 1 1204 0
 1691 0046 7B6A     		ldr	r3, [r7, #36]
 1692 0048 9B69     		ldr	r3, [r3, #24]
 1693 004a 5A1E     		subs	r2, r3, #1
 1694 004c 7B6A     		ldr	r3, [r7, #36]
 1695 004e 9A61     		str	r2, [r3, #24]
1205:..\..\..\..\..\..\Software\uCOS-III\Source/os_tmr.c ****             if (p_tmr->Remain == 0u) {
 1696              		.loc 1 1205 0
 1697 0050 7B6A     		ldr	r3, [r7, #36]
 1698 0052 9B69     		ldr	r3, [r3, #24]
 1699 0054 002B     		cmp	r3, #0
 1700 0056 1CD1     		bne	.L134
1206:..\..\..\..\..\..\Software\uCOS-III\Source/os_tmr.c ****                 if (p_tmr->Opt == OS_OPT_TMR_PERIODIC) {
 1701              		.loc 1 1206 0
 1702 0058 7B6A     		ldr	r3, [r7, #36]
 1703 005a 9B8C     		ldrh	r3, [r3, #36]
 1704 005c 022B     		cmp	r3, #2
 1705 005e 04D1     		bne	.L135
1207:..\..\..\..\..\..\Software\uCOS-III\Source/os_tmr.c ****                     p_tmr->Remain = p_tmr->Period;              /* Reload the time remaining       
 1706              		.loc 1 1207 0
 1707 0060 7B6A     		ldr	r3, [r7, #36]
 1708 0062 1A6A     		ldr	r2, [r3, #32]
 1709 0064 7B6A     		ldr	r3, [r7, #36]
 1710 0066 9A61     		str	r2, [r3, #24]
 1711 0068 07E0     		b	.L136
 1712              	.L135:
1208:..\..\..\..\..\..\Software\uCOS-III\Source/os_tmr.c ****                 } else {
1209:..\..\..\..\..\..\Software\uCOS-III\Source/os_tmr.c ****                     OS_TmrUnlink(p_tmr);                        /* Remove from list                
 1713              		.loc 1 1209 0
 1714 006a 7B6A     		ldr	r3, [r7, #36]
 1715 006c 1800     		movs	r0, r3
 1716 006e FFF7FEFF 		bl	OS_TmrUnlink
1210:..\..\..\..\..\..\Software\uCOS-III\Source/os_tmr.c ****                     p_tmr->State = OS_TMR_STATE_COMPLETED;      /* Indicate that the timer has comp
 1717              		.loc 1 1210 0
 1718 0072 7B6A     		ldr	r3, [r7, #36]
 1719 0074 2622     		movs	r2, #38
 1720 0076 0321     		movs	r1, #3
 1721 0078 9954     		strb	r1, [r3, r2]
 1722              	.L136:
1211:..\..\..\..\..\..\Software\uCOS-III\Source/os_tmr.c ****                 }
1212:..\..\..\..\..\..\Software\uCOS-III\Source/os_tmr.c ****                 p_fnct = p_tmr->CallbackPtr;                    /* Execute callback function if ava
 1723              		.loc 1 1212 0
 1724 007a 7B6A     		ldr	r3, [r7, #36]
 1725 007c 9B68     		ldr	r3, [r3, #8]
 1726 007e 7B61     		str	r3, [r7, #20]
1213:..\..\..\..\..\..\Software\uCOS-III\Source/os_tmr.c ****                 if (p_fnct != 0u) {
 1727              		.loc 1 1213 0
 1728 0080 7B69     		ldr	r3, [r7, #20]
 1729 0082 002B     		cmp	r3, #0
ARM GAS  C:\Users\ADMINI~1\AppData\Local\Temp\ccofok6U.s 			page 53


 1730 0084 05D0     		beq	.L134
1214:..\..\..\..\..\..\Software\uCOS-III\Source/os_tmr.c ****                     (*p_fnct)((void *)p_tmr,
 1731              		.loc 1 1214 0
 1732 0086 7B6A     		ldr	r3, [r7, #36]
 1733 0088 D968     		ldr	r1, [r3, #12]
 1734 008a 7A6A     		ldr	r2, [r7, #36]
 1735 008c 7B69     		ldr	r3, [r7, #20]
 1736 008e 1000     		movs	r0, r2
 1737 0090 9847     		blx	r3
 1738              	.L134:
1215:..\..\..\..\..\..\Software\uCOS-III\Source/os_tmr.c ****                               p_tmr->CallbackPtrArg);
1216:..\..\..\..\..\..\Software\uCOS-III\Source/os_tmr.c ****                 }
1217:..\..\..\..\..\..\Software\uCOS-III\Source/os_tmr.c ****             }
1218:..\..\..\..\..\..\Software\uCOS-III\Source/os_tmr.c ****             p_tmr = p_tmr_next;
 1739              		.loc 1 1218 0
 1740 0092 BB69     		ldr	r3, [r7, #24]
 1741 0094 7B62     		str	r3, [r7, #36]
1219:..\..\..\..\..\..\Software\uCOS-III\Source/os_tmr.c ****             OSSchedUnlock(&err);
 1742              		.loc 1 1219 0
 1743 0096 1223     		movs	r3, #18
 1744 0098 FB18     		adds	r3, r7, r3
 1745 009a 1800     		movs	r0, r3
 1746 009c FFF7FEFF 		bl	OSSchedUnlock
 1747              	.L133:
1200:..\..\..\..\..\..\Software\uCOS-III\Source/os_tmr.c ****             OSSchedLock(&err);
 1748              		.loc 1 1200 0
 1749 00a0 7B6A     		ldr	r3, [r7, #36]
 1750 00a2 002B     		cmp	r3, #0
 1751 00a4 C7D1     		bne	.L137
1220:..\..\..\..\..\..\Software\uCOS-III\Source/os_tmr.c ****             (void)&err;
1221:..\..\..\..\..\..\Software\uCOS-III\Source/os_tmr.c ****         }
1222:..\..\..\..\..\..\Software\uCOS-III\Source/os_tmr.c **** 
1223:..\..\..\..\..\..\Software\uCOS-III\Source/os_tmr.c **** #if (OS_CFG_TS_EN == DEF_ENABLED)
1224:..\..\..\..\..\..\Software\uCOS-III\Source/os_tmr.c ****         ts_delta = OS_TS_GET() - ts_start;                      /* Measure execution time of timer 
 1752              		.loc 1 1224 0
 1753 00a6 FFF7FEFF 		bl	CPU_TS_TmrRd
 1754 00aa 0200     		movs	r2, r0
 1755 00ac 3B6A     		ldr	r3, [r7, #32]
 1756 00ae D31A     		subs	r3, r2, r3
 1757 00b0 FB61     		str	r3, [r7, #28]
1225:..\..\..\..\..\..\Software\uCOS-III\Source/os_tmr.c ****         if (OSTmrTaskTimeMax < ts_delta) {
 1758              		.loc 1 1225 0
 1759 00b2 074B     		ldr	r3, .L140+8
 1760 00b4 1A68     		ldr	r2, [r3]
 1761 00b6 FB69     		ldr	r3, [r7, #28]
 1762 00b8 9A42     		cmp	r2, r3
 1763 00ba 02D2     		bcs	.L138
1226:..\..\..\..\..\..\Software\uCOS-III\Source/os_tmr.c ****             OSTmrTaskTimeMax = ts_delta;
 1764              		.loc 1 1226 0
 1765 00bc 044B     		ldr	r3, .L140+8
 1766 00be FA69     		ldr	r2, [r7, #28]
 1767 00c0 1A60     		str	r2, [r3]
 1768              	.L138:
1227:..\..\..\..\..\..\Software\uCOS-III\Source/os_tmr.c ****         }
1228:..\..\..\..\..\..\Software\uCOS-III\Source/os_tmr.c **** #endif
1229:..\..\..\..\..\..\Software\uCOS-III\Source/os_tmr.c **** 
1230:..\..\..\..\..\..\Software\uCOS-III\Source/os_tmr.c ****         OS_TmrUnlock();
ARM GAS  C:\Users\ADMINI~1\AppData\Local\Temp\ccofok6U.s 			page 54


 1769              		.loc 1 1230 0
 1770 00c2 FFF7FEFF 		bl	OS_TmrUnlock
1231:..\..\..\..\..\..\Software\uCOS-III\Source/os_tmr.c ****     }
 1771              		.loc 1 1231 0
 1772 00c6 9FE7     		b	.L139
 1773              	.L141:
 1774              		.align	2
 1775              	.L140:
 1776 00c8 00000000 		.word	OSTmrTickCtr
 1777 00cc 00000000 		.word	OSTmrListPtr
 1778 00d0 00000000 		.word	OSTmrTaskTimeMax
 1779              		.cfi_endproc
 1780              	.LFE11:
 1781              		.size	OS_TmrTask, .-OS_TmrTask
 1782              		.section	.text.OS_TmrLock,"ax",%progbits
 1783              		.align	2
 1784              		.code	16
 1785              		.thumb_func
 1786              		.type	OS_TmrLock, %function
 1787              	OS_TmrLock:
 1788              	.LFB12:
1232:..\..\..\..\..\..\Software\uCOS-III\Source/os_tmr.c **** }
1233:..\..\..\..\..\..\Software\uCOS-III\Source/os_tmr.c **** 
1234:..\..\..\..\..\..\Software\uCOS-III\Source/os_tmr.c **** 
1235:..\..\..\..\..\..\Software\uCOS-III\Source/os_tmr.c **** /*
1236:..\..\..\..\..\..\Software\uCOS-III\Source/os_tmr.c **** ***************************************************************************************************
1237:..\..\..\..\..\..\Software\uCOS-III\Source/os_tmr.c **** *                                          TIMER MANAGEMENT LOCKING MECHANISM
1238:..\..\..\..\..\..\Software\uCOS-III\Source/os_tmr.c **** *
1239:..\..\..\..\..\..\Software\uCOS-III\Source/os_tmr.c **** * Description: These functions are use to handle timer critical sections.  The preferred method is 
1240:..\..\..\..\..\..\Software\uCOS-III\Source/os_tmr.c **** *              order to avoid locking the scheduler and also, to avoid calling callback functions w
1241:..\..\..\..\..\..\Software\uCOS-III\Source/os_tmr.c **** *              locked.
1242:..\..\..\..\..\..\Software\uCOS-III\Source/os_tmr.c **** *
1243:..\..\..\..\..\..\Software\uCOS-III\Source/os_tmr.c **** * Arguments  : none
1244:..\..\..\..\..\..\Software\uCOS-III\Source/os_tmr.c **** *
1245:..\..\..\..\..\..\Software\uCOS-III\Source/os_tmr.c **** * Returns    : none
1246:..\..\..\..\..\..\Software\uCOS-III\Source/os_tmr.c **** *
1247:..\..\..\..\..\..\Software\uCOS-III\Source/os_tmr.c **** * Note(s)    : 1) These function is INTERNAL to uC/OS-III and your application MUST NOT call it.
1248:..\..\..\..\..\..\Software\uCOS-III\Source/os_tmr.c **** ***************************************************************************************************
1249:..\..\..\..\..\..\Software\uCOS-III\Source/os_tmr.c **** */
1250:..\..\..\..\..\..\Software\uCOS-III\Source/os_tmr.c **** 
1251:..\..\..\..\..\..\Software\uCOS-III\Source/os_tmr.c **** static  void  OS_TmrLock (void)
1252:..\..\..\..\..\..\Software\uCOS-III\Source/os_tmr.c **** {
 1789              		.loc 1 1252 0
 1790              		.cfi_startproc
 1791              		@ args = 0, pretend = 0, frame = 8
 1792              		@ frame_needed = 1, uses_anonymous_args = 0
 1793 0000 80B5     		push	{r7, lr}
 1794              		.cfi_def_cfa_offset 8
 1795              		.cfi_offset 7, -8
 1796              		.cfi_offset 14, -4
 1797 0002 84B0     		sub	sp, sp, #16
 1798              		.cfi_def_cfa_offset 24
 1799 0004 02AF     		add	r7, sp, #8
 1800              		.cfi_def_cfa 7, 16
1253:..\..\..\..\..\..\Software\uCOS-III\Source/os_tmr.c ****     OS_ERR  err;
1254:..\..\..\..\..\..\Software\uCOS-III\Source/os_tmr.c **** #if (OS_CFG_MUTEX_EN == DEF_ENABLED)
1255:..\..\..\..\..\..\Software\uCOS-III\Source/os_tmr.c ****     CPU_TS  ts;
ARM GAS  C:\Users\ADMINI~1\AppData\Local\Temp\ccofok6U.s 			page 55


1256:..\..\..\..\..\..\Software\uCOS-III\Source/os_tmr.c **** 
1257:..\..\..\..\..\..\Software\uCOS-III\Source/os_tmr.c **** 
1258:..\..\..\..\..\..\Software\uCOS-III\Source/os_tmr.c ****     OSMutexPend(&OSTmrMutex,                                    /* Use a mutex to protect the timer
 1801              		.loc 1 1258 0
 1802 0006 3A00     		movs	r2, r7
 1803 0008 0548     		ldr	r0, .L143
 1804 000a BB1D     		adds	r3, r7, #6
 1805 000c 0093     		str	r3, [sp]
 1806 000e 1300     		movs	r3, r2
 1807 0010 0022     		movs	r2, #0
 1808 0012 0021     		movs	r1, #0
 1809 0014 FFF7FEFF 		bl	OSMutexPend
1259:..\..\..\..\..\..\Software\uCOS-III\Source/os_tmr.c ****                 0u,
1260:..\..\..\..\..\..\Software\uCOS-III\Source/os_tmr.c ****                 OS_OPT_PEND_BLOCKING,
1261:..\..\..\..\..\..\Software\uCOS-III\Source/os_tmr.c ****                 &ts,
1262:..\..\..\..\..\..\Software\uCOS-III\Source/os_tmr.c ****                 &err);
1263:..\..\..\..\..\..\Software\uCOS-III\Source/os_tmr.c **** #else
1264:..\..\..\..\..\..\Software\uCOS-III\Source/os_tmr.c ****     OSSchedLock(&err);                                          /* Lock the scheduler to protect th
1265:..\..\..\..\..\..\Software\uCOS-III\Source/os_tmr.c **** #endif
1266:..\..\..\..\..\..\Software\uCOS-III\Source/os_tmr.c ****     (void)&err;
1267:..\..\..\..\..\..\Software\uCOS-III\Source/os_tmr.c **** }
 1810              		.loc 1 1267 0
 1811 0018 C046     		nop
 1812 001a BD46     		mov	sp, r7
 1813 001c 02B0     		add	sp, sp, #8
 1814              		@ sp needed
 1815 001e 80BD     		pop	{r7, pc}
 1816              	.L144:
 1817              		.align	2
 1818              	.L143:
 1819 0020 00000000 		.word	OSTmrMutex
 1820              		.cfi_endproc
 1821              	.LFE12:
 1822              		.size	OS_TmrLock, .-OS_TmrLock
 1823              		.section	.text.OS_TmrUnlock,"ax",%progbits
 1824              		.align	2
 1825              		.code	16
 1826              		.thumb_func
 1827              		.type	OS_TmrUnlock, %function
 1828              	OS_TmrUnlock:
 1829              	.LFB13:
1268:..\..\..\..\..\..\Software\uCOS-III\Source/os_tmr.c **** 
1269:..\..\..\..\..\..\Software\uCOS-III\Source/os_tmr.c **** 
1270:..\..\..\..\..\..\Software\uCOS-III\Source/os_tmr.c **** 
1271:..\..\..\..\..\..\Software\uCOS-III\Source/os_tmr.c **** 
1272:..\..\..\..\..\..\Software\uCOS-III\Source/os_tmr.c **** static  void  OS_TmrUnlock (void)
1273:..\..\..\..\..\..\Software\uCOS-III\Source/os_tmr.c **** {
 1830              		.loc 1 1273 0
 1831              		.cfi_startproc
 1832              		@ args = 0, pretend = 0, frame = 8
 1833              		@ frame_needed = 1, uses_anonymous_args = 0
 1834 0000 80B5     		push	{r7, lr}
 1835              		.cfi_def_cfa_offset 8
 1836              		.cfi_offset 7, -8
 1837              		.cfi_offset 14, -4
 1838 0002 82B0     		sub	sp, sp, #8
 1839              		.cfi_def_cfa_offset 16
ARM GAS  C:\Users\ADMINI~1\AppData\Local\Temp\ccofok6U.s 			page 56


 1840 0004 00AF     		add	r7, sp, #0
 1841              		.cfi_def_cfa_register 7
1274:..\..\..\..\..\..\Software\uCOS-III\Source/os_tmr.c ****     OS_ERR  err;
1275:..\..\..\..\..\..\Software\uCOS-III\Source/os_tmr.c **** 
1276:..\..\..\..\..\..\Software\uCOS-III\Source/os_tmr.c **** 
1277:..\..\..\..\..\..\Software\uCOS-III\Source/os_tmr.c **** #if (OS_CFG_MUTEX_EN == DEF_ENABLED)
1278:..\..\..\..\..\..\Software\uCOS-III\Source/os_tmr.c ****     OSMutexPost(&OSTmrMutex,                                    /* Use a mutex to protect the timer
 1842              		.loc 1 1278 0
 1843 0006 BA1D     		adds	r2, r7, #6
 1844 0008 044B     		ldr	r3, .L146
 1845 000a 0021     		movs	r1, #0
 1846 000c 1800     		movs	r0, r3
 1847 000e FFF7FEFF 		bl	OSMutexPost
1279:..\..\..\..\..\..\Software\uCOS-III\Source/os_tmr.c ****                 OS_OPT_POST_NONE,
1280:..\..\..\..\..\..\Software\uCOS-III\Source/os_tmr.c ****                 &err);
1281:..\..\..\..\..\..\Software\uCOS-III\Source/os_tmr.c **** #else
1282:..\..\..\..\..\..\Software\uCOS-III\Source/os_tmr.c ****     OSSchedUnlock(&err);                                        /* Lock the scheduler to protect th
1283:..\..\..\..\..\..\Software\uCOS-III\Source/os_tmr.c **** #endif
1284:..\..\..\..\..\..\Software\uCOS-III\Source/os_tmr.c ****     (void)&err;
1285:..\..\..\..\..\..\Software\uCOS-III\Source/os_tmr.c **** }
 1848              		.loc 1 1285 0
 1849 0012 C046     		nop
 1850 0014 BD46     		mov	sp, r7
 1851 0016 02B0     		add	sp, sp, #8
 1852              		@ sp needed
 1853 0018 80BD     		pop	{r7, pc}
 1854              	.L147:
 1855 001a C046     		.align	2
 1856              	.L146:
 1857 001c 00000000 		.word	OSTmrMutex
 1858              		.cfi_endproc
 1859              	.LFE13:
 1860              		.size	OS_TmrUnlock, .-OS_TmrUnlock
 1861              		.text
 1862              	.Letext0:
 1863              		.file 2 "..\\..\\..\\..\\..\\..\\Software\\uC-CPU\\ARM-Cortex-M0\\GNU/cpu.h"
 1864              		.file 3 "..\\..\\..\\..\\..\\..\\Software\\uC-CPU/cpu_core.h"
 1865              		.file 4 "..\\..\\..\\..\\..\\..\\Software\\uCOS-III\\Source\\os_type.h"
 1866              		.file 5 "..\\..\\..\\..\\..\\..\\Software\\uCOS-III\\Source\\os.h"