ARM GAS  C:\Users\ADMINI~1\AppData\Local\Temp\ccvBRVNC.s 			page 1


   1              		.syntax unified
   2              		.cpu cortex-m0
   3              		.fpu softvfp
   4              		.eabi_attribute 20, 1
   5              		.eabi_attribute 21, 1
   6              		.eabi_attribute 23, 3
   7              		.eabi_attribute 24, 1
   8              		.eabi_attribute 25, 1
   9              		.eabi_attribute 26, 1
  10              		.eabi_attribute 30, 6
  11              		.eabi_attribute 34, 0
  12              		.eabi_attribute 18, 4
  13              		.thumb
  14              		.syntax unified
  15              		.file	"os_task.c"
  16              		.text
  17              	.Ltext0:
  18              		.cfi_sections	.debug_frame
  19              		.section	.text.OSTaskChangePrio,"ax",%progbits
  20              		.align	2
  21              		.global	OSTaskChangePrio
  22              		.code	16
  23              		.thumb_func
  24              		.type	OSTaskChangePrio, %function
  25              	OSTaskChangePrio:
  26              	.LFB0:
  27              		.file 1 "..\\..\\..\\..\\..\\..\\Software\\uCOS-III\\Source\\os_task.c"
   1:..\..\..\..\..\..\Software\uCOS-III\Source/os_task.c **** /*
   2:..\..\..\..\..\..\Software\uCOS-III\Source/os_task.c **** ***************************************************************************************************
   3:..\..\..\..\..\..\Software\uCOS-III\Source/os_task.c **** *                                                      uC/OS-III
   4:..\..\..\..\..\..\Software\uCOS-III\Source/os_task.c **** *                                                 The Real-Time Kernel
   5:..\..\..\..\..\..\Software\uCOS-III\Source/os_task.c **** *
   6:..\..\..\..\..\..\Software\uCOS-III\Source/os_task.c **** *                                  (c) Copyright 2009-2015; Micrium, Inc.; Weston, FL
   7:..\..\..\..\..\..\Software\uCOS-III\Source/os_task.c **** *                           All rights reserved.  Protected by international copyright laws.
   8:..\..\..\..\..\..\Software\uCOS-III\Source/os_task.c **** *
   9:..\..\..\..\..\..\Software\uCOS-III\Source/os_task.c **** *                                                   TASK MANAGEMENT
  10:..\..\..\..\..\..\Software\uCOS-III\Source/os_task.c **** *
  11:..\..\..\..\..\..\Software\uCOS-III\Source/os_task.c **** * File    : OS_TASK.C
  12:..\..\..\..\..\..\Software\uCOS-III\Source/os_task.c **** * By      : JJL
  13:..\..\..\..\..\..\Software\uCOS-III\Source/os_task.c **** * Version : V3.05.01
  14:..\..\..\..\..\..\Software\uCOS-III\Source/os_task.c **** *
  15:..\..\..\..\..\..\Software\uCOS-III\Source/os_task.c **** * LICENSING TERMS:
  16:..\..\..\..\..\..\Software\uCOS-III\Source/os_task.c **** * ---------------
  17:..\..\..\..\..\..\Software\uCOS-III\Source/os_task.c **** *           uC/OS-III is provided in source form for FREE short-term evaluation, for educational us
  18:..\..\..\..\..\..\Software\uCOS-III\Source/os_task.c **** *           for peaceful research.  If you plan or intend to use uC/OS-III in a commercial applicat
  19:..\..\..\..\..\..\Software\uCOS-III\Source/os_task.c **** *           product then, you need to contact Micrium to properly license uC/OS-III for its use in 
  20:..\..\..\..\..\..\Software\uCOS-III\Source/os_task.c **** *           application/product.   We provide ALL the source code for your convenience and to help 
  21:..\..\..\..\..\..\Software\uCOS-III\Source/os_task.c **** *           experience uC/OS-III.  The fact that the source is provided does NOT mean that you can 
  22:..\..\..\..\..\..\Software\uCOS-III\Source/os_task.c **** *           it commercially without paying a licensing fee.
  23:..\..\..\..\..\..\Software\uCOS-III\Source/os_task.c **** *
  24:..\..\..\..\..\..\Software\uCOS-III\Source/os_task.c **** *           Knowledge of the source code may NOT be used to develop a similar product.
  25:..\..\..\..\..\..\Software\uCOS-III\Source/os_task.c **** *
  26:..\..\..\..\..\..\Software\uCOS-III\Source/os_task.c **** *           Please help us continue to provide the embedded community with the finest software avai
  27:..\..\..\..\..\..\Software\uCOS-III\Source/os_task.c **** *           Your honesty is greatly appreciated.
  28:..\..\..\..\..\..\Software\uCOS-III\Source/os_task.c **** *
  29:..\..\..\..\..\..\Software\uCOS-III\Source/os_task.c **** *           You can find our product's user manual, API reference, release notes and
  30:..\..\..\..\..\..\Software\uCOS-III\Source/os_task.c **** *           more information at https://doc.micrium.com.
ARM GAS  C:\Users\ADMINI~1\AppData\Local\Temp\ccvBRVNC.s 			page 2


  31:..\..\..\..\..\..\Software\uCOS-III\Source/os_task.c **** *           You can contact us at www.micrium.com.
  32:..\..\..\..\..\..\Software\uCOS-III\Source/os_task.c **** ***************************************************************************************************
  33:..\..\..\..\..\..\Software\uCOS-III\Source/os_task.c **** */
  34:..\..\..\..\..\..\Software\uCOS-III\Source/os_task.c **** 
  35:..\..\..\..\..\..\Software\uCOS-III\Source/os_task.c **** #define  MICRIUM_SOURCE
  36:..\..\..\..\..\..\Software\uCOS-III\Source/os_task.c **** #include "os.h"
  37:..\..\..\..\..\..\Software\uCOS-III\Source/os_task.c **** 
  38:..\..\..\..\..\..\Software\uCOS-III\Source/os_task.c **** 
  39:..\..\..\..\..\..\Software\uCOS-III\Source/os_task.c **** #ifdef VSC_INCLUDE_SOURCE_FILE_NAMES
  40:..\..\..\..\..\..\Software\uCOS-III\Source/os_task.c **** const  CPU_CHAR  *os_task__c = "$Id: $";
  41:..\..\..\..\..\..\Software\uCOS-III\Source/os_task.c **** #endif
  42:..\..\..\..\..\..\Software\uCOS-III\Source/os_task.c **** 
  43:..\..\..\..\..\..\Software\uCOS-III\Source/os_task.c **** /*
  44:..\..\..\..\..\..\Software\uCOS-III\Source/os_task.c **** ***************************************************************************************************
  45:..\..\..\..\..\..\Software\uCOS-III\Source/os_task.c **** *                                                CHANGE PRIORITY OF A TASK
  46:..\..\..\..\..\..\Software\uCOS-III\Source/os_task.c **** *
  47:..\..\..\..\..\..\Software\uCOS-III\Source/os_task.c **** * Description: This function allows you to change the priority of a task dynamically.  Note that th
  48:..\..\..\..\..\..\Software\uCOS-III\Source/os_task.c **** *              priority MUST be available.
  49:..\..\..\..\..\..\Software\uCOS-III\Source/os_task.c **** *
  50:..\..\..\..\..\..\Software\uCOS-III\Source/os_task.c **** * Arguments  : p_tcb      is the TCB of the tack to change the priority for
  51:..\..\..\..\..\..\Software\uCOS-III\Source/os_task.c **** *
  52:..\..\..\..\..\..\Software\uCOS-III\Source/os_task.c **** *              prio_new   is the new priority
  53:..\..\..\..\..\..\Software\uCOS-III\Source/os_task.c **** *
  54:..\..\..\..\..\..\Software\uCOS-III\Source/os_task.c **** *              p_err      is a pointer to an error code returned by this function:
  55:..\..\..\..\..\..\Software\uCOS-III\Source/os_task.c **** *
  56:..\..\..\..\..\..\Software\uCOS-III\Source/os_task.c **** *                             OS_ERR_NONE                    Is the call was successful
  57:..\..\..\..\..\..\Software\uCOS-III\Source/os_task.c **** *                             OS_ERR_OS_NOT_RUNNING          If uC/OS-III is not running yet
  58:..\..\..\..\..\..\Software\uCOS-III\Source/os_task.c **** *                             OS_ERR_PRIO_INVALID            If the priority you specify is higher 
  59:..\..\..\..\..\..\Software\uCOS-III\Source/os_task.c **** *                                                              (i.e. >= (OS_CFG_PRIO_MAX-1)) or alr
  60:..\..\..\..\..\..\Software\uCOS-III\Source/os_task.c **** *                                                              task
  61:..\..\..\..\..\..\Software\uCOS-III\Source/os_task.c **** *                             OS_ERR_STATE_INVALID           If the task is in an invalid state
  62:..\..\..\..\..\..\Software\uCOS-III\Source/os_task.c **** *                             OS_ERR_TASK_CHANGE_PRIO_ISR    If you tried to change the task's prio
  63:..\..\..\..\..\..\Software\uCOS-III\Source/os_task.c **** *
  64:..\..\..\..\..\..\Software\uCOS-III\Source/os_task.c **** * Returns    : none
  65:..\..\..\..\..\..\Software\uCOS-III\Source/os_task.c **** *
  66:..\..\..\..\..\..\Software\uCOS-III\Source/os_task.c **** * Note(s)    : none
  67:..\..\..\..\..\..\Software\uCOS-III\Source/os_task.c **** ***************************************************************************************************
  68:..\..\..\..\..\..\Software\uCOS-III\Source/os_task.c **** */
  69:..\..\..\..\..\..\Software\uCOS-III\Source/os_task.c **** 
  70:..\..\..\..\..\..\Software\uCOS-III\Source/os_task.c **** #if (OS_CFG_TASK_CHANGE_PRIO_EN == DEF_ENABLED)
  71:..\..\..\..\..\..\Software\uCOS-III\Source/os_task.c **** void  OSTaskChangePrio (OS_TCB   *p_tcb,
  72:..\..\..\..\..\..\Software\uCOS-III\Source/os_task.c ****                         OS_PRIO   prio_new,
  73:..\..\..\..\..\..\Software\uCOS-III\Source/os_task.c ****                         OS_ERR   *p_err)
  74:..\..\..\..\..\..\Software\uCOS-III\Source/os_task.c **** {
  28              		.loc 1 74 0
  29              		.cfi_startproc
  30              		@ args = 0, pretend = 0, frame = 24
  31              		@ frame_needed = 1, uses_anonymous_args = 0
  32 0000 90B5     		push	{r4, r7, lr}
  33              		.cfi_def_cfa_offset 12
  34              		.cfi_offset 4, -12
  35              		.cfi_offset 7, -8
  36              		.cfi_offset 14, -4
  37 0002 87B0     		sub	sp, sp, #28
  38              		.cfi_def_cfa_offset 40
  39 0004 00AF     		add	r7, sp, #0
  40              		.cfi_def_cfa_register 7
ARM GAS  C:\Users\ADMINI~1\AppData\Local\Temp\ccvBRVNC.s 			page 3


  41 0006 F860     		str	r0, [r7, #12]
  42 0008 7A60     		str	r2, [r7, #4]
  43 000a 0B23     		movs	r3, #11
  44 000c FB18     		adds	r3, r7, r3
  45 000e 0A1C     		adds	r2, r1, #0
  46 0010 1A70     		strb	r2, [r3]
  75:..\..\..\..\..\..\Software\uCOS-III\Source/os_task.c **** #if (OS_CFG_MUTEX_EN == DEF_ENABLED)
  76:..\..\..\..\..\..\Software\uCOS-III\Source/os_task.c ****     OS_PRIO  prio_high;
  77:..\..\..\..\..\..\Software\uCOS-III\Source/os_task.c **** #endif
  78:..\..\..\..\..\..\Software\uCOS-III\Source/os_task.c ****     CPU_SR_ALLOC();
  47              		.loc 1 78 0
  48 0012 0023     		movs	r3, #0
  49 0014 7B61     		str	r3, [r7, #20]
  79:..\..\..\..\..\..\Software\uCOS-III\Source/os_task.c **** 
  80:..\..\..\..\..\..\Software\uCOS-III\Source/os_task.c **** 
  81:..\..\..\..\..\..\Software\uCOS-III\Source/os_task.c **** #ifdef OS_SAFETY_CRITICAL
  82:..\..\..\..\..\..\Software\uCOS-III\Source/os_task.c ****     if (p_err == DEF_NULL) {
  83:..\..\..\..\..\..\Software\uCOS-III\Source/os_task.c ****         OS_SAFETY_CRITICAL_EXCEPTION();
  84:..\..\..\..\..\..\Software\uCOS-III\Source/os_task.c ****         return;
  85:..\..\..\..\..\..\Software\uCOS-III\Source/os_task.c ****     }
  86:..\..\..\..\..\..\Software\uCOS-III\Source/os_task.c **** #endif
  87:..\..\..\..\..\..\Software\uCOS-III\Source/os_task.c **** 
  88:..\..\..\..\..\..\Software\uCOS-III\Source/os_task.c **** #if (OS_CFG_ARG_CHK_EN == DEF_ENABLED)
  89:..\..\..\..\..\..\Software\uCOS-III\Source/os_task.c ****     if ((p_tcb != DEF_NULL) && (p_tcb->TaskState == OS_TASK_STATE_DEL)) {
  50              		.loc 1 89 0
  51 0016 FB68     		ldr	r3, [r7, #12]
  52 0018 002B     		cmp	r3, #0
  53 001a 08D0     		beq	.L2
  54              		.loc 1 89 0 is_stmt 0 discriminator 1
  55 001c FB68     		ldr	r3, [r7, #12]
  56 001e 3622     		movs	r2, #54
  57 0020 9B5C     		ldrb	r3, [r3, r2]
  58 0022 FF2B     		cmp	r3, #255
  59 0024 03D1     		bne	.L2
  90:..\..\..\..\..\..\Software\uCOS-III\Source/os_task.c ****        *p_err = OS_ERR_STATE_INVALID;
  60              		.loc 1 90 0 is_stmt 1
  61 0026 7B68     		ldr	r3, [r7, #4]
  62 0028 374A     		ldr	r2, .L10
  63 002a 1A80     		strh	r2, [r3]
  91:..\..\..\..\..\..\Software\uCOS-III\Source/os_task.c ****         return;
  64              		.loc 1 91 0
  65 002c 69E0     		b	.L1
  66              	.L2:
  92:..\..\..\..\..\..\Software\uCOS-III\Source/os_task.c ****     }
  93:..\..\..\..\..\..\Software\uCOS-III\Source/os_task.c **** #endif
  94:..\..\..\..\..\..\Software\uCOS-III\Source/os_task.c **** 
  95:..\..\..\..\..\..\Software\uCOS-III\Source/os_task.c **** #if (OS_CFG_CALLED_FROM_ISR_CHK_EN == DEF_ENABLED)
  96:..\..\..\..\..\..\Software\uCOS-III\Source/os_task.c ****     if (OSIntNestingCtr > 0u) {                                 /* Not allowed to call from an ISR 
  67              		.loc 1 96 0
  68 002e 374B     		ldr	r3, .L10+4
  69 0030 1B78     		ldrb	r3, [r3]
  70 0032 002B     		cmp	r3, #0
  71 0034 03D0     		beq	.L4
  97:..\..\..\..\..\..\Software\uCOS-III\Source/os_task.c ****        *p_err = OS_ERR_TASK_CHANGE_PRIO_ISR;
  72              		.loc 1 97 0
  73 0036 7B68     		ldr	r3, [r7, #4]
  74 0038 354A     		ldr	r2, .L10+8
ARM GAS  C:\Users\ADMINI~1\AppData\Local\Temp\ccvBRVNC.s 			page 4


  75 003a 1A80     		strh	r2, [r3]
  98:..\..\..\..\..\..\Software\uCOS-III\Source/os_task.c ****         return;
  76              		.loc 1 98 0
  77 003c 61E0     		b	.L1
  78              	.L4:
  99:..\..\..\..\..\..\Software\uCOS-III\Source/os_task.c ****     }
 100:..\..\..\..\..\..\Software\uCOS-III\Source/os_task.c **** #endif
 101:..\..\..\..\..\..\Software\uCOS-III\Source/os_task.c **** 
 102:..\..\..\..\..\..\Software\uCOS-III\Source/os_task.c **** #if (OS_CFG_ISR_POST_DEFERRED_EN == DEF_ENABLED)
 103:..\..\..\..\..\..\Software\uCOS-III\Source/os_task.c ****     if (prio_new == 0u) {                                        /* Cannot set to IntQueue Task pri
 104:..\..\..\..\..\..\Software\uCOS-III\Source/os_task.c ****        *p_err = OS_ERR_PRIO_INVALID;
 105:..\..\..\..\..\..\Software\uCOS-III\Source/os_task.c ****         return;
 106:..\..\..\..\..\..\Software\uCOS-III\Source/os_task.c ****     }
 107:..\..\..\..\..\..\Software\uCOS-III\Source/os_task.c **** #endif
 108:..\..\..\..\..\..\Software\uCOS-III\Source/os_task.c **** 
 109:..\..\..\..\..\..\Software\uCOS-III\Source/os_task.c ****     if (prio_new >= (OS_CFG_PRIO_MAX - 1u)) {                   /* Cannot set to Idle Task priority
  79              		.loc 1 109 0
  80 003e 0B23     		movs	r3, #11
  81 0040 FB18     		adds	r3, r7, r3
  82 0042 1B78     		ldrb	r3, [r3]
  83 0044 1E2B     		cmp	r3, #30
  84 0046 03D9     		bls	.L5
 110:..\..\..\..\..\..\Software\uCOS-III\Source/os_task.c ****        *p_err = OS_ERR_PRIO_INVALID;
  85              		.loc 1 110 0
  86 0048 7B68     		ldr	r3, [r7, #4]
  87 004a 324A     		ldr	r2, .L10+12
  88 004c 1A80     		strh	r2, [r3]
 111:..\..\..\..\..\..\Software\uCOS-III\Source/os_task.c ****         return;
  89              		.loc 1 111 0
  90 004e 58E0     		b	.L1
  91              	.L5:
 112:..\..\..\..\..\..\Software\uCOS-III\Source/os_task.c ****     }
 113:..\..\..\..\..\..\Software\uCOS-III\Source/os_task.c **** 
 114:..\..\..\..\..\..\Software\uCOS-III\Source/os_task.c ****     OS_CRITICAL_ENTER();
  92              		.loc 1 114 0
  93 0050 FFF7FEFF 		bl	CPU_SR_Save
  94 0054 0300     		movs	r3, r0
  95 0056 7B61     		str	r3, [r7, #20]
  96 0058 FFF7FEFF 		bl	CPU_IntDisMeasStart
 115:..\..\..\..\..\..\Software\uCOS-III\Source/os_task.c **** 
 116:..\..\..\..\..\..\Software\uCOS-III\Source/os_task.c ****     if (p_tcb == DEF_NULL) {                                    /* Are we changing the priority of 
  97              		.loc 1 116 0
  98 005c FB68     		ldr	r3, [r7, #12]
  99 005e 002B     		cmp	r3, #0
 100 0060 10D1     		bne	.L6
 117:..\..\..\..\..\..\Software\uCOS-III\Source/os_task.c ****         if (OSRunning != OS_STATE_OS_RUNNING) {
 101              		.loc 1 117 0
 102 0062 2D4B     		ldr	r3, .L10+16
 103 0064 1B78     		ldrb	r3, [r3]
 104 0066 012B     		cmp	r3, #1
 105 0068 09D0     		beq	.L7
 118:..\..\..\..\..\..\Software\uCOS-III\Source/os_task.c ****             OS_CRITICAL_EXIT();
 106              		.loc 1 118 0
 107 006a FFF7FEFF 		bl	CPU_IntDisMeasStop
 108 006e 7B69     		ldr	r3, [r7, #20]
 109 0070 1800     		movs	r0, r3
 110 0072 FFF7FEFF 		bl	CPU_SR_Restore
ARM GAS  C:\Users\ADMINI~1\AppData\Local\Temp\ccvBRVNC.s 			page 5


 119:..\..\..\..\..\..\Software\uCOS-III\Source/os_task.c ****            *p_err = OS_ERR_OS_NOT_RUNNING;
 111              		.loc 1 119 0
 112 0076 7B68     		ldr	r3, [r7, #4]
 113 0078 284A     		ldr	r2, .L10+20
 114 007a 1A80     		strh	r2, [r3]
 120:..\..\..\..\..\..\Software\uCOS-III\Source/os_task.c ****             return;
 115              		.loc 1 120 0
 116 007c 41E0     		b	.L1
 117              	.L7:
 121:..\..\..\..\..\..\Software\uCOS-III\Source/os_task.c ****         }
 122:..\..\..\..\..\..\Software\uCOS-III\Source/os_task.c ****         p_tcb = OSTCBCurPtr;
 118              		.loc 1 122 0
 119 007e 284B     		ldr	r3, .L10+24
 120 0080 1B68     		ldr	r3, [r3]
 121 0082 FB60     		str	r3, [r7, #12]
 122              	.L6:
 123:..\..\..\..\..\..\Software\uCOS-III\Source/os_task.c ****     }
 124:..\..\..\..\..\..\Software\uCOS-III\Source/os_task.c **** 
 125:..\..\..\..\..\..\Software\uCOS-III\Source/os_task.c **** #if (OS_CFG_MUTEX_EN == DEF_ENABLED)
 126:..\..\..\..\..\..\Software\uCOS-III\Source/os_task.c ****     p_tcb->BasePrio = prio_new;                                 /* Update base priority            
 123              		.loc 1 126 0
 124 0084 FB68     		ldr	r3, [r7, #12]
 125 0086 0B22     		movs	r2, #11
 126 0088 BA18     		adds	r2, r7, r2
 127 008a 3821     		movs	r1, #56
 128 008c 1278     		ldrb	r2, [r2]
 129 008e 5A54     		strb	r2, [r3, r1]
 127:..\..\..\..\..\..\Software\uCOS-III\Source/os_task.c **** 
 128:..\..\..\..\..\..\Software\uCOS-III\Source/os_task.c ****     if (p_tcb->MutexGrpHeadPtr != DEF_NULL) {                   /* Owning a mutex?                 
 130              		.loc 1 128 0
 131 0090 FB68     		ldr	r3, [r7, #12]
 132 0092 DB6B     		ldr	r3, [r3, #60]
 133 0094 002B     		cmp	r3, #0
 134 0096 1DD0     		beq	.L8
 129:..\..\..\..\..\..\Software\uCOS-III\Source/os_task.c ****         if (prio_new > p_tcb->Prio) {
 135              		.loc 1 129 0
 136 0098 FB68     		ldr	r3, [r7, #12]
 137 009a 3722     		movs	r2, #55
 138 009c 9B5C     		ldrb	r3, [r3, r2]
 139 009e 0B22     		movs	r2, #11
 140 00a0 BA18     		adds	r2, r7, r2
 141 00a2 1278     		ldrb	r2, [r2]
 142 00a4 9A42     		cmp	r2, r3
 143 00a6 15D9     		bls	.L8
 130:..\..\..\..\..\..\Software\uCOS-III\Source/os_task.c ****             prio_high = OS_MutexGrpPrioFindHighest(p_tcb);
 144              		.loc 1 130 0
 145 00a8 1323     		movs	r3, #19
 146 00aa FC18     		adds	r4, r7, r3
 147 00ac FB68     		ldr	r3, [r7, #12]
 148 00ae 1800     		movs	r0, r3
 149 00b0 FFF7FEFF 		bl	OS_MutexGrpPrioFindHighest
 150 00b4 0300     		movs	r3, r0
 151 00b6 2370     		strb	r3, [r4]
 131:..\..\..\..\..\..\Software\uCOS-III\Source/os_task.c ****             if (prio_new > prio_high) {
 152              		.loc 1 131 0
 153 00b8 0B23     		movs	r3, #11
 154 00ba FA18     		adds	r2, r7, r3
ARM GAS  C:\Users\ADMINI~1\AppData\Local\Temp\ccvBRVNC.s 			page 6


 155 00bc 1323     		movs	r3, #19
 156 00be FB18     		adds	r3, r7, r3
 157 00c0 1278     		ldrb	r2, [r2]
 158 00c2 1B78     		ldrb	r3, [r3]
 159 00c4 9A42     		cmp	r2, r3
 160 00c6 05D9     		bls	.L8
 132:..\..\..\..\..\..\Software\uCOS-III\Source/os_task.c ****                 prio_new = prio_high;
 161              		.loc 1 132 0
 162 00c8 0B23     		movs	r3, #11
 163 00ca FB18     		adds	r3, r7, r3
 164 00cc 1322     		movs	r2, #19
 165 00ce BA18     		adds	r2, r7, r2
 166 00d0 1278     		ldrb	r2, [r2]
 167 00d2 1A70     		strb	r2, [r3]
 168              	.L8:
 133:..\..\..\..\..\..\Software\uCOS-III\Source/os_task.c ****             }
 134:..\..\..\..\..\..\Software\uCOS-III\Source/os_task.c ****         }
 135:..\..\..\..\..\..\Software\uCOS-III\Source/os_task.c ****     }
 136:..\..\..\..\..\..\Software\uCOS-III\Source/os_task.c **** #endif
 137:..\..\..\..\..\..\Software\uCOS-III\Source/os_task.c **** 
 138:..\..\..\..\..\..\Software\uCOS-III\Source/os_task.c ****     OS_TaskChangePrio(p_tcb, prio_new);
 169              		.loc 1 138 0
 170 00d4 0B23     		movs	r3, #11
 171 00d6 FB18     		adds	r3, r7, r3
 172 00d8 1A78     		ldrb	r2, [r3]
 173 00da FB68     		ldr	r3, [r7, #12]
 174 00dc 1100     		movs	r1, r2
 175 00de 1800     		movs	r0, r3
 176 00e0 FFF7FEFF 		bl	OS_TaskChangePrio
 139:..\..\..\..\..\..\Software\uCOS-III\Source/os_task.c **** 
 140:..\..\..\..\..\..\Software\uCOS-III\Source/os_task.c ****     OS_CRITICAL_EXIT_NO_SCHED();
 177              		.loc 1 140 0
 178 00e4 FFF7FEFF 		bl	CPU_IntDisMeasStop
 179 00e8 7B69     		ldr	r3, [r7, #20]
 180 00ea 1800     		movs	r0, r3
 181 00ec FFF7FEFF 		bl	CPU_SR_Restore
 141:..\..\..\..\..\..\Software\uCOS-III\Source/os_task.c **** 
 142:..\..\..\..\..\..\Software\uCOS-III\Source/os_task.c ****     if (OSRunning == OS_STATE_OS_RUNNING) {
 182              		.loc 1 142 0
 183 00f0 094B     		ldr	r3, .L10+16
 184 00f2 1B78     		ldrb	r3, [r3]
 185 00f4 012B     		cmp	r3, #1
 186 00f6 01D1     		bne	.L9
 143:..\..\..\..\..\..\Software\uCOS-III\Source/os_task.c ****         OSSched();                                              /* Run highest priority task ready 
 187              		.loc 1 143 0
 188 00f8 FFF7FEFF 		bl	OSSched
 189              	.L9:
 144:..\..\..\..\..\..\Software\uCOS-III\Source/os_task.c ****     }
 145:..\..\..\..\..\..\Software\uCOS-III\Source/os_task.c **** 
 146:..\..\..\..\..\..\Software\uCOS-III\Source/os_task.c ****    *p_err = OS_ERR_NONE;
 190              		.loc 1 146 0
 191 00fc 7B68     		ldr	r3, [r7, #4]
 192 00fe 0022     		movs	r2, #0
 193 0100 1A80     		strh	r2, [r3]
 194              	.L1:
 147:..\..\..\..\..\..\Software\uCOS-III\Source/os_task.c **** }
 195              		.loc 1 147 0
ARM GAS  C:\Users\ADMINI~1\AppData\Local\Temp\ccvBRVNC.s 			page 7


 196 0102 BD46     		mov	sp, r7
 197 0104 07B0     		add	sp, sp, #28
 198              		@ sp needed
 199 0106 90BD     		pop	{r4, r7, pc}
 200              	.L11:
 201              		.align	2
 202              	.L10:
 203 0108 2D6E0000 		.word	28205
 204 010c 00000000 		.word	OSIntNestingCtr
 205 0110 49710000 		.word	29001
 206 0114 73620000 		.word	25203
 207 0118 00000000 		.word	OSRunning
 208 011c 895E0000 		.word	24201
 209 0120 00000000 		.word	OSTCBCurPtr
 210              		.cfi_endproc
 211              	.LFE0:
 212              		.size	OSTaskChangePrio, .-OSTaskChangePrio
 213              		.section	.text.OSTaskCreate,"ax",%progbits
 214              		.align	2
 215              		.global	OSTaskCreate
 216              		.code	16
 217              		.thumb_func
 218              		.type	OSTaskCreate, %function
 219              	OSTaskCreate:
 220              	.LFB1:
 148:..\..\..\..\..\..\Software\uCOS-III\Source/os_task.c **** #endif
 149:..\..\..\..\..\..\Software\uCOS-III\Source/os_task.c **** 
 150:..\..\..\..\..\..\Software\uCOS-III\Source/os_task.c **** 
 151:..\..\..\..\..\..\Software\uCOS-III\Source/os_task.c **** /*
 152:..\..\..\..\..\..\Software\uCOS-III\Source/os_task.c **** ***************************************************************************************************
 153:..\..\..\..\..\..\Software\uCOS-III\Source/os_task.c **** *                                                    CREATE A TASK
 154:..\..\..\..\..\..\Software\uCOS-III\Source/os_task.c **** *
 155:..\..\..\..\..\..\Software\uCOS-III\Source/os_task.c **** * Description: This function is used to have uC/OS-III manage the execution of a task.  Tasks can e
 156:..\..\..\..\..\..\Software\uCOS-III\Source/os_task.c **** *              prior to the start of multitasking or by a running task.  A task cannot be created b
 157:..\..\..\..\..\..\Software\uCOS-III\Source/os_task.c **** *
 158:..\..\..\..\..\..\Software\uCOS-III\Source/os_task.c **** * Arguments  : p_tcb          is a pointer to the task's TCB
 159:..\..\..\..\..\..\Software\uCOS-III\Source/os_task.c **** *
 160:..\..\..\..\..\..\Software\uCOS-III\Source/os_task.c **** *              p_name         is a pointer to an ASCII string to provide a name to the task.
 161:..\..\..\..\..\..\Software\uCOS-III\Source/os_task.c **** *
 162:..\..\..\..\..\..\Software\uCOS-III\Source/os_task.c **** *              p_task         is a pointer to the task's code
 163:..\..\..\..\..\..\Software\uCOS-III\Source/os_task.c **** *
 164:..\..\..\..\..\..\Software\uCOS-III\Source/os_task.c **** *              p_arg          is a pointer to an optional data area which can be used to pass param
 165:..\..\..\..\..\..\Software\uCOS-III\Source/os_task.c **** *                             the task when the task first executes.  Where the task is concerned i
 166:..\..\..\..\..\..\Software\uCOS-III\Source/os_task.c **** *                             it was invoked and passed the argument 'p_arg' as follows:
 167:..\..\..\..\..\..\Software\uCOS-III\Source/os_task.c **** *
 168:..\..\..\..\..\..\Software\uCOS-III\Source/os_task.c **** *                                 void Task (void *p_arg)
 169:..\..\..\..\..\..\Software\uCOS-III\Source/os_task.c **** *                                 {
 170:..\..\..\..\..\..\Software\uCOS-III\Source/os_task.c **** *                                     for (;;) {
 171:..\..\..\..\..\..\Software\uCOS-III\Source/os_task.c **** *                                         Task code;
 172:..\..\..\..\..\..\Software\uCOS-III\Source/os_task.c **** *                                     }
 173:..\..\..\..\..\..\Software\uCOS-III\Source/os_task.c **** *                                 }
 174:..\..\..\..\..\..\Software\uCOS-III\Source/os_task.c **** *
 175:..\..\..\..\..\..\Software\uCOS-III\Source/os_task.c **** *              prio           is the task's priority.  A unique priority MUST be assigned to each t
 176:..\..\..\..\..\..\Software\uCOS-III\Source/os_task.c **** *                             lower the number, the higher the priority.
 177:..\..\..\..\..\..\Software\uCOS-III\Source/os_task.c **** *
 178:..\..\..\..\..\..\Software\uCOS-III\Source/os_task.c **** *              p_stk_base     is a pointer to the base address of the stack (i.e. low address).
 179:..\..\..\..\..\..\Software\uCOS-III\Source/os_task.c **** *
ARM GAS  C:\Users\ADMINI~1\AppData\Local\Temp\ccvBRVNC.s 			page 8


 180:..\..\..\..\..\..\Software\uCOS-III\Source/os_task.c **** *              stk_limit      is the number of stack elements to set as 'watermark' limit for the s
 181:..\..\..\..\..\..\Software\uCOS-III\Source/os_task.c **** *                             represents the number of CPU_STK entries left before the stack is ful
 182:..\..\..\..\..\..\Software\uCOS-III\Source/os_task.c **** *                             specifying 10% of the 'stk_size' value indicates that the stack limit
 183:..\..\..\..\..\..\Software\uCOS-III\Source/os_task.c **** *                             when the stack reaches 90% full.
 184:..\..\..\..\..\..\Software\uCOS-III\Source/os_task.c **** *
 185:..\..\..\..\..\..\Software\uCOS-III\Source/os_task.c **** *              stk_size       is the size of the stack in number of elements.  If CPU_STK is set to
 186:..\..\..\..\..\..\Software\uCOS-III\Source/os_task.c **** *                             'stk_size' corresponds to the number of bytes available.  If CPU_STK 
 187:..\..\..\..\..\..\Software\uCOS-III\Source/os_task.c **** *                             CPU_INT16U, 'stk_size' contains the number of 16-bit entries availabl
 188:..\..\..\..\..\..\Software\uCOS-III\Source/os_task.c **** *                             CPU_STK is set to CPU_INT32U, 'stk_size' contains the number of 32-bi
 189:..\..\..\..\..\..\Software\uCOS-III\Source/os_task.c **** *                             available on the stack.
 190:..\..\..\..\..\..\Software\uCOS-III\Source/os_task.c **** *
 191:..\..\..\..\..\..\Software\uCOS-III\Source/os_task.c **** *              q_size         is the maximum number of messages that can be sent to the task
 192:..\..\..\..\..\..\Software\uCOS-III\Source/os_task.c **** *
 193:..\..\..\..\..\..\Software\uCOS-III\Source/os_task.c **** *              time_quanta    amount of time (in ticks) for time slice when round-robin between tas
 194:..\..\..\..\..\..\Software\uCOS-III\Source/os_task.c **** *                             the default.
 195:..\..\..\..\..\..\Software\uCOS-III\Source/os_task.c **** *
 196:..\..\..\..\..\..\Software\uCOS-III\Source/os_task.c **** *              p_ext          is a pointer to a user supplied memory location which is used as a TC
 197:..\..\..\..\..\..\Software\uCOS-III\Source/os_task.c **** *                             For example, this user memory can hold the contents of floating-point
 198:..\..\..\..\..\..\Software\uCOS-III\Source/os_task.c **** *                             during a context switch, the time each task takes to execute, the num
 199:..\..\..\..\..\..\Software\uCOS-III\Source/os_task.c **** *                             the task has been switched-in, etc.
 200:..\..\..\..\..\..\Software\uCOS-III\Source/os_task.c **** *
 201:..\..\..\..\..\..\Software\uCOS-III\Source/os_task.c **** *              opt            contains additional information (or options) about the behavior of th
 202:..\..\..\..\..\..\Software\uCOS-III\Source/os_task.c **** *                             See OS_OPT_TASK_xxx in OS.H.  Current choices are:
 203:..\..\..\..\..\..\Software\uCOS-III\Source/os_task.c **** *
 204:..\..\..\..\..\..\Software\uCOS-III\Source/os_task.c **** *                                 OS_OPT_TASK_NONE            No option selected
 205:..\..\..\..\..\..\Software\uCOS-III\Source/os_task.c **** *                                 OS_OPT_TASK_STK_CHK         Stack checking to be allowed for the 
 206:..\..\..\..\..\..\Software\uCOS-III\Source/os_task.c **** *                                 OS_OPT_TASK_STK_CLR         Clear the stack when the task is crea
 207:..\..\..\..\..\..\Software\uCOS-III\Source/os_task.c **** *                                 OS_OPT_TASK_SAVE_FP         If the CPU has floating-point registe
 208:..\..\..\..\..\..\Software\uCOS-III\Source/os_task.c **** *                                                             during a context switch.
 209:..\..\..\..\..\..\Software\uCOS-III\Source/os_task.c **** *                                 OS_OPT_TASK_NO_TLS          If the caller doesn't want or need TL
 210:..\..\..\..\..\..\Software\uCOS-III\Source/os_task.c **** *                                                             Storage) support for the task.  If yo
 211:..\..\..\..\..\..\Software\uCOS-III\Source/os_task.c **** *                                                             option, TLS will be supported by defa
 212:..\..\..\..\..\..\Software\uCOS-III\Source/os_task.c **** *
 213:..\..\..\..\..\..\Software\uCOS-III\Source/os_task.c **** *              p_err          is a pointer to an error code that will be set during this call.  The
 214:..\..\..\..\..\..\Software\uCOS-III\Source/os_task.c **** *                             to by 'p_err' can be:
 215:..\..\..\..\..\..\Software\uCOS-III\Source/os_task.c **** *
 216:..\..\..\..\..\..\Software\uCOS-III\Source/os_task.c **** *                                 OS_ERR_NONE                    If the function was successful
 217:..\..\..\..\..\..\Software\uCOS-III\Source/os_task.c **** *                                 OS_ERR_ILLEGAL_CREATE_RUN_TIME If you are trying to create the ta
 218:..\..\..\..\..\..\Software\uCOS-III\Source/os_task.c **** *                                                                   OSStart()
 219:..\..\..\..\..\..\Software\uCOS-III\Source/os_task.c **** *                                 OS_ERR_PRIO_INVALID            If the priority you specify is hig
 220:..\..\..\..\..\..\Software\uCOS-III\Source/os_task.c **** *                                                                   allowed (i.e. >= OS_CFG_PRIO_MA
 221:..\..\..\..\..\..\Software\uCOS-III\Source/os_task.c **** *                                                                If OS_CFG_ISR_POST_DEFERRED_EN is 
 222:..\..\..\..\..\..\Software\uCOS-III\Source/os_task.c **** *                                                                   to use priority 0 which is rese
 223:..\..\..\..\..\..\Software\uCOS-III\Source/os_task.c **** *                                 OS_ERR_STAT_STK_SIZE_INVALID   If the stack was overflowed during
 224:..\..\..\..\..\..\Software\uCOS-III\Source/os_task.c **** *                                 OS_ERR_STK_INVALID             If you specified a NULL pointer fo
 225:..\..\..\..\..\..\Software\uCOS-III\Source/os_task.c **** *                                 OS_ERR_STK_SIZE_INVALID        If you specified zero for the 'stk
 226:..\..\..\..\..\..\Software\uCOS-III\Source/os_task.c **** *                                 OS_ERR_STK_LIMIT_INVALID       If you specified a 'stk_limit' gre
 227:..\..\..\..\..\..\Software\uCOS-III\Source/os_task.c **** *                                                                   to 'stk_size'
 228:..\..\..\..\..\..\Software\uCOS-III\Source/os_task.c **** *                                 OS_ERR_TASK_CREATE_ISR         If you tried to create a task from
 229:..\..\..\..\..\..\Software\uCOS-III\Source/os_task.c **** *                                 OS_ERR_TASK_INVALID            If you specified a NULL pointer fo
 230:..\..\..\..\..\..\Software\uCOS-III\Source/os_task.c **** *                                 OS_ERR_TCB_INVALID             If you specified a NULL pointer fo
 231:..\..\..\..\..\..\Software\uCOS-III\Source/os_task.c **** *
 232:..\..\..\..\..\..\Software\uCOS-III\Source/os_task.c **** * Returns    : none
 233:..\..\..\..\..\..\Software\uCOS-III\Source/os_task.c **** *
 234:..\..\..\..\..\..\Software\uCOS-III\Source/os_task.c **** * Note(s)    : 1) OSTaskCreate() will return with the error OS_ERR_STAT_STK_SIZE_INVALID when a sta
 235:..\..\..\..\..\..\Software\uCOS-III\Source/os_task.c **** *                 during stack initialization. In that specific case some memory may have been corr
 236:..\..\..\..\..\..\Software\uCOS-III\Source/os_task.c **** *                 therefore recommended to treat OS_ERR_STAT_STK_SIZE_INVALID as a fatal error.
ARM GAS  C:\Users\ADMINI~1\AppData\Local\Temp\ccvBRVNC.s 			page 9


 237:..\..\..\..\..\..\Software\uCOS-III\Source/os_task.c **** ***************************************************************************************************
 238:..\..\..\..\..\..\Software\uCOS-III\Source/os_task.c **** */
 239:..\..\..\..\..\..\Software\uCOS-III\Source/os_task.c **** 
 240:..\..\..\..\..\..\Software\uCOS-III\Source/os_task.c **** void  OSTaskCreate (OS_TCB        *p_tcb,
 241:..\..\..\..\..\..\Software\uCOS-III\Source/os_task.c ****                     CPU_CHAR      *p_name,
 242:..\..\..\..\..\..\Software\uCOS-III\Source/os_task.c ****                     OS_TASK_PTR    p_task,
 243:..\..\..\..\..\..\Software\uCOS-III\Source/os_task.c ****                     void          *p_arg,
 244:..\..\..\..\..\..\Software\uCOS-III\Source/os_task.c ****                     OS_PRIO        prio,
 245:..\..\..\..\..\..\Software\uCOS-III\Source/os_task.c ****                     CPU_STK       *p_stk_base,
 246:..\..\..\..\..\..\Software\uCOS-III\Source/os_task.c ****                     CPU_STK_SIZE   stk_limit,
 247:..\..\..\..\..\..\Software\uCOS-III\Source/os_task.c ****                     CPU_STK_SIZE   stk_size,
 248:..\..\..\..\..\..\Software\uCOS-III\Source/os_task.c ****                     OS_MSG_QTY     q_size,
 249:..\..\..\..\..\..\Software\uCOS-III\Source/os_task.c ****                     OS_TICK        time_quanta,
 250:..\..\..\..\..\..\Software\uCOS-III\Source/os_task.c ****                     void          *p_ext,
 251:..\..\..\..\..\..\Software\uCOS-III\Source/os_task.c ****                     OS_OPT         opt,
 252:..\..\..\..\..\..\Software\uCOS-III\Source/os_task.c ****                     OS_ERR        *p_err)
 253:..\..\..\..\..\..\Software\uCOS-III\Source/os_task.c **** {
 221              		.loc 1 253 0
 222              		.cfi_startproc
 223              		@ args = 36, pretend = 0, frame = 40
 224              		@ frame_needed = 1, uses_anonymous_args = 0
 225 0000 90B5     		push	{r4, r7, lr}
 226              		.cfi_def_cfa_offset 12
 227              		.cfi_offset 4, -12
 228              		.cfi_offset 7, -8
 229              		.cfi_offset 14, -4
 230 0002 8DB0     		sub	sp, sp, #52
 231              		.cfi_def_cfa_offset 64
 232 0004 02AF     		add	r7, sp, #8
 233              		.cfi_def_cfa 7, 56
 234 0006 F860     		str	r0, [r7, #12]
 235 0008 B960     		str	r1, [r7, #8]
 236 000a 7A60     		str	r2, [r7, #4]
 237 000c 3B60     		str	r3, [r7]
 254:..\..\..\..\..\..\Software\uCOS-III\Source/os_task.c ****     CPU_STK_SIZE   i;
 255:..\..\..\..\..\..\Software\uCOS-III\Source/os_task.c **** #if (OS_CFG_TASK_REG_TBL_SIZE > 0u)
 256:..\..\..\..\..\..\Software\uCOS-III\Source/os_task.c ****     OS_REG_ID      reg_nbr;
 257:..\..\..\..\..\..\Software\uCOS-III\Source/os_task.c **** #endif
 258:..\..\..\..\..\..\Software\uCOS-III\Source/os_task.c **** #if defined(OS_CFG_TLS_TBL_SIZE) && (OS_CFG_TLS_TBL_SIZE > 0u)
 259:..\..\..\..\..\..\Software\uCOS-III\Source/os_task.c ****     OS_TLS_ID      id;
 260:..\..\..\..\..\..\Software\uCOS-III\Source/os_task.c **** #endif
 261:..\..\..\..\..\..\Software\uCOS-III\Source/os_task.c **** 
 262:..\..\..\..\..\..\Software\uCOS-III\Source/os_task.c ****     CPU_STK       *p_sp;
 263:..\..\..\..\..\..\Software\uCOS-III\Source/os_task.c ****     CPU_STK       *p_stk_limit;
 264:..\..\..\..\..\..\Software\uCOS-III\Source/os_task.c ****     CPU_SR_ALLOC();
 238              		.loc 1 264 0
 239 000e 0023     		movs	r3, #0
 240 0010 BB61     		str	r3, [r7, #24]
 265:..\..\..\..\..\..\Software\uCOS-III\Source/os_task.c **** 
 266:..\..\..\..\..\..\Software\uCOS-III\Source/os_task.c **** 
 267:..\..\..\..\..\..\Software\uCOS-III\Source/os_task.c **** 
 268:..\..\..\..\..\..\Software\uCOS-III\Source/os_task.c **** #ifdef OS_SAFETY_CRITICAL
 269:..\..\..\..\..\..\Software\uCOS-III\Source/os_task.c ****     if (p_err == DEF_NULL) {
 270:..\..\..\..\..\..\Software\uCOS-III\Source/os_task.c ****         OS_SAFETY_CRITICAL_EXCEPTION();
 271:..\..\..\..\..\..\Software\uCOS-III\Source/os_task.c ****         return;
 272:..\..\..\..\..\..\Software\uCOS-III\Source/os_task.c ****     }
 273:..\..\..\..\..\..\Software\uCOS-III\Source/os_task.c **** #endif
ARM GAS  C:\Users\ADMINI~1\AppData\Local\Temp\ccvBRVNC.s 			page 10


 274:..\..\..\..\..\..\Software\uCOS-III\Source/os_task.c **** 
 275:..\..\..\..\..\..\Software\uCOS-III\Source/os_task.c **** #ifdef OS_SAFETY_CRITICAL_IEC61508
 276:..\..\..\..\..\..\Software\uCOS-III\Source/os_task.c ****     if (OSSafetyCriticalStartFlag == DEF_TRUE) {
 277:..\..\..\..\..\..\Software\uCOS-III\Source/os_task.c ****        *p_err = OS_ERR_ILLEGAL_CREATE_RUN_TIME;
 278:..\..\..\..\..\..\Software\uCOS-III\Source/os_task.c ****         return;
 279:..\..\..\..\..\..\Software\uCOS-III\Source/os_task.c ****     }
 280:..\..\..\..\..\..\Software\uCOS-III\Source/os_task.c **** #endif
 281:..\..\..\..\..\..\Software\uCOS-III\Source/os_task.c **** 
 282:..\..\..\..\..\..\Software\uCOS-III\Source/os_task.c **** #if (OS_CFG_CALLED_FROM_ISR_CHK_EN == DEF_ENABLED)
 283:..\..\..\..\..\..\Software\uCOS-III\Source/os_task.c ****     if (OSIntNestingCtr > 0u) {                                 /* --------- CANNOT CREATE A TASK F
 241              		.loc 1 283 0
 242 0012 864B     		ldr	r3, .L30
 243 0014 1B78     		ldrb	r3, [r3]
 244 0016 002B     		cmp	r3, #0
 245 0018 03D0     		beq	.L13
 284:..\..\..\..\..\..\Software\uCOS-III\Source/os_task.c **** #if (defined(TRACE_CFG_EN) && (TRACE_CFG_EN == DEF_ENABLED))
 285:..\..\..\..\..\..\Software\uCOS-III\Source/os_task.c ****         TRACE_OS_TASK_CREATE_FAILED(p_tcb);                     /* Record the event.               
 286:..\..\..\..\..\..\Software\uCOS-III\Source/os_task.c **** #endif
 287:..\..\..\..\..\..\Software\uCOS-III\Source/os_task.c ****        *p_err = OS_ERR_TASK_CREATE_ISR;
 246              		.loc 1 287 0
 247 001a BB6D     		ldr	r3, [r7, #88]
 248 001c 844A     		ldr	r2, .L30+4
 249 001e 1A80     		strh	r2, [r3]
 288:..\..\..\..\..\..\Software\uCOS-III\Source/os_task.c ****         return;
 250              		.loc 1 288 0
 251 0020 00E1     		b	.L12
 252              	.L13:
 289:..\..\..\..\..\..\Software\uCOS-III\Source/os_task.c ****     }
 290:..\..\..\..\..\..\Software\uCOS-III\Source/os_task.c **** #endif
 291:..\..\..\..\..\..\Software\uCOS-III\Source/os_task.c **** 
 292:..\..\..\..\..\..\Software\uCOS-III\Source/os_task.c **** #if (OS_CFG_ARG_CHK_EN == DEF_ENABLED)                          /* ---------------- VALIDATE ARGUME
 293:..\..\..\..\..\..\Software\uCOS-III\Source/os_task.c ****     if (p_tcb == DEF_NULL) {                                    /* User must supply a valid OS_TCB 
 253              		.loc 1 293 0
 254 0022 FB68     		ldr	r3, [r7, #12]
 255 0024 002B     		cmp	r3, #0
 256 0026 03D1     		bne	.L15
 294:..\..\..\..\..\..\Software\uCOS-III\Source/os_task.c **** #if (defined(TRACE_CFG_EN) && (TRACE_CFG_EN == DEF_ENABLED))
 295:..\..\..\..\..\..\Software\uCOS-III\Source/os_task.c ****         TRACE_OS_TASK_CREATE_FAILED(p_tcb);                     /* Record the event.               
 296:..\..\..\..\..\..\Software\uCOS-III\Source/os_task.c **** #endif
 297:..\..\..\..\..\..\Software\uCOS-III\Source/os_task.c ****        *p_err = OS_ERR_TCB_INVALID;
 257              		.loc 1 297 0
 258 0028 BB6D     		ldr	r3, [r7, #88]
 259 002a 824A     		ldr	r2, .L30+8
 260 002c 1A80     		strh	r2, [r3]
 298:..\..\..\..\..\..\Software\uCOS-III\Source/os_task.c ****         return;
 261              		.loc 1 298 0
 262 002e F9E0     		b	.L12
 263              	.L15:
 299:..\..\..\..\..\..\Software\uCOS-III\Source/os_task.c ****     }
 300:..\..\..\..\..\..\Software\uCOS-III\Source/os_task.c ****     if (p_task == 0u) {                                         /* User must supply a valid task   
 264              		.loc 1 300 0
 265 0030 7B68     		ldr	r3, [r7, #4]
 266 0032 002B     		cmp	r3, #0
 267 0034 03D1     		bne	.L16
 301:..\..\..\..\..\..\Software\uCOS-III\Source/os_task.c **** #if (defined(TRACE_CFG_EN) && (TRACE_CFG_EN == DEF_ENABLED))
 302:..\..\..\..\..\..\Software\uCOS-III\Source/os_task.c ****         TRACE_OS_TASK_CREATE_FAILED(p_tcb);                     /* Record the event.               
 303:..\..\..\..\..\..\Software\uCOS-III\Source/os_task.c **** #endif
ARM GAS  C:\Users\ADMINI~1\AppData\Local\Temp\ccvBRVNC.s 			page 11


 304:..\..\..\..\..\..\Software\uCOS-III\Source/os_task.c ****        *p_err = OS_ERR_TASK_INVALID;
 268              		.loc 1 304 0
 269 0036 BB6D     		ldr	r3, [r7, #88]
 270 0038 7F4A     		ldr	r2, .L30+12
 271 003a 1A80     		strh	r2, [r3]
 305:..\..\..\..\..\..\Software\uCOS-III\Source/os_task.c ****         return;
 272              		.loc 1 305 0
 273 003c F2E0     		b	.L12
 274              	.L16:
 306:..\..\..\..\..\..\Software\uCOS-III\Source/os_task.c ****     }
 307:..\..\..\..\..\..\Software\uCOS-III\Source/os_task.c ****     if (p_stk_base == DEF_NULL) {                               /* User must supply a valid stack b
 275              		.loc 1 307 0
 276 003e FB6B     		ldr	r3, [r7, #60]
 277 0040 002B     		cmp	r3, #0
 278 0042 03D1     		bne	.L17
 308:..\..\..\..\..\..\Software\uCOS-III\Source/os_task.c **** #if (defined(TRACE_CFG_EN) && (TRACE_CFG_EN == DEF_ENABLED))
 309:..\..\..\..\..\..\Software\uCOS-III\Source/os_task.c ****         TRACE_OS_TASK_CREATE_FAILED(p_tcb);                     /* Record the event.               
 310:..\..\..\..\..\..\Software\uCOS-III\Source/os_task.c **** #endif
 311:..\..\..\..\..\..\Software\uCOS-III\Source/os_task.c ****        *p_err = OS_ERR_STK_INVALID;
 279              		.loc 1 311 0
 280 0044 BB6D     		ldr	r3, [r7, #88]
 281 0046 7D4A     		ldr	r2, .L30+16
 282 0048 1A80     		strh	r2, [r3]
 312:..\..\..\..\..\..\Software\uCOS-III\Source/os_task.c ****         return;
 283              		.loc 1 312 0
 284 004a EBE0     		b	.L12
 285              	.L17:
 313:..\..\..\..\..\..\Software\uCOS-III\Source/os_task.c ****     }
 314:..\..\..\..\..\..\Software\uCOS-III\Source/os_task.c ****     if (stk_size < OSCfg_StkSizeMin) {                          /* User must supply a valid minimum
 286              		.loc 1 314 0
 287 004c 7C4B     		ldr	r3, .L30+20
 288 004e 1B68     		ldr	r3, [r3]
 289 0050 7A6C     		ldr	r2, [r7, #68]
 290 0052 9A42     		cmp	r2, r3
 291 0054 03D2     		bcs	.L18
 315:..\..\..\..\..\..\Software\uCOS-III\Source/os_task.c **** #if (defined(TRACE_CFG_EN) && (TRACE_CFG_EN == DEF_ENABLED))
 316:..\..\..\..\..\..\Software\uCOS-III\Source/os_task.c ****         TRACE_OS_TASK_CREATE_FAILED(p_tcb);                     /* Record the event.               
 317:..\..\..\..\..\..\Software\uCOS-III\Source/os_task.c **** #endif
 318:..\..\..\..\..\..\Software\uCOS-III\Source/os_task.c ****        *p_err = OS_ERR_STK_SIZE_INVALID;
 292              		.loc 1 318 0
 293 0056 BB6D     		ldr	r3, [r7, #88]
 294 0058 7A4A     		ldr	r2, .L30+24
 295 005a 1A80     		strh	r2, [r3]
 319:..\..\..\..\..\..\Software\uCOS-III\Source/os_task.c ****         return;
 296              		.loc 1 319 0
 297 005c E2E0     		b	.L12
 298              	.L18:
 320:..\..\..\..\..\..\Software\uCOS-III\Source/os_task.c ****     }
 321:..\..\..\..\..\..\Software\uCOS-III\Source/os_task.c ****     if (stk_limit >= stk_size) {                                /* User must supply a valid stack l
 299              		.loc 1 321 0
 300 005e 3A6C     		ldr	r2, [r7, #64]
 301 0060 7B6C     		ldr	r3, [r7, #68]
 302 0062 9A42     		cmp	r2, r3
 303 0064 03D3     		bcc	.L19
 322:..\..\..\..\..\..\Software\uCOS-III\Source/os_task.c **** #if (defined(TRACE_CFG_EN) && (TRACE_CFG_EN == DEF_ENABLED))
 323:..\..\..\..\..\..\Software\uCOS-III\Source/os_task.c ****         TRACE_OS_TASK_CREATE_FAILED(p_tcb);                     /* Record the event.               
 324:..\..\..\..\..\..\Software\uCOS-III\Source/os_task.c **** #endif
ARM GAS  C:\Users\ADMINI~1\AppData\Local\Temp\ccvBRVNC.s 			page 12


 325:..\..\..\..\..\..\Software\uCOS-III\Source/os_task.c ****        *p_err = OS_ERR_STK_LIMIT_INVALID;
 304              		.loc 1 325 0
 305 0066 BB6D     		ldr	r3, [r7, #88]
 306 0068 774A     		ldr	r2, .L30+28
 307 006a 1A80     		strh	r2, [r3]
 326:..\..\..\..\..\..\Software\uCOS-III\Source/os_task.c ****         return;
 308              		.loc 1 326 0
 309 006c DAE0     		b	.L12
 310              	.L19:
 327:..\..\..\..\..\..\Software\uCOS-III\Source/os_task.c ****     }
 328:..\..\..\..\..\..\Software\uCOS-III\Source/os_task.c ****     if (prio >= OS_CFG_PRIO_MAX) {                              /* Priority must be within 0 and OS
 311              		.loc 1 328 0
 312 006e 3823     		movs	r3, #56
 313 0070 FB18     		adds	r3, r7, r3
 314 0072 1B78     		ldrb	r3, [r3]
 315 0074 1F2B     		cmp	r3, #31
 316 0076 03D9     		bls	.L20
 329:..\..\..\..\..\..\Software\uCOS-III\Source/os_task.c **** #if (defined(TRACE_CFG_EN) && (TRACE_CFG_EN == DEF_ENABLED))
 330:..\..\..\..\..\..\Software\uCOS-III\Source/os_task.c ****         TRACE_OS_TASK_CREATE_FAILED(p_tcb);                     /* Record the event.               
 331:..\..\..\..\..\..\Software\uCOS-III\Source/os_task.c **** #endif
 332:..\..\..\..\..\..\Software\uCOS-III\Source/os_task.c ****        *p_err = OS_ERR_PRIO_INVALID;
 317              		.loc 1 332 0
 318 0078 BB6D     		ldr	r3, [r7, #88]
 319 007a 744A     		ldr	r2, .L30+32
 320 007c 1A80     		strh	r2, [r3]
 333:..\..\..\..\..\..\Software\uCOS-III\Source/os_task.c ****         return;
 321              		.loc 1 333 0
 322 007e D1E0     		b	.L12
 323              	.L20:
 334:..\..\..\..\..\..\Software\uCOS-III\Source/os_task.c ****     }
 335:..\..\..\..\..\..\Software\uCOS-III\Source/os_task.c **** #endif
 336:..\..\..\..\..\..\Software\uCOS-III\Source/os_task.c **** 
 337:..\..\..\..\..\..\Software\uCOS-III\Source/os_task.c **** #if (OS_CFG_ISR_POST_DEFERRED_EN == DEF_ENABLED)
 338:..\..\..\..\..\..\Software\uCOS-III\Source/os_task.c ****     if (prio == 0u) {
 339:..\..\..\..\..\..\Software\uCOS-III\Source/os_task.c ****         if (p_tcb != &OSIntQTaskTCB) {
 340:..\..\..\..\..\..\Software\uCOS-III\Source/os_task.c **** #if (defined(TRACE_CFG_EN) && (TRACE_CFG_EN == DEF_ENABLED))
 341:..\..\..\..\..\..\Software\uCOS-III\Source/os_task.c ****             TRACE_OS_TASK_CREATE_FAILED(p_tcb);                 /* Record the event.               
 342:..\..\..\..\..\..\Software\uCOS-III\Source/os_task.c **** #endif
 343:..\..\..\..\..\..\Software\uCOS-III\Source/os_task.c ****            *p_err = OS_ERR_PRIO_INVALID;                        /* Not allowed to use priority 0   
 344:..\..\..\..\..\..\Software\uCOS-III\Source/os_task.c ****             return;
 345:..\..\..\..\..\..\Software\uCOS-III\Source/os_task.c ****         }
 346:..\..\..\..\..\..\Software\uCOS-III\Source/os_task.c ****     }
 347:..\..\..\..\..\..\Software\uCOS-III\Source/os_task.c **** #endif
 348:..\..\..\..\..\..\Software\uCOS-III\Source/os_task.c **** 
 349:..\..\..\..\..\..\Software\uCOS-III\Source/os_task.c ****     if (prio == (OS_CFG_PRIO_MAX - 1u)) {
 324              		.loc 1 349 0
 325 0080 3823     		movs	r3, #56
 326 0082 FB18     		adds	r3, r7, r3
 327 0084 1B78     		ldrb	r3, [r3]
 328 0086 1F2B     		cmp	r3, #31
 329 0088 07D1     		bne	.L21
 350:..\..\..\..\..\..\Software\uCOS-III\Source/os_task.c **** #if (OS_CFG_TASK_IDLE_EN == DEF_ENABLED)
 351:..\..\..\..\..\..\Software\uCOS-III\Source/os_task.c ****         if (p_tcb != &OSIdleTaskTCB) {
 330              		.loc 1 351 0
 331 008a FA68     		ldr	r2, [r7, #12]
 332 008c 704B     		ldr	r3, .L30+36
 333 008e 9A42     		cmp	r2, r3
ARM GAS  C:\Users\ADMINI~1\AppData\Local\Temp\ccvBRVNC.s 			page 13


 334 0090 03D0     		beq	.L21
 352:..\..\..\..\..\..\Software\uCOS-III\Source/os_task.c **** #if (defined(TRACE_CFG_EN) && (TRACE_CFG_EN == DEF_ENABLED))
 353:..\..\..\..\..\..\Software\uCOS-III\Source/os_task.c ****             TRACE_OS_TASK_CREATE_FAILED(p_tcb);                 /* Record the event.               
 354:..\..\..\..\..\..\Software\uCOS-III\Source/os_task.c **** #endif
 355:..\..\..\..\..\..\Software\uCOS-III\Source/os_task.c ****            *p_err = OS_ERR_PRIO_INVALID;                        /* Not allowed to use same priority
 335              		.loc 1 355 0
 336 0092 BB6D     		ldr	r3, [r7, #88]
 337 0094 6D4A     		ldr	r2, .L30+32
 338 0096 1A80     		strh	r2, [r3]
 356:..\..\..\..\..\..\Software\uCOS-III\Source/os_task.c ****             return;
 339              		.loc 1 356 0
 340 0098 C4E0     		b	.L12
 341              	.L21:
 357:..\..\..\..\..\..\Software\uCOS-III\Source/os_task.c ****         }
 358:..\..\..\..\..\..\Software\uCOS-III\Source/os_task.c **** #else
 359:..\..\..\..\..\..\Software\uCOS-III\Source/os_task.c **** #if (defined(TRACE_CFG_EN) && (TRACE_CFG_EN == DEF_ENABLED))
 360:..\..\..\..\..\..\Software\uCOS-III\Source/os_task.c ****         TRACE_OS_TASK_CREATE_FAILED(p_tcb);                     /* Record the event.               
 361:..\..\..\..\..\..\Software\uCOS-III\Source/os_task.c **** #endif
 362:..\..\..\..\..\..\Software\uCOS-III\Source/os_task.c ****        *p_err = OS_ERR_PRIO_INVALID;                            /* Not allowed to use same priority
 363:..\..\..\..\..\..\Software\uCOS-III\Source/os_task.c ****         return;
 364:..\..\..\..\..\..\Software\uCOS-III\Source/os_task.c **** #endif
 365:..\..\..\..\..\..\Software\uCOS-III\Source/os_task.c ****     }
 366:..\..\..\..\..\..\Software\uCOS-III\Source/os_task.c **** 
 367:..\..\..\..\..\..\Software\uCOS-III\Source/os_task.c ****     OS_TaskInitTCB(p_tcb);                                      /* Initialize the TCB to default va
 342              		.loc 1 367 0
 343 009a FB68     		ldr	r3, [r7, #12]
 344 009c 1800     		movs	r0, r3
 345 009e FFF7FEFF 		bl	OS_TaskInitTCB
 368:..\..\..\..\..\..\Software\uCOS-III\Source/os_task.c **** 
 369:..\..\..\..\..\..\Software\uCOS-III\Source/os_task.c ****    *p_err = OS_ERR_NONE;
 346              		.loc 1 369 0
 347 00a2 BB6D     		ldr	r3, [r7, #88]
 348 00a4 0022     		movs	r2, #0
 349 00a6 1A80     		strh	r2, [r3]
 370:..\..\..\..\..\..\Software\uCOS-III\Source/os_task.c ****                                                                 /* -------------- CLEAR THE TASK'S 
 371:..\..\..\..\..\..\Software\uCOS-III\Source/os_task.c ****     if (((opt & OS_OPT_TASK_STK_CHK) != 0u) ||                  /* See if stack checking has been e
 350              		.loc 1 371 0
 351 00a8 5423     		movs	r3, #84
 352 00aa FB18     		adds	r3, r7, r3
 353 00ac 1B88     		ldrh	r3, [r3]
 354 00ae 0122     		movs	r2, #1
 355 00b0 1340     		ands	r3, r2
 356 00b2 05D1     		bne	.L22
 372:..\..\..\..\..\..\Software\uCOS-III\Source/os_task.c ****         ((opt & OS_OPT_TASK_STK_CLR) != 0u)) {                  /* See if stack needs to be cleared
 357              		.loc 1 372 0 discriminator 1
 358 00b4 5423     		movs	r3, #84
 359 00b6 FB18     		adds	r3, r7, r3
 360 00b8 1B88     		ldrh	r3, [r3]
 361 00ba 0222     		movs	r2, #2
 362 00bc 1340     		ands	r3, r2
 371:..\..\..\..\..\..\Software\uCOS-III\Source/os_task.c ****         ((opt & OS_OPT_TASK_STK_CLR) != 0u)) {                  /* See if stack needs to be cleared
 363              		.loc 1 371 0 discriminator 1
 364 00be 17D0     		beq	.L23
 365              	.L22:
 373:..\..\..\..\..\..\Software\uCOS-III\Source/os_task.c ****         if ((opt & OS_OPT_TASK_STK_CLR) != 0u) {
 366              		.loc 1 373 0
 367 00c0 5423     		movs	r3, #84
ARM GAS  C:\Users\ADMINI~1\AppData\Local\Temp\ccvBRVNC.s 			page 14


 368 00c2 FB18     		adds	r3, r7, r3
 369 00c4 1B88     		ldrh	r3, [r3]
 370 00c6 0222     		movs	r2, #2
 371 00c8 1340     		ands	r3, r2
 372 00ca 11D0     		beq	.L23
 374:..\..\..\..\..\..\Software\uCOS-III\Source/os_task.c ****             p_sp = p_stk_base;
 373              		.loc 1 374 0
 374 00cc FB6B     		ldr	r3, [r7, #60]
 375 00ce FB61     		str	r3, [r7, #28]
 375:..\..\..\..\..\..\Software\uCOS-III\Source/os_task.c ****             for (i = 0u; i < stk_size; i++) {                   /* Stack grows from HIGH to LOW mem
 376              		.loc 1 375 0
 377 00d0 0023     		movs	r3, #0
 378 00d2 7B62     		str	r3, [r7, #36]
 379 00d4 08E0     		b	.L24
 380              	.L25:
 376:..\..\..\..\..\..\Software\uCOS-III\Source/os_task.c ****                *p_sp = 0u;                                      /* Clear from bottom of stack and u
 381              		.loc 1 376 0 discriminator 3
 382 00d6 FB69     		ldr	r3, [r7, #28]
 383 00d8 0022     		movs	r2, #0
 384 00da 1A60     		str	r2, [r3]
 377:..\..\..\..\..\..\Software\uCOS-III\Source/os_task.c ****                 p_sp++;
 385              		.loc 1 377 0 discriminator 3
 386 00dc FB69     		ldr	r3, [r7, #28]
 387 00de 0433     		adds	r3, r3, #4
 388 00e0 FB61     		str	r3, [r7, #28]
 375:..\..\..\..\..\..\Software\uCOS-III\Source/os_task.c ****             for (i = 0u; i < stk_size; i++) {                   /* Stack grows from HIGH to LOW mem
 389              		.loc 1 375 0 discriminator 3
 390 00e2 7B6A     		ldr	r3, [r7, #36]
 391 00e4 0133     		adds	r3, r3, #1
 392 00e6 7B62     		str	r3, [r7, #36]
 393              	.L24:
 375:..\..\..\..\..\..\Software\uCOS-III\Source/os_task.c ****             for (i = 0u; i < stk_size; i++) {                   /* Stack grows from HIGH to LOW mem
 394              		.loc 1 375 0 is_stmt 0 discriminator 1
 395 00e8 7A6A     		ldr	r2, [r7, #36]
 396 00ea 7B6C     		ldr	r3, [r7, #68]
 397 00ec 9A42     		cmp	r2, r3
 398 00ee F2D3     		bcc	.L25
 399              	.L23:
 378:..\..\..\..\..\..\Software\uCOS-III\Source/os_task.c ****             }
 379:..\..\..\..\..\..\Software\uCOS-III\Source/os_task.c ****         }
 380:..\..\..\..\..\..\Software\uCOS-III\Source/os_task.c ****     }
 381:..\..\..\..\..\..\Software\uCOS-III\Source/os_task.c ****                                                                 /* ------ INITIALIZE THE STACK FRAM
 382:..\..\..\..\..\..\Software\uCOS-III\Source/os_task.c **** #if (CPU_CFG_STK_GROWTH == CPU_STK_GROWTH_HI_TO_LO)
 383:..\..\..\..\..\..\Software\uCOS-III\Source/os_task.c ****     p_stk_limit = p_stk_base + stk_limit;
 400              		.loc 1 383 0 is_stmt 1
 401 00f0 3B6C     		ldr	r3, [r7, #64]
 402 00f2 9B00     		lsls	r3, r3, #2
 403 00f4 FA6B     		ldr	r2, [r7, #60]
 404 00f6 D318     		adds	r3, r2, r3
 405 00f8 7B61     		str	r3, [r7, #20]
 384:..\..\..\..\..\..\Software\uCOS-III\Source/os_task.c **** #else
 385:..\..\..\..\..\..\Software\uCOS-III\Source/os_task.c ****     p_stk_limit = p_stk_base + (stk_size - 1u) - stk_limit;
 386:..\..\..\..\..\..\Software\uCOS-III\Source/os_task.c **** #endif
 387:..\..\..\..\..\..\Software\uCOS-III\Source/os_task.c **** 
 388:..\..\..\..\..\..\Software\uCOS-III\Source/os_task.c ****     p_sp = OSTaskStkInit(p_task,
 406              		.loc 1 388 0
 407 00fa 7C69     		ldr	r4, [r7, #20]
ARM GAS  C:\Users\ADMINI~1\AppData\Local\Temp\ccvBRVNC.s 			page 15


 408 00fc FA6B     		ldr	r2, [r7, #60]
 409 00fe 3968     		ldr	r1, [r7]
 410 0100 7868     		ldr	r0, [r7, #4]
 411 0102 5423     		movs	r3, #84
 412 0104 FB18     		adds	r3, r7, r3
 413 0106 1B88     		ldrh	r3, [r3]
 414 0108 0193     		str	r3, [sp, #4]
 415 010a 7B6C     		ldr	r3, [r7, #68]
 416 010c 0093     		str	r3, [sp]
 417 010e 2300     		movs	r3, r4
 418 0110 FFF7FEFF 		bl	OSTaskStkInit
 419 0114 0300     		movs	r3, r0
 420 0116 FB61     		str	r3, [r7, #28]
 389:..\..\..\..\..\..\Software\uCOS-III\Source/os_task.c ****                          p_arg,
 390:..\..\..\..\..\..\Software\uCOS-III\Source/os_task.c ****                          p_stk_base,
 391:..\..\..\..\..\..\Software\uCOS-III\Source/os_task.c ****                          p_stk_limit,
 392:..\..\..\..\..\..\Software\uCOS-III\Source/os_task.c ****                          stk_size,
 393:..\..\..\..\..\..\Software\uCOS-III\Source/os_task.c ****                          opt);
 394:..\..\..\..\..\..\Software\uCOS-III\Source/os_task.c **** 
 395:..\..\..\..\..\..\Software\uCOS-III\Source/os_task.c **** #if (CPU_CFG_STK_GROWTH == CPU_STK_GROWTH_HI_TO_LO)             /* Check if we overflown the stack 
 396:..\..\..\..\..\..\Software\uCOS-III\Source/os_task.c ****     if (p_sp < p_stk_base) {
 421              		.loc 1 396 0
 422 0118 FA69     		ldr	r2, [r7, #28]
 423 011a FB6B     		ldr	r3, [r7, #60]
 424 011c 9A42     		cmp	r2, r3
 425 011e 03D2     		bcs	.L26
 397:..\..\..\..\..\..\Software\uCOS-III\Source/os_task.c ****        *p_err = OS_ERR_STAT_STK_SIZE_INVALID;
 426              		.loc 1 397 0
 427 0120 BB6D     		ldr	r3, [r7, #88]
 428 0122 4C4A     		ldr	r2, .L30+40
 429 0124 1A80     		strh	r2, [r3]
 398:..\..\..\..\..\..\Software\uCOS-III\Source/os_task.c ****         return;
 430              		.loc 1 398 0
 431 0126 7DE0     		b	.L12
 432              	.L26:
 399:..\..\..\..\..\..\Software\uCOS-III\Source/os_task.c ****     }
 400:..\..\..\..\..\..\Software\uCOS-III\Source/os_task.c **** #else
 401:..\..\..\..\..\..\Software\uCOS-III\Source/os_task.c ****     if (p_sp > p_stk_base + stk_size) {
 402:..\..\..\..\..\..\Software\uCOS-III\Source/os_task.c ****        *p_err = OS_ERR_STAT_STK_SIZE_INVALID;
 403:..\..\..\..\..\..\Software\uCOS-III\Source/os_task.c ****         return;
 404:..\..\..\..\..\..\Software\uCOS-III\Source/os_task.c ****     }
 405:..\..\..\..\..\..\Software\uCOS-III\Source/os_task.c **** #endif
 406:..\..\..\..\..\..\Software\uCOS-III\Source/os_task.c **** 
 407:..\..\..\..\..\..\Software\uCOS-III\Source/os_task.c **** #if (OS_CFG_TASK_STK_REDZONE_EN == DEF_ENABLED)                 /* Initialize Redzoned stack       
 408:..\..\..\..\..\..\Software\uCOS-III\Source/os_task.c ****     OS_TaskStkRedzoneInit(p_stk_base, stk_size);
 409:..\..\..\..\..\..\Software\uCOS-III\Source/os_task.c **** #endif
 410:..\..\..\..\..\..\Software\uCOS-III\Source/os_task.c **** 
 411:..\..\..\..\..\..\Software\uCOS-III\Source/os_task.c ****                                                                 /* ------------ INITIALIZE THE TCB 
 412:..\..\..\..\..\..\Software\uCOS-III\Source/os_task.c **** #if (OS_CFG_DBG_EN == DEF_ENABLED)
 413:..\..\..\..\..\..\Software\uCOS-III\Source/os_task.c ****     p_tcb->TaskEntryAddr = p_task;                              /* Save task entry point address   
 433              		.loc 1 413 0
 434 0128 FB68     		ldr	r3, [r7, #12]
 435 012a 7A68     		ldr	r2, [r7, #4]
 436 012c 9A62     		str	r2, [r3, #40]
 414:..\..\..\..\..\..\Software\uCOS-III\Source/os_task.c ****     p_tcb->TaskEntryArg  = p_arg;                               /* Save task entry argument        
 437              		.loc 1 414 0
 438 012e FB68     		ldr	r3, [r7, #12]
ARM GAS  C:\Users\ADMINI~1\AppData\Local\Temp\ccvBRVNC.s 			page 16


 439 0130 3A68     		ldr	r2, [r7]
 440 0132 DA62     		str	r2, [r3, #44]
 415:..\..\..\..\..\..\Software\uCOS-III\Source/os_task.c **** #endif
 416:..\..\..\..\..\..\Software\uCOS-III\Source/os_task.c **** 
 417:..\..\..\..\..\..\Software\uCOS-III\Source/os_task.c **** #if (OS_CFG_DBG_EN == DEF_ENABLED)
 418:..\..\..\..\..\..\Software\uCOS-III\Source/os_task.c ****     p_tcb->NamePtr       = p_name;                              /* Save task name                  
 441              		.loc 1 418 0
 442 0134 FB68     		ldr	r3, [r7, #12]
 443 0136 BA68     		ldr	r2, [r7, #8]
 444 0138 9A60     		str	r2, [r3, #8]
 419:..\..\..\..\..\..\Software\uCOS-III\Source/os_task.c **** #else
 420:..\..\..\..\..\..\Software\uCOS-III\Source/os_task.c ****     (void)&p_name;
 421:..\..\..\..\..\..\Software\uCOS-III\Source/os_task.c **** #endif
 422:..\..\..\..\..\..\Software\uCOS-III\Source/os_task.c **** 
 423:..\..\..\..\..\..\Software\uCOS-III\Source/os_task.c ****     p_tcb->Prio          = prio;                                /* Save the task's priority        
 445              		.loc 1 423 0
 446 013a FB68     		ldr	r3, [r7, #12]
 447 013c 3822     		movs	r2, #56
 448 013e BA18     		adds	r2, r7, r2
 449 0140 3721     		movs	r1, #55
 450 0142 1278     		ldrb	r2, [r2]
 451 0144 5A54     		strb	r2, [r3, r1]
 424:..\..\..\..\..\..\Software\uCOS-III\Source/os_task.c **** 
 425:..\..\..\..\..\..\Software\uCOS-III\Source/os_task.c **** #if (OS_CFG_MUTEX_EN == DEF_ENABLED)
 426:..\..\..\..\..\..\Software\uCOS-III\Source/os_task.c ****     p_tcb->BasePrio      = prio;                                /* Set the base priority           
 452              		.loc 1 426 0
 453 0146 FB68     		ldr	r3, [r7, #12]
 454 0148 3822     		movs	r2, #56
 455 014a BA18     		adds	r2, r7, r2
 456 014c 3821     		movs	r1, #56
 457 014e 1278     		ldrb	r2, [r2]
 458 0150 5A54     		strb	r2, [r3, r1]
 427:..\..\..\..\..\..\Software\uCOS-III\Source/os_task.c **** #endif
 428:..\..\..\..\..\..\Software\uCOS-III\Source/os_task.c **** 
 429:..\..\..\..\..\..\Software\uCOS-III\Source/os_task.c ****     p_tcb->StkPtr        = p_sp;                                /* Save the new top-of-stack pointe
 459              		.loc 1 429 0
 460 0152 FB68     		ldr	r3, [r7, #12]
 461 0154 FA69     		ldr	r2, [r7, #28]
 462 0156 1A60     		str	r2, [r3]
 430:..\..\..\..\..\..\Software\uCOS-III\Source/os_task.c **** #if ((OS_CFG_DBG_EN == DEF_ENABLED) || (OS_CFG_STAT_TASK_STK_CHK_EN == DEF_ENABLED))
 431:..\..\..\..\..\..\Software\uCOS-III\Source/os_task.c ****     p_tcb->StkLimitPtr   = p_stk_limit;                         /* Save the stack limit pointer    
 463              		.loc 1 431 0
 464 0158 FB68     		ldr	r3, [r7, #12]
 465 015a 7A69     		ldr	r2, [r7, #20]
 466 015c DA60     		str	r2, [r3, #12]
 432:..\..\..\..\..\..\Software\uCOS-III\Source/os_task.c **** #endif
 433:..\..\..\..\..\..\Software\uCOS-III\Source/os_task.c **** 
 434:..\..\..\..\..\..\Software\uCOS-III\Source/os_task.c **** #if (OS_CFG_SCHED_ROUND_ROBIN_EN == DEF_ENABLED)
 435:..\..\..\..\..\..\Software\uCOS-III\Source/os_task.c ****     p_tcb->TimeQuanta    = time_quanta;                         /* Save the #ticks for time slice (
 436:..\..\..\..\..\..\Software\uCOS-III\Source/os_task.c ****     if (time_quanta == 0u) {
 437:..\..\..\..\..\..\Software\uCOS-III\Source/os_task.c ****         p_tcb->TimeQuantaCtr = OSSchedRoundRobinDfltTimeQuanta;
 438:..\..\..\..\..\..\Software\uCOS-III\Source/os_task.c ****     } else {
 439:..\..\..\..\..\..\Software\uCOS-III\Source/os_task.c ****         p_tcb->TimeQuantaCtr = time_quanta;
 440:..\..\..\..\..\..\Software\uCOS-III\Source/os_task.c ****     }
 441:..\..\..\..\..\..\Software\uCOS-III\Source/os_task.c **** #else
 442:..\..\..\..\..\..\Software\uCOS-III\Source/os_task.c ****     (void)&time_quanta;
 443:..\..\..\..\..\..\Software\uCOS-III\Source/os_task.c **** #endif
ARM GAS  C:\Users\ADMINI~1\AppData\Local\Temp\ccvBRVNC.s 			page 17


 444:..\..\..\..\..\..\Software\uCOS-III\Source/os_task.c **** 
 445:..\..\..\..\..\..\Software\uCOS-III\Source/os_task.c ****     p_tcb->ExtPtr        = p_ext;                               /* Save pointer to TCB extension   
 467              		.loc 1 445 0
 468 015e FB68     		ldr	r3, [r7, #12]
 469 0160 3A6D     		ldr	r2, [r7, #80]
 470 0162 5A60     		str	r2, [r3, #4]
 446:..\..\..\..\..\..\Software\uCOS-III\Source/os_task.c **** #if ((OS_CFG_DBG_EN == DEF_ENABLED) || (OS_CFG_STAT_TASK_STK_CHK_EN == DEF_ENABLED) || (OS_CFG_TASK
 447:..\..\..\..\..\..\Software\uCOS-III\Source/os_task.c ****     p_tcb->StkBasePtr    = p_stk_base;                          /* Save pointer to the base address
 471              		.loc 1 447 0
 472 0164 FB68     		ldr	r3, [r7, #12]
 473 0166 FA6B     		ldr	r2, [r7, #60]
 474 0168 5A62     		str	r2, [r3, #36]
 448:..\..\..\..\..\..\Software\uCOS-III\Source/os_task.c ****     p_tcb->StkSize       = stk_size;                            /* Save the stack size (in number o
 475              		.loc 1 448 0
 476 016a FB68     		ldr	r3, [r7, #12]
 477 016c 7A6C     		ldr	r2, [r7, #68]
 478 016e 1A64     		str	r2, [r3, #64]
 449:..\..\..\..\..\..\Software\uCOS-III\Source/os_task.c **** #endif
 450:..\..\..\..\..\..\Software\uCOS-III\Source/os_task.c ****     p_tcb->Opt           = opt;                                 /* Save task options               
 479              		.loc 1 450 0
 480 0170 FB68     		ldr	r3, [r7, #12]
 481 0172 5422     		movs	r2, #84
 482 0174 BA18     		adds	r2, r7, r2
 483 0176 4421     		movs	r1, #68
 484 0178 1288     		ldrh	r2, [r2]
 485 017a 5A52     		strh	r2, [r3, r1]
 451:..\..\..\..\..\..\Software\uCOS-III\Source/os_task.c **** 
 452:..\..\..\..\..\..\Software\uCOS-III\Source/os_task.c **** #if (OS_CFG_TASK_REG_TBL_SIZE > 0u)
 453:..\..\..\..\..\..\Software\uCOS-III\Source/os_task.c ****     for (reg_nbr = 0u; reg_nbr < OS_CFG_TASK_REG_TBL_SIZE; reg_nbr++) {
 486              		.loc 1 453 0
 487 017c 2323     		movs	r3, #35
 488 017e FB18     		adds	r3, r7, r3
 489 0180 0022     		movs	r2, #0
 490 0182 1A70     		strb	r2, [r3]
 491 0184 0EE0     		b	.L27
 492              	.L28:
 454:..\..\..\..\..\..\Software\uCOS-III\Source/os_task.c ****         p_tcb->RegTbl[reg_nbr] = 0u;
 493              		.loc 1 454 0 discriminator 3
 494 0186 2323     		movs	r3, #35
 495 0188 FB18     		adds	r3, r7, r3
 496 018a 1A78     		ldrb	r2, [r3]
 497 018c FB68     		ldr	r3, [r7, #12]
 498 018e 1E32     		adds	r2, r2, #30
 499 0190 9200     		lsls	r2, r2, #2
 500 0192 0021     		movs	r1, #0
 501 0194 D150     		str	r1, [r2, r3]
 453:..\..\..\..\..\..\Software\uCOS-III\Source/os_task.c ****         p_tcb->RegTbl[reg_nbr] = 0u;
 502              		.loc 1 453 0 discriminator 3
 503 0196 2323     		movs	r3, #35
 504 0198 FB18     		adds	r3, r7, r3
 505 019a 1A78     		ldrb	r2, [r3]
 506 019c 2323     		movs	r3, #35
 507 019e FB18     		adds	r3, r7, r3
 508 01a0 0132     		adds	r2, r2, #1
 509 01a2 1A70     		strb	r2, [r3]
 510              	.L27:
 453:..\..\..\..\..\..\Software\uCOS-III\Source/os_task.c ****         p_tcb->RegTbl[reg_nbr] = 0u;
ARM GAS  C:\Users\ADMINI~1\AppData\Local\Temp\ccvBRVNC.s 			page 18


 511              		.loc 1 453 0 is_stmt 0 discriminator 1
 512 01a4 2323     		movs	r3, #35
 513 01a6 FB18     		adds	r3, r7, r3
 514 01a8 1B78     		ldrb	r3, [r3]
 515 01aa 002B     		cmp	r3, #0
 516 01ac EBD0     		beq	.L28
 455:..\..\..\..\..\..\Software\uCOS-III\Source/os_task.c ****     }
 456:..\..\..\..\..\..\Software\uCOS-III\Source/os_task.c **** #endif
 457:..\..\..\..\..\..\Software\uCOS-III\Source/os_task.c **** 
 458:..\..\..\..\..\..\Software\uCOS-III\Source/os_task.c **** #if (OS_CFG_TASK_Q_EN == DEF_ENABLED)
 459:..\..\..\..\..\..\Software\uCOS-III\Source/os_task.c ****     OS_MsgQInit(&p_tcb->MsgQ,                                   /* Initialize the task's message qu
 517              		.loc 1 459 0 is_stmt 1
 518 01ae FB68     		ldr	r3, [r7, #12]
 519 01b0 6033     		adds	r3, r3, #96
 520 01b2 1A00     		movs	r2, r3
 521 01b4 4823     		movs	r3, #72
 522 01b6 FB18     		adds	r3, r7, r3
 523 01b8 1B88     		ldrh	r3, [r3]
 524 01ba 1900     		movs	r1, r3
 525 01bc 1000     		movs	r0, r2
 526 01be FFF7FEFF 		bl	OS_MsgQInit
 460:..\..\..\..\..\..\Software\uCOS-III\Source/os_task.c ****                 q_size);
 461:..\..\..\..\..\..\Software\uCOS-III\Source/os_task.c **** #else
 462:..\..\..\..\..\..\Software\uCOS-III\Source/os_task.c ****     (void)&q_size;
 463:..\..\..\..\..\..\Software\uCOS-III\Source/os_task.c **** #endif
 464:..\..\..\..\..\..\Software\uCOS-III\Source/os_task.c **** 
 465:..\..\..\..\..\..\Software\uCOS-III\Source/os_task.c ****     OSTaskCreateHook(p_tcb);                                    /* Call user defined hook          
 527              		.loc 1 465 0
 528 01c2 FB68     		ldr	r3, [r7, #12]
 529 01c4 1800     		movs	r0, r3
 530 01c6 FFF7FEFF 		bl	OSTaskCreateHook
 466:..\..\..\..\..\..\Software\uCOS-III\Source/os_task.c **** 
 467:..\..\..\..\..\..\Software\uCOS-III\Source/os_task.c **** #if (defined(TRACE_CFG_EN) && (TRACE_CFG_EN == DEF_ENABLED))
 468:..\..\..\..\..\..\Software\uCOS-III\Source/os_task.c ****     TRACE_OS_TASK_CREATE(p_tcb);                                /* Record the event.               
 469:..\..\..\..\..\..\Software\uCOS-III\Source/os_task.c ****     TRACE_OS_TASK_SEM_CREATE(p_tcb, p_name);                    /* Record the event.               
 470:..\..\..\..\..\..\Software\uCOS-III\Source/os_task.c **** #if (OS_CFG_TASK_Q_EN == DEF_ENABLED)
 471:..\..\..\..\..\..\Software\uCOS-III\Source/os_task.c ****     TRACE_OS_TASK_MSG_Q_CREATE(&p_tcb->MsgQ, p_name);           /* Record the event.               
 472:..\..\..\..\..\..\Software\uCOS-III\Source/os_task.c **** #endif
 473:..\..\..\..\..\..\Software\uCOS-III\Source/os_task.c **** #endif
 474:..\..\..\..\..\..\Software\uCOS-III\Source/os_task.c **** 
 475:..\..\..\..\..\..\Software\uCOS-III\Source/os_task.c **** #if defined(OS_CFG_TLS_TBL_SIZE) && (OS_CFG_TLS_TBL_SIZE > 0u)
 476:..\..\..\..\..\..\Software\uCOS-III\Source/os_task.c ****     for (id = 0u; id < OS_CFG_TLS_TBL_SIZE; id++) {
 477:..\..\..\..\..\..\Software\uCOS-III\Source/os_task.c ****         p_tcb->TLS_Tbl[id] = 0u;
 478:..\..\..\..\..\..\Software\uCOS-III\Source/os_task.c ****     }
 479:..\..\..\..\..\..\Software\uCOS-III\Source/os_task.c ****     OS_TLS_TaskCreate(p_tcb);                                   /* Call TLS hook                   
 480:..\..\..\..\..\..\Software\uCOS-III\Source/os_task.c **** #endif
 481:..\..\..\..\..\..\Software\uCOS-III\Source/os_task.c ****                                                                 /* -------------- ADD TASK TO READY
 482:..\..\..\..\..\..\Software\uCOS-III\Source/os_task.c ****     OS_CRITICAL_ENTER();
 531              		.loc 1 482 0
 532 01ca FFF7FEFF 		bl	CPU_SR_Save
 533 01ce 0300     		movs	r3, r0
 534 01d0 BB61     		str	r3, [r7, #24]
 535 01d2 FFF7FEFF 		bl	CPU_IntDisMeasStart
 483:..\..\..\..\..\..\Software\uCOS-III\Source/os_task.c ****     OS_PrioInsert(p_tcb->Prio);
 536              		.loc 1 483 0
 537 01d6 FB68     		ldr	r3, [r7, #12]
 538 01d8 3722     		movs	r2, #55
ARM GAS  C:\Users\ADMINI~1\AppData\Local\Temp\ccvBRVNC.s 			page 19


 539 01da 9B5C     		ldrb	r3, [r3, r2]
 540 01dc 1800     		movs	r0, r3
 541 01de FFF7FEFF 		bl	OS_PrioInsert
 484:..\..\..\..\..\..\Software\uCOS-III\Source/os_task.c ****     OS_RdyListInsertTail(p_tcb);
 542              		.loc 1 484 0
 543 01e2 FB68     		ldr	r3, [r7, #12]
 544 01e4 1800     		movs	r0, r3
 545 01e6 FFF7FEFF 		bl	OS_RdyListInsertTail
 485:..\..\..\..\..\..\Software\uCOS-III\Source/os_task.c **** 
 486:..\..\..\..\..\..\Software\uCOS-III\Source/os_task.c **** #if (OS_CFG_DBG_EN == DEF_ENABLED)
 487:..\..\..\..\..\..\Software\uCOS-III\Source/os_task.c ****     OS_TaskDbgListAdd(p_tcb);
 546              		.loc 1 487 0
 547 01ea FB68     		ldr	r3, [r7, #12]
 548 01ec 1800     		movs	r0, r3
 549 01ee FFF7FEFF 		bl	OS_TaskDbgListAdd
 488:..\..\..\..\..\..\Software\uCOS-III\Source/os_task.c **** #endif
 489:..\..\..\..\..\..\Software\uCOS-III\Source/os_task.c **** 
 490:..\..\..\..\..\..\Software\uCOS-III\Source/os_task.c ****     OSTaskQty++;                                                /* Increment the #tasks counter    
 550              		.loc 1 490 0
 551 01f2 194B     		ldr	r3, .L30+44
 552 01f4 1B88     		ldrh	r3, [r3]
 553 01f6 0133     		adds	r3, r3, #1
 554 01f8 9AB2     		uxth	r2, r3
 555 01fa 174B     		ldr	r3, .L30+44
 556 01fc 1A80     		strh	r2, [r3]
 491:..\..\..\..\..\..\Software\uCOS-III\Source/os_task.c **** 
 492:..\..\..\..\..\..\Software\uCOS-III\Source/os_task.c ****     if (OSRunning != OS_STATE_OS_RUNNING) {                     /* Return if multitasking has not s
 557              		.loc 1 492 0
 558 01fe 174B     		ldr	r3, .L30+48
 559 0200 1B78     		ldrb	r3, [r3]
 560 0202 012B     		cmp	r3, #1
 561 0204 06D0     		beq	.L29
 493:..\..\..\..\..\..\Software\uCOS-III\Source/os_task.c ****         OS_CRITICAL_EXIT();
 562              		.loc 1 493 0
 563 0206 FFF7FEFF 		bl	CPU_IntDisMeasStop
 564 020a BB69     		ldr	r3, [r7, #24]
 565 020c 1800     		movs	r0, r3
 566 020e FFF7FEFF 		bl	CPU_SR_Restore
 494:..\..\..\..\..\..\Software\uCOS-III\Source/os_task.c ****         return;
 567              		.loc 1 494 0
 568 0212 07E0     		b	.L12
 569              	.L29:
 495:..\..\..\..\..\..\Software\uCOS-III\Source/os_task.c ****     }
 496:..\..\..\..\..\..\Software\uCOS-III\Source/os_task.c **** 
 497:..\..\..\..\..\..\Software\uCOS-III\Source/os_task.c ****     OS_CRITICAL_EXIT_NO_SCHED();
 570              		.loc 1 497 0
 571 0214 FFF7FEFF 		bl	CPU_IntDisMeasStop
 572 0218 BB69     		ldr	r3, [r7, #24]
 573 021a 1800     		movs	r0, r3
 574 021c FFF7FEFF 		bl	CPU_SR_Restore
 498:..\..\..\..\..\..\Software\uCOS-III\Source/os_task.c **** 
 499:..\..\..\..\..\..\Software\uCOS-III\Source/os_task.c ****     OSSched();
 575              		.loc 1 499 0
 576 0220 FFF7FEFF 		bl	OSSched
 577              	.L12:
 500:..\..\..\..\..\..\Software\uCOS-III\Source/os_task.c **** }
 578              		.loc 1 500 0
ARM GAS  C:\Users\ADMINI~1\AppData\Local\Temp\ccvBRVNC.s 			page 20


 579 0224 BD46     		mov	sp, r7
 580 0226 0BB0     		add	sp, sp, #44
 581              		@ sp needed
 582 0228 90BD     		pop	{r4, r7, pc}
 583              	.L31:
 584 022a C046     		.align	2
 585              	.L30:
 586 022c 00000000 		.word	OSIntNestingCtr
 587 0230 4A710000 		.word	29002
 588 0234 AD710000 		.word	29101
 589 0238 4F710000 		.word	29007
 590 023c 2F6E0000 		.word	28207
 591 0240 00000000 		.word	OSCfg_StkSizeMin
 592 0244 306E0000 		.word	28208
 593 0248 316E0000 		.word	28209
 594 024c 73620000 		.word	25203
 595 0250 00000000 		.word	OSIdleTaskTCB
 596 0254 2C6E0000 		.word	28204
 597 0258 00000000 		.word	OSTaskQty
 598 025c 00000000 		.word	OSRunning
 599              		.cfi_endproc
 600              	.LFE1:
 601              		.size	OSTaskCreate, .-OSTaskCreate
 602              		.section	.text.OSTaskQFlush,"ax",%progbits
 603              		.align	2
 604              		.global	OSTaskQFlush
 605              		.code	16
 606              		.thumb_func
 607              		.type	OSTaskQFlush, %function
 608              	OSTaskQFlush:
 609              	.LFB2:
 501:..\..\..\..\..\..\Software\uCOS-III\Source/os_task.c **** 
 502:..\..\..\..\..\..\Software\uCOS-III\Source/os_task.c **** 
 503:..\..\..\..\..\..\Software\uCOS-III\Source/os_task.c **** /*
 504:..\..\..\..\..\..\Software\uCOS-III\Source/os_task.c **** ***************************************************************************************************
 505:..\..\..\..\..\..\Software\uCOS-III\Source/os_task.c **** *                                                     DELETE A TASK
 506:..\..\..\..\..\..\Software\uCOS-III\Source/os_task.c **** *
 507:..\..\..\..\..\..\Software\uCOS-III\Source/os_task.c **** * Description: This function allows you to delete a task.  The calling task can delete itself by sp
 508:..\..\..\..\..\..\Software\uCOS-III\Source/os_task.c **** *              pointer for 'p_tcb'.  The deleted task is returned to the dormant state and can be r
 509:..\..\..\..\..\..\Software\uCOS-III\Source/os_task.c **** *              creating the deleted task again.
 510:..\..\..\..\..\..\Software\uCOS-III\Source/os_task.c **** *
 511:..\..\..\..\..\..\Software\uCOS-III\Source/os_task.c **** * Arguments  : p_tcb      is the TCB of the tack to delete
 512:..\..\..\..\..\..\Software\uCOS-III\Source/os_task.c **** *
 513:..\..\..\..\..\..\Software\uCOS-III\Source/os_task.c **** *              p_err      is a pointer to an error code returned by this function:
 514:..\..\..\..\..\..\Software\uCOS-III\Source/os_task.c **** *
 515:..\..\..\..\..\..\Software\uCOS-III\Source/os_task.c **** *                             OS_ERR_NONE                    If the call is successful
 516:..\..\..\..\..\..\Software\uCOS-III\Source/os_task.c **** *                             OS_ERR_ILLEGAL_DEL_RUN_TIME    If you are trying to delete the task a
 517:..\..\..\..\..\..\Software\uCOS-III\Source/os_task.c **** *                                                              OSStart()
 518:..\..\..\..\..\..\Software\uCOS-III\Source/os_task.c **** *                             OS_ERR_OS_NOT_RUNNING          If uC/OS-III is not running yet
 519:..\..\..\..\..\..\Software\uCOS-III\Source/os_task.c **** *                             OS_ERR_STATE_INVALID           If the state of the task is invalid
 520:..\..\..\..\..\..\Software\uCOS-III\Source/os_task.c **** *                             OS_ERR_TASK_DEL_IDLE           If you attempted to delete uC/OS-III's
 521:..\..\..\..\..\..\Software\uCOS-III\Source/os_task.c **** *                             OS_ERR_TASK_DEL_INVALID        If you attempted to delete uC/OS-III's
 522:..\..\..\..\..\..\Software\uCOS-III\Source/os_task.c **** *                             OS_ERR_TASK_DEL_ISR            If you tried to delete a task from an 
 523:..\..\..\..\..\..\Software\uCOS-III\Source/os_task.c **** *
 524:..\..\..\..\..\..\Software\uCOS-III\Source/os_task.c **** * Returns    : none
 525:..\..\..\..\..\..\Software\uCOS-III\Source/os_task.c **** *
 526:..\..\..\..\..\..\Software\uCOS-III\Source/os_task.c **** * Note(s)    : 1) 'p_err' gets set to OS_ERR_NONE before OSSched() to allow the returned err or cod
ARM GAS  C:\Users\ADMINI~1\AppData\Local\Temp\ccvBRVNC.s 			page 21


 527:..\..\..\..\..\..\Software\uCOS-III\Source/os_task.c **** *                 for a task that is deleting itself. In this case, 'p_err' MUST point to a global 
 528:..\..\..\..\..\..\Software\uCOS-III\Source/os_task.c **** *                 accessed by another task.
 529:..\..\..\..\..\..\Software\uCOS-III\Source/os_task.c **** ***************************************************************************************************
 530:..\..\..\..\..\..\Software\uCOS-III\Source/os_task.c **** */
 531:..\..\..\..\..\..\Software\uCOS-III\Source/os_task.c **** 
 532:..\..\..\..\..\..\Software\uCOS-III\Source/os_task.c **** #if (OS_CFG_TASK_DEL_EN == DEF_ENABLED)
 533:..\..\..\..\..\..\Software\uCOS-III\Source/os_task.c **** void  OSTaskDel (OS_TCB  *p_tcb,
 534:..\..\..\..\..\..\Software\uCOS-III\Source/os_task.c ****                  OS_ERR  *p_err)
 535:..\..\..\..\..\..\Software\uCOS-III\Source/os_task.c **** {
 536:..\..\..\..\..\..\Software\uCOS-III\Source/os_task.c **** #if (OS_CFG_MUTEX_EN == DEF_ENABLED)
 537:..\..\..\..\..\..\Software\uCOS-III\Source/os_task.c ****     OS_TCB  *p_tcb_owner;
 538:..\..\..\..\..\..\Software\uCOS-III\Source/os_task.c ****     OS_PRIO  prio_new;
 539:..\..\..\..\..\..\Software\uCOS-III\Source/os_task.c **** #endif
 540:..\..\..\..\..\..\Software\uCOS-III\Source/os_task.c ****     CPU_SR_ALLOC();
 541:..\..\..\..\..\..\Software\uCOS-III\Source/os_task.c **** 
 542:..\..\..\..\..\..\Software\uCOS-III\Source/os_task.c **** 
 543:..\..\..\..\..\..\Software\uCOS-III\Source/os_task.c **** 
 544:..\..\..\..\..\..\Software\uCOS-III\Source/os_task.c **** #ifdef OS_SAFETY_CRITICAL
 545:..\..\..\..\..\..\Software\uCOS-III\Source/os_task.c ****     if (p_err == DEF_NULL) {
 546:..\..\..\..\..\..\Software\uCOS-III\Source/os_task.c ****         OS_SAFETY_CRITICAL_EXCEPTION();
 547:..\..\..\..\..\..\Software\uCOS-III\Source/os_task.c ****         return;
 548:..\..\..\..\..\..\Software\uCOS-III\Source/os_task.c ****     }
 549:..\..\..\..\..\..\Software\uCOS-III\Source/os_task.c **** #endif
 550:..\..\..\..\..\..\Software\uCOS-III\Source/os_task.c **** 
 551:..\..\..\..\..\..\Software\uCOS-III\Source/os_task.c **** #ifdef OS_SAFETY_CRITICAL_IEC61508
 552:..\..\..\..\..\..\Software\uCOS-III\Source/os_task.c ****     if (OSSafetyCriticalStartFlag == DEF_TRUE) {
 553:..\..\..\..\..\..\Software\uCOS-III\Source/os_task.c ****        *p_err = OS_ERR_ILLEGAL_DEL_RUN_TIME;
 554:..\..\..\..\..\..\Software\uCOS-III\Source/os_task.c ****         return;
 555:..\..\..\..\..\..\Software\uCOS-III\Source/os_task.c ****     }
 556:..\..\..\..\..\..\Software\uCOS-III\Source/os_task.c **** #endif
 557:..\..\..\..\..\..\Software\uCOS-III\Source/os_task.c **** 
 558:..\..\..\..\..\..\Software\uCOS-III\Source/os_task.c **** #if (OS_CFG_CALLED_FROM_ISR_CHK_EN == DEF_ENABLED)
 559:..\..\..\..\..\..\Software\uCOS-III\Source/os_task.c ****     if (OSIntNestingCtr > 0u) {                                 /* See if trying to delete from ISR
 560:..\..\..\..\..\..\Software\uCOS-III\Source/os_task.c ****        *p_err = OS_ERR_TASK_DEL_ISR;
 561:..\..\..\..\..\..\Software\uCOS-III\Source/os_task.c ****         return;
 562:..\..\..\..\..\..\Software\uCOS-III\Source/os_task.c ****     }
 563:..\..\..\..\..\..\Software\uCOS-III\Source/os_task.c **** #endif
 564:..\..\..\..\..\..\Software\uCOS-III\Source/os_task.c **** 
 565:..\..\..\..\..\..\Software\uCOS-III\Source/os_task.c **** #if (OS_CFG_INVALID_OS_CALLS_CHK_EN == DEF_ENABLED)             /* Is the kernel running?          
 566:..\..\..\..\..\..\Software\uCOS-III\Source/os_task.c ****     if (OSRunning != OS_STATE_OS_RUNNING) {
 567:..\..\..\..\..\..\Software\uCOS-III\Source/os_task.c ****        *p_err = OS_ERR_OS_NOT_RUNNING;
 568:..\..\..\..\..\..\Software\uCOS-III\Source/os_task.c ****         return;
 569:..\..\..\..\..\..\Software\uCOS-III\Source/os_task.c ****     }
 570:..\..\..\..\..\..\Software\uCOS-III\Source/os_task.c **** #endif
 571:..\..\..\..\..\..\Software\uCOS-III\Source/os_task.c **** 
 572:..\..\..\..\..\..\Software\uCOS-III\Source/os_task.c **** #if (OS_CFG_TASK_IDLE_EN == DEF_ENABLED)
 573:..\..\..\..\..\..\Software\uCOS-III\Source/os_task.c ****     if (p_tcb == &OSIdleTaskTCB) {                              /* Not allowed to delete the idle t
 574:..\..\..\..\..\..\Software\uCOS-III\Source/os_task.c ****        *p_err = OS_ERR_TASK_DEL_IDLE;
 575:..\..\..\..\..\..\Software\uCOS-III\Source/os_task.c ****         return;
 576:..\..\..\..\..\..\Software\uCOS-III\Source/os_task.c ****     }
 577:..\..\..\..\..\..\Software\uCOS-III\Source/os_task.c **** #endif
 578:..\..\..\..\..\..\Software\uCOS-III\Source/os_task.c **** 
 579:..\..\..\..\..\..\Software\uCOS-III\Source/os_task.c **** #if (OS_CFG_ISR_POST_DEFERRED_EN == DEF_ENABLED)
 580:..\..\..\..\..\..\Software\uCOS-III\Source/os_task.c ****     if (p_tcb == &OSIntQTaskTCB) {                              /* Cannot delete the ISR handler ta
 581:..\..\..\..\..\..\Software\uCOS-III\Source/os_task.c ****        *p_err = OS_ERR_TASK_DEL_INVALID;
 582:..\..\..\..\..\..\Software\uCOS-III\Source/os_task.c ****         return;
 583:..\..\..\..\..\..\Software\uCOS-III\Source/os_task.c ****     }
ARM GAS  C:\Users\ADMINI~1\AppData\Local\Temp\ccvBRVNC.s 			page 22


 584:..\..\..\..\..\..\Software\uCOS-III\Source/os_task.c **** #endif
 585:..\..\..\..\..\..\Software\uCOS-III\Source/os_task.c **** 
 586:..\..\..\..\..\..\Software\uCOS-III\Source/os_task.c ****     if (p_tcb == DEF_NULL) {                                    /* Delete 'Self'?                  
 587:..\..\..\..\..\..\Software\uCOS-III\Source/os_task.c ****         CPU_CRITICAL_ENTER();
 588:..\..\..\..\..\..\Software\uCOS-III\Source/os_task.c ****         p_tcb  = OSTCBCurPtr;                                   /* Yes.                            
 589:..\..\..\..\..\..\Software\uCOS-III\Source/os_task.c ****         CPU_CRITICAL_EXIT();
 590:..\..\..\..\..\..\Software\uCOS-III\Source/os_task.c ****     }
 591:..\..\..\..\..\..\Software\uCOS-III\Source/os_task.c **** 
 592:..\..\..\..\..\..\Software\uCOS-III\Source/os_task.c ****     OS_CRITICAL_ENTER();
 593:..\..\..\..\..\..\Software\uCOS-III\Source/os_task.c ****     switch (p_tcb->TaskState) {
 594:..\..\..\..\..\..\Software\uCOS-III\Source/os_task.c ****         case OS_TASK_STATE_RDY:
 595:..\..\..\..\..\..\Software\uCOS-III\Source/os_task.c ****              OS_RdyListRemove(p_tcb);
 596:..\..\..\..\..\..\Software\uCOS-III\Source/os_task.c ****              break;
 597:..\..\..\..\..\..\Software\uCOS-III\Source/os_task.c **** 
 598:..\..\..\..\..\..\Software\uCOS-III\Source/os_task.c ****         case OS_TASK_STATE_SUSPENDED:
 599:..\..\..\..\..\..\Software\uCOS-III\Source/os_task.c ****              break;
 600:..\..\..\..\..\..\Software\uCOS-III\Source/os_task.c **** 
 601:..\..\..\..\..\..\Software\uCOS-III\Source/os_task.c ****         case OS_TASK_STATE_DLY:                                 /* Task is only delayed, not on any
 602:..\..\..\..\..\..\Software\uCOS-III\Source/os_task.c ****         case OS_TASK_STATE_DLY_SUSPENDED:
 603:..\..\..\..\..\..\Software\uCOS-III\Source/os_task.c **** #if (OS_CFG_TASK_TICK_EN == DEF_ENABLED)
 604:..\..\..\..\..\..\Software\uCOS-III\Source/os_task.c ****              OS_TickListRemove(p_tcb);
 605:..\..\..\..\..\..\Software\uCOS-III\Source/os_task.c **** #endif
 606:..\..\..\..\..\..\Software\uCOS-III\Source/os_task.c ****              break;
 607:..\..\..\..\..\..\Software\uCOS-III\Source/os_task.c **** 
 608:..\..\..\..\..\..\Software\uCOS-III\Source/os_task.c ****         case OS_TASK_STATE_PEND:
 609:..\..\..\..\..\..\Software\uCOS-III\Source/os_task.c ****         case OS_TASK_STATE_PEND_SUSPENDED:
 610:..\..\..\..\..\..\Software\uCOS-III\Source/os_task.c ****         case OS_TASK_STATE_PEND_TIMEOUT:
 611:..\..\..\..\..\..\Software\uCOS-III\Source/os_task.c ****         case OS_TASK_STATE_PEND_TIMEOUT_SUSPENDED:
 612:..\..\..\..\..\..\Software\uCOS-III\Source/os_task.c ****              switch (p_tcb->PendOn) {                           /* See what we are pending on      
 613:..\..\..\..\..\..\Software\uCOS-III\Source/os_task.c ****                  case OS_TASK_PEND_ON_NOTHING:
 614:..\..\..\..\..\..\Software\uCOS-III\Source/os_task.c ****                  case OS_TASK_PEND_ON_TASK_Q:                   /* There is no wait list for these 
 615:..\..\..\..\..\..\Software\uCOS-III\Source/os_task.c ****                  case OS_TASK_PEND_ON_TASK_SEM:
 616:..\..\..\..\..\..\Software\uCOS-III\Source/os_task.c ****                       break;
 617:..\..\..\..\..\..\Software\uCOS-III\Source/os_task.c **** 
 618:..\..\..\..\..\..\Software\uCOS-III\Source/os_task.c ****                  case OS_TASK_PEND_ON_FLAG:                     /* Remove from wait list           
 619:..\..\..\..\..\..\Software\uCOS-III\Source/os_task.c **** #if (OS_CFG_PEND_MULTI_EN == DEF_ENABLED)
 620:..\..\..\..\..\..\Software\uCOS-III\Source/os_task.c ****                  case OS_TASK_PEND_ON_MULTI:
 621:..\..\..\..\..\..\Software\uCOS-III\Source/os_task.c **** #endif
 622:..\..\..\..\..\..\Software\uCOS-III\Source/os_task.c ****                  case OS_TASK_PEND_ON_Q:
 623:..\..\..\..\..\..\Software\uCOS-III\Source/os_task.c ****                  case OS_TASK_PEND_ON_SEM:
 624:..\..\..\..\..\..\Software\uCOS-III\Source/os_task.c ****                       OS_PendListRemove(p_tcb);
 625:..\..\..\..\..\..\Software\uCOS-III\Source/os_task.c ****                       break;
 626:..\..\..\..\..\..\Software\uCOS-III\Source/os_task.c **** 
 627:..\..\..\..\..\..\Software\uCOS-III\Source/os_task.c **** #if (OS_CFG_MUTEX_EN == DEF_ENABLED)
 628:..\..\..\..\..\..\Software\uCOS-III\Source/os_task.c ****                  case OS_TASK_PEND_ON_MUTEX:
 629:..\..\..\..\..\..\Software\uCOS-III\Source/os_task.c ****                       p_tcb_owner = ((OS_MUTEX *)p_tcb->PendDataTblPtr->PendObjPtr)->OwnerTCBPtr;
 630:..\..\..\..\..\..\Software\uCOS-III\Source/os_task.c ****                       prio_new = p_tcb_owner->Prio;
 631:..\..\..\..\..\..\Software\uCOS-III\Source/os_task.c ****                       OS_PendListRemove(p_tcb);
 632:..\..\..\..\..\..\Software\uCOS-III\Source/os_task.c ****                       if ((p_tcb_owner->Prio != p_tcb_owner->BasePrio) &&
 633:..\..\..\..\..\..\Software\uCOS-III\Source/os_task.c ****                           (p_tcb_owner->Prio == p_tcb->Prio)) { /* Has the owner inherited a priori
 634:..\..\..\..\..\..\Software\uCOS-III\Source/os_task.c ****                           prio_new = OS_MutexGrpPrioFindHighest(p_tcb_owner);
 635:..\..\..\..\..\..\Software\uCOS-III\Source/os_task.c ****                           prio_new = prio_new > p_tcb_owner->BasePrio ? p_tcb_owner->BasePrio : pri
 636:..\..\..\..\..\..\Software\uCOS-III\Source/os_task.c ****                       }
 637:..\..\..\..\..\..\Software\uCOS-III\Source/os_task.c ****                       p_tcb->PendOn = OS_TASK_PEND_ON_NOTHING;
 638:..\..\..\..\..\..\Software\uCOS-III\Source/os_task.c **** 
 639:..\..\..\..\..\..\Software\uCOS-III\Source/os_task.c ****                       if (prio_new != p_tcb_owner->Prio) {
 640:..\..\..\..\..\..\Software\uCOS-III\Source/os_task.c ****                           OS_TaskChangePrio(p_tcb_owner, prio_new);
ARM GAS  C:\Users\ADMINI~1\AppData\Local\Temp\ccvBRVNC.s 			page 23


 641:..\..\..\..\..\..\Software\uCOS-III\Source/os_task.c **** #if (defined(TRACE_CFG_EN) && (TRACE_CFG_EN == DEF_ENABLED))
 642:..\..\..\..\..\..\Software\uCOS-III\Source/os_task.c ****                           TRACE_OS_MUTEX_TASK_PRIO_DISINHERIT(p_tcb_owner, p_tcb_owner->Prio);
 643:..\..\..\..\..\..\Software\uCOS-III\Source/os_task.c **** #endif
 644:..\..\..\..\..\..\Software\uCOS-III\Source/os_task.c ****                       }
 645:..\..\..\..\..\..\Software\uCOS-III\Source/os_task.c ****                       break;
 646:..\..\..\..\..\..\Software\uCOS-III\Source/os_task.c **** #endif
 647:..\..\..\..\..\..\Software\uCOS-III\Source/os_task.c **** 
 648:..\..\..\..\..\..\Software\uCOS-III\Source/os_task.c ****                  default:
 649:..\..\..\..\..\..\Software\uCOS-III\Source/os_task.c ****                       break;
 650:..\..\..\..\..\..\Software\uCOS-III\Source/os_task.c ****              }
 651:..\..\..\..\..\..\Software\uCOS-III\Source/os_task.c **** #if (OS_CFG_TASK_TICK_EN == DEF_ENABLED)
 652:..\..\..\..\..\..\Software\uCOS-III\Source/os_task.c ****              if ((p_tcb->TaskState == OS_TASK_STATE_PEND_TIMEOUT) ||
 653:..\..\..\..\..\..\Software\uCOS-III\Source/os_task.c ****                  (p_tcb->TaskState == OS_TASK_STATE_PEND_TIMEOUT_SUSPENDED)) {
 654:..\..\..\..\..\..\Software\uCOS-III\Source/os_task.c ****                  OS_TickListRemove(p_tcb);
 655:..\..\..\..\..\..\Software\uCOS-III\Source/os_task.c ****              }
 656:..\..\..\..\..\..\Software\uCOS-III\Source/os_task.c **** #endif
 657:..\..\..\..\..\..\Software\uCOS-III\Source/os_task.c ****              break;
 658:..\..\..\..\..\..\Software\uCOS-III\Source/os_task.c **** 
 659:..\..\..\..\..\..\Software\uCOS-III\Source/os_task.c ****         default:
 660:..\..\..\..\..\..\Software\uCOS-III\Source/os_task.c ****             OS_CRITICAL_EXIT();
 661:..\..\..\..\..\..\Software\uCOS-III\Source/os_task.c ****            *p_err = OS_ERR_STATE_INVALID;
 662:..\..\..\..\..\..\Software\uCOS-III\Source/os_task.c ****             return;
 663:..\..\..\..\..\..\Software\uCOS-III\Source/os_task.c ****     }
 664:..\..\..\..\..\..\Software\uCOS-III\Source/os_task.c **** 
 665:..\..\..\..\..\..\Software\uCOS-III\Source/os_task.c **** #if (OS_CFG_MUTEX_EN == DEF_ENABLED)
 666:..\..\..\..\..\..\Software\uCOS-III\Source/os_task.c ****     if(p_tcb->MutexGrpHeadPtr != DEF_NULL) {
 667:..\..\..\..\..\..\Software\uCOS-III\Source/os_task.c ****         OS_MutexGrpPostAll(p_tcb);
 668:..\..\..\..\..\..\Software\uCOS-III\Source/os_task.c ****     }
 669:..\..\..\..\..\..\Software\uCOS-III\Source/os_task.c **** #endif
 670:..\..\..\..\..\..\Software\uCOS-III\Source/os_task.c **** 
 671:..\..\..\..\..\..\Software\uCOS-III\Source/os_task.c **** #if (OS_CFG_TASK_Q_EN == DEF_ENABLED)
 672:..\..\..\..\..\..\Software\uCOS-III\Source/os_task.c ****     (void)OS_MsgQFreeAll(&p_tcb->MsgQ);                         /* Free task's message queue messag
 673:..\..\..\..\..\..\Software\uCOS-III\Source/os_task.c **** #endif
 674:..\..\..\..\..\..\Software\uCOS-III\Source/os_task.c **** 
 675:..\..\..\..\..\..\Software\uCOS-III\Source/os_task.c ****     OSTaskDelHook(p_tcb);                                       /* Call user defined hook          
 676:..\..\..\..\..\..\Software\uCOS-III\Source/os_task.c **** 
 677:..\..\..\..\..\..\Software\uCOS-III\Source/os_task.c **** #if defined(OS_CFG_TLS_TBL_SIZE) && (OS_CFG_TLS_TBL_SIZE > 0u)
 678:..\..\..\..\..\..\Software\uCOS-III\Source/os_task.c ****     OS_TLS_TaskDel(p_tcb);                                      /* Call TLS hook                   
 679:..\..\..\..\..\..\Software\uCOS-III\Source/os_task.c **** #endif
 680:..\..\..\..\..\..\Software\uCOS-III\Source/os_task.c **** 
 681:..\..\..\..\..\..\Software\uCOS-III\Source/os_task.c **** #if (OS_CFG_DBG_EN == DEF_ENABLED)
 682:..\..\..\..\..\..\Software\uCOS-III\Source/os_task.c ****     OS_TaskDbgListRemove(p_tcb);
 683:..\..\..\..\..\..\Software\uCOS-III\Source/os_task.c **** #endif
 684:..\..\..\..\..\..\Software\uCOS-III\Source/os_task.c **** 
 685:..\..\..\..\..\..\Software\uCOS-III\Source/os_task.c ****     OSTaskQty--;                                                /* One less task being managed     
 686:..\..\..\..\..\..\Software\uCOS-III\Source/os_task.c **** 
 687:..\..\..\..\..\..\Software\uCOS-III\Source/os_task.c **** #if (defined(TRACE_CFG_EN) && (TRACE_CFG_EN == DEF_ENABLED))
 688:..\..\..\..\..\..\Software\uCOS-III\Source/os_task.c ****     TRACE_OS_TASK_DEL(p_tcb);                                   /* Record the event.               
 689:..\..\..\..\..\..\Software\uCOS-III\Source/os_task.c **** #endif
 690:..\..\..\..\..\..\Software\uCOS-III\Source/os_task.c **** #if (OS_CFG_TASK_STK_REDZONE_EN != DEF_ENABLED)                 /* Don't clear the TCB before check
 691:..\..\..\..\..\..\Software\uCOS-III\Source/os_task.c ****     OS_TaskInitTCB(p_tcb);                                      /* Initialize the TCB to default va
 692:..\..\..\..\..\..\Software\uCOS-III\Source/os_task.c **** #endif
 693:..\..\..\..\..\..\Software\uCOS-III\Source/os_task.c ****     p_tcb->TaskState = (OS_STATE)OS_TASK_STATE_DEL;             /* Indicate that the task was delet
 694:..\..\..\..\..\..\Software\uCOS-III\Source/os_task.c **** 
 695:..\..\..\..\..\..\Software\uCOS-III\Source/os_task.c ****     OS_CRITICAL_EXIT_NO_SCHED();
 696:..\..\..\..\..\..\Software\uCOS-III\Source/os_task.c **** 
 697:..\..\..\..\..\..\Software\uCOS-III\Source/os_task.c ****    *p_err = OS_ERR_NONE;                                        /* See Note #1.                    
ARM GAS  C:\Users\ADMINI~1\AppData\Local\Temp\ccvBRVNC.s 			page 24


 698:..\..\..\..\..\..\Software\uCOS-III\Source/os_task.c **** 
 699:..\..\..\..\..\..\Software\uCOS-III\Source/os_task.c ****     OSSched();                                                  /* Find new highest priority task  
 700:..\..\..\..\..\..\Software\uCOS-III\Source/os_task.c **** }
 701:..\..\..\..\..\..\Software\uCOS-III\Source/os_task.c **** #endif
 702:..\..\..\..\..\..\Software\uCOS-III\Source/os_task.c **** 
 703:..\..\..\..\..\..\Software\uCOS-III\Source/os_task.c **** 
 704:..\..\..\..\..\..\Software\uCOS-III\Source/os_task.c **** /*
 705:..\..\..\..\..\..\Software\uCOS-III\Source/os_task.c **** ***************************************************************************************************
 706:..\..\..\..\..\..\Software\uCOS-III\Source/os_task.c **** *                                                    FLUSH TASK's QUEUE
 707:..\..\..\..\..\..\Software\uCOS-III\Source/os_task.c **** *
 708:..\..\..\..\..\..\Software\uCOS-III\Source/os_task.c **** * Description: This function is used to flush the task's internal message queue.
 709:..\..\..\..\..\..\Software\uCOS-III\Source/os_task.c **** *
 710:..\..\..\..\..\..\Software\uCOS-III\Source/os_task.c **** * Arguments  : p_tcb       is a pointer to the task's OS_TCB.  Specifying a NULL pointer indicates 
 711:..\..\..\..\..\..\Software\uCOS-III\Source/os_task.c **** *                          flush the message queue of the calling task.
 712:..\..\..\..\..\..\Software\uCOS-III\Source/os_task.c **** *
 713:..\..\..\..\..\..\Software\uCOS-III\Source/os_task.c **** *              p_err       is a pointer to a variable that will contain an error code returned by t
 714:..\..\..\..\..\..\Software\uCOS-III\Source/os_task.c **** *
 715:..\..\..\..\..\..\Software\uCOS-III\Source/os_task.c **** *                              OS_ERR_NONE              Upon success
 716:..\..\..\..\..\..\Software\uCOS-III\Source/os_task.c **** *                              OS_ERR_FLUSH_ISR         If you called this function from an ISR
 717:..\..\..\..\..\..\Software\uCOS-III\Source/os_task.c **** *                              OS_ERR_OS_NOT_RUNNING    If uC/OS-III is not running yet
 718:..\..\..\..\..\..\Software\uCOS-III\Source/os_task.c **** *
 719:..\..\..\..\..\..\Software\uCOS-III\Source/os_task.c **** * Returns     : The number of entries freed from the queue
 720:..\..\..\..\..\..\Software\uCOS-III\Source/os_task.c **** *
 721:..\..\..\..\..\..\Software\uCOS-III\Source/os_task.c **** * Note(s)     : 1) You should use this function with great care because, when to flush the queue, y
 722:..\..\..\..\..\..\Software\uCOS-III\Source/os_task.c **** *                  references to what the queue entries are pointing to and thus, you could cause '
 723:..\..\..\..\..\..\Software\uCOS-III\Source/os_task.c **** *                  other words, the data you are pointing to that's being referenced by the queue e
 724:..\..\..\..\..\..\Software\uCOS-III\Source/os_task.c **** *                  likely, need to be de-allocated (i.e. freed).
 725:..\..\..\..\..\..\Software\uCOS-III\Source/os_task.c **** ***************************************************************************************************
 726:..\..\..\..\..\..\Software\uCOS-III\Source/os_task.c **** */
 727:..\..\..\..\..\..\Software\uCOS-III\Source/os_task.c **** 
 728:..\..\..\..\..\..\Software\uCOS-III\Source/os_task.c **** #if (OS_CFG_TASK_Q_EN == DEF_ENABLED)
 729:..\..\..\..\..\..\Software\uCOS-III\Source/os_task.c **** OS_MSG_QTY  OSTaskQFlush (OS_TCB  *p_tcb,
 730:..\..\..\..\..\..\Software\uCOS-III\Source/os_task.c ****                           OS_ERR  *p_err)
 731:..\..\..\..\..\..\Software\uCOS-III\Source/os_task.c **** {
 610              		.loc 1 731 0
 611              		.cfi_startproc
 612              		@ args = 0, pretend = 0, frame = 16
 613              		@ frame_needed = 1, uses_anonymous_args = 0
 614 0000 90B5     		push	{r4, r7, lr}
 615              		.cfi_def_cfa_offset 12
 616              		.cfi_offset 4, -12
 617              		.cfi_offset 7, -8
 618              		.cfi_offset 14, -4
 619 0002 85B0     		sub	sp, sp, #20
 620              		.cfi_def_cfa_offset 32
 621 0004 00AF     		add	r7, sp, #0
 622              		.cfi_def_cfa_register 7
 623 0006 7860     		str	r0, [r7, #4]
 624 0008 3960     		str	r1, [r7]
 732:..\..\..\..\..\..\Software\uCOS-III\Source/os_task.c ****     OS_MSG_QTY  entries;
 733:..\..\..\..\..\..\Software\uCOS-III\Source/os_task.c ****     CPU_SR_ALLOC();
 625              		.loc 1 733 0
 626 000a 0023     		movs	r3, #0
 627 000c FB60     		str	r3, [r7, #12]
 734:..\..\..\..\..\..\Software\uCOS-III\Source/os_task.c **** 
 735:..\..\..\..\..\..\Software\uCOS-III\Source/os_task.c **** 
 736:..\..\..\..\..\..\Software\uCOS-III\Source/os_task.c **** 
ARM GAS  C:\Users\ADMINI~1\AppData\Local\Temp\ccvBRVNC.s 			page 25


 737:..\..\..\..\..\..\Software\uCOS-III\Source/os_task.c **** #ifdef OS_SAFETY_CRITICAL
 738:..\..\..\..\..\..\Software\uCOS-III\Source/os_task.c ****     if (p_err == DEF_NULL) {
 739:..\..\..\..\..\..\Software\uCOS-III\Source/os_task.c ****         OS_SAFETY_CRITICAL_EXCEPTION();
 740:..\..\..\..\..\..\Software\uCOS-III\Source/os_task.c ****         return (0u);
 741:..\..\..\..\..\..\Software\uCOS-III\Source/os_task.c ****     }
 742:..\..\..\..\..\..\Software\uCOS-III\Source/os_task.c **** #endif
 743:..\..\..\..\..\..\Software\uCOS-III\Source/os_task.c **** 
 744:..\..\..\..\..\..\Software\uCOS-III\Source/os_task.c **** #if (OS_CFG_CALLED_FROM_ISR_CHK_EN == DEF_ENABLED)
 745:..\..\..\..\..\..\Software\uCOS-III\Source/os_task.c ****     if (OSIntNestingCtr > 0u) {                                 /* Can't flush a message queue from
 628              		.loc 1 745 0
 629 000e 1D4B     		ldr	r3, .L36
 630 0010 1B78     		ldrb	r3, [r3]
 631 0012 002B     		cmp	r3, #0
 632 0014 05D0     		beq	.L33
 746:..\..\..\..\..\..\Software\uCOS-III\Source/os_task.c ****        *p_err = OS_ERR_FLUSH_ISR;
 633              		.loc 1 746 0
 634 0016 3B68     		ldr	r3, [r7]
 635 0018 EC22     		movs	r2, #236
 636 001a 9201     		lsls	r2, r2, #6
 637 001c 1A80     		strh	r2, [r3]
 747:..\..\..\..\..\..\Software\uCOS-III\Source/os_task.c ****         return (0u);
 638              		.loc 1 747 0
 639 001e 0023     		movs	r3, #0
 640 0020 2CE0     		b	.L34
 641              	.L33:
 748:..\..\..\..\..\..\Software\uCOS-III\Source/os_task.c ****     }
 749:..\..\..\..\..\..\Software\uCOS-III\Source/os_task.c **** #endif
 750:..\..\..\..\..\..\Software\uCOS-III\Source/os_task.c **** 
 751:..\..\..\..\..\..\Software\uCOS-III\Source/os_task.c **** #if (OS_CFG_INVALID_OS_CALLS_CHK_EN == DEF_ENABLED)             /* Is the kernel running?          
 752:..\..\..\..\..\..\Software\uCOS-III\Source/os_task.c ****     if (OSRunning != OS_STATE_OS_RUNNING) {
 753:..\..\..\..\..\..\Software\uCOS-III\Source/os_task.c ****        *p_err = OS_ERR_OS_NOT_RUNNING;
 754:..\..\..\..\..\..\Software\uCOS-III\Source/os_task.c ****         return (0u);
 755:..\..\..\..\..\..\Software\uCOS-III\Source/os_task.c ****     }
 756:..\..\..\..\..\..\Software\uCOS-III\Source/os_task.c **** #endif
 757:..\..\..\..\..\..\Software\uCOS-III\Source/os_task.c **** 
 758:..\..\..\..\..\..\Software\uCOS-III\Source/os_task.c ****     if (p_tcb == DEF_NULL) {                                    /* Flush message queue of calling t
 642              		.loc 1 758 0
 643 0022 7B68     		ldr	r3, [r7, #4]
 644 0024 002B     		cmp	r3, #0
 645 0026 0ED1     		bne	.L35
 759:..\..\..\..\..\..\Software\uCOS-III\Source/os_task.c ****         CPU_CRITICAL_ENTER();
 646              		.loc 1 759 0
 647 0028 FFF7FEFF 		bl	CPU_SR_Save
 648 002c 0300     		movs	r3, r0
 649 002e FB60     		str	r3, [r7, #12]
 650 0030 FFF7FEFF 		bl	CPU_IntDisMeasStart
 760:..\..\..\..\..\..\Software\uCOS-III\Source/os_task.c ****         p_tcb = OSTCBCurPtr;
 651              		.loc 1 760 0
 652 0034 144B     		ldr	r3, .L36+4
 653 0036 1B68     		ldr	r3, [r3]
 654 0038 7B60     		str	r3, [r7, #4]
 761:..\..\..\..\..\..\Software\uCOS-III\Source/os_task.c ****         CPU_CRITICAL_EXIT();
 655              		.loc 1 761 0
 656 003a FFF7FEFF 		bl	CPU_IntDisMeasStop
 657 003e FB68     		ldr	r3, [r7, #12]
 658 0040 1800     		movs	r0, r3
 659 0042 FFF7FEFF 		bl	CPU_SR_Restore
ARM GAS  C:\Users\ADMINI~1\AppData\Local\Temp\ccvBRVNC.s 			page 26


 660              	.L35:
 762:..\..\..\..\..\..\Software\uCOS-III\Source/os_task.c ****     }
 763:..\..\..\..\..\..\Software\uCOS-III\Source/os_task.c **** 
 764:..\..\..\..\..\..\Software\uCOS-III\Source/os_task.c ****     OS_CRITICAL_ENTER();
 661              		.loc 1 764 0
 662 0046 FFF7FEFF 		bl	CPU_SR_Save
 663 004a 0300     		movs	r3, r0
 664 004c FB60     		str	r3, [r7, #12]
 665 004e FFF7FEFF 		bl	CPU_IntDisMeasStart
 765:..\..\..\..\..\..\Software\uCOS-III\Source/os_task.c ****     entries = OS_MsgQFreeAll(&p_tcb->MsgQ);                     /* Return all OS_MSGs to the OS_MSG
 666              		.loc 1 765 0
 667 0052 7B68     		ldr	r3, [r7, #4]
 668 0054 6033     		adds	r3, r3, #96
 669 0056 0A22     		movs	r2, #10
 670 0058 BC18     		adds	r4, r7, r2
 671 005a 1800     		movs	r0, r3
 672 005c FFF7FEFF 		bl	OS_MsgQFreeAll
 673 0060 0300     		movs	r3, r0
 674 0062 2380     		strh	r3, [r4]
 766:..\..\..\..\..\..\Software\uCOS-III\Source/os_task.c ****     OS_CRITICAL_EXIT();
 675              		.loc 1 766 0
 676 0064 FFF7FEFF 		bl	CPU_IntDisMeasStop
 677 0068 FB68     		ldr	r3, [r7, #12]
 678 006a 1800     		movs	r0, r3
 679 006c FFF7FEFF 		bl	CPU_SR_Restore
 767:..\..\..\..\..\..\Software\uCOS-III\Source/os_task.c ****    *p_err   = OS_ERR_NONE;
 680              		.loc 1 767 0
 681 0070 3B68     		ldr	r3, [r7]
 682 0072 0022     		movs	r2, #0
 683 0074 1A80     		strh	r2, [r3]
 768:..\..\..\..\..\..\Software\uCOS-III\Source/os_task.c ****     return (entries);
 684              		.loc 1 768 0
 685 0076 0A23     		movs	r3, #10
 686 0078 FB18     		adds	r3, r7, r3
 687 007a 1B88     		ldrh	r3, [r3]
 688              	.L34:
 769:..\..\..\..\..\..\Software\uCOS-III\Source/os_task.c **** }
 689              		.loc 1 769 0
 690 007c 1800     		movs	r0, r3
 691 007e BD46     		mov	sp, r7
 692 0080 05B0     		add	sp, sp, #20
 693              		@ sp needed
 694 0082 90BD     		pop	{r4, r7, pc}
 695              	.L37:
 696              		.align	2
 697              	.L36:
 698 0084 00000000 		.word	OSIntNestingCtr
 699 0088 00000000 		.word	OSTCBCurPtr
 700              		.cfi_endproc
 701              	.LFE2:
 702              		.size	OSTaskQFlush, .-OSTaskQFlush
 703              		.section	.text.OSTaskQPend,"ax",%progbits
 704              		.align	2
 705              		.global	OSTaskQPend
 706              		.code	16
 707              		.thumb_func
 708              		.type	OSTaskQPend, %function
ARM GAS  C:\Users\ADMINI~1\AppData\Local\Temp\ccvBRVNC.s 			page 27


 709              	OSTaskQPend:
 710              	.LFB3:
 770:..\..\..\..\..\..\Software\uCOS-III\Source/os_task.c **** #endif
 771:..\..\..\..\..\..\Software\uCOS-III\Source/os_task.c **** 
 772:..\..\..\..\..\..\Software\uCOS-III\Source/os_task.c **** 
 773:..\..\..\..\..\..\Software\uCOS-III\Source/os_task.c **** /*
 774:..\..\..\..\..\..\Software\uCOS-III\Source/os_task.c **** ***************************************************************************************************
 775:..\..\..\..\..\..\Software\uCOS-III\Source/os_task.c **** *                                                  WAIT FOR A MESSAGE
 776:..\..\..\..\..\..\Software\uCOS-III\Source/os_task.c **** *
 777:..\..\..\..\..\..\Software\uCOS-III\Source/os_task.c **** * Description: This function causes the current task to wait for a message to be posted to it.
 778:..\..\..\..\..\..\Software\uCOS-III\Source/os_task.c **** *
 779:..\..\..\..\..\..\Software\uCOS-III\Source/os_task.c **** * Arguments  : timeout       is an optional timeout period (in clock ticks).  If non-zero, your tas
 780:..\..\..\..\..\..\Software\uCOS-III\Source/os_task.c **** *                            message to arrive up to the amount of time specified by this argument.
 781:..\..\..\..\..\..\Software\uCOS-III\Source/os_task.c **** *                            If you specify 0, however, your task will wait forever or, until a mes
 782:..\..\..\..\..\..\Software\uCOS-III\Source/os_task.c **** *
 783:..\..\..\..\..\..\Software\uCOS-III\Source/os_task.c **** *              opt           determines whether the user wants to block if the task's queue is empt
 784:..\..\..\..\..\..\Software\uCOS-III\Source/os_task.c **** *
 785:..\..\..\..\..\..\Software\uCOS-III\Source/os_task.c **** *                                OS_OPT_PEND_BLOCKING
 786:..\..\..\..\..\..\Software\uCOS-III\Source/os_task.c **** *                                OS_OPT_PEND_NON_BLOCKING
 787:..\..\..\..\..\..\Software\uCOS-III\Source/os_task.c **** *
 788:..\..\..\..\..\..\Software\uCOS-III\Source/os_task.c **** *              p_msg_size    is a pointer to a variable that will receive the size of the message
 789:..\..\..\..\..\..\Software\uCOS-III\Source/os_task.c **** *
 790:..\..\..\..\..\..\Software\uCOS-III\Source/os_task.c **** *              p_ts          is a pointer to a variable that will receive the timestamp of when the
 791:..\..\..\..\..\..\Software\uCOS-III\Source/os_task.c **** *                            received.  If you pass a NULL pointer (i.e. (CPU_TS *)0) then you will
 792:..\..\..\..\..\..\Software\uCOS-III\Source/os_task.c **** *                            timestamp.  In other words, passing a NULL pointer is valid and indica
 793:..\..\..\..\..\..\Software\uCOS-III\Source/os_task.c **** *                            need the timestamp.
 794:..\..\..\..\..\..\Software\uCOS-III\Source/os_task.c **** *
 795:..\..\..\..\..\..\Software\uCOS-III\Source/os_task.c **** *              p_err         is a pointer to where an error message will be deposited.  Possible er
 796:..\..\..\..\..\..\Software\uCOS-III\Source/os_task.c **** *                            messages are:
 797:..\..\..\..\..\..\Software\uCOS-III\Source/os_task.c **** *
 798:..\..\..\..\..\..\Software\uCOS-III\Source/os_task.c **** *                                OS_ERR_NONE               The call was successful and your task re
 799:..\..\..\..\..\..\Software\uCOS-III\Source/os_task.c **** *                                OS_ERR_OPT_INVALID        If you specified an invalid option
 800:..\..\..\..\..\..\Software\uCOS-III\Source/os_task.c **** *                                OS_ERR_OS_NOT_RUNNING     If uC/OS-III is not running yet
 801:..\..\..\..\..\..\Software\uCOS-III\Source/os_task.c **** *                                OS_ERR_PEND_ABORT         If the pend was aborted
 802:..\..\..\..\..\..\Software\uCOS-III\Source/os_task.c **** *                                OS_ERR_PEND_ISR           If you called this function from an ISR 
 803:..\..\..\..\..\..\Software\uCOS-III\Source/os_task.c **** *                                OS_ERR_PEND_WOULD_BLOCK   If you specified non-blocking but the qu
 804:..\..\..\..\..\..\Software\uCOS-III\Source/os_task.c **** *                                OS_ERR_PTR_INVALID        If 'p_msg_size' is NULL
 805:..\..\..\..\..\..\Software\uCOS-III\Source/os_task.c **** *                                OS_ERR_SCHED_LOCKED       If the scheduler is locked
 806:..\..\..\..\..\..\Software\uCOS-III\Source/os_task.c **** *                                OS_ERR_TIMEOUT            A message was not received within the sp
 807:..\..\..\..\..\..\Software\uCOS-III\Source/os_task.c **** *                                                          would lead to a suspension
 808:..\..\..\..\..\..\Software\uCOS-III\Source/os_task.c **** *
 809:..\..\..\..\..\..\Software\uCOS-III\Source/os_task.c **** * Returns    : A pointer to the message received or a NULL pointer upon error.
 810:..\..\..\..\..\..\Software\uCOS-III\Source/os_task.c **** *
 811:..\..\..\..\..\..\Software\uCOS-III\Source/os_task.c **** * Note(s)    : 1) It is possible to receive NULL pointers when there are no errors.
 812:..\..\..\..\..\..\Software\uCOS-III\Source/os_task.c **** ***************************************************************************************************
 813:..\..\..\..\..\..\Software\uCOS-III\Source/os_task.c **** */
 814:..\..\..\..\..\..\Software\uCOS-III\Source/os_task.c **** 
 815:..\..\..\..\..\..\Software\uCOS-III\Source/os_task.c **** #if (OS_CFG_TASK_Q_EN == DEF_ENABLED)
 816:..\..\..\..\..\..\Software\uCOS-III\Source/os_task.c **** void  *OSTaskQPend (OS_TICK       timeout,
 817:..\..\..\..\..\..\Software\uCOS-III\Source/os_task.c ****                     OS_OPT        opt,
 818:..\..\..\..\..\..\Software\uCOS-III\Source/os_task.c ****                     OS_MSG_SIZE  *p_msg_size,
 819:..\..\..\..\..\..\Software\uCOS-III\Source/os_task.c ****                     CPU_TS       *p_ts,
 820:..\..\..\..\..\..\Software\uCOS-III\Source/os_task.c ****                     OS_ERR       *p_err)
 821:..\..\..\..\..\..\Software\uCOS-III\Source/os_task.c **** {
 711              		.loc 1 821 0
 712              		.cfi_startproc
 713              		@ args = 4, pretend = 0, frame = 32
ARM GAS  C:\Users\ADMINI~1\AppData\Local\Temp\ccvBRVNC.s 			page 28


 714              		@ frame_needed = 1, uses_anonymous_args = 0
 715 0000 90B5     		push	{r4, r7, lr}
 716              		.cfi_def_cfa_offset 12
 717              		.cfi_offset 4, -12
 718              		.cfi_offset 7, -8
 719              		.cfi_offset 14, -4
 720 0002 89B0     		sub	sp, sp, #36
 721              		.cfi_def_cfa_offset 48
 722 0004 00AF     		add	r7, sp, #0
 723              		.cfi_def_cfa_register 7
 724 0006 F860     		str	r0, [r7, #12]
 725 0008 7A60     		str	r2, [r7, #4]
 726 000a 3B60     		str	r3, [r7]
 727 000c 0A23     		movs	r3, #10
 728 000e FB18     		adds	r3, r7, r3
 729 0010 0A1C     		adds	r2, r1, #0
 730 0012 1A80     		strh	r2, [r3]
 822:..\..\..\..\..\..\Software\uCOS-III\Source/os_task.c ****     OS_MSG_Q     *p_msg_q;
 823:..\..\..\..\..\..\Software\uCOS-III\Source/os_task.c ****     void         *p_void;
 824:..\..\..\..\..\..\Software\uCOS-III\Source/os_task.c ****     CPU_SR_ALLOC();
 731              		.loc 1 824 0
 732 0014 0023     		movs	r3, #0
 733 0016 BB61     		str	r3, [r7, #24]
 825:..\..\..\..\..\..\Software\uCOS-III\Source/os_task.c **** 
 826:..\..\..\..\..\..\Software\uCOS-III\Source/os_task.c **** 
 827:..\..\..\..\..\..\Software\uCOS-III\Source/os_task.c **** #ifdef OS_SAFETY_CRITICAL
 828:..\..\..\..\..\..\Software\uCOS-III\Source/os_task.c ****     if (p_err == DEF_NULL) {
 829:..\..\..\..\..\..\Software\uCOS-III\Source/os_task.c ****         OS_SAFETY_CRITICAL_EXCEPTION();
 830:..\..\..\..\..\..\Software\uCOS-III\Source/os_task.c ****         return (DEF_NULL);
 831:..\..\..\..\..\..\Software\uCOS-III\Source/os_task.c ****     }
 832:..\..\..\..\..\..\Software\uCOS-III\Source/os_task.c **** #endif
 833:..\..\..\..\..\..\Software\uCOS-III\Source/os_task.c **** 
 834:..\..\..\..\..\..\Software\uCOS-III\Source/os_task.c **** #if (OS_CFG_CALLED_FROM_ISR_CHK_EN == DEF_ENABLED)
 835:..\..\..\..\..\..\Software\uCOS-III\Source/os_task.c ****     if (OSIntNestingCtr > 0u) {                                 /* Can't Pend from an ISR          
 734              		.loc 1 835 0
 735 0018 794B     		ldr	r3, .L59
 736 001a 1B78     		ldrb	r3, [r3]
 737 001c 002B     		cmp	r3, #0
 738 001e 04D0     		beq	.L39
 836:..\..\..\..\..\..\Software\uCOS-III\Source/os_task.c ****        *p_err = OS_ERR_PEND_ISR;
 739              		.loc 1 836 0
 740 0020 3B6B     		ldr	r3, [r7, #48]
 741 0022 784A     		ldr	r2, .L59+4
 742 0024 1A80     		strh	r2, [r3]
 837:..\..\..\..\..\..\Software\uCOS-III\Source/os_task.c ****         return (DEF_NULL);
 743              		.loc 1 837 0
 744 0026 0023     		movs	r3, #0
 745 0028 E6E0     		b	.L40
 746              	.L39:
 838:..\..\..\..\..\..\Software\uCOS-III\Source/os_task.c ****     }
 839:..\..\..\..\..\..\Software\uCOS-III\Source/os_task.c **** #endif
 840:..\..\..\..\..\..\Software\uCOS-III\Source/os_task.c **** 
 841:..\..\..\..\..\..\Software\uCOS-III\Source/os_task.c **** #if (OS_CFG_INVALID_OS_CALLS_CHK_EN == DEF_ENABLED)             /* Is the kernel running?          
 842:..\..\..\..\..\..\Software\uCOS-III\Source/os_task.c ****     if (OSRunning != OS_STATE_OS_RUNNING) {
 843:..\..\..\..\..\..\Software\uCOS-III\Source/os_task.c ****        *p_err = OS_ERR_OS_NOT_RUNNING;
 844:..\..\..\..\..\..\Software\uCOS-III\Source/os_task.c ****         return (DEF_NULL);
 845:..\..\..\..\..\..\Software\uCOS-III\Source/os_task.c ****     }
ARM GAS  C:\Users\ADMINI~1\AppData\Local\Temp\ccvBRVNC.s 			page 29


 846:..\..\..\..\..\..\Software\uCOS-III\Source/os_task.c **** #endif
 847:..\..\..\..\..\..\Software\uCOS-III\Source/os_task.c **** 
 848:..\..\..\..\..\..\Software\uCOS-III\Source/os_task.c **** #if (OS_CFG_ARG_CHK_EN == DEF_ENABLED)                          /* ---------------- VALIDATE ARGUME
 849:..\..\..\..\..\..\Software\uCOS-III\Source/os_task.c ****     if (p_msg_size == DEF_NULL) {                               /* User must supply a valid destina
 747              		.loc 1 849 0
 748 002a 7B68     		ldr	r3, [r7, #4]
 749 002c 002B     		cmp	r3, #0
 750 002e 04D1     		bne	.L41
 850:..\..\..\..\..\..\Software\uCOS-III\Source/os_task.c ****        *p_err = OS_ERR_PTR_INVALID;
 751              		.loc 1 850 0
 752 0030 3B6B     		ldr	r3, [r7, #48]
 753 0032 754A     		ldr	r2, .L59+8
 754 0034 1A80     		strh	r2, [r3]
 851:..\..\..\..\..\..\Software\uCOS-III\Source/os_task.c ****         return (DEF_NULL);
 755              		.loc 1 851 0
 756 0036 0023     		movs	r3, #0
 757 0038 DEE0     		b	.L40
 758              	.L41:
 852:..\..\..\..\..\..\Software\uCOS-III\Source/os_task.c ****     }
 853:..\..\..\..\..\..\Software\uCOS-III\Source/os_task.c ****     switch (opt) {                                              /* User must supply a valid option 
 759              		.loc 1 853 0
 760 003a 0A23     		movs	r3, #10
 761 003c FB18     		adds	r3, r7, r3
 762 003e 1B88     		ldrh	r3, [r3]
 763 0040 002B     		cmp	r3, #0
 764 0042 08D0     		beq	.L58
 765 0044 8022     		movs	r2, #128
 766 0046 1202     		lsls	r2, r2, #8
 767 0048 9342     		cmp	r3, r2
 768 004a 04D0     		beq	.L58
 854:..\..\..\..\..\..\Software\uCOS-III\Source/os_task.c ****         case OS_OPT_PEND_BLOCKING:
 855:..\..\..\..\..\..\Software\uCOS-III\Source/os_task.c ****         case OS_OPT_PEND_NON_BLOCKING:
 856:..\..\..\..\..\..\Software\uCOS-III\Source/os_task.c ****              break;
 857:..\..\..\..\..\..\Software\uCOS-III\Source/os_task.c **** 
 858:..\..\..\..\..\..\Software\uCOS-III\Source/os_task.c ****         default:
 859:..\..\..\..\..\..\Software\uCOS-III\Source/os_task.c ****             *p_err = OS_ERR_OPT_INVALID;
 769              		.loc 1 859 0
 770 004c 3B6B     		ldr	r3, [r7, #48]
 771 004e 6F4A     		ldr	r2, .L59+12
 772 0050 1A80     		strh	r2, [r3]
 860:..\..\..\..\..\..\Software\uCOS-III\Source/os_task.c ****              return (DEF_NULL);
 773              		.loc 1 860 0
 774 0052 0023     		movs	r3, #0
 775 0054 D0E0     		b	.L40
 776              	.L58:
 856:..\..\..\..\..\..\Software\uCOS-III\Source/os_task.c **** 
 777              		.loc 1 856 0
 778 0056 C046     		nop
 861:..\..\..\..\..\..\Software\uCOS-III\Source/os_task.c ****     }
 862:..\..\..\..\..\..\Software\uCOS-III\Source/os_task.c **** #endif
 863:..\..\..\..\..\..\Software\uCOS-III\Source/os_task.c **** 
 864:..\..\..\..\..\..\Software\uCOS-III\Source/os_task.c ****     if (p_ts != DEF_NULL) {
 779              		.loc 1 864 0
 780 0058 3B68     		ldr	r3, [r7]
 781 005a 002B     		cmp	r3, #0
 782 005c 02D0     		beq	.L45
 865:..\..\..\..\..\..\Software\uCOS-III\Source/os_task.c ****        *p_ts = 0u;                                              /* Initialize the returned timestam
ARM GAS  C:\Users\ADMINI~1\AppData\Local\Temp\ccvBRVNC.s 			page 30


 783              		.loc 1 865 0
 784 005e 3B68     		ldr	r3, [r7]
 785 0060 0022     		movs	r2, #0
 786 0062 1A60     		str	r2, [r3]
 787              	.L45:
 866:..\..\..\..\..\..\Software\uCOS-III\Source/os_task.c ****     }
 867:..\..\..\..\..\..\Software\uCOS-III\Source/os_task.c **** 
 868:..\..\..\..\..\..\Software\uCOS-III\Source/os_task.c ****     CPU_CRITICAL_ENTER();
 788              		.loc 1 868 0
 789 0064 FFF7FEFF 		bl	CPU_SR_Save
 790 0068 0300     		movs	r3, r0
 791 006a BB61     		str	r3, [r7, #24]
 792 006c FFF7FEFF 		bl	CPU_IntDisMeasStart
 869:..\..\..\..\..\..\Software\uCOS-III\Source/os_task.c ****     p_msg_q = &OSTCBCurPtr->MsgQ;                               /* Any message waiting in the messa
 793              		.loc 1 869 0
 794 0070 674B     		ldr	r3, .L59+16
 795 0072 1B68     		ldr	r3, [r3]
 796 0074 6033     		adds	r3, r3, #96
 797 0076 7B61     		str	r3, [r7, #20]
 870:..\..\..\..\..\..\Software\uCOS-III\Source/os_task.c ****     p_void  = OS_MsgQGet(p_msg_q,
 798              		.loc 1 870 0
 799 0078 3B6B     		ldr	r3, [r7, #48]
 800 007a 3A68     		ldr	r2, [r7]
 801 007c 7968     		ldr	r1, [r7, #4]
 802 007e 7869     		ldr	r0, [r7, #20]
 803 0080 FFF7FEFF 		bl	OS_MsgQGet
 804 0084 0300     		movs	r3, r0
 805 0086 FB61     		str	r3, [r7, #28]
 871:..\..\..\..\..\..\Software\uCOS-III\Source/os_task.c ****                          p_msg_size,
 872:..\..\..\..\..\..\Software\uCOS-III\Source/os_task.c ****                          p_ts,
 873:..\..\..\..\..\..\Software\uCOS-III\Source/os_task.c ****                          p_err);
 874:..\..\..\..\..\..\Software\uCOS-III\Source/os_task.c ****     if (*p_err == OS_ERR_NONE) {
 806              		.loc 1 874 0
 807 0088 3B6B     		ldr	r3, [r7, #48]
 808 008a 1B88     		ldrh	r3, [r3]
 809 008c 002B     		cmp	r3, #0
 810 008e 21D1     		bne	.L46
 875:..\..\..\..\..\..\Software\uCOS-III\Source/os_task.c **** #if (OS_CFG_TASK_PROFILE_EN == DEF_ENABLED)
 876:..\..\..\..\..\..\Software\uCOS-III\Source/os_task.c **** #if (OS_CFG_TS_EN == DEF_ENABLED)
 877:..\..\..\..\..\..\Software\uCOS-III\Source/os_task.c ****         if (p_ts != DEF_NULL) {
 811              		.loc 1 877 0
 812 0090 3B68     		ldr	r3, [r7]
 813 0092 002B     		cmp	r3, #0
 814 0094 16D0     		beq	.L47
 878:..\..\..\..\..\..\Software\uCOS-III\Source/os_task.c ****             OSTCBCurPtr->MsgQPendTime = OS_TS_GET() - *p_ts;
 815              		.loc 1 878 0
 816 0096 5E4B     		ldr	r3, .L59+16
 817 0098 1C68     		ldr	r4, [r3]
 818 009a FFF7FEFF 		bl	CPU_TS_TmrRd
 819 009e 0200     		movs	r2, r0
 820 00a0 3B68     		ldr	r3, [r7]
 821 00a2 1B68     		ldr	r3, [r3]
 822 00a4 D31A     		subs	r3, r2, r3
 823 00a6 2367     		str	r3, [r4, #112]
 879:..\..\..\..\..\..\Software\uCOS-III\Source/os_task.c ****             if (OSTCBCurPtr->MsgQPendTimeMax < OSTCBCurPtr->MsgQPendTime) {
 824              		.loc 1 879 0
 825 00a8 594B     		ldr	r3, .L59+16
ARM GAS  C:\Users\ADMINI~1\AppData\Local\Temp\ccvBRVNC.s 			page 31


 826 00aa 1B68     		ldr	r3, [r3]
 827 00ac 5A6F     		ldr	r2, [r3, #116]
 828 00ae 584B     		ldr	r3, .L59+16
 829 00b0 1B68     		ldr	r3, [r3]
 830 00b2 1B6F     		ldr	r3, [r3, #112]
 831 00b4 9A42     		cmp	r2, r3
 832 00b6 05D2     		bcs	.L47
 880:..\..\..\..\..\..\Software\uCOS-III\Source/os_task.c ****                 OSTCBCurPtr->MsgQPendTimeMax = OSTCBCurPtr->MsgQPendTime;
 833              		.loc 1 880 0
 834 00b8 554B     		ldr	r3, .L59+16
 835 00ba 1B68     		ldr	r3, [r3]
 836 00bc 544A     		ldr	r2, .L59+16
 837 00be 1268     		ldr	r2, [r2]
 838 00c0 126F     		ldr	r2, [r2, #112]
 839 00c2 5A67     		str	r2, [r3, #116]
 840              	.L47:
 881:..\..\..\..\..\..\Software\uCOS-III\Source/os_task.c ****             }
 882:..\..\..\..\..\..\Software\uCOS-III\Source/os_task.c ****         }
 883:..\..\..\..\..\..\Software\uCOS-III\Source/os_task.c **** #endif
 884:..\..\..\..\..\..\Software\uCOS-III\Source/os_task.c **** #endif
 885:..\..\..\..\..\..\Software\uCOS-III\Source/os_task.c ****         CPU_CRITICAL_EXIT();
 841              		.loc 1 885 0
 842 00c4 FFF7FEFF 		bl	CPU_IntDisMeasStop
 843 00c8 BB69     		ldr	r3, [r7, #24]
 844 00ca 1800     		movs	r0, r3
 845 00cc FFF7FEFF 		bl	CPU_SR_Restore
 886:..\..\..\..\..\..\Software\uCOS-III\Source/os_task.c **** #if (defined(TRACE_CFG_EN) && (TRACE_CFG_EN == DEF_ENABLED))
 887:..\..\..\..\..\..\Software\uCOS-III\Source/os_task.c ****         TRACE_OS_TASK_MSG_Q_PEND(p_msg_q);                      /* Record the event.               
 888:..\..\..\..\..\..\Software\uCOS-III\Source/os_task.c **** #endif
 889:..\..\..\..\..\..\Software\uCOS-III\Source/os_task.c ****         return (p_void);                                        /* Yes, Return oldest message recei
 846              		.loc 1 889 0
 847 00d0 FB69     		ldr	r3, [r7, #28]
 848 00d2 91E0     		b	.L40
 849              	.L46:
 890:..\..\..\..\..\..\Software\uCOS-III\Source/os_task.c ****     }
 891:..\..\..\..\..\..\Software\uCOS-III\Source/os_task.c **** 
 892:..\..\..\..\..\..\Software\uCOS-III\Source/os_task.c ****     if ((opt & OS_OPT_PEND_NON_BLOCKING) != 0u) {               /* Caller wants to block if not ava
 850              		.loc 1 892 0
 851 00d4 0A23     		movs	r3, #10
 852 00d6 FB18     		adds	r3, r7, r3
 853 00d8 0022     		movs	r2, #0
 854 00da 9B5E     		ldrsh	r3, [r3, r2]
 855 00dc 002B     		cmp	r3, #0
 856 00de 0ADA     		bge	.L48
 893:..\..\..\..\..\..\Software\uCOS-III\Source/os_task.c ****        *p_err = OS_ERR_PEND_WOULD_BLOCK;                        /* No                              
 857              		.loc 1 893 0
 858 00e0 3B6B     		ldr	r3, [r7, #48]
 859 00e2 4C4A     		ldr	r2, .L59+20
 860 00e4 1A80     		strh	r2, [r3]
 894:..\..\..\..\..\..\Software\uCOS-III\Source/os_task.c ****         CPU_CRITICAL_EXIT();
 861              		.loc 1 894 0
 862 00e6 FFF7FEFF 		bl	CPU_IntDisMeasStop
 863 00ea BB69     		ldr	r3, [r7, #24]
 864 00ec 1800     		movs	r0, r3
 865 00ee FFF7FEFF 		bl	CPU_SR_Restore
 895:..\..\..\..\..\..\Software\uCOS-III\Source/os_task.c **** #if (defined(TRACE_CFG_EN) && (TRACE_CFG_EN == DEF_ENABLED))
 896:..\..\..\..\..\..\Software\uCOS-III\Source/os_task.c ****         TRACE_OS_TASK_MSG_Q_PEND_FAILED(p_msg_q);               /* Record the event.               
ARM GAS  C:\Users\ADMINI~1\AppData\Local\Temp\ccvBRVNC.s 			page 32


 897:..\..\..\..\..\..\Software\uCOS-III\Source/os_task.c **** #endif
 898:..\..\..\..\..\..\Software\uCOS-III\Source/os_task.c ****         return (DEF_NULL);
 866              		.loc 1 898 0
 867 00f2 0023     		movs	r3, #0
 868 00f4 80E0     		b	.L40
 869              	.L48:
 899:..\..\..\..\..\..\Software\uCOS-III\Source/os_task.c ****     } else {                                                    /* Yes                             
 900:..\..\..\..\..\..\Software\uCOS-III\Source/os_task.c ****         if (OSSchedLockNestingCtr > 0u) {                       /* Can't block when the scheduler i
 870              		.loc 1 900 0
 871 00f6 484B     		ldr	r3, .L59+24
 872 00f8 1B78     		ldrb	r3, [r3]
 873 00fa 002B     		cmp	r3, #0
 874 00fc 0AD0     		beq	.L49
 901:..\..\..\..\..\..\Software\uCOS-III\Source/os_task.c ****             CPU_CRITICAL_EXIT();
 875              		.loc 1 901 0
 876 00fe FFF7FEFF 		bl	CPU_IntDisMeasStop
 877 0102 BB69     		ldr	r3, [r7, #24]
 878 0104 1800     		movs	r0, r3
 879 0106 FFF7FEFF 		bl	CPU_SR_Restore
 902:..\..\..\..\..\..\Software\uCOS-III\Source/os_task.c **** #if (defined(TRACE_CFG_EN) && (TRACE_CFG_EN == DEF_ENABLED))
 903:..\..\..\..\..\..\Software\uCOS-III\Source/os_task.c ****             TRACE_OS_TASK_MSG_Q_PEND_FAILED(p_msg_q);           /* Record the event.               
 904:..\..\..\..\..\..\Software\uCOS-III\Source/os_task.c **** #endif
 905:..\..\..\..\..\..\Software\uCOS-III\Source/os_task.c ****            *p_err = OS_ERR_SCHED_LOCKED;
 880              		.loc 1 905 0
 881 010a 3B6B     		ldr	r3, [r7, #48]
 882 010c 434A     		ldr	r2, .L59+28
 883 010e 1A80     		strh	r2, [r3]
 906:..\..\..\..\..\..\Software\uCOS-III\Source/os_task.c ****             return (DEF_NULL);
 884              		.loc 1 906 0
 885 0110 0023     		movs	r3, #0
 886 0112 71E0     		b	.L40
 887              	.L49:
 907:..\..\..\..\..\..\Software\uCOS-III\Source/os_task.c ****         }
 908:..\..\..\..\..\..\Software\uCOS-III\Source/os_task.c ****     }
 909:..\..\..\..\..\..\Software\uCOS-III\Source/os_task.c ****                                                                 /* Lock the scheduler/re-enable int
 910:..\..\..\..\..\..\Software\uCOS-III\Source/os_task.c ****     OS_CRITICAL_ENTER_CPU_EXIT();
 911:..\..\..\..\..\..\Software\uCOS-III\Source/os_task.c ****     OS_Pend(DEF_NULL,                                           /* Block task pending on Message   
 888              		.loc 1 911 0
 889 0114 FB68     		ldr	r3, [r7, #12]
 890 0116 0222     		movs	r2, #2
 891 0118 0021     		movs	r1, #0
 892 011a 0020     		movs	r0, #0
 893 011c FFF7FEFF 		bl	OS_Pend
 912:..\..\..\..\..\..\Software\uCOS-III\Source/os_task.c ****             DEF_NULL,
 913:..\..\..\..\..\..\Software\uCOS-III\Source/os_task.c ****             OS_TASK_PEND_ON_TASK_Q,
 914:..\..\..\..\..\..\Software\uCOS-III\Source/os_task.c ****             timeout);
 915:..\..\..\..\..\..\Software\uCOS-III\Source/os_task.c ****     OS_CRITICAL_EXIT_NO_SCHED();
 894              		.loc 1 915 0
 895 0120 FFF7FEFF 		bl	CPU_IntDisMeasStop
 896 0124 BB69     		ldr	r3, [r7, #24]
 897 0126 1800     		movs	r0, r3
 898 0128 FFF7FEFF 		bl	CPU_SR_Restore
 916:..\..\..\..\..\..\Software\uCOS-III\Source/os_task.c **** #if (defined(TRACE_CFG_EN) && (TRACE_CFG_EN == DEF_ENABLED))
 917:..\..\..\..\..\..\Software\uCOS-III\Source/os_task.c ****     TRACE_OS_TASK_MSG_Q_PEND_BLOCK(p_msg_q);                    /* Record the event.               
 918:..\..\..\..\..\..\Software\uCOS-III\Source/os_task.c **** #endif
 919:..\..\..\..\..\..\Software\uCOS-III\Source/os_task.c ****     OSSched();                                                  /* Find the next highest priority t
 899              		.loc 1 919 0
ARM GAS  C:\Users\ADMINI~1\AppData\Local\Temp\ccvBRVNC.s 			page 33


 900 012c FFF7FEFF 		bl	OSSched
 920:..\..\..\..\..\..\Software\uCOS-III\Source/os_task.c **** 
 921:..\..\..\..\..\..\Software\uCOS-III\Source/os_task.c ****     CPU_CRITICAL_ENTER();
 901              		.loc 1 921 0
 902 0130 FFF7FEFF 		bl	CPU_SR_Save
 903 0134 0300     		movs	r3, r0
 904 0136 BB61     		str	r3, [r7, #24]
 905 0138 FFF7FEFF 		bl	CPU_IntDisMeasStart
 922:..\..\..\..\..\..\Software\uCOS-III\Source/os_task.c ****     switch (OSTCBCurPtr->PendStatus) {
 906              		.loc 1 922 0
 907 013c 344B     		ldr	r3, .L59+16
 908 013e 1B68     		ldr	r3, [r3]
 909 0140 3522     		movs	r2, #53
 910 0142 9B5C     		ldrb	r3, [r3, r2]
 911 0144 002B     		cmp	r3, #0
 912 0146 02D0     		beq	.L51
 913 0148 012B     		cmp	r3, #1
 914 014a 2ED0     		beq	.L52
 915 014c 3CE0     		b	.L57
 916              	.L51:
 923:..\..\..\..\..\..\Software\uCOS-III\Source/os_task.c ****         case OS_STATUS_PEND_OK:                                 /* Extract message from TCB (Put th
 924:..\..\..\..\..\..\Software\uCOS-III\Source/os_task.c ****              p_void      = OSTCBCurPtr->MsgPtr;
 917              		.loc 1 924 0
 918 014e 304B     		ldr	r3, .L59+16
 919 0150 1B68     		ldr	r3, [r3]
 920 0152 9B6D     		ldr	r3, [r3, #88]
 921 0154 FB61     		str	r3, [r7, #28]
 925:..\..\..\..\..\..\Software\uCOS-III\Source/os_task.c ****             *p_msg_size  = OSTCBCurPtr->MsgSize;
 922              		.loc 1 925 0
 923 0156 2E4B     		ldr	r3, .L59+16
 924 0158 1B68     		ldr	r3, [r3]
 925 015a 5C22     		movs	r2, #92
 926 015c 9A5A     		ldrh	r2, [r3, r2]
 927 015e 7B68     		ldr	r3, [r7, #4]
 928 0160 1A80     		strh	r2, [r3]
 926:..\..\..\..\..\..\Software\uCOS-III\Source/os_task.c **** #if (OS_CFG_TS_EN == DEF_ENABLED)
 927:..\..\..\..\..\..\Software\uCOS-III\Source/os_task.c ****              if (p_ts != DEF_NULL) {
 929              		.loc 1 927 0
 930 0162 3B68     		ldr	r3, [r7]
 931 0164 002B     		cmp	r3, #0
 932 0166 1CD0     		beq	.L53
 928:..\..\..\..\..\..\Software\uCOS-III\Source/os_task.c ****                 *p_ts = OSTCBCurPtr->TS;
 933              		.loc 1 928 0
 934 0168 294B     		ldr	r3, .L59+16
 935 016a 1B68     		ldr	r3, [r3]
 936 016c 9A6C     		ldr	r2, [r3, #72]
 937 016e 3B68     		ldr	r3, [r7]
 938 0170 1A60     		str	r2, [r3]
 929:..\..\..\..\..\..\Software\uCOS-III\Source/os_task.c **** #if (OS_CFG_TASK_PROFILE_EN == DEF_ENABLED)
 930:..\..\..\..\..\..\Software\uCOS-III\Source/os_task.c ****                 OSTCBCurPtr->MsgQPendTime = OS_TS_GET() - OSTCBCurPtr->TS;
 939              		.loc 1 930 0
 940 0172 274B     		ldr	r3, .L59+16
 941 0174 1C68     		ldr	r4, [r3]
 942 0176 FFF7FEFF 		bl	CPU_TS_TmrRd
 943 017a 0200     		movs	r2, r0
 944 017c 244B     		ldr	r3, .L59+16
 945 017e 1B68     		ldr	r3, [r3]
ARM GAS  C:\Users\ADMINI~1\AppData\Local\Temp\ccvBRVNC.s 			page 34


 946 0180 9B6C     		ldr	r3, [r3, #72]
 947 0182 D31A     		subs	r3, r2, r3
 948 0184 2367     		str	r3, [r4, #112]
 931:..\..\..\..\..\..\Software\uCOS-III\Source/os_task.c ****                 if (OSTCBCurPtr->MsgQPendTimeMax < OSTCBCurPtr->MsgQPendTime) {
 949              		.loc 1 931 0
 950 0186 224B     		ldr	r3, .L59+16
 951 0188 1B68     		ldr	r3, [r3]
 952 018a 5A6F     		ldr	r2, [r3, #116]
 953 018c 204B     		ldr	r3, .L59+16
 954 018e 1B68     		ldr	r3, [r3]
 955 0190 1B6F     		ldr	r3, [r3, #112]
 956 0192 9A42     		cmp	r2, r3
 957 0194 05D2     		bcs	.L53
 932:..\..\..\..\..\..\Software\uCOS-III\Source/os_task.c ****                     OSTCBCurPtr->MsgQPendTimeMax = OSTCBCurPtr->MsgQPendTime;
 958              		.loc 1 932 0
 959 0196 1E4B     		ldr	r3, .L59+16
 960 0198 1B68     		ldr	r3, [r3]
 961 019a 1D4A     		ldr	r2, .L59+16
 962 019c 1268     		ldr	r2, [r2]
 963 019e 126F     		ldr	r2, [r2, #112]
 964 01a0 5A67     		str	r2, [r3, #116]
 965              	.L53:
 933:..\..\..\..\..\..\Software\uCOS-III\Source/os_task.c ****                 }
 934:..\..\..\..\..\..\Software\uCOS-III\Source/os_task.c **** #endif
 935:..\..\..\..\..\..\Software\uCOS-III\Source/os_task.c ****              }
 936:..\..\..\..\..\..\Software\uCOS-III\Source/os_task.c **** #endif
 937:..\..\..\..\..\..\Software\uCOS-III\Source/os_task.c **** #if (defined(TRACE_CFG_EN) && (TRACE_CFG_EN == DEF_ENABLED))
 938:..\..\..\..\..\..\Software\uCOS-III\Source/os_task.c ****              TRACE_OS_TASK_MSG_Q_PEND(p_msg_q);                 /* Record the event.               
 939:..\..\..\..\..\..\Software\uCOS-III\Source/os_task.c **** #endif
 940:..\..\..\..\..\..\Software\uCOS-III\Source/os_task.c ****             *p_err = OS_ERR_NONE;
 966              		.loc 1 940 0
 967 01a2 3B6B     		ldr	r3, [r7, #48]
 968 01a4 0022     		movs	r2, #0
 969 01a6 1A80     		strh	r2, [r3]
 941:..\..\..\..\..\..\Software\uCOS-III\Source/os_task.c ****              break;
 970              		.loc 1 941 0
 971 01a8 1FE0     		b	.L54
 972              	.L52:
 942:..\..\..\..\..\..\Software\uCOS-III\Source/os_task.c **** 
 943:..\..\..\..\..\..\Software\uCOS-III\Source/os_task.c ****         case OS_STATUS_PEND_ABORT:                              /* Indicate that we aborted        
 944:..\..\..\..\..\..\Software\uCOS-III\Source/os_task.c ****              p_void     = DEF_NULL;
 973              		.loc 1 944 0
 974 01aa 0023     		movs	r3, #0
 975 01ac FB61     		str	r3, [r7, #28]
 945:..\..\..\..\..\..\Software\uCOS-III\Source/os_task.c ****             *p_msg_size = 0u;
 976              		.loc 1 945 0
 977 01ae 7B68     		ldr	r3, [r7, #4]
 978 01b0 0022     		movs	r2, #0
 979 01b2 1A80     		strh	r2, [r3]
 946:..\..\..\..\..\..\Software\uCOS-III\Source/os_task.c ****              if (p_ts != DEF_NULL) {
 980              		.loc 1 946 0
 981 01b4 3B68     		ldr	r3, [r7]
 982 01b6 002B     		cmp	r3, #0
 983 01b8 02D0     		beq	.L55
 947:..\..\..\..\..\..\Software\uCOS-III\Source/os_task.c ****                 *p_ts = 0u;
 984              		.loc 1 947 0
 985 01ba 3B68     		ldr	r3, [r7]
ARM GAS  C:\Users\ADMINI~1\AppData\Local\Temp\ccvBRVNC.s 			page 35


 986 01bc 0022     		movs	r2, #0
 987 01be 1A60     		str	r2, [r3]
 988              	.L55:
 948:..\..\..\..\..\..\Software\uCOS-III\Source/os_task.c ****              }
 949:..\..\..\..\..\..\Software\uCOS-III\Source/os_task.c **** #if (defined(TRACE_CFG_EN) && (TRACE_CFG_EN == DEF_ENABLED))
 950:..\..\..\..\..\..\Software\uCOS-III\Source/os_task.c ****              TRACE_OS_TASK_MSG_Q_PEND_FAILED(p_msg_q);          /* Record the event.               
 951:..\..\..\..\..\..\Software\uCOS-III\Source/os_task.c **** #endif
 952:..\..\..\..\..\..\Software\uCOS-III\Source/os_task.c ****             *p_err      =  OS_ERR_PEND_ABORT;
 989              		.loc 1 952 0
 990 01c0 3B6B     		ldr	r3, [r7, #48]
 991 01c2 174A     		ldr	r2, .L59+32
 992 01c4 1A80     		strh	r2, [r3]
 953:..\..\..\..\..\..\Software\uCOS-III\Source/os_task.c ****              break;
 993              		.loc 1 953 0
 994 01c6 10E0     		b	.L54
 995              	.L57:
 954:..\..\..\..\..\..\Software\uCOS-III\Source/os_task.c **** 
 955:..\..\..\..\..\..\Software\uCOS-III\Source/os_task.c ****         case OS_STATUS_PEND_TIMEOUT:                            /* Indicate that we didn't get even
 956:..\..\..\..\..\..\Software\uCOS-III\Source/os_task.c ****         default:
 957:..\..\..\..\..\..\Software\uCOS-III\Source/os_task.c ****              p_void     = DEF_NULL;
 996              		.loc 1 957 0
 997 01c8 0023     		movs	r3, #0
 998 01ca FB61     		str	r3, [r7, #28]
 958:..\..\..\..\..\..\Software\uCOS-III\Source/os_task.c ****             *p_msg_size = 0u;
 999              		.loc 1 958 0
 1000 01cc 7B68     		ldr	r3, [r7, #4]
 1001 01ce 0022     		movs	r2, #0
 1002 01d0 1A80     		strh	r2, [r3]
 959:..\..\..\..\..\..\Software\uCOS-III\Source/os_task.c **** #if (OS_CFG_TS_EN == DEF_ENABLED)
 960:..\..\..\..\..\..\Software\uCOS-III\Source/os_task.c ****              if (p_ts  != DEF_NULL) {
 1003              		.loc 1 960 0
 1004 01d2 3B68     		ldr	r3, [r7]
 1005 01d4 002B     		cmp	r3, #0
 1006 01d6 04D0     		beq	.L56
 961:..\..\..\..\..\..\Software\uCOS-III\Source/os_task.c ****                 *p_ts = OSTCBCurPtr->TS;
 1007              		.loc 1 961 0
 1008 01d8 0D4B     		ldr	r3, .L59+16
 1009 01da 1B68     		ldr	r3, [r3]
 1010 01dc 9A6C     		ldr	r2, [r3, #72]
 1011 01de 3B68     		ldr	r3, [r7]
 1012 01e0 1A60     		str	r2, [r3]
 1013              	.L56:
 962:..\..\..\..\..\..\Software\uCOS-III\Source/os_task.c ****              }
 963:..\..\..\..\..\..\Software\uCOS-III\Source/os_task.c **** #endif
 964:..\..\..\..\..\..\Software\uCOS-III\Source/os_task.c **** #if (defined(TRACE_CFG_EN) && (TRACE_CFG_EN == DEF_ENABLED))
 965:..\..\..\..\..\..\Software\uCOS-III\Source/os_task.c ****              TRACE_OS_TASK_MSG_Q_PEND_FAILED(p_msg_q);          /* Record the event.               
 966:..\..\..\..\..\..\Software\uCOS-III\Source/os_task.c **** #endif
 967:..\..\..\..\..\..\Software\uCOS-III\Source/os_task.c ****             *p_err      =  OS_ERR_TIMEOUT;
 1014              		.loc 1 967 0
 1015 01e2 3B6B     		ldr	r3, [r7, #48]
 1016 01e4 0F4A     		ldr	r2, .L59+36
 1017 01e6 1A80     		strh	r2, [r3]
 968:..\..\..\..\..\..\Software\uCOS-III\Source/os_task.c ****              break;
 1018              		.loc 1 968 0
 1019 01e8 C046     		nop
 1020              	.L54:
 969:..\..\..\..\..\..\Software\uCOS-III\Source/os_task.c ****     }
ARM GAS  C:\Users\ADMINI~1\AppData\Local\Temp\ccvBRVNC.s 			page 36


 970:..\..\..\..\..\..\Software\uCOS-III\Source/os_task.c ****     CPU_CRITICAL_EXIT();
 1021              		.loc 1 970 0
 1022 01ea FFF7FEFF 		bl	CPU_IntDisMeasStop
 1023 01ee BB69     		ldr	r3, [r7, #24]
 1024 01f0 1800     		movs	r0, r3
 1025 01f2 FFF7FEFF 		bl	CPU_SR_Restore
 971:..\..\..\..\..\..\Software\uCOS-III\Source/os_task.c ****     return (p_void);                                            /* Return received message         
 1026              		.loc 1 971 0
 1027 01f6 FB69     		ldr	r3, [r7, #28]
 1028              	.L40:
 972:..\..\..\..\..\..\Software\uCOS-III\Source/os_task.c **** }
 1029              		.loc 1 972 0
 1030 01f8 1800     		movs	r0, r3
 1031 01fa BD46     		mov	sp, r7
 1032 01fc 09B0     		add	sp, sp, #36
 1033              		@ sp needed
 1034 01fe 90BD     		pop	{r4, r7, pc}
 1035              	.L60:
 1036              		.align	2
 1037              	.L59:
 1038 0200 00000000 		.word	OSIntNestingCtr
 1039 0204 AE610000 		.word	25006
 1040 0208 D5620000 		.word	25301
 1041 020c 255E0000 		.word	24101
 1042 0210 00000000 		.word	OSTCBCurPtr
 1043 0214 B0610000 		.word	25008
 1044 0218 00000000 		.word	OSSchedLockNestingCtr
 1045 021c 636D0000 		.word	28003
 1046 0220 A9610000 		.word	25001
 1047 0224 D9720000 		.word	29401
 1048              		.cfi_endproc
 1049              	.LFE3:
 1050              		.size	OSTaskQPend, .-OSTaskQPend
 1051              		.section	.text.OSTaskQPost,"ax",%progbits
 1052              		.align	2
 1053              		.global	OSTaskQPost
 1054              		.code	16
 1055              		.thumb_func
 1056              		.type	OSTaskQPost, %function
 1057              	OSTaskQPost:
 1058              	.LFB4:
 973:..\..\..\..\..\..\Software\uCOS-III\Source/os_task.c **** #endif
 974:..\..\..\..\..\..\Software\uCOS-III\Source/os_task.c **** 
 975:..\..\..\..\..\..\Software\uCOS-III\Source/os_task.c **** 
 976:..\..\..\..\..\..\Software\uCOS-III\Source/os_task.c **** /*
 977:..\..\..\..\..\..\Software\uCOS-III\Source/os_task.c **** ***************************************************************************************************
 978:..\..\..\..\..\..\Software\uCOS-III\Source/os_task.c **** *                                              ABORT WAITING FOR A MESSAGE
 979:..\..\..\..\..\..\Software\uCOS-III\Source/os_task.c **** *
 980:..\..\..\..\..\..\Software\uCOS-III\Source/os_task.c **** * Description: This function aborts & readies the task specified.  This function should be used to 
 981:..\..\..\..\..\..\Software\uCOS-III\Source/os_task.c **** *              for a message, rather than to normally post the message to the task via OSTaskQPost(
 982:..\..\..\..\..\..\Software\uCOS-III\Source/os_task.c **** *
 983:..\..\..\..\..\..\Software\uCOS-III\Source/os_task.c **** * Arguments  : p_tcb     is a pointer to the task to pend abort
 984:..\..\..\..\..\..\Software\uCOS-III\Source/os_task.c **** *
 985:..\..\..\..\..\..\Software\uCOS-III\Source/os_task.c **** *              opt       provides options for this function:
 986:..\..\..\..\..\..\Software\uCOS-III\Source/os_task.c **** *
 987:..\..\..\..\..\..\Software\uCOS-III\Source/os_task.c **** *                            OS_OPT_POST_NONE         No option specified
 988:..\..\..\..\..\..\Software\uCOS-III\Source/os_task.c **** *                            OS_OPT_POST_NO_SCHED     Indicates that the scheduler will not be call
ARM GAS  C:\Users\ADMINI~1\AppData\Local\Temp\ccvBRVNC.s 			page 37


 989:..\..\..\..\..\..\Software\uCOS-III\Source/os_task.c **** *
 990:..\..\..\..\..\..\Software\uCOS-III\Source/os_task.c **** *              p_err     is a pointer to a variable that will contain an error code returned by thi
 991:..\..\..\..\..\..\Software\uCOS-III\Source/os_task.c **** *
 992:..\..\..\..\..\..\Software\uCOS-III\Source/os_task.c **** *                            OS_ERR_NONE               If the task was readied and informed of the 
 993:..\..\..\..\..\..\Software\uCOS-III\Source/os_task.c **** *                            OS_ERR_OPT_INVALID        If you specified an invalid option
 994:..\..\..\..\..\..\Software\uCOS-III\Source/os_task.c **** *                            OS_ERR_OS_NOT_RUNNING     If uC/OS-III is not running yet
 995:..\..\..\..\..\..\Software\uCOS-III\Source/os_task.c **** *                            OS_ERR_PEND_ABORT_ISR     If you called this function from an ISR
 996:..\..\..\..\..\..\Software\uCOS-III\Source/os_task.c **** *                            OS_ERR_PEND_ABORT_NONE    If task was not pending on a message and thu
 997:..\..\..\..\..\..\Software\uCOS-III\Source/os_task.c **** *                                                      abort
 998:..\..\..\..\..\..\Software\uCOS-III\Source/os_task.c **** *                            OS_ERR_PEND_ABORT_SELF    If you passed a NULL pointer for 'p_tcb'
 999:..\..\..\..\..\..\Software\uCOS-III\Source/os_task.c **** *
1000:..\..\..\..\..\..\Software\uCOS-III\Source/os_task.c **** * Returns    : == DEF_FALSE   if task was not waiting for a message, or upon error.
1001:..\..\..\..\..\..\Software\uCOS-III\Source/os_task.c **** *              == DEF_TRUE    if task was waiting for a message and was readied and informed.
1002:..\..\..\..\..\..\Software\uCOS-III\Source/os_task.c **** *
1003:..\..\..\..\..\..\Software\uCOS-III\Source/os_task.c **** * Note(s)    : none
1004:..\..\..\..\..\..\Software\uCOS-III\Source/os_task.c **** ***************************************************************************************************
1005:..\..\..\..\..\..\Software\uCOS-III\Source/os_task.c **** */
1006:..\..\..\..\..\..\Software\uCOS-III\Source/os_task.c **** 
1007:..\..\..\..\..\..\Software\uCOS-III\Source/os_task.c **** #if (OS_CFG_TASK_Q_EN == DEF_ENABLED) && (OS_CFG_TASK_Q_PEND_ABORT_EN == DEF_ENABLED)
1008:..\..\..\..\..\..\Software\uCOS-III\Source/os_task.c **** CPU_BOOLEAN  OSTaskQPendAbort (OS_TCB  *p_tcb,
1009:..\..\..\..\..\..\Software\uCOS-III\Source/os_task.c ****                                OS_OPT   opt,
1010:..\..\..\..\..\..\Software\uCOS-III\Source/os_task.c ****                                OS_ERR  *p_err)
1011:..\..\..\..\..\..\Software\uCOS-III\Source/os_task.c **** {
1012:..\..\..\..\..\..\Software\uCOS-III\Source/os_task.c ****     CPU_TS         ts;
1013:..\..\..\..\..\..\Software\uCOS-III\Source/os_task.c ****     CPU_SR_ALLOC();
1014:..\..\..\..\..\..\Software\uCOS-III\Source/os_task.c **** 
1015:..\..\..\..\..\..\Software\uCOS-III\Source/os_task.c **** 
1016:..\..\..\..\..\..\Software\uCOS-III\Source/os_task.c **** 
1017:..\..\..\..\..\..\Software\uCOS-III\Source/os_task.c **** #ifdef OS_SAFETY_CRITICAL
1018:..\..\..\..\..\..\Software\uCOS-III\Source/os_task.c ****     if (p_err == DEF_NULL) {
1019:..\..\..\..\..\..\Software\uCOS-III\Source/os_task.c ****         OS_SAFETY_CRITICAL_EXCEPTION();
1020:..\..\..\..\..\..\Software\uCOS-III\Source/os_task.c ****         return (DEF_FALSE);
1021:..\..\..\..\..\..\Software\uCOS-III\Source/os_task.c ****     }
1022:..\..\..\..\..\..\Software\uCOS-III\Source/os_task.c **** #endif
1023:..\..\..\..\..\..\Software\uCOS-III\Source/os_task.c **** 
1024:..\..\..\..\..\..\Software\uCOS-III\Source/os_task.c **** #if (OS_CFG_CALLED_FROM_ISR_CHK_EN == DEF_ENABLED)
1025:..\..\..\..\..\..\Software\uCOS-III\Source/os_task.c ****     if (OSIntNestingCtr > 0u) {                                 /* See if called from ISR ...      
1026:..\..\..\..\..\..\Software\uCOS-III\Source/os_task.c ****        *p_err = OS_ERR_PEND_ABORT_ISR;                          /* ... can't Pend Abort from an ISR
1027:..\..\..\..\..\..\Software\uCOS-III\Source/os_task.c ****         return (DEF_FALSE);
1028:..\..\..\..\..\..\Software\uCOS-III\Source/os_task.c ****     }
1029:..\..\..\..\..\..\Software\uCOS-III\Source/os_task.c **** #endif
1030:..\..\..\..\..\..\Software\uCOS-III\Source/os_task.c **** 
1031:..\..\..\..\..\..\Software\uCOS-III\Source/os_task.c **** #if (OS_CFG_INVALID_OS_CALLS_CHK_EN == DEF_ENABLED)             /* Is the kernel running?          
1032:..\..\..\..\..\..\Software\uCOS-III\Source/os_task.c ****     if (OSRunning != OS_STATE_OS_RUNNING) {
1033:..\..\..\..\..\..\Software\uCOS-III\Source/os_task.c ****        *p_err = OS_ERR_OS_NOT_RUNNING;
1034:..\..\..\..\..\..\Software\uCOS-III\Source/os_task.c ****         return (DEF_FALSE);
1035:..\..\..\..\..\..\Software\uCOS-III\Source/os_task.c ****     }
1036:..\..\..\..\..\..\Software\uCOS-III\Source/os_task.c **** #endif
1037:..\..\..\..\..\..\Software\uCOS-III\Source/os_task.c **** 
1038:..\..\..\..\..\..\Software\uCOS-III\Source/os_task.c **** #if (OS_CFG_ARG_CHK_EN == DEF_ENABLED)                          /* ---------------- VALIDATE ARGUME
1039:..\..\..\..\..\..\Software\uCOS-III\Source/os_task.c ****     switch (opt) {                                              /* User must supply a valid option 
1040:..\..\..\..\..\..\Software\uCOS-III\Source/os_task.c ****         case OS_OPT_POST_NONE:
1041:..\..\..\..\..\..\Software\uCOS-III\Source/os_task.c ****         case OS_OPT_POST_NO_SCHED:
1042:..\..\..\..\..\..\Software\uCOS-III\Source/os_task.c ****              break;
1043:..\..\..\..\..\..\Software\uCOS-III\Source/os_task.c **** 
1044:..\..\..\..\..\..\Software\uCOS-III\Source/os_task.c ****         default:
1045:..\..\..\..\..\..\Software\uCOS-III\Source/os_task.c ****             *p_err = OS_ERR_OPT_INVALID;
ARM GAS  C:\Users\ADMINI~1\AppData\Local\Temp\ccvBRVNC.s 			page 38


1046:..\..\..\..\..\..\Software\uCOS-III\Source/os_task.c ****              return (DEF_FALSE);
1047:..\..\..\..\..\..\Software\uCOS-III\Source/os_task.c ****     }
1048:..\..\..\..\..\..\Software\uCOS-III\Source/os_task.c **** #endif
1049:..\..\..\..\..\..\Software\uCOS-III\Source/os_task.c **** 
1050:..\..\..\..\..\..\Software\uCOS-III\Source/os_task.c ****     CPU_CRITICAL_ENTER();
1051:..\..\..\..\..\..\Software\uCOS-III\Source/os_task.c **** #if (OS_CFG_ARG_CHK_EN == DEF_ENABLED)
1052:..\..\..\..\..\..\Software\uCOS-III\Source/os_task.c ****     if ((p_tcb == DEF_NULL) ||                                  /* Pend abort self?                
1053:..\..\..\..\..\..\Software\uCOS-III\Source/os_task.c ****         (p_tcb == OSTCBCurPtr)) {
1054:..\..\..\..\..\..\Software\uCOS-III\Source/os_task.c ****         CPU_CRITICAL_EXIT();
1055:..\..\..\..\..\..\Software\uCOS-III\Source/os_task.c ****        *p_err = OS_ERR_PEND_ABORT_SELF;                         /* ... doesn't make sense          
1056:..\..\..\..\..\..\Software\uCOS-III\Source/os_task.c ****         return (DEF_FALSE);
1057:..\..\..\..\..\..\Software\uCOS-III\Source/os_task.c ****     }
1058:..\..\..\..\..\..\Software\uCOS-III\Source/os_task.c **** #endif
1059:..\..\..\..\..\..\Software\uCOS-III\Source/os_task.c **** 
1060:..\..\..\..\..\..\Software\uCOS-III\Source/os_task.c ****     if (p_tcb->PendOn != OS_TASK_PEND_ON_TASK_Q) {              /* Is task waiting for a message?  
1061:..\..\..\..\..\..\Software\uCOS-III\Source/os_task.c ****         CPU_CRITICAL_EXIT();                                    /* No                              
1062:..\..\..\..\..\..\Software\uCOS-III\Source/os_task.c ****        *p_err = OS_ERR_PEND_ABORT_NONE;
1063:..\..\..\..\..\..\Software\uCOS-III\Source/os_task.c ****         return (DEF_FALSE);
1064:..\..\..\..\..\..\Software\uCOS-III\Source/os_task.c ****     }
1065:..\..\..\..\..\..\Software\uCOS-III\Source/os_task.c **** 
1066:..\..\..\..\..\..\Software\uCOS-III\Source/os_task.c ****     OS_CRITICAL_ENTER_CPU_EXIT();
1067:..\..\..\..\..\..\Software\uCOS-III\Source/os_task.c **** #if (OS_CFG_TS_EN == DEF_ENABLED)
1068:..\..\..\..\..\..\Software\uCOS-III\Source/os_task.c ****     ts = OS_TS_GET();                                           /* Get timestamp of when the abort 
1069:..\..\..\..\..\..\Software\uCOS-III\Source/os_task.c **** #else
1070:..\..\..\..\..\..\Software\uCOS-III\Source/os_task.c ****     ts = 0u;
1071:..\..\..\..\..\..\Software\uCOS-III\Source/os_task.c **** #endif
1072:..\..\..\..\..\..\Software\uCOS-III\Source/os_task.c ****     OS_PendAbort(DEF_NULL,                                      /* Abort the pend                  
1073:..\..\..\..\..\..\Software\uCOS-III\Source/os_task.c ****                  p_tcb,
1074:..\..\..\..\..\..\Software\uCOS-III\Source/os_task.c ****                  ts);
1075:..\..\..\..\..\..\Software\uCOS-III\Source/os_task.c ****     OS_CRITICAL_EXIT_NO_SCHED();
1076:..\..\..\..\..\..\Software\uCOS-III\Source/os_task.c ****     if ((opt & OS_OPT_POST_NO_SCHED) == 0u) {
1077:..\..\..\..\..\..\Software\uCOS-III\Source/os_task.c ****         OSSched();                                              /* Run the scheduler               
1078:..\..\..\..\..\..\Software\uCOS-III\Source/os_task.c ****     }
1079:..\..\..\..\..\..\Software\uCOS-III\Source/os_task.c ****    *p_err = OS_ERR_NONE;
1080:..\..\..\..\..\..\Software\uCOS-III\Source/os_task.c ****     return (DEF_TRUE);
1081:..\..\..\..\..\..\Software\uCOS-III\Source/os_task.c **** }
1082:..\..\..\..\..\..\Software\uCOS-III\Source/os_task.c **** #endif
1083:..\..\..\..\..\..\Software\uCOS-III\Source/os_task.c **** 
1084:..\..\..\..\..\..\Software\uCOS-III\Source/os_task.c **** 
1085:..\..\..\..\..\..\Software\uCOS-III\Source/os_task.c **** /*
1086:..\..\..\..\..\..\Software\uCOS-III\Source/os_task.c **** ***************************************************************************************************
1087:..\..\..\..\..\..\Software\uCOS-III\Source/os_task.c **** *                                               POST MESSAGE TO A TASK
1088:..\..\..\..\..\..\Software\uCOS-III\Source/os_task.c **** *
1089:..\..\..\..\..\..\Software\uCOS-III\Source/os_task.c **** * Description: This function sends a message to a task.
1090:..\..\..\..\..\..\Software\uCOS-III\Source/os_task.c **** *
1091:..\..\..\..\..\..\Software\uCOS-III\Source/os_task.c **** * Arguments  : p_tcb      is a pointer to the TCB of the task receiving a message.  If you specify 
1092:..\..\..\..\..\..\Software\uCOS-III\Source/os_task.c **** *                         the message will be posted to the task's queue of the calling task.  In o
1093:..\..\..\..\..\..\Software\uCOS-III\Source/os_task.c **** *                         posting a message to yourself.
1094:..\..\..\..\..\..\Software\uCOS-III\Source/os_task.c **** *
1095:..\..\..\..\..\..\Software\uCOS-III\Source/os_task.c **** *              p_void     is a pointer to the message to send.
1096:..\..\..\..\..\..\Software\uCOS-III\Source/os_task.c **** *
1097:..\..\..\..\..\..\Software\uCOS-III\Source/os_task.c **** *              msg_size   is the size of the message sent (in bytes)
1098:..\..\..\..\..\..\Software\uCOS-III\Source/os_task.c **** *
1099:..\..\..\..\..\..\Software\uCOS-III\Source/os_task.c **** *              opt        specifies whether the post will be FIFO or LIFO:
1100:..\..\..\..\..\..\Software\uCOS-III\Source/os_task.c **** *
1101:..\..\..\..\..\..\Software\uCOS-III\Source/os_task.c **** *                             OS_OPT_POST_FIFO       Post at the end   of the queue
1102:..\..\..\..\..\..\Software\uCOS-III\Source/os_task.c **** *                             OS_OPT_POST_LIFO       Post at the front of the queue
ARM GAS  C:\Users\ADMINI~1\AppData\Local\Temp\ccvBRVNC.s 			page 39


1103:..\..\..\..\..\..\Software\uCOS-III\Source/os_task.c **** *
1104:..\..\..\..\..\..\Software\uCOS-III\Source/os_task.c **** *                             OS_OPT_POST_NO_SCHED   Do not run the scheduler after the post
1105:..\..\..\..\..\..\Software\uCOS-III\Source/os_task.c **** *
1106:..\..\..\..\..\..\Software\uCOS-III\Source/os_task.c **** *                          Note(s): 1) OS_OPT_POST_NO_SCHED can be added with one of the other opti
1107:..\..\..\..\..\..\Software\uCOS-III\Source/os_task.c **** *
1108:..\..\..\..\..\..\Software\uCOS-III\Source/os_task.c **** *
1109:..\..\..\..\..\..\Software\uCOS-III\Source/os_task.c **** *              p_err      is a pointer to a variable that will hold the error code associated
1110:..\..\..\..\..\..\Software\uCOS-III\Source/os_task.c **** *                         with the outcome of this call.  Errors can be:
1111:..\..\..\..\..\..\Software\uCOS-III\Source/os_task.c **** *
1112:..\..\..\..\..\..\Software\uCOS-III\Source/os_task.c **** *                             OS_ERR_NONE              The call was successful and the message was 
1113:..\..\..\..\..\..\Software\uCOS-III\Source/os_task.c **** *                             OS_ERR_INT_Q_FULL        If the deferred interrupt post queue is full
1114:..\..\..\..\..\..\Software\uCOS-III\Source/os_task.c **** *                             OS_ERR_MSG_POOL_EMPTY    If there are no more OS_MSGs available from 
1115:..\..\..\..\..\..\Software\uCOS-III\Source/os_task.c **** *                             OS_ERR_OPT_INVALID       If you specified an invalid option
1116:..\..\..\..\..\..\Software\uCOS-III\Source/os_task.c **** *                             OS_ERR_OS_NOT_RUNNING    If uC/OS-III is not running yet
1117:..\..\..\..\..\..\Software\uCOS-III\Source/os_task.c **** *                             OS_ERR_Q_MAX             If the queue is full
1118:..\..\..\..\..\..\Software\uCOS-III\Source/os_task.c **** *                             OS_ERR_STATE_INVALID     If the task is in an invalid state.  This sh
1119:..\..\..\..\..\..\Software\uCOS-III\Source/os_task.c **** *                                                      and if it does, would be considered a system
1120:..\..\..\..\..\..\Software\uCOS-III\Source/os_task.c **** *
1121:..\..\..\..\..\..\Software\uCOS-III\Source/os_task.c **** * Returns    : none
1122:..\..\..\..\..\..\Software\uCOS-III\Source/os_task.c **** *
1123:..\..\..\..\..\..\Software\uCOS-III\Source/os_task.c **** * Note(s)    : none
1124:..\..\..\..\..\..\Software\uCOS-III\Source/os_task.c **** ***************************************************************************************************
1125:..\..\..\..\..\..\Software\uCOS-III\Source/os_task.c **** */
1126:..\..\..\..\..\..\Software\uCOS-III\Source/os_task.c **** 
1127:..\..\..\..\..\..\Software\uCOS-III\Source/os_task.c **** #if (OS_CFG_TASK_Q_EN == DEF_ENABLED)
1128:..\..\..\..\..\..\Software\uCOS-III\Source/os_task.c **** void  OSTaskQPost (OS_TCB       *p_tcb,
1129:..\..\..\..\..\..\Software\uCOS-III\Source/os_task.c ****                    void         *p_void,
1130:..\..\..\..\..\..\Software\uCOS-III\Source/os_task.c ****                    OS_MSG_SIZE   msg_size,
1131:..\..\..\..\..\..\Software\uCOS-III\Source/os_task.c ****                    OS_OPT        opt,
1132:..\..\..\..\..\..\Software\uCOS-III\Source/os_task.c ****                    OS_ERR       *p_err)
1133:..\..\..\..\..\..\Software\uCOS-III\Source/os_task.c **** {
 1059              		.loc 1 1133 0
 1060              		.cfi_startproc
 1061              		@ args = 4, pretend = 0, frame = 24
 1062              		@ frame_needed = 1, uses_anonymous_args = 0
 1063 0000 90B5     		push	{r4, r7, lr}
 1064              		.cfi_def_cfa_offset 12
 1065              		.cfi_offset 4, -12
 1066              		.cfi_offset 7, -8
 1067              		.cfi_offset 14, -4
 1068 0002 89B0     		sub	sp, sp, #36
 1069              		.cfi_def_cfa_offset 48
 1070 0004 02AF     		add	r7, sp, #8
 1071              		.cfi_def_cfa 7, 40
 1072 0006 F860     		str	r0, [r7, #12]
 1073 0008 B960     		str	r1, [r7, #8]
 1074 000a 1900     		movs	r1, r3
 1075 000c BB1D     		adds	r3, r7, #6
 1076 000e 1A80     		strh	r2, [r3]
 1077 0010 3B1D     		adds	r3, r7, #4
 1078 0012 0A1C     		adds	r2, r1, #0
 1079 0014 1A80     		strh	r2, [r3]
1134:..\..\..\..\..\..\Software\uCOS-III\Source/os_task.c ****     CPU_TS   ts;
1135:..\..\..\..\..\..\Software\uCOS-III\Source/os_task.c **** 
1136:..\..\..\..\..\..\Software\uCOS-III\Source/os_task.c **** 
1137:..\..\..\..\..\..\Software\uCOS-III\Source/os_task.c **** 
1138:..\..\..\..\..\..\Software\uCOS-III\Source/os_task.c **** #ifdef OS_SAFETY_CRITICAL
ARM GAS  C:\Users\ADMINI~1\AppData\Local\Temp\ccvBRVNC.s 			page 40


1139:..\..\..\..\..\..\Software\uCOS-III\Source/os_task.c ****     if (p_err == DEF_NULL) {
1140:..\..\..\..\..\..\Software\uCOS-III\Source/os_task.c ****         OS_SAFETY_CRITICAL_EXCEPTION();
1141:..\..\..\..\..\..\Software\uCOS-III\Source/os_task.c ****         return;
1142:..\..\..\..\..\..\Software\uCOS-III\Source/os_task.c ****     }
1143:..\..\..\..\..\..\Software\uCOS-III\Source/os_task.c **** #endif
1144:..\..\..\..\..\..\Software\uCOS-III\Source/os_task.c **** 
1145:..\..\..\..\..\..\Software\uCOS-III\Source/os_task.c **** #if (OS_CFG_INVALID_OS_CALLS_CHK_EN == DEF_ENABLED)             /* Is the kernel running?          
1146:..\..\..\..\..\..\Software\uCOS-III\Source/os_task.c ****     if (OSRunning != OS_STATE_OS_RUNNING) {
1147:..\..\..\..\..\..\Software\uCOS-III\Source/os_task.c ****        *p_err = OS_ERR_OS_NOT_RUNNING;
1148:..\..\..\..\..\..\Software\uCOS-III\Source/os_task.c ****         return;
1149:..\..\..\..\..\..\Software\uCOS-III\Source/os_task.c ****     }
1150:..\..\..\..\..\..\Software\uCOS-III\Source/os_task.c **** #endif
1151:..\..\..\..\..\..\Software\uCOS-III\Source/os_task.c **** 
1152:..\..\..\..\..\..\Software\uCOS-III\Source/os_task.c **** #if (OS_CFG_ARG_CHK_EN == DEF_ENABLED)                          /* ---------------- VALIDATE ARGUME
1153:..\..\..\..\..\..\Software\uCOS-III\Source/os_task.c ****     switch (opt) {                                              /* User must supply a valid option 
 1080              		.loc 1 1153 0
 1081 0016 3B1D     		adds	r3, r7, #4
 1082 0018 1B88     		ldrh	r3, [r3]
 1083 001a 102B     		cmp	r3, #16
 1084 001c 0ED0     		beq	.L67
 1085 001e 02DC     		bgt	.L64
 1086 0020 002B     		cmp	r3, #0
 1087 0022 0BD0     		beq	.L67
 1088 0024 06E0     		b	.L62
 1089              	.L64:
 1090 0026 8022     		movs	r2, #128
 1091 0028 1202     		lsls	r2, r2, #8
 1092 002a 9342     		cmp	r3, r2
 1093 002c 06D0     		beq	.L67
 1094 002e 0E4A     		ldr	r2, .L68
 1095 0030 9342     		cmp	r3, r2
 1096 0032 03D0     		beq	.L67
 1097              	.L62:
1154:..\..\..\..\..\..\Software\uCOS-III\Source/os_task.c ****         case OS_OPT_POST_FIFO:
1155:..\..\..\..\..\..\Software\uCOS-III\Source/os_task.c ****         case OS_OPT_POST_LIFO:
1156:..\..\..\..\..\..\Software\uCOS-III\Source/os_task.c ****         case OS_OPT_POST_FIFO | OS_OPT_POST_NO_SCHED:
1157:..\..\..\..\..\..\Software\uCOS-III\Source/os_task.c ****         case OS_OPT_POST_LIFO | OS_OPT_POST_NO_SCHED:
1158:..\..\..\..\..\..\Software\uCOS-III\Source/os_task.c ****              break;
1159:..\..\..\..\..\..\Software\uCOS-III\Source/os_task.c **** 
1160:..\..\..\..\..\..\Software\uCOS-III\Source/os_task.c ****         default:
1161:..\..\..\..\..\..\Software\uCOS-III\Source/os_task.c **** #if (defined(TRACE_CFG_EN) && (TRACE_CFG_EN == DEF_ENABLED))
1162:..\..\..\..\..\..\Software\uCOS-III\Source/os_task.c ****              TRACE_OS_TASK_MSG_Q_POST_FAILED(&p_tcb->MsgQ);     /* Record the event.               
1163:..\..\..\..\..\..\Software\uCOS-III\Source/os_task.c **** #endif
1164:..\..\..\..\..\..\Software\uCOS-III\Source/os_task.c ****             *p_err = OS_ERR_OPT_INVALID;
 1098              		.loc 1 1164 0
 1099 0034 BB6A     		ldr	r3, [r7, #40]
 1100 0036 0D4A     		ldr	r2, .L68+4
 1101 0038 1A80     		strh	r2, [r3]
1165:..\..\..\..\..\..\Software\uCOS-III\Source/os_task.c ****              return;
 1102              		.loc 1 1165 0
 1103 003a 11E0     		b	.L61
 1104              	.L67:
1158:..\..\..\..\..\..\Software\uCOS-III\Source/os_task.c **** 
 1105              		.loc 1 1158 0
 1106 003c C046     		nop
1166:..\..\..\..\..\..\Software\uCOS-III\Source/os_task.c ****     }
1167:..\..\..\..\..\..\Software\uCOS-III\Source/os_task.c **** #endif
ARM GAS  C:\Users\ADMINI~1\AppData\Local\Temp\ccvBRVNC.s 			page 41


1168:..\..\..\..\..\..\Software\uCOS-III\Source/os_task.c **** 
1169:..\..\..\..\..\..\Software\uCOS-III\Source/os_task.c **** #if (OS_CFG_TS_EN == DEF_ENABLED)
1170:..\..\..\..\..\..\Software\uCOS-III\Source/os_task.c ****     ts = OS_TS_GET();                                           /* Get timestamp                   
 1107              		.loc 1 1170 0
 1108 003e FFF7FEFF 		bl	CPU_TS_TmrRd
 1109 0042 0300     		movs	r3, r0
 1110 0044 7B61     		str	r3, [r7, #20]
1171:..\..\..\..\..\..\Software\uCOS-III\Source/os_task.c **** #else
1172:..\..\..\..\..\..\Software\uCOS-III\Source/os_task.c ****     ts = 0u;
1173:..\..\..\..\..\..\Software\uCOS-III\Source/os_task.c **** #endif
1174:..\..\..\..\..\..\Software\uCOS-III\Source/os_task.c **** 
1175:..\..\..\..\..\..\Software\uCOS-III\Source/os_task.c **** #if (OS_CFG_ISR_POST_DEFERRED_EN == DEF_ENABLED)
1176:..\..\..\..\..\..\Software\uCOS-III\Source/os_task.c ****     if (OSIntNestingCtr > 0u) {
1177:..\..\..\..\..\..\Software\uCOS-III\Source/os_task.c ****         OS_IntQPost(OS_OBJ_TYPE_TASK_MSG,                       /* Post to ISR queue               
1178:..\..\..\..\..\..\Software\uCOS-III\Source/os_task.c ****                     p_tcb,
1179:..\..\..\..\..\..\Software\uCOS-III\Source/os_task.c ****                     p_void,
1180:..\..\..\..\..\..\Software\uCOS-III\Source/os_task.c ****                     msg_size,
1181:..\..\..\..\..\..\Software\uCOS-III\Source/os_task.c ****                     0u,
1182:..\..\..\..\..\..\Software\uCOS-III\Source/os_task.c ****                     opt,
1183:..\..\..\..\..\..\Software\uCOS-III\Source/os_task.c ****                     ts,
1184:..\..\..\..\..\..\Software\uCOS-III\Source/os_task.c ****                     p_err);
1185:..\..\..\..\..\..\Software\uCOS-III\Source/os_task.c ****         return;
1186:..\..\..\..\..\..\Software\uCOS-III\Source/os_task.c ****     }
1187:..\..\..\..\..\..\Software\uCOS-III\Source/os_task.c **** #endif
1188:..\..\..\..\..\..\Software\uCOS-III\Source/os_task.c **** 
1189:..\..\..\..\..\..\Software\uCOS-III\Source/os_task.c **** #if (defined(TRACE_CFG_EN) && (TRACE_CFG_EN == DEF_ENABLED))
1190:..\..\..\..\..\..\Software\uCOS-III\Source/os_task.c ****     TRACE_OS_TASK_MSG_Q_POST(&p_tcb->MsgQ);                     /* Record the event.               
1191:..\..\..\..\..\..\Software\uCOS-III\Source/os_task.c **** #endif
1192:..\..\..\..\..\..\Software\uCOS-III\Source/os_task.c **** 
1193:..\..\..\..\..\..\Software\uCOS-III\Source/os_task.c ****     OS_TaskQPost(p_tcb,
 1111              		.loc 1 1193 0
 1112 0046 3B1D     		adds	r3, r7, #4
 1113 0048 1C88     		ldrh	r4, [r3]
 1114 004a BB1D     		adds	r3, r7, #6
 1115 004c 1A88     		ldrh	r2, [r3]
 1116 004e B968     		ldr	r1, [r7, #8]
 1117 0050 F868     		ldr	r0, [r7, #12]
 1118 0052 BB6A     		ldr	r3, [r7, #40]
 1119 0054 0193     		str	r3, [sp, #4]
 1120 0056 7B69     		ldr	r3, [r7, #20]
 1121 0058 0093     		str	r3, [sp]
 1122 005a 2300     		movs	r3, r4
 1123 005c FFF7FEFF 		bl	OS_TaskQPost
 1124              	.L61:
1194:..\..\..\..\..\..\Software\uCOS-III\Source/os_task.c ****                  p_void,
1195:..\..\..\..\..\..\Software\uCOS-III\Source/os_task.c ****                  msg_size,
1196:..\..\..\..\..\..\Software\uCOS-III\Source/os_task.c ****                  opt,
1197:..\..\..\..\..\..\Software\uCOS-III\Source/os_task.c ****                  ts,
1198:..\..\..\..\..\..\Software\uCOS-III\Source/os_task.c ****                  p_err);
1199:..\..\..\..\..\..\Software\uCOS-III\Source/os_task.c **** }
 1125              		.loc 1 1199 0
 1126 0060 BD46     		mov	sp, r7
 1127 0062 07B0     		add	sp, sp, #28
 1128              		@ sp needed
 1129 0064 90BD     		pop	{r4, r7, pc}
 1130              	.L69:
 1131 0066 C046     		.align	2
ARM GAS  C:\Users\ADMINI~1\AppData\Local\Temp\ccvBRVNC.s 			page 42


 1132              	.L68:
 1133 0068 10800000 		.word	32784
 1134 006c 255E0000 		.word	24101
 1135              		.cfi_endproc
 1136              	.LFE4:
 1137              		.size	OSTaskQPost, .-OSTaskQPost
 1138              		.section	.text.OSTaskRegGet,"ax",%progbits
 1139              		.align	2
 1140              		.global	OSTaskRegGet
 1141              		.code	16
 1142              		.thumb_func
 1143              		.type	OSTaskRegGet, %function
 1144              	OSTaskRegGet:
 1145              	.LFB5:
1200:..\..\..\..\..\..\Software\uCOS-III\Source/os_task.c **** #endif
1201:..\..\..\..\..\..\Software\uCOS-III\Source/os_task.c **** 
1202:..\..\..\..\..\..\Software\uCOS-III\Source/os_task.c **** 
1203:..\..\..\..\..\..\Software\uCOS-III\Source/os_task.c **** /*
1204:..\..\..\..\..\..\Software\uCOS-III\Source/os_task.c **** ***************************************************************************************************
1205:..\..\..\..\..\..\Software\uCOS-III\Source/os_task.c **** *                                       GET THE CURRENT VALUE OF A TASK REGISTER
1206:..\..\..\..\..\..\Software\uCOS-III\Source/os_task.c **** *
1207:..\..\..\..\..\..\Software\uCOS-III\Source/os_task.c **** * Description: This function is called to obtain the current value of a task register.  Task regist
1208:..\..\..\..\..\..\Software\uCOS-III\Source/os_task.c **** *              specific and can be used to store task specific values such as 'error numbers' (i.e.
1209:..\..\..\..\..\..\Software\uCOS-III\Source/os_task.c **** *              etc.
1210:..\..\..\..\..\..\Software\uCOS-III\Source/os_task.c **** *
1211:..\..\..\..\..\..\Software\uCOS-III\Source/os_task.c **** * Arguments  : p_tcb     is a pointer to the OS_TCB of the task you want to read the register from.
1212:..\..\..\..\..\..\Software\uCOS-III\Source/os_task.c **** *                        NULL pointer then you will get the register of the current task.
1213:..\..\..\..\..\..\Software\uCOS-III\Source/os_task.c **** *
1214:..\..\..\..\..\..\Software\uCOS-III\Source/os_task.c **** *              id        is the 'id' of the desired task variable.  Note that the 'id' must be less
1215:..\..\..\..\..\..\Software\uCOS-III\Source/os_task.c **** *                        OS_CFG_TASK_REG_TBL_SIZE
1216:..\..\..\..\..\..\Software\uCOS-III\Source/os_task.c **** *
1217:..\..\..\..\..\..\Software\uCOS-III\Source/os_task.c **** *              p_err     is a pointer to a variable that will hold an error code related to this ca
1218:..\..\..\..\..\..\Software\uCOS-III\Source/os_task.c **** *
1219:..\..\..\..\..\..\Software\uCOS-III\Source/os_task.c **** *                            OS_ERR_NONE               If the call was successful
1220:..\..\..\..\..\..\Software\uCOS-III\Source/os_task.c **** *                            OS_ERR_REG_ID_INVALID     If the 'id' is not between 0 and OS_CFG_TASK
1221:..\..\..\..\..\..\Software\uCOS-III\Source/os_task.c **** *
1222:..\..\..\..\..\..\Software\uCOS-III\Source/os_task.c **** * Returns    : The current value of the task's register or 0 if an error is detected.
1223:..\..\..\..\..\..\Software\uCOS-III\Source/os_task.c **** *
1224:..\..\..\..\..\..\Software\uCOS-III\Source/os_task.c **** * Note(s)    : none
1225:..\..\..\..\..\..\Software\uCOS-III\Source/os_task.c **** ***************************************************************************************************
1226:..\..\..\..\..\..\Software\uCOS-III\Source/os_task.c **** */
1227:..\..\..\..\..\..\Software\uCOS-III\Source/os_task.c **** 
1228:..\..\..\..\..\..\Software\uCOS-III\Source/os_task.c **** #if (OS_CFG_TASK_REG_TBL_SIZE > 0u)
1229:..\..\..\..\..\..\Software\uCOS-III\Source/os_task.c **** OS_REG  OSTaskRegGet (OS_TCB     *p_tcb,
1230:..\..\..\..\..\..\Software\uCOS-III\Source/os_task.c ****                       OS_REG_ID   id,
1231:..\..\..\..\..\..\Software\uCOS-III\Source/os_task.c ****                       OS_ERR     *p_err)
1232:..\..\..\..\..\..\Software\uCOS-III\Source/os_task.c **** {
 1146              		.loc 1 1232 0
 1147              		.cfi_startproc
 1148              		@ args = 0, pretend = 0, frame = 24
 1149              		@ frame_needed = 1, uses_anonymous_args = 0
 1150 0000 80B5     		push	{r7, lr}
 1151              		.cfi_def_cfa_offset 8
 1152              		.cfi_offset 7, -8
 1153              		.cfi_offset 14, -4
 1154 0002 86B0     		sub	sp, sp, #24
 1155              		.cfi_def_cfa_offset 32
ARM GAS  C:\Users\ADMINI~1\AppData\Local\Temp\ccvBRVNC.s 			page 43


 1156 0004 00AF     		add	r7, sp, #0
 1157              		.cfi_def_cfa_register 7
 1158 0006 F860     		str	r0, [r7, #12]
 1159 0008 7A60     		str	r2, [r7, #4]
 1160 000a 0B23     		movs	r3, #11
 1161 000c FB18     		adds	r3, r7, r3
 1162 000e 0A1C     		adds	r2, r1, #0
 1163 0010 1A70     		strb	r2, [r3]
1233:..\..\..\..\..\..\Software\uCOS-III\Source/os_task.c ****     OS_REG     value;
1234:..\..\..\..\..\..\Software\uCOS-III\Source/os_task.c ****     CPU_SR_ALLOC();
 1164              		.loc 1 1234 0
 1165 0012 0023     		movs	r3, #0
 1166 0014 7B61     		str	r3, [r7, #20]
1235:..\..\..\..\..\..\Software\uCOS-III\Source/os_task.c **** 
1236:..\..\..\..\..\..\Software\uCOS-III\Source/os_task.c **** 
1237:..\..\..\..\..\..\Software\uCOS-III\Source/os_task.c **** 
1238:..\..\..\..\..\..\Software\uCOS-III\Source/os_task.c **** #ifdef OS_SAFETY_CRITICAL
1239:..\..\..\..\..\..\Software\uCOS-III\Source/os_task.c ****     if (p_err == DEF_NULL) {
1240:..\..\..\..\..\..\Software\uCOS-III\Source/os_task.c ****         OS_SAFETY_CRITICAL_EXCEPTION();
1241:..\..\..\..\..\..\Software\uCOS-III\Source/os_task.c ****         return (0u);
1242:..\..\..\..\..\..\Software\uCOS-III\Source/os_task.c ****     }
1243:..\..\..\..\..\..\Software\uCOS-III\Source/os_task.c **** #endif
1244:..\..\..\..\..\..\Software\uCOS-III\Source/os_task.c **** 
1245:..\..\..\..\..\..\Software\uCOS-III\Source/os_task.c **** #if (OS_CFG_ARG_CHK_EN == DEF_ENABLED)
1246:..\..\..\..\..\..\Software\uCOS-III\Source/os_task.c ****     if (id >= OS_CFG_TASK_REG_TBL_SIZE) {
 1167              		.loc 1 1246 0
 1168 0016 0B23     		movs	r3, #11
 1169 0018 FB18     		adds	r3, r7, r3
 1170 001a 1B78     		ldrb	r3, [r3]
 1171 001c 002B     		cmp	r3, #0
 1172 001e 04D0     		beq	.L71
1247:..\..\..\..\..\..\Software\uCOS-III\Source/os_task.c ****        *p_err = OS_ERR_REG_ID_INVALID;
 1173              		.loc 1 1247 0
 1174 0020 7B68     		ldr	r3, [r7, #4]
 1175 0022 134A     		ldr	r2, .L74
 1176 0024 1A80     		strh	r2, [r3]
1248:..\..\..\..\..\..\Software\uCOS-III\Source/os_task.c ****         return (0u);
 1177              		.loc 1 1248 0
 1178 0026 0023     		movs	r3, #0
 1179 0028 1DE0     		b	.L72
 1180              	.L71:
1249:..\..\..\..\..\..\Software\uCOS-III\Source/os_task.c ****     }
1250:..\..\..\..\..\..\Software\uCOS-III\Source/os_task.c **** #endif
1251:..\..\..\..\..\..\Software\uCOS-III\Source/os_task.c **** 
1252:..\..\..\..\..\..\Software\uCOS-III\Source/os_task.c ****     CPU_CRITICAL_ENTER();
 1181              		.loc 1 1252 0
 1182 002a FFF7FEFF 		bl	CPU_SR_Save
 1183 002e 0300     		movs	r3, r0
 1184 0030 7B61     		str	r3, [r7, #20]
 1185 0032 FFF7FEFF 		bl	CPU_IntDisMeasStart
1253:..\..\..\..\..\..\Software\uCOS-III\Source/os_task.c ****     if (p_tcb == DEF_NULL) {
 1186              		.loc 1 1253 0
 1187 0036 FB68     		ldr	r3, [r7, #12]
 1188 0038 002B     		cmp	r3, #0
 1189 003a 02D1     		bne	.L73
1254:..\..\..\..\..\..\Software\uCOS-III\Source/os_task.c ****         p_tcb = OSTCBCurPtr;
 1190              		.loc 1 1254 0
ARM GAS  C:\Users\ADMINI~1\AppData\Local\Temp\ccvBRVNC.s 			page 44


 1191 003c 0D4B     		ldr	r3, .L74+4
 1192 003e 1B68     		ldr	r3, [r3]
 1193 0040 FB60     		str	r3, [r7, #12]
 1194              	.L73:
1255:..\..\..\..\..\..\Software\uCOS-III\Source/os_task.c ****     }
1256:..\..\..\..\..\..\Software\uCOS-III\Source/os_task.c ****     value = p_tcb->RegTbl[id];
 1195              		.loc 1 1256 0
 1196 0042 0B23     		movs	r3, #11
 1197 0044 FB18     		adds	r3, r7, r3
 1198 0046 1A78     		ldrb	r2, [r3]
 1199 0048 FB68     		ldr	r3, [r7, #12]
 1200 004a 1E32     		adds	r2, r2, #30
 1201 004c 9200     		lsls	r2, r2, #2
 1202 004e D358     		ldr	r3, [r2, r3]
 1203 0050 3B61     		str	r3, [r7, #16]
1257:..\..\..\..\..\..\Software\uCOS-III\Source/os_task.c ****     CPU_CRITICAL_EXIT();
 1204              		.loc 1 1257 0
 1205 0052 FFF7FEFF 		bl	CPU_IntDisMeasStop
 1206 0056 7B69     		ldr	r3, [r7, #20]
 1207 0058 1800     		movs	r0, r3
 1208 005a FFF7FEFF 		bl	CPU_SR_Restore
1258:..\..\..\..\..\..\Software\uCOS-III\Source/os_task.c ****    *p_err = OS_ERR_NONE;
 1209              		.loc 1 1258 0
 1210 005e 7B68     		ldr	r3, [r7, #4]
 1211 0060 0022     		movs	r2, #0
 1212 0062 1A80     		strh	r2, [r3]
1259:..\..\..\..\..\..\Software\uCOS-III\Source/os_task.c ****     return (value);
 1213              		.loc 1 1259 0
 1214 0064 3B69     		ldr	r3, [r7, #16]
 1215              	.L72:
1260:..\..\..\..\..\..\Software\uCOS-III\Source/os_task.c **** }
 1216              		.loc 1 1260 0
 1217 0066 1800     		movs	r0, r3
 1218 0068 BD46     		mov	sp, r7
 1219 006a 06B0     		add	sp, sp, #24
 1220              		@ sp needed
 1221 006c 80BD     		pop	{r7, pc}
 1222              	.L75:
 1223 006e C046     		.align	2
 1224              	.L74:
 1225 0070 79690000 		.word	27001
 1226 0074 00000000 		.word	OSTCBCurPtr
 1227              		.cfi_endproc
 1228              	.LFE5:
 1229              		.size	OSTaskRegGet, .-OSTaskRegGet
 1230              		.section	.text.OSTaskRegGetID,"ax",%progbits
 1231              		.align	2
 1232              		.global	OSTaskRegGetID
 1233              		.code	16
 1234              		.thumb_func
 1235              		.type	OSTaskRegGetID, %function
 1236              	OSTaskRegGetID:
 1237              	.LFB6:
1261:..\..\..\..\..\..\Software\uCOS-III\Source/os_task.c **** #endif
1262:..\..\..\..\..\..\Software\uCOS-III\Source/os_task.c **** 
1263:..\..\..\..\..\..\Software\uCOS-III\Source/os_task.c **** 
1264:..\..\..\..\..\..\Software\uCOS-III\Source/os_task.c **** /*
ARM GAS  C:\Users\ADMINI~1\AppData\Local\Temp\ccvBRVNC.s 			page 45


1265:..\..\..\..\..\..\Software\uCOS-III\Source/os_task.c **** ***************************************************************************************************
1266:..\..\..\..\..\..\Software\uCOS-III\Source/os_task.c **** *                                    ALLOCATE THE NEXT AVAILABLE TASK REGISTER ID
1267:..\..\..\..\..\..\Software\uCOS-III\Source/os_task.c **** *
1268:..\..\..\..\..\..\Software\uCOS-III\Source/os_task.c **** * Description: This function is called to obtain a task register ID.  This function thus allows tas
1269:..\..\..\..\..\..\Software\uCOS-III\Source/os_task.c **** *              allocated dynamically instead of statically.
1270:..\..\..\..\..\..\Software\uCOS-III\Source/os_task.c **** *
1271:..\..\..\..\..\..\Software\uCOS-III\Source/os_task.c **** * Arguments  : p_err       is a pointer to a variable that will hold an error code related to this 
1272:..\..\..\..\..\..\Software\uCOS-III\Source/os_task.c **** *
1273:..\..\..\..\..\..\Software\uCOS-III\Source/os_task.c **** *                            OS_ERR_NONE               If the call was successful
1274:..\..\..\..\..\..\Software\uCOS-III\Source/os_task.c **** *                            OS_ERR_NO_MORE_ID_AVAIL   If you are attempting to assign more task re
1275:..\..\..\..\..\..\Software\uCOS-III\Source/os_task.c **** *                                                          have available through OS_CFG_TASK_REG_T
1276:..\..\..\..\..\..\Software\uCOS-III\Source/os_task.c **** *
1277:..\..\..\..\..\..\Software\uCOS-III\Source/os_task.c **** * Returns    : The next available task register 'id' or OS_CFG_TASK_REG_TBL_SIZE if an error is det
1278:..\..\..\..\..\..\Software\uCOS-III\Source/os_task.c **** *
1279:..\..\..\..\..\..\Software\uCOS-III\Source/os_task.c **** * Note(s)    : none
1280:..\..\..\..\..\..\Software\uCOS-III\Source/os_task.c **** ***************************************************************************************************
1281:..\..\..\..\..\..\Software\uCOS-III\Source/os_task.c **** */
1282:..\..\..\..\..\..\Software\uCOS-III\Source/os_task.c **** 
1283:..\..\..\..\..\..\Software\uCOS-III\Source/os_task.c **** #if (OS_CFG_TASK_REG_TBL_SIZE > 0u)
1284:..\..\..\..\..\..\Software\uCOS-III\Source/os_task.c **** OS_REG_ID  OSTaskRegGetID (OS_ERR  *p_err)
1285:..\..\..\..\..\..\Software\uCOS-III\Source/os_task.c **** {
 1238              		.loc 1 1285 0
 1239              		.cfi_startproc
 1240              		@ args = 0, pretend = 0, frame = 16
 1241              		@ frame_needed = 1, uses_anonymous_args = 0
 1242 0000 80B5     		push	{r7, lr}
 1243              		.cfi_def_cfa_offset 8
 1244              		.cfi_offset 7, -8
 1245              		.cfi_offset 14, -4
 1246 0002 84B0     		sub	sp, sp, #16
 1247              		.cfi_def_cfa_offset 24
 1248 0004 00AF     		add	r7, sp, #0
 1249              		.cfi_def_cfa_register 7
 1250 0006 7860     		str	r0, [r7, #4]
1286:..\..\..\..\..\..\Software\uCOS-III\Source/os_task.c ****     OS_REG_ID  id;
1287:..\..\..\..\..\..\Software\uCOS-III\Source/os_task.c ****     CPU_SR_ALLOC();
 1251              		.loc 1 1287 0
 1252 0008 0023     		movs	r3, #0
 1253 000a FB60     		str	r3, [r7, #12]
1288:..\..\..\..\..\..\Software\uCOS-III\Source/os_task.c **** 
1289:..\..\..\..\..\..\Software\uCOS-III\Source/os_task.c **** 
1290:..\..\..\..\..\..\Software\uCOS-III\Source/os_task.c **** 
1291:..\..\..\..\..\..\Software\uCOS-III\Source/os_task.c **** #ifdef OS_SAFETY_CRITICAL
1292:..\..\..\..\..\..\Software\uCOS-III\Source/os_task.c ****     if (p_err == DEF_NULL) {
1293:..\..\..\..\..\..\Software\uCOS-III\Source/os_task.c ****         OS_SAFETY_CRITICAL_EXCEPTION();
1294:..\..\..\..\..\..\Software\uCOS-III\Source/os_task.c ****         return ((OS_REG_ID)OS_CFG_TASK_REG_TBL_SIZE);
1295:..\..\..\..\..\..\Software\uCOS-III\Source/os_task.c ****     }
1296:..\..\..\..\..\..\Software\uCOS-III\Source/os_task.c **** #endif
1297:..\..\..\..\..\..\Software\uCOS-III\Source/os_task.c **** 
1298:..\..\..\..\..\..\Software\uCOS-III\Source/os_task.c ****     CPU_CRITICAL_ENTER();
 1254              		.loc 1 1298 0
 1255 000c FFF7FEFF 		bl	CPU_SR_Save
 1256 0010 0300     		movs	r3, r0
 1257 0012 FB60     		str	r3, [r7, #12]
 1258 0014 FFF7FEFF 		bl	CPU_IntDisMeasStart
1299:..\..\..\..\..\..\Software\uCOS-III\Source/os_task.c ****     if (OSTaskRegNextAvailID >= OS_CFG_TASK_REG_TBL_SIZE) {     /* See if we exceeded the number of
 1259              		.loc 1 1299 0
ARM GAS  C:\Users\ADMINI~1\AppData\Local\Temp\ccvBRVNC.s 			page 46


 1260 0018 144B     		ldr	r3, .L79
 1261 001a 1B78     		ldrb	r3, [r3]
 1262 001c 002B     		cmp	r3, #0
 1263 001e 0AD0     		beq	.L77
1300:..\..\..\..\..\..\Software\uCOS-III\Source/os_task.c ****        *p_err = OS_ERR_NO_MORE_ID_AVAIL;                        /* Yes, cannot allocate more task r
 1264              		.loc 1 1300 0
 1265 0020 7B68     		ldr	r3, [r7, #4]
 1266 0022 134A     		ldr	r2, .L79+4
 1267 0024 1A80     		strh	r2, [r3]
1301:..\..\..\..\..\..\Software\uCOS-III\Source/os_task.c ****         CPU_CRITICAL_EXIT();
 1268              		.loc 1 1301 0
 1269 0026 FFF7FEFF 		bl	CPU_IntDisMeasStop
 1270 002a FB68     		ldr	r3, [r7, #12]
 1271 002c 1800     		movs	r0, r3
 1272 002e FFF7FEFF 		bl	CPU_SR_Restore
1302:..\..\..\..\..\..\Software\uCOS-III\Source/os_task.c ****         return (OS_CFG_TASK_REG_TBL_SIZE);
 1273              		.loc 1 1302 0
 1274 0032 0123     		movs	r3, #1
 1275 0034 16E0     		b	.L78
 1276              	.L77:
1303:..\..\..\..\..\..\Software\uCOS-III\Source/os_task.c ****     }
1304:..\..\..\..\..\..\Software\uCOS-III\Source/os_task.c **** 
1305:..\..\..\..\..\..\Software\uCOS-III\Source/os_task.c ****     id    = OSTaskRegNextAvailID;                               /* Assign the next available ID    
 1277              		.loc 1 1305 0
 1278 0036 0B23     		movs	r3, #11
 1279 0038 FB18     		adds	r3, r7, r3
 1280 003a 0C4A     		ldr	r2, .L79
 1281 003c 1278     		ldrb	r2, [r2]
 1282 003e 1A70     		strb	r2, [r3]
1306:..\..\..\..\..\..\Software\uCOS-III\Source/os_task.c ****     OSTaskRegNextAvailID++;                                     /* Increment available ID for next 
 1283              		.loc 1 1306 0
 1284 0040 0A4B     		ldr	r3, .L79
 1285 0042 1B78     		ldrb	r3, [r3]
 1286 0044 0133     		adds	r3, r3, #1
 1287 0046 DAB2     		uxtb	r2, r3
 1288 0048 084B     		ldr	r3, .L79
 1289 004a 1A70     		strb	r2, [r3]
1307:..\..\..\..\..\..\Software\uCOS-III\Source/os_task.c ****     CPU_CRITICAL_EXIT();
 1290              		.loc 1 1307 0
 1291 004c FFF7FEFF 		bl	CPU_IntDisMeasStop
 1292 0050 FB68     		ldr	r3, [r7, #12]
 1293 0052 1800     		movs	r0, r3
 1294 0054 FFF7FEFF 		bl	CPU_SR_Restore
1308:..\..\..\..\..\..\Software\uCOS-III\Source/os_task.c ****    *p_err = OS_ERR_NONE;
 1295              		.loc 1 1308 0
 1296 0058 7B68     		ldr	r3, [r7, #4]
 1297 005a 0022     		movs	r2, #0
 1298 005c 1A80     		strh	r2, [r3]
1309:..\..\..\..\..\..\Software\uCOS-III\Source/os_task.c ****     return (id);
 1299              		.loc 1 1309 0
 1300 005e 0B23     		movs	r3, #11
 1301 0060 FB18     		adds	r3, r7, r3
 1302 0062 1B78     		ldrb	r3, [r3]
 1303              	.L78:
1310:..\..\..\..\..\..\Software\uCOS-III\Source/os_task.c **** }
 1304              		.loc 1 1310 0
 1305 0064 1800     		movs	r0, r3
ARM GAS  C:\Users\ADMINI~1\AppData\Local\Temp\ccvBRVNC.s 			page 47


 1306 0066 BD46     		mov	sp, r7
 1307 0068 04B0     		add	sp, sp, #16
 1308              		@ sp needed
 1309 006a 80BD     		pop	{r7, pc}
 1310              	.L80:
 1311              		.align	2
 1312              	.L79:
 1313 006c 00000000 		.word	OSTaskRegNextAvailID
 1314 0070 DA590000 		.word	23002
 1315              		.cfi_endproc
 1316              	.LFE6:
 1317              		.size	OSTaskRegGetID, .-OSTaskRegGetID
 1318              		.section	.text.OSTaskRegSet,"ax",%progbits
 1319              		.align	2
 1320              		.global	OSTaskRegSet
 1321              		.code	16
 1322              		.thumb_func
 1323              		.type	OSTaskRegSet, %function
 1324              	OSTaskRegSet:
 1325              	.LFB7:
1311:..\..\..\..\..\..\Software\uCOS-III\Source/os_task.c **** #endif
1312:..\..\..\..\..\..\Software\uCOS-III\Source/os_task.c **** 
1313:..\..\..\..\..\..\Software\uCOS-III\Source/os_task.c **** 
1314:..\..\..\..\..\..\Software\uCOS-III\Source/os_task.c **** /*
1315:..\..\..\..\..\..\Software\uCOS-III\Source/os_task.c **** ***************************************************************************************************
1316:..\..\..\..\..\..\Software\uCOS-III\Source/os_task.c **** *                                       SET THE CURRENT VALUE OF A TASK REGISTER
1317:..\..\..\..\..\..\Software\uCOS-III\Source/os_task.c **** *
1318:..\..\..\..\..\..\Software\uCOS-III\Source/os_task.c **** * Description: This function is called to change the current value of a task register.  Task regist
1319:..\..\..\..\..\..\Software\uCOS-III\Source/os_task.c **** *              specific and can be used to store task specific values such as 'error numbers' (i.e.
1320:..\..\..\..\..\..\Software\uCOS-III\Source/os_task.c **** *              etc.
1321:..\..\..\..\..\..\Software\uCOS-III\Source/os_task.c **** *
1322:..\..\..\..\..\..\Software\uCOS-III\Source/os_task.c **** * Arguments  : p_tcb     is a pointer to the OS_TCB of the task you want to set the register for.  
1323:..\..\..\..\..\..\Software\uCOS-III\Source/os_task.c **** *                        pointer then you will change the register of the current task.
1324:..\..\..\..\..\..\Software\uCOS-III\Source/os_task.c **** *
1325:..\..\..\..\..\..\Software\uCOS-III\Source/os_task.c **** *              id        is the 'id' of the desired task register.  Note that the 'id' must be less
1326:..\..\..\..\..\..\Software\uCOS-III\Source/os_task.c **** *                        OS_CFG_TASK_REG_TBL_SIZE
1327:..\..\..\..\..\..\Software\uCOS-III\Source/os_task.c **** *
1328:..\..\..\..\..\..\Software\uCOS-III\Source/os_task.c **** *              value     is the desired value for the task register.
1329:..\..\..\..\..\..\Software\uCOS-III\Source/os_task.c **** *
1330:..\..\..\..\..\..\Software\uCOS-III\Source/os_task.c **** *              p_err     is a pointer to a variable that will hold an error code related to this ca
1331:..\..\..\..\..\..\Software\uCOS-III\Source/os_task.c **** *
1332:..\..\..\..\..\..\Software\uCOS-III\Source/os_task.c **** *                            OS_ERR_NONE               If the call was successful
1333:..\..\..\..\..\..\Software\uCOS-III\Source/os_task.c **** *                            OS_ERR_REG_ID_INVALID     If the 'id' is not between 0 and OS_CFG_TASK
1334:..\..\..\..\..\..\Software\uCOS-III\Source/os_task.c **** *
1335:..\..\..\..\..\..\Software\uCOS-III\Source/os_task.c **** * Returns    : none
1336:..\..\..\..\..\..\Software\uCOS-III\Source/os_task.c **** *
1337:..\..\..\..\..\..\Software\uCOS-III\Source/os_task.c **** * Note(s)    : none
1338:..\..\..\..\..\..\Software\uCOS-III\Source/os_task.c **** ***************************************************************************************************
1339:..\..\..\..\..\..\Software\uCOS-III\Source/os_task.c **** */
1340:..\..\..\..\..\..\Software\uCOS-III\Source/os_task.c **** 
1341:..\..\..\..\..\..\Software\uCOS-III\Source/os_task.c **** #if (OS_CFG_TASK_REG_TBL_SIZE > 0u)
1342:..\..\..\..\..\..\Software\uCOS-III\Source/os_task.c **** void  OSTaskRegSet (OS_TCB     *p_tcb,
1343:..\..\..\..\..\..\Software\uCOS-III\Source/os_task.c ****                     OS_REG_ID   id,
1344:..\..\..\..\..\..\Software\uCOS-III\Source/os_task.c ****                     OS_REG      value,
1345:..\..\..\..\..\..\Software\uCOS-III\Source/os_task.c ****                     OS_ERR     *p_err)
1346:..\..\..\..\..\..\Software\uCOS-III\Source/os_task.c **** {
 1326              		.loc 1 1346 0
ARM GAS  C:\Users\ADMINI~1\AppData\Local\Temp\ccvBRVNC.s 			page 48


 1327              		.cfi_startproc
 1328              		@ args = 0, pretend = 0, frame = 24
 1329              		@ frame_needed = 1, uses_anonymous_args = 0
 1330 0000 80B5     		push	{r7, lr}
 1331              		.cfi_def_cfa_offset 8
 1332              		.cfi_offset 7, -8
 1333              		.cfi_offset 14, -4
 1334 0002 86B0     		sub	sp, sp, #24
 1335              		.cfi_def_cfa_offset 32
 1336 0004 00AF     		add	r7, sp, #0
 1337              		.cfi_def_cfa_register 7
 1338 0006 F860     		str	r0, [r7, #12]
 1339 0008 7A60     		str	r2, [r7, #4]
 1340 000a 3B60     		str	r3, [r7]
 1341 000c 0B23     		movs	r3, #11
 1342 000e FB18     		adds	r3, r7, r3
 1343 0010 0A1C     		adds	r2, r1, #0
 1344 0012 1A70     		strb	r2, [r3]
1347:..\..\..\..\..\..\Software\uCOS-III\Source/os_task.c ****     CPU_SR_ALLOC();
 1345              		.loc 1 1347 0
 1346 0014 0023     		movs	r3, #0
 1347 0016 7B61     		str	r3, [r7, #20]
1348:..\..\..\..\..\..\Software\uCOS-III\Source/os_task.c **** 
1349:..\..\..\..\..\..\Software\uCOS-III\Source/os_task.c **** 
1350:..\..\..\..\..\..\Software\uCOS-III\Source/os_task.c **** 
1351:..\..\..\..\..\..\Software\uCOS-III\Source/os_task.c **** #ifdef OS_SAFETY_CRITICAL
1352:..\..\..\..\..\..\Software\uCOS-III\Source/os_task.c ****     if (p_err == DEF_NULL) {
1353:..\..\..\..\..\..\Software\uCOS-III\Source/os_task.c ****         OS_SAFETY_CRITICAL_EXCEPTION();
1354:..\..\..\..\..\..\Software\uCOS-III\Source/os_task.c ****         return;
1355:..\..\..\..\..\..\Software\uCOS-III\Source/os_task.c ****     }
1356:..\..\..\..\..\..\Software\uCOS-III\Source/os_task.c **** #endif
1357:..\..\..\..\..\..\Software\uCOS-III\Source/os_task.c **** 
1358:..\..\..\..\..\..\Software\uCOS-III\Source/os_task.c **** #if (OS_CFG_ARG_CHK_EN == DEF_ENABLED)
1359:..\..\..\..\..\..\Software\uCOS-III\Source/os_task.c ****     if (id >= OS_CFG_TASK_REG_TBL_SIZE) {
 1348              		.loc 1 1359 0
 1349 0018 0B23     		movs	r3, #11
 1350 001a FB18     		adds	r3, r7, r3
 1351 001c 1B78     		ldrb	r3, [r3]
 1352 001e 002B     		cmp	r3, #0
 1353 0020 03D0     		beq	.L82
1360:..\..\..\..\..\..\Software\uCOS-III\Source/os_task.c ****        *p_err = OS_ERR_REG_ID_INVALID;
 1354              		.loc 1 1360 0
 1355 0022 3B68     		ldr	r3, [r7]
 1356 0024 114A     		ldr	r2, .L85
 1357 0026 1A80     		strh	r2, [r3]
1361:..\..\..\..\..\..\Software\uCOS-III\Source/os_task.c ****         return;
 1358              		.loc 1 1361 0
 1359 0028 1CE0     		b	.L81
 1360              	.L82:
1362:..\..\..\..\..\..\Software\uCOS-III\Source/os_task.c ****     }
1363:..\..\..\..\..\..\Software\uCOS-III\Source/os_task.c **** #endif
1364:..\..\..\..\..\..\Software\uCOS-III\Source/os_task.c **** 
1365:..\..\..\..\..\..\Software\uCOS-III\Source/os_task.c ****     CPU_CRITICAL_ENTER();
 1361              		.loc 1 1365 0
 1362 002a FFF7FEFF 		bl	CPU_SR_Save
 1363 002e 0300     		movs	r3, r0
 1364 0030 7B61     		str	r3, [r7, #20]
ARM GAS  C:\Users\ADMINI~1\AppData\Local\Temp\ccvBRVNC.s 			page 49


 1365 0032 FFF7FEFF 		bl	CPU_IntDisMeasStart
1366:..\..\..\..\..\..\Software\uCOS-III\Source/os_task.c ****     if (p_tcb == DEF_NULL) {
 1366              		.loc 1 1366 0
 1367 0036 FB68     		ldr	r3, [r7, #12]
 1368 0038 002B     		cmp	r3, #0
 1369 003a 02D1     		bne	.L84
1367:..\..\..\..\..\..\Software\uCOS-III\Source/os_task.c ****         p_tcb = OSTCBCurPtr;
 1370              		.loc 1 1367 0
 1371 003c 0C4B     		ldr	r3, .L85+4
 1372 003e 1B68     		ldr	r3, [r3]
 1373 0040 FB60     		str	r3, [r7, #12]
 1374              	.L84:
1368:..\..\..\..\..\..\Software\uCOS-III\Source/os_task.c ****     }
1369:..\..\..\..\..\..\Software\uCOS-III\Source/os_task.c ****     p_tcb->RegTbl[id] = value;
 1375              		.loc 1 1369 0
 1376 0042 0B23     		movs	r3, #11
 1377 0044 FB18     		adds	r3, r7, r3
 1378 0046 1A78     		ldrb	r2, [r3]
 1379 0048 FB68     		ldr	r3, [r7, #12]
 1380 004a 1E32     		adds	r2, r2, #30
 1381 004c 9200     		lsls	r2, r2, #2
 1382 004e 7968     		ldr	r1, [r7, #4]
 1383 0050 D150     		str	r1, [r2, r3]
1370:..\..\..\..\..\..\Software\uCOS-III\Source/os_task.c ****     CPU_CRITICAL_EXIT();
 1384              		.loc 1 1370 0
 1385 0052 FFF7FEFF 		bl	CPU_IntDisMeasStop
 1386 0056 7B69     		ldr	r3, [r7, #20]
 1387 0058 1800     		movs	r0, r3
 1388 005a FFF7FEFF 		bl	CPU_SR_Restore
1371:..\..\..\..\..\..\Software\uCOS-III\Source/os_task.c ****    *p_err             = OS_ERR_NONE;
 1389              		.loc 1 1371 0
 1390 005e 3B68     		ldr	r3, [r7]
 1391 0060 0022     		movs	r2, #0
 1392 0062 1A80     		strh	r2, [r3]
 1393              	.L81:
1372:..\..\..\..\..\..\Software\uCOS-III\Source/os_task.c **** }
 1394              		.loc 1 1372 0
 1395 0064 BD46     		mov	sp, r7
 1396 0066 06B0     		add	sp, sp, #24
 1397              		@ sp needed
 1398 0068 80BD     		pop	{r7, pc}
 1399              	.L86:
 1400 006a C046     		.align	2
 1401              	.L85:
 1402 006c 79690000 		.word	27001
 1403 0070 00000000 		.word	OSTCBCurPtr
 1404              		.cfi_endproc
 1405              	.LFE7:
 1406              		.size	OSTaskRegSet, .-OSTaskRegSet
 1407              		.section	.text.OSTaskResume,"ax",%progbits
 1408              		.align	2
 1409              		.global	OSTaskResume
 1410              		.code	16
 1411              		.thumb_func
 1412              		.type	OSTaskResume, %function
 1413              	OSTaskResume:
 1414              	.LFB8:
ARM GAS  C:\Users\ADMINI~1\AppData\Local\Temp\ccvBRVNC.s 			page 50


1373:..\..\..\..\..\..\Software\uCOS-III\Source/os_task.c **** #endif
1374:..\..\..\..\..\..\Software\uCOS-III\Source/os_task.c **** 
1375:..\..\..\..\..\..\Software\uCOS-III\Source/os_task.c **** 
1376:..\..\..\..\..\..\Software\uCOS-III\Source/os_task.c **** /*
1377:..\..\..\..\..\..\Software\uCOS-III\Source/os_task.c **** ***************************************************************************************************
1378:..\..\..\..\..\..\Software\uCOS-III\Source/os_task.c **** *                                               RESUME A SUSPENDED TASK
1379:..\..\..\..\..\..\Software\uCOS-III\Source/os_task.c **** *
1380:..\..\..\..\..\..\Software\uCOS-III\Source/os_task.c **** * Description: This function is called to resume a previously suspended task.  This is the only cal
1381:..\..\..\..\..\..\Software\uCOS-III\Source/os_task.c **** *              explicit task suspension.
1382:..\..\..\..\..\..\Software\uCOS-III\Source/os_task.c **** *
1383:..\..\..\..\..\..\Software\uCOS-III\Source/os_task.c **** * Arguments  : p_tcb      Is a pointer to the task's OS_TCB to resume
1384:..\..\..\..\..\..\Software\uCOS-III\Source/os_task.c **** *
1385:..\..\..\..\..\..\Software\uCOS-III\Source/os_task.c **** *              p_err      Is a pointer to a variable that will contain an error code returned by th
1386:..\..\..\..\..\..\Software\uCOS-III\Source/os_task.c **** *
1387:..\..\..\..\..\..\Software\uCOS-III\Source/os_task.c **** *                             OS_ERR_NONE                  If the requested task is resumed
1388:..\..\..\..\..\..\Software\uCOS-III\Source/os_task.c **** *                             OS_ERR_INT_Q_FULL            If the deferred interrupt post queue is 
1389:..\..\..\..\..\..\Software\uCOS-III\Source/os_task.c **** *                             OS_ERR_OS_NOT_RUNNING        If uC/OS-III is not running yet
1390:..\..\..\..\..\..\Software\uCOS-III\Source/os_task.c **** *                             OS_ERR_STATE_INVALID         If the task is in an invalid state
1391:..\..\..\..\..\..\Software\uCOS-III\Source/os_task.c **** *                             OS_ERR_TASK_NOT_SUSPENDED    If the task to resume has not been suspe
1392:..\..\..\..\..\..\Software\uCOS-III\Source/os_task.c **** *                             OS_ERR_TASK_RESUME_ISR       If you called this function from an ISR
1393:..\..\..\..\..\..\Software\uCOS-III\Source/os_task.c **** *                             OS_ERR_TASK_RESUME_SELF      You cannot resume 'self'
1394:..\..\..\..\..\..\Software\uCOS-III\Source/os_task.c **** *
1395:..\..\..\..\..\..\Software\uCOS-III\Source/os_task.c **** * Returns    : none
1396:..\..\..\..\..\..\Software\uCOS-III\Source/os_task.c **** *
1397:..\..\..\..\..\..\Software\uCOS-III\Source/os_task.c **** * Note(s)    : none
1398:..\..\..\..\..\..\Software\uCOS-III\Source/os_task.c **** ***************************************************************************************************
1399:..\..\..\..\..\..\Software\uCOS-III\Source/os_task.c **** */
1400:..\..\..\..\..\..\Software\uCOS-III\Source/os_task.c **** 
1401:..\..\..\..\..\..\Software\uCOS-III\Source/os_task.c **** #if (OS_CFG_TASK_SUSPEND_EN == DEF_ENABLED)
1402:..\..\..\..\..\..\Software\uCOS-III\Source/os_task.c **** void  OSTaskResume (OS_TCB  *p_tcb,
1403:..\..\..\..\..\..\Software\uCOS-III\Source/os_task.c ****                     OS_ERR  *p_err)
1404:..\..\..\..\..\..\Software\uCOS-III\Source/os_task.c **** {
 1415              		.loc 1 1404 0
 1416              		.cfi_startproc
 1417              		@ args = 0, pretend = 0, frame = 16
 1418              		@ frame_needed = 1, uses_anonymous_args = 0
 1419 0000 80B5     		push	{r7, lr}
 1420              		.cfi_def_cfa_offset 8
 1421              		.cfi_offset 7, -8
 1422              		.cfi_offset 14, -4
 1423 0002 84B0     		sub	sp, sp, #16
 1424              		.cfi_def_cfa_offset 24
 1425 0004 00AF     		add	r7, sp, #0
 1426              		.cfi_def_cfa_register 7
 1427 0006 7860     		str	r0, [r7, #4]
 1428 0008 3960     		str	r1, [r7]
1405:..\..\..\..\..\..\Software\uCOS-III\Source/os_task.c ****     CPU_SR_ALLOC();
 1429              		.loc 1 1405 0
 1430 000a 0023     		movs	r3, #0
 1431 000c FB60     		str	r3, [r7, #12]
1406:..\..\..\..\..\..\Software\uCOS-III\Source/os_task.c **** 
1407:..\..\..\..\..\..\Software\uCOS-III\Source/os_task.c **** 
1408:..\..\..\..\..\..\Software\uCOS-III\Source/os_task.c **** 
1409:..\..\..\..\..\..\Software\uCOS-III\Source/os_task.c **** #ifdef OS_SAFETY_CRITICAL
1410:..\..\..\..\..\..\Software\uCOS-III\Source/os_task.c ****     if (p_err == DEF_NULL) {
1411:..\..\..\..\..\..\Software\uCOS-III\Source/os_task.c ****         OS_SAFETY_CRITICAL_EXCEPTION();
1412:..\..\..\..\..\..\Software\uCOS-III\Source/os_task.c ****         return;
ARM GAS  C:\Users\ADMINI~1\AppData\Local\Temp\ccvBRVNC.s 			page 51


1413:..\..\..\..\..\..\Software\uCOS-III\Source/os_task.c ****     }
1414:..\..\..\..\..\..\Software\uCOS-III\Source/os_task.c **** #endif
1415:..\..\..\..\..\..\Software\uCOS-III\Source/os_task.c **** 
1416:..\..\..\..\..\..\Software\uCOS-III\Source/os_task.c **** #if (OS_CFG_ISR_POST_DEFERRED_EN   == DEF_DISABLED) && \
1417:..\..\..\..\..\..\Software\uCOS-III\Source/os_task.c ****     (OS_CFG_CALLED_FROM_ISR_CHK_EN == DEF_ENABLED)
1418:..\..\..\..\..\..\Software\uCOS-III\Source/os_task.c ****     if (OSIntNestingCtr > 0u) {                                 /* Not allowed to call from an ISR 
 1432              		.loc 1 1418 0
 1433 000e 174B     		ldr	r3, .L92
 1434 0010 1B78     		ldrb	r3, [r3]
 1435 0012 002B     		cmp	r3, #0
 1436 0014 03D0     		beq	.L88
1419:..\..\..\..\..\..\Software\uCOS-III\Source/os_task.c ****        *p_err = OS_ERR_TASK_RESUME_ISR;
 1437              		.loc 1 1419 0
 1438 0016 3B68     		ldr	r3, [r7]
 1439 0018 154A     		ldr	r2, .L92+4
 1440 001a 1A80     		strh	r2, [r3]
1420:..\..\..\..\..\..\Software\uCOS-III\Source/os_task.c ****         return;
 1441              		.loc 1 1420 0
 1442 001c 23E0     		b	.L87
 1443              	.L88:
1421:..\..\..\..\..\..\Software\uCOS-III\Source/os_task.c ****     }
1422:..\..\..\..\..\..\Software\uCOS-III\Source/os_task.c **** #endif
1423:..\..\..\..\..\..\Software\uCOS-III\Source/os_task.c **** 
1424:..\..\..\..\..\..\Software\uCOS-III\Source/os_task.c **** #if (OS_CFG_INVALID_OS_CALLS_CHK_EN == DEF_ENABLED)             /* Is the kernel running?          
1425:..\..\..\..\..\..\Software\uCOS-III\Source/os_task.c ****     if (OSRunning != OS_STATE_OS_RUNNING) {
1426:..\..\..\..\..\..\Software\uCOS-III\Source/os_task.c ****        *p_err = OS_ERR_OS_NOT_RUNNING;
1427:..\..\..\..\..\..\Software\uCOS-III\Source/os_task.c ****         return;
1428:..\..\..\..\..\..\Software\uCOS-III\Source/os_task.c ****     }
1429:..\..\..\..\..\..\Software\uCOS-III\Source/os_task.c **** #endif
1430:..\..\..\..\..\..\Software\uCOS-III\Source/os_task.c **** 
1431:..\..\..\..\..\..\Software\uCOS-III\Source/os_task.c **** 
1432:..\..\..\..\..\..\Software\uCOS-III\Source/os_task.c ****     CPU_CRITICAL_ENTER();
 1444              		.loc 1 1432 0
 1445 001e FFF7FEFF 		bl	CPU_SR_Save
 1446 0022 0300     		movs	r3, r0
 1447 0024 FB60     		str	r3, [r7, #12]
 1448 0026 FFF7FEFF 		bl	CPU_IntDisMeasStart
1433:..\..\..\..\..\..\Software\uCOS-III\Source/os_task.c **** #if (OS_CFG_ARG_CHK_EN == DEF_ENABLED)
1434:..\..\..\..\..\..\Software\uCOS-III\Source/os_task.c ****     if ((p_tcb == DEF_NULL) ||                                  /* We cannot resume 'self'         
 1449              		.loc 1 1434 0
 1450 002a 7B68     		ldr	r3, [r7, #4]
 1451 002c 002B     		cmp	r3, #0
 1452 002e 04D0     		beq	.L90
1435:..\..\..\..\..\..\Software\uCOS-III\Source/os_task.c ****         (p_tcb == OSTCBCurPtr)) {
 1453              		.loc 1 1435 0 discriminator 1
 1454 0030 104B     		ldr	r3, .L92+8
 1455 0032 1B68     		ldr	r3, [r3]
1434:..\..\..\..\..\..\Software\uCOS-III\Source/os_task.c ****         (p_tcb == OSTCBCurPtr)) {
 1456              		.loc 1 1434 0 discriminator 1
 1457 0034 7A68     		ldr	r2, [r7, #4]
 1458 0036 9A42     		cmp	r2, r3
 1459 0038 09D1     		bne	.L91
 1460              	.L90:
1436:..\..\..\..\..\..\Software\uCOS-III\Source/os_task.c ****         CPU_CRITICAL_EXIT();
 1461              		.loc 1 1436 0
 1462 003a FFF7FEFF 		bl	CPU_IntDisMeasStop
 1463 003e FB68     		ldr	r3, [r7, #12]
ARM GAS  C:\Users\ADMINI~1\AppData\Local\Temp\ccvBRVNC.s 			page 52


 1464 0040 1800     		movs	r0, r3
 1465 0042 FFF7FEFF 		bl	CPU_SR_Restore
1437:..\..\..\..\..\..\Software\uCOS-III\Source/os_task.c ****        *p_err  = OS_ERR_TASK_RESUME_SELF;
 1466              		.loc 1 1437 0
 1467 0046 3B68     		ldr	r3, [r7]
 1468 0048 0B4A     		ldr	r2, .L92+12
 1469 004a 1A80     		strh	r2, [r3]
1438:..\..\..\..\..\..\Software\uCOS-III\Source/os_task.c ****         return;
 1470              		.loc 1 1438 0
 1471 004c 0BE0     		b	.L87
 1472              	.L91:
1439:..\..\..\..\..\..\Software\uCOS-III\Source/os_task.c ****     }
1440:..\..\..\..\..\..\Software\uCOS-III\Source/os_task.c **** #endif
1441:..\..\..\..\..\..\Software\uCOS-III\Source/os_task.c ****     CPU_CRITICAL_EXIT();
 1473              		.loc 1 1441 0
 1474 004e FFF7FEFF 		bl	CPU_IntDisMeasStop
 1475 0052 FB68     		ldr	r3, [r7, #12]
 1476 0054 1800     		movs	r0, r3
 1477 0056 FFF7FEFF 		bl	CPU_SR_Restore
1442:..\..\..\..\..\..\Software\uCOS-III\Source/os_task.c **** 
1443:..\..\..\..\..\..\Software\uCOS-III\Source/os_task.c **** #if (OS_CFG_ISR_POST_DEFERRED_EN == DEF_ENABLED)
1444:..\..\..\..\..\..\Software\uCOS-III\Source/os_task.c ****     if (OSIntNestingCtr > 0u) {                                 /* See if called from an ISR       
1445:..\..\..\..\..\..\Software\uCOS-III\Source/os_task.c ****         OS_IntQPost(OS_OBJ_TYPE_TASK_RESUME,                    /* Post to ISR queue               
1446:..\..\..\..\..\..\Software\uCOS-III\Source/os_task.c ****                     (void *)p_tcb,
1447:..\..\..\..\..\..\Software\uCOS-III\Source/os_task.c ****                     DEF_NULL,
1448:..\..\..\..\..\..\Software\uCOS-III\Source/os_task.c ****                     0u,
1449:..\..\..\..\..\..\Software\uCOS-III\Source/os_task.c ****                     0u,
1450:..\..\..\..\..\..\Software\uCOS-III\Source/os_task.c ****                     0u,
1451:..\..\..\..\..\..\Software\uCOS-III\Source/os_task.c ****                     0u,
1452:..\..\..\..\..\..\Software\uCOS-III\Source/os_task.c ****                     p_err);
1453:..\..\..\..\..\..\Software\uCOS-III\Source/os_task.c ****         return;
1454:..\..\..\..\..\..\Software\uCOS-III\Source/os_task.c ****     }
1455:..\..\..\..\..\..\Software\uCOS-III\Source/os_task.c **** #endif
1456:..\..\..\..\..\..\Software\uCOS-III\Source/os_task.c **** 
1457:..\..\..\..\..\..\Software\uCOS-III\Source/os_task.c ****     OS_TaskResume(p_tcb, p_err);
 1478              		.loc 1 1457 0
 1479 005a 3A68     		ldr	r2, [r7]
 1480 005c 7B68     		ldr	r3, [r7, #4]
 1481 005e 1100     		movs	r1, r2
 1482 0060 1800     		movs	r0, r3
 1483 0062 FFF7FEFF 		bl	OS_TaskResume
 1484              	.L87:
1458:..\..\..\..\..\..\Software\uCOS-III\Source/os_task.c **** 
1459:..\..\..\..\..\..\Software\uCOS-III\Source/os_task.c **** #if (defined(TRACE_CFG_EN) && (TRACE_CFG_EN == DEF_ENABLED))
1460:..\..\..\..\..\..\Software\uCOS-III\Source/os_task.c ****     TRACE_OS_TASK_RESUME(p_tcb);                                /* Record the event.               
1461:..\..\..\..\..\..\Software\uCOS-III\Source/os_task.c **** #endif
1462:..\..\..\..\..\..\Software\uCOS-III\Source/os_task.c **** }
 1485              		.loc 1 1462 0
 1486 0066 BD46     		mov	sp, r7
 1487 0068 04B0     		add	sp, sp, #16
 1488              		@ sp needed
 1489 006a 80BD     		pop	{r7, pc}
 1490              	.L93:
 1491              		.align	2
 1492              	.L92:
 1493 006c 00000000 		.word	OSIntNestingCtr
 1494 0070 55710000 		.word	29013
ARM GAS  C:\Users\ADMINI~1\AppData\Local\Temp\ccvBRVNC.s 			page 53


 1495 0074 00000000 		.word	OSTCBCurPtr
 1496 0078 57710000 		.word	29015
 1497              		.cfi_endproc
 1498              	.LFE8:
 1499              		.size	OSTaskResume, .-OSTaskResume
 1500              		.section	.text.OSTaskSemPend,"ax",%progbits
 1501              		.align	2
 1502              		.global	OSTaskSemPend
 1503              		.code	16
 1504              		.thumb_func
 1505              		.type	OSTaskSemPend, %function
 1506              	OSTaskSemPend:
 1507              	.LFB9:
1463:..\..\..\..\..\..\Software\uCOS-III\Source/os_task.c **** #endif
1464:..\..\..\..\..\..\Software\uCOS-III\Source/os_task.c **** 
1465:..\..\..\..\..\..\Software\uCOS-III\Source/os_task.c **** 
1466:..\..\..\..\..\..\Software\uCOS-III\Source/os_task.c **** /*
1467:..\..\..\..\..\..\Software\uCOS-III\Source/os_task.c **** ***************************************************************************************************
1468:..\..\..\..\..\..\Software\uCOS-III\Source/os_task.c **** *                                              WAIT FOR A TASK SEMAPHORE
1469:..\..\..\..\..\..\Software\uCOS-III\Source/os_task.c **** *
1470:..\..\..\..\..\..\Software\uCOS-III\Source/os_task.c **** * Description: This function is called to block the current task until a signal is sent by another 
1471:..\..\..\..\..\..\Software\uCOS-III\Source/os_task.c **** *
1472:..\..\..\..\..\..\Software\uCOS-III\Source/os_task.c **** * Arguments  : timeout       is the amount of time you are will to wait for the signal
1473:..\..\..\..\..\..\Software\uCOS-III\Source/os_task.c **** *
1474:..\..\..\..\..\..\Software\uCOS-III\Source/os_task.c **** *              opt           determines whether the user wants to block if a semaphore post was not
1475:..\..\..\..\..\..\Software\uCOS-III\Source/os_task.c **** *
1476:..\..\..\..\..\..\Software\uCOS-III\Source/os_task.c **** *                                OS_OPT_PEND_BLOCKING
1477:..\..\..\..\..\..\Software\uCOS-III\Source/os_task.c **** *                                OS_OPT_PEND_NON_BLOCKING
1478:..\..\..\..\..\..\Software\uCOS-III\Source/os_task.c **** *
1479:..\..\..\..\..\..\Software\uCOS-III\Source/os_task.c **** *              p_ts          is a pointer to a variable that will receive the timestamp of when the
1480:..\..\..\..\..\..\Software\uCOS-III\Source/os_task.c **** *                            or pend aborted.  If you pass a NULL pointer (i.e. (CPU_TS *)0) then y
1481:..\..\..\..\..\..\Software\uCOS-III\Source/os_task.c **** *                            timestamp.  In other words, passing a NULL pointer is valid and indica
1482:..\..\..\..\..\..\Software\uCOS-III\Source/os_task.c **** *                            need the timestamp.
1483:..\..\..\..\..\..\Software\uCOS-III\Source/os_task.c **** *
1484:..\..\..\..\..\..\Software\uCOS-III\Source/os_task.c **** *              p_err         is a pointer to an error code that will be set by this function
1485:..\..\..\..\..\..\Software\uCOS-III\Source/os_task.c **** *
1486:..\..\..\..\..\..\Software\uCOS-III\Source/os_task.c **** *                                OS_ERR_NONE                The call was successful and your task r
1487:..\..\..\..\..\..\Software\uCOS-III\Source/os_task.c **** *                                OS_ERR_OPT_INVALID         You specified an invalid option
1488:..\..\..\..\..\..\Software\uCOS-III\Source/os_task.c **** *                                OS_ERR_OS_NOT_RUNNING      If uC/OS-III is not running yet
1489:..\..\..\..\..\..\Software\uCOS-III\Source/os_task.c **** *                                OS_ERR_PEND_ABORT          If the pend was aborted
1490:..\..\..\..\..\..\Software\uCOS-III\Source/os_task.c **** *                                OS_ERR_PEND_ISR            If you called this function from an ISR
1491:..\..\..\..\..\..\Software\uCOS-III\Source/os_task.c **** *                                OS_ERR_PEND_WOULD_BLOCK    If you specified non-blocking but no si
1492:..\..\..\..\..\..\Software\uCOS-III\Source/os_task.c **** *                                OS_ERR_SCHED_LOCKED        If the scheduler is locked
1493:..\..\..\..\..\..\Software\uCOS-III\Source/os_task.c **** *                                OS_ERR_STATUS_INVALID      If the pend status is invalid
1494:..\..\..\..\..\..\Software\uCOS-III\Source/os_task.c **** *                                OS_ERR_TIMEOUT             A message was not received within the s
1495:..\..\..\..\..\..\Software\uCOS-III\Source/os_task.c **** *
1496:..\..\..\..\..\..\Software\uCOS-III\Source/os_task.c **** * Returns    : The current count of signals the task received, 0 if none.
1497:..\..\..\..\..\..\Software\uCOS-III\Source/os_task.c **** *
1498:..\..\..\..\..\..\Software\uCOS-III\Source/os_task.c **** * Note(s)    : none
1499:..\..\..\..\..\..\Software\uCOS-III\Source/os_task.c **** ***************************************************************************************************
1500:..\..\..\..\..\..\Software\uCOS-III\Source/os_task.c **** */
1501:..\..\..\..\..\..\Software\uCOS-III\Source/os_task.c **** 
1502:..\..\..\..\..\..\Software\uCOS-III\Source/os_task.c **** OS_SEM_CTR  OSTaskSemPend (OS_TICK   timeout,
1503:..\..\..\..\..\..\Software\uCOS-III\Source/os_task.c ****                            OS_OPT    opt,
1504:..\..\..\..\..\..\Software\uCOS-III\Source/os_task.c ****                            CPU_TS   *p_ts,
1505:..\..\..\..\..\..\Software\uCOS-III\Source/os_task.c ****                            OS_ERR   *p_err)
1506:..\..\..\..\..\..\Software\uCOS-III\Source/os_task.c **** {
ARM GAS  C:\Users\ADMINI~1\AppData\Local\Temp\ccvBRVNC.s 			page 54


 1508              		.loc 1 1506 0
 1509              		.cfi_startproc
 1510              		@ args = 0, pretend = 0, frame = 24
 1511              		@ frame_needed = 1, uses_anonymous_args = 0
 1512 0000 90B5     		push	{r4, r7, lr}
 1513              		.cfi_def_cfa_offset 12
 1514              		.cfi_offset 4, -12
 1515              		.cfi_offset 7, -8
 1516              		.cfi_offset 14, -4
 1517 0002 87B0     		sub	sp, sp, #28
 1518              		.cfi_def_cfa_offset 40
 1519 0004 00AF     		add	r7, sp, #0
 1520              		.cfi_def_cfa_register 7
 1521 0006 F860     		str	r0, [r7, #12]
 1522 0008 7A60     		str	r2, [r7, #4]
 1523 000a 3B60     		str	r3, [r7]
 1524 000c 0A23     		movs	r3, #10
 1525 000e FB18     		adds	r3, r7, r3
 1526 0010 0A1C     		adds	r2, r1, #0
 1527 0012 1A80     		strh	r2, [r3]
1507:..\..\..\..\..\..\Software\uCOS-III\Source/os_task.c ****     OS_SEM_CTR    ctr;
1508:..\..\..\..\..\..\Software\uCOS-III\Source/os_task.c ****     CPU_SR_ALLOC();
 1528              		.loc 1 1508 0
 1529 0014 0023     		movs	r3, #0
 1530 0016 7B61     		str	r3, [r7, #20]
1509:..\..\..\..\..\..\Software\uCOS-III\Source/os_task.c **** 
1510:..\..\..\..\..\..\Software\uCOS-III\Source/os_task.c **** 
1511:..\..\..\..\..\..\Software\uCOS-III\Source/os_task.c **** #if (OS_CFG_TS_EN == DEF_DISABLED)
1512:..\..\..\..\..\..\Software\uCOS-III\Source/os_task.c ****     (void)&p_ts;                                                /* Prevent compiler warning for not
1513:..\..\..\..\..\..\Software\uCOS-III\Source/os_task.c **** #endif
1514:..\..\..\..\..\..\Software\uCOS-III\Source/os_task.c **** 
1515:..\..\..\..\..\..\Software\uCOS-III\Source/os_task.c **** #ifdef OS_SAFETY_CRITICAL
1516:..\..\..\..\..\..\Software\uCOS-III\Source/os_task.c ****     if (p_err == DEF_NULL) {
1517:..\..\..\..\..\..\Software\uCOS-III\Source/os_task.c ****         OS_SAFETY_CRITICAL_EXCEPTION();
1518:..\..\..\..\..\..\Software\uCOS-III\Source/os_task.c ****         return (0u);
1519:..\..\..\..\..\..\Software\uCOS-III\Source/os_task.c ****     }
1520:..\..\..\..\..\..\Software\uCOS-III\Source/os_task.c **** #endif
1521:..\..\..\..\..\..\Software\uCOS-III\Source/os_task.c **** 
1522:..\..\..\..\..\..\Software\uCOS-III\Source/os_task.c **** #if (OS_CFG_CALLED_FROM_ISR_CHK_EN == DEF_ENABLED)
1523:..\..\..\..\..\..\Software\uCOS-III\Source/os_task.c ****     if (OSIntNestingCtr > 0u) {                                 /* Not allowed to call from an ISR 
 1531              		.loc 1 1523 0
 1532 0018 7B4B     		ldr	r3, .L117
 1533 001a 1B78     		ldrb	r3, [r3]
 1534 001c 002B     		cmp	r3, #0
 1535 001e 04D0     		beq	.L95
1524:..\..\..\..\..\..\Software\uCOS-III\Source/os_task.c **** #if (defined(TRACE_CFG_EN) && (TRACE_CFG_EN == DEF_ENABLED))
1525:..\..\..\..\..\..\Software\uCOS-III\Source/os_task.c ****         TRACE_OS_TASK_SEM_PEND_FAILED(OSTCBCurPtr);             /* Record the event.               
1526:..\..\..\..\..\..\Software\uCOS-III\Source/os_task.c **** #endif
1527:..\..\..\..\..\..\Software\uCOS-III\Source/os_task.c ****        *p_err = OS_ERR_PEND_ISR;
 1536              		.loc 1 1527 0
 1537 0020 3B68     		ldr	r3, [r7]
 1538 0022 7A4A     		ldr	r2, .L117+4
 1539 0024 1A80     		strh	r2, [r3]
1528:..\..\..\..\..\..\Software\uCOS-III\Source/os_task.c ****         return (0u);
 1540              		.loc 1 1528 0
 1541 0026 0023     		movs	r3, #0
 1542 0028 EAE0     		b	.L96
ARM GAS  C:\Users\ADMINI~1\AppData\Local\Temp\ccvBRVNC.s 			page 55


 1543              	.L95:
1529:..\..\..\..\..\..\Software\uCOS-III\Source/os_task.c ****     }
1530:..\..\..\..\..\..\Software\uCOS-III\Source/os_task.c **** #endif
1531:..\..\..\..\..\..\Software\uCOS-III\Source/os_task.c **** 
1532:..\..\..\..\..\..\Software\uCOS-III\Source/os_task.c **** #if (OS_CFG_INVALID_OS_CALLS_CHK_EN == DEF_ENABLED)             /* Is the kernel running?          
1533:..\..\..\..\..\..\Software\uCOS-III\Source/os_task.c ****     if (OSRunning != OS_STATE_OS_RUNNING) {
1534:..\..\..\..\..\..\Software\uCOS-III\Source/os_task.c ****        *p_err = OS_ERR_OS_NOT_RUNNING;
1535:..\..\..\..\..\..\Software\uCOS-III\Source/os_task.c ****         return (0u);
1536:..\..\..\..\..\..\Software\uCOS-III\Source/os_task.c ****     }
1537:..\..\..\..\..\..\Software\uCOS-III\Source/os_task.c **** #endif
1538:..\..\..\..\..\..\Software\uCOS-III\Source/os_task.c **** 
1539:..\..\..\..\..\..\Software\uCOS-III\Source/os_task.c **** #if (OS_CFG_ARG_CHK_EN == DEF_ENABLED)
1540:..\..\..\..\..\..\Software\uCOS-III\Source/os_task.c ****     switch (opt) {                                              /* Validate 'opt'                  
 1544              		.loc 1 1540 0
 1545 002a 0A23     		movs	r3, #10
 1546 002c FB18     		adds	r3, r7, r3
 1547 002e 1B88     		ldrh	r3, [r3]
 1548 0030 002B     		cmp	r3, #0
 1549 0032 08D0     		beq	.L116
 1550 0034 8022     		movs	r2, #128
 1551 0036 1202     		lsls	r2, r2, #8
 1552 0038 9342     		cmp	r3, r2
 1553 003a 04D0     		beq	.L116
1541:..\..\..\..\..\..\Software\uCOS-III\Source/os_task.c ****         case OS_OPT_PEND_BLOCKING:
1542:..\..\..\..\..\..\Software\uCOS-III\Source/os_task.c ****         case OS_OPT_PEND_NON_BLOCKING:
1543:..\..\..\..\..\..\Software\uCOS-III\Source/os_task.c ****              break;
1544:..\..\..\..\..\..\Software\uCOS-III\Source/os_task.c **** 
1545:..\..\..\..\..\..\Software\uCOS-III\Source/os_task.c ****         default:
1546:..\..\..\..\..\..\Software\uCOS-III\Source/os_task.c **** #if (defined(TRACE_CFG_EN) && (TRACE_CFG_EN == DEF_ENABLED))
1547:..\..\..\..\..\..\Software\uCOS-III\Source/os_task.c ****              TRACE_OS_TASK_SEM_PEND_FAILED(OSTCBCurPtr);        /* Record the event.               
1548:..\..\..\..\..\..\Software\uCOS-III\Source/os_task.c **** #endif
1549:..\..\..\..\..\..\Software\uCOS-III\Source/os_task.c ****             *p_err = OS_ERR_OPT_INVALID;
 1554              		.loc 1 1549 0
 1555 003c 3B68     		ldr	r3, [r7]
 1556 003e 744A     		ldr	r2, .L117+8
 1557 0040 1A80     		strh	r2, [r3]
1550:..\..\..\..\..\..\Software\uCOS-III\Source/os_task.c ****              return (0u);
 1558              		.loc 1 1550 0
 1559 0042 0023     		movs	r3, #0
 1560 0044 DCE0     		b	.L96
 1561              	.L116:
1543:..\..\..\..\..\..\Software\uCOS-III\Source/os_task.c **** 
 1562              		.loc 1 1543 0
 1563 0046 C046     		nop
1551:..\..\..\..\..\..\Software\uCOS-III\Source/os_task.c ****     }
1552:..\..\..\..\..\..\Software\uCOS-III\Source/os_task.c **** #endif
1553:..\..\..\..\..\..\Software\uCOS-III\Source/os_task.c **** 
1554:..\..\..\..\..\..\Software\uCOS-III\Source/os_task.c ****     CPU_CRITICAL_ENTER();
 1564              		.loc 1 1554 0
 1565 0048 FFF7FEFF 		bl	CPU_SR_Save
 1566 004c 0300     		movs	r3, r0
 1567 004e 7B61     		str	r3, [r7, #20]
 1568 0050 FFF7FEFF 		bl	CPU_IntDisMeasStart
1555:..\..\..\..\..\..\Software\uCOS-III\Source/os_task.c ****     if (OSTCBCurPtr->SemCtr > 0u) {                             /* See if task already been signale
 1569              		.loc 1 1555 0
 1570 0054 6F4B     		ldr	r3, .L117+12
 1571 0056 1B68     		ldr	r3, [r3]
ARM GAS  C:\Users\ADMINI~1\AppData\Local\Temp\ccvBRVNC.s 			page 56


 1572 0058 DB6C     		ldr	r3, [r3, #76]
 1573 005a 002B     		cmp	r3, #0
 1574 005c 38D0     		beq	.L100
1556:..\..\..\..\..\..\Software\uCOS-III\Source/os_task.c ****         OSTCBCurPtr->SemCtr--;
 1575              		.loc 1 1556 0
 1576 005e 6D4B     		ldr	r3, .L117+12
 1577 0060 1B68     		ldr	r3, [r3]
 1578 0062 DA6C     		ldr	r2, [r3, #76]
 1579 0064 013A     		subs	r2, r2, #1
 1580 0066 DA64     		str	r2, [r3, #76]
1557:..\..\..\..\..\..\Software\uCOS-III\Source/os_task.c ****         ctr = OSTCBCurPtr->SemCtr;
 1581              		.loc 1 1557 0
 1582 0068 6A4B     		ldr	r3, .L117+12
 1583 006a 1B68     		ldr	r3, [r3]
 1584 006c DB6C     		ldr	r3, [r3, #76]
 1585 006e 3B61     		str	r3, [r7, #16]
1558:..\..\..\..\..\..\Software\uCOS-III\Source/os_task.c **** #if (OS_CFG_TS_EN == DEF_ENABLED)
1559:..\..\..\..\..\..\Software\uCOS-III\Source/os_task.c ****         if (p_ts != DEF_NULL) {
 1586              		.loc 1 1559 0
 1587 0070 7B68     		ldr	r3, [r7, #4]
 1588 0072 002B     		cmp	r3, #0
 1589 0074 04D0     		beq	.L101
1560:..\..\..\..\..\..\Software\uCOS-III\Source/os_task.c ****            *p_ts  = OSTCBCurPtr->TS;
 1590              		.loc 1 1560 0
 1591 0076 674B     		ldr	r3, .L117+12
 1592 0078 1B68     		ldr	r3, [r3]
 1593 007a 9A6C     		ldr	r2, [r3, #72]
 1594 007c 7B68     		ldr	r3, [r7, #4]
 1595 007e 1A60     		str	r2, [r3]
 1596              	.L101:
1561:..\..\..\..\..\..\Software\uCOS-III\Source/os_task.c ****         }
1562:..\..\..\..\..\..\Software\uCOS-III\Source/os_task.c **** #if (OS_CFG_TASK_PROFILE_EN == DEF_ENABLED)
1563:..\..\..\..\..\..\Software\uCOS-III\Source/os_task.c **** #if (OS_CFG_TS_EN == DEF_ENABLED)
1564:..\..\..\..\..\..\Software\uCOS-III\Source/os_task.c ****         OSTCBCurPtr->SemPendTime = OS_TS_GET() - OSTCBCurPtr->TS;
 1597              		.loc 1 1564 0
 1598 0080 644B     		ldr	r3, .L117+12
 1599 0082 1C68     		ldr	r4, [r3]
 1600 0084 FFF7FEFF 		bl	CPU_TS_TmrRd
 1601 0088 0200     		movs	r2, r0
 1602 008a 624B     		ldr	r3, .L117+12
 1603 008c 1B68     		ldr	r3, [r3]
 1604 008e 9B6C     		ldr	r3, [r3, #72]
 1605 0090 D31A     		subs	r3, r2, r3
 1606 0092 A022     		movs	r2, #160
 1607 0094 A350     		str	r3, [r4, r2]
1565:..\..\..\..\..\..\Software\uCOS-III\Source/os_task.c ****         if (OSTCBCurPtr->SemPendTimeMax < OSTCBCurPtr->SemPendTime) {
 1608              		.loc 1 1565 0
 1609 0096 5F4B     		ldr	r3, .L117+12
 1610 0098 1B68     		ldr	r3, [r3]
 1611 009a A422     		movs	r2, #164
 1612 009c 9A58     		ldr	r2, [r3, r2]
 1613 009e 5D4B     		ldr	r3, .L117+12
 1614 00a0 1B68     		ldr	r3, [r3]
 1615 00a2 A021     		movs	r1, #160
 1616 00a4 5B58     		ldr	r3, [r3, r1]
 1617 00a6 9A42     		cmp	r2, r3
 1618 00a8 07D2     		bcs	.L102
ARM GAS  C:\Users\ADMINI~1\AppData\Local\Temp\ccvBRVNC.s 			page 57


1566:..\..\..\..\..\..\Software\uCOS-III\Source/os_task.c ****             OSTCBCurPtr->SemPendTimeMax = OSTCBCurPtr->SemPendTime;
 1619              		.loc 1 1566 0
 1620 00aa 5A4B     		ldr	r3, .L117+12
 1621 00ac 1A68     		ldr	r2, [r3]
 1622 00ae 594B     		ldr	r3, .L117+12
 1623 00b0 1B68     		ldr	r3, [r3]
 1624 00b2 A021     		movs	r1, #160
 1625 00b4 5B58     		ldr	r3, [r3, r1]
 1626 00b6 A421     		movs	r1, #164
 1627 00b8 5350     		str	r3, [r2, r1]
 1628              	.L102:
1567:..\..\..\..\..\..\Software\uCOS-III\Source/os_task.c ****         }
1568:..\..\..\..\..\..\Software\uCOS-III\Source/os_task.c **** #endif
1569:..\..\..\..\..\..\Software\uCOS-III\Source/os_task.c **** #endif
1570:..\..\..\..\..\..\Software\uCOS-III\Source/os_task.c **** #endif
1571:..\..\..\..\..\..\Software\uCOS-III\Source/os_task.c ****         CPU_CRITICAL_EXIT();
 1629              		.loc 1 1571 0
 1630 00ba FFF7FEFF 		bl	CPU_IntDisMeasStop
 1631 00be 7B69     		ldr	r3, [r7, #20]
 1632 00c0 1800     		movs	r0, r3
 1633 00c2 FFF7FEFF 		bl	CPU_SR_Restore
1572:..\..\..\..\..\..\Software\uCOS-III\Source/os_task.c **** #if (defined(TRACE_CFG_EN) && (TRACE_CFG_EN == DEF_ENABLED))
1573:..\..\..\..\..\..\Software\uCOS-III\Source/os_task.c ****         TRACE_OS_TASK_SEM_PEND(OSTCBCurPtr);                    /* Record the event.               
1574:..\..\..\..\..\..\Software\uCOS-III\Source/os_task.c **** #endif
1575:..\..\..\..\..\..\Software\uCOS-III\Source/os_task.c ****        *p_err = OS_ERR_NONE;
 1634              		.loc 1 1575 0
 1635 00c6 3B68     		ldr	r3, [r7]
 1636 00c8 0022     		movs	r2, #0
 1637 00ca 1A80     		strh	r2, [r3]
1576:..\..\..\..\..\..\Software\uCOS-III\Source/os_task.c ****         return (ctr);
 1638              		.loc 1 1576 0
 1639 00cc 3B69     		ldr	r3, [r7, #16]
 1640 00ce 97E0     		b	.L96
 1641              	.L100:
1577:..\..\..\..\..\..\Software\uCOS-III\Source/os_task.c ****     }
1578:..\..\..\..\..\..\Software\uCOS-III\Source/os_task.c **** 
1579:..\..\..\..\..\..\Software\uCOS-III\Source/os_task.c ****     if ((opt & OS_OPT_PEND_NON_BLOCKING) != 0u) {               /* Caller wants to block if not ava
 1642              		.loc 1 1579 0
 1643 00d0 0A23     		movs	r3, #10
 1644 00d2 FB18     		adds	r3, r7, r3
 1645 00d4 0022     		movs	r2, #0
 1646 00d6 9B5E     		ldrsh	r3, [r3, r2]
 1647 00d8 002B     		cmp	r3, #0
 1648 00da 10DA     		bge	.L103
1580:..\..\..\..\..\..\Software\uCOS-III\Source/os_task.c ****         CPU_CRITICAL_EXIT();
 1649              		.loc 1 1580 0
 1650 00dc FFF7FEFF 		bl	CPU_IntDisMeasStop
 1651 00e0 7B69     		ldr	r3, [r7, #20]
 1652 00e2 1800     		movs	r0, r3
 1653 00e4 FFF7FEFF 		bl	CPU_SR_Restore
1581:..\..\..\..\..\..\Software\uCOS-III\Source/os_task.c **** #if (OS_CFG_TS_EN == DEF_ENABLED)
1582:..\..\..\..\..\..\Software\uCOS-III\Source/os_task.c ****         if (p_ts != DEF_NULL) {
 1654              		.loc 1 1582 0
 1655 00e8 7B68     		ldr	r3, [r7, #4]
 1656 00ea 002B     		cmp	r3, #0
 1657 00ec 02D0     		beq	.L104
1583:..\..\..\..\..\..\Software\uCOS-III\Source/os_task.c ****             *p_ts  = 0u;
ARM GAS  C:\Users\ADMINI~1\AppData\Local\Temp\ccvBRVNC.s 			page 58


 1658              		.loc 1 1583 0
 1659 00ee 7B68     		ldr	r3, [r7, #4]
 1660 00f0 0022     		movs	r2, #0
 1661 00f2 1A60     		str	r2, [r3]
 1662              	.L104:
1584:..\..\..\..\..\..\Software\uCOS-III\Source/os_task.c ****         }
1585:..\..\..\..\..\..\Software\uCOS-III\Source/os_task.c **** #endif
1586:..\..\..\..\..\..\Software\uCOS-III\Source/os_task.c ****        *p_err = OS_ERR_PEND_WOULD_BLOCK;                        /* No                              
 1663              		.loc 1 1586 0
 1664 00f4 3B68     		ldr	r3, [r7]
 1665 00f6 484A     		ldr	r2, .L117+16
 1666 00f8 1A80     		strh	r2, [r3]
1587:..\..\..\..\..\..\Software\uCOS-III\Source/os_task.c **** #if (defined(TRACE_CFG_EN) && (TRACE_CFG_EN == DEF_ENABLED))
1588:..\..\..\..\..\..\Software\uCOS-III\Source/os_task.c ****         TRACE_OS_TASK_SEM_PEND_FAILED(OSTCBCurPtr);             /* Record the event.               
1589:..\..\..\..\..\..\Software\uCOS-III\Source/os_task.c **** #endif
1590:..\..\..\..\..\..\Software\uCOS-III\Source/os_task.c ****         return (0u);
 1667              		.loc 1 1590 0
 1668 00fa 0023     		movs	r3, #0
 1669 00fc 80E0     		b	.L96
 1670              	.L103:
1591:..\..\..\..\..\..\Software\uCOS-III\Source/os_task.c ****     } else {                                                    /* Yes                             
1592:..\..\..\..\..\..\Software\uCOS-III\Source/os_task.c ****         if (OSSchedLockNestingCtr > 0u) {                       /* Can't pend when the scheduler is
 1671              		.loc 1 1592 0
 1672 00fe 474B     		ldr	r3, .L117+20
 1673 0100 1B78     		ldrb	r3, [r3]
 1674 0102 002B     		cmp	r3, #0
 1675 0104 10D0     		beq	.L105
1593:..\..\..\..\..\..\Software\uCOS-III\Source/os_task.c **** #if (OS_CFG_TS_EN == DEF_ENABLED)
1594:..\..\..\..\..\..\Software\uCOS-III\Source/os_task.c ****             if (p_ts != DEF_NULL) {
 1676              		.loc 1 1594 0
 1677 0106 7B68     		ldr	r3, [r7, #4]
 1678 0108 002B     		cmp	r3, #0
 1679 010a 02D0     		beq	.L106
1595:..\..\..\..\..\..\Software\uCOS-III\Source/os_task.c ****                *p_ts  = 0u;
 1680              		.loc 1 1595 0
 1681 010c 7B68     		ldr	r3, [r7, #4]
 1682 010e 0022     		movs	r2, #0
 1683 0110 1A60     		str	r2, [r3]
 1684              	.L106:
1596:..\..\..\..\..\..\Software\uCOS-III\Source/os_task.c ****             }
1597:..\..\..\..\..\..\Software\uCOS-III\Source/os_task.c **** #endif
1598:..\..\..\..\..\..\Software\uCOS-III\Source/os_task.c ****             CPU_CRITICAL_EXIT();
 1685              		.loc 1 1598 0
 1686 0112 FFF7FEFF 		bl	CPU_IntDisMeasStop
 1687 0116 7B69     		ldr	r3, [r7, #20]
 1688 0118 1800     		movs	r0, r3
 1689 011a FFF7FEFF 		bl	CPU_SR_Restore
1599:..\..\..\..\..\..\Software\uCOS-III\Source/os_task.c **** #if (defined(TRACE_CFG_EN) && (TRACE_CFG_EN == DEF_ENABLED))
1600:..\..\..\..\..\..\Software\uCOS-III\Source/os_task.c ****             TRACE_OS_TASK_SEM_PEND_FAILED(OSTCBCurPtr);         /* Record the event.               
1601:..\..\..\..\..\..\Software\uCOS-III\Source/os_task.c **** #endif
1602:..\..\..\..\..\..\Software\uCOS-III\Source/os_task.c ****            *p_err = OS_ERR_SCHED_LOCKED;
 1690              		.loc 1 1602 0
 1691 011e 3B68     		ldr	r3, [r7]
 1692 0120 3F4A     		ldr	r2, .L117+24
 1693 0122 1A80     		strh	r2, [r3]
1603:..\..\..\..\..\..\Software\uCOS-III\Source/os_task.c ****             return (0u);
 1694              		.loc 1 1603 0
ARM GAS  C:\Users\ADMINI~1\AppData\Local\Temp\ccvBRVNC.s 			page 59


 1695 0124 0023     		movs	r3, #0
 1696 0126 6BE0     		b	.L96
 1697              	.L105:
1604:..\..\..\..\..\..\Software\uCOS-III\Source/os_task.c ****         }
1605:..\..\..\..\..\..\Software\uCOS-III\Source/os_task.c ****     }
1606:..\..\..\..\..\..\Software\uCOS-III\Source/os_task.c ****                                                                 /* Lock the scheduler/re-enable int
1607:..\..\..\..\..\..\Software\uCOS-III\Source/os_task.c ****     OS_CRITICAL_ENTER_CPU_EXIT();
1608:..\..\..\..\..\..\Software\uCOS-III\Source/os_task.c ****     OS_Pend(DEF_NULL,                                           /* Block task pending on Signal    
 1698              		.loc 1 1608 0
 1699 0128 FB68     		ldr	r3, [r7, #12]
 1700 012a 0722     		movs	r2, #7
 1701 012c 0021     		movs	r1, #0
 1702 012e 0020     		movs	r0, #0
 1703 0130 FFF7FEFF 		bl	OS_Pend
1609:..\..\..\..\..\..\Software\uCOS-III\Source/os_task.c ****             DEF_NULL,
1610:..\..\..\..\..\..\Software\uCOS-III\Source/os_task.c ****             OS_TASK_PEND_ON_TASK_SEM,
1611:..\..\..\..\..\..\Software\uCOS-III\Source/os_task.c ****             timeout);
1612:..\..\..\..\..\..\Software\uCOS-III\Source/os_task.c ****     OS_CRITICAL_EXIT_NO_SCHED();
 1704              		.loc 1 1612 0
 1705 0134 FFF7FEFF 		bl	CPU_IntDisMeasStop
 1706 0138 7B69     		ldr	r3, [r7, #20]
 1707 013a 1800     		movs	r0, r3
 1708 013c FFF7FEFF 		bl	CPU_SR_Restore
1613:..\..\..\..\..\..\Software\uCOS-III\Source/os_task.c **** #if (defined(TRACE_CFG_EN) && (TRACE_CFG_EN == DEF_ENABLED))
1614:..\..\..\..\..\..\Software\uCOS-III\Source/os_task.c ****     TRACE_OS_TASK_SEM_PEND_BLOCK(OSTCBCurPtr);                  /* Record the event.               
1615:..\..\..\..\..\..\Software\uCOS-III\Source/os_task.c **** #endif
1616:..\..\..\..\..\..\Software\uCOS-III\Source/os_task.c ****     OSSched();                                                  /* Find next highest priority task 
 1709              		.loc 1 1616 0
 1710 0140 FFF7FEFF 		bl	OSSched
1617:..\..\..\..\..\..\Software\uCOS-III\Source/os_task.c **** 
1618:..\..\..\..\..\..\Software\uCOS-III\Source/os_task.c ****     CPU_CRITICAL_ENTER();
 1711              		.loc 1 1618 0
 1712 0144 FFF7FEFF 		bl	CPU_SR_Save
 1713 0148 0300     		movs	r3, r0
 1714 014a 7B61     		str	r3, [r7, #20]
 1715 014c FFF7FEFF 		bl	CPU_IntDisMeasStart
1619:..\..\..\..\..\..\Software\uCOS-III\Source/os_task.c ****     switch (OSTCBCurPtr->PendStatus) {                          /* See if we timed-out or aborted  
 1716              		.loc 1 1619 0
 1717 0150 304B     		ldr	r3, .L117+12
 1718 0152 1B68     		ldr	r3, [r3]
 1719 0154 3522     		movs	r2, #53
 1720 0156 9B5C     		ldrb	r3, [r3, r2]
 1721 0158 012B     		cmp	r3, #1
 1722 015a 2CD0     		beq	.L108
 1723 015c 032B     		cmp	r3, #3
 1724 015e 36D0     		beq	.L109
 1725 0160 002B     		cmp	r3, #0
 1726 0162 3ED1     		bne	.L115
1620:..\..\..\..\..\..\Software\uCOS-III\Source/os_task.c ****         case OS_STATUS_PEND_OK:
1621:..\..\..\..\..\..\Software\uCOS-III\Source/os_task.c **** #if (OS_CFG_TS_EN == DEF_ENABLED)
1622:..\..\..\..\..\..\Software\uCOS-III\Source/os_task.c ****              if (p_ts != DEF_NULL) {
 1727              		.loc 1 1622 0
 1728 0164 7B68     		ldr	r3, [r7, #4]
 1729 0166 002B     		cmp	r3, #0
 1730 0168 21D0     		beq	.L111
1623:..\..\..\..\..\..\Software\uCOS-III\Source/os_task.c ****                 *p_ts                    =  OSTCBCurPtr->TS;
 1731              		.loc 1 1623 0
ARM GAS  C:\Users\ADMINI~1\AppData\Local\Temp\ccvBRVNC.s 			page 60


 1732 016a 2A4B     		ldr	r3, .L117+12
 1733 016c 1B68     		ldr	r3, [r3]
 1734 016e 9A6C     		ldr	r2, [r3, #72]
 1735 0170 7B68     		ldr	r3, [r7, #4]
 1736 0172 1A60     		str	r2, [r3]
1624:..\..\..\..\..\..\Software\uCOS-III\Source/os_task.c **** #if (OS_CFG_TASK_PROFILE_EN == DEF_ENABLED)
1625:..\..\..\..\..\..\Software\uCOS-III\Source/os_task.c **** #if (OS_CFG_TS_EN == DEF_ENABLED)
1626:..\..\..\..\..\..\Software\uCOS-III\Source/os_task.c ****                 OSTCBCurPtr->SemPendTime = OS_TS_GET() - OSTCBCurPtr->TS;
 1737              		.loc 1 1626 0
 1738 0174 274B     		ldr	r3, .L117+12
 1739 0176 1C68     		ldr	r4, [r3]
 1740 0178 FFF7FEFF 		bl	CPU_TS_TmrRd
 1741 017c 0200     		movs	r2, r0
 1742 017e 254B     		ldr	r3, .L117+12
 1743 0180 1B68     		ldr	r3, [r3]
 1744 0182 9B6C     		ldr	r3, [r3, #72]
 1745 0184 D31A     		subs	r3, r2, r3
 1746 0186 A022     		movs	r2, #160
 1747 0188 A350     		str	r3, [r4, r2]
1627:..\..\..\..\..\..\Software\uCOS-III\Source/os_task.c ****                 if (OSTCBCurPtr->SemPendTimeMax < OSTCBCurPtr->SemPendTime) {
 1748              		.loc 1 1627 0
 1749 018a 224B     		ldr	r3, .L117+12
 1750 018c 1B68     		ldr	r3, [r3]
 1751 018e A422     		movs	r2, #164
 1752 0190 9A58     		ldr	r2, [r3, r2]
 1753 0192 204B     		ldr	r3, .L117+12
 1754 0194 1B68     		ldr	r3, [r3]
 1755 0196 A021     		movs	r1, #160
 1756 0198 5B58     		ldr	r3, [r3, r1]
 1757 019a 9A42     		cmp	r2, r3
 1758 019c 07D2     		bcs	.L111
1628:..\..\..\..\..\..\Software\uCOS-III\Source/os_task.c ****                     OSTCBCurPtr->SemPendTimeMax = OSTCBCurPtr->SemPendTime;
 1759              		.loc 1 1628 0
 1760 019e 1D4B     		ldr	r3, .L117+12
 1761 01a0 1A68     		ldr	r2, [r3]
 1762 01a2 1C4B     		ldr	r3, .L117+12
 1763 01a4 1B68     		ldr	r3, [r3]
 1764 01a6 A021     		movs	r1, #160
 1765 01a8 5B58     		ldr	r3, [r3, r1]
 1766 01aa A421     		movs	r1, #164
 1767 01ac 5350     		str	r3, [r2, r1]
 1768              	.L111:
1629:..\..\..\..\..\..\Software\uCOS-III\Source/os_task.c ****                 }
1630:..\..\..\..\..\..\Software\uCOS-III\Source/os_task.c **** #endif
1631:..\..\..\..\..\..\Software\uCOS-III\Source/os_task.c **** #endif
1632:..\..\..\..\..\..\Software\uCOS-III\Source/os_task.c ****              }
1633:..\..\..\..\..\..\Software\uCOS-III\Source/os_task.c **** #endif
1634:..\..\..\..\..\..\Software\uCOS-III\Source/os_task.c **** #if (defined(TRACE_CFG_EN) && (TRACE_CFG_EN == DEF_ENABLED))
1635:..\..\..\..\..\..\Software\uCOS-III\Source/os_task.c ****              TRACE_OS_TASK_SEM_PEND(OSTCBCurPtr);               /* Record the event.               
1636:..\..\..\..\..\..\Software\uCOS-III\Source/os_task.c **** #endif
1637:..\..\..\..\..\..\Software\uCOS-III\Source/os_task.c ****             *p_err = OS_ERR_NONE;
 1769              		.loc 1 1637 0
 1770 01ae 3B68     		ldr	r3, [r7]
 1771 01b0 0022     		movs	r2, #0
 1772 01b2 1A80     		strh	r2, [r3]
1638:..\..\..\..\..\..\Software\uCOS-III\Source/os_task.c ****              break;
 1773              		.loc 1 1638 0
ARM GAS  C:\Users\ADMINI~1\AppData\Local\Temp\ccvBRVNC.s 			page 61


 1774 01b4 19E0     		b	.L112
 1775              	.L108:
1639:..\..\..\..\..\..\Software\uCOS-III\Source/os_task.c **** 
1640:..\..\..\..\..\..\Software\uCOS-III\Source/os_task.c ****         case OS_STATUS_PEND_ABORT:
1641:..\..\..\..\..\..\Software\uCOS-III\Source/os_task.c **** #if (OS_CFG_TS_EN == DEF_ENABLED)
1642:..\..\..\..\..\..\Software\uCOS-III\Source/os_task.c ****              if (p_ts != DEF_NULL) {
 1776              		.loc 1 1642 0
 1777 01b6 7B68     		ldr	r3, [r7, #4]
 1778 01b8 002B     		cmp	r3, #0
 1779 01ba 04D0     		beq	.L113
1643:..\..\..\..\..\..\Software\uCOS-III\Source/os_task.c ****                 *p_ts = OSTCBCurPtr->TS;
 1780              		.loc 1 1643 0
 1781 01bc 154B     		ldr	r3, .L117+12
 1782 01be 1B68     		ldr	r3, [r3]
 1783 01c0 9A6C     		ldr	r2, [r3, #72]
 1784 01c2 7B68     		ldr	r3, [r7, #4]
 1785 01c4 1A60     		str	r2, [r3]
 1786              	.L113:
1644:..\..\..\..\..\..\Software\uCOS-III\Source/os_task.c ****              }
1645:..\..\..\..\..\..\Software\uCOS-III\Source/os_task.c **** #endif
1646:..\..\..\..\..\..\Software\uCOS-III\Source/os_task.c **** #if (defined(TRACE_CFG_EN) && (TRACE_CFG_EN == DEF_ENABLED))
1647:..\..\..\..\..\..\Software\uCOS-III\Source/os_task.c ****              TRACE_OS_TASK_SEM_PEND_FAILED(OSTCBCurPtr);        /* Record the event.               
1648:..\..\..\..\..\..\Software\uCOS-III\Source/os_task.c **** #endif
1649:..\..\..\..\..\..\Software\uCOS-III\Source/os_task.c ****             *p_err = OS_ERR_PEND_ABORT;                         /* Indicate that we aborted        
 1787              		.loc 1 1649 0
 1788 01c6 3B68     		ldr	r3, [r7]
 1789 01c8 164A     		ldr	r2, .L117+28
 1790 01ca 1A80     		strh	r2, [r3]
1650:..\..\..\..\..\..\Software\uCOS-III\Source/os_task.c ****              break;
 1791              		.loc 1 1650 0
 1792 01cc 0DE0     		b	.L112
 1793              	.L109:
1651:..\..\..\..\..\..\Software\uCOS-III\Source/os_task.c **** 
1652:..\..\..\..\..\..\Software\uCOS-III\Source/os_task.c ****         case OS_STATUS_PEND_TIMEOUT:
1653:..\..\..\..\..\..\Software\uCOS-III\Source/os_task.c **** #if (OS_CFG_TS_EN == DEF_ENABLED)
1654:..\..\..\..\..\..\Software\uCOS-III\Source/os_task.c ****              if (p_ts != DEF_NULL) {
 1794              		.loc 1 1654 0
 1795 01ce 7B68     		ldr	r3, [r7, #4]
 1796 01d0 002B     		cmp	r3, #0
 1797 01d2 02D0     		beq	.L114
1655:..\..\..\..\..\..\Software\uCOS-III\Source/os_task.c ****                 *p_ts = 0u;
 1798              		.loc 1 1655 0
 1799 01d4 7B68     		ldr	r3, [r7, #4]
 1800 01d6 0022     		movs	r2, #0
 1801 01d8 1A60     		str	r2, [r3]
 1802              	.L114:
1656:..\..\..\..\..\..\Software\uCOS-III\Source/os_task.c ****              }
1657:..\..\..\..\..\..\Software\uCOS-III\Source/os_task.c **** #endif
1658:..\..\..\..\..\..\Software\uCOS-III\Source/os_task.c **** #if (defined(TRACE_CFG_EN) && (TRACE_CFG_EN == DEF_ENABLED))
1659:..\..\..\..\..\..\Software\uCOS-III\Source/os_task.c ****              TRACE_OS_TASK_SEM_PEND_FAILED(OSTCBCurPtr);        /* Record the event.               
1660:..\..\..\..\..\..\Software\uCOS-III\Source/os_task.c **** #endif
1661:..\..\..\..\..\..\Software\uCOS-III\Source/os_task.c ****             *p_err = OS_ERR_TIMEOUT;                            /* Indicate that we didn't get even
 1803              		.loc 1 1661 0
 1804 01da 3B68     		ldr	r3, [r7]
 1805 01dc 124A     		ldr	r2, .L117+32
 1806 01de 1A80     		strh	r2, [r3]
1662:..\..\..\..\..\..\Software\uCOS-III\Source/os_task.c ****              break;
ARM GAS  C:\Users\ADMINI~1\AppData\Local\Temp\ccvBRVNC.s 			page 62


 1807              		.loc 1 1662 0
 1808 01e0 03E0     		b	.L112
 1809              	.L115:
1663:..\..\..\..\..\..\Software\uCOS-III\Source/os_task.c **** 
1664:..\..\..\..\..\..\Software\uCOS-III\Source/os_task.c ****         default:
1665:..\..\..\..\..\..\Software\uCOS-III\Source/os_task.c **** #if (defined(TRACE_CFG_EN) && (TRACE_CFG_EN == DEF_ENABLED))
1666:..\..\..\..\..\..\Software\uCOS-III\Source/os_task.c ****              TRACE_OS_TASK_SEM_PEND_FAILED(OSTCBCurPtr);        /* Record the event.               
1667:..\..\..\..\..\..\Software\uCOS-III\Source/os_task.c **** #endif
1668:..\..\..\..\..\..\Software\uCOS-III\Source/os_task.c ****             *p_err = OS_ERR_STATUS_INVALID;
 1810              		.loc 1 1668 0
 1811 01e2 3B68     		ldr	r3, [r7]
 1812 01e4 114A     		ldr	r2, .L117+36
 1813 01e6 1A80     		strh	r2, [r3]
1669:..\..\..\..\..\..\Software\uCOS-III\Source/os_task.c ****              break;
 1814              		.loc 1 1669 0
 1815 01e8 C046     		nop
 1816              	.L112:
1670:..\..\..\..\..\..\Software\uCOS-III\Source/os_task.c ****     }
1671:..\..\..\..\..\..\Software\uCOS-III\Source/os_task.c ****     ctr = OSTCBCurPtr->SemCtr;
 1817              		.loc 1 1671 0
 1818 01ea 0A4B     		ldr	r3, .L117+12
 1819 01ec 1B68     		ldr	r3, [r3]
 1820 01ee DB6C     		ldr	r3, [r3, #76]
 1821 01f0 3B61     		str	r3, [r7, #16]
1672:..\..\..\..\..\..\Software\uCOS-III\Source/os_task.c ****     CPU_CRITICAL_EXIT();
 1822              		.loc 1 1672 0
 1823 01f2 FFF7FEFF 		bl	CPU_IntDisMeasStop
 1824 01f6 7B69     		ldr	r3, [r7, #20]
 1825 01f8 1800     		movs	r0, r3
 1826 01fa FFF7FEFF 		bl	CPU_SR_Restore
1673:..\..\..\..\..\..\Software\uCOS-III\Source/os_task.c ****     return (ctr);
 1827              		.loc 1 1673 0
 1828 01fe 3B69     		ldr	r3, [r7, #16]
 1829              	.L96:
1674:..\..\..\..\..\..\Software\uCOS-III\Source/os_task.c **** }
 1830              		.loc 1 1674 0
 1831 0200 1800     		movs	r0, r3
 1832 0202 BD46     		mov	sp, r7
 1833 0204 07B0     		add	sp, sp, #28
 1834              		@ sp needed
 1835 0206 90BD     		pop	{r4, r7, pc}
 1836              	.L118:
 1837              		.align	2
 1838              	.L117:
 1839 0208 00000000 		.word	OSIntNestingCtr
 1840 020c AE610000 		.word	25006
 1841 0210 255E0000 		.word	24101
 1842 0214 00000000 		.word	OSTCBCurPtr
 1843 0218 B0610000 		.word	25008
 1844 021c 00000000 		.word	OSSchedLockNestingCtr
 1845 0220 636D0000 		.word	28003
 1846 0224 A9610000 		.word	25001
 1847 0228 D9720000 		.word	29401
 1848 022c 2E6E0000 		.word	28206
 1849              		.cfi_endproc
 1850              	.LFE9:
 1851              		.size	OSTaskSemPend, .-OSTaskSemPend
ARM GAS  C:\Users\ADMINI~1\AppData\Local\Temp\ccvBRVNC.s 			page 63


 1852              		.section	.text.OSTaskSemPendAbort,"ax",%progbits
 1853              		.align	2
 1854              		.global	OSTaskSemPendAbort
 1855              		.code	16
 1856              		.thumb_func
 1857              		.type	OSTaskSemPendAbort, %function
 1858              	OSTaskSemPendAbort:
 1859              	.LFB10:
1675:..\..\..\..\..\..\Software\uCOS-III\Source/os_task.c **** 
1676:..\..\..\..\..\..\Software\uCOS-III\Source/os_task.c **** 
1677:..\..\..\..\..\..\Software\uCOS-III\Source/os_task.c **** /*
1678:..\..\..\..\..\..\Software\uCOS-III\Source/os_task.c **** ***************************************************************************************************
1679:..\..\..\..\..\..\Software\uCOS-III\Source/os_task.c **** *                                               ABORT WAITING FOR A SIGNAL
1680:..\..\..\..\..\..\Software\uCOS-III\Source/os_task.c **** *
1681:..\..\..\..\..\..\Software\uCOS-III\Source/os_task.c **** * Description: This function aborts & readies the task specified.  This function should be used to 
1682:..\..\..\..\..\..\Software\uCOS-III\Source/os_task.c **** *              for a signal, rather than to normally post the signal to the task via OSTaskSemPost(
1683:..\..\..\..\..\..\Software\uCOS-III\Source/os_task.c **** *
1684:..\..\..\..\..\..\Software\uCOS-III\Source/os_task.c **** * Arguments  : p_tcb     is a pointer to the task to pend abort
1685:..\..\..\..\..\..\Software\uCOS-III\Source/os_task.c **** *
1686:..\..\..\..\..\..\Software\uCOS-III\Source/os_task.c **** *              opt       provides options for this function:
1687:..\..\..\..\..\..\Software\uCOS-III\Source/os_task.c **** *
1688:..\..\..\..\..\..\Software\uCOS-III\Source/os_task.c **** *                            OS_OPT_POST_NONE         No option selected
1689:..\..\..\..\..\..\Software\uCOS-III\Source/os_task.c **** *                            OS_OPT_POST_NO_SCHED     Indicates that the scheduler will not be call
1690:..\..\..\..\..\..\Software\uCOS-III\Source/os_task.c **** *
1691:..\..\..\..\..\..\Software\uCOS-III\Source/os_task.c **** *              p_err     is a pointer to a variable that will contain an error code returned by thi
1692:..\..\..\..\..\..\Software\uCOS-III\Source/os_task.c **** *
1693:..\..\..\..\..\..\Software\uCOS-III\Source/os_task.c **** *                            OS_ERR_NONE               If the task was readied and informed of the 
1694:..\..\..\..\..\..\Software\uCOS-III\Source/os_task.c **** *                            OS_ERR_OPT_INVALID        You specified an invalid option
1695:..\..\..\..\..\..\Software\uCOS-III\Source/os_task.c **** *                            OS_ERR_OS_NOT_RUNNING     If uC/OS-III is not running yet
1696:..\..\..\..\..\..\Software\uCOS-III\Source/os_task.c **** *                            OS_ERR_PEND_ABORT_ISR     If you tried calling this function from an I
1697:..\..\..\..\..\..\Software\uCOS-III\Source/os_task.c **** *                            OS_ERR_PEND_ABORT_NONE    If the task was not waiting for a signal
1698:..\..\..\..\..\..\Software\uCOS-III\Source/os_task.c **** *                            OS_ERR_PEND_ABORT_SELF    If you attempted to pend abort the calling t
1699:..\..\..\..\..\..\Software\uCOS-III\Source/os_task.c **** *                                                      possible since the calling task cannot be pe
1700:..\..\..\..\..\..\Software\uCOS-III\Source/os_task.c **** *                                                      running
1701:..\..\..\..\..\..\Software\uCOS-III\Source/os_task.c **** *
1702:..\..\..\..\..\..\Software\uCOS-III\Source/os_task.c **** * Returns    : == DEF_FALSE   if task was not waiting for a message, or upon error.
1703:..\..\..\..\..\..\Software\uCOS-III\Source/os_task.c **** *              == DEF_TRUE    if task was waiting for a message and was readied and informed.
1704:..\..\..\..\..\..\Software\uCOS-III\Source/os_task.c **** *
1705:..\..\..\..\..\..\Software\uCOS-III\Source/os_task.c **** * Note(s)    : none
1706:..\..\..\..\..\..\Software\uCOS-III\Source/os_task.c **** ***************************************************************************************************
1707:..\..\..\..\..\..\Software\uCOS-III\Source/os_task.c **** */
1708:..\..\..\..\..\..\Software\uCOS-III\Source/os_task.c **** 
1709:..\..\..\..\..\..\Software\uCOS-III\Source/os_task.c **** #if (OS_CFG_TASK_SEM_PEND_ABORT_EN == DEF_ENABLED)
1710:..\..\..\..\..\..\Software\uCOS-III\Source/os_task.c **** CPU_BOOLEAN  OSTaskSemPendAbort (OS_TCB  *p_tcb,
1711:..\..\..\..\..\..\Software\uCOS-III\Source/os_task.c ****                                  OS_OPT   opt,
1712:..\..\..\..\..\..\Software\uCOS-III\Source/os_task.c ****                                  OS_ERR  *p_err)
1713:..\..\..\..\..\..\Software\uCOS-III\Source/os_task.c **** {
 1860              		.loc 1 1713 0
 1861              		.cfi_startproc
 1862              		@ args = 0, pretend = 0, frame = 24
 1863              		@ frame_needed = 1, uses_anonymous_args = 0
 1864 0000 80B5     		push	{r7, lr}
 1865              		.cfi_def_cfa_offset 8
 1866              		.cfi_offset 7, -8
 1867              		.cfi_offset 14, -4
 1868 0002 86B0     		sub	sp, sp, #24
 1869              		.cfi_def_cfa_offset 32
ARM GAS  C:\Users\ADMINI~1\AppData\Local\Temp\ccvBRVNC.s 			page 64


 1870 0004 00AF     		add	r7, sp, #0
 1871              		.cfi_def_cfa_register 7
 1872 0006 F860     		str	r0, [r7, #12]
 1873 0008 7A60     		str	r2, [r7, #4]
 1874 000a 0A23     		movs	r3, #10
 1875 000c FB18     		adds	r3, r7, r3
 1876 000e 0A1C     		adds	r2, r1, #0
 1877 0010 1A80     		strh	r2, [r3]
1714:..\..\..\..\..\..\Software\uCOS-III\Source/os_task.c ****     CPU_TS  ts;
1715:..\..\..\..\..\..\Software\uCOS-III\Source/os_task.c ****     CPU_SR_ALLOC();
 1878              		.loc 1 1715 0
 1879 0012 0023     		movs	r3, #0
 1880 0014 7B61     		str	r3, [r7, #20]
1716:..\..\..\..\..\..\Software\uCOS-III\Source/os_task.c **** 
1717:..\..\..\..\..\..\Software\uCOS-III\Source/os_task.c **** 
1718:..\..\..\..\..\..\Software\uCOS-III\Source/os_task.c **** 
1719:..\..\..\..\..\..\Software\uCOS-III\Source/os_task.c **** #ifdef OS_SAFETY_CRITICAL
1720:..\..\..\..\..\..\Software\uCOS-III\Source/os_task.c ****     if (p_err == DEF_NULL) {
1721:..\..\..\..\..\..\Software\uCOS-III\Source/os_task.c ****         OS_SAFETY_CRITICAL_EXCEPTION();
1722:..\..\..\..\..\..\Software\uCOS-III\Source/os_task.c ****         return (DEF_FALSE);
1723:..\..\..\..\..\..\Software\uCOS-III\Source/os_task.c ****     }
1724:..\..\..\..\..\..\Software\uCOS-III\Source/os_task.c **** #endif
1725:..\..\..\..\..\..\Software\uCOS-III\Source/os_task.c **** 
1726:..\..\..\..\..\..\Software\uCOS-III\Source/os_task.c **** #if (OS_CFG_CALLED_FROM_ISR_CHK_EN == DEF_ENABLED)
1727:..\..\..\..\..\..\Software\uCOS-III\Source/os_task.c ****     if (OSIntNestingCtr > 0u) {                                 /* See if called from ISR ...      
 1881              		.loc 1 1727 0
 1882 0016 364B     		ldr	r3, .L130
