ARM GAS  C:\Users\ADMINI~1\AppData\Local\Temp\ccCqyxMb.s 			page 1


   1              		.syntax unified
   2              		.cpu cortex-m0
   3              		.fpu softvfp
   4              		.eabi_attribute 20, 1
   5              		.eabi_attribute 21, 1
   6              		.eabi_attribute 23, 3
   7              		.eabi_attribute 24, 1
   8              		.eabi_attribute 25, 1
   9              		.eabi_attribute 26, 1
  10              		.eabi_attribute 30, 6
  11              		.eabi_attribute 34, 0
  12              		.eabi_attribute 18, 4
  13              		.thumb
  14              		.syntax unified
  15              		.file	"Temp_Sensor_PM.c"
  16              		.text
  17              	.Ltext0:
  18              		.cfi_sections	.debug_frame
  19              		.bss
  20              		.align	2
  21              	Temp_Sensor_backup:
  22 0000 00       		.space	1
  23              		.section	.text.Temp_Sensor_SaveConfig,"ax",%progbits
  24              		.align	2
  25              		.global	Temp_Sensor_SaveConfig
  26              		.code	16
  27              		.thumb_func
  28              		.type	Temp_Sensor_SaveConfig, %function
  29              	Temp_Sensor_SaveConfig:
  30              	.LFB1:
  31              		.file 1 "Generated_Source\\PSoC4\\Temp_Sensor_PM.c"
   1:Generated_Source\PSoC4/Temp_Sensor_PM.c **** /*******************************************************************************
   2:Generated_Source\PSoC4/Temp_Sensor_PM.c **** * File Name: Temp_Sensor_PM.c
   3:Generated_Source\PSoC4/Temp_Sensor_PM.c **** * Version 1.10
   4:Generated_Source\PSoC4/Temp_Sensor_PM.c **** *
   5:Generated_Source\PSoC4/Temp_Sensor_PM.c **** * Description:
   6:Generated_Source\PSoC4/Temp_Sensor_PM.c **** *  This file contains the setup, control and status commands to support
   7:Generated_Source\PSoC4/Temp_Sensor_PM.c **** *  component operations in low power mode.
   8:Generated_Source\PSoC4/Temp_Sensor_PM.c **** *
   9:Generated_Source\PSoC4/Temp_Sensor_PM.c **** * Note:
  10:Generated_Source\PSoC4/Temp_Sensor_PM.c **** *  None
  11:Generated_Source\PSoC4/Temp_Sensor_PM.c **** *
  12:Generated_Source\PSoC4/Temp_Sensor_PM.c **** ********************************************************************************
  13:Generated_Source\PSoC4/Temp_Sensor_PM.c **** * Copyright 2012-2013, Cypress Semiconductor Corporation.  All rights reserved.
  14:Generated_Source\PSoC4/Temp_Sensor_PM.c **** * You may use this file only in accordance with the license, terms, conditions,
  15:Generated_Source\PSoC4/Temp_Sensor_PM.c **** * disclaimers, and limitations in the end user license agreement accompanying
  16:Generated_Source\PSoC4/Temp_Sensor_PM.c **** * the software package with which this file was provided.
  17:Generated_Source\PSoC4/Temp_Sensor_PM.c **** *******************************************************************************/
  18:Generated_Source\PSoC4/Temp_Sensor_PM.c **** 
  19:Generated_Source\PSoC4/Temp_Sensor_PM.c **** #include "Temp_Sensor_PVT.h"
  20:Generated_Source\PSoC4/Temp_Sensor_PM.c **** 
  21:Generated_Source\PSoC4/Temp_Sensor_PM.c **** static Temp_Sensor_BACKUP_STRUCT Temp_Sensor_backup;
  22:Generated_Source\PSoC4/Temp_Sensor_PM.c **** 
  23:Generated_Source\PSoC4/Temp_Sensor_PM.c **** 
  24:Generated_Source\PSoC4/Temp_Sensor_PM.c **** /*******************************************************************************
  25:Generated_Source\PSoC4/Temp_Sensor_PM.c **** * Function Name: Temp_Sensor_SaveConfig
  26:Generated_Source\PSoC4/Temp_Sensor_PM.c **** ********************************************************************************
ARM GAS  C:\Users\ADMINI~1\AppData\Local\Temp\ccCqyxMb.s 			page 2


  27:Generated_Source\PSoC4/Temp_Sensor_PM.c **** *
  28:Generated_Source\PSoC4/Temp_Sensor_PM.c **** * Summary:
  29:Generated_Source\PSoC4/Temp_Sensor_PM.c **** *  All configuration registers are retention. Nothing to save here.
  30:Generated_Source\PSoC4/Temp_Sensor_PM.c **** *
  31:Generated_Source\PSoC4/Temp_Sensor_PM.c **** * Parameters:
  32:Generated_Source\PSoC4/Temp_Sensor_PM.c **** *  None
  33:Generated_Source\PSoC4/Temp_Sensor_PM.c **** *
  34:Generated_Source\PSoC4/Temp_Sensor_PM.c **** * Return:
  35:Generated_Source\PSoC4/Temp_Sensor_PM.c **** *  None
  36:Generated_Source\PSoC4/Temp_Sensor_PM.c **** *
  37:Generated_Source\PSoC4/Temp_Sensor_PM.c **** *******************************************************************************/
  38:Generated_Source\PSoC4/Temp_Sensor_PM.c **** void Temp_Sensor_SaveConfig(void) 
  39:Generated_Source\PSoC4/Temp_Sensor_PM.c **** {
  32              		.loc 1 39 0
  33              		.cfi_startproc
  34              		@ args = 0, pretend = 0, frame = 0
  35              		@ frame_needed = 1, uses_anonymous_args = 0
  36 0000 80B5     		push	{r7, lr}
  37              		.cfi_def_cfa_offset 8
  38              		.cfi_offset 7, -8
  39              		.cfi_offset 14, -4
  40 0002 00AF     		add	r7, sp, #0
  41              		.cfi_def_cfa_register 7
  40:Generated_Source\PSoC4/Temp_Sensor_PM.c **** 
  41:Generated_Source\PSoC4/Temp_Sensor_PM.c **** }
  42              		.loc 1 41 0
  43 0004 C046     		nop
  44 0006 BD46     		mov	sp, r7
  45              		@ sp needed
  46 0008 80BD     		pop	{r7, pc}
  47              		.cfi_endproc
  48              	.LFE1:
  49              		.size	Temp_Sensor_SaveConfig, .-Temp_Sensor_SaveConfig
  50 000a C046     		.section	.text.Temp_Sensor_Sleep,"ax",%progbits
  51              		.align	2
  52              		.global	Temp_Sensor_Sleep
  53              		.code	16
  54              		.thumb_func
  55              		.type	Temp_Sensor_Sleep, %function
  56              	Temp_Sensor_Sleep:
  57              	.LFB2:
  42:Generated_Source\PSoC4/Temp_Sensor_PM.c **** 
  43:Generated_Source\PSoC4/Temp_Sensor_PM.c **** 
  44:Generated_Source\PSoC4/Temp_Sensor_PM.c **** /*******************************************************************************
  45:Generated_Source\PSoC4/Temp_Sensor_PM.c **** * Function Name: Temp_Sensor_Sleep
  46:Generated_Source\PSoC4/Temp_Sensor_PM.c **** ********************************************************************************
  47:Generated_Source\PSoC4/Temp_Sensor_PM.c **** *
  48:Generated_Source\PSoC4/Temp_Sensor_PM.c **** * Summary:
  49:Generated_Source\PSoC4/Temp_Sensor_PM.c **** *  Stops the TMP05 operation and saves the user configuration.
  50:Generated_Source\PSoC4/Temp_Sensor_PM.c **** *
  51:Generated_Source\PSoC4/Temp_Sensor_PM.c **** * Parameters:
  52:Generated_Source\PSoC4/Temp_Sensor_PM.c **** *  None
  53:Generated_Source\PSoC4/Temp_Sensor_PM.c **** *
  54:Generated_Source\PSoC4/Temp_Sensor_PM.c **** * Return:
  55:Generated_Source\PSoC4/Temp_Sensor_PM.c **** *  None
  56:Generated_Source\PSoC4/Temp_Sensor_PM.c **** *
  57:Generated_Source\PSoC4/Temp_Sensor_PM.c **** *******************************************************************************/
ARM GAS  C:\Users\ADMINI~1\AppData\Local\Temp\ccCqyxMb.s 			page 3


  58:Generated_Source\PSoC4/Temp_Sensor_PM.c **** void Temp_Sensor_Sleep(void) 
  59:Generated_Source\PSoC4/Temp_Sensor_PM.c **** {
  58              		.loc 1 59 0
  59              		.cfi_startproc
  60              		@ args = 0, pretend = 0, frame = 0
  61              		@ frame_needed = 1, uses_anonymous_args = 0
  62 0000 80B5     		push	{r7, lr}
  63              		.cfi_def_cfa_offset 8
  64              		.cfi_offset 7, -8
  65              		.cfi_offset 14, -4
  66 0002 00AF     		add	r7, sp, #0
  67              		.cfi_def_cfa_register 7
  60:Generated_Source\PSoC4/Temp_Sensor_PM.c ****     if(0u != (Temp_Sensor_CONTROL_REG & Temp_Sensor_CTRL_REG_ENABLE))
  68              		.loc 1 60 0
  69 0004 094B     		ldr	r3, .L5
  70 0006 1B78     		ldrb	r3, [r3]
  71 0008 DBB2     		uxtb	r3, r3
  72 000a 5BB2     		sxtb	r3, r3
  73 000c 002B     		cmp	r3, #0
  74 000e 03DA     		bge	.L3
  61:Generated_Source\PSoC4/Temp_Sensor_PM.c ****     {
  62:Generated_Source\PSoC4/Temp_Sensor_PM.c ****         Temp_Sensor_backup.enableState = 1u;
  75              		.loc 1 62 0
  76 0010 074B     		ldr	r3, .L5+4
  77 0012 0122     		movs	r2, #1
  78 0014 1A70     		strb	r2, [r3]
  79 0016 02E0     		b	.L4
  80              	.L3:
  63:Generated_Source\PSoC4/Temp_Sensor_PM.c ****     }
  64:Generated_Source\PSoC4/Temp_Sensor_PM.c ****     else /* The TMP05 block is disabled */
  65:Generated_Source\PSoC4/Temp_Sensor_PM.c ****     {
  66:Generated_Source\PSoC4/Temp_Sensor_PM.c ****         Temp_Sensor_backup.enableState = 0u;
  81              		.loc 1 66 0
  82 0018 054B     		ldr	r3, .L5+4
  83 001a 0022     		movs	r2, #0
  84 001c 1A70     		strb	r2, [r3]
  85              	.L4:
  67:Generated_Source\PSoC4/Temp_Sensor_PM.c ****     }
  68:Generated_Source\PSoC4/Temp_Sensor_PM.c **** 
  69:Generated_Source\PSoC4/Temp_Sensor_PM.c ****     Temp_Sensor_Stop();
  86              		.loc 1 69 0
  87 001e FFF7FEFF 		bl	Temp_Sensor_Stop
  70:Generated_Source\PSoC4/Temp_Sensor_PM.c ****     Temp_Sensor_SaveConfig();
  88              		.loc 1 70 0
  89 0022 FFF7FEFF 		bl	Temp_Sensor_SaveConfig
  71:Generated_Source\PSoC4/Temp_Sensor_PM.c **** }
  90              		.loc 1 71 0
  91 0026 C046     		nop
  92 0028 BD46     		mov	sp, r7
  93              		@ sp needed
  94 002a 80BD     		pop	{r7, pc}
  95              	.L6:
  96              		.align	2
  97              	.L5:
  98 002c 72000F40 		.word	1074724978
  99 0030 00000000 		.word	Temp_Sensor_backup
 100              		.cfi_endproc
ARM GAS  C:\Users\ADMINI~1\AppData\Local\Temp\ccCqyxMb.s 			page 4


 101              	.LFE2:
 102              		.size	Temp_Sensor_Sleep, .-Temp_Sensor_Sleep
 103              		.section	.text.Temp_Sensor_RestoreConfig,"ax",%progbits
 104              		.align	2
 105              		.global	Temp_Sensor_RestoreConfig
 106              		.code	16
 107              		.thumb_func
 108              		.type	Temp_Sensor_RestoreConfig, %function
 109              	Temp_Sensor_RestoreConfig:
 110              	.LFB3:
  72:Generated_Source\PSoC4/Temp_Sensor_PM.c **** 
  73:Generated_Source\PSoC4/Temp_Sensor_PM.c **** 
  74:Generated_Source\PSoC4/Temp_Sensor_PM.c **** /*******************************************************************************
  75:Generated_Source\PSoC4/Temp_Sensor_PM.c **** * Function Name: Temp_Sensor_RestoreConfig
  76:Generated_Source\PSoC4/Temp_Sensor_PM.c **** ********************************************************************************
  77:Generated_Source\PSoC4/Temp_Sensor_PM.c **** *
  78:Generated_Source\PSoC4/Temp_Sensor_PM.c **** * Summary:
  79:Generated_Source\PSoC4/Temp_Sensor_PM.c **** *  All configuration registers are retention. Nothing to restore here.
  80:Generated_Source\PSoC4/Temp_Sensor_PM.c **** *
  81:Generated_Source\PSoC4/Temp_Sensor_PM.c **** * Parameters:
  82:Generated_Source\PSoC4/Temp_Sensor_PM.c **** *  None
  83:Generated_Source\PSoC4/Temp_Sensor_PM.c **** *
  84:Generated_Source\PSoC4/Temp_Sensor_PM.c **** * Return:
  85:Generated_Source\PSoC4/Temp_Sensor_PM.c **** *  None
  86:Generated_Source\PSoC4/Temp_Sensor_PM.c **** *
  87:Generated_Source\PSoC4/Temp_Sensor_PM.c **** *******************************************************************************/
  88:Generated_Source\PSoC4/Temp_Sensor_PM.c **** void Temp_Sensor_RestoreConfig(void) 
  89:Generated_Source\PSoC4/Temp_Sensor_PM.c **** {
 111              		.loc 1 89 0
 112              		.cfi_startproc
 113              		@ args = 0, pretend = 0, frame = 0
 114              		@ frame_needed = 1, uses_anonymous_args = 0
 115 0000 80B5     		push	{r7, lr}
 116              		.cfi_def_cfa_offset 8
 117              		.cfi_offset 7, -8
 118              		.cfi_offset 14, -4
 119 0002 00AF     		add	r7, sp, #0
 120              		.cfi_def_cfa_register 7
  90:Generated_Source\PSoC4/Temp_Sensor_PM.c **** 
  91:Generated_Source\PSoC4/Temp_Sensor_PM.c **** }
 121              		.loc 1 91 0
 122 0004 C046     		nop
 123 0006 BD46     		mov	sp, r7
 124              		@ sp needed
 125 0008 80BD     		pop	{r7, pc}
 126              		.cfi_endproc
 127              	.LFE3:
 128              		.size	Temp_Sensor_RestoreConfig, .-Temp_Sensor_RestoreConfig
 129              		.section	.text.Temp_Sensor_Wakeup,"ax",%progbits
 130              		.align	2
 131              		.global	Temp_Sensor_Wakeup
 132              		.code	16
 133              		.thumb_func
 134              		.type	Temp_Sensor_Wakeup, %function
 135              	Temp_Sensor_Wakeup:
 136              	.LFB4:
  92:Generated_Source\PSoC4/Temp_Sensor_PM.c **** 
ARM GAS  C:\Users\ADMINI~1\AppData\Local\Temp\ccCqyxMb.s 			page 5


  93:Generated_Source\PSoC4/Temp_Sensor_PM.c **** 
  94:Generated_Source\PSoC4/Temp_Sensor_PM.c **** /*******************************************************************************
  95:Generated_Source\PSoC4/Temp_Sensor_PM.c **** * Function Name: Temp_Sensor_Wakeup
  96:Generated_Source\PSoC4/Temp_Sensor_PM.c **** ********************************************************************************
  97:Generated_Source\PSoC4/Temp_Sensor_PM.c **** *
  98:Generated_Source\PSoC4/Temp_Sensor_PM.c **** * Summary:
  99:Generated_Source\PSoC4/Temp_Sensor_PM.c **** *  Restores the user configuration and restores the enable state.
 100:Generated_Source\PSoC4/Temp_Sensor_PM.c **** *
 101:Generated_Source\PSoC4/Temp_Sensor_PM.c **** * Parameters:
 102:Generated_Source\PSoC4/Temp_Sensor_PM.c **** *  None
 103:Generated_Source\PSoC4/Temp_Sensor_PM.c **** *
 104:Generated_Source\PSoC4/Temp_Sensor_PM.c **** * Return:
 105:Generated_Source\PSoC4/Temp_Sensor_PM.c **** *  None
 106:Generated_Source\PSoC4/Temp_Sensor_PM.c **** *
 107:Generated_Source\PSoC4/Temp_Sensor_PM.c **** *******************************************************************************/
 108:Generated_Source\PSoC4/Temp_Sensor_PM.c **** void Temp_Sensor_Wakeup(void) 
 109:Generated_Source\PSoC4/Temp_Sensor_PM.c **** {
 137              		.loc 1 109 0
 138              		.cfi_startproc
 139              		@ args = 0, pretend = 0, frame = 0
 140              		@ frame_needed = 1, uses_anonymous_args = 0
 141 0000 80B5     		push	{r7, lr}
 142              		.cfi_def_cfa_offset 8
 143              		.cfi_offset 7, -8
 144              		.cfi_offset 14, -4
 145 0002 00AF     		add	r7, sp, #0
 146              		.cfi_def_cfa_register 7
 110:Generated_Source\PSoC4/Temp_Sensor_PM.c ****     Temp_Sensor_RestoreConfig();
 147              		.loc 1 110 0
 148 0004 FFF7FEFF 		bl	Temp_Sensor_RestoreConfig
 111:Generated_Source\PSoC4/Temp_Sensor_PM.c **** 
 112:Generated_Source\PSoC4/Temp_Sensor_PM.c ****     if(0u != Temp_Sensor_backup.enableState)
 149              		.loc 1 112 0
 150 0008 064B     		ldr	r3, .L12
 151 000a 1B78     		ldrb	r3, [r3]
 152 000c 002B     		cmp	r3, #0
 153 000e 04D0     		beq	.L9
 113:Generated_Source\PSoC4/Temp_Sensor_PM.c ****     {
 114:Generated_Source\PSoC4/Temp_Sensor_PM.c ****         /* Enable component's operation */
 115:Generated_Source\PSoC4/Temp_Sensor_PM.c ****         Temp_Sensor_Enable();
 154              		.loc 1 115 0
 155 0010 FFF7FEFF 		bl	Temp_Sensor_Enable
 116:Generated_Source\PSoC4/Temp_Sensor_PM.c ****         Temp_Sensor_Trigger();
 156              		.loc 1 116 0
 157 0014 FFF7FEFF 		bl	Temp_Sensor_Trigger
 117:Generated_Source\PSoC4/Temp_Sensor_PM.c ****     } /* Do nothing if component's block was disabled before */
 118:Generated_Source\PSoC4/Temp_Sensor_PM.c ****     else
 119:Generated_Source\PSoC4/Temp_Sensor_PM.c ****     {
 120:Generated_Source\PSoC4/Temp_Sensor_PM.c ****         Temp_Sensor_Enable();
 121:Generated_Source\PSoC4/Temp_Sensor_PM.c ****     }
 122:Generated_Source\PSoC4/Temp_Sensor_PM.c **** }
 158              		.loc 1 122 0
 159 0018 01E0     		b	.L11
 160              	.L9:
 120:Generated_Source\PSoC4/Temp_Sensor_PM.c ****     }
 161              		.loc 1 120 0
 162 001a FFF7FEFF 		bl	Temp_Sensor_Enable
ARM GAS  C:\Users\ADMINI~1\AppData\Local\Temp\ccCqyxMb.s 			page 6


 163              	.L11:
 164              		.loc 1 122 0
 165 001e C046     		nop
 166 0020 BD46     		mov	sp, r7
 167              		@ sp needed
 168 0022 80BD     		pop	{r7, pc}
 169              	.L13:
 170              		.align	2
 171              	.L12:
 172 0024 00000000 		.word	Temp_Sensor_backup
 173              		.cfi_endproc
 174              	.LFE4:
 175              		.size	Temp_Sensor_Wakeup, .-Temp_Sensor_Wakeup
 176              		.text
 177              	.Letext0:
 178              		.file 2 "Generated_Source\\PSoC4\\cytypes.h"
 179              		.file 3 "Generated_Source\\PSoC4\\Temp_Sensor_PVT.h"